---
triple:          'arm64-apple-darwin'
binary-path:     '/Users/uk-aplatts/Development/InjuryIQ/ios/DerivedData/Build/Intermediates.noindex/ArchiveIntermediates/InjuryIQ/IntermediateBuildFilesPath/UninstalledProducts/iphoneos/React_Fabric.framework/React_Fabric'
relocations:
  - { offset: 0x33, size: 0x8, addend: 0x0, symName: _React_FabricVersionString, symObjAddr: 0x0, symBinAddr: 0xA7B70, symSize: 0x0 }
  - { offset: 0x67, size: 0x8, addend: 0x0, symName: _React_FabricVersionNumber, symObjAddr: 0x30, symBinAddr: 0xA7BA0, symSize: 0x0 }
  - { offset: 0x1063, size: 0x8, addend: 0x0, symName: __ZN8facebook5react14convertRawPropIbbEET_RKNS0_18PropsParserContextERKNS0_8RawPropsEPKcRKS2_RKT0_SA_SA_, symObjAddr: 0xA3C, symBinAddr: 0x4A3C, symSize: 0x1A8 }
  - { offset: 0x1509, size: 0x8, addend: 0x0, symName: __ZN8facebook5react14convertRawPropINSt3__18optionalINS0_18AccessibilityStateEEES5_EET_RKNS0_18PropsParserContextERKNS0_8RawPropsEPKcRKS6_RKT0_SE_SE_, symObjAddr: 0xBE4, symBinAddr: 0x4BE4, symSize: 0x1E0 }
  - { offset: 0x1A0E, size: 0x8, addend: 0x0, symName: __ZN8facebook5react14convertRawPropINSt3__112basic_stringIcNS2_11char_traitsIcEENS2_9allocatorIcEEEEA1_cEET_RKNS0_18PropsParserContextERKNS0_8RawPropsEPKcRKSA_RKT0_SI_SI_, symObjAddr: 0xDC4, symBinAddr: 0x4DC4, symSize: 0x238 }
  - { offset: 0x20CD, size: 0x8, addend: 0x0, symName: __ZN8facebook5react14convertRawPropINSt3__16vectorINS2_12basic_stringIcNS2_11char_traitsIcEENS2_9allocatorIcEEEENS7_IS9_EEEESB_EET_RKNS0_18PropsParserContextERKNS0_8RawPropsEPKcRKSC_RKT0_SK_SK_, symObjAddr: 0xFFC, symBinAddr: 0x4FFC, symSize: 0x22C }
  - { offset: 0x26E9, size: 0x8, addend: 0x0, symName: __ZN8facebook5react14convertRawPropINS0_23AccessibilityLabelledByES2_EET_RKNS0_18PropsParserContextERKNS0_8RawPropsEPKcRKS3_RKT0_SB_SB_, symObjAddr: 0x1228, symBinAddr: 0x5228, symSize: 0x22C }
  - { offset: 0x2DD1, size: 0x8, addend: 0x0, symName: __ZN8facebook5react14convertRawPropINS0_23AccessibilityLiveRegionES2_EET_RKNS0_18PropsParserContextERKNS0_8RawPropsEPKcRKS3_RKT0_SB_SB_, symObjAddr: 0x1454, symBinAddr: 0x5454, symSize: 0x1C4 }
  - { offset: 0x3267, size: 0x8, addend: 0x0, symName: __ZN8facebook5react14convertRawPropINS0_18AccessibilityValueES2_EET_RKNS0_18PropsParserContextERKNS0_8RawPropsEPKcRKS3_RKT0_SB_SB_, symObjAddr: 0x1618, symBinAddr: 0x5618, symSize: 0x258 }
  - { offset: 0x3EE9, size: 0x8, addend: 0x0, symName: __ZN8facebook5react14convertRawPropINSt3__16vectorINS0_19AccessibilityActionENS2_9allocatorIS4_EEEES7_EET_RKNS0_18PropsParserContextERKNS0_8RawPropsEPKcRKS8_RKT0_SG_SG_, symObjAddr: 0x1870, symBinAddr: 0x5870, symSize: 0x23C }
  - { offset: 0x4505, size: 0x8, addend: 0x0, symName: __ZN8facebook5react14convertRawPropINS0_25ImportantForAccessibilityES2_EET_RKNS0_18PropsParserContextERKNS0_8RawPropsEPKcRKS3_RKT0_SB_SB_, symObjAddr: 0x1AAC, symBinAddr: 0x5AAC, symSize: 0x1C4 }
  - { offset: 0x499B, size: 0x8, addend: 0x0, symName: __ZN8facebook5react12fromRawValueINSt3__112basic_stringIcNS2_11char_traitsIcEENS2_9allocatorIcEEEEEEvRKNS0_18PropsParserContextERKNS0_8RawValueERT_, symObjAddr: 0x1CAC, symBinAddr: 0x5CAC, symSize: 0x50 }
  - { offset: 0x4B11, size: 0x8, addend: 0x0, symName: __ZN8facebook5react12fromRawValueERKNS0_18PropsParserContextERKNS0_8RawValueERNS0_4RoleE, symObjAddr: 0x1CFC, symBinAddr: 0x5CFC, symSize: 0xA18 }
  - { offset: 0x5992, size: 0x8, addend: 0x0, symName: __ZN8facebook5react12fromRawValueERKNS0_18PropsParserContextERKNS0_8RawValueERNS0_19AccessibilityTraitsE, symObjAddr: 0x2714, symBinAddr: 0x6714, symSize: 0x160 }
  - { offset: 0x602E, size: 0x8, addend: 0x0, symName: __ZN8facebook5react12fromRawValueERKNS0_18PropsParserContextERKNS0_8RawValueERNS0_18AccessibilityStateE, symObjAddr: 0x4F00, symBinAddr: 0x8E50, symSize: 0x2E4 }
  - { offset: 0x6CF5, size: 0x8, addend: 0x0, symName: __ZN8facebook5react12fromRawValueINSt3__112basic_stringIcNS2_11char_traitsIcEENS2_9allocatorIcEEEEEEvRKNS0_18PropsParserContextERKNS0_8RawValueERNS2_6vectorIT_NS6_ISG_EEEE, symObjAddr: 0x6898, symBinAddr: 0xA7E8, symSize: 0x170 }
  - { offset: 0x74DC, size: 0x8, addend: 0x0, symName: __ZN8facebook5react12fromRawValueERKNS0_18PropsParserContextERKNS0_8RawValueERNS0_23AccessibilityLabelledByE, symObjAddr: 0x73D8, symBinAddr: 0xB2CC, symSize: 0xE8 }
  - { offset: 0x799E, size: 0x8, addend: 0x0, symName: __ZN8facebook5react12fromRawValueERKNS0_18PropsParserContextERKNS0_8RawValueERNS0_23AccessibilityLiveRegionE, symObjAddr: 0x74F8, symBinAddr: 0xB3EC, symSize: 0x24C }
  - { offset: 0x8122, size: 0x8, addend: 0x0, symName: __ZN8facebook5react12fromRawValueERKNS0_18PropsParserContextERKNS0_8RawValueERNS0_18AccessibilityValueE, symObjAddr: 0x7744, symBinAddr: 0xB638, symSize: 0x26C }
  - { offset: 0x8C32, size: 0x8, addend: 0x0, symName: __ZN8facebook5react12fromRawValueINS0_19AccessibilityActionEEEvRKNS0_18PropsParserContextERKNS0_8RawValueERNSt3__16vectorIT_NS9_9allocatorISB_EEEE, symObjAddr: 0x8838, symBinAddr: 0xC5FC, symSize: 0x1E0 }
  - { offset: 0x991F, size: 0x8, addend: 0x0, symName: __ZN8facebook5react12fromRawValueERKNS0_18PropsParserContextERKNS0_8RawValueERNS0_25ImportantForAccessibilityE, symObjAddr: 0x8F88, symBinAddr: 0xCD4C, symSize: 0x2A4 }
  - { offset: 0xA198, size: 0x8, addend: 0x0, symName: __ZN8facebook5react10fromStringERKNSt3__112basic_stringIcNS1_11char_traitsIcEENS1_9allocatorIcEEEERNS0_19AccessibilityTraitsE, symObjAddr: 0x4334, symBinAddr: 0x8284, symSize: 0x428 }
  - { offset: 0xA958, size: 0x8, addend: 0x0, symName: __ZN8facebook5react12fromRawValueINS0_18AccessibilityValueEEEvRKNS0_18PropsParserContextERKNS0_8RawValueERT_S9_, symObjAddr: 0x32EC, symBinAddr: 0x72EC, symSize: 0x60 }
  - { offset: 0xAB78, size: 0x8, addend: 0x0, symName: __ZN8facebook5react12fromRawValueINS0_23AccessibilityLabelledByEEEvRKNS0_18PropsParserContextERKNS0_8RawValueERT_S9_, symObjAddr: 0x3274, symBinAddr: 0x7274, symSize: 0x78 }
  - { offset: 0xADBD, size: 0x8, addend: 0x0, symName: __ZN8facebook5react12fromRawValueINS0_18AccessibilityValueEEEvRKNS0_18PropsParserContextERKNS0_8RawValueERT_S9_, symObjAddr: 0x32EC, symBinAddr: 0x72EC, symSize: 0x60 }
  - { offset: 0xADD0, size: 0x8, addend: 0x0, symName: __ZN8facebook5react12fromRawValueINSt3__16vectorINS2_12basic_stringIcNS2_11char_traitsIcEENS2_9allocatorIcEEEENS7_IS9_EEEEEEvRKNS0_18PropsParserContextERKNS0_8RawValueERT_SI_, symObjAddr: 0x31FC, symBinAddr: 0x71FC, symSize: 0x78 }
  - { offset: 0xAFF2, size: 0x8, addend: 0x0, symName: __ZN8facebook5react12fromRawValueINS0_23AccessibilityLabelledByEEEvRKNS0_18PropsParserContextERKNS0_8RawValueERT_S9_, symObjAddr: 0x3274, symBinAddr: 0x7274, symSize: 0x78 }
  - { offset: 0xB005, size: 0x8, addend: 0x0, symName: __ZN8facebook5react12fromRawValueINS0_25ImportantForAccessibilityEEEvRKNS0_18PropsParserContextERKNS0_8RawValueERT_S9_, symObjAddr: 0x33C4, symBinAddr: 0x73C4, symSize: 0x3C }
  - { offset: 0xB073, size: 0x8, addend: 0x0, symName: __ZN8facebook5react12fromRawValueINS0_25ImportantForAccessibilityEEEvRKNS0_18PropsParserContextERKNS0_8RawValueERT_S9_, symObjAddr: 0x33C4, symBinAddr: 0x73C4, symSize: 0x3C }
  - { offset: 0xB08E, size: 0x8, addend: 0x0, symName: __ZN8facebook5react12fromRawValueINS0_25ImportantForAccessibilityEEEvRKNS0_18PropsParserContextERKNS0_8RawValueERT_S9_, symObjAddr: 0x33C4, symBinAddr: 0x73C4, symSize: 0x3C }
  - { offset: 0xB0AA, size: 0x8, addend: 0x0, symName: __ZN8facebook5react12fromRawValueINS0_25ImportantForAccessibilityEEEvRKNS0_18PropsParserContextERKNS0_8RawValueERT_S9_, symObjAddr: 0x33C4, symBinAddr: 0x73C4, symSize: 0x3C }
  - { offset: 0xB0C6, size: 0x8, addend: 0x0, symName: __ZN8facebook5react12fromRawValueINS0_25ImportantForAccessibilityEEEvRKNS0_18PropsParserContextERKNS0_8RawValueERT_S9_, symObjAddr: 0x33C4, symBinAddr: 0x73C4, symSize: 0x3C }
  - { offset: 0xB1CC, size: 0x8, addend: 0x0, symName: __ZN8facebook5react12fromRawValueINS0_4RoleEEEvRKNS0_18PropsParserContextERKNS0_8RawValueERT_S9_, symObjAddr: 0x3400, symBinAddr: 0x7400, symSize: 0x3C }
  - { offset: 0xB1DF, size: 0x8, addend: 0x0, symName: __ZN8facebook5react12fromRawValueINSt3__16vectorINS0_19AccessibilityActionENS2_9allocatorIS4_EEEEEEvRKNS0_18PropsParserContextERKNS0_8RawValueERT_SE_, symObjAddr: 0x334C, symBinAddr: 0x734C, symSize: 0x78 }
  - { offset: 0xB401, size: 0x8, addend: 0x0, symName: __ZN8facebook5react12fromRawValueINS0_25ImportantForAccessibilityEEEvRKNS0_18PropsParserContextERKNS0_8RawValueERT_S9_, symObjAddr: 0x33C4, symBinAddr: 0x73C4, symSize: 0x3C }
  - { offset: 0xB414, size: 0x8, addend: 0x0, symName: __ZN8facebook5react12fromRawValueINS0_4RoleEEEvRKNS0_18PropsParserContextERKNS0_8RawValueERT_S9_, symObjAddr: 0x3400, symBinAddr: 0x7400, symSize: 0x3C }
  - { offset: 0xB482, size: 0x8, addend: 0x0, symName: __ZN8facebook5react12fromRawValueINS0_4RoleEEEvRKNS0_18PropsParserContextERKNS0_8RawValueERT_S9_, symObjAddr: 0x3400, symBinAddr: 0x7400, symSize: 0x3C }
  - { offset: 0xB49D, size: 0x8, addend: 0x0, symName: __ZN8facebook5react12fromRawValueINS0_4RoleEEEvRKNS0_18PropsParserContextERKNS0_8RawValueERT_S9_, symObjAddr: 0x3400, symBinAddr: 0x7400, symSize: 0x3C }
  - { offset: 0xB4B9, size: 0x8, addend: 0x0, symName: __ZN8facebook5react12fromRawValueINS0_4RoleEEEvRKNS0_18PropsParserContextERKNS0_8RawValueERT_S9_, symObjAddr: 0x3400, symBinAddr: 0x7400, symSize: 0x3C }
  - { offset: 0xB4D5, size: 0x8, addend: 0x0, symName: __ZN8facebook5react12fromRawValueINS0_4RoleEEEvRKNS0_18PropsParserContextERKNS0_8RawValueERT_S9_, symObjAddr: 0x3400, symBinAddr: 0x7400, symSize: 0x3C }
  - { offset: 0xB5DB, size: 0x8, addend: 0x0, symName: __ZNSt3__112basic_stringIcNS_11char_traitsIcEENS_9allocatorIcEEE25__init_copy_ctor_externalEPKcm, symObjAddr: 0x343C, symBinAddr: 0x743C, symSize: 0x80 }
  - { offset: 0xB5EE, size: 0x8, addend: 0x0, symName: __ZN8facebook5react12fromRawValueINSt3__18optionalINS0_18AccessibilityStateEEEEEvRKNS0_18PropsParserContextERKNS0_8RawValueERT_SC_, symObjAddr: 0x30EC, symBinAddr: 0x70EC, symSize: 0x90 }
  - { offset: 0xB82E, size: 0x8, addend: 0x0, symName: __ZN8facebook5react12fromRawValueINSt3__112basic_stringIcNS2_11char_traitsIcEENS2_9allocatorIcEEEEEEvRKNS0_18PropsParserContextERKNS0_8RawValueERT_SF_, symObjAddr: 0x317C, symBinAddr: 0x717C, symSize: 0x80 }
  - { offset: 0xB841, size: 0x8, addend: 0x0, symName: __ZN8facebook5react12fromRawValueIbEEvRKNS0_18PropsParserContextERKNS0_8RawValueERT_S8_, symObjAddr: 0x3094, symBinAddr: 0x7094, symSize: 0x58 }
  - { offset: 0xBA2D, size: 0x8, addend: 0x0, symName: __ZN8facebook5react12fromRawValueINSt3__18optionalINS0_18AccessibilityStateEEEEEvRKNS0_18PropsParserContextERKNS0_8RawValueERT_SC_, symObjAddr: 0x30EC, symBinAddr: 0x70EC, symSize: 0x90 }
  - { offset: 0xBA40, size: 0x8, addend: 0x0, symName: __ZN8facebook5react12fromRawValueINSt3__112basic_stringIcNS2_11char_traitsIcEENS2_9allocatorIcEEEEEEvRKNS0_18PropsParserContextERKNS0_8RawValueERT_SF_, symObjAddr: 0x317C, symBinAddr: 0x717C, symSize: 0x80 }
  - { offset: 0xBD4E, size: 0x8, addend: 0x0, symName: __ZN8facebook5react12fromRawValueINSt3__16vectorINS2_12basic_stringIcNS2_11char_traitsIcEENS2_9allocatorIcEEEENS7_IS9_EEEEEEvRKNS0_18PropsParserContextERKNS0_8RawValueERT_SI_, symObjAddr: 0x31FC, symBinAddr: 0x71FC, symSize: 0x78 }
  - { offset: 0xBDA3, size: 0x8, addend: 0x0, symName: __ZN8facebook5react12fromRawValueERKNS0_18PropsParserContextERKNS0_8RawValueERNS0_19AccessibilityActionE, symObjAddr: 0x8AFC, symBinAddr: 0xC8C0, symSize: 0x18C }
  - { offset: 0x26F81, size: 0x8, addend: 0x0, symName: __ZNSt3__124__put_character_sequenceB8ne200100IcNS_11char_traitsIcEEEERNS_13basic_ostreamIT_T0_EES7_PKS4_m, symObjAddr: 0x3FF4, symBinAddr: 0x7F44, symSize: 0x168 }
  - { offset: 0x2A361, size: 0x8, addend: 0x0, symName: __ZNSt3__126__throw_bad_variant_accessB8ne200100Ev, symObjAddr: 0x3C38, symBinAddr: 0x7C24, symSize: 0x34 }
  - { offset: 0x2A528, size: 0x8, addend: 0x0, symName: __ZNSt3__1eqB8ne200100IcNS_11char_traitsIcEENS_9allocatorIcEEEEbRKNS_12basic_stringIT_T0_T1_EEPKS6_, symObjAddr: 0x3CA8, symBinAddr: 0x7C94, symSize: 0x80 }
  - { offset: 0x2A7E5, size: 0x8, addend: 0x0, symName: __ZNSt3__120__throw_length_errorB8ne200100EPKc, symObjAddr: 0x34D0, symBinAddr: 0x74D0, symSize: 0x50 }
  - { offset: 0x2A968, size: 0x8, addend: 0x0, symName: __ZNSt3__135__uninitialized_allocator_copy_implB8ne200100INS_9allocatorINS_12basic_stringIcNS_11char_traitsIcEENS1_IcEEEEEEPS6_S8_S8_EET2_RT_T0_T1_S9_, symObjAddr: 0x36A0, symBinAddr: 0x76A0, symSize: 0xBC }
  - { offset: 0x2ABE0, size: 0x8, addend: 0x0, symName: __ZNSt3__119__allocate_at_leastB8ne200100INS_9allocatorINS_12basic_stringIcNS_11char_traitsIcEENS1_IcEEEEEEEENS_19__allocation_resultINS_16allocator_traitsIT_E7pointerEEERSA_m, symObjAddr: 0x365C, symBinAddr: 0x765C, symSize: 0x44 }
  - { offset: 0x2AC85, size: 0x8, addend: 0x0, symName: __ZNSt3__135__uninitialized_allocator_copy_implB8ne200100INS_9allocatorINS_12basic_stringIcNS_11char_traitsIcEENS1_IcEEEEEEPS6_S8_S8_EET2_RT_T0_T1_S9_, symObjAddr: 0x36A0, symBinAddr: 0x76A0, symSize: 0xBC }
  - { offset: 0x2B0CF, size: 0x8, addend: 0x0, symName: __ZNSt3__135__uninitialized_allocator_copy_implB8ne200100INS_9allocatorIN8facebook5react19AccessibilityActionEEEPS4_S6_S6_EET2_RT_T0_T1_S7_, symObjAddr: 0x3A34, symBinAddr: 0x7A20, symSize: 0x84 }
  - { offset: 0x2B271, size: 0x8, addend: 0x0, symName: __ZNSt3__119__allocate_at_leastB8ne200100INS_9allocatorIN8facebook5react19AccessibilityActionEEEEENS_19__allocation_resultINS_16allocator_traitsIT_E7pointerEEERS8_m, symObjAddr: 0x39EC, symBinAddr: 0x79D8, symSize: 0x48 }
  - { offset: 0x2B316, size: 0x8, addend: 0x0, symName: __ZNSt3__135__uninitialized_allocator_copy_implB8ne200100INS_9allocatorIN8facebook5react19AccessibilityActionEEEPS4_S6_S6_EET2_RT_T0_T1_S7_, symObjAddr: 0x3A34, symBinAddr: 0x7A20, symSize: 0x84 }
  - { offset: 0x2B461, size: 0x8, addend: 0x0, symName: __ZNSt3__112construct_atB8ne200100IN8facebook5react19AccessibilityActionEJRS3_EPS3_EEPT_S7_DpOT0_, symObjAddr: 0x3AB8, symBinAddr: 0x7AA4, symSize: 0x74 }
  - { offset: 0x2B6FA, size: 0x8, addend: 0x0, symName: __ZNSt3__112__destroy_atB8ne200100IN8facebook5react19AccessibilityActionELi0EEEvPT_, symObjAddr: 0x3B2C, symBinAddr: 0x7B18, symSize: 0x50 }
  - { offset: 0x2BACC, size: 0x8, addend: 0x0, symName: __ZNSt3__120__throw_out_of_rangeB8ne200100EPKc, symObjAddr: 0x3F80, symBinAddr: 0x7ED0, symSize: 0x50 }
  - { offset: 0x2BFC7, size: 0x8, addend: 0x0, symName: __ZNSt3__116__pad_and_outputB8ne200100IcNS_11char_traitsIcEEEENS_19ostreambuf_iteratorIT_T0_EES6_PKS4_S8_S8_RNS_8ios_baseES4_, symObjAddr: 0x415C, symBinAddr: 0x80AC, symSize: 0x13C }
  - { offset: 0x2CB9C, size: 0x8, addend: 0x0, symName: __ZNSt3__112__destroy_atB8ne200100INS_4pairIKNS_12basic_stringIcNS_11char_traitsIcEENS_9allocatorIcEEEEN8facebook5react8RawValueEEELi0EEEvPT_, symObjAddr: 0x6100, symBinAddr: 0xA050, symSize: 0x3C }
  - { offset: 0x2D332, size: 0x8, addend: 0x0, symName: __ZNSt3__134__uninitialized_allocator_relocateB8ne200100INS_9allocatorIN8facebook5react8RawValueEEEPS4_EEvRT_T0_S9_S9_, symObjAddr: 0x6FDC, symBinAddr: 0xAED0, symSize: 0x68 }
  - { offset: 0x2D345, size: 0x8, addend: 0x0, symName: __ZNSt3__134__uninitialized_allocator_relocateB8ne200100INS_9allocatorIN8facebook5react8RawValueEEEPS4_EEvRT_T0_S9_S9_, symObjAddr: 0x6FDC, symBinAddr: 0xAED0, symSize: 0x68 }
  - { offset: 0x2D39F, size: 0x8, addend: 0x0, symName: __ZNSt3__134__uninitialized_allocator_relocateB8ne200100INS_9allocatorIN8facebook5react8RawValueEEEPS4_EEvRT_T0_S9_S9_, symObjAddr: 0x6FDC, symBinAddr: 0xAED0, symSize: 0x68 }
  - { offset: 0x2DAA8, size: 0x8, addend: 0x0, symName: __ZNSt3__134__uninitialized_allocator_relocateB8ne200100INS_9allocatorIN8facebook5react19AccessibilityActionEEEPS4_EEvRT_T0_S9_S9_, symObjAddr: 0x8CD8, symBinAddr: 0xCA9C, symSize: 0xAC }
  - { offset: 0x2DB02, size: 0x8, addend: 0x0, symName: __ZNSt3__134__uninitialized_allocator_relocateB8ne200100INS_9allocatorIN8facebook5react19AccessibilityActionEEEPS4_EEvRT_T0_S9_S9_, symObjAddr: 0x8CD8, symBinAddr: 0xCA9C, symSize: 0xAC }
  - { offset: 0x2DE60, size: 0x8, addend: 0x0, symName: __ZNSt3__112construct_atB8ne200100IN8facebook5react19AccessibilityActionEJRKS3_EPS3_EEPT_S8_DpOT0_, symObjAddr: 0x8F14, symBinAddr: 0xCCD8, symSize: 0x74 }
  - { offset: 0x2F994, size: 0x8, addend: 0x0, symName: __ZSt28__throw_bad_array_new_lengthB8ne200100v, symObjAddr: 0x3544, symBinAddr: 0x7544, symSize: 0x28 }
  - { offset: 0x33AE1, size: 0x8, addend: 0x0, symName: __ZN5folly6detail16throw_exception_INS_9TypeErrorEJPKcNS_7dynamic4TypeEEEEvDpT0_, symObjAddr: 0x3DF0, symBinAddr: 0xA5FD8, symSize: 0x68 }
  - { offset: 0x33D6F, size: 0x8, addend: 0x0, symName: __ZN5folly6detail9convertToIxdEENSt3__19enable_ifIXooaa13is_integral_vIT0_Esr3std17is_floating_pointIT_EE5valueaasr3std17is_floating_pointIS4_EE5value13is_integral_vIS5_EENS_8ExpectedIS5_NS_14ConversionCodeEEEE4typeERKS4_, symObjAddr: 0x7BA8, symBinAddr: 0xBA9C, symSize: 0xD4 }
  - { offset: 0x33EDC, size: 0x8, addend: 0x0, symName: __ZN5folly6detail16throw_exception_INS_17BadExpectedAccessIvEEJEEEvDpT0_, symObjAddr: 0x7CDC, symBinAddr: 0xA6074, symSize: 0x40 }
  - { offset: 0x34259, size: 0x8, addend: 0x0, symName: __ZN5folly6detail24toAppendDoubleConversionINSt3__112basic_stringIcNS2_11char_traitsIcEENS2_9allocatorIcEEEEdEENS2_9enable_ifIXaasr3std17is_floating_pointIT0_EE5valuesr12IsSomeStringIT_EE5valueEvE4typeESA_PSB_NS_8DtoaModeEjNS_9DtoaFlagsE, symObjAddr: 0x80D4, symBinAddr: 0xBF20, symSize: 0x130 }
  - { offset: 0x34989, size: 0x8, addend: 0x0, symName: __ZN5folly6detail16throw_exception_INS_17BadExpectedAccessINS_14ConversionCodeEEEJS3_EEEvDpT0_, symObjAddr: 0x8718, symBinAddr: 0xA611C, symSize: 0x44 }
  - { offset: 0x35E8D, size: 0x8, addend: 0x0, symName: __ZN5folly8identityE, symObjAddr: 0xA8CC, symBinAddr: 0xA7BC0, symSize: 0x0 }
  - { offset: 0x369AF, size: 0x8, addend: 0x0, symName: __ZN5folly15throw_exceptionINS_9TypeErrorEEEvOT_, symObjAddr: 0x3E58, symBinAddr: 0xA6040, symSize: 0x34 }
  - { offset: 0x37143, size: 0x8, addend: 0x0, symName: __ZN5folly2toIxdEENSt3__19enable_ifIXsr6detail14IsArithToArithIT_T0_EE5valueES3_E4typeERKS4_, symObjAddr: 0x7B60, symBinAddr: 0xBA54, symSize: 0x48 }
  - { offset: 0x37327, size: 0x8, addend: 0x0, symName: __ZN5folly15throw_exceptionINS_15ConversionErrorEEEvOT_, symObjAddr: 0x7D74, symBinAddr: 0xA60E8, symSize: 0x34 }
  - { offset: 0x3736E, size: 0x8, addend: 0x0, symName: __ZN5folly15throw_exceptionINS_17BadExpectedAccessIvEEEEvOT_, symObjAddr: 0x7D1C, symBinAddr: 0xA60B4, symSize: 0x34 }
  - { offset: 0x373D9, size: 0x8, addend: 0x0, symName: __ZN5folly2toINSt3__112basic_stringIcNS1_11char_traitsIcEENS1_9allocatorIcEEEEJA2_cPKcA3_cdELi0EEET_DpRKT0_, symObjAddr: 0x7EAC, symBinAddr: 0xBCF8, symSize: 0x54 }
  - { offset: 0x375E1, size: 0x8, addend: 0x0, symName: __ZN5folly11toAppendFitIJA2_cPKcA3_cdPNSt3__112basic_stringIcNS5_11char_traitsIcEENS5_9allocatorIcEEEEELi0EEEvDpRKT_, symObjAddr: 0x7F00, symBinAddr: 0xBD4C, symSize: 0x64 }
  - { offset: 0x3790B, size: 0x8, addend: 0x0, symName: __ZN5folly8toAppendINSt3__112basic_stringIcNS1_11char_traitsIcEENS1_9allocatorIcEEEEPKcEENS1_9enable_ifIXaasr3std14is_convertibleIT0_S9_EE5valuesr12IsSomeStringIT_EE5valueEvE4typeESB_PSC_, symObjAddr: 0x809C, symBinAddr: 0xBEE8, symSize: 0x38 }
  - { offset: 0x379A9, size: 0x8, addend: 0x0, symName: __ZN5folly2toINSt3__112basic_stringIcNS1_11char_traitsIcEENS1_9allocatorIcEEEEJA2_cPKcA3_cbELi0EEET_DpRKT0_, symObjAddr: 0x8318, symBinAddr: 0xC164, symSize: 0x54 }
  - { offset: 0x37B97, size: 0x8, addend: 0x0, symName: __ZN5folly11toAppendFitIJA2_cPKcA3_cbPNSt3__112basic_stringIcNS5_11char_traitsIcEENS5_9allocatorIcEEEEELi0EEEvDpRKT_, symObjAddr: 0x836C, symBinAddr: 0xC1B8, symSize: 0x64 }
  - { offset: 0x37EF6, size: 0x8, addend: 0x0, symName: __ZN5folly13to_ascii_withILy10ENS_17to_ascii_alphabetILb0EEELm20EEEmRAT1__cy, symObjAddr: 0x855C, symBinAddr: 0xC3A8, symSize: 0xB8 }
  - { offset: 0x38043, size: 0x8, addend: 0x0, symName: __ZN5folly15throw_exceptionINS_17BadExpectedAccessINS_14ConversionCodeEEEEEvOT_, symObjAddr: 0x875C, symBinAddr: 0xA6160, symSize: 0x44 }
  - { offset: 0x39427, size: 0x8, addend: 0x0, symName: __ZN8facebook5react18AccessibilityProps7setPropERKNS0_18PropsParserContextEjPKcRKNS0_8RawValueE, symObjAddr: 0x2878, symBinAddr: 0x6878, symSize: 0x818 }
  - { offset: 0x3944F, size: 0x8, addend: 0x0, symName: __ZZN8facebook5react18AccessibilityProps7setPropERKNS0_18PropsParserContextEjPKcRKNS0_8RawValueEE8defaults, symObjAddr: 0xA778, symBinAddr: 0xD44E0, symSize: 0x0 }
  - { offset: 0x3ADDF, size: 0x8, addend: 0x0, symName: __ZN5folly6detail18pretty_name_zarrayIxNS0_14pretty_tag_gccEE6zarrayE, symObjAddr: 0xA924, symBinAddr: 0xA7BF9, symSize: 0x0 }
  - { offset: 0x3C667, size: 0x8, addend: 0x0, symName: __ZN8facebook5react18AccessibilityPropsC2ERKNS0_18PropsParserContextERKS1_RKNS0_8RawPropsE, symObjAddr: 0x0, symBinAddr: 0x4000, symSize: 0xA3C }
  - { offset: 0x3EB13, size: 0x8, addend: 0x0, symName: __ZNSt3__112basic_stringIcNS_11char_traitsIcEENS_9allocatorIcEEE25__init_copy_ctor_externalEPKcm, symObjAddr: 0x343C, symBinAddr: 0x743C, symSize: 0x80 }
  - { offset: 0x3ECDF, size: 0x8, addend: 0x0, symName: __ZNSt3__112basic_stringIcNS_11char_traitsIcEENS_9allocatorIcEEE20__throw_length_errorB8ne200100Ev, symObjAddr: 0x34BC, symBinAddr: 0x74BC, symSize: 0x14 }
  - { offset: 0x3ECEA, size: 0x8, addend: 0x0, symName: __ZNSt3__16vectorINS_12basic_stringIcNS_11char_traitsIcEENS_9allocatorIcEEEENS4_IS6_EEE16__init_with_sizeB8ne200100IPS6_SA_EEvT_T0_m, symObjAddr: 0x357C, symBinAddr: 0x757C, symSize: 0x84 }
  - { offset: 0x3EF42, size: 0x8, addend: 0x0, symName: __ZNSt3__16vectorINS_12basic_stringIcNS_11char_traitsIcEENS_9allocatorIcEEEENS4_IS6_EEE16__destroy_vectorclB8ne200100Ev, symObjAddr: 0x37D4, symBinAddr: 0x77D4, symSize: 0x40 }
  - { offset: 0x3EFED, size: 0x8, addend: 0x0, symName: __ZNSt3__120__optional_copy_baseINS_12basic_stringIcNS_11char_traitsIcEENS_9allocatorIcEEEELb0EEC2B8ne200100ERKS7_, symObjAddr: 0x3860, symBinAddr: 0x7860, symSize: 0x4C }
  - { offset: 0x3F10D, size: 0x8, addend: 0x0, symName: __ZNSt3__16vectorIN8facebook5react19AccessibilityActionENS_9allocatorIS3_EEE16__init_with_sizeB8ne200100IPS3_S8_EEvT_T0_m, symObjAddr: 0x3908, symBinAddr: 0x7908, symSize: 0x84 }
  - { offset: 0x3F365, size: 0x8, addend: 0x0, symName: __ZNSt3__16vectorIN8facebook5react19AccessibilityActionENS_9allocatorIS3_EEE16__destroy_vectorclB8ne200100Ev, symObjAddr: 0x3BC8, symBinAddr: 0x7BB4, symSize: 0x70 }
  - { offset: 0x3F4E5, size: 0x8, addend: 0x0, symName: __ZNK8facebook5react8RawValue8hasValueEv, symObjAddr: 0x1C70, symBinAddr: 0x5C70, symSize: 0x3C }
  - { offset: 0x3F509, size: 0x8, addend: 0x0, symName: __ZNK8facebook5react8RawValue8hasValueEv, symObjAddr: 0x1C70, symBinAddr: 0x5C70, symSize: 0x3C }
  - { offset: 0x3F524, size: 0x8, addend: 0x0, symName: __ZNK8facebook5react8RawValue8hasValueEv, symObjAddr: 0x1C70, symBinAddr: 0x5C70, symSize: 0x3C }
  - { offset: 0x3F540, size: 0x8, addend: 0x0, symName: __ZNK8facebook5react8RawValue8hasValueEv, symObjAddr: 0x1C70, symBinAddr: 0x5C70, symSize: 0x3C }
  - { offset: 0x3F55C, size: 0x8, addend: 0x0, symName: __ZNK8facebook5react8RawValue8hasValueEv, symObjAddr: 0x1C70, symBinAddr: 0x5C70, symSize: 0x3C }
  - { offset: 0x3F659, size: 0x8, addend: 0x0, symName: __ZN8facebook5react12fromRawValueINSt3__112basic_stringIcNS2_11char_traitsIcEENS2_9allocatorIcEEEEEEvRKNS0_18PropsParserContextERKNS0_8RawValueERT_, symObjAddr: 0x1CAC, symBinAddr: 0x5CAC, symSize: 0x50 }
  - { offset: 0x3F664, size: 0x8, addend: 0x0, symName: __ZNK8facebook5react8RawValuecvT_IbEEv, symObjAddr: 0x4EB8, symBinAddr: 0x8E08, symSize: 0x48 }
  - { offset: 0x3F871, size: 0x8, addend: 0x0, symName: __ZN8facebook5react12fromRawValueERKNS0_18PropsParserContextERKNS0_8RawValueERNS0_18AccessibilityStateE, symObjAddr: 0x4F00, symBinAddr: 0x8E50, symSize: 0x2E4 }
  - { offset: 0x3F908, size: 0x8, addend: 0x0, symName: __ZNSt3__112basic_stringIcNS_11char_traitsIcEENS_9allocatorIcEEEC2B8ne200100ILi0EEEPKc, symObjAddr: 0x3EC8, symBinAddr: 0x7E18, symSize: 0xA4 }
  - { offset: 0x3FB5D, size: 0x8, addend: 0x0, symName: __ZNSt3__112basic_stringIcNS_11char_traitsIcEENS_9allocatorIcEEE20__throw_out_of_rangeB8ne200100Ev, symObjAddr: 0x3F6C, symBinAddr: 0x7EBC, symSize: 0x14 }
  - { offset: 0x3FB6E, size: 0x8, addend: 0x0, symName: __ZN8facebook5react14convertRawPropINSt3__16vectorINS2_12basic_stringIcNS2_11char_traitsIcEENS2_9allocatorIcEEEENS7_IS9_EEEESB_EET_RKNS0_18PropsParserContextERKNS0_8RawPropsEPKcRKSC_RKT0_SK_SK_.cold.1, symObjAddr: 0x932C, symBinAddr: 0xA61A4, symSize: 0x34 }
  - { offset: 0x3FBC8, size: 0x8, addend: 0x0, symName: __ZN8facebook5react14convertRawPropINS0_18AccessibilityValueES2_EET_RKNS0_18PropsParserContextERKNS0_8RawPropsEPKcRKS3_RKT0_SB_SB_.cold.1, symObjAddr: 0x9394, symBinAddr: 0xA61D8, symSize: 0x18 }
  - { offset: 0x3FBE3, size: 0x8, addend: 0x0, symName: __ZN8facebook5react14convertRawPropINS0_18AccessibilityValueES2_EET_RKNS0_18PropsParserContextERKNS0_8RawPropsEPKcRKS3_RKT0_SB_SB_.cold.1, symObjAddr: 0x9394, symBinAddr: 0xA61D8, symSize: 0x18 }
  - { offset: 0x3FBF7, size: 0x8, addend: 0x0, symName: __ZN8facebook5react14convertRawPropINS0_18AccessibilityValueES2_EET_RKNS0_18PropsParserContextERKNS0_8RawPropsEPKcRKS3_RKT0_SB_SB_.cold.1, symObjAddr: 0x9394, symBinAddr: 0xA61D8, symSize: 0x18 }
  - { offset: 0x3FC77, size: 0x8, addend: 0x0, symName: __ZN8facebook5react14convertRawPropINSt3__16vectorINS0_19AccessibilityActionENS2_9allocatorIS4_EEEES7_EET_RKNS0_18PropsParserContextERKNS0_8RawPropsEPKcRKS8_RKT0_SG_SG_.cold.1, symObjAddr: 0x93AC, symBinAddr: 0xA61F0, symSize: 0x48 }
  - { offset: 0x3FD39, size: 0x8, addend: 0x0, symName: __ZNK8facebook5react8RawValuecvT_INSt3__112basic_stringIcNS4_11char_traitsIcEENS4_9allocatorIcEEEEEEv, symObjAddr: 0x3C70, symBinAddr: 0x7C5C, symSize: 0x38 }
  - { offset: 0x3FE82, size: 0x8, addend: 0x0, symName: __ZNSt3__1eqB8ne200100IcNS_11char_traitsIcEENS_9allocatorIcEEEEbRKNS_12basic_stringIT_T0_T1_EEPKS6_, symObjAddr: 0x3CA8, symBinAddr: 0x7C94, symSize: 0x80 }
  - { offset: 0x40001, size: 0x8, addend: 0x0, symName: __ZNK8facebook5react8RawValue7hasTypeINSt3__16vectorINS3_12basic_stringIcNS3_11char_traitsIcEENS3_9allocatorIcEEEENS8_ISA_EEEEEEbv, symObjAddr: 0x475C, symBinAddr: 0x86AC, symSize: 0x64 }
  - { offset: 0x402A0, size: 0x8, addend: 0x0, symName: __ZNK8facebook5react8RawValuecvT_INSt3__16vectorINS4_12basic_stringIcNS4_11char_traitsIcEENS4_9allocatorIcEEEENS9_ISB_EEEEEEv, symObjAddr: 0x47C0, symBinAddr: 0x8710, symSize: 0x38 }
  - { offset: 0x402B4, size: 0x8, addend: 0x0, symName: __ZNK8facebook5react8RawValuecvT_INSt3__16vectorINS4_12basic_stringIcNS4_11char_traitsIcEENS4_9allocatorIcEEEENS9_ISB_EEEEEEv, symObjAddr: 0x47C0, symBinAddr: 0x8710, symSize: 0x38 }
  - { offset: 0x403FD, size: 0x8, addend: 0x0, symName: __ZN8facebook5react8RawValue14checkValueTypeINSt3__112basic_stringIcNS3_11char_traitsIcEENS3_9allocatorIcEEEEEEbPNS_3jsi7RuntimeERKNSA_5ValueEPNS3_6vectorIT_NS7_ISH_EEEE, symObjAddr: 0x47F8, symBinAddr: 0x8748, symSize: 0x104 }
  - { offset: 0x40411, size: 0x8, addend: 0x0, symName: __ZN8facebook5react18AccessibilityPropsC1ERKNS0_18PropsParserContextERKS1_RKNS0_8RawPropsE, symObjAddr: 0x2874, symBinAddr: 0x6874, symSize: 0x4 }
  - { offset: 0x40469, size: 0x8, addend: 0x0, symName: __ZN8facebook5react18AccessibilityPropsC1ERKNS0_18PropsParserContextERKS1_RKNS0_8RawPropsE, symObjAddr: 0x2874, symBinAddr: 0x6874, symSize: 0x4 }
  - { offset: 0x40491, size: 0x8, addend: 0x0, symName: __ZN8facebook5react18AccessibilityProps7setPropERKNS0_18PropsParserContextEjPKcRKNS0_8RawValueE.cold.1, symObjAddr: 0x93F4, symBinAddr: 0xA6238, symSize: 0x4C }
  - { offset: 0x404A9, size: 0x8, addend: 0x0, symName: __ZN8facebook5react18AccessibilityPropsD1Ev, symObjAddr: 0x3090, symBinAddr: 0x7090, symSize: 0x4 }
  - { offset: 0x404D7, size: 0x8, addend: 0x0, symName: __ZN8facebook5react18AccessibilityPropsD1Ev, symObjAddr: 0x3090, symBinAddr: 0x7090, symSize: 0x4 }
  - { offset: 0x404EA, size: 0x8, addend: 0x0, symName: __ZN8facebook5react18AccessibilityPropsD2Ev, symObjAddr: 0x4DE4, symBinAddr: 0x8D34, symSize: 0xD4 }
  - { offset: 0x4102E, size: 0x8, addend: 0x0, symName: __ZNSt3__16vectorINS_12basic_stringIcNS_11char_traitsIcEENS_9allocatorIcEEEENS4_IS6_EEE13__vdeallocateEv, symObjAddr: 0x74C0, symBinAddr: 0xB3B4, symSize: 0x38 }
  - { offset: 0x4117E, size: 0x8, addend: 0x0, symName: __ZNSt3__123__optional_storage_baseINS_12basic_stringIcNS_11char_traitsIcEENS_9allocatorIcEEEELb0EE13__assign_fromB8ne200100INS_27__optional_move_assign_baseIS6_Lb0EEEEEvOT_, symObjAddr: 0x922C, symBinAddr: 0xCFF0, symSize: 0x9C }
  - { offset: 0x4153D, size: 0x8, addend: 0x0, symName: __ZNSt3__16vectorIN8facebook5react19AccessibilityActionENS_9allocatorIS3_EEE13__vdeallocateEv, symObjAddr: 0x92C8, symBinAddr: 0xD08C, symSize: 0x64 }
  - { offset: 0x4174F, size: 0x8, addend: 0x0, symName: __ZNSt3__112basic_stringIcNS_11char_traitsIcEENS_9allocatorIcEEE20__throw_length_errorB8ne200100Ev, symObjAddr: 0x34BC, symBinAddr: 0x74BC, symSize: 0x14 }
  - { offset: 0x41766, size: 0x8, addend: 0x0, symName: __ZNSt3__120__throw_length_errorB8ne200100EPKc, symObjAddr: 0x34D0, symBinAddr: 0x74D0, symSize: 0x50 }
  - { offset: 0x41771, size: 0x8, addend: 0x0, symName: __ZNSt12length_errorC1B8ne200100EPKc, symObjAddr: 0x3520, symBinAddr: 0x7520, symSize: 0x24 }
  - { offset: 0x419B7, size: 0x8, addend: 0x0, symName: __ZNSt3__16vectorINS_12basic_stringIcNS_11char_traitsIcEENS_9allocatorIcEEEENS4_IS6_EEE11__vallocateB8ne200100Em, symObjAddr: 0x3600, symBinAddr: 0x7600, symSize: 0x48 }
  - { offset: 0x41A0D, size: 0x8, addend: 0x0, symName: __ZNSt3__16vectorINS_12basic_stringIcNS_11char_traitsIcEENS_9allocatorIcEEEENS4_IS6_EEE20__throw_length_errorB8ne200100Ev, symObjAddr: 0x3648, symBinAddr: 0x7648, symSize: 0x14 }
  - { offset: 0x41A18, size: 0x8, addend: 0x0, symName: __ZNSt3__16vectorINS_12basic_stringIcNS_11char_traitsIcEENS_9allocatorIcEEEENS4_IS6_EEE20__throw_length_errorB8ne200100Ev, symObjAddr: 0x3648, symBinAddr: 0x7648, symSize: 0x14 }
  - { offset: 0x41A2F, size: 0x8, addend: 0x0, symName: __ZNSt3__119__allocate_at_leastB8ne200100INS_9allocatorINS_12basic_stringIcNS_11char_traitsIcEENS1_IcEEEEEEEENS_19__allocation_resultINS_16allocator_traitsIT_E7pointerEEERSA_m, symObjAddr: 0x365C, symBinAddr: 0x765C, symSize: 0x44 }
  - { offset: 0x41B28, size: 0x8, addend: 0x0, symName: __ZNSt3__128__exception_guard_exceptionsINS_29_AllocatorDestroyRangeReverseINS_9allocatorINS_12basic_stringIcNS_11char_traitsIcEENS2_IcEEEEEEPS7_EEED2B8ne200100Ev, symObjAddr: 0x375C, symBinAddr: 0x775C, symSize: 0x34 }
  - { offset: 0x41B67, size: 0x8, addend: 0x0, symName: __ZNKSt3__129_AllocatorDestroyRangeReverseINS_9allocatorINS_12basic_stringIcNS_11char_traitsIcEENS1_IcEEEEEEPS6_EclB8ne200100Ev, symObjAddr: 0x3790, symBinAddr: 0x7790, symSize: 0x44 }
  - { offset: 0x41DE8, size: 0x8, addend: 0x0, symName: __ZNSt3__16vectorINS_12basic_stringIcNS_11char_traitsIcEENS_9allocatorIcEEEENS4_IS6_EEE5clearB8ne200100Ev, symObjAddr: 0x3814, symBinAddr: 0x7814, symSize: 0x4C }
  - { offset: 0x41FB8, size: 0x8, addend: 0x0, symName: __ZNSt3__123__optional_storage_baseINS_12basic_stringIcNS_11char_traitsIcEENS_9allocatorIcEEEELb0EE16__construct_fromB8ne200100IRKNS_20__optional_copy_baseIS6_Lb0EEEEEvOT_, symObjAddr: 0x38AC, symBinAddr: 0x78AC, symSize: 0x5C }
  - { offset: 0x41FF1, size: 0x8, addend: 0x0, symName: __ZNSt3__123__optional_storage_baseINS_12basic_stringIcNS_11char_traitsIcEENS_9allocatorIcEEEELb0EE16__construct_fromB8ne200100IRKNS_20__optional_copy_baseIS6_Lb0EEEEEvOT_, symObjAddr: 0x38AC, symBinAddr: 0x78AC, symSize: 0x5C }
  - { offset: 0x4211F, size: 0x8, addend: 0x0, symName: __ZNSt3__120__optional_copy_baseINS_12basic_stringIcNS_11char_traitsIcEENS_9allocatorIcEEEELb0EEC2B8ne200100ERKS7_.cold.1, symObjAddr: 0x9440, symBinAddr: 0xA6284, symSize: 0x14 }
  - { offset: 0x4213A, size: 0x8, addend: 0x0, symName: __ZNSt3__120__optional_copy_baseINS_12basic_stringIcNS_11char_traitsIcEENS_9allocatorIcEEEELb0EEC2B8ne200100ERKS7_.cold.1, symObjAddr: 0x9440, symBinAddr: 0xA6284, symSize: 0x14 }
  - { offset: 0x4214F, size: 0x8, addend: 0x0, symName: __ZNSt3__120__optional_copy_baseINS_12basic_stringIcNS_11char_traitsIcEENS_9allocatorIcEEEELb0EEC2B8ne200100ERKS7_.cold.1, symObjAddr: 0x9440, symBinAddr: 0xA6284, symSize: 0x14 }
  - { offset: 0x42164, size: 0x8, addend: 0x0, symName: __ZNSt3__120__optional_copy_baseINS_12basic_stringIcNS_11char_traitsIcEENS_9allocatorIcEEEELb0EEC2B8ne200100ERKS7_.cold.1, symObjAddr: 0x9440, symBinAddr: 0xA6284, symSize: 0x14 }
  - { offset: 0x42179, size: 0x8, addend: 0x0, symName: __ZNSt3__120__optional_copy_baseINS_12basic_stringIcNS_11char_traitsIcEENS_9allocatorIcEEEELb0EEC2B8ne200100ERKS7_.cold.1, symObjAddr: 0x9440, symBinAddr: 0xA6284, symSize: 0x14 }
  - { offset: 0x4218E, size: 0x8, addend: 0x0, symName: __ZNSt3__120__optional_copy_baseINS_12basic_stringIcNS_11char_traitsIcEENS_9allocatorIcEEEELb0EEC2B8ne200100ERKS7_.cold.1, symObjAddr: 0x9440, symBinAddr: 0xA6284, symSize: 0x14 }
  - { offset: 0x4243A, size: 0x8, addend: 0x0, symName: __ZNSt3__16vectorIN8facebook5react19AccessibilityActionENS_9allocatorIS3_EEE11__vallocateB8ne200100Em, symObjAddr: 0x398C, symBinAddr: 0x798C, symSize: 0x4C }
  - { offset: 0x424A4, size: 0x8, addend: 0x0, symName: __ZNSt3__119__allocate_at_leastB8ne200100INS_9allocatorIN8facebook5react19AccessibilityActionEEEEENS_19__allocation_resultINS_16allocator_traitsIT_E7pointerEEERS8_m, symObjAddr: 0x39EC, symBinAddr: 0x79D8, symSize: 0x48 }
  - { offset: 0x4262E, size: 0x8, addend: 0x0, symName: __ZN8facebook5react19AccessibilityActionD1Ev, symObjAddr: 0x3B7C, symBinAddr: 0x7B68, symSize: 0x4C }
  - { offset: 0x42A85, size: 0x8, addend: 0x0, symName: __ZNSt18bad_variant_accessD1Ev, symObjAddr: 0x3C6C, symBinAddr: 0x7C58, symSize: 0x4 }
  - { offset: 0x42AB3, size: 0x8, addend: 0x0, symName: __ZNSt18bad_variant_accessD1Ev, symObjAddr: 0x3C6C, symBinAddr: 0x7C58, symSize: 0x4 }
  - { offset: 0x42ACE, size: 0x8, addend: 0x0, symName: __ZN8facebook5react8RawValue9castValueERKN5folly7dynamicEPNSt3__112basic_stringIcNS6_11char_traitsIcEENS6_9allocatorIcEEEE, symObjAddr: 0x3D28, symBinAddr: 0x7D14, symSize: 0x44 }
  - { offset: 0x42B44, size: 0x8, addend: 0x0, symName: __ZN8facebook5react8RawValue9castValueERKN5folly7dynamicEPNSt3__112basic_stringIcNS6_11char_traitsIcEENS6_9allocatorIcEEEE, symObjAddr: 0x3D28, symBinAddr: 0x7D14, symSize: 0x44 }
  - { offset: 0x42BDA, size: 0x8, addend: 0x0, symName: __ZN8facebook5react8RawValue9castValueEPNS_3jsi7RuntimeERKNS2_5ValueEPNSt3__112basic_stringIcNS8_11char_traitsIcEENS8_9allocatorIcEEEE, symObjAddr: 0x3D6C, symBinAddr: 0x7D58, symSize: 0x84 }
  - { offset: 0x42BE5, size: 0x8, addend: 0x0, symName: __ZN8facebook5react8RawValue9castValueEPNS_3jsi7RuntimeERKNS2_5ValueEPNSt3__112basic_stringIcNS8_11char_traitsIcEENS8_9allocatorIcEEEE, symObjAddr: 0x3D6C, symBinAddr: 0x7D58, symSize: 0x84 }
  - { offset: 0x42D68, size: 0x8, addend: 0x0, symName: __ZNSt3__112basic_stringIcNS_11char_traitsIcEENS_9allocatorIcEEE20__throw_out_of_rangeB8ne200100Ev, symObjAddr: 0x3F6C, symBinAddr: 0x7EBC, symSize: 0x14 }
  - { offset: 0x42D7F, size: 0x8, addend: 0x0, symName: __ZNSt3__120__throw_out_of_rangeB8ne200100EPKc, symObjAddr: 0x3F80, symBinAddr: 0x7ED0, symSize: 0x50 }
  - { offset: 0x42E40, size: 0x8, addend: 0x0, symName: __ZN8facebook5react8RawValue9castValueERKN5folly7dynamicEPNSt3__112basic_stringIcNS6_11char_traitsIcEENS6_9allocatorIcEEEE.cold.1, symObjAddr: 0x9454, symBinAddr: 0xA6298, symSize: 0x1C }
  - { offset: 0x42F87, size: 0x8, addend: 0x0, symName: __ZN5folly9TypeErrorC1EOS0_, symObjAddr: 0x3E90, symBinAddr: 0x7DE0, symSize: 0x24 }
  - { offset: 0x42FE1, size: 0x8, addend: 0x0, symName: __ZN5folly9TypeErrorD1Ev, symObjAddr: 0x3E8C, symBinAddr: 0x7DDC, symSize: 0x4 }
  - { offset: 0x43003, size: 0x8, addend: 0x0, symName: __ZN5folly9TypeErrorD1Ev, symObjAddr: 0x3E8C, symBinAddr: 0x7DDC, symSize: 0x4 }
  - { offset: 0x4303E, size: 0x8, addend: 0x0, symName: __ZN5folly9TypeErrorD0Ev, symObjAddr: 0x3EB4, symBinAddr: 0x7E04, symSize: 0x14 }
  - { offset: 0x430EE, size: 0x8, addend: 0x0, symName: __ZNSt12out_of_rangeC1B8ne200100EPKc, symObjAddr: 0x3FD0, symBinAddr: 0x7F20, symSize: 0x24 }
  - { offset: 0x43469, size: 0x8, addend: 0x0, symName: __ZNSt3__112basic_stringIcNS_11char_traitsIcEENS_9allocatorIcEEEC2B8ne200100Emc, symObjAddr: 0x4298, symBinAddr: 0x81E8, symSize: 0x9C }
  - { offset: 0x43697, size: 0x8, addend: 0x0, symName: __ZN8facebook5react10fromStringERKNSt3__112basic_stringIcNS1_11char_traitsIcEENS1_9allocatorIcEEEERNS0_19AccessibilityTraitsE, symObjAddr: 0x4334, symBinAddr: 0x8284, symSize: 0x428 }
  - { offset: 0x4385B, size: 0x8, addend: 0x0, symName: __ZN8facebook5react8RawValue14checkValueTypeINSt3__112basic_stringIcNS3_11char_traitsIcEENS3_9allocatorIcEEEEEEbPNS_3jsi7RuntimeERKNSA_5ValueEPNS3_6vectorIT_NS7_ISH_EEEE, symObjAddr: 0x47F8, symBinAddr: 0x8748, symSize: 0x104 }
  - { offset: 0x43C98, size: 0x8, addend: 0x0, symName: __ZN8facebook5react8RawValue9castValueINSt3__112basic_stringIcNS3_11char_traitsIcEENS3_9allocatorIcEEEEEENS3_6vectorIT_NS7_ISB_EEEERKN5folly7dynamicEPSD_, symObjAddr: 0x48FC, symBinAddr: 0x884C, symSize: 0xE0 }
  - { offset: 0x44113, size: 0x8, addend: 0x0, symName: __ZN8facebook5react8RawValue9castValueINSt3__112basic_stringIcNS3_11char_traitsIcEENS3_9allocatorIcEEEEEENS3_6vectorIT_NS7_ISB_EEEEPNS_3jsi7RuntimeERKNSE_5ValueEPSD_, symObjAddr: 0x49DC, symBinAddr: 0x892C, symSize: 0x19C }
  - { offset: 0x44AF6, size: 0x8, addend: 0x0, symName: __ZNSt3__16vectorINS_12basic_stringIcNS_11char_traitsIcEENS_9allocatorIcEEEENS4_IS6_EEE7reserveEm, symObjAddr: 0x4B78, symBinAddr: 0x8AC8, symSize: 0xB8 }
  - { offset: 0x44CDC, size: 0x8, addend: 0x0, symName: __ZNSt3__16vectorINS_12basic_stringIcNS_11char_traitsIcEENS_9allocatorIcEEEENS4_IS6_EEE9push_backB8ne200100EOS6_, symObjAddr: 0x4C30, symBinAddr: 0x8B80, symSize: 0x12C }
  - { offset: 0x44CE7, size: 0x8, addend: 0x0, symName: __ZNSt3__16vectorINS_12basic_stringIcNS_11char_traitsIcEENS_9allocatorIcEEEENS4_IS6_EEE9push_backB8ne200100EOS6_, symObjAddr: 0x4C30, symBinAddr: 0x8B80, symSize: 0x12C }
  - { offset: 0x450E5, size: 0x8, addend: 0x0, symName: __ZNSt3__114__split_bufferINS_12basic_stringIcNS_11char_traitsIcEENS_9allocatorIcEEEERNS4_IS6_EEED2Ev, symObjAddr: 0x4D5C, symBinAddr: 0x8CAC, symSize: 0x34 }
  - { offset: 0x451E4, size: 0x8, addend: 0x0, symName: __ZNSt3__114__split_bufferINS_12basic_stringIcNS_11char_traitsIcEENS_9allocatorIcEEEERNS4_IS6_EEED2Ev, symObjAddr: 0x4D5C, symBinAddr: 0x8CAC, symSize: 0x34 }
  - { offset: 0x45462, size: 0x8, addend: 0x0, symName: __ZNSt3__114__split_bufferINS_12basic_stringIcNS_11char_traitsIcEENS_9allocatorIcEEEERNS4_IS6_EEE17__destruct_at_endB8ne200100EPS6_, symObjAddr: 0x4D90, symBinAddr: 0x8CE0, symSize: 0x54 }
  - { offset: 0x4549A, size: 0x8, addend: 0x0, symName: __ZNSt3__114__split_bufferINS_12basic_stringIcNS_11char_traitsIcEENS_9allocatorIcEEEERNS4_IS6_EEE17__destruct_at_endB8ne200100EPS6_, symObjAddr: 0x4D90, symBinAddr: 0x8CE0, symSize: 0x54 }
  - { offset: 0x456BC, size: 0x8, addend: 0x0, symName: __ZNK8facebook5react8RawValuecvT_IbEEv.cold.1, symObjAddr: 0x9470, symBinAddr: 0xA62B4, symSize: 0x1C }
  - { offset: 0x45806, size: 0x8, addend: 0x0, symName: __ZNK8facebook5react8RawValuecvT_INSt3__113unordered_mapINS4_12basic_stringIcNS4_11char_traitsIcEENS4_9allocatorIcEEEES1_NS4_4hashISB_EENS4_8equal_toISB_EENS9_INS4_4pairIKSB_S1_EEEEEEEEv, symObjAddr: 0x51E4, symBinAddr: 0x9134, symSize: 0x38 }
  - { offset: 0x4594F, size: 0x8, addend: 0x0, symName: __ZN8facebook5react8RawValue9castValueIS1_EENSt3__113unordered_mapINS3_12basic_stringIcNS3_11char_traitsIcEENS3_9allocatorIcEEEET_NS3_4hashISA_EENS3_8equal_toISA_EENS8_INS3_4pairIKSA_SB_EEEEEERKN5folly7dynamicEPSK_, symObjAddr: 0x521C, symBinAddr: 0x916C, symSize: 0x138 }
  - { offset: 0x45963, size: 0x8, addend: 0x0, symName: __ZNSt3__112__hash_tableINS_17__hash_value_typeINS_12basic_stringIcNS_11char_traitsIcEENS_9allocatorIcEEEEN8facebook5react8RawValueEEENS_22__unordered_map_hasherIS7_SB_NS_4hashIS7_EENS_8equal_toIS7_EELb1EEENS_21__unordered_map_equalIS7_SB_SG_SE_Lb1EEENS5_ISB_EEE4findIS7_EENS_15__hash_iteratorIPNS_11__hash_nodeISB_PvEEEERKT_, symObjAddr: 0x672C, symBinAddr: 0xA67C, symSize: 0xF8 }
  - { offset: 0x45B52, size: 0x8, addend: 0x0, symName: __ZNSt3__112__hash_tableINS_17__hash_value_typeINS_12basic_stringIcNS_11char_traitsIcEENS_9allocatorIcEEEEN8facebook5react8RawValueEEENS_22__unordered_map_hasherIS7_SB_NS_4hashIS7_EENS_8equal_toIS7_EELb1EEENS_21__unordered_map_equalIS7_SB_SG_SE_Lb1EEENS5_ISB_EEED2Ev, symObjAddr: 0x6824, symBinAddr: 0xA774, symSize: 0x38 }
  - { offset: 0x45CA8, size: 0x8, addend: 0x0, symName: __ZN8facebook5react8RawValue9castValueIS1_EENSt3__113unordered_mapINS3_12basic_stringIcNS3_11char_traitsIcEENS3_9allocatorIcEEEET_NS3_4hashISA_EENS3_8equal_toISA_EENS8_INS3_4pairIKSA_SB_EEEEEERKN5folly7dynamicEPSK_, symObjAddr: 0x521C, symBinAddr: 0x916C, symSize: 0x138 }
  - { offset: 0x464D0, size: 0x8, addend: 0x0, symName: __ZN8facebook5react8RawValue9castValueIS1_EENSt3__113unordered_mapINS3_12basic_stringIcNS3_11char_traitsIcEENS3_9allocatorIcEEEET_NS3_4hashISA_EENS3_8equal_toISA_EENS8_INS3_4pairIKSA_SB_EEEEEEPNS_3jsi7RuntimeERKNSL_5ValueEPSK_, symObjAddr: 0x5354, symBinAddr: 0x92A4, symSize: 0x264 }
  - { offset: 0x479BD, size: 0x8, addend: 0x0, symName: __ZNSt3__112__hash_tableINS_17__hash_value_typeINS_12basic_stringIcNS_11char_traitsIcEENS_9allocatorIcEEEEN8facebook5react8RawValueEEENS_22__unordered_map_hasherIS7_SB_NS_4hashIS7_EENS_8equal_toIS7_EELb1EEENS_21__unordered_map_equalIS7_SB_SG_SE_Lb1EEENS5_ISB_EEE25__emplace_unique_key_argsIS7_JRKNS_21piecewise_construct_tENS_5tupleIJRKS7_EEENSQ_IJEEEEEENS_4pairINS_15__hash_iteratorIPNS_11__hash_nodeISB_PvEEEEbEERKT_DpOT0_, symObjAddr: 0x55EC, symBinAddr: 0x953C, symSize: 0x268 }
  - { offset: 0x47E77, size: 0x8, addend: 0x0, symName: __ZN8facebook5react8RawValueaSEOS1_, symObjAddr: 0x55B8, symBinAddr: 0x9508, symSize: 0x34 }
  - { offset: 0x47F40, size: 0x8, addend: 0x0, symName: __ZNSt3__116__variant_detail6__dtorINS0_8__traitsIJN5folly7dynamicENS_4pairIPN8facebook3jsi7RuntimeENS7_5ValueEEEEEELNS0_6_TraitE1EE9__destroyB8ne200100Ev, symObjAddr: 0x6198, symBinAddr: 0xA0E8, symSize: 0x54 }
  - { offset: 0x4820C, size: 0x8, addend: 0x0, symName: __ZN8facebook5react8RawValueC2ERNS_3jsi7RuntimeERKNS2_5ValueE, symObjAddr: 0x62D8, symBinAddr: 0xA228, symSize: 0x78 }
  - { offset: 0x4853C, size: 0x8, addend: 0x0, symName: __ZNSt3__112__hash_tableINS_17__hash_value_typeINS_12basic_stringIcNS_11char_traitsIcEENS_9allocatorIcEEEEN8facebook5react8RawValueEEENS_22__unordered_map_hasherIS7_SB_NS_4hashIS7_EENS_8equal_toIS7_EELb1EEENS_21__unordered_map_equalIS7_SB_SG_SE_Lb1EEENS5_ISB_EEE25__emplace_unique_key_argsIS7_JRS7_SA_EEENS_4pairINS_15__hash_iteratorIPNS_11__hash_nodeISB_PvEEEEbEERKT_DpOT0_, symObjAddr: 0x6350, symBinAddr: 0xA2A0, symSize: 0x258 }
  - { offset: 0x48A5B, size: 0x8, addend: 0x0, symName: __ZNSt3__116__variant_detail12__assignmentINS0_8__traitsIJN5folly7dynamicENS_4pairIPN8facebook3jsi7RuntimeENS7_5ValueEEEEEEE16__generic_assignB8ne200100INS0_17__move_assignmentISC_LNS0_6_TraitE1EEEEEvOT_, symObjAddr: 0x613C, symBinAddr: 0xA08C, symSize: 0x5C }
  - { offset: 0x48D44, size: 0x8, addend: 0x0, symName: __ZNKSt3__113__string_hashIcNS_9allocatorIcEEEclB8ne200100ERKNS_12basic_stringIcNS_11char_traitsIcEES2_EE, symObjAddr: 0x58D4, symBinAddr: 0x9824, symSize: 0x3C }
  - { offset: 0x48E13, size: 0x8, addend: 0x0, symName: __ZNKSt3__18equal_toINS_12basic_stringIcNS_11char_traitsIcEENS_9allocatorIcEEEEEclB8ne200100ERKS6_S9_, symObjAddr: 0x5D7C, symBinAddr: 0x9CCC, symSize: 0x70 }
  - { offset: 0x48E5C, size: 0x8, addend: 0x0, symName: __ZNKSt3__18equal_toINS_12basic_stringIcNS_11char_traitsIcEENS_9allocatorIcEEEEEclB8ne200100ERKS6_S9_, symObjAddr: 0x5D7C, symBinAddr: 0x9CCC, symSize: 0x70 }
  - { offset: 0x48E8C, size: 0x8, addend: 0x0, symName: __ZNKSt3__18equal_toINS_12basic_stringIcNS_11char_traitsIcEENS_9allocatorIcEEEEEclB8ne200100ERKS6_S9_, symObjAddr: 0x5D7C, symBinAddr: 0x9CCC, symSize: 0x70 }
  - { offset: 0x48EA8, size: 0x8, addend: 0x0, symName: __ZNKSt3__18equal_toINS_12basic_stringIcNS_11char_traitsIcEENS_9allocatorIcEEEEEclB8ne200100ERKS6_S9_, symObjAddr: 0x5D7C, symBinAddr: 0x9CCC, symSize: 0x70 }
  - { offset: 0x48FAB, size: 0x8, addend: 0x0, symName: __ZNSt3__112__hash_tableINS_17__hash_value_typeINS_12basic_stringIcNS_11char_traitsIcEENS_9allocatorIcEEEEN8facebook5react8RawValueEEENS_22__unordered_map_hasherIS7_SB_NS_4hashIS7_EENS_8equal_toIS7_EELb1EEENS_21__unordered_map_equalIS7_SB_SG_SE_Lb1EEENS5_ISB_EEE21__construct_node_hashIRKNS_21piecewise_construct_tEJNS_5tupleIJRKS7_EEENSQ_IJEEEEEENS_10unique_ptrINS_11__hash_nodeISB_PvEENS_22__hash_node_destructorINS5_ISY_EEEEEEmOT_DpOT0_, symObjAddr: 0x5854, symBinAddr: 0x97A4, symSize: 0x80 }
  - { offset: 0x49313, size: 0x8, addend: 0x0, symName: __ZNSt3__112__hash_tableINS_17__hash_value_typeINS_12basic_stringIcNS_11char_traitsIcEENS_9allocatorIcEEEEN8facebook5react8RawValueEEENS_22__unordered_map_hasherIS7_SB_NS_4hashIS7_EENS_8equal_toIS7_EELb1EEENS_21__unordered_map_equalIS7_SB_SG_SE_Lb1EEENS5_ISB_EEE8__rehashILb1EEEvm, symObjAddr: 0x5E8C, symBinAddr: 0x9DDC, symSize: 0xDC }
  - { offset: 0x49408, size: 0x8, addend: 0x0, symName: __ZNSt3__110unique_ptrINS_11__hash_nodeINS_17__hash_value_typeINS_12basic_stringIcNS_11char_traitsIcEENS_9allocatorIcEEEEN8facebook5react8RawValueEEEPvEENS_22__hash_node_destructorINS6_ISE_EEEEE5resetB8ne200100EPSE_, symObjAddr: 0x60B8, symBinAddr: 0xA008, symSize: 0x48 }
  - { offset: 0x4981A, size: 0x8, addend: 0x0, symName: __ZNSt3__14pairIKNS_12basic_stringIcNS_11char_traitsIcEENS_9allocatorIcEEEEN8facebook5react8RawValueEEC2B8ne200100IJRS7_EJEJLm0EEJEEENS_21piecewise_construct_tERNS_5tupleIJDpT_EEERNSF_IJDpT0_EEENS_15__tuple_indicesIJXspT1_EEEENSO_IJXspT2_EEEE, symObjAddr: 0x5DEC, symBinAddr: 0x9D3C, symSize: 0xA0 }
  - { offset: 0x49C25, size: 0x8, addend: 0x0, symName: __ZNKSt3__121__murmur2_or_cityhashImLm64EEclB8ne200100EPKvm, symObjAddr: 0x5910, symBinAddr: 0x9860, symSize: 0x208 }
  - { offset: 0x4A27C, size: 0x8, addend: 0x0, symName: __ZNSt3__121__murmur2_or_cityhashImLm64EE18__hash_len_0_to_16B8ne200100EPKcm, symObjAddr: 0x5B18, symBinAddr: 0x9A68, symSize: 0xF8 }
  - { offset: 0x4A480, size: 0x8, addend: 0x0, symName: __ZNSt3__121__murmur2_or_cityhashImLm64EE19__hash_len_33_to_64B8ne200100EPKcm, symObjAddr: 0x5CBC, symBinAddr: 0x9C0C, symSize: 0xC0 }
  - { offset: 0x4A6E5, size: 0x8, addend: 0x0, symName: __ZNSt3__121__murmur2_or_cityhashImLm64EE19__hash_len_17_to_32B8ne200100EPKcm, symObjAddr: 0x5C10, symBinAddr: 0x9B60, symSize: 0xAC }
  - { offset: 0x4ACA6, size: 0x8, addend: 0x0, symName: __ZNSt3__112__hash_tableINS_17__hash_value_typeINS_12basic_stringIcNS_11char_traitsIcEENS_9allocatorIcEEEEN8facebook5react8RawValueEEENS_22__unordered_map_hasherIS7_SB_NS_4hashIS7_EENS_8equal_toIS7_EELb1EEENS_21__unordered_map_equalIS7_SB_SG_SE_Lb1EEENS5_ISB_EEE11__do_rehashILb1EEEvm, symObjAddr: 0x5F68, symBinAddr: 0x9EB8, symSize: 0x150 }
  - { offset: 0x4B0A1, size: 0x8, addend: 0x0, symName: __ZNSt3__110unique_ptrINS_11__hash_nodeINS_17__hash_value_typeINS_12basic_stringIcNS_11char_traitsIcEENS_9allocatorIcEEEEN8facebook5react8RawValueEEEPvEENS_22__hash_node_destructorINS6_ISE_EEEEE5resetB8ne200100EPSE_, symObjAddr: 0x60B8, symBinAddr: 0xA008, symSize: 0x48 }
  - { offset: 0x4B54A, size: 0x8, addend: 0x0, symName: __ZNSt3__116__variant_detail12__visitation6__base12__dispatcherIJLm0EEE10__dispatchB8ne200100IOZNS0_6__dtorINS0_8__traitsIJN5folly7dynamicENS_4pairIPN8facebook3jsi7RuntimeENSC_5ValueEEEEEELNS0_6_TraitE1EE9__destroyB8ne200100EvEUlRT_E_JRNS0_6__baseILSI_1EJS9_SG_EEEEEEDcSK_DpT0_, symObjAddr: 0x61EC, symBinAddr: 0xA13C, symSize: 0x8 }
  - { offset: 0x4B6FA, size: 0x8, addend: 0x0, symName: __ZNSt3__116__variant_detail12__visitation6__base12__dispatcherIJLm1EEE10__dispatchB8ne200100IOZNS0_6__dtorINS0_8__traitsIJN5folly7dynamicENS_4pairIPN8facebook3jsi7RuntimeENSC_5ValueEEEEEELNS0_6_TraitE1EE9__destroyB8ne200100EvEUlRT_E_JRNS0_6__baseILSI_1EJS9_SG_EEEEEEDcSK_DpT0_, symObjAddr: 0x61F4, symBinAddr: 0xA144, symSize: 0x8 }
  - { offset: 0x4B730, size: 0x8, addend: 0x0, symName: __ZNSt3__116__variant_detail12__visitation6__base12__dispatcherIJLm1EEE10__dispatchB8ne200100IOZNS0_6__dtorINS0_8__traitsIJN5folly7dynamicENS_4pairIPN8facebook3jsi7RuntimeENSC_5ValueEEEEEELNS0_6_TraitE1EE9__destroyB8ne200100EvEUlRT_E_JRNS0_6__baseILSI_1EJS9_SG_EEEEEEDcSK_DpT0_, symObjAddr: 0x61F4, symBinAddr: 0xA144, symSize: 0x8 }
  - { offset: 0x4B755, size: 0x8, addend: 0x0, symName: __ZNSt3__116__variant_detail12__visitation6__base12__dispatcherIJLm1EEE10__dispatchB8ne200100IOZNS0_6__dtorINS0_8__traitsIJN5folly7dynamicENS_4pairIPN8facebook3jsi7RuntimeENSC_5ValueEEEEEELNS0_6_TraitE1EE9__destroyB8ne200100EvEUlRT_E_JRNS0_6__baseILSI_1EJS9_SG_EEEEEEDcSK_DpT0_, symObjAddr: 0x61F4, symBinAddr: 0xA144, symSize: 0x8 }
  - { offset: 0x4B779, size: 0x8, addend: 0x0, symName: __ZNSt3__116__variant_detail12__visitation6__base12__dispatcherIJLm1EEE10__dispatchB8ne200100IOZNS0_6__dtorINS0_8__traitsIJN5folly7dynamicENS_4pairIPN8facebook3jsi7RuntimeENSC_5ValueEEEEEELNS0_6_TraitE1EE9__destroyB8ne200100EvEUlRT_E_JRNS0_6__baseILSI_1EJS9_SG_EEEEEEDcSK_DpT0_, symObjAddr: 0x61F4, symBinAddr: 0xA144, symSize: 0x8 }
  - { offset: 0x4B795, size: 0x8, addend: 0x0, symName: __ZNSt3__116__variant_detail12__visitation6__base12__dispatcherIJLm1EEE10__dispatchB8ne200100IOZNS0_6__dtorINS0_8__traitsIJN5folly7dynamicENS_4pairIPN8facebook3jsi7RuntimeENSC_5ValueEEEEEELNS0_6_TraitE1EE9__destroyB8ne200100EvEUlRT_E_JRNS0_6__baseILSI_1EJS9_SG_EEEEEEDcSK_DpT0_, symObjAddr: 0x61F4, symBinAddr: 0xA144, symSize: 0x8 }
  - { offset: 0x4B7B1, size: 0x8, addend: 0x0, symName: __ZNSt3__116__variant_detail12__visitation6__base12__dispatcherIJLm1EEE10__dispatchB8ne200100IOZNS0_6__dtorINS0_8__traitsIJN5folly7dynamicENS_4pairIPN8facebook3jsi7RuntimeENSC_5ValueEEEEEELNS0_6_TraitE1EE9__destroyB8ne200100EvEUlRT_E_JRNS0_6__baseILSI_1EJS9_SG_EEEEEEDcSK_DpT0_, symObjAddr: 0x61F4, symBinAddr: 0xA144, symSize: 0x8 }
  - { offset: 0x4B7CD, size: 0x8, addend: 0x0, symName: __ZNSt3__116__variant_detail12__visitation6__base12__dispatcherIJLm1EEE10__dispatchB8ne200100IOZNS0_6__dtorINS0_8__traitsIJN5folly7dynamicENS_4pairIPN8facebook3jsi7RuntimeENSC_5ValueEEEEEELNS0_6_TraitE1EE9__destroyB8ne200100EvEUlRT_E_JRNS0_6__baseILSI_1EJS9_SG_EEEEEEDcSK_DpT0_, symObjAddr: 0x61F4, symBinAddr: 0xA144, symSize: 0x8 }
  - { offset: 0x4B85E, size: 0x8, addend: 0x0, symName: __ZNSt3__116__variant_detail12__visitation6__base12__dispatcherIJLm0ELm0EEE10__dispatchB8ne200100IOZNS0_12__assignmentINS0_8__traitsIJN5folly7dynamicENS_4pairIPN8facebook3jsi7RuntimeENSC_5ValueEEEEEEE16__generic_assignB8ne200100INS0_17__move_assignmentISH_LNS0_6_TraitE1EEEEEvOT_EUlRSN_OT0_E_JRNS0_6__baseILSL_1EJS9_SG_EEEOSV_EEEDcSN_DpT0_, symObjAddr: 0x61FC, symBinAddr: 0xA14C, symSize: 0x8 }
  - { offset: 0x4B91E, size: 0x8, addend: 0x0, symName: __ZNSt3__116__variant_detail12__assignmentINS0_8__traitsIJN5folly7dynamicENS_4pairIPN8facebook3jsi7RuntimeENS7_5ValueEEEEEEE12__assign_altB8ne200100ILm0ES4_S4_EEvRNS0_5__altIXT_ET0_EEOT1_, symObjAddr: 0x620C, symBinAddr: 0xA15C, symSize: 0x50 }
  - { offset: 0x4BB6D, size: 0x8, addend: 0x0, symName: __ZNSt3__116__variant_detail12__visitation6__base12__dispatcherIJLm1ELm1EEE10__dispatchB8ne200100IOZNS0_12__assignmentINS0_8__traitsIJN5folly7dynamicENS_4pairIPN8facebook3jsi7RuntimeENSC_5ValueEEEEEEE16__generic_assignB8ne200100INS0_17__move_assignmentISH_LNS0_6_TraitE1EEEEEvOT_EUlRSN_OT0_E_JRNS0_6__baseILSL_1EJS9_SG_EEEOSV_EEEDcSN_DpT0_, symObjAddr: 0x6204, symBinAddr: 0xA154, symSize: 0x8 }
  - { offset: 0x4BC2D, size: 0x8, addend: 0x0, symName: __ZNSt3__116__variant_detail12__assignmentINS0_8__traitsIJN5folly7dynamicENS_4pairIPN8facebook3jsi7RuntimeENS7_5ValueEEEEEEE12__assign_altB8ne200100ILm1ESB_SB_EEvRNS0_5__altIXT_ET0_EEOT1_, symObjAddr: 0x625C, symBinAddr: 0xA1AC, symSize: 0x7C }
  - { offset: 0x4C504, size: 0x8, addend: 0x0, symName: __ZNSt3__112__hash_tableINS_17__hash_value_typeINS_12basic_stringIcNS_11char_traitsIcEENS_9allocatorIcEEEEN8facebook5react8RawValueEEENS_22__unordered_map_hasherIS7_SB_NS_4hashIS7_EENS_8equal_toIS7_EELb1EEENS_21__unordered_map_equalIS7_SB_SG_SE_Lb1EEENS5_ISB_EEE21__construct_node_hashIRS7_JSA_EEENS_10unique_ptrINS_11__hash_nodeISB_PvEENS_22__hash_node_destructorINS5_ISR_EEEEEEmOT_DpOT0_, symObjAddr: 0x65A8, symBinAddr: 0xA4F8, symSize: 0x7C }
  - { offset: 0x4C8E4, size: 0x8, addend: 0x0, symName: __ZNSt3__14pairIKNS_12basic_stringIcNS_11char_traitsIcEENS_9allocatorIcEEEEN8facebook5react8RawValueEEC2B8ne200100IRS6_SA_Li0EEEOT_OT0_, symObjAddr: 0x6624, symBinAddr: 0xA574, symSize: 0x5C }
  - { offset: 0x4CC7E, size: 0x8, addend: 0x0, symName: __ZNSt3__116__variant_detail18__move_constructorINS0_8__traitsIJN5folly7dynamicENS_4pairIPN8facebook3jsi7RuntimeENS7_5ValueEEEEEELNS0_6_TraitE1EEC2B8ne200100EOSE_, symObjAddr: 0x6680, symBinAddr: 0xA5D0, symSize: 0x34 }
  - { offset: 0x4CE5C, size: 0x8, addend: 0x0, symName: __ZNSt3__116__variant_detail6__ctorINS0_8__traitsIJN5folly7dynamicENS_4pairIPN8facebook3jsi7RuntimeENS7_5ValueEEEEEEE19__generic_constructB8ne200100INS0_18__move_constructorISC_LNS0_6_TraitE1EEEEEvRSD_OT_, symObjAddr: 0x66B4, symBinAddr: 0xA604, symSize: 0x60 }
  - { offset: 0x4D0B3, size: 0x8, addend: 0x0, symName: __ZNSt3__116__variant_detail12__visitation6__base12__dispatcherIJLm0EEE10__dispatchB8ne200100IOZNS0_6__ctorINS0_8__traitsIJN5folly7dynamicENS_4pairIPN8facebook3jsi7RuntimeENSC_5ValueEEEEEEE19__generic_constructB8ne200100INS0_18__move_constructorISH_LNS0_6_TraitE1EEEEEvRSI_OT_EUlSP_E_JONS0_6__baseILSL_1EJS9_SG_EEEEEEDcSO_DpT0_, symObjAddr: 0x6714, symBinAddr: 0xA664, symSize: 0x8 }
  - { offset: 0x4D0E9, size: 0x8, addend: 0x0, symName: __ZNSt3__116__variant_detail12__visitation6__base12__dispatcherIJLm0EEE10__dispatchB8ne200100IOZNS0_6__ctorINS0_8__traitsIJN5folly7dynamicENS_4pairIPN8facebook3jsi7RuntimeENSC_5ValueEEEEEEE19__generic_constructB8ne200100INS0_18__move_constructorISH_LNS0_6_TraitE1EEEEEvRSI_OT_EUlSP_E_JONS0_6__baseILSL_1EJS9_SG_EEEEEEDcSO_DpT0_, symObjAddr: 0x6714, symBinAddr: 0xA664, symSize: 0x8 }
  - { offset: 0x4D10E, size: 0x8, addend: 0x0, symName: __ZNSt3__116__variant_detail12__visitation6__base12__dispatcherIJLm0EEE10__dispatchB8ne200100IOZNS0_6__ctorINS0_8__traitsIJN5folly7dynamicENS_4pairIPN8facebook3jsi7RuntimeENSC_5ValueEEEEEEE19__generic_constructB8ne200100INS0_18__move_constructorISH_LNS0_6_TraitE1EEEEEvRSI_OT_EUlSP_E_JONS0_6__baseILSL_1EJS9_SG_EEEEEEDcSO_DpT0_, symObjAddr: 0x6714, symBinAddr: 0xA664, symSize: 0x8 }
  - { offset: 0x4D24C, size: 0x8, addend: 0x0, symName: __ZNSt3__116__variant_detail12__visitation6__base12__dispatcherIJLm1EEE10__dispatchB8ne200100IOZNS0_6__ctorINS0_8__traitsIJN5folly7dynamicENS_4pairIPN8facebook3jsi7RuntimeENSC_5ValueEEEEEEE19__generic_constructB8ne200100INS0_18__move_constructorISH_LNS0_6_TraitE1EEEEEvRSI_OT_EUlSP_E_JONS0_6__baseILSL_1EJS9_SG_EEEEEEDcSO_DpT0_, symObjAddr: 0x671C, symBinAddr: 0xA66C, symSize: 0x10 }
  - { offset: 0x4D283, size: 0x8, addend: 0x0, symName: __ZNSt3__116__variant_detail12__visitation6__base12__dispatcherIJLm1EEE10__dispatchB8ne200100IOZNS0_6__ctorINS0_8__traitsIJN5folly7dynamicENS_4pairIPN8facebook3jsi7RuntimeENSC_5ValueEEEEEEE19__generic_constructB8ne200100INS0_18__move_constructorISH_LNS0_6_TraitE1EEEEEvRSI_OT_EUlSP_E_JONS0_6__baseILSL_1EJS9_SG_EEEEEEDcSO_DpT0_, symObjAddr: 0x671C, symBinAddr: 0xA66C, symSize: 0x10 }
  - { offset: 0x4D2AA, size: 0x8, addend: 0x0, symName: __ZNSt3__116__variant_detail12__visitation6__base12__dispatcherIJLm1EEE10__dispatchB8ne200100IOZNS0_6__ctorINS0_8__traitsIJN5folly7dynamicENS_4pairIPN8facebook3jsi7RuntimeENSC_5ValueEEEEEEE19__generic_constructB8ne200100INS0_18__move_constructorISH_LNS0_6_TraitE1EEEEEvRSI_OT_EUlSP_E_JONS0_6__baseILSL_1EJS9_SG_EEEEEEDcSO_DpT0_, symObjAddr: 0x671C, symBinAddr: 0xA66C, symSize: 0x10 }
  - { offset: 0x4D4D1, size: 0x8, addend: 0x0, symName: __ZNSt3__112__hash_tableINS_17__hash_value_typeINS_12basic_stringIcNS_11char_traitsIcEENS_9allocatorIcEEEEN8facebook5react8RawValueEEENS_22__unordered_map_hasherIS7_SB_NS_4hashIS7_EENS_8equal_toIS7_EELb1EEENS_21__unordered_map_equalIS7_SB_SG_SE_Lb1EEENS5_ISB_EEE17__deallocate_nodeEPNS_16__hash_node_baseIPNS_11__hash_nodeISB_PvEEEE, symObjAddr: 0x685C, symBinAddr: 0xA7AC, symSize: 0x3C }
  - { offset: 0x4D6D7, size: 0x8, addend: 0x0, symName: __ZNK8facebook5react8RawValue7hasTypeINSt3__16vectorIS1_NS3_9allocatorIS1_EEEEEEbv, symObjAddr: 0x6A08, symBinAddr: 0xA958, symSize: 0x3C }
  - { offset: 0x4D883, size: 0x8, addend: 0x0, symName: __ZNK8facebook5react8RawValuecvT_INSt3__16vectorIS1_NS4_9allocatorIS1_EEEEEEv, symObjAddr: 0x6A44, symBinAddr: 0xA994, symSize: 0x38 }
  - { offset: 0x4D897, size: 0x8, addend: 0x0, symName: __ZNK8facebook5react8RawValuecvT_INSt3__16vectorIS1_NS4_9allocatorIS1_EEEEEEv, symObjAddr: 0x6A44, symBinAddr: 0xA994, symSize: 0x38 }
  - { offset: 0x4D9E0, size: 0x8, addend: 0x0, symName: __ZNSt3__16vectorINS_12basic_stringIcNS_11char_traitsIcEENS_9allocatorIcEEEENS4_IS6_EEE9push_backB8ne200100ERKS6_, symObjAddr: 0x6A7C, symBinAddr: 0xA9CC, symSize: 0x3C }
  - { offset: 0x4D9F4, size: 0x8, addend: 0x0, symName: __ZNSt3__16vectorINS_12basic_stringIcNS_11char_traitsIcEENS_9allocatorIcEEEENS4_IS6_EEE9push_backB8ne200100ERKS6_, symObjAddr: 0x6A7C, symBinAddr: 0xA9CC, symSize: 0x3C }
  - { offset: 0x4DA74, size: 0x8, addend: 0x0, symName: __ZNSt3__16vectorIN8facebook5react8RawValueENS_9allocatorIS3_EEE16__destroy_vectorclB8ne200100Ev, symObjAddr: 0x7368, symBinAddr: 0xB25C, symSize: 0x70 }
  - { offset: 0x4DD9A, size: 0x8, addend: 0x0, symName: __ZN8facebook5react8RawValue14checkValueTypeIS1_EEbPNS_3jsi7RuntimeERKNS3_5ValueEPNSt3__16vectorIT_NS9_9allocatorISB_EEEE, symObjAddr: 0x6AB8, symBinAddr: 0xAA08, symSize: 0xEC }
  - { offset: 0x4E198, size: 0x8, addend: 0x0, symName: __ZN8facebook5react8RawValue9castValueIS1_EENSt3__16vectorIT_NS3_9allocatorIS5_EEEERKN5folly7dynamicEPS8_, symObjAddr: 0x6BA4, symBinAddr: 0xAAF4, symSize: 0x108 }
  - { offset: 0x4E998, size: 0x8, addend: 0x0, symName: __ZN8facebook5react8RawValue9castValueIS1_EENSt3__16vectorIT_NS3_9allocatorIS5_EEEEPNS_3jsi7RuntimeERKNS9_5ValueEPS8_, symObjAddr: 0x6CAC, symBinAddr: 0xABFC, symSize: 0x1AC }
  - { offset: 0x4F2B1, size: 0x8, addend: 0x0, symName: __ZNSt3__16vectorINS_12basic_stringIcNS_11char_traitsIcEENS_9allocatorIcEEEENS4_IS6_EEE22__construct_one_at_endB8ne200100IJRKS6_EEEvDpOT_, symObjAddr: 0x71D0, symBinAddr: 0xB0C4, symSize: 0x5C }
  - { offset: 0x4F4B0, size: 0x8, addend: 0x0, symName: __ZNSt3__16vectorINS_12basic_stringIcNS_11char_traitsIcEENS_9allocatorIcEEEENS4_IS6_EEE24__emplace_back_slow_pathIJRKS6_EEEPS6_DpOT_, symObjAddr: 0x722C, symBinAddr: 0xB120, symSize: 0x13C }
  - { offset: 0x4F852, size: 0x8, addend: 0x0, symName: __ZNSt3__16vectorIN8facebook5react8RawValueENS_9allocatorIS3_EEE7reserveEm, symObjAddr: 0x6E58, symBinAddr: 0xADA8, symSize: 0xE4 }
  - { offset: 0x4FA72, size: 0x8, addend: 0x0, symName: __ZNSt3__16vectorIN8facebook5react8RawValueENS_9allocatorIS3_EEE9push_backB8ne200100EOS3_, symObjAddr: 0x6F3C, symBinAddr: 0xAE8C, symSize: 0x44 }
  - { offset: 0x4FDF3, size: 0x8, addend: 0x0, symName: __ZNSt3__114__split_bufferIN8facebook5react8RawValueERNS_9allocatorIS3_EEED2Ev, symObjAddr: 0x7044, symBinAddr: 0xAF38, symSize: 0x4C }
  - { offset: 0x501A7, size: 0x8, addend: 0x0, symName: __ZNSt3__16vectorIN8facebook5react8RawValueENS_9allocatorIS3_EEE24__emplace_back_slow_pathIJS3_EEEPS3_DpOT_, symObjAddr: 0x7090, symBinAddr: 0xAF84, symSize: 0x140 }
  - { offset: 0x5084F, size: 0x8, addend: 0x0, symName: __ZNK8facebook5react8RawValue7hasTypeIiEEbv, symObjAddr: 0x79B0, symBinAddr: 0xB8A4, symSize: 0x40 }
  - { offset: 0x50878, size: 0x8, addend: 0x0, symName: __ZNK8facebook5react8RawValue7hasTypeIiEEbv, symObjAddr: 0x79B0, symBinAddr: 0xB8A4, symSize: 0x40 }
  - { offset: 0x50893, size: 0x8, addend: 0x0, symName: __ZNK8facebook5react8RawValue7hasTypeIiEEbv, symObjAddr: 0x79B0, symBinAddr: 0xB8A4, symSize: 0x40 }
  - { offset: 0x508AF, size: 0x8, addend: 0x0, symName: __ZNK8facebook5react8RawValue7hasTypeIiEEbv, symObjAddr: 0x79B0, symBinAddr: 0xB8A4, symSize: 0x40 }
  - { offset: 0x508CB, size: 0x8, addend: 0x0, symName: __ZNK8facebook5react8RawValue7hasTypeIiEEbv, symObjAddr: 0x79B0, symBinAddr: 0xB8A4, symSize: 0x40 }
  - { offset: 0x50A3D, size: 0x8, addend: 0x0, symName: __ZNK8facebook5react8RawValuecvT_IiEEv, symObjAddr: 0x79F0, symBinAddr: 0xB8E4, symSize: 0x38 }
  - { offset: 0x50A51, size: 0x8, addend: 0x0, symName: __ZNK8facebook5react8RawValuecvT_IiEEv, symObjAddr: 0x79F0, symBinAddr: 0xB8E4, symSize: 0x38 }
  - { offset: 0x50C14, size: 0x8, addend: 0x0, symName: __ZNK5folly7dynamic6asImplIxEET_v, symObjAddr: 0x7A28, symBinAddr: 0xB91C, symSize: 0x138 }
  - { offset: 0x50D63, size: 0x8, addend: 0x0, symName: __ZNK5folly7dynamic6asImplIxEET_v, symObjAddr: 0x7A28, symBinAddr: 0xB91C, symSize: 0x138 }
  - { offset: 0x51161, size: 0x8, addend: 0x0, symName: __ZN5folly2toIxdEENSt3__19enable_ifIXsr6detail14IsArithToArithIT_T0_EE5valueES3_E4typeERKS4_, symObjAddr: 0x7B60, symBinAddr: 0xBA54, symSize: 0x48 }
  - { offset: 0x515FC, size: 0x8, addend: 0x0, symName: __ZN5folly15expected_detail30expected_detail_ExpectedHelper14ExpectedHelper12thenOrThrow_INS0_15ExpectedStorageIxNS_14ConversionCodeELNS0_11StorageTypeE0EEERKNS_11identity_fnEZNS_2toIxbEENSt3__19enable_ifIXsr6detail14IsArithToArithIT_T0_EE5valueESE_E4typeERKSF_EUlS5_E_OxNS_15ConversionErrorELb0ELi0EEET2_OSE_OSF_OT1_, symObjAddr: 0x8204, symBinAddr: 0xC050, symSize: 0x60 }
  - { offset: 0x51724, size: 0x8, addend: 0x0, symName: __ZN5folly15expected_detail30expected_detail_ExpectedHelper14ExpectedHelper12thenOrThrow_IRNS0_15ExpectedStorageINS_5RangeIPKcEENS_14ConversionCodeELNS0_11StorageTypeE1EEENS_6detail18CheckTrailingSpaceEZNS_2toIxEENSt3__19enable_ifIXntsr3std7is_sameIS8_T_EE5valueESI_E4typeES8_EUlS9_E_NS_8ExpectedINS_4UnitES9_EEvLb0ELi0EEET2_OSI_OT0_OT1_, symObjAddr: 0x8614, symBinAddr: 0xC460, symSize: 0x2C }
  - { offset: 0x51778, size: 0x8, addend: 0x0, symName: __ZNK5folly6detail18CheckTrailingSpaceclENS_5RangeIPKcEE, symObjAddr: 0x8640, symBinAddr: 0xC48C, symSize: 0x90 }
  - { offset: 0x517BC, size: 0x8, addend: 0x0, symName: __ZNK5folly7dynamic6asImplIxEET_v.cold.1, symObjAddr: 0x948C, symBinAddr: 0xA62D0, symSize: 0x24 }
  - { offset: 0x51896, size: 0x8, addend: 0x0, symName: __ZN5folly15expected_detail30expected_detail_ExpectedHelper14ExpectedHelper12thenOrThrow_INS0_15ExpectedStorageIxNS_14ConversionCodeELNS0_11StorageTypeE0EEERKNS_11identity_fnEZNS_2toIxdEENSt3__19enable_ifIXsr6detail14IsArithToArithIT_T0_EE5valueESE_E4typeERKSF_EUlS5_E_OxNS_15ConversionErrorELb0ELi0EEET2_OSE_OSF_OT1_, symObjAddr: 0x7C7C, symBinAddr: 0xBB70, symSize: 0x60 }
  - { offset: 0x51A5E, size: 0x8, addend: 0x0, symName: __ZZN5folly2toIxdEENSt3__19enable_ifIXsr6detail14IsArithToArithIT_T0_EE5valueES3_E4typeERKS4_ENKUlNS_14ConversionCodeEE_clES9_, symObjAddr: 0x7DA8, symBinAddr: 0xBBF4, symSize: 0xB4 }
  - { offset: 0x51E42, size: 0x8, addend: 0x0, symName: __ZN5folly17BadExpectedAccessIvED1Ev, symObjAddr: 0x7D50, symBinAddr: 0xBBD0, symSize: 0x4 }
  - { offset: 0x51E64, size: 0x8, addend: 0x0, symName: __ZN5folly17BadExpectedAccessIvED1Ev, symObjAddr: 0x7D50, symBinAddr: 0xBBD0, symSize: 0x4 }
  - { offset: 0x51E7E, size: 0x8, addend: 0x0, symName: __ZN5folly17BadExpectedAccessIvED0Ev, symObjAddr: 0x7D54, symBinAddr: 0xBBD4, symSize: 0x14 }
  - { offset: 0x51EE1, size: 0x8, addend: 0x0, symName: __ZNK5folly17BadExpectedAccessIvE4whatEv, symObjAddr: 0x7D68, symBinAddr: 0xBBE8, symSize: 0xC }
  - { offset: 0x51F0E, size: 0x8, addend: 0x0, symName: __ZN5folly15ConversionErrorC1EOS0_, symObjAddr: 0x7E60, symBinAddr: 0xBCAC, symSize: 0x38 }
  - { offset: 0x52036, size: 0x8, addend: 0x0, symName: __ZN5folly15ConversionErrorD1Ev, symObjAddr: 0x7E5C, symBinAddr: 0xBCA8, symSize: 0x4 }
  - { offset: 0x52058, size: 0x8, addend: 0x0, symName: __ZN5folly15ConversionErrorD1Ev, symObjAddr: 0x7E5C, symBinAddr: 0xBCA8, symSize: 0x4 }
  - { offset: 0x52073, size: 0x8, addend: 0x0, symName: __ZN5folly15ConversionErrorD1Ev, symObjAddr: 0x7E5C, symBinAddr: 0xBCA8, symSize: 0x4 }
  - { offset: 0x520FE, size: 0x8, addend: 0x0, symName: __ZN5folly15ConversionErrorD0Ev, symObjAddr: 0x7E98, symBinAddr: 0xBCE4, symSize: 0x14 }
  - { offset: 0x521BD, size: 0x8, addend: 0x0, symName: __ZN5folly6detail25EstimateSpaceToReserveAllINSt3__116integer_sequenceImJLm0ELm1ELm2ELm3ELm4EEEEE4callIJA2_cPKcA3_cdPNS2_12basic_stringIcNS2_11char_traitsIcEENS2_9allocatorIcEEEEEEEmDpRKT_, symObjAddr: 0x7F64, symBinAddr: 0xBDB0, symSize: 0xB0 }
  - { offset: 0x5234E, size: 0x8, addend: 0x0, symName: __ZN5folly6detail18ToAppendStrImplAllINSt3__116integer_sequenceImJLm0ELm1ELm2ELm3ELm4EEEEE4callIJA2_cPKcA3_cdPNS2_12basic_stringIcNS2_11char_traitsIcEENS2_9allocatorIcEEEEEEEvDpRKT_, symObjAddr: 0x8014, symBinAddr: 0xBE60, symSize: 0x88 }
  - { offset: 0x528F7, size: 0x8, addend: 0x0, symName: __ZZN5folly2toIxbEENSt3__19enable_ifIXsr6detail14IsArithToArithIT_T0_EE5valueES3_E4typeERKS4_ENKUlNS_14ConversionCodeEE_clES9_, symObjAddr: 0x8264, symBinAddr: 0xC0B0, symSize: 0xB4 }
  - { offset: 0x52C25, size: 0x8, addend: 0x0, symName: __ZN5folly6detail25EstimateSpaceToReserveAllINSt3__116integer_sequenceImJLm0ELm1ELm2ELm3ELm4EEEEE4callIJA2_cPKcA3_cbPNS2_12basic_stringIcNS2_11char_traitsIcEENS2_9allocatorIcEEEEEEEmDpRKT_, symObjAddr: 0x83D0, symBinAddr: 0xC21C, symSize: 0xC8 }
  - { offset: 0x52E16, size: 0x8, addend: 0x0, symName: __ZN5folly6detail18ToAppendStrImplAllINSt3__116integer_sequenceImJLm0ELm1ELm2ELm3ELm4EEEEE4callIJA2_cPKcA3_cbPNS2_12basic_stringIcNS2_11char_traitsIcEENS2_9allocatorIcEEEEEEEvDpRKT_, symObjAddr: 0x8498, symBinAddr: 0xC2E4, symSize: 0xC4 }
  - { offset: 0x53159, size: 0x8, addend: 0x0, symName: __ZNK5folly6detail18CheckTrailingSpaceclENS_5RangeIPKcEE, symObjAddr: 0x8640, symBinAddr: 0xC48C, symSize: 0x90 }
  - { offset: 0x5319C, size: 0x8, addend: 0x0, symName: __ZNK5folly6detail18CheckTrailingSpaceclENS_5RangeIPKcEE, symObjAddr: 0x8640, symBinAddr: 0xC48C, symSize: 0x90 }
  - { offset: 0x531B6, size: 0x8, addend: 0x0, symName: __ZNK5folly6detail18CheckTrailingSpaceclENS_5RangeIPKcEE, symObjAddr: 0x8640, symBinAddr: 0xC48C, symSize: 0x90 }
  - { offset: 0x53234, size: 0x8, addend: 0x0, symName: __ZN5folly15expected_detail30expected_detail_ExpectedHelper14ExpectedHelper12thenOrThrow_IRNS0_15ExpectedStorageINS_5RangeIPKcEENS_14ConversionCodeELNS0_11StorageTypeE1EEENS_6detail18CheckTrailingSpaceEZNS_2toIxEENSt3__19enable_ifIXntsr3std7is_sameIS8_T_EE5valueESI_E4typeES8_EUlS9_E_NS_8ExpectedINS_4UnitES9_EEvLb0ELi0EEET2_OSI_OT0_OT1_.cold.1, symObjAddr: 0x94B0, symBinAddr: 0xA62F4, symSize: 0x28 }
  - { offset: 0x532D7, size: 0x8, addend: 0x0, symName: __ZZN5folly2toIxEENSt3__19enable_ifIXntsr3std7is_sameINS_5RangeIPKcEET_EE5valueES7_E4typeES6_ENKUlNS_14ConversionCodeEE_clESA_, symObjAddr: 0x86D0, symBinAddr: 0xC51C, symSize: 0x48 }
  - { offset: 0x5346C, size: 0x8, addend: 0x0, symName: __ZN5folly17BadExpectedAccessINS_14ConversionCodeEED1Ev, symObjAddr: 0x87A0, symBinAddr: 0xC564, symSize: 0x4 }
  - { offset: 0x5348E, size: 0x8, addend: 0x0, symName: __ZN5folly17BadExpectedAccessINS_14ConversionCodeEED1Ev, symObjAddr: 0x87A0, symBinAddr: 0xC564, symSize: 0x4 }
  - { offset: 0x534A9, size: 0x8, addend: 0x0, symName: __ZN5folly17BadExpectedAccessINS_14ConversionCodeEED1Ev, symObjAddr: 0x87A0, symBinAddr: 0xC564, symSize: 0x4 }
  - { offset: 0x534C4, size: 0x8, addend: 0x0, symName: __ZN5folly17BadExpectedAccessINS_14ConversionCodeEED0Ev, symObjAddr: 0x87A4, symBinAddr: 0xC568, symSize: 0x14 }
  - { offset: 0x53565, size: 0x8, addend: 0x0, symName: __ZZN5folly2toIxEENSt3__19enable_ifIXntsr3std7is_sameINS_5RangeIPKcEET_EE5valueES7_E4typeES6_ENKUlNS_14ConversionCodeEE0_clESA_, symObjAddr: 0x87B8, symBinAddr: 0xC57C, symSize: 0x50 }
  - { offset: 0x5365A, size: 0x8, addend: 0x0, symName: __ZNK5folly8ExpectedINS_5RangeIPKcEENS_14ConversionCodeEE12requireValueEv, symObjAddr: 0x8808, symBinAddr: 0xC5CC, symSize: 0x30 }
  - { offset: 0x536E1, size: 0x8, addend: 0x0, symName: __ZN8facebook5react12fromRawValueINS0_19AccessibilityActionEEEvRKNS0_18PropsParserContextERKNS0_8RawValueERNSt3__16vectorIT_NS9_9allocatorISB_EEEE, symObjAddr: 0x8838, symBinAddr: 0xC5FC, symSize: 0x1E0 }
  - { offset: 0x53740, size: 0x8, addend: 0x0, symName: __ZNSt3__16vectorIN8facebook5react19AccessibilityActionENS_9allocatorIS3_EEE7reserveEm, symObjAddr: 0x8A18, symBinAddr: 0xC7DC, symSize: 0xE4 }
  - { offset: 0x53960, size: 0x8, addend: 0x0, symName: __ZNSt3__16vectorIN8facebook5react19AccessibilityActionENS_9allocatorIS3_EEE9push_backB8ne200100ERKS3_, symObjAddr: 0x8C88, symBinAddr: 0xCA4C, symSize: 0x50 }
  - { offset: 0x53BAA, size: 0x8, addend: 0x0, symName: __ZNSt3__114__split_bufferIN8facebook5react19AccessibilityActionERNS_9allocatorIS3_EEED2Ev, symObjAddr: 0x8D84, symBinAddr: 0xCB48, symSize: 0x4C }
  - { offset: 0x53D99, size: 0x8, addend: 0x0, symName: __ZNSt3__16vectorIN8facebook5react19AccessibilityActionENS_9allocatorIS3_EEE24__emplace_back_slow_pathIJRKS3_EEEPS3_DpOT_, symObjAddr: 0x8DD0, symBinAddr: 0xCB94, symSize: 0x144 }
  - { offset: 0x54286, size: 0x8, addend: 0x0, symName: _OUTLINED_FUNCTION_0, symObjAddr: 0x94D8, symBinAddr: 0xD0F0, symSize: 0x18 }
  - { offset: 0x5429E, size: 0x8, addend: 0x0, symName: _OUTLINED_FUNCTION_1, symObjAddr: 0x94F0, symBinAddr: 0xD108, symSize: 0xC }
  - { offset: 0x542B6, size: 0x8, addend: 0x0, symName: _OUTLINED_FUNCTION_2, symObjAddr: 0x94FC, symBinAddr: 0xD114, symSize: 0x8 }
  - { offset: 0x5696E, size: 0x8, addend: 0x0, symName: __ZN8facebook5react18AppRegistryBinding12startSurfaceERNS_3jsi7RuntimeEiRKNSt3__112basic_stringIcNS5_11char_traitsIcEENS5_9allocatorIcEEEERKN5folly7dynamicENS0_11DisplayModeE, symObjAddr: 0x0, symBinAddr: 0xD11C, symSize: 0x478 }
  - { offset: 0x56A33, size: 0x8, addend: 0x0, symName: __ZN8facebook5react8systrace20instrumentsLogHandleE, symObjAddr: 0x1588, symBinAddr: 0xD4620, symSize: 0x0 }
  - { offset: 0x56A4F, size: 0x8, addend: 0x0, symName: __ZZN8facebook5react8systraceL31getOrCreateInstrumentsLogHandleEvE4flag, symObjAddr: 0x64378, symBinAddr: 0xD47E0, symSize: 0x0 }
  - { offset: 0x5F4F7, size: 0x8, addend: 0x0, symName: __ZNSt3__117__call_once_proxyB8ne200100INS_5tupleIJOZN8facebook5react8systraceL31getOrCreateInstrumentsLogHandleEvEUlvE_EEEEEvPv, symObjAddr: 0xFDC, symBinAddr: 0xE0F8, symSize: 0x40 }
  - { offset: 0x60468, size: 0x8, addend: 0x0, symName: __ZN8facebook5react12TraceSectionD2Ev, symObjAddr: 0xD98, symBinAddr: 0xDEB4, symSize: 0xC8 }
  - { offset: 0x605A5, size: 0x8, addend: 0x0, symName: __ZN8facebook5react12TraceSectionC2IJEEEPKcDpOT_, symObjAddr: 0xE60, symBinAddr: 0xDF7C, symSize: 0x17C }
  - { offset: 0x645F5, size: 0x8, addend: 0x0, symName: __ZN8facebook5react18AppRegistryBinding12startSurfaceERNS_3jsi7RuntimeEiRKNSt3__112basic_stringIcNS5_11char_traitsIcEENS5_9allocatorIcEEEERKN5folly7dynamicENS0_11DisplayModeE, symObjAddr: 0x0, symBinAddr: 0xD11C, symSize: 0x478 }
  - { offset: 0x6527C, size: 0x8, addend: 0x0, symName: __ZNK8facebook3jsi6Object11setPropertyIRiEEvRNS0_7RuntimeEPKcOT_, symObjAddr: 0x478, symBinAddr: 0xD594, symSize: 0xA4 }
  - { offset: 0x65450, size: 0x8, addend: 0x0, symName: __ZNK8facebook3jsi6Object11setPropertyINS0_5ValueEEEvRNS0_7RuntimeEPKcOT_, symObjAddr: 0x51C, symBinAddr: 0xD638, symSize: 0xAC }
  - { offset: 0x6568E, size: 0x8, addend: 0x0, symName: __ZNK8facebook3jsi6Object11setPropertyIbEEvRNS0_7RuntimeEPKcOT_, symObjAddr: 0x5C8, symBinAddr: 0xD6E4, symSize: 0xA4 }
  - { offset: 0x65874, size: 0x8, addend: 0x0, symName: __ZNK8facebook3jsi6Object11setPropertyIRiEEvRNS0_7RuntimeERKNS0_6StringEOT_, symObjAddr: 0x1148, symBinAddr: 0xE138, symSize: 0x6C }
  - { offset: 0x65A3D, size: 0x8, addend: 0x0, symName: __ZNK8facebook3jsi6Object11setPropertyIbEEvRNS0_7RuntimeERKNS0_6StringEOT_, symObjAddr: 0x11B4, symBinAddr: 0xE1A4, symSize: 0x68 }
  - { offset: 0x65B88, size: 0x8, addend: 0x0, symName: __ZN8facebook5react18AppRegistryBinding15setSurfacePropsERNS_3jsi7RuntimeEiRKNSt3__112basic_stringIcNS5_11char_traitsIcEENS5_9allocatorIcEEEERKN5folly7dynamicENS0_11DisplayModeE, symObjAddr: 0x66C, symBinAddr: 0xD788, symSize: 0x478 }
  - { offset: 0x66832, size: 0x8, addend: 0x0, symName: __ZN8facebook5react18AppRegistryBinding11stopSurfaceERNS_3jsi7RuntimeEi, symObjAddr: 0xAE4, symBinAddr: 0xDC00, symSize: 0x2B4 }
  - { offset: 0x697F2, size: 0x8, addend: 0x0, symName: __ZN8facebook5react16AttributedString8Fragment19AttachmentCharacterEv, symObjAddr: 0x0, symBinAddr: 0xE20C, symSize: 0x10 }
  - { offset: 0x82F39, size: 0x8, addend: 0x0, symName: __ZNSt3__112construct_atB8ne200100IN8facebook5react16AttributedString8FragmentEJS4_EPS4_EEPT_S7_DpOT0_, symObjAddr: 0xC88, symBinAddr: 0xEC8C, symSize: 0x17C }
  - { offset: 0x82F76, size: 0x8, addend: 0x0, symName: __ZNSt3__112construct_atB8ne200100IN8facebook5react16AttributedString8FragmentEJS4_EPS4_EEPT_S7_DpOT0_, symObjAddr: 0xC88, symBinAddr: 0xEC8C, symSize: 0x17C }
  - { offset: 0x82F98, size: 0x8, addend: 0x0, symName: __ZNSt3__112construct_atB8ne200100IN8facebook5react16AttributedString8FragmentEJS4_EPS4_EEPT_S7_DpOT0_, symObjAddr: 0xC88, symBinAddr: 0xEC8C, symSize: 0x17C }
  - { offset: 0x82FBA, size: 0x8, addend: 0x0, symName: __ZNSt3__112construct_atB8ne200100IN8facebook5react16AttributedString8FragmentEJS4_EPS4_EEPT_S7_DpOT0_, symObjAddr: 0xC88, symBinAddr: 0xEC8C, symSize: 0x17C }
  - { offset: 0x82FDC, size: 0x8, addend: 0x0, symName: __ZNSt3__112construct_atB8ne200100IN8facebook5react16AttributedString8FragmentEJS4_EPS4_EEPT_S7_DpOT0_, symObjAddr: 0xC88, symBinAddr: 0xEC8C, symSize: 0x17C }
  - { offset: 0x835E0, size: 0x8, addend: 0x0, symName: __ZNSt3__119__allocate_at_leastB8ne200100INS_9allocatorIN8facebook5react16AttributedString8FragmentEEEEENS_19__allocation_resultINS_16allocator_traitsIT_E7pointerEEERS9_m, symObjAddr: 0xE18, symBinAddr: 0xEE08, symSize: 0x48 }
  - { offset: 0x83685, size: 0x8, addend: 0x0, symName: __ZNSt3__134__uninitialized_allocator_relocateB8ne200100INS_9allocatorIN8facebook5react16AttributedString8FragmentEEEPS5_EEvRT_T0_SA_SA_, symObjAddr: 0xE60, symBinAddr: 0xEE50, symSize: 0x6C }
  - { offset: 0x84862, size: 0x8, addend: 0x0, symName: __ZNSt3__134__uninitialized_allocator_relocateB8ne200100INS_9allocatorIN8facebook5react16AttributedString8FragmentEEEPS5_EEvRT_T0_SA_SA_, symObjAddr: 0xE60, symBinAddr: 0xEE50, symSize: 0x6C }
  - { offset: 0x848BC, size: 0x8, addend: 0x0, symName: __ZNSt3__134__uninitialized_allocator_relocateB8ne200100INS_9allocatorIN8facebook5react16AttributedString8FragmentEEEPS5_EEvRT_T0_SA_SA_, symObjAddr: 0xE60, symBinAddr: 0xEE50, symSize: 0x6C }
  - { offset: 0x84A7E, size: 0x8, addend: 0x0, symName: __ZNSt3__112__destroy_atB8ne200100IN8facebook5react16AttributedString8FragmentELi0EEEvPT_, symObjAddr: 0xECC, symBinAddr: 0xEEBC, symSize: 0x7C }
  - { offset: 0x8A8A3, size: 0x8, addend: 0x0, symName: __ZN8facebook5react16AttributedString8Fragment19AttachmentCharacterEv, symObjAddr: 0x0, symBinAddr: 0xE20C, symSize: 0x10 }
  - { offset: 0x8ABBD, size: 0x8, addend: 0x0, symName: __ZNK8facebook5react16AttributedString8Fragment12isAttachmentEv, symObjAddr: 0x10, symBinAddr: 0xE21C, symSize: 0xB0 }
  - { offset: 0x8B250, size: 0x8, addend: 0x0, symName: __ZNK8facebook5react16AttributedString8FragmenteqERKS2_, symObjAddr: 0xC0, symBinAddr: 0xE2CC, symSize: 0x50 }
  - { offset: 0x8B515, size: 0x8, addend: 0x0, symName: __ZNSt3__113__tuple_equalILm4EEclB8ne200100INS_5tupleIJRKNS_12basic_stringIcNS_11char_traitsIcEENS_9allocatorIcEEEERKN8facebook5react14TextAttributesERKiRKNSD_13LayoutMetricsEEEESM_EEbRKT_RKT0_, symObjAddr: 0x830, symBinAddr: 0xE8E8, symSize: 0x60 }
  - { offset: 0x8B6F3, size: 0x8, addend: 0x0, symName: __ZNK8facebook5react16AttributedString8Fragment14isContentEqualERKS2_, symObjAddr: 0x110, symBinAddr: 0xE31C, symSize: 0x38 }
  - { offset: 0x8B825, size: 0x8, addend: 0x0, symName: __ZN8facebook5react16AttributedString14appendFragmentEONS1_8FragmentE, symObjAddr: 0x148, symBinAddr: 0xE354, symSize: 0x20 }
  - { offset: 0x8B85C, size: 0x8, addend: 0x0, symName: __ZN8facebook5react16AttributedString14appendFragmentEONS1_8FragmentE, symObjAddr: 0x148, symBinAddr: 0xE354, symSize: 0x20 }
  - { offset: 0x8B877, size: 0x8, addend: 0x0, symName: __ZN8facebook5react16AttributedString14appendFragmentEONS1_8FragmentE, symObjAddr: 0x148, symBinAddr: 0xE354, symSize: 0x20 }
  - { offset: 0x8B893, size: 0x8, addend: 0x0, symName: __ZN8facebook5react16AttributedString14appendFragmentEONS1_8FragmentE, symObjAddr: 0x148, symBinAddr: 0xE354, symSize: 0x20 }
  - { offset: 0x8B8BD, size: 0x8, addend: 0x0, symName: __ZNSt3__16vectorIN8facebook5react16AttributedString8FragmentENS_9allocatorIS4_EEE9push_backB8ne200100EOS4_, symObjAddr: 0x168, symBinAddr: 0xE374, symSize: 0x44 }
  - { offset: 0x8BAAA, size: 0x8, addend: 0x0, symName: __ZNSt3__16vectorIN8facebook5react16AttributedString8FragmentENS_9allocatorIS4_EEE24__emplace_back_slow_pathIJS4_EEEPS4_DpOT_, symObjAddr: 0xB48, symBinAddr: 0xEB4C, symSize: 0x140 }
  - { offset: 0x8BD8C, size: 0x8, addend: 0x0, symName: __ZN8facebook5react16AttributedString15prependFragmentEONS1_8FragmentE, symObjAddr: 0x1AC, symBinAddr: 0xE3B8, symSize: 0x28 }
  - { offset: 0x8BDC4, size: 0x8, addend: 0x0, symName: __ZN8facebook5react16AttributedString15prependFragmentEONS1_8FragmentE, symObjAddr: 0x1AC, symBinAddr: 0xE3B8, symSize: 0x28 }
  - { offset: 0x8BDDF, size: 0x8, addend: 0x0, symName: __ZN8facebook5react16AttributedString15prependFragmentEONS1_8FragmentE, symObjAddr: 0x1AC, symBinAddr: 0xE3B8, symSize: 0x28 }
  - { offset: 0x8BDFB, size: 0x8, addend: 0x0, symName: __ZN8facebook5react16AttributedString15prependFragmentEONS1_8FragmentE, symObjAddr: 0x1AC, symBinAddr: 0xE3B8, symSize: 0x28 }
  - { offset: 0x8BE41, size: 0x8, addend: 0x0, symName: __ZNSt3__16vectorIN8facebook5react16AttributedString8FragmentENS_9allocatorIS4_EEE6insertENS_11__wrap_iterIPKS4_EEOS4_, symObjAddr: 0x1D4, symBinAddr: 0xE3E0, symSize: 0x16C }
  - { offset: 0x8C2AC, size: 0x8, addend: 0x0, symName: __ZNSt3__16vectorIN8facebook5react16AttributedString8FragmentENS_9allocatorIS4_EEE12__move_rangeEPS4_S8_S8_, symObjAddr: 0x10F4, symBinAddr: 0xEFDC, symSize: 0xB4 }
  - { offset: 0x8C4A6, size: 0x8, addend: 0x0, symName: __ZN8facebook5react16AttributedString8FragmentaSEOS2_, symObjAddr: 0x11A8, symBinAddr: 0xF090, symSize: 0x148 }
  - { offset: 0x8C886, size: 0x8, addend: 0x0, symName: __ZNSt3__114__split_bufferIN8facebook5react16AttributedString8FragmentERNS_9allocatorIS4_EEE12emplace_backIJS4_EEEvDpOT_, symObjAddr: 0x12F0, symBinAddr: 0xF1D8, symSize: 0x190 }
  - { offset: 0x8CC9F, size: 0x8, addend: 0x0, symName: __ZNSt3__16vectorIN8facebook5react16AttributedString8FragmentENS_9allocatorIS4_EEE26__swap_out_circular_bufferERNS_14__split_bufferIS4_RS6_EEPS4_, symObjAddr: 0x1480, symBinAddr: 0xF368, symSize: 0xB8 }
  - { offset: 0x8CDD0, size: 0x8, addend: 0x0, symName: __ZNSt3__114__split_bufferIN8facebook5react16AttributedString8FragmentERNS_9allocatorIS4_EEED2Ev, symObjAddr: 0x10A8, symBinAddr: 0xEF90, symSize: 0x4C }
  - { offset: 0x8CF09, size: 0x8, addend: 0x0, symName: __ZNSt3__119__allocate_at_leastB8ne200100INS_9allocatorIN8facebook5react16AttributedString8FragmentEEEEENS_19__allocation_resultINS_16allocator_traitsIT_E7pointerEEERS9_m, symObjAddr: 0xE18, symBinAddr: 0xEE08, symSize: 0x48 }
  - { offset: 0x8CF89, size: 0x8, addend: 0x0, symName: __ZN8facebook5react16AttributedString21setBaseTextAttributesERKNS0_14TextAttributesE, symObjAddr: 0x340, symBinAddr: 0xE54C, symSize: 0xE0 }
  - { offset: 0x8D0F7, size: 0x8, addend: 0x0, symName: __ZNSt3__110shared_ptrIvEaSB8ne200100ERKS1_, symObjAddr: 0x174C, symBinAddr: 0xF508, symSize: 0x78 }
  - { offset: 0x8D2A6, size: 0x8, addend: 0x0, symName: __ZNK8facebook5react16AttributedString12getFragmentsEv, symObjAddr: 0x420, symBinAddr: 0xE62C, symSize: 0x4 }
  - { offset: 0x8D2D1, size: 0x8, addend: 0x0, symName: __ZN8facebook5react16AttributedString12getFragmentsEv, symObjAddr: 0x424, symBinAddr: 0xE630, symSize: 0x4 }
  - { offset: 0x8D3A8, size: 0x8, addend: 0x0, symName: __ZNK8facebook5react16AttributedString9getStringEv, symObjAddr: 0x428, symBinAddr: 0xE634, symSize: 0x80 }
  - { offset: 0x8D622, size: 0x8, addend: 0x0, symName: __ZNK8facebook5react16AttributedString21getBaseTextAttributesEv, symObjAddr: 0x4A8, symBinAddr: 0xE6B4, symSize: 0x8 }
  - { offset: 0x8D661, size: 0x8, addend: 0x0, symName: __ZNK8facebook5react16AttributedString7isEmptyEv, symObjAddr: 0x4B0, symBinAddr: 0xE6BC, symSize: 0x10 }
  - { offset: 0x8D68C, size: 0x8, addend: 0x0, symName: __ZNK8facebook5react16AttributedString7isEmptyEv, symObjAddr: 0x4B0, symBinAddr: 0xE6BC, symSize: 0x10 }
  - { offset: 0x8D6C9, size: 0x8, addend: 0x0, symName: __ZNK8facebook5react16AttributedString33compareTextAttributesWithoutFrameERKS1_, symObjAddr: 0x4C0, symBinAddr: 0xE6CC, symSize: 0x114 }
  - { offset: 0x8D9C3, size: 0x8, addend: 0x0, symName: __ZNK8facebook5react16AttributedStringeqERKS1_, symObjAddr: 0x5D4, symBinAddr: 0xE7E0, symSize: 0x38 }
  - { offset: 0x8DA42, size: 0x8, addend: 0x0, symName: __ZNSt3__113__tuple_equalILm2EEclB8ne200100INS_5tupleIJRKNS_6vectorIN8facebook5react16AttributedString8FragmentENS_9allocatorIS8_EEEERKNS6_14TextAttributesEEEESH_EEbRKT_RKT0_, symObjAddr: 0x17C4, symBinAddr: 0xF580, symSize: 0x40 }
  - { offset: 0x8DB57, size: 0x8, addend: 0x0, symName: __ZNK8facebook5react16AttributedString14isContentEqualERKS1_, symObjAddr: 0x60C, symBinAddr: 0xE818, symSize: 0xD0 }
  - { offset: 0x8DB91, size: 0x8, addend: 0x0, symName: __ZNK8facebook5react16AttributedString14isContentEqualERKS1_, symObjAddr: 0x60C, symBinAddr: 0xE818, symSize: 0xD0 }
  - { offset: 0x8DF76, size: 0x8, addend: 0x0, symName: __ZNSt3__113__tuple_equalILm2EEclB8ne200100INS_5tupleIJRKNS_12basic_stringIcNS_11char_traitsIcEENS_9allocatorIcEEEERKN8facebook5react14TextAttributesERKiRKNSD_13LayoutMetricsEEEESM_EEbRKT_RKT0_, symObjAddr: 0x9E0, symBinAddr: 0xEA98, symSize: 0x40 }
  - { offset: 0x8E069, size: 0x8, addend: 0x0, symName: __ZNK8facebook5react13LayoutMetricseqERKS1_, symObjAddr: 0x890, symBinAddr: 0xE948, symSize: 0x150 }
  - { offset: 0x8E0A0, size: 0x8, addend: 0x0, symName: __ZNK8facebook5react13LayoutMetricseqERKS1_, symObjAddr: 0x890, symBinAddr: 0xE948, symSize: 0x150 }
  - { offset: 0x8E0C2, size: 0x8, addend: 0x0, symName: __ZNK8facebook5react13LayoutMetricseqERKS1_, symObjAddr: 0x890, symBinAddr: 0xE948, symSize: 0x150 }
  - { offset: 0x8E0D6, size: 0x8, addend: 0x0, symName: __ZNK8facebook5react13LayoutMetricseqERKS1_, symObjAddr: 0x890, symBinAddr: 0xE948, symSize: 0x150 }
  - { offset: 0x8E0EB, size: 0x8, addend: 0x0, symName: __ZNK8facebook5react13LayoutMetricseqERKS1_, symObjAddr: 0x890, symBinAddr: 0xE948, symSize: 0x150 }
  - { offset: 0x8E100, size: 0x8, addend: 0x0, symName: __ZNK8facebook5react13LayoutMetricseqERKS1_, symObjAddr: 0x890, symBinAddr: 0xE948, symSize: 0x150 }
  - { offset: 0x8E7AE, size: 0x8, addend: 0x0, symName: __ZNSt3__113__tuple_equalILm1EEclB8ne200100INS_5tupleIJRKNS_12basic_stringIcNS_11char_traitsIcEENS_9allocatorIcEEEERKN8facebook5react14TextAttributesERKiRKNSD_13LayoutMetricsEEEESM_EEbRKT_RKT0_, symObjAddr: 0xA20, symBinAddr: 0xEAD8, symSize: 0x74 }
  - { offset: 0x8E7F7, size: 0x8, addend: 0x0, symName: __ZNSt3__113__tuple_equalILm1EEclB8ne200100INS_5tupleIJRKNS_12basic_stringIcNS_11char_traitsIcEENS_9allocatorIcEEEERKN8facebook5react14TextAttributesERKiRKNSD_13LayoutMetricsEEEESM_EEbRKT_RKT0_, symObjAddr: 0xA20, symBinAddr: 0xEAD8, symSize: 0x74 }
  - { offset: 0x8E813, size: 0x8, addend: 0x0, symName: __ZNSt3__113__tuple_equalILm1EEclB8ne200100INS_5tupleIJRKNS_12basic_stringIcNS_11char_traitsIcEENS_9allocatorIcEEEERKN8facebook5react14TextAttributesERKiRKNSD_13LayoutMetricsEEEESM_EEbRKT_RKT0_, symObjAddr: 0xA20, symBinAddr: 0xEAD8, symSize: 0x74 }
  - { offset: 0x8F049, size: 0x8, addend: 0x0, symName: __ZNSt3__110shared_ptrIKN8facebook5react5StateEED2B8ne200100Ev, symObjAddr: 0xF48, symBinAddr: 0xEF38, symSize: 0x58 }
  - { offset: 0x8F418, size: 0x8, addend: 0x0, symName: __ZNSt3__110shared_ptrIvEaSB8ne200100EOS1_, symObjAddr: 0x15BC, symBinAddr: 0xF4A4, symSize: 0x64 }
  - { offset: 0x8F575, size: 0x8, addend: 0x0, symName: __ZN8facebook5react10ShadowViewaSEOS1_, symObjAddr: 0x1538, symBinAddr: 0xF420, symSize: 0x84 }
  - { offset: 0x8FB08, size: 0x8, addend: 0x0, symName: __ZNSt3__113__tuple_equalILm1EEclB8ne200100INS_5tupleIJRKNS_6vectorIN8facebook5react16AttributedString8FragmentENS_9allocatorIS8_EEEERKNS6_14TextAttributesEEEESH_EEbRKT_RKT0_, symObjAddr: 0x1804, symBinAddr: 0xF5C0, symSize: 0xAC }
  - { offset: 0x92A2C, size: 0x8, addend: 0x0, symName: __ZN8facebook5reacteqERKNS0_19AttributedStringBoxES3_, symObjAddr: 0x814, symBinAddr: 0xFDA8, symSize: 0x100 }
  - { offset: 0x92D92, size: 0x8, addend: 0x0, symName: __ZN8facebook5reactneERKNS0_19AttributedStringBoxES3_, symObjAddr: 0x914, symBinAddr: 0xFEA8, symSize: 0x18 }
  - { offset: 0x985CD, size: 0x8, addend: 0x0, symName: __ZNSt3__112construct_atB8ne200100IN8facebook5react16AttributedStringEJS3_EPS3_EEPT_S6_DpOT0_, symObjAddr: 0xE2C, symBinAddr: 0x10090, symSize: 0x104 }
  - { offset: 0x9860A, size: 0x8, addend: 0x0, symName: __ZNSt3__112construct_atB8ne200100IN8facebook5react16AttributedStringEJS3_EPS3_EEPT_S6_DpOT0_, symObjAddr: 0xE2C, symBinAddr: 0x10090, symSize: 0x104 }
  - { offset: 0x9862C, size: 0x8, addend: 0x0, symName: __ZNSt3__112construct_atB8ne200100IN8facebook5react16AttributedStringEJS3_EPS3_EEPT_S6_DpOT0_, symObjAddr: 0xE2C, symBinAddr: 0x10090, symSize: 0x104 }
  - { offset: 0x9864E, size: 0x8, addend: 0x0, symName: __ZNSt3__112construct_atB8ne200100IN8facebook5react16AttributedStringEJS3_EPS3_EEPT_S6_DpOT0_, symObjAddr: 0xE2C, symBinAddr: 0x10090, symSize: 0x104 }
  - { offset: 0x98670, size: 0x8, addend: 0x0, symName: __ZNSt3__112construct_atB8ne200100IN8facebook5react16AttributedStringEJS3_EPS3_EEPT_S6_DpOT0_, symObjAddr: 0xE2C, symBinAddr: 0x10090, symSize: 0x104 }
  - { offset: 0x98B4D, size: 0x8, addend: 0x0, symName: __ZNSt3__115allocate_sharedB8ne200100IKN8facebook5react16AttributedStringENS_9allocatorIS3_EEJRS4_ELi0EEENS_10shared_ptrIT_EERKT0_DpOT1_, symObjAddr: 0xF90, symBinAddr: 0x101F4, symSize: 0x58 }
  - { offset: 0x99393, size: 0x8, addend: 0x0, symName: __ZNSt3__112__destroy_atB8ne200100IN8facebook5react16AttributedStringELi0EEEvPT_, symObjAddr: 0xF30, symBinAddr: 0x10194, symSize: 0x60 }
  - { offset: 0x99A13, size: 0x8, addend: 0x0, symName: __ZNSt3__135__uninitialized_allocator_copy_implB8ne200100INS_9allocatorIN8facebook5react16AttributedString8FragmentEEEPS5_S7_S7_EET2_RT_T0_T1_S8_, symObjAddr: 0x1338, symBinAddr: 0x10540, symSize: 0x84 }
  - { offset: 0x99C66, size: 0x8, addend: 0x0, symName: __ZNSt3__135__uninitialized_allocator_copy_implB8ne200100INS_9allocatorIN8facebook5react16AttributedString8FragmentEEEPS5_S7_S7_EET2_RT_T0_T1_S8_, symObjAddr: 0x1338, symBinAddr: 0x10540, symSize: 0x84 }
  - { offset: 0x9B8C9, size: 0x8, addend: 0x0, symName: __ZN8facebook5react19AttributedStringBoxC2Ev, symObjAddr: 0x0, symBinAddr: 0xF66C, symSize: 0x1B8 }
  - { offset: 0x9C200, size: 0x8, addend: 0x0, symName: __ZN8facebook5react16AttributedStringC2Ev, symObjAddr: 0x92C, symBinAddr: 0xFEC0, symSize: 0x11C }
  - { offset: 0x9D62B, size: 0x8, addend: 0x0, symName: __ZNSt3__16vectorIN8facebook5react16AttributedString8FragmentENS_9allocatorIS4_EEE16__destroy_vectorclB8ne200100Ev, symObjAddr: 0xB9C, symBinAddr: 0xFFDC, symSize: 0x70 }
  - { offset: 0x9D766, size: 0x8, addend: 0x0, symName: __ZN8facebook5react16AttributedStringD1Ev, symObjAddr: 0x1B8, symBinAddr: 0xF824, symSize: 0x64 }
  - { offset: 0x9DBB0, size: 0x8, addend: 0x0, symName: __ZN8facebook5react19AttributedStringBoxC1Ev, symObjAddr: 0x21C, symBinAddr: 0xF888, symSize: 0x4 }
  - { offset: 0x9DBDE, size: 0x8, addend: 0x0, symName: __ZN8facebook5react19AttributedStringBoxC1Ev, symObjAddr: 0x21C, symBinAddr: 0xF888, symSize: 0x4 }
  - { offset: 0x9DBF1, size: 0x8, addend: 0x0, symName: __ZN8facebook5react19AttributedStringBoxC2ERKNS0_16AttributedStringE, symObjAddr: 0x220, symBinAddr: 0xF88C, symSize: 0x3C }
  - { offset: 0x9DCC9, size: 0x8, addend: 0x0, symName: __ZN8facebook5react19AttributedStringBoxC1ERKNS0_16AttributedStringE, symObjAddr: 0x25C, symBinAddr: 0xF8C8, symSize: 0x3C }
  - { offset: 0x9DE44, size: 0x8, addend: 0x0, symName: __ZN8facebook5react19AttributedStringBoxC2ENSt3__110shared_ptrIvEE, symObjAddr: 0x298, symBinAddr: 0xF904, symSize: 0x1C }
  - { offset: 0x9DF27, size: 0x8, addend: 0x0, symName: __ZN8facebook5react19AttributedStringBoxC1ENSt3__110shared_ptrIvEE, symObjAddr: 0x2B4, symBinAddr: 0xF920, symSize: 0x1C }
  - { offset: 0x9E09B, size: 0x8, addend: 0x0, symName: __ZN8facebook5react19AttributedStringBoxC2EOS1_, symObjAddr: 0x2D0, symBinAddr: 0xF93C, symSize: 0x218 }
  - { offset: 0x9EBE6, size: 0x8, addend: 0x0, symName: __ZN8facebook5react19AttributedStringBoxC1EOS1_, symObjAddr: 0x55C, symBinAddr: 0xFB54, symSize: 0x4 }
  - { offset: 0x9EC22, size: 0x8, addend: 0x0, symName: __ZN8facebook5react19AttributedStringBoxC1EOS1_, symObjAddr: 0x55C, symBinAddr: 0xFB54, symSize: 0x4 }
  - { offset: 0x9EC3C, size: 0x8, addend: 0x0, symName: __ZNK8facebook5react19AttributedStringBox7getModeEv, symObjAddr: 0x560, symBinAddr: 0xFB58, symSize: 0x8 }
  - { offset: 0x9EC7A, size: 0x8, addend: 0x0, symName: __ZNK8facebook5react19AttributedStringBox8getValueEv, symObjAddr: 0x568, symBinAddr: 0xFB60, symSize: 0x8 }
  - { offset: 0x9EC9E, size: 0x8, addend: 0x0, symName: __ZNK8facebook5react19AttributedStringBox8getValueEv, symObjAddr: 0x568, symBinAddr: 0xFB60, symSize: 0x8 }
  - { offset: 0x9ED34, size: 0x8, addend: 0x0, symName: __ZNK8facebook5react19AttributedStringBox16getOpaquePointerEv, symObjAddr: 0x570, symBinAddr: 0xFB68, symSize: 0x24 }
  - { offset: 0x9ED56, size: 0x8, addend: 0x0, symName: __ZNK8facebook5react19AttributedStringBox16getOpaquePointerEv, symObjAddr: 0x570, symBinAddr: 0xFB68, symSize: 0x24 }
  - { offset: 0x9ED7C, size: 0x8, addend: 0x0, symName: __ZNK8facebook5react19AttributedStringBox16getOpaquePointerEv, symObjAddr: 0x570, symBinAddr: 0xFB68, symSize: 0x24 }
  - { offset: 0x9EDFC, size: 0x8, addend: 0x0, symName: __ZN8facebook5react19AttributedStringBoxaSEOS1_, symObjAddr: 0x594, symBinAddr: 0xFB8C, symSize: 0x21C }
  - { offset: 0xA1288, size: 0x8, addend: 0x0, symName: __ZNSt3__120__shared_ptr_emplaceIKN8facebook5react16AttributedStringENS_9allocatorIS3_EEED1Ev, symObjAddr: 0xDE8, symBinAddr: 0x1004C, symSize: 0x14 }
  - { offset: 0xA12AA, size: 0x8, addend: 0x0, symName: __ZNSt3__120__shared_ptr_emplaceIKN8facebook5react16AttributedStringENS_9allocatorIS3_EEED1Ev, symObjAddr: 0xDE8, symBinAddr: 0x1004C, symSize: 0x14 }
  - { offset: 0xA12E0, size: 0x8, addend: 0x0, symName: __ZNSt3__120__shared_ptr_emplaceIKN8facebook5react16AttributedStringENS_9allocatorIS3_EEED0Ev, symObjAddr: 0xDFC, symBinAddr: 0x10060, symSize: 0x24 }
  - { offset: 0xA13AD, size: 0x8, addend: 0x0, symName: __ZNSt3__120__shared_ptr_emplaceIKN8facebook5react16AttributedStringENS_9allocatorIS3_EEE16__on_zero_sharedEv, symObjAddr: 0xE20, symBinAddr: 0x10084, symSize: 0x8 }
  - { offset: 0xA13D6, size: 0x8, addend: 0x0, symName: __ZNSt3__120__shared_ptr_emplaceIKN8facebook5react16AttributedStringENS_9allocatorIS3_EEE16__on_zero_sharedEv, symObjAddr: 0xE20, symBinAddr: 0x10084, symSize: 0x8 }
  - { offset: 0xA13F3, size: 0x8, addend: 0x0, symName: __ZNSt3__120__shared_ptr_emplaceIKN8facebook5react16AttributedStringENS_9allocatorIS3_EEE16__on_zero_sharedEv, symObjAddr: 0xE20, symBinAddr: 0x10084, symSize: 0x8 }
  - { offset: 0xA1490, size: 0x8, addend: 0x0, symName: __ZNSt3__120__shared_ptr_emplaceIKN8facebook5react16AttributedStringENS_9allocatorIS3_EEE21__on_zero_shared_weakEv, symObjAddr: 0xE28, symBinAddr: 0x1008C, symSize: 0x4 }
  - { offset: 0xA14C2, size: 0x8, addend: 0x0, symName: __ZNSt3__120__shared_ptr_emplaceIKN8facebook5react16AttributedStringENS_9allocatorIS3_EEE21__on_zero_shared_weakEv, symObjAddr: 0xE28, symBinAddr: 0x1008C, symSize: 0x4 }
  - { offset: 0xA14E3, size: 0x8, addend: 0x0, symName: __ZNSt3__120__shared_ptr_emplaceIKN8facebook5react16AttributedStringENS_9allocatorIS3_EEE21__on_zero_shared_weakEv, symObjAddr: 0xE28, symBinAddr: 0x1008C, symSize: 0x4 }
  - { offset: 0xA1505, size: 0x8, addend: 0x0, symName: __ZNSt3__120__shared_ptr_emplaceIKN8facebook5react16AttributedStringENS_9allocatorIS3_EEE21__on_zero_shared_weakEv, symObjAddr: 0xE28, symBinAddr: 0x1008C, symSize: 0x4 }
  - { offset: 0xA1538, size: 0x8, addend: 0x0, symName: __ZNSt3__120__shared_ptr_emplaceIKN8facebook5react16AttributedStringENS_9allocatorIS3_EEE21__on_zero_shared_weakEv, symObjAddr: 0xE28, symBinAddr: 0x1008C, symSize: 0x4 }
  - { offset: 0xA17AE, size: 0x8, addend: 0x0, symName: __ZNSt3__120__shared_ptr_emplaceIKN8facebook5react16AttributedStringENS_9allocatorIS3_EEEC2B8ne200100IJRS4_ES6_Li0EEES6_DpOT_, symObjAddr: 0xFE8, symBinAddr: 0x1024C, symSize: 0x4C }
  - { offset: 0xA1972, size: 0x8, addend: 0x0, symName: __ZN8facebook5react16AttributedStringC2ERKS1_, symObjAddr: 0x1034, symBinAddr: 0x10298, symSize: 0x1D8 }
  - { offset: 0xA22A0, size: 0x8, addend: 0x0, symName: __ZNSt3__16vectorIN8facebook5react16AttributedString8FragmentENS_9allocatorIS4_EEE16__init_with_sizeB8ne200100IPS4_S9_EEvT_T0_m, symObjAddr: 0x120C, symBinAddr: 0x10470, symSize: 0x84 }
  - { offset: 0xA261B, size: 0x8, addend: 0x0, symName: __ZN8facebook5react10ShadowViewC2ERKS1_, symObjAddr: 0x1614, symBinAddr: 0x1079C, symSize: 0xA4 }
  - { offset: 0xA27E4, size: 0x8, addend: 0x0, symName: __ZNSt3__16vectorIN8facebook5react16AttributedString8FragmentENS_9allocatorIS4_EEE11__vallocateB8ne200100Em, symObjAddr: 0x1290, symBinAddr: 0x104F4, symSize: 0x4C }
  - { offset: 0xA293E, size: 0x8, addend: 0x0, symName: __ZN8facebook5react16AttributedString8FragmentC2ERKS2_, symObjAddr: 0x13BC, symBinAddr: 0x105C4, symSize: 0x1D8 }
  - { offset: 0xA31FA, size: 0x8, addend: 0x0, symName: __ZN8facebook5react10ShadowViewC2ERKS1_, symObjAddr: 0x1614, symBinAddr: 0x1079C, symSize: 0xA4 }
  - { offset: 0xA842A, size: 0x8, addend: 0x0, symName: __ZN8facebook5react14convertRawPropIddEET_RKNS0_18PropsParserContextERKNS0_8RawPropsEPKcRKS2_RKT0_SA_SA_, symObjAddr: 0xDC8, symBinAddr: 0x11460, symSize: 0x1AC }
  - { offset: 0xA88D0, size: 0x8, addend: 0x0, symName: __ZN8facebook5react14convertRawPropINS0_24ScrollViewIndicatorStyleES2_EET_RKNS0_18PropsParserContextERKNS0_8RawPropsEPKcRKS3_RKT0_SB_SB_, symObjAddr: 0xF74, symBinAddr: 0x1160C, symSize: 0x1C4 }
  - { offset: 0xA8D6A, size: 0x8, addend: 0x0, symName: __ZN8facebook5react14convertRawPropINS0_29ScrollViewKeyboardDismissModeES2_EET_RKNS0_18PropsParserContextERKNS0_8RawPropsEPKcRKS3_RKT0_SB_SB_, symObjAddr: 0x1138, symBinAddr: 0x117D0, symSize: 0x1C4 }
  - { offset: 0xA9204, size: 0x8, addend: 0x0, symName: __ZN8facebook5react14convertRawPropINSt3__18optionalINS0_40ScrollViewMaintainVisibleContentPositionEEES5_EET_RKNS0_18PropsParserContextERKNS0_8RawPropsEPKcRKS6_RKT0_SE_SE_, symObjAddr: 0x12FC, symBinAddr: 0x11994, symSize: 0x1DC }
  - { offset: 0xA97B7, size: 0x8, addend: 0x0, symName: __ZN8facebook5react14convertRawPropINS0_14RectangleEdgesIdEES3_EET_RKNS0_18PropsParserContextERKNS0_8RawPropsEPKcRKS4_RKT0_SC_SC_, symObjAddr: 0x14D8, symBinAddr: 0x11B70, symSize: 0x1D4 }
  - { offset: 0xA9C90, size: 0x8, addend: 0x0, symName: __ZN8facebook5react14convertRawPropINS0_5PointES2_EET_RKNS0_18PropsParserContextERKNS0_8RawPropsEPKcRKS3_RKT0_SB_SB_, symObjAddr: 0x16AC, symBinAddr: 0x11D44, symSize: 0x1CC }
  - { offset: 0xAA169, size: 0x8, addend: 0x0, symName: __ZN8facebook5react14convertRawPropINS0_25ScrollViewSnapToAlignmentES2_EET_RKNS0_18PropsParserContextERKNS0_8RawPropsEPKcRKS3_RKT0_SB_SB_, symObjAddr: 0x1878, symBinAddr: 0x11F10, symSize: 0x1C4 }
  - { offset: 0xAA603, size: 0x8, addend: 0x0, symName: __ZN8facebook5react14convertRawPropINSt3__16vectorIdNS2_9allocatorIdEEEES6_EET_RKNS0_18PropsParserContextERKNS0_8RawPropsEPKcRKS7_RKT0_SF_SF_, symObjAddr: 0x1A3C, symBinAddr: 0x120D4, symSize: 0x218 }
  - { offset: 0xAAC9B, size: 0x8, addend: 0x0, symName: __ZN8facebook5react14convertRawPropINS0_30ContentInsetAdjustmentBehaviorES2_EET_RKNS0_18PropsParserContextERKNS0_8RawPropsEPKcRKS3_RKT0_SB_SB_, symObjAddr: 0x1C54, symBinAddr: 0x122EC, symSize: 0x1C4 }
  - { offset: 0xAB1A3, size: 0x8, addend: 0x0, symName: __ZN8facebook5react12fromRawValueERKNS0_18PropsParserContextERKNS0_8RawValueERNS0_24ScrollViewIndicatorStyleE, symObjAddr: 0x578C, symBinAddr: 0x14F58, symSize: 0x154 }
  - { offset: 0xAB5F1, size: 0x8, addend: 0x0, symName: __ZN8facebook5react12fromRawValueERKNS0_18PropsParserContextERKNS0_8RawValueERNS0_29ScrollViewKeyboardDismissModeE, symObjAddr: 0x5A60, symBinAddr: 0x150AC, symSize: 0x158 }
  - { offset: 0xABA0D, size: 0x8, addend: 0x0, symName: __ZN8facebook5react12fromRawValueERKNS0_18PropsParserContextERKNS0_8RawValueERNS0_40ScrollViewMaintainVisibleContentPositionE, symObjAddr: 0x5BB8, symBinAddr: 0x15204, symSize: 0x10C }
  - { offset: 0xABA59, size: 0x8, addend: 0x0, symName: __ZN8facebook5react12fromRawValueERKNS0_18PropsParserContextERKNS0_8RawValueERNS0_40ScrollViewMaintainVisibleContentPositionE, symObjAddr: 0x5BB8, symBinAddr: 0x15204, symSize: 0x10C }
  - { offset: 0xABFB9, size: 0x8, addend: 0x0, symName: __ZN8facebook5react12fromRawValueERKNS0_18PropsParserContextERKNS0_8RawValueERNS0_14RectangleEdgesIdEE, symObjAddr: 0x7C10, symBinAddr: 0x15310, symSize: 0x380 }
  - { offset: 0xAC9DB, size: 0x8, addend: 0x0, symName: __ZN8facebook5react12fromRawValueERKNS0_18PropsParserContextERKNS0_8RawValueERNS0_5PointE, symObjAddr: 0x9358, symBinAddr: 0x167EC, symSize: 0x1D4 }
  - { offset: 0xAD0AC, size: 0x8, addend: 0x0, symName: __ZN8facebook5react12fromRawValueERKNS0_18PropsParserContextERKNS0_8RawValueERNS0_25ScrollViewSnapToAlignmentE, symObjAddr: 0x952C, symBinAddr: 0x169C0, symSize: 0x154 }
  - { offset: 0xAD4F0, size: 0x8, addend: 0x0, symName: __ZN8facebook5react12fromRawValueIdEEvRKNS0_18PropsParserContextERKNS0_8RawValueERNSt3__16vectorIT_NS8_9allocatorISA_EEEE, symObjAddr: 0x9680, symBinAddr: 0x16B14, symSize: 0x104 }
  - { offset: 0xAD4FA, size: 0x8, addend: 0x0, symName: __ZN8facebook5react12fromRawValueIdEEvRKNS0_18PropsParserContextERKNS0_8RawValueERNSt3__16vectorIT_NS8_9allocatorISA_EEEE, symObjAddr: 0x9680, symBinAddr: 0x16B14, symSize: 0x104 }
  - { offset: 0xAD921, size: 0x8, addend: 0x0, symName: __ZN8facebook5react12fromRawValueERKNS0_18PropsParserContextERKNS0_8RawValueERNS0_30ContentInsetAdjustmentBehaviorE, symObjAddr: 0xA05C, symBinAddr: 0x16C18, symSize: 0x1F4 }
  - { offset: 0xADE66, size: 0x8, addend: 0x0, symName: __ZNSt3__16vectorIdNS_9allocatorIdEEE13__move_assignERS3_NS_17integral_constantIbLb1EEE, symObjAddr: 0xA250, symBinAddr: 0x16E0C, symSize: 0x50 }
  - { offset: 0xADE70, size: 0x8, addend: 0x0, symName: __ZN8facebook5react12fromRawValueINS0_5PointEEEvRKNS0_18PropsParserContextERKNS0_8RawValueERT_S9_, symObjAddr: 0x3610, symBinAddr: 0x13C50, symSize: 0x3C }
  - { offset: 0xADEDE, size: 0x8, addend: 0x0, symName: __ZN8facebook5react12fromRawValueINS0_5PointEEEvRKNS0_18PropsParserContextERKNS0_8RawValueERT_S9_, symObjAddr: 0x3610, symBinAddr: 0x13C50, symSize: 0x3C }
  - { offset: 0xADEF9, size: 0x8, addend: 0x0, symName: __ZN8facebook5react12fromRawValueINS0_5PointEEEvRKNS0_18PropsParserContextERKNS0_8RawValueERT_S9_, symObjAddr: 0x3610, symBinAddr: 0x13C50, symSize: 0x3C }
  - { offset: 0xADF15, size: 0x8, addend: 0x0, symName: __ZN8facebook5react12fromRawValueINS0_5PointEEEvRKNS0_18PropsParserContextERKNS0_8RawValueERT_S9_, symObjAddr: 0x3610, symBinAddr: 0x13C50, symSize: 0x3C }
  - { offset: 0xADF31, size: 0x8, addend: 0x0, symName: __ZN8facebook5react12fromRawValueINS0_5PointEEEvRKNS0_18PropsParserContextERKNS0_8RawValueERT_S9_, symObjAddr: 0x3610, symBinAddr: 0x13C50, symSize: 0x3C }
  - { offset: 0xAE037, size: 0x8, addend: 0x0, symName: __ZN8facebook5react12fromRawValueINS0_25ScrollViewSnapToAlignmentEEEvRKNS0_18PropsParserContextERKNS0_8RawValueERT_S9_, symObjAddr: 0x364C, symBinAddr: 0x13C8C, symSize: 0x3C }
  - { offset: 0xAE04A, size: 0x8, addend: 0x0, symName: __ZN8facebook5react12fromRawValueINS0_25ScrollViewSnapToAlignmentEEEvRKNS0_18PropsParserContextERKNS0_8RawValueERT_S9_, symObjAddr: 0x364C, symBinAddr: 0x13C8C, symSize: 0x3C }
  - { offset: 0xAE0B8, size: 0x8, addend: 0x0, symName: __ZN8facebook5react12fromRawValueINS0_25ScrollViewSnapToAlignmentEEEvRKNS0_18PropsParserContextERKNS0_8RawValueERT_S9_, symObjAddr: 0x364C, symBinAddr: 0x13C8C, symSize: 0x3C }
  - { offset: 0xAE0D3, size: 0x8, addend: 0x0, symName: __ZN8facebook5react12fromRawValueINS0_25ScrollViewSnapToAlignmentEEEvRKNS0_18PropsParserContextERKNS0_8RawValueERT_S9_, symObjAddr: 0x364C, symBinAddr: 0x13C8C, symSize: 0x3C }
  - { offset: 0xAE0EF, size: 0x8, addend: 0x0, symName: __ZN8facebook5react12fromRawValueINS0_25ScrollViewSnapToAlignmentEEEvRKNS0_18PropsParserContextERKNS0_8RawValueERT_S9_, symObjAddr: 0x364C, symBinAddr: 0x13C8C, symSize: 0x3C }
  - { offset: 0xAE10B, size: 0x8, addend: 0x0, symName: __ZN8facebook5react12fromRawValueINS0_25ScrollViewSnapToAlignmentEEEvRKNS0_18PropsParserContextERKNS0_8RawValueERT_S9_, symObjAddr: 0x364C, symBinAddr: 0x13C8C, symSize: 0x3C }
  - { offset: 0xAE211, size: 0x8, addend: 0x0, symName: __ZN8facebook5react12fromRawValueINSt3__16vectorIdNS2_9allocatorIdEEEEEEvRKNS0_18PropsParserContextERKNS0_8RawValueERT_SD_, symObjAddr: 0x3688, symBinAddr: 0x13CC8, symSize: 0x40 }
  - { offset: 0xAE224, size: 0x8, addend: 0x0, symName: __ZN8facebook5react12fromRawValueINS0_30ContentInsetAdjustmentBehaviorEEEvRKNS0_18PropsParserContextERKNS0_8RawValueERT_S9_, symObjAddr: 0x36C8, symBinAddr: 0x13D08, symSize: 0x3C }
  - { offset: 0xAE292, size: 0x8, addend: 0x0, symName: __ZN8facebook5react12fromRawValueINS0_30ContentInsetAdjustmentBehaviorEEEvRKNS0_18PropsParserContextERKNS0_8RawValueERT_S9_, symObjAddr: 0x36C8, symBinAddr: 0x13D08, symSize: 0x3C }
  - { offset: 0xAE2AD, size: 0x8, addend: 0x0, symName: __ZN8facebook5react12fromRawValueINS0_30ContentInsetAdjustmentBehaviorEEEvRKNS0_18PropsParserContextERKNS0_8RawValueERT_S9_, symObjAddr: 0x36C8, symBinAddr: 0x13D08, symSize: 0x3C }
  - { offset: 0xAE2C9, size: 0x8, addend: 0x0, symName: __ZN8facebook5react12fromRawValueINS0_30ContentInsetAdjustmentBehaviorEEEvRKNS0_18PropsParserContextERKNS0_8RawValueERT_S9_, symObjAddr: 0x36C8, symBinAddr: 0x13D08, symSize: 0x3C }
  - { offset: 0xAE2E5, size: 0x8, addend: 0x0, symName: __ZN8facebook5react12fromRawValueINS0_30ContentInsetAdjustmentBehaviorEEEvRKNS0_18PropsParserContextERKNS0_8RawValueERT_S9_, symObjAddr: 0x36C8, symBinAddr: 0x13D08, symSize: 0x3C }
  - { offset: 0xAE3EB, size: 0x8, addend: 0x0, symName: __ZN8facebook5react13BaseViewPropsD1Ev, symObjAddr: 0x3704, symBinAddr: 0x13D44, symSize: 0xC }
  - { offset: 0xAE3FE, size: 0x8, addend: 0x0, symName: __ZN8facebook5react12fromRawValueINS0_24ScrollViewIndicatorStyleEEEvRKNS0_18PropsParserContextERKNS0_8RawValueERT_S9_, symObjAddr: 0x34CC, symBinAddr: 0x13B0C, symSize: 0x3C }
  - { offset: 0xAE46C, size: 0x8, addend: 0x0, symName: __ZN8facebook5react12fromRawValueINS0_24ScrollViewIndicatorStyleEEEvRKNS0_18PropsParserContextERKNS0_8RawValueERT_S9_, symObjAddr: 0x34CC, symBinAddr: 0x13B0C, symSize: 0x3C }
  - { offset: 0xAE487, size: 0x8, addend: 0x0, symName: __ZN8facebook5react12fromRawValueINS0_24ScrollViewIndicatorStyleEEEvRKNS0_18PropsParserContextERKNS0_8RawValueERT_S9_, symObjAddr: 0x34CC, symBinAddr: 0x13B0C, symSize: 0x3C }
  - { offset: 0xAE4A3, size: 0x8, addend: 0x0, symName: __ZN8facebook5react12fromRawValueINS0_24ScrollViewIndicatorStyleEEEvRKNS0_18PropsParserContextERKNS0_8RawValueERT_S9_, symObjAddr: 0x34CC, symBinAddr: 0x13B0C, symSize: 0x3C }
  - { offset: 0xAE4BF, size: 0x8, addend: 0x0, symName: __ZN8facebook5react12fromRawValueINS0_24ScrollViewIndicatorStyleEEEvRKNS0_18PropsParserContextERKNS0_8RawValueERT_S9_, symObjAddr: 0x34CC, symBinAddr: 0x13B0C, symSize: 0x3C }
  - { offset: 0xAE5C5, size: 0x8, addend: 0x0, symName: __ZN8facebook5react12fromRawValueINS0_29ScrollViewKeyboardDismissModeEEEvRKNS0_18PropsParserContextERKNS0_8RawValueERT_S9_, symObjAddr: 0x3508, symBinAddr: 0x13B48, symSize: 0x3C }
  - { offset: 0xAE5D8, size: 0x8, addend: 0x0, symName: __ZN8facebook5react12fromRawValueINS0_14RectangleEdgesIdEEEEvRKNS0_18PropsParserContextERKNS0_8RawValueERT_SA_, symObjAddr: 0x35D0, symBinAddr: 0x13C10, symSize: 0x40 }
  - { offset: 0xAE646, size: 0x8, addend: 0x0, symName: __ZN8facebook5react12fromRawValueINS0_14RectangleEdgesIdEEEEvRKNS0_18PropsParserContextERKNS0_8RawValueERT_SA_, symObjAddr: 0x35D0, symBinAddr: 0x13C10, symSize: 0x40 }
  - { offset: 0xAE661, size: 0x8, addend: 0x0, symName: __ZN8facebook5react12fromRawValueINS0_14RectangleEdgesIdEEEEvRKNS0_18PropsParserContextERKNS0_8RawValueERT_SA_, symObjAddr: 0x35D0, symBinAddr: 0x13C10, symSize: 0x40 }
  - { offset: 0xAE67D, size: 0x8, addend: 0x0, symName: __ZN8facebook5react12fromRawValueINS0_14RectangleEdgesIdEEEEvRKNS0_18PropsParserContextERKNS0_8RawValueERT_SA_, symObjAddr: 0x35D0, symBinAddr: 0x13C10, symSize: 0x40 }
  - { offset: 0xAE699, size: 0x8, addend: 0x0, symName: __ZN8facebook5react12fromRawValueINS0_14RectangleEdgesIdEEEEvRKNS0_18PropsParserContextERKNS0_8RawValueERT_SA_, symObjAddr: 0x35D0, symBinAddr: 0x13C10, symSize: 0x40 }
  - { offset: 0xAE79F, size: 0x8, addend: 0x0, symName: __ZN8facebook5react12fromRawValueINS0_5PointEEEvRKNS0_18PropsParserContextERKNS0_8RawValueERT_S9_, symObjAddr: 0x3610, symBinAddr: 0x13C50, symSize: 0x3C }
  - { offset: 0xAE7B2, size: 0x8, addend: 0x0, symName: __ZN8facebook5react12fromRawValueINSt3__18optionalINS0_40ScrollViewMaintainVisibleContentPositionEEEEEvRKNS0_18PropsParserContextERKNS0_8RawValueERT_SC_, symObjAddr: 0x3544, symBinAddr: 0x13B84, symSize: 0x8C }
  - { offset: 0xAEAA0, size: 0x8, addend: 0x0, symName: __ZN8facebook5react12fromRawValueINS0_14RectangleEdgesIdEEEEvRKNS0_18PropsParserContextERKNS0_8RawValueERT_SA_, symObjAddr: 0x35D0, symBinAddr: 0x13C10, symSize: 0x40 }
  - { offset: 0xAEAB3, size: 0x8, addend: 0x0, symName: __ZN8facebook5react12fromRawValueINS0_29ScrollViewKeyboardDismissModeEEEvRKNS0_18PropsParserContextERKNS0_8RawValueERT_S9_, symObjAddr: 0x3508, symBinAddr: 0x13B48, symSize: 0x3C }
  - { offset: 0xAEB21, size: 0x8, addend: 0x0, symName: __ZN8facebook5react12fromRawValueINS0_29ScrollViewKeyboardDismissModeEEEvRKNS0_18PropsParserContextERKNS0_8RawValueERT_S9_, symObjAddr: 0x3508, symBinAddr: 0x13B48, symSize: 0x3C }
  - { offset: 0xAEB3C, size: 0x8, addend: 0x0, symName: __ZN8facebook5react12fromRawValueINS0_29ScrollViewKeyboardDismissModeEEEvRKNS0_18PropsParserContextERKNS0_8RawValueERT_S9_, symObjAddr: 0x3508, symBinAddr: 0x13B48, symSize: 0x3C }
  - { offset: 0xAEB58, size: 0x8, addend: 0x0, symName: __ZN8facebook5react12fromRawValueINS0_29ScrollViewKeyboardDismissModeEEEvRKNS0_18PropsParserContextERKNS0_8RawValueERT_S9_, symObjAddr: 0x3508, symBinAddr: 0x13B48, symSize: 0x3C }
  - { offset: 0xAEB74, size: 0x8, addend: 0x0, symName: __ZN8facebook5react12fromRawValueINS0_29ScrollViewKeyboardDismissModeEEEvRKNS0_18PropsParserContextERKNS0_8RawValueERT_S9_, symObjAddr: 0x3508, symBinAddr: 0x13B48, symSize: 0x3C }
  - { offset: 0xAEC7A, size: 0x8, addend: 0x0, symName: __ZN8facebook5react12fromRawValueINSt3__18optionalINS0_40ScrollViewMaintainVisibleContentPositionEEEEEvRKNS0_18PropsParserContextERKNS0_8RawValueERT_SC_, symObjAddr: 0x3544, symBinAddr: 0x13B84, symSize: 0x8C }
  - { offset: 0xAEC8D, size: 0x8, addend: 0x0, symName: __ZN8facebook5react12fromRawValueIdEEvRKNS0_18PropsParserContextERKNS0_8RawValueERT_S8_, symObjAddr: 0x3478, symBinAddr: 0x13AB8, symSize: 0x54 }
  - { offset: 0xAEE77, size: 0x8, addend: 0x0, symName: __ZN8facebook5react12fromRawValueINS0_24ScrollViewIndicatorStyleEEEvRKNS0_18PropsParserContextERKNS0_8RawValueERT_S9_, symObjAddr: 0x34CC, symBinAddr: 0x13B0C, symSize: 0x3C }
  - { offset: 0xAEFAD, size: 0x8, addend: 0x0, symName: __ZN8facebook5react12fromRawValueIdEEvRKNS0_18PropsParserContextERKNS0_8RawValueERT_S8_, symObjAddr: 0x3478, symBinAddr: 0x13AB8, symSize: 0x54 }
  - { offset: 0xAEFC0, size: 0x8, addend: 0x0, symName: __ZN8facebook5react12fromRawValueINSt3__16vectorIdNS2_9allocatorIdEEEEEEvRKNS0_18PropsParserContextERKNS0_8RawValueERT_SD_, symObjAddr: 0x3688, symBinAddr: 0x13CC8, symSize: 0x40 }
  - { offset: 0xAF02E, size: 0x8, addend: 0x0, symName: __ZN8facebook5react12fromRawValueINSt3__16vectorIdNS2_9allocatorIdEEEEEEvRKNS0_18PropsParserContextERKNS0_8RawValueERT_SD_, symObjAddr: 0x3688, symBinAddr: 0x13CC8, symSize: 0x40 }
  - { offset: 0xAF049, size: 0x8, addend: 0x0, symName: __ZN8facebook5react12fromRawValueINSt3__16vectorIdNS2_9allocatorIdEEEEEEvRKNS0_18PropsParserContextERKNS0_8RawValueERT_SD_, symObjAddr: 0x3688, symBinAddr: 0x13CC8, symSize: 0x40 }
  - { offset: 0xAF065, size: 0x8, addend: 0x0, symName: __ZN8facebook5react12fromRawValueINSt3__16vectorIdNS2_9allocatorIdEEEEEEvRKNS0_18PropsParserContextERKNS0_8RawValueERT_SD_, symObjAddr: 0x3688, symBinAddr: 0x13CC8, symSize: 0x40 }
  - { offset: 0xAF081, size: 0x8, addend: 0x0, symName: __ZN8facebook5react12fromRawValueINSt3__16vectorIdNS2_9allocatorIdEEEEEEvRKNS0_18PropsParserContextERKNS0_8RawValueERT_SD_, symObjAddr: 0x3688, symBinAddr: 0x13CC8, symSize: 0x40 }
  - { offset: 0xAF1B7, size: 0x8, addend: 0x0, symName: __ZN8facebook5react12fromRawValueINS0_30ContentInsetAdjustmentBehaviorEEEvRKNS0_18PropsParserContextERKNS0_8RawValueERT_S9_, symObjAddr: 0x36C8, symBinAddr: 0x13D08, symSize: 0x3C }
  - { offset: 0xCD7DB, size: 0x8, addend: 0x0, symName: __ZNSt3__119__allocate_at_leastB8ne200100INS_9allocatorIdEEEENS_19__allocation_resultINS_16allocator_traitsIT_E7pointerEEERS5_m, symObjAddr: 0x3980, symBinAddr: 0x13FAC, symSize: 0x34 }
  - { offset: 0xD35AB, size: 0x8, addend: 0x0, symName: __ZN5folly6detail9convertToIdxEENSt3__19enable_ifIXooaa13is_integral_vIT0_Esr3std17is_floating_pointIT_EE5valueaasr3std17is_floating_pointIS4_EE5value13is_integral_vIS5_EENS_8ExpectedIS5_NS_14ConversionCodeEEEE4typeERKS4_, symObjAddr: 0x4B88, symBinAddr: 0x14904, symSize: 0xDC }
  - { offset: 0xD6153, size: 0x8, addend: 0x0, symName: __ZN5folly2toIdxEENSt3__19enable_ifIXsr6detail14IsArithToArithIT_T0_EE5valueES3_E4typeERKS4_, symObjAddr: 0x4B40, symBinAddr: 0x148BC, symSize: 0x48 }
  - { offset: 0xD63AC, size: 0x8, addend: 0x0, symName: __ZN5folly2toINSt3__112basic_stringIcNS1_11char_traitsIcEENS1_9allocatorIcEEEEJA2_cPKcA3_cxELi0EEET_DpRKT0_, symObjAddr: 0x4E94, symBinAddr: 0x14AF4, symSize: 0x54 }
  - { offset: 0xD65B4, size: 0x8, addend: 0x0, symName: __ZN5folly11toAppendFitIJA2_cPKcA3_cxPNSt3__112basic_stringIcNS5_11char_traitsIcEENS5_9allocatorIcEEEEELi0EEEvDpRKT_, symObjAddr: 0x4EE8, symBinAddr: 0x14B48, symSize: 0x64 }
  - { offset: 0xD68D3, size: 0x8, addend: 0x0, symName: __ZN5folly8toAppendINSt3__112basic_stringIcNS1_11char_traitsIcEENS1_9allocatorIcEEEExEENS1_9enable_ifIXaaaaaa13is_integral_vIT0_E11is_signed_vIS9_Esr12IsSomeStringIT_EE5valuegestS9_Li4EEvE4typeES9_PSA_, symObjAddr: 0x50D4, symBinAddr: 0x14CFC, symSize: 0x84 }
  - { offset: 0xD94FA, size: 0x8, addend: 0x0, symName: __ZN8facebook5react19BaseScrollViewProps7setPropERKNS0_18PropsParserContextEjPKcRKNS0_8RawValueE, symObjAddr: 0x2B20, symBinAddr: 0x131B8, symSize: 0x7D8 }
  - { offset: 0xD9522, size: 0x8, addend: 0x0, symName: __ZZN8facebook5react19BaseScrollViewProps7setPropERKNS0_18PropsParserContextEjPKcRKNS0_8RawValueEE8defaults, symObjAddr: 0x18CA88, symBinAddr: 0xD47E8, symSize: 0x0 }
  - { offset: 0xD98FF, size: 0x8, addend: 0x0, symName: __ZN5folly6detail18pretty_name_zarrayIdNS0_14pretty_tag_gccEE6zarrayE, symObjAddr: 0xBC4B, symBinAddr: 0xA7DBB, symSize: 0x0 }
  - { offset: 0xDAAB0, size: 0x8, addend: 0x0, symName: __ZN8facebook5react19BaseScrollViewPropsC2ERKNS0_18PropsParserContextERKS1_RKNS0_8RawPropsE, symObjAddr: 0x0, symBinAddr: 0x10840, symSize: 0xC20 }
  - { offset: 0xDB891, size: 0x8, addend: 0x0, symName: __ZNSt3__16vectorIdNS_9allocatorIdEEE16__init_with_sizeB8ne200100IPdS5_EEvT_T0_m, symObjAddr: 0x38BC, symBinAddr: 0x13EFC, symSize: 0x78 }
  - { offset: 0xDBC42, size: 0x8, addend: 0x0, symName: __ZN8facebook5react13BaseViewPropsD2Ev, symObjAddr: 0x1E18, symBinAddr: 0x124B0, symSize: 0xD0 }
  - { offset: 0xDC722, size: 0x8, addend: 0x0, symName: __ZNK8facebook5react8RawValuecvT_IdEEv, symObjAddr: 0x49CC, symBinAddr: 0x14748, symSize: 0x28 }
  - { offset: 0xDC74B, size: 0x8, addend: 0x0, symName: __ZNK8facebook5react8RawValuecvT_IdEEv, symObjAddr: 0x49CC, symBinAddr: 0x14748, symSize: 0x28 }
  - { offset: 0xDC766, size: 0x8, addend: 0x0, symName: __ZNK8facebook5react8RawValuecvT_IdEEv, symObjAddr: 0x49CC, symBinAddr: 0x14748, symSize: 0x28 }
  - { offset: 0xDC782, size: 0x8, addend: 0x0, symName: __ZNK8facebook5react8RawValuecvT_IdEEv, symObjAddr: 0x49CC, symBinAddr: 0x14748, symSize: 0x28 }
  - { offset: 0xDC79E, size: 0x8, addend: 0x0, symName: __ZNK8facebook5react8RawValuecvT_IdEEv, symObjAddr: 0x49CC, symBinAddr: 0x14748, symSize: 0x28 }
  - { offset: 0xDC8DE, size: 0x8, addend: 0x0, symName: __ZNK5folly7dynamic6asImplIdEET_v, symObjAddr: 0x49F4, symBinAddr: 0x14770, symSize: 0x14C }
  - { offset: 0xDCAD3, size: 0x8, addend: 0x0, symName: __ZN8facebook5react14convertRawPropINSt3__16vectorIdNS2_9allocatorIdEEEES6_EET_RKNS0_18PropsParserContextERKNS0_8RawPropsEPKcRKS7_RKT0_SF_SF_.cold.1, symObjAddr: 0xA2A0, symBinAddr: 0xA631C, symSize: 0x50 }
  - { offset: 0xDD050, size: 0x8, addend: 0x0, symName: __ZNSt3__16vectorINS_7variantIJN8facebook5react14LinearGradientENS3_14RadialGradientEEEENS_9allocatorIS6_EEE16__destroy_vectorclB8ne200100Ev, symObjAddr: 0x3B34, symBinAddr: 0x13FE0, symSize: 0x70 }
  - { offset: 0xDD2E6, size: 0x8, addend: 0x0, symName: __ZNSt3__16vectorIN8facebook5react14FilterFunctionENS_9allocatorIS3_EEE16__destroy_vectorclB8ne200100Ev, symObjAddr: 0x3CB8, symBinAddr: 0x14164, symSize: 0x74 }
  - { offset: 0xDD5CB, size: 0x8, addend: 0x0, symName: __ZNSt3__16vectorIN8facebook5react9BoxShadowENS_9allocatorIS3_EEE16__destroy_vectorclB8ne200100Ev, symObjAddr: 0x3D8C, symBinAddr: 0x14238, symSize: 0x74 }
  - { offset: 0xDD843, size: 0x8, addend: 0x0, symName: __ZN8facebook5react22CascadedRectangleEdgesINS0_11SharedColorEED2Ev, symObjAddr: 0x3E58, symBinAddr: 0x142AC, symSize: 0x110 }
  - { offset: 0xDED65, size: 0x8, addend: 0x0, symName: __ZNKSt3__114default_deleteIN8facebook4yoga16SmallValueBufferILm4EE8OverflowEEclB8ne200100EPS5_, symObjAddr: 0x40B4, symBinAddr: 0x143BC, symSize: 0x44 }
  - { offset: 0xDEFC1, size: 0x8, addend: 0x0, symName: __ZN8facebook5react19BaseScrollViewPropsC1ERKNS0_18PropsParserContextERKS1_RKNS0_8RawPropsE, symObjAddr: 0x1EE8, symBinAddr: 0x12580, symSize: 0xC38 }
  - { offset: 0xDFD94, size: 0x8, addend: 0x0, symName: __ZN8facebook5react19BaseScrollViewPropsC1Ev, symObjAddr: 0x32F8, symBinAddr: 0x13990, symSize: 0xDC }
  - { offset: 0xDFF0F, size: 0x8, addend: 0x0, symName: __ZN8facebook5react13BaseViewPropsC2Ev, symObjAddr: 0x40F8, symBinAddr: 0x14400, symSize: 0x258 }
  - { offset: 0xE2252, size: 0x8, addend: 0x0, symName: __ZN8facebook5react19BaseScrollViewPropsD1Ev, symObjAddr: 0x33D4, symBinAddr: 0x13A6C, symSize: 0x4C }
  - { offset: 0xE24F2, size: 0x8, addend: 0x0, symName: __ZNSt3__16vectorIdNS_9allocatorIdEEE13__move_assignERS3_NS_17integral_constantIbLb1EEE, symObjAddr: 0xA250, symBinAddr: 0x16E0C, symSize: 0x50 }
  - { offset: 0xE2618, size: 0x8, addend: 0x0, symName: __ZN8facebook5react13BaseViewPropsD1Ev, symObjAddr: 0x3704, symBinAddr: 0x13D44, symSize: 0xC }
  - { offset: 0xE2670, size: 0x8, addend: 0x0, symName: __ZN8facebook5react13BaseViewPropsD0Ev, symObjAddr: 0x3710, symBinAddr: 0x13D50, symSize: 0x1C }
  - { offset: 0xE26CC, size: 0x8, addend: 0x0, symName: __ZN8facebook5react17YogaStylablePropsD1Ev, symObjAddr: 0x372C, symBinAddr: 0x13D6C, symSize: 0x60 }
  - { offset: 0xE2973, size: 0x8, addend: 0x0, symName: __ZN8facebook5react17YogaStylablePropsD0Ev, symObjAddr: 0x378C, symBinAddr: 0x13DCC, symSize: 0x60 }
  - { offset: 0xE2C25, size: 0x8, addend: 0x0, symName: __ZN8facebook5react5PropsD1Ev, symObjAddr: 0x37EC, symBinAddr: 0x13E2C, symSize: 0x40 }
  - { offset: 0xE2D82, size: 0x8, addend: 0x0, symName: __ZN8facebook5react5PropsD0Ev, symObjAddr: 0x382C, symBinAddr: 0x13E6C, symSize: 0x40 }
  - { offset: 0xE2F06, size: 0x8, addend: 0x0, symName: __ZN8facebook5react19BaseScrollViewPropsD0Ev, symObjAddr: 0x386C, symBinAddr: 0x13EAC, symSize: 0x50 }
  - { offset: 0xE327A, size: 0x8, addend: 0x0, symName: __ZNSt3__16vectorIdNS_9allocatorIdEEE11__vallocateB8ne200100Em, symObjAddr: 0x3934, symBinAddr: 0x13F74, symSize: 0x38 }
  - { offset: 0xE32E4, size: 0x8, addend: 0x0, symName: __ZNSt3__119__allocate_at_leastB8ne200100INS_9allocatorIdEEEENS_19__allocation_resultINS_16allocator_traitsIT_E7pointerEEERS5_m, symObjAddr: 0x3980, symBinAddr: 0x13FAC, symSize: 0x34 }
  - { offset: 0xE39BC, size: 0x8, addend: 0x0, symName: __ZNSt3__116__variant_detail6__dtorINS0_8__traitsIJN8facebook5react14LinearGradientENS4_14RadialGradientEEEELNS0_6_TraitE1EE9__destroyB8ne200100Ev, symObjAddr: 0x3BA4, symBinAddr: 0x14050, symSize: 0x54 }
  - { offset: 0xE3D6A, size: 0x8, addend: 0x0, symName: __ZNSt3__116__variant_detail12__visitation6__base12__dispatcherIJLm0EEE10__dispatchB8ne200100IOZNS0_6__dtorINS0_8__traitsIJN8facebook5react14LinearGradientENS9_14RadialGradientEEEELNS0_6_TraitE1EE9__destroyB8ne200100EvEUlRT_E_JRNS0_6__baseILSD_1EJSA_SB_EEEEEEDcSF_DpT0_, symObjAddr: 0x3BF8, symBinAddr: 0x140A4, symSize: 0x28 }
  - { offset: 0xE3EF7, size: 0x8, addend: 0x0, symName: __ZNSt3__16vectorIN8facebook5react9ColorStopENS_9allocatorIS3_EEE16__destroy_vectorclB8ne200100Ev, symObjAddr: 0x3C48, symBinAddr: 0x140F4, symSize: 0x70 }
  - { offset: 0xE41CC, size: 0x8, addend: 0x0, symName: __ZNSt3__116__variant_detail12__visitation6__base12__dispatcherIJLm1EEE10__dispatchB8ne200100IOZNS0_6__dtorINS0_8__traitsIJN8facebook5react14LinearGradientENS9_14RadialGradientEEEELNS0_6_TraitE1EE9__destroyB8ne200100EvEUlRT_E_JRNS0_6__baseILSD_1EJSA_SB_EEEEEEDcSF_DpT0_, symObjAddr: 0x3C20, symBinAddr: 0x140CC, symSize: 0x28 }
  - { offset: 0xE474B, size: 0x8, addend: 0x0, symName: __ZNSt3__116__variant_detail6__dtorINS0_8__traitsIJdN8facebook5react16DropShadowParamsEEEELNS0_6_TraitE1EE9__destroyB8ne200100Ev, symObjAddr: 0x3D2C, symBinAddr: 0x141D8, symSize: 0x54 }
  - { offset: 0xE4980, size: 0x8, addend: 0x0, symName: __ZNSt3__116__variant_detail12__visitation6__base12__dispatcherIJLm0EEE10__dispatchB8ne200100IOZNS0_6__dtorINS0_8__traitsIJdN8facebook5react16DropShadowParamsEEEELNS0_6_TraitE1EE9__destroyB8ne200100EvEUlRT_E_JRNS0_6__baseILSC_1EJdSA_EEEEEEDcSE_DpT0_, symObjAddr: 0x3D80, symBinAddr: 0x1422C, symSize: 0x4 }
  - { offset: 0xE4A99, size: 0x8, addend: 0x0, symName: __ZNSt3__116__variant_detail12__visitation6__base12__dispatcherIJLm1EEE10__dispatchB8ne200100IOZNS0_6__dtorINS0_8__traitsIJdN8facebook5react16DropShadowParamsEEEELNS0_6_TraitE1EE9__destroyB8ne200100EvEUlRT_E_JRNS0_6__baseILSC_1EJdSA_EEEEEEDcSE_DpT0_, symObjAddr: 0x3D84, symBinAddr: 0x14230, symSize: 0x8 }
  - { offset: 0xE4ACF, size: 0x8, addend: 0x0, symName: __ZNSt3__116__variant_detail12__visitation6__base12__dispatcherIJLm1EEE10__dispatchB8ne200100IOZNS0_6__dtorINS0_8__traitsIJdN8facebook5react16DropShadowParamsEEEELNS0_6_TraitE1EE9__destroyB8ne200100EvEUlRT_E_JRNS0_6__baseILSC_1EJdSA_EEEEEEDcSE_DpT0_, symObjAddr: 0x3D84, symBinAddr: 0x14230, symSize: 0x8 }
  - { offset: 0xE4AF4, size: 0x8, addend: 0x0, symName: __ZNSt3__116__variant_detail12__visitation6__base12__dispatcherIJLm1EEE10__dispatchB8ne200100IOZNS0_6__dtorINS0_8__traitsIJdN8facebook5react16DropShadowParamsEEEELNS0_6_TraitE1EE9__destroyB8ne200100EvEUlRT_E_JRNS0_6__baseILSC_1EJdSA_EEEEEEDcSE_DpT0_, symObjAddr: 0x3D84, symBinAddr: 0x14230, symSize: 0x8 }
  - { offset: 0xE4B18, size: 0x8, addend: 0x0, symName: __ZNSt3__116__variant_detail12__visitation6__base12__dispatcherIJLm1EEE10__dispatchB8ne200100IOZNS0_6__dtorINS0_8__traitsIJdN8facebook5react16DropShadowParamsEEEELNS0_6_TraitE1EE9__destroyB8ne200100EvEUlRT_E_JRNS0_6__baseILSC_1EJdSA_EEEEEEDcSE_DpT0_, symObjAddr: 0x3D84, symBinAddr: 0x14230, symSize: 0x8 }
  - { offset: 0xE4B34, size: 0x8, addend: 0x0, symName: __ZNSt3__116__variant_detail12__visitation6__base12__dispatcherIJLm1EEE10__dispatchB8ne200100IOZNS0_6__dtorINS0_8__traitsIJdN8facebook5react16DropShadowParamsEEEELNS0_6_TraitE1EE9__destroyB8ne200100EvEUlRT_E_JRNS0_6__baseILSC_1EJdSA_EEEEEEDcSE_DpT0_, symObjAddr: 0x3D84, symBinAddr: 0x14230, symSize: 0x8 }
  - { offset: 0xE4B50, size: 0x8, addend: 0x0, symName: __ZNSt3__116__variant_detail12__visitation6__base12__dispatcherIJLm1EEE10__dispatchB8ne200100IOZNS0_6__dtorINS0_8__traitsIJdN8facebook5react16DropShadowParamsEEEELNS0_6_TraitE1EE9__destroyB8ne200100EvEUlRT_E_JRNS0_6__baseILSC_1EJdSA_EEEEEEDcSE_DpT0_, symObjAddr: 0x3D84, symBinAddr: 0x14230, symSize: 0x8 }
  - { offset: 0xE4B6C, size: 0x8, addend: 0x0, symName: __ZNSt3__116__variant_detail12__visitation6__base12__dispatcherIJLm1EEE10__dispatchB8ne200100IOZNS0_6__dtorINS0_8__traitsIJdN8facebook5react16DropShadowParamsEEEELNS0_6_TraitE1EE9__destroyB8ne200100EvEUlRT_E_JRNS0_6__baseILSC_1EJdSA_EEEEEEDcSE_DpT0_, symObjAddr: 0x3D84, symBinAddr: 0x14230, symSize: 0x8 }
  - { offset: 0xE5B5C, size: 0x8, addend: 0x0, symName: __ZN8facebook5react17YogaStylablePropsC2Ev, symObjAddr: 0x4350, symBinAddr: 0x14658, symSize: 0xF0 }
  - { offset: 0xE5B93, size: 0x8, addend: 0x0, symName: __ZN8facebook5react17YogaStylablePropsC2Ev, symObjAddr: 0x4350, symBinAddr: 0x14658, symSize: 0xF0 }
  - { offset: 0xE706B, size: 0x8, addend: 0x0, symName: __ZNK8facebook5react8RawValuecvT_IdEEv, symObjAddr: 0x49CC, symBinAddr: 0x14748, symSize: 0x28 }
  - { offset: 0xE7150, size: 0x8, addend: 0x0, symName: __ZNK5folly7dynamic6asImplIdEET_v, symObjAddr: 0x49F4, symBinAddr: 0x14770, symSize: 0x14C }
  - { offset: 0xE7550, size: 0x8, addend: 0x0, symName: __ZN5folly2toIdxEENSt3__19enable_ifIXsr6detail14IsArithToArithIT_T0_EE5valueES3_E4typeERKS4_, symObjAddr: 0x4B40, symBinAddr: 0x148BC, symSize: 0x48 }
  - { offset: 0xE79C1, size: 0x8, addend: 0x0, symName: __ZN5folly15expected_detail30expected_detail_ExpectedHelper14ExpectedHelper12thenOrThrow_INS0_15ExpectedStorageIdNS_14ConversionCodeELNS0_11StorageTypeE0EEERKNS_11identity_fnEZNS_2toIdbEENSt3__19enable_ifIXsr6detail14IsArithToArithIT_T0_EE5valueESE_E4typeERKSF_EUlS5_E_OdNS_15ConversionErrorELb0ELi0EEET2_OSE_OSF_OT1_, symObjAddr: 0x5210, symBinAddr: 0x14D80, symSize: 0x60 }
  - { offset: 0xE7AE9, size: 0x8, addend: 0x0, symName: __ZN5folly15expected_detail30expected_detail_ExpectedHelper14ExpectedHelper12thenOrThrow_IRNS0_15ExpectedStorageINS_5RangeIPKcEENS_14ConversionCodeELNS0_11StorageTypeE1EEENS_6detail18CheckTrailingSpaceEZNS_2toIdEENSt3__19enable_ifIXntsr3std7is_sameIS8_T_EE5valueESI_E4typeES8_EUlS9_E_NS_8ExpectedINS_4UnitES9_EEvLb0ELi0EEET2_OSI_OT0_OT1_, symObjAddr: 0x5568, symBinAddr: 0x14E94, symSize: 0x2C }
  - { offset: 0xE7B81, size: 0x8, addend: 0x0, symName: __ZNK5folly7dynamic6asImplIdEET_v.cold.1, symObjAddr: 0xA30C, symBinAddr: 0xA636C, symSize: 0x24 }
  - { offset: 0xE7C55, size: 0x8, addend: 0x0, symName: __ZN5folly15expected_detail30expected_detail_ExpectedHelper14ExpectedHelper12thenOrThrow_INS0_15ExpectedStorageIdNS_14ConversionCodeELNS0_11StorageTypeE0EEERKNS_11identity_fnEZNS_2toIdxEENSt3__19enable_ifIXsr6detail14IsArithToArithIT_T0_EE5valueESE_E4typeERKSF_EUlS5_E_OdNS_15ConversionErrorELb0ELi0EEET2_OSE_OSF_OT1_, symObjAddr: 0x4C64, symBinAddr: 0x149E0, symSize: 0x60 }
  - { offset: 0xE7E1D, size: 0x8, addend: 0x0, symName: __ZZN5folly2toIdxEENSt3__19enable_ifIXsr6detail14IsArithToArithIT_T0_EE5valueES3_E4typeERKS4_ENKUlNS_14ConversionCodeEE_clES9_, symObjAddr: 0x4D90, symBinAddr: 0x14A40, symSize: 0xB4 }
  - { offset: 0xE83B9, size: 0x8, addend: 0x0, symName: __ZN5folly6detail25EstimateSpaceToReserveAllINSt3__116integer_sequenceImJLm0ELm1ELm2ELm3ELm4EEEEE4callIJA2_cPKcA3_cxPNS2_12basic_stringIcNS2_11char_traitsIcEENS2_9allocatorIcEEEEEEEmDpRKT_, symObjAddr: 0x4F4C, symBinAddr: 0x14BAC, symSize: 0xD4 }
  - { offset: 0xE859C, size: 0x8, addend: 0x0, symName: __ZN5folly6detail18ToAppendStrImplAllINSt3__116integer_sequenceImJLm0ELm1ELm2ELm3ELm4EEEEE4callIJA2_cPKcA3_cxPNS2_12basic_stringIcNS2_11char_traitsIcEENS2_9allocatorIcEEEEEEEvDpRKT_, symObjAddr: 0x5020, symBinAddr: 0x14C80, symSize: 0x7C }
  - { offset: 0xE8867, size: 0x8, addend: 0x0, symName: __ZZN5folly2toIdbEENSt3__19enable_ifIXsr6detail14IsArithToArithIT_T0_EE5valueES3_E4typeERKS4_ENKUlNS_14ConversionCodeEE_clES9_, symObjAddr: 0x5270, symBinAddr: 0x14DE0, symSize: 0xB4 }
  - { offset: 0xE8FAA, size: 0x8, addend: 0x0, symName: __ZN5folly15expected_detail30expected_detail_ExpectedHelper14ExpectedHelper12thenOrThrow_IRNS0_15ExpectedStorageINS_5RangeIPKcEENS_14ConversionCodeELNS0_11StorageTypeE1EEENS_6detail18CheckTrailingSpaceEZNS_2toIdEENSt3__19enable_ifIXntsr3std7is_sameIS8_T_EE5valueESI_E4typeES8_EUlS9_E_NS_8ExpectedINS_4UnitES9_EEvLb0ELi0EEET2_OSI_OT0_OT1_.cold.1, symObjAddr: 0xA330, symBinAddr: 0xA6390, symSize: 0x28 }
  - { offset: 0xE9042, size: 0x8, addend: 0x0, symName: __ZZN5folly2toIdEENSt3__19enable_ifIXntsr3std7is_sameINS_5RangeIPKcEET_EE5valueES7_E4typeES6_ENKUlNS_14ConversionCodeEE_clESA_, symObjAddr: 0x5624, symBinAddr: 0x14EC0, symSize: 0x48 }
  - { offset: 0xE91F9, size: 0x8, addend: 0x0, symName: __ZZN5folly2toIdEENSt3__19enable_ifIXntsr3std7is_sameINS_5RangeIPKcEET_EE5valueES7_E4typeES6_ENKUlNS_14ConversionCodeEE0_clESA_, symObjAddr: 0x570C, symBinAddr: 0x14F08, symSize: 0x50 }
  - { offset: 0xE933E, size: 0x8, addend: 0x0, symName: __ZN8facebook5react12fromRawValueERKNS0_18PropsParserContextERKNS0_8RawValueERNS0_24ScrollViewIndicatorStyleE, symObjAddr: 0x578C, symBinAddr: 0x14F58, symSize: 0x154 }
  - { offset: 0xE98A6, size: 0x8, addend: 0x0, symName: __ZN8facebook5react12fromRawValueERKNS0_18PropsParserContextERKNS0_8RawValueERNS0_29ScrollViewKeyboardDismissModeE, symObjAddr: 0x5A60, symBinAddr: 0x150AC, symSize: 0x158 }
  - { offset: 0xF0360, size: 0x8, addend: 0x0, symName: __ZNK8facebook5react8RawValue7hasTypeINSt3__113unordered_mapINS3_12basic_stringIcNS3_11char_traitsIcEENS3_9allocatorIcEEEEdNS3_4hashISA_EENS3_8equal_toISA_EENS8_INS3_4pairIKSA_dEEEEEEEEbv, symObjAddr: 0x7FD0, symBinAddr: 0x15690, symSize: 0x64 }
  - { offset: 0xF0374, size: 0x8, addend: 0x0, symName: __ZNK8facebook5react8RawValue7hasTypeINSt3__113unordered_mapINS3_12basic_stringIcNS3_11char_traitsIcEENS3_9allocatorIcEEEEdNS3_4hashISA_EENS3_8equal_toISA_EENS8_INS3_4pairIKSA_dEEEEEEEEbv, symObjAddr: 0x7FD0, symBinAddr: 0x15690, symSize: 0x64 }
  - { offset: 0xF0646, size: 0x8, addend: 0x0, symName: __ZNK8facebook5react8RawValuecvT_INSt3__113unordered_mapINS4_12basic_stringIcNS4_11char_traitsIcEENS4_9allocatorIcEEEEdNS4_4hashISB_EENS4_8equal_toISB_EENS9_INS4_4pairIKSB_dEEEEEEEEv, symObjAddr: 0x8034, symBinAddr: 0x156F4, symSize: 0x38 }
  - { offset: 0xF065A, size: 0x8, addend: 0x0, symName: __ZNK8facebook5react8RawValuecvT_INSt3__113unordered_mapINS4_12basic_stringIcNS4_11char_traitsIcEENS4_9allocatorIcEEEEdNS4_4hashISB_EENS4_8equal_toISB_EENS9_INS4_4pairIKSB_dEEEEEEEEv, symObjAddr: 0x8034, symBinAddr: 0x156F4, symSize: 0x38 }
  - { offset: 0xF07A3, size: 0x8, addend: 0x0, symName: __ZNK8facebook5react8RawValue7hasTypeINSt3__16vectorIdNS3_9allocatorIdEEEEEEbv, symObjAddr: 0x806C, symBinAddr: 0x1572C, symSize: 0x68 }
  - { offset: 0xF07B7, size: 0x8, addend: 0x0, symName: __ZNK8facebook5react8RawValue7hasTypeINSt3__16vectorIdNS3_9allocatorIdEEEEEEbv, symObjAddr: 0x806C, symBinAddr: 0x1572C, symSize: 0x68 }
  - { offset: 0xF0A6F, size: 0x8, addend: 0x0, symName: __ZNK8facebook5react8RawValuecvT_INSt3__16vectorIdNS4_9allocatorIdEEEEEEv, symObjAddr: 0x80D4, symBinAddr: 0x15794, symSize: 0x38 }
  - { offset: 0xF0A83, size: 0x8, addend: 0x0, symName: __ZNK8facebook5react8RawValuecvT_INSt3__16vectorIdNS4_9allocatorIdEEEEEEv, symObjAddr: 0x80D4, symBinAddr: 0x15794, symSize: 0x38 }
  - { offset: 0xF0BCC, size: 0x8, addend: 0x0, symName: __ZN8facebook5react8RawValue14checkValueTypeIdEEbPNS_3jsi7RuntimeERKNS3_5ValueEPNSt3__113unordered_mapINS9_12basic_stringIcNS9_11char_traitsIcEENS9_9allocatorIcEEEET_NS9_4hashISG_EENS9_8equal_toISG_EENSE_INS9_4pairIKSG_SH_EEEEEE, symObjAddr: 0x810C, symBinAddr: 0x157CC, symSize: 0x17C }
  - { offset: 0xF0BE0, size: 0x8, addend: 0x0, symName: __ZNSt3__112__hash_tableINS_17__hash_value_typeINS_12basic_stringIcNS_11char_traitsIcEENS_9allocatorIcEEEEdEENS_22__unordered_map_hasherIS7_S8_NS_4hashIS7_EENS_8equal_toIS7_EELb1EEENS_21__unordered_map_equalIS7_S8_SD_SB_Lb1EEENS5_IS8_EEED2Ev, symObjAddr: 0x8E48, symBinAddr: 0x162DC, symSize: 0x38 }
  - { offset: 0xF0EEC, size: 0x8, addend: 0x0, symName: __ZN8facebook5react8RawValue14checkValueTypeIdEEbPNS_3jsi7RuntimeERKNS3_5ValueEPNSt3__113unordered_mapINS9_12basic_stringIcNS9_11char_traitsIcEENS9_9allocatorIcEEEET_NS9_4hashISG_EENS9_8equal_toISG_EENSE_INS9_4pairIKSG_SH_EEEEEE, symObjAddr: 0x810C, symBinAddr: 0x157CC, symSize: 0x17C }
  - { offset: 0xF14B2, size: 0x8, addend: 0x0, symName: __ZN8facebook5react8RawValue9castValueIdEENSt3__113unordered_mapINS3_12basic_stringIcNS3_11char_traitsIcEENS3_9allocatorIcEEEET_NS3_4hashISA_EENS3_8equal_toISA_EENS8_INS3_4pairIKSA_SB_EEEEEERKN5folly7dynamicEPSK_, symObjAddr: 0x8288, symBinAddr: 0x15948, symSize: 0xE4 }
  - { offset: 0xF180D, size: 0x8, addend: 0x0, symName: __ZN8facebook5react8RawValue9castValueIdEENSt3__113unordered_mapINS3_12basic_stringIcNS3_11char_traitsIcEENS3_9allocatorIcEEEET_NS3_4hashISA_EENS3_8equal_toISA_EENS8_INS3_4pairIKSA_SB_EEEEEEPNS_3jsi7RuntimeERKNSL_5ValueEPSK_, symObjAddr: 0x836C, symBinAddr: 0x15A2C, symSize: 0x224 }
  - { offset: 0xF2352, size: 0x8, addend: 0x0, symName: __ZN8facebook5react8RawValue14checkValueTypeIdEEbPNS_3jsi7RuntimeERKNS3_5ValueEPNSt3__16vectorIT_NS9_9allocatorISB_EEEE, symObjAddr: 0x8EC4, symBinAddr: 0x16358, symSize: 0x104 }
  - { offset: 0xF278F, size: 0x8, addend: 0x0, symName: __ZN8facebook5react8RawValue9castValueIdEENSt3__16vectorIT_NS3_9allocatorIS5_EEEERKN5folly7dynamicEPS8_, symObjAddr: 0x8FC8, symBinAddr: 0x1645C, symSize: 0xB8 }
  - { offset: 0xF2AA7, size: 0x8, addend: 0x0, symName: __ZN8facebook5react8RawValue9castValueIdEENSt3__16vectorIT_NS3_9allocatorIS5_EEEEPNS_3jsi7RuntimeERKNS9_5ValueEPS8_, symObjAddr: 0x9080, symBinAddr: 0x16514, symSize: 0x170 }
  - { offset: 0xF315C, size: 0x8, addend: 0x0, symName: __ZNSt3__112__hash_tableINS_17__hash_value_typeINS_12basic_stringIcNS_11char_traitsIcEENS_9allocatorIcEEEEdEENS_22__unordered_map_hasherIS7_S8_NS_4hashIS7_EENS_8equal_toIS7_EELb1EEENS_21__unordered_map_equalIS7_S8_SD_SB_Lb1EEENS5_IS8_EEE25__emplace_unique_key_argsIS7_JRKNS_21piecewise_construct_tENS_5tupleIJRKS7_EEENSN_IJEEEEEENS_4pairINS_15__hash_iteratorIPNS_11__hash_nodeIS8_PvEEEEbEERKT_DpOT0_, symObjAddr: 0x8590, symBinAddr: 0x15C50, symSize: 0x274 }
  - { offset: 0xF36C7, size: 0x8, addend: 0x0, symName: __ZNSt3__112__hash_tableINS_17__hash_value_typeINS_12basic_stringIcNS_11char_traitsIcEENS_9allocatorIcEEEEdEENS_22__unordered_map_hasherIS7_S8_NS_4hashIS7_EENS_8equal_toIS7_EELb1EEENS_21__unordered_map_equalIS7_S8_SD_SB_Lb1EEENS5_IS8_EEE25__emplace_unique_key_argsIS7_JRS7_dEEENS_4pairINS_15__hash_iteratorIPNS_11__hash_nodeIS8_PvEEEEbEERKT_DpOT0_, symObjAddr: 0x8B2C, symBinAddr: 0x15FC0, symSize: 0x264 }
  - { offset: 0xF3D37, size: 0x8, addend: 0x0, symName: __ZNSt3__112__hash_tableINS_17__hash_value_typeINS_12basic_stringIcNS_11char_traitsIcEENS_9allocatorIcEEEEdEENS_22__unordered_map_hasherIS7_S8_NS_4hashIS7_EENS_8equal_toIS7_EELb1EEENS_21__unordered_map_equalIS7_S8_SD_SB_Lb1EEENS5_IS8_EEE21__construct_node_hashIRKNS_21piecewise_construct_tEJNS_5tupleIJRKS7_EEENSN_IJEEEEEENS_10unique_ptrINS_11__hash_nodeIS8_PvEENS_22__hash_node_destructorINS5_ISV_EEEEEEmOT_DpOT0_, symObjAddr: 0x8804, symBinAddr: 0x15EC4, symSize: 0xAC }
  - { offset: 0xF41C0, size: 0x8, addend: 0x0, symName: __ZNSt3__122__hash_node_destructorINS_9allocatorINS_11__hash_nodeINS_17__hash_value_typeINS_12basic_stringIcNS_11char_traitsIcEENS1_IcEEEEdEEPvEEEEEclB8ne200100EPSB_, symObjAddr: 0x8ADC, symBinAddr: 0x15F70, symSize: 0x50 }
  - { offset: 0xF49CF, size: 0x8, addend: 0x0, symName: __ZNSt3__122__hash_node_destructorINS_9allocatorINS_11__hash_nodeINS_17__hash_value_typeINS_12basic_stringIcNS_11char_traitsIcEENS1_IcEEEEdEEPvEEEEEclB8ne200100EPSB_, symObjAddr: 0x8ADC, symBinAddr: 0x15F70, symSize: 0x50 }
  - { offset: 0xF4BC4, size: 0x8, addend: 0x0, symName: __ZNSt3__112__hash_tableINS_17__hash_value_typeINS_12basic_stringIcNS_11char_traitsIcEENS_9allocatorIcEEEEdEENS_22__unordered_map_hasherIS7_S8_NS_4hashIS7_EENS_8equal_toIS7_EELb1EEENS_21__unordered_map_equalIS7_S8_SD_SB_Lb1EEENS5_IS8_EEE21__construct_node_hashIRS7_JdEEENS_10unique_ptrINS_11__hash_nodeIS8_PvEENS_22__hash_node_destructorINS5_ISO_EEEEEEmOT_DpOT0_, symObjAddr: 0x8D90, symBinAddr: 0x16224, symSize: 0xB8 }
  - { offset: 0xF50C9, size: 0x8, addend: 0x0, symName: __ZNSt3__112__hash_tableINS_17__hash_value_typeINS_12basic_stringIcNS_11char_traitsIcEENS_9allocatorIcEEEEdEENS_22__unordered_map_hasherIS7_S8_NS_4hashIS7_EENS_8equal_toIS7_EELb1EEENS_21__unordered_map_equalIS7_S8_SD_SB_Lb1EEENS5_IS8_EEE17__deallocate_nodeEPNS_16__hash_node_baseIPNS_11__hash_nodeIS8_PvEEEE, symObjAddr: 0x8E80, symBinAddr: 0x16314, symSize: 0x44 }
  - { offset: 0xF5450, size: 0x8, addend: 0x0, symName: __ZNSt3__16vectorIdNS_9allocatorIdEEE7reserveEm, symObjAddr: 0x91F0, symBinAddr: 0x16684, symSize: 0x8C }
  - { offset: 0xF5680, size: 0x8, addend: 0x0, symName: __ZNSt3__16vectorIdNS_9allocatorIdEEE9push_backB8ne200100EOd, symObjAddr: 0x927C, symBinAddr: 0x16710, symSize: 0xDC }
  - { offset: 0xF568B, size: 0x8, addend: 0x0, symName: __ZNSt3__16vectorIdNS_9allocatorIdEEE9push_backB8ne200100EOd, symObjAddr: 0x927C, symBinAddr: 0x16710, symSize: 0xDC }
  - { offset: 0xF5A30, size: 0x8, addend: 0x0, symName: __ZN8facebook5react12fromRawValueERKNS0_18PropsParserContextERKNS0_8RawValueERNS0_5PointE, symObjAddr: 0x9358, symBinAddr: 0x167EC, symSize: 0x1D4 }
  - { offset: 0xF9F8F, size: 0x8, addend: 0x0, symName: __ZN8facebook5react23setTouchPayloadOnObjectERNS_3jsi6ObjectERNS1_7RuntimeERKNS0_9BaseTouchE, symObjAddr: 0x0, symBinAddr: 0x16E5C, symSize: 0x130 }
  - { offset: 0xFB3B0, size: 0x8, addend: 0x0, symName: __ZN8facebook5react23setTouchPayloadOnObjectERNS_3jsi6ObjectERNS1_7RuntimeERKNS0_9BaseTouchE, symObjAddr: 0x0, symBinAddr: 0x16E5C, symSize: 0x130 }
  - { offset: 0x100422, size: 0x8, addend: 0x0, symName: __ZNK8facebook3jsi6Object11setPropertyIRKdEEvRNS0_7RuntimeEPKcOT_, symObjAddr: 0x130, symBinAddr: 0x16F8C, symSize: 0xA4 }
  - { offset: 0x100949, size: 0x8, addend: 0x0, symName: __ZNK8facebook3jsi6Object11setPropertyIRKdEEvRNS0_7RuntimeERKNS0_6StringEOT_, symObjAddr: 0x31C, symBinAddr: 0x17030, symSize: 0x68 }
  - { offset: 0x102C2E, size: 0x8, addend: 0x0, symName: __ZNK8facebook5react20BaseViewEventEmitter21onAccessibilityActionERKNSt3__112basic_stringIcNS2_11char_traitsIcEENS2_9allocatorIcEEEE, symObjAddr: 0x0, symBinAddr: 0x17098, symSize: 0x1AC }
  - { offset: 0x10CE24, size: 0x8, addend: 0x0, symName: __ZNK8facebook5react20BaseViewEventEmitter21onAccessibilityActionERKNSt3__112basic_stringIcNS2_11char_traitsIcEENS2_9allocatorIcEEEE, symObjAddr: 0x0, symBinAddr: 0x17098, symSize: 0x1AC }
  - { offset: 0x10D8CB, size: 0x8, addend: 0x0, symName: __ZNK8facebook5react20BaseViewEventEmitter8onLayoutERKNS0_13LayoutMetricsE, symObjAddr: 0x4D0, symBinAddr: 0x17568, symSize: 0x214 }
  - { offset: 0x10EBBA, size: 0x8, addend: 0x0, symName: '__ZNSt3__110__function6__funcIZNK8facebook5react20BaseViewEventEmitter21onAccessibilityActionERKNS_12basic_stringIcNS_11char_traitsIcEENS_9allocatorIcEEEEE3$_0NS8_ISD_EEFNS2_3jsi5ValueERNSF_7RuntimeEEED1Ev', symObjAddr: 0x890, symBinAddr: 0x1777C, symSize: 0x3C }
  - { offset: 0x10EBC5, size: 0x8, addend: 0x0, symName: __ZNK8facebook5react20BaseViewEventEmitter18onAccessibilityTapEv, symObjAddr: 0x1AC, symBinAddr: 0x17244, symSize: 0x10C }
  - { offset: 0x10EF2F, size: 0x8, addend: 0x0, symName: __ZNK8facebook5react20BaseViewEventEmitter23onAccessibilityMagicTapEv, symObjAddr: 0x2B8, symBinAddr: 0x17350, symSize: 0x10C }
  - { offset: 0x10F299, size: 0x8, addend: 0x0, symName: __ZNK8facebook5react20BaseViewEventEmitter21onAccessibilityEscapeEv, symObjAddr: 0x3C4, symBinAddr: 0x1745C, symSize: 0x10C }
  - { offset: 0x10FE9F, size: 0x8, addend: 0x0, symName: '__ZNSt3__110__function6__funcIZNK8facebook5react20BaseViewEventEmitter21onAccessibilityActionERKNS_12basic_stringIcNS_11char_traitsIcEENS_9allocatorIcEEEEE3$_0NS8_ISD_EEFNS2_3jsi5ValueERNSF_7RuntimeEEED1Ev', symObjAddr: 0x890, symBinAddr: 0x1777C, symSize: 0x3C }
  - { offset: 0x110079, size: 0x8, addend: 0x0, symName: '__ZNSt3__110__function6__funcIZNK8facebook5react20BaseViewEventEmitter21onAccessibilityActionERKNS_12basic_stringIcNS_11char_traitsIcEENS_9allocatorIcEEEEE3$_0NS8_ISD_EEFNS2_3jsi5ValueERNSF_7RuntimeEEED0Ev', symObjAddr: 0x8CC, symBinAddr: 0x177B8, symSize: 0x3C }
  - { offset: 0x110409, size: 0x8, addend: 0x0, symName: '__ZNKSt3__110__function6__funcIZNK8facebook5react20BaseViewEventEmitter21onAccessibilityActionERKNS_12basic_stringIcNS_11char_traitsIcEENS_9allocatorIcEEEEE3$_0NS8_ISD_EEFNS2_3jsi5ValueERNSF_7RuntimeEEE7__cloneEv', symObjAddr: 0x908, symBinAddr: 0x177F4, symSize: 0x70 }
  - { offset: 0x11077F, size: 0x8, addend: 0x0, symName: '__ZNKSt3__110__function6__funcIZNK8facebook5react20BaseViewEventEmitter21onAccessibilityActionERKNS_12basic_stringIcNS_11char_traitsIcEENS_9allocatorIcEEEEE3$_0NS8_ISD_EEFNS2_3jsi5ValueERNSF_7RuntimeEEE7__cloneEPNS0_6__baseISJ_EE', symObjAddr: 0x978, symBinAddr: 0x17864, symSize: 0x38 }
  - { offset: 0x1108B7, size: 0x8, addend: 0x0, symName: '__ZNSt3__110__function6__funcIZNK8facebook5react20BaseViewEventEmitter21onAccessibilityActionERKNS_12basic_stringIcNS_11char_traitsIcEENS_9allocatorIcEEEEE3$_0NS8_ISD_EEFNS2_3jsi5ValueERNSF_7RuntimeEEE7destroyEv', symObjAddr: 0x9B0, symBinAddr: 0x1789C, symSize: 0x14 }
  - { offset: 0x11094B, size: 0x8, addend: 0x0, symName: '__ZNSt3__110__function6__funcIZNK8facebook5react20BaseViewEventEmitter21onAccessibilityActionERKNS_12basic_stringIcNS_11char_traitsIcEENS_9allocatorIcEEEEE3$_0NS8_ISD_EEFNS2_3jsi5ValueERNSF_7RuntimeEEE7destroyEv', symObjAddr: 0x9B0, symBinAddr: 0x1789C, symSize: 0x14 }
  - { offset: 0x110A04, size: 0x8, addend: 0x0, symName: '__ZNSt3__110__function6__funcIZNK8facebook5react20BaseViewEventEmitter21onAccessibilityActionERKNS_12basic_stringIcNS_11char_traitsIcEENS_9allocatorIcEEEEE3$_0NS8_ISD_EEFNS2_3jsi5ValueERNSF_7RuntimeEEE18destroy_deallocateEv', symObjAddr: 0x9C4, symBinAddr: 0x178B0, symSize: 0x30 }
  - { offset: 0x110E30, size: 0x8, addend: 0x0, symName: '__ZNSt3__110__function6__funcIZNK8facebook5react20BaseViewEventEmitter21onAccessibilityActionERKNS_12basic_stringIcNS_11char_traitsIcEENS_9allocatorIcEEEEE3$_0NS8_ISD_EEFNS2_3jsi5ValueERNSF_7RuntimeEEEclESI_', symObjAddr: 0x9F4, symBinAddr: 0x178E0, symSize: 0x90 }
  - { offset: 0x111089, size: 0x8, addend: 0x0, symName: __ZNK8facebook3jsi6Object11setPropertyIRKNSt3__112basic_stringIcNS3_11char_traitsIcEENS3_9allocatorIcEEEEEEvRNS0_7RuntimeEPKcOT_, symObjAddr: 0xACC, symBinAddr: 0x179B8, symSize: 0xA4 }
  - { offset: 0x11125D, size: 0x8, addend: 0x0, symName: '__ZNKSt3__110__function6__funcIZNK8facebook5react20BaseViewEventEmitter21onAccessibilityActionERKNS_12basic_stringIcNS_11char_traitsIcEENS_9allocatorIcEEEEE3$_0NS8_ISD_EEFNS2_3jsi5ValueERNSF_7RuntimeEEE6targetERKSt9type_info', symObjAddr: 0xA84, symBinAddr: 0x17970, symSize: 0x3C }
  - { offset: 0x1112A9, size: 0x8, addend: 0x0, symName: __ZNKSt9type_infoeqB8ne200100ERKS_, symObjAddr: 0xC14, symBinAddr: 0x17B00, symSize: 0x4C }
  - { offset: 0x111345, size: 0x8, addend: 0x0, symName: '__ZNKSt3__110__function6__funcIZNK8facebook5react20BaseViewEventEmitter21onAccessibilityActionERKNS_12basic_stringIcNS_11char_traitsIcEENS_9allocatorIcEEEEE3$_0NS8_ISD_EEFNS2_3jsi5ValueERNSF_7RuntimeEEE11target_typeEv', symObjAddr: 0xAC0, symBinAddr: 0x179AC, symSize: 0xC }
  - { offset: 0x1113F9, size: 0x8, addend: 0x0, symName: __ZNK8facebook3jsi6Object11setPropertyIRKNSt3__112basic_stringIcNS3_11char_traitsIcEENS3_9allocatorIcEEEEEEvRNS0_7RuntimeERKNS0_6StringEOT_, symObjAddr: 0xB70, symBinAddr: 0x17A5C, symSize: 0xA4 }
  - { offset: 0x11171B, size: 0x8, addend: 0x0, symName: '__ZNSt3__110__function6__funcIZNK8facebook5react20BaseViewEventEmitter8onLayoutERKNS3_13LayoutMetricsEE3$_0NS_9allocatorIS8_EEFNS2_3jsi5ValueERNSB_7RuntimeEEED1Ev', symObjAddr: 0xCB8, symBinAddr: 0x17B4C, symSize: 0x30 }
  - { offset: 0x111811, size: 0x8, addend: 0x0, symName: '__ZNSt3__110__function6__funcIZNK8facebook5react20BaseViewEventEmitter8onLayoutERKNS3_13LayoutMetricsEE3$_0NS_9allocatorIS8_EEFNS2_3jsi5ValueERNSB_7RuntimeEEED0Ev', symObjAddr: 0xCE8, symBinAddr: 0x17B7C, symSize: 0x30 }
  - { offset: 0x111A44, size: 0x8, addend: 0x0, symName: '__ZNKSt3__110__function6__funcIZNK8facebook5react20BaseViewEventEmitter8onLayoutERKNS3_13LayoutMetricsEE3$_0NS_9allocatorIS8_EEFNS2_3jsi5ValueERNSB_7RuntimeEEE7__cloneEv', symObjAddr: 0xD18, symBinAddr: 0x17BAC, symSize: 0x50 }
  - { offset: 0x111CE7, size: 0x8, addend: 0x0, symName: '__ZNKSt3__110__function6__funcIZNK8facebook5react20BaseViewEventEmitter8onLayoutERKNS3_13LayoutMetricsEE3$_0NS_9allocatorIS8_EEFNS2_3jsi5ValueERNSB_7RuntimeEEE7__cloneEPNS0_6__baseISF_EE', symObjAddr: 0xD68, symBinAddr: 0x17BFC, symSize: 0x30 }
  - { offset: 0x111D1D, size: 0x8, addend: 0x0, symName: '__ZNKSt3__110__function6__funcIZNK8facebook5react20BaseViewEventEmitter8onLayoutERKNS3_13LayoutMetricsEE3$_0NS_9allocatorIS8_EEFNS2_3jsi5ValueERNSB_7RuntimeEEE7__cloneEPNS0_6__baseISF_EE', symObjAddr: 0xD68, symBinAddr: 0x17BFC, symSize: 0x30 }
  - { offset: 0x111D4B, size: 0x8, addend: 0x0, symName: '__ZNKSt3__110__function6__funcIZNK8facebook5react20BaseViewEventEmitter8onLayoutERKNS3_13LayoutMetricsEE3$_0NS_9allocatorIS8_EEFNS2_3jsi5ValueERNSB_7RuntimeEEE7__cloneEPNS0_6__baseISF_EE', symObjAddr: 0xD68, symBinAddr: 0x17BFC, symSize: 0x30 }
  - { offset: 0x111E6E, size: 0x8, addend: 0x0, symName: '__ZNSt3__110__function6__funcIZNK8facebook5react20BaseViewEventEmitter8onLayoutERKNS3_13LayoutMetricsEE3$_0NS_9allocatorIS8_EEFNS2_3jsi5ValueERNSB_7RuntimeEEE7destroyEv', symObjAddr: 0xD98, symBinAddr: 0x17C2C, symSize: 0x8 }
  - { offset: 0x111F28, size: 0x8, addend: 0x0, symName: '__ZNSt3__110__function6__funcIZNK8facebook5react20BaseViewEventEmitter8onLayoutERKNS3_13LayoutMetricsEE3$_0NS_9allocatorIS8_EEFNS2_3jsi5ValueERNSB_7RuntimeEEE18destroy_deallocateEv', symObjAddr: 0xDA0, symBinAddr: 0x17C34, symSize: 0x28 }
  - { offset: 0x11215F, size: 0x8, addend: 0x0, symName: '__ZNSt3__110__function6__funcIZNK8facebook5react20BaseViewEventEmitter8onLayoutERKNS3_13LayoutMetricsEE3$_0NS_9allocatorIS8_EEFNS2_3jsi5ValueERNSB_7RuntimeEEEclESE_', symObjAddr: 0xDC8, symBinAddr: 0x17C5C, symSize: 0x198 }
  - { offset: 0x1127ED, size: 0x8, addend: 0x0, symName: __ZNK8facebook3jsi6Object11setPropertyIS1_EEvRNS0_7RuntimeEPKcOT_, symObjAddr: 0x104C, symBinAddr: 0x17E3C, symSize: 0xA4 }
  - { offset: 0x1129C1, size: 0x8, addend: 0x0, symName: '__ZNKSt3__110__function6__funcIZNK8facebook5react20BaseViewEventEmitter8onLayoutERKNS3_13LayoutMetricsEE3$_0NS_9allocatorIS8_EEFNS2_3jsi5ValueERNSB_7RuntimeEEE6targetERKSt9type_info', symObjAddr: 0xF60, symBinAddr: 0x17DF4, symSize: 0x3C }
  - { offset: 0x112A0D, size: 0x8, addend: 0x0, symName: '__ZNKSt3__110__function6__funcIZNK8facebook5react20BaseViewEventEmitter8onLayoutERKNS3_13LayoutMetricsEE3$_0NS_9allocatorIS8_EEFNS2_3jsi5ValueERNSB_7RuntimeEEE11target_typeEv', symObjAddr: 0xF9C, symBinAddr: 0x17E30, symSize: 0xC }
  - { offset: 0x112B14, size: 0x8, addend: 0x0, symName: __ZNK8facebook3jsi6Object11setPropertyIS1_EEvRNS0_7RuntimeERKNS0_6StringEOT_, symObjAddr: 0x1158, symBinAddr: 0x17EE0, symSize: 0x90 }
  - { offset: 0x114DC9, size: 0x8, addend: 0x0, symName: __ZN8facebook5react17HostPlatformColorL14UndefinedColorE, symObjAddr: 0x29598, symBinAddr: 0xA8140, symSize: 0x0 }
  - { offset: 0x118B67, size: 0x8, addend: 0x0, symName: __ZN8facebook5react6detail21isLegacyColorFunctionIJNS0_9CSSNumberENS0_8CSSAngleEEEEbRNS0_15CSSSyntaxParserE, symObjAddr: 0x16828, symBinAddr: 0x28980, symSize: 0x88 }
  - { offset: 0x118D17, size: 0x8, addend: 0x0, symName: __ZN8facebook5react6detail22parseLegacyHslFunctionINS0_8CSSColorEEENSt3__18optionalIT_EERNS0_15CSSSyntaxParserE, symObjAddr: 0x168B0, symBinAddr: 0x28A08, symSize: 0x1F4 }
  - { offset: 0x119305, size: 0x8, addend: 0x0, symName: __ZN8facebook5react6detail16parseHwbFunctionINS0_8CSSColorEEENSt3__18optionalIT_EERNS0_15CSSSyntaxParserE, symObjAddr: 0x15708, symBinAddr: 0x27BA8, symSize: 0x214 }
  - { offset: 0x1198AD, size: 0x8, addend: 0x0, symName: __ZN8facebook5react6detail16parseRgbFunctionINS0_8CSSColorEEENSt3__18optionalIT_EERNS0_15CSSSyntaxParserE, symObjAddr: 0x156D0, symBinAddr: 0x27B70, symSize: 0x38 }
  - { offset: 0x119915, size: 0x8, addend: 0x0, symName: __ZN8facebook5react6detail22parseModernHslFunctionINS0_8CSSColorEEENSt3__18optionalIT_EERNS0_15CSSSyntaxParserE, symObjAddr: 0x16AA4, symBinAddr: 0x28BFC, symSize: 0x214 }
  - { offset: 0x119EBC, size: 0x8, addend: 0x0, symName: __ZN8facebook5react6detail21isLegacyColorFunctionIJNS0_9CSSNumberENS0_13CSSPercentageEEEEbRNS0_15CSSSyntaxParserE, symObjAddr: 0x1591C, symBinAddr: 0x27DBC, symSize: 0x88 }
  - { offset: 0x11A06B, size: 0x8, addend: 0x0, symName: __ZN8facebook5react6detail22parseLegacyRgbFunctionINS0_8CSSColorEEENSt3__18optionalIT_EERNS0_15CSSSyntaxParserE, symObjAddr: 0x159A4, symBinAddr: 0x27E44, symSize: 0x2DC }
  - { offset: 0x11A879, size: 0x8, addend: 0x0, symName: __ZN8facebook5react6detail22parseModernRgbFunctionINS0_8CSSColorEEENSt3__18optionalIT_EERNS0_15CSSSyntaxParserE, symObjAddr: 0x15C80, symBinAddr: 0x28120, symSize: 0x278 }
  - { offset: 0x11AF5E, size: 0x8, addend: 0x0, symName: __ZN8facebook5react6detail8hwbToRgbEfff, symObjAddr: 0x173D4, symBinAddr: 0x29304, symSize: 0x1EC }
  - { offset: 0x11B14D, size: 0x8, addend: 0x0, symName: __ZN8facebook5react6detail8hslToRgbEfff, symObjAddr: 0x17240, symBinAddr: 0x29170, symSize: 0x114 }
  - { offset: 0x11B21F, size: 0x8, addend: 0x0, symName: __ZN8facebook5react6detail8hueToRgbEfff, symObjAddr: 0x17354, symBinAddr: 0x29284, symSize: 0x80 }
  - { offset: 0x11B2E8, size: 0x8, addend: 0x0, symName: __ZN8facebook5react6detail12hexToNumericENSt3__117basic_string_viewIcNS2_11char_traitsIcEEEENS1_12HexColorTypeE, symObjAddr: 0x195E0, symBinAddr: 0x2B468, symSize: 0x50 }
  - { offset: 0x11C996, size: 0x8, addend: 0x0, symName: __ZN8facebook5react14convertRawPropINS0_11SharedColorES2_EET_RKNS0_18PropsParserContextERKNS0_8RawPropsEPKcRKS3_RKT0_SB_SB_, symObjAddr: 0xF0C, symBinAddr: 0x18CD0, symSize: 0x22C }
  - { offset: 0x11D23C, size: 0x8, addend: 0x0, symName: __ZN8facebook5reactL14convertRawPropINS0_9ValueUnitEEENS0_24CascadedRectangleCornersIT_EERKNS0_18PropsParserContextERKNS0_8RawPropsEPKcSD_RKS5_SF_, symObjAddr: 0x1138, symBinAddr: 0x18EFC, symSize: 0x288 }
  - { offset: 0x11D570, size: 0x8, addend: 0x0, symName: __ZN8facebook5reactL14convertRawPropINS0_11SharedColorEEENS0_22CascadedRectangleEdgesIT_EERKNS0_18PropsParserContextERKNS0_8RawPropsEPKcSD_RKS5_SF_, symObjAddr: 0x13C0, symBinAddr: 0x19184, symSize: 0x740 }
  - { offset: 0x11FEE4, size: 0x8, addend: 0x0, symName: __ZN8facebook5reactL14convertRawPropINS0_11BorderCurveEEENS0_24CascadedRectangleCornersIT_EERKNS0_18PropsParserContextERKNS0_8RawPropsEPKcSD_RKS5_SF_, symObjAddr: 0x1B00, symBinAddr: 0x198C4, symSize: 0x254 }
  - { offset: 0x12020A, size: 0x8, addend: 0x0, symName: __ZN8facebook5reactL14convertRawPropINS0_11BorderStyleEEENS0_22CascadedRectangleEdgesIT_EERKNS0_18PropsParserContextERKNS0_8RawPropsEPKcSD_RKS5_SF_, symObjAddr: 0x1D54, symBinAddr: 0x19B18, symSize: 0x22C }
  - { offset: 0x1204FD, size: 0x8, addend: 0x0, symName: __ZN8facebook5react14convertRawPropINS0_12OutlineStyleES2_EET_RKNS0_18PropsParserContextERKNS0_8RawPropsEPKcRKS3_RKT0_SB_SB_, symObjAddr: 0x1F80, symBinAddr: 0x19D44, symSize: 0x1C4 }
  - { offset: 0x120993, size: 0x8, addend: 0x0, symName: __ZN8facebook5react14convertRawPropINS0_4SizeES2_EET_RKNS0_18PropsParserContextERKNS0_8RawPropsEPKcRKS3_RKT0_SB_SB_, symObjAddr: 0x2144, symBinAddr: 0x19F08, symSize: 0x1CC }
  - { offset: 0x120E6C, size: 0x8, addend: 0x0, symName: __ZN8facebook5react14convertRawPropINS0_6CursorES2_EET_RKNS0_18PropsParserContextERKNS0_8RawPropsEPKcRKS3_RKT0_SB_SB_, symObjAddr: 0x2310, symBinAddr: 0x1A0D4, symSize: 0x1C4 }
  - { offset: 0x121302, size: 0x8, addend: 0x0, symName: __ZN8facebook5react14convertRawPropINSt3__16vectorINS0_9BoxShadowENS2_9allocatorIS4_EEEES7_EET_RKNS0_18PropsParserContextERKNS0_8RawPropsEPKcRKS8_RKT0_SG_SG_, symObjAddr: 0x24D4, symBinAddr: 0x1A298, symSize: 0x214 }
  - { offset: 0x12191E, size: 0x8, addend: 0x0, symName: __ZN8facebook5react14convertRawPropINSt3__16vectorINS0_14FilterFunctionENS2_9allocatorIS4_EEEES7_EET_RKNS0_18PropsParserContextERKNS0_8RawPropsEPKcRKS8_RKT0_SG_SG_, symObjAddr: 0x26E8, symBinAddr: 0x1A4AC, symSize: 0x214 }
  - { offset: 0x121F3A, size: 0x8, addend: 0x0, symName: __ZN8facebook5react14convertRawPropINSt3__16vectorINS2_7variantIJNS0_14LinearGradientENS0_14RadialGradientEEEENS2_9allocatorIS7_EEEESA_EET_RKNS0_18PropsParserContextERKNS0_8RawPropsEPKcRKSB_RKT0_SJ_SJ_, symObjAddr: 0x28FC, symBinAddr: 0x1A6C0, symSize: 0x23C }
  - { offset: 0x122556, size: 0x8, addend: 0x0, symName: __ZN8facebook5react14convertRawPropINS0_9BlendModeES2_EET_RKNS0_18PropsParserContextERKNS0_8RawPropsEPKcRKS3_RKT0_SB_SB_, symObjAddr: 0x2B38, symBinAddr: 0x1A8FC, symSize: 0x1C4 }
  - { offset: 0x1229F0, size: 0x8, addend: 0x0, symName: __ZN8facebook5react14convertRawPropINS0_9IsolationES2_EET_RKNS0_18PropsParserContextERKNS0_8RawPropsEPKcRKS3_RKT0_SB_SB_, symObjAddr: 0x2CFC, symBinAddr: 0x1AAC0, symSize: 0x1C4 }
  - { offset: 0x122E8A, size: 0x8, addend: 0x0, symName: __ZN8facebook5react14convertRawPropINS0_9TransformES2_EET_RKNS0_18PropsParserContextERKNS0_8RawPropsEPKcRKS3_RKT0_SB_SB_, symObjAddr: 0x2EC0, symBinAddr: 0x1AC84, symSize: 0x2EC }
  - { offset: 0x12362D, size: 0x8, addend: 0x0, symName: __ZN8facebook5react14convertRawPropINS0_15TransformOriginES2_EET_RKNS0_18PropsParserContextERKNS0_8RawPropsEPKcRKS3_RKT0_SB_SB_, symObjAddr: 0x31AC, symBinAddr: 0x1AF70, symSize: 0x1E8 }
  - { offset: 0x123AFB, size: 0x8, addend: 0x0, symName: __ZN8facebook5react14convertRawPropINS0_18BackfaceVisibilityES2_EET_RKNS0_18PropsParserContextERKNS0_8RawPropsEPKcRKS3_RKT0_SB_SB_, symObjAddr: 0x3394, symBinAddr: 0x1B158, symSize: 0x1C4 }
  - { offset: 0x1242AA, size: 0x8, addend: 0x0, symName: __ZN8facebook5react14convertRawPropINSt3__18optionalIiEES4_EET_RKNS0_18PropsParserContextERKNS0_8RawPropsEPKcRKS5_RKT0_SD_SD_, symObjAddr: 0x3700, symBinAddr: 0x1B31C, symSize: 0x1CC }
  - { offset: 0x124768, size: 0x8, addend: 0x0, symName: __ZN8facebook5react14convertRawPropINS0_17PointerEventsModeES2_EET_RKNS0_18PropsParserContextERKNS0_8RawPropsEPKcRKS3_RKT0_SB_SB_, symObjAddr: 0x38CC, symBinAddr: 0x1B4E8, symSize: 0x1C4 }
  - { offset: 0x124F33, size: 0x8, addend: 0x0, symName: __ZN8facebook5reactL14convertRawPropERKNS0_18PropsParserContextERKNS0_8RawPropsERKNS0_10ViewEventsES9_, symObjAddr: 0x3C64, symBinAddr: 0x1B6AC, symSize: 0xA94 }
  - { offset: 0x126918, size: 0x8, addend: 0x0, symName: __ZN8facebook5react18fromRawValueSharedERKNS0_16ContextContainerEiRKNS0_8RawValueERNS0_11SharedColorEPFS7_S3_iS6_E, symObjAddr: 0xC1A0, symBinAddr: 0x21B80, symSize: 0x5C0 }
  - { offset: 0x128552, size: 0x8, addend: 0x0, symName: __ZN8facebook5react14convertRawPropINSt3__18optionalINS0_9ValueUnitEEES5_EET_RKNS0_18PropsParserContextERKNS0_8RawPropsEPKcRKS6_RKT0_SE_SE_, symObjAddr: 0xF0D4, symBinAddr: 0x229B8, symSize: 0x1BC }
  - { offset: 0x128A21, size: 0x8, addend: 0x0, symName: __ZN8facebook5react14convertRawPropINSt3__18optionalINS0_11SharedColorEEES5_EET_RKNS0_18PropsParserContextERKNS0_8RawPropsEPKcRKS6_RKT0_SE_SE_, symObjAddr: 0xF290, symBinAddr: 0x22B74, symSize: 0x274 }
  - { offset: 0x1296DF, size: 0x8, addend: 0x0, symName: __ZN8facebook5react14convertRawPropINSt3__18optionalINS0_11BorderCurveEEES5_EET_RKNS0_18PropsParserContextERKNS0_8RawPropsEPKcRKS6_RKT0_SE_SE_, symObjAddr: 0xF580, symBinAddr: 0x22E64, symSize: 0x1D4 }
  - { offset: 0x129CC5, size: 0x8, addend: 0x0, symName: __ZN8facebook5react14convertRawPropINSt3__18optionalINS0_11BorderStyleEEES5_EET_RKNS0_18PropsParserContextERKNS0_8RawPropsEPKcRKS6_RKT0_SE_SE_, symObjAddr: 0xF904, symBinAddr: 0x231E8, symSize: 0x1D4 }
  - { offset: 0x12A2AB, size: 0x8, addend: 0x0, symName: __ZN8facebook5react12fromRawValueERKNS0_18PropsParserContextERKNS0_8RawValueERNS0_12OutlineStyleE, symObjAddr: 0xFAD8, symBinAddr: 0x233BC, symSize: 0x208 }
  - { offset: 0x12A9F6, size: 0x8, addend: 0x0, symName: __ZN8facebook5react12fromRawValueERKNS0_18PropsParserContextERKNS0_8RawValueERNS0_4SizeE, symObjAddr: 0xFCE0, symBinAddr: 0x235C4, symSize: 0x2B8 }
  - { offset: 0x12B20F, size: 0x8, addend: 0x0, symName: __ZN8facebook5react12fromRawValueERKNS0_18PropsParserContextERKNS0_8RawValueERNS0_6CursorE, symObjAddr: 0x11368, symBinAddr: 0x2387C, symSize: 0x60C }
  - { offset: 0x12BDD3, size: 0x8, addend: 0x0, symName: __ZN8facebook5react12fromRawValueERKNS0_18PropsParserContextERKNS0_8RawValueERNSt3__16vectorINS0_9BoxShadowENS7_9allocatorIS9_EEEE, symObjAddr: 0x11974, symBinAddr: 0x23E88, symSize: 0x5C }
  - { offset: 0x12BE1D, size: 0x8, addend: 0x0, symName: __ZN8facebook5react12fromRawValueERKNS0_18PropsParserContextERKNS0_8RawValueERNSt3__16vectorINS0_14FilterFunctionENS7_9allocatorIS9_EEEE, symObjAddr: 0x1C7A4, symBinAddr: 0x2D714, symSize: 0x5C }
  - { offset: 0x12BE66, size: 0x8, addend: 0x0, symName: __ZN8facebook5react12fromRawValueERKNS0_18PropsParserContextERKNS0_8RawValueERNSt3__16vectorINS7_7variantIJNS0_14LinearGradientENS0_14RadialGradientEEEENS7_9allocatorISC_EEEE, symObjAddr: 0x22C24, symBinAddr: 0x330BC, symSize: 0xF78 }
  - { offset: 0x1321CB, size: 0x8, addend: 0x0, symName: __ZN8facebook5react12fromRawValueERKNS0_18PropsParserContextERKNS0_8RawValueERNS0_9BlendModeE, symObjAddr: 0x25358, symBinAddr: 0x356A0, symSize: 0x120 }
  - { offset: 0x1326C8, size: 0x8, addend: 0x0, symName: __ZN8facebook5react12fromRawValueERKNS0_18PropsParserContextERKNS0_8RawValueERNS0_9IsolationE, symObjAddr: 0x25770, symBinAddr: 0x35AB8, symSize: 0x16C }
  - { offset: 0x132CA2, size: 0x8, addend: 0x0, symName: __ZN8facebook5react12fromRawValueERKNS0_18PropsParserContextERKNS0_8RawValueERNS0_9TransformE, symObjAddr: 0x258DC, symBinAddr: 0x35C24, symSize: 0xCD4 }
  - { offset: 0x13548B, size: 0x8, addend: 0x0, symName: __ZN8facebook5react12fromRawValueERKNS0_18PropsParserContextERKNS0_8RawValueERNS0_15TransformOriginE, symObjAddr: 0x267D4, symBinAddr: 0x36B1C, symSize: 0x114 }
  - { offset: 0x135787, size: 0x8, addend: 0x0, symName: __ZN8facebook5react12fromRawValueERKNS0_18PropsParserContextERKNS0_8RawValueERNS0_18BackfaceVisibilityE, symObjAddr: 0x268E8, symBinAddr: 0x36C30, symSize: 0x204 }
  - { offset: 0x135F8D, size: 0x8, addend: 0x0, symName: __ZN8facebook5react12fromRawValueERKNS0_18PropsParserContextERKNS0_8RawValueERNS0_17PointerEventsModeE, symObjAddr: 0x26B24, symBinAddr: 0x36E34, symSize: 0x220 }
  - { offset: 0x136F04, size: 0x8, addend: 0x0, symName: __ZN8facebook5react12fromRawValueINS0_17PointerEventsModeEEEvRKNS0_18PropsParserContextERKNS0_8RawValueERT_S9_, symObjAddr: 0x7AA4, symBinAddr: 0x1F360, symSize: 0x3C }
  - { offset: 0x136F72, size: 0x8, addend: 0x0, symName: __ZN8facebook5react12fromRawValueINS0_17PointerEventsModeEEEvRKNS0_18PropsParserContextERKNS0_8RawValueERT_S9_, symObjAddr: 0x7AA4, symBinAddr: 0x1F360, symSize: 0x3C }
  - { offset: 0x136F8D, size: 0x8, addend: 0x0, symName: __ZN8facebook5react12fromRawValueINS0_17PointerEventsModeEEEvRKNS0_18PropsParserContextERKNS0_8RawValueERT_S9_, symObjAddr: 0x7AA4, symBinAddr: 0x1F360, symSize: 0x3C }
  - { offset: 0x136FA9, size: 0x8, addend: 0x0, symName: __ZN8facebook5react12fromRawValueINS0_17PointerEventsModeEEEvRKNS0_18PropsParserContextERKNS0_8RawValueERT_S9_, symObjAddr: 0x7AA4, symBinAddr: 0x1F360, symSize: 0x3C }
  - { offset: 0x136FC5, size: 0x8, addend: 0x0, symName: __ZN8facebook5react12fromRawValueINS0_17PointerEventsModeEEEvRKNS0_18PropsParserContextERKNS0_8RawValueERT_S9_, symObjAddr: 0x7AA4, symBinAddr: 0x1F360, symSize: 0x3C }
  - { offset: 0x1370CB, size: 0x8, addend: 0x0, symName: __ZN8facebook5react12fromRawValueINS0_9IsolationEEEvRKNS0_18PropsParserContextERKNS0_8RawValueERT_S9_, symObjAddr: 0x7AE0, symBinAddr: 0x1F39C, symSize: 0x3C }
  - { offset: 0x1370DF, size: 0x8, addend: 0x0, symName: __ZN8facebook5react11toValueUnitERKNS0_8RawValueE, symObjAddr: 0x23B9C, symBinAddr: 0x34034, symSize: 0x100 }
  - { offset: 0x137545, size: 0x8, addend: 0x0, symName: __ZN8facebook5react12fromRawValueERKNS0_18PropsParserContextERKNS0_8RawValueERNS0_11BorderStyleE, symObjAddr: 0x270C4, symBinAddr: 0x37054, symSize: 0x208 }
  - { offset: 0x137C90, size: 0x8, addend: 0x0, symName: __ZN8facebook5react12fromRawValueINSt3__16vectorINS0_9BoxShadowENS2_9allocatorIS4_EEEEEEvRKNS0_18PropsParserContextERKNS0_8RawValueERT_SE_, symObjAddr: 0x7C8C, symBinAddr: 0x1F508, symSize: 0xB8 }
  - { offset: 0x137EE7, size: 0x8, addend: 0x0, symName: __ZN8facebook5react12fromRawValueINS0_9BlendModeEEEvRKNS0_18PropsParserContextERKNS0_8RawValueERT_S9_, symObjAddr: 0x7D44, symBinAddr: 0x1F5C0, symSize: 0x3C }
  - { offset: 0x137EFA, size: 0x8, addend: 0x0, symName: __ZN8facebook5react12fromRawValueINS0_12OutlineStyleEEEvRKNS0_18PropsParserContextERKNS0_8RawValueERT_S9_, symObjAddr: 0x7B98, symBinAddr: 0x1F414, symSize: 0x3C }
  - { offset: 0x137F68, size: 0x8, addend: 0x0, symName: __ZN8facebook5react12fromRawValueINS0_12OutlineStyleEEEvRKNS0_18PropsParserContextERKNS0_8RawValueERT_S9_, symObjAddr: 0x7B98, symBinAddr: 0x1F414, symSize: 0x3C }
  - { offset: 0x137F83, size: 0x8, addend: 0x0, symName: __ZN8facebook5react12fromRawValueINS0_12OutlineStyleEEEvRKNS0_18PropsParserContextERKNS0_8RawValueERT_S9_, symObjAddr: 0x7B98, symBinAddr: 0x1F414, symSize: 0x3C }
  - { offset: 0x137F9F, size: 0x8, addend: 0x0, symName: __ZN8facebook5react12fromRawValueINS0_12OutlineStyleEEEvRKNS0_18PropsParserContextERKNS0_8RawValueERT_S9_, symObjAddr: 0x7B98, symBinAddr: 0x1F414, symSize: 0x3C }
  - { offset: 0x137FBB, size: 0x8, addend: 0x0, symName: __ZN8facebook5react12fromRawValueINS0_12OutlineStyleEEEvRKNS0_18PropsParserContextERKNS0_8RawValueERT_S9_, symObjAddr: 0x7B98, symBinAddr: 0x1F414, symSize: 0x3C }
  - { offset: 0x1380C1, size: 0x8, addend: 0x0, symName: __ZN8facebook5react12fromRawValueINSt3__16vectorINS0_14FilterFunctionENS2_9allocatorIS4_EEEEEEvRKNS0_18PropsParserContextERKNS0_8RawValueERT_SE_, symObjAddr: 0x7BD4, symBinAddr: 0x1F450, symSize: 0xB8 }
  - { offset: 0x1380D4, size: 0x8, addend: 0x0, symName: __ZN8facebook5react12fromRawValueINS0_4SizeEEEvRKNS0_18PropsParserContextERKNS0_8RawValueERT_S9_, symObjAddr: 0x78C8, symBinAddr: 0x1F1DC, symSize: 0x3C }
  - { offset: 0x138142, size: 0x8, addend: 0x0, symName: __ZN8facebook5react12fromRawValueINS0_4SizeEEEvRKNS0_18PropsParserContextERKNS0_8RawValueERT_S9_, symObjAddr: 0x78C8, symBinAddr: 0x1F1DC, symSize: 0x3C }
  - { offset: 0x13815D, size: 0x8, addend: 0x0, symName: __ZN8facebook5react12fromRawValueINS0_4SizeEEEvRKNS0_18PropsParserContextERKNS0_8RawValueERT_S9_, symObjAddr: 0x78C8, symBinAddr: 0x1F1DC, symSize: 0x3C }
  - { offset: 0x138179, size: 0x8, addend: 0x0, symName: __ZN8facebook5react12fromRawValueINS0_4SizeEEEvRKNS0_18PropsParserContextERKNS0_8RawValueERT_S9_, symObjAddr: 0x78C8, symBinAddr: 0x1F1DC, symSize: 0x3C }
  - { offset: 0x138195, size: 0x8, addend: 0x0, symName: __ZN8facebook5react12fromRawValueINS0_4SizeEEEvRKNS0_18PropsParserContextERKNS0_8RawValueERT_S9_, symObjAddr: 0x78C8, symBinAddr: 0x1F1DC, symSize: 0x3C }
  - { offset: 0x13829B, size: 0x8, addend: 0x0, symName: __ZN8facebook5react12fromRawValueINS0_9TransformEEEvRKNS0_18PropsParserContextERKNS0_8RawValueERT_S9_, symObjAddr: 0x7904, symBinAddr: 0x1F218, symSize: 0xA4 }
  - { offset: 0x1382AE, size: 0x8, addend: 0x0, symName: __ZN8facebook5react12fromRawValueINS0_9BlendModeEEEvRKNS0_18PropsParserContextERKNS0_8RawValueERT_S9_, symObjAddr: 0x7D44, symBinAddr: 0x1F5C0, symSize: 0x3C }
  - { offset: 0x13831C, size: 0x8, addend: 0x0, symName: __ZN8facebook5react12fromRawValueINS0_9BlendModeEEEvRKNS0_18PropsParserContextERKNS0_8RawValueERT_S9_, symObjAddr: 0x7D44, symBinAddr: 0x1F5C0, symSize: 0x3C }
  - { offset: 0x138337, size: 0x8, addend: 0x0, symName: __ZN8facebook5react12fromRawValueINS0_9BlendModeEEEvRKNS0_18PropsParserContextERKNS0_8RawValueERT_S9_, symObjAddr: 0x7D44, symBinAddr: 0x1F5C0, symSize: 0x3C }
  - { offset: 0x138353, size: 0x8, addend: 0x0, symName: __ZN8facebook5react12fromRawValueINS0_9BlendModeEEEvRKNS0_18PropsParserContextERKNS0_8RawValueERT_S9_, symObjAddr: 0x7D44, symBinAddr: 0x1F5C0, symSize: 0x3C }
  - { offset: 0x13836F, size: 0x8, addend: 0x0, symName: __ZN8facebook5react12fromRawValueINS0_9BlendModeEEEvRKNS0_18PropsParserContextERKNS0_8RawValueERT_S9_, symObjAddr: 0x7D44, symBinAddr: 0x1F5C0, symSize: 0x3C }
  - { offset: 0x138595, size: 0x8, addend: 0x0, symName: __ZN8facebook5react12fromRawValueINS0_6CursorEEEvRKNS0_18PropsParserContextERKNS0_8RawValueERT_S9_, symObjAddr: 0x7B5C, symBinAddr: 0x1F3D8, symSize: 0x3C }
  - { offset: 0x1385A8, size: 0x8, addend: 0x0, symName: __ZN8facebook5react12fromRawValueINSt3__16vectorINS2_7variantIJNS0_14LinearGradientENS0_14RadialGradientEEEENS2_9allocatorIS7_EEEEEEvRKNS0_18PropsParserContextERKNS0_8RawValueERT_SH_, symObjAddr: 0x7850, symBinAddr: 0x1F164, symSize: 0x78 }
  - { offset: 0x1387CA, size: 0x8, addend: 0x0, symName: __ZN8facebook5react12fromRawValueINS0_4SizeEEEvRKNS0_18PropsParserContextERKNS0_8RawValueERT_S9_, symObjAddr: 0x78C8, symBinAddr: 0x1F1DC, symSize: 0x3C }
  - { offset: 0x1387DD, size: 0x8, addend: 0x0, symName: __ZN8facebook5react12fromRawValueINS0_18BackfaceVisibilityEEEvRKNS0_18PropsParserContextERKNS0_8RawValueERT_S9_, symObjAddr: 0x79A8, symBinAddr: 0x1F2BC, symSize: 0x3C }
  - { offset: 0x13884B, size: 0x8, addend: 0x0, symName: __ZN8facebook5react12fromRawValueINS0_18BackfaceVisibilityEEEvRKNS0_18PropsParserContextERKNS0_8RawValueERT_S9_, symObjAddr: 0x79A8, symBinAddr: 0x1F2BC, symSize: 0x3C }
  - { offset: 0x138866, size: 0x8, addend: 0x0, symName: __ZN8facebook5react12fromRawValueINS0_18BackfaceVisibilityEEEvRKNS0_18PropsParserContextERKNS0_8RawValueERT_S9_, symObjAddr: 0x79A8, symBinAddr: 0x1F2BC, symSize: 0x3C }
  - { offset: 0x138882, size: 0x8, addend: 0x0, symName: __ZN8facebook5react12fromRawValueINS0_18BackfaceVisibilityEEEvRKNS0_18PropsParserContextERKNS0_8RawValueERT_S9_, symObjAddr: 0x79A8, symBinAddr: 0x1F2BC, symSize: 0x3C }
  - { offset: 0x13889E, size: 0x8, addend: 0x0, symName: __ZN8facebook5react12fromRawValueINS0_18BackfaceVisibilityEEEvRKNS0_18PropsParserContextERKNS0_8RawValueERT_S9_, symObjAddr: 0x79A8, symBinAddr: 0x1F2BC, symSize: 0x3C }
  - { offset: 0x1389B7, size: 0x8, addend: 0x0, symName: __ZN8facebook5react12fromRawValueINS0_11SharedColorEEEvRKNS0_18PropsParserContextERKNS0_8RawValueERT_S9_, symObjAddr: 0x77CC, symBinAddr: 0x1F0E0, symSize: 0x84 }
  - { offset: 0x138C3D, size: 0x8, addend: 0x0, symName: __ZN8facebook5react12fromRawValueINSt3__16vectorINS2_7variantIJNS0_14LinearGradientENS0_14RadialGradientEEEENS2_9allocatorIS7_EEEEEEvRKNS0_18PropsParserContextERKNS0_8RawValueERT_SH_, symObjAddr: 0x7850, symBinAddr: 0x1F164, symSize: 0x78 }
  - { offset: 0x138C50, size: 0x8, addend: 0x0, symName: __ZN8facebook5react12fromRawValueINS0_9IsolationEEEvRKNS0_18PropsParserContextERKNS0_8RawValueERT_S9_, symObjAddr: 0x7AE0, symBinAddr: 0x1F39C, symSize: 0x3C }
  - { offset: 0x138CBE, size: 0x8, addend: 0x0, symName: __ZN8facebook5react12fromRawValueINS0_9IsolationEEEvRKNS0_18PropsParserContextERKNS0_8RawValueERT_S9_, symObjAddr: 0x7AE0, symBinAddr: 0x1F39C, symSize: 0x3C }
  - { offset: 0x138CD9, size: 0x8, addend: 0x0, symName: __ZN8facebook5react12fromRawValueINS0_9IsolationEEEvRKNS0_18PropsParserContextERKNS0_8RawValueERT_S9_, symObjAddr: 0x7AE0, symBinAddr: 0x1F39C, symSize: 0x3C }
  - { offset: 0x138CF5, size: 0x8, addend: 0x0, symName: __ZN8facebook5react12fromRawValueINS0_9IsolationEEEvRKNS0_18PropsParserContextERKNS0_8RawValueERT_S9_, symObjAddr: 0x7AE0, symBinAddr: 0x1F39C, symSize: 0x3C }
  - { offset: 0x138D11, size: 0x8, addend: 0x0, symName: __ZN8facebook5react12fromRawValueINS0_9IsolationEEEvRKNS0_18PropsParserContextERKNS0_8RawValueERT_S9_, symObjAddr: 0x7AE0, symBinAddr: 0x1F39C, symSize: 0x3C }
  - { offset: 0x138F4D, size: 0x8, addend: 0x0, symName: __ZN8facebook5react12fromRawValueINS0_11SharedColorEEEvRKNS0_18PropsParserContextERKNS0_8RawValueERT_S9_, symObjAddr: 0x77CC, symBinAddr: 0x1F0E0, symSize: 0x84 }
  - { offset: 0x138F60, size: 0x8, addend: 0x0, symName: __ZN8facebook5react12fromRawValueINSt3__16vectorINS0_14FilterFunctionENS2_9allocatorIS4_EEEEEEvRKNS0_18PropsParserContextERKNS0_8RawValueERT_SE_, symObjAddr: 0x7BD4, symBinAddr: 0x1F450, symSize: 0xB8 }
  - { offset: 0x1391B7, size: 0x8, addend: 0x0, symName: __ZN8facebook5react12fromRawValueINSt3__16vectorINS0_9BoxShadowENS2_9allocatorIS4_EEEEEEvRKNS0_18PropsParserContextERKNS0_8RawValueERT_SE_, symObjAddr: 0x7C8C, symBinAddr: 0x1F508, symSize: 0xB8 }
  - { offset: 0x1391CA, size: 0x8, addend: 0x0, symName: __ZN8facebook5react12fromRawValueINS0_11SharedColorEEEvRKNS0_18PropsParserContextERKNS0_8RawValueERNSt3__18optionalIT_EE, symObjAddr: 0x7DBC, symBinAddr: 0x1F5FC, symSize: 0x108 }
  - { offset: 0x13997F, size: 0x8, addend: 0x0, symName: __ZN8facebook5react12fromRawValueINS0_6CursorEEEvRKNS0_18PropsParserContextERKNS0_8RawValueERT_S9_, symObjAddr: 0x7B5C, symBinAddr: 0x1F3D8, symSize: 0x3C }
  - { offset: 0x1399ED, size: 0x8, addend: 0x0, symName: __ZN8facebook5react12fromRawValueINS0_6CursorEEEvRKNS0_18PropsParserContextERKNS0_8RawValueERT_S9_, symObjAddr: 0x7B5C, symBinAddr: 0x1F3D8, symSize: 0x3C }
  - { offset: 0x139A08, size: 0x8, addend: 0x0, symName: __ZN8facebook5react12fromRawValueINS0_6CursorEEEvRKNS0_18PropsParserContextERKNS0_8RawValueERT_S9_, symObjAddr: 0x7B5C, symBinAddr: 0x1F3D8, symSize: 0x3C }
  - { offset: 0x139A24, size: 0x8, addend: 0x0, symName: __ZN8facebook5react12fromRawValueINS0_6CursorEEEvRKNS0_18PropsParserContextERKNS0_8RawValueERT_S9_, symObjAddr: 0x7B5C, symBinAddr: 0x1F3D8, symSize: 0x3C }
  - { offset: 0x139A40, size: 0x8, addend: 0x0, symName: __ZN8facebook5react12fromRawValueINS0_6CursorEEEvRKNS0_18PropsParserContextERKNS0_8RawValueERT_S9_, symObjAddr: 0x7B5C, symBinAddr: 0x1F3D8, symSize: 0x3C }
  - { offset: 0x139B46, size: 0x8, addend: 0x0, symName: __ZN8facebook5react12fromRawValueINS0_12OutlineStyleEEEvRKNS0_18PropsParserContextERKNS0_8RawValueERT_S9_, symObjAddr: 0x7B98, symBinAddr: 0x1F414, symSize: 0x3C }
  - { offset: 0x139B59, size: 0x8, addend: 0x0, symName: __ZN8facebook5react12fromRawValueINSt3__18optionalIiEEEEvRKNS0_18PropsParserContextERKNS0_8RawValueERT_SB_, symObjAddr: 0x7A3C, symBinAddr: 0x1F2F8, symSize: 0x68 }
  - { offset: 0x139D6A, size: 0x8, addend: 0x0, symName: __ZN8facebook5react12fromRawValueINS0_17PointerEventsModeEEEvRKNS0_18PropsParserContextERKNS0_8RawValueERT_S9_, symObjAddr: 0x7AA4, symBinAddr: 0x1F360, symSize: 0x3C }
  - { offset: 0x139D7D, size: 0x8, addend: 0x0, symName: __ZN8facebook5react12fromRawValueINS0_9TransformEEEvRKNS0_18PropsParserContextERKNS0_8RawValueERT_S9_, symObjAddr: 0x7904, symBinAddr: 0x1F218, symSize: 0xA4 }
  - { offset: 0x139FA4, size: 0x8, addend: 0x0, symName: __ZN8facebook5react12fromRawValueINS0_18BackfaceVisibilityEEEvRKNS0_18PropsParserContextERKNS0_8RawValueERT_S9_, symObjAddr: 0x79A8, symBinAddr: 0x1F2BC, symSize: 0x3C }
  - { offset: 0x13A0DA, size: 0x8, addend: 0x0, symName: __ZN8facebook5react12fromRawValueINSt3__18optionalIiEEEEvRKNS0_18PropsParserContextERKNS0_8RawValueERT_SB_, symObjAddr: 0x7A3C, symBinAddr: 0x1F2F8, symSize: 0x68 }
  - { offset: 0x13A123, size: 0x8, addend: 0x0, symName: __ZN8facebook5react22parseUnprocessedFilterERKNS0_18PropsParserContextERKNS0_8RawValueERNSt3__16vectorINS0_14FilterFunctionENS7_9allocatorIS9_EEEE, symObjAddr: 0x1C800, symBinAddr: 0x2D770, symSize: 0x1B0 }
  - { offset: 0x13ACA8, size: 0x8, addend: 0x0, symName: __ZN8facebook5react20parseProcessedFilterERKNS0_18PropsParserContextERKNS0_8RawValueERNSt3__16vectorINS0_14FilterFunctionENS7_9allocatorIS9_EEEE, symObjAddr: 0x1C9B0, symBinAddr: 0x2D920, symSize: 0x5E0 }
  - { offset: 0x13CC6A, size: 0x8, addend: 0x0, symName: __ZN8facebook5react25parseUnprocessedBoxShadowERKNS0_18PropsParserContextERKNS0_8RawValueERNSt3__16vectorINS0_9BoxShadowENS7_9allocatorIS9_EEEE, symObjAddr: 0x119D0, symBinAddr: 0x23EE4, symSize: 0x1DC }
  - { offset: 0x13D782, size: 0x8, addend: 0x0, symName: __ZN8facebook5react23parseProcessedBoxShadowERKNS0_18PropsParserContextERKNS0_8RawValueERNSt3__16vectorINS0_9BoxShadowENS7_9allocatorIS9_EEEE, symObjAddr: 0x11BAC, symBinAddr: 0x240C0, symSize: 0x594 }
  - { offset: 0x13F62A, size: 0x8, addend: 0x0, symName: __ZN8facebook5react12fromRawValueERKNS0_18PropsParserContextERKNS0_8RawValueERNS0_11BorderCurveE, symObjAddr: 0xF754, symBinAddr: 0x23038, symSize: 0x1B0 }
  - { offset: 0x13FCFE, size: 0x8, addend: 0x0, symName: __ZN8facebook5react31parseUnprocessedBoxShadowStringEONSt3__112basic_stringIcNS1_11char_traitsIcEENS1_9allocatorIcEEEERNS1_6vectorINS0_9BoxShadowENS5_ISA_EEEE, symObjAddr: 0x12140, symBinAddr: 0x24654, symSize: 0x1A0 }
  - { offset: 0x140963, size: 0x8, addend: 0x0, symName: __ZN8facebook5react22parseBoxShadowRawValueERKNS0_18PropsParserContextERKNS0_8RawValueE, symObjAddr: 0x1AB00, symBinAddr: 0x2C684, symSize: 0x3A0 }
  - { offset: 0x142120, size: 0x8, addend: 0x0, symName: __ZN8facebook5react16parseCSSPropertyIJNS0_7CSSListINS0_9CSSShadowELNS0_12CSSDelimiterE4EEEEEENS0_6detail13merge_variantIJNS6_16merge_data_typesIJNS0_14CSSWideKeywordEDpT_EE4typeENSt3__19monostateEEE4typeENSE_17basic_string_viewIcNSE_11char_traitsIcEEEE, symObjAddr: 0x12354, symBinAddr: 0x247F4, symSize: 0xFC }
  - { offset: 0x142908, size: 0x8, addend: 0x0, symName: __ZN8facebook5react13fromCSSShadowERKNS0_9CSSShadowE, symObjAddr: 0x12450, symBinAddr: 0x248F0, symSize: 0x150 }
  - { offset: 0x143395, size: 0x8, addend: 0x0, symName: __ZN8facebook5react17parseNextCSSValueIJNS0_9CSSLengthENS0_8CSSColorENS0_21CSSInsetShadowKeywordEEEENS0_6detail13merge_variantIJNS5_16merge_data_typesIJDpT_EE4typeENSt3__19monostateEEE4typeERNS0_15CSSSyntaxParserENS0_12CSSDelimiterE, symObjAddr: 0x150D8, symBinAddr: 0x27578, symSize: 0x40 }
  - { offset: 0x1436D0, size: 0x8, addend: 0x0, symName: __ZN8facebook5react17parseNextCSSValueIJNS0_9CSSLengthEEEENS0_6detail13merge_variantIJNS3_16merge_data_typesIJDpT_EE4typeENSt3__19monostateEEE4typeERNS0_15CSSSyntaxParserENS0_12CSSDelimiterE, symObjAddr: 0x196D8, symBinAddr: 0x2B560, symSize: 0x40 }
  - { offset: 0x1438AF, size: 0x8, addend: 0x0, symName: __ZN8facebook5react21parseCSSColorFunctionINS0_8CSSColorEEENSt3__18optionalIT_EENS3_17basic_string_viewIcNS3_11char_traitsIcEEEERNS0_15CSSSyntaxParserE, symObjAddr: 0x155B0, symBinAddr: 0x27A50, symSize: 0x120 }
  - { offset: 0x1438EE, size: 0x8, addend: 0x0, symName: __ZN8facebook5react21parseCSSColorFunctionINS0_8CSSColorEEENSt3__18optionalIT_EENS3_17basic_string_viewIcNS3_11char_traitsIcEEEERNS0_15CSSSyntaxParserE, symObjAddr: 0x155B0, symBinAddr: 0x27A50, symSize: 0x120 }
  - { offset: 0x143903, size: 0x8, addend: 0x0, symName: __ZN8facebook5react21parseCSSColorFunctionINS0_8CSSColorEEENSt3__18optionalIT_EENS3_17basic_string_viewIcNS3_11char_traitsIcEEEERNS0_15CSSSyntaxParserE, symObjAddr: 0x155B0, symBinAddr: 0x27A50, symSize: 0x120 }
  - { offset: 0x143935, size: 0x8, addend: 0x0, symName: __ZN8facebook5react21parseCSSColorFunctionINS0_8CSSColorEEENSt3__18optionalIT_EENS3_17basic_string_viewIcNS3_11char_traitsIcEEEERNS0_15CSSSyntaxParserE, symObjAddr: 0x155B0, symBinAddr: 0x27A50, symSize: 0x120 }
  - { offset: 0x144629, size: 0x8, addend: 0x0, symName: __ZN8facebook5react17parseCSSAngleUnitENSt3__117basic_string_viewIcNS1_11char_traitsIcEEEE, symObjAddr: 0x170A0, symBinAddr: 0x290A8, symSize: 0xC8 }
  - { offset: 0x144655, size: 0x8, addend: 0x0, symName: __ZN8facebook5react17parseCSSAngleUnitENSt3__117basic_string_viewIcNS1_11char_traitsIcEEEE, symObjAddr: 0x170A0, symBinAddr: 0x290A8, symSize: 0xC8 }
  - { offset: 0x144669, size: 0x8, addend: 0x0, symName: __ZN8facebook5react17parseCSSAngleUnitENSt3__117basic_string_viewIcNS1_11char_traitsIcEEEE, symObjAddr: 0x170A0, symBinAddr: 0x290A8, symSize: 0xC8 }
  - { offset: 0x14469B, size: 0x8, addend: 0x0, symName: __ZN8facebook5react17parseCSSAngleUnitENSt3__117basic_string_viewIcNS1_11char_traitsIcEEEE, symObjAddr: 0x170A0, symBinAddr: 0x290A8, symSize: 0xC8 }
  - { offset: 0x14470E, size: 0x8, addend: 0x0, symName: __ZN8facebook5react18parseCSSLengthUnitENSt3__117basic_string_viewIcNS1_11char_traitsIcEEEE, symObjAddr: 0x17790, symBinAddr: 0x29618, symSize: 0x5EC }
  - { offset: 0x14473A, size: 0x8, addend: 0x0, symName: __ZN8facebook5react18parseCSSLengthUnitENSt3__117basic_string_viewIcNS1_11char_traitsIcEEEE, symObjAddr: 0x17790, symBinAddr: 0x29618, symSize: 0x5EC }
  - { offset: 0x14474E, size: 0x8, addend: 0x0, symName: __ZN8facebook5react18parseCSSLengthUnitENSt3__117basic_string_viewIcNS1_11char_traitsIcEEEE, symObjAddr: 0x17790, symBinAddr: 0x29618, symSize: 0x5EC }
  - { offset: 0x144780, size: 0x8, addend: 0x0, symName: __ZN8facebook5react18parseCSSLengthUnitENSt3__117basic_string_viewIcNS1_11char_traitsIcEEEE, symObjAddr: 0x17790, symBinAddr: 0x29618, symSize: 0x5EC }
  - { offset: 0x1447F3, size: 0x8, addend: 0x0, symName: __ZN8facebook5react18parseCSSNamedColorINS0_8CSSColorEEENSt3__18optionalIT_EENS3_17basic_string_viewIcNS3_11char_traitsIcEEEE, symObjAddr: 0x17DE4, symBinAddr: 0x29C6C, symSize: 0x15BC }
  - { offset: 0x14481F, size: 0x8, addend: 0x0, symName: __ZN8facebook5react18parseCSSNamedColorINS0_8CSSColorEEENSt3__18optionalIT_EENS3_17basic_string_viewIcNS3_11char_traitsIcEEEE, symObjAddr: 0x17DE4, symBinAddr: 0x29C6C, symSize: 0x15BC }
  - { offset: 0x144833, size: 0x8, addend: 0x0, symName: __ZN8facebook5react18parseCSSNamedColorINS0_8CSSColorEEENSt3__18optionalIT_EENS3_17basic_string_viewIcNS3_11char_traitsIcEEEE, symObjAddr: 0x17DE4, symBinAddr: 0x29C6C, symSize: 0x15BC }
  - { offset: 0x144865, size: 0x8, addend: 0x0, symName: __ZN8facebook5react18parseCSSNamedColorINS0_8CSSColorEEENSt3__18optionalIT_EENS3_17basic_string_viewIcNS3_11char_traitsIcEEEE, symObjAddr: 0x17DE4, symBinAddr: 0x29C6C, symSize: 0x15BC }
  - { offset: 0x1448E0, size: 0x8, addend: 0x0, symName: __ZN8facebook5react16parseCSSHexColorINS0_8CSSColorEEENSt3__18optionalIT_EENS3_17basic_string_viewIcNS3_11char_traitsIcEEEE, symObjAddr: 0x193A0, symBinAddr: 0x2B228, symSize: 0x240 }
  - { offset: 0x144F27, size: 0x8, addend: 0x0, symName: __ZN8facebook5react15parseCSSKeywordINS0_21CSSInsetShadowKeywordEEENSt3__18optionalIT_EENS3_17basic_string_viewIcNS3_11char_traitsIcEEEE, symObjAddr: 0x19670, symBinAddr: 0x2B4F8, symSize: 0x68 }
  - { offset: 0x144F53, size: 0x8, addend: 0x0, symName: __ZN8facebook5react15parseCSSKeywordINS0_21CSSInsetShadowKeywordEEENSt3__18optionalIT_EENS3_17basic_string_viewIcNS3_11char_traitsIcEEEE, symObjAddr: 0x19670, symBinAddr: 0x2B4F8, symSize: 0x68 }
  - { offset: 0x144F67, size: 0x8, addend: 0x0, symName: __ZN8facebook5react15parseCSSKeywordINS0_21CSSInsetShadowKeywordEEENSt3__18optionalIT_EENS3_17basic_string_viewIcNS3_11char_traitsIcEEEE, symObjAddr: 0x19670, symBinAddr: 0x2B4F8, symSize: 0x68 }
  - { offset: 0x144F99, size: 0x8, addend: 0x0, symName: __ZN8facebook5react15parseCSSKeywordINS0_21CSSInsetShadowKeywordEEENSt3__18optionalIT_EENS3_17basic_string_viewIcNS3_11char_traitsIcEEEE, symObjAddr: 0x19670, symBinAddr: 0x2B4F8, symSize: 0x68 }
  - { offset: 0x145212, size: 0x8, addend: 0x0, symName: __ZN8facebook5react15parseCSSKeywordINS0_14CSSWideKeywordEEENSt3__18optionalIT_EENS3_17basic_string_viewIcNS3_11char_traitsIcEEEE, symObjAddr: 0x1A6A8, symBinAddr: 0x2C318, symSize: 0xA0 }
  - { offset: 0x14523E, size: 0x8, addend: 0x0, symName: __ZN8facebook5react15parseCSSKeywordINS0_14CSSWideKeywordEEENSt3__18optionalIT_EENS3_17basic_string_viewIcNS3_11char_traitsIcEEEE, symObjAddr: 0x1A6A8, symBinAddr: 0x2C318, symSize: 0xA0 }
  - { offset: 0x145252, size: 0x8, addend: 0x0, symName: __ZN8facebook5react15parseCSSKeywordINS0_14CSSWideKeywordEEENSt3__18optionalIT_EENS3_17basic_string_viewIcNS3_11char_traitsIcEEEE, symObjAddr: 0x1A6A8, symBinAddr: 0x2C318, symSize: 0xA0 }
  - { offset: 0x145284, size: 0x8, addend: 0x0, symName: __ZN8facebook5react15parseCSSKeywordINS0_14CSSWideKeywordEEENSt3__18optionalIT_EENS3_17basic_string_viewIcNS3_11char_traitsIcEEEE, symObjAddr: 0x1A6A8, symBinAddr: 0x2C318, symSize: 0xA0 }
  - { offset: 0x145315, size: 0x8, addend: 0x0, symName: __ZN8facebook5react12coerceLengthERKNS0_8RawValueE, symObjAddr: 0x1AEA0, symBinAddr: 0x2CA24, symSize: 0xFC }
  - { offset: 0x14580C, size: 0x8, addend: 0x0, symName: __ZN8facebook5react11coerceColorERKNS0_8RawValueERKNS0_18PropsParserContextE, symObjAddr: 0x1AFE4, symBinAddr: 0x2CB20, symSize: 0x1BC }
  - { offset: 0x146090, size: 0x8, addend: 0x0, symName: __ZN8facebook5react16parseCSSPropertyIJNS0_9CSSLengthEEEENS0_6detail13merge_variantIJNS3_16merge_data_typesIJNS0_14CSSWideKeywordEDpT_EE4typeENSt3__19monostateEEE4typeENSB_17basic_string_viewIcNSB_11char_traitsIcEEEE, symObjAddr: 0x1B2D8, symBinAddr: 0x2CCDC, symSize: 0xE8 }
  - { offset: 0x146378, size: 0x8, addend: 0x0, symName: __ZN8facebook5react16parseCSSPropertyIJNS0_8CSSColorEEEENS0_6detail13merge_variantIJNS3_16merge_data_typesIJNS0_14CSSWideKeywordEDpT_EE4typeENSt3__19monostateEEE4typeENSB_17basic_string_viewIcNSB_11char_traitsIcEEEE, symObjAddr: 0x1B71C, symBinAddr: 0x2CFD0, symSize: 0xD8 }
  - { offset: 0x146AD2, size: 0x8, addend: 0x0, symName: __ZN8facebook5react28parseUnprocessedFilterStringEONSt3__112basic_stringIcNS1_11char_traitsIcEENS1_9allocatorIcEEEERNS1_6vectorINS0_14FilterFunctionENS5_ISA_EEEE, symObjAddr: 0x1CF90, symBinAddr: 0x2DF00, symSize: 0x1B4 }
  - { offset: 0x1478D2, size: 0x8, addend: 0x0, symName: __ZN8facebook5react19parseFilterRawValueERKNS0_18PropsParserContextERKNS0_8RawValueE, symObjAddr: 0x209E4, symBinAddr: 0x31298, symSize: 0x284 }
  - { offset: 0x148BD7, size: 0x8, addend: 0x0, symName: __ZN8facebook5react20filterTypeFromStringENSt3__117basic_string_viewIcNS1_11char_traitsIcEEEE, symObjAddr: 0x213A8, symBinAddr: 0x31C5C, symSize: 0x254 }
  - { offset: 0x1492B7, size: 0x8, addend: 0x0, symName: __ZN8facebook5react16parseCSSPropertyIJNS0_7CSSListINS0_19CSSCompoundDataTypeIJNS0_13CSSBlurFilterENS0_19CSSBrightnessFilterENS0_17CSSContrastFilterENS0_19CSSDropShadowFilterENS0_18CSSGrayscaleFilterENS0_18CSSHueRotateFilterENS0_15CSSInvertFilterENS0_16CSSOpacityFilterENS0_17CSSSaturateFilterENS0_14CSSSepiaFilterEEEELNS0_12CSSDelimiterE0EEEEEENS0_6detail13merge_variantIJNSH_16merge_data_typesIJNS0_14CSSWideKeywordEDpT_EE4typeENSt3__19monostateEEE4typeENSP_17basic_string_viewIcNSP_11char_traitsIcEEEE, symObjAddr: 0x1D144, symBinAddr: 0x2E0B4, symSize: 0xFC }
  - { offset: 0x14A23F, size: 0x8, addend: 0x0, symName: __ZN8facebook5react7iequalsENSt3__117basic_string_viewIcNS1_11char_traitsIcEEEES5_, symObjAddr: 0x1DAE4, symBinAddr: 0x2EA54, symSize: 0x64 }
  - { offset: 0x14A2C0, size: 0x8, addend: 0x0, symName: __ZN8facebook5react17parseNextCSSValueIJNS0_8CSSColorENS0_9CSSLengthEEEENS0_6detail13merge_variantIJNS4_16merge_data_typesIJDpT_EE4typeENSt3__19monostateEEE4typeERNS0_15CSSSyntaxParserENS0_12CSSDelimiterE, symObjAddr: 0x1E0C8, symBinAddr: 0x2F038, symSize: 0x40 }
  - { offset: 0x14A884, size: 0x8, addend: 0x0, symName: __ZN8facebook5react11coerceAngleERKNS0_8RawValueE, symObjAddr: 0x211AC, symBinAddr: 0x31A60, symSize: 0xF8 }
  - { offset: 0x14ACE8, size: 0x8, addend: 0x0, symName: __ZN8facebook5react12coerceAmountERKNS0_8RawValueE, symObjAddr: 0x212A4, symBinAddr: 0x31B58, symSize: 0x104 }
  - { offset: 0x14B122, size: 0x8, addend: 0x0, symName: __ZN8facebook5react15parseDropShadowERKNS0_18PropsParserContextERKNS0_8RawValueE, symObjAddr: 0x20C68, symBinAddr: 0x3151C, symSize: 0x544 }
  - { offset: 0x14DB67, size: 0x8, addend: 0x0, symName: __ZN8facebook5react16parseCSSPropertyIJNS0_19CSSDropShadowFilterEEEENS0_6detail13merge_variantIJNS3_16merge_data_typesIJNS0_14CSSWideKeywordEDpT_EE4typeENSt3__19monostateEEE4typeENSB_17basic_string_viewIcNSB_11char_traitsIcEEEE, symObjAddr: 0x215FC, symBinAddr: 0x31EB0, symSize: 0xEC }
  - { offset: 0x14DFBD, size: 0x8, addend: 0x0, symName: __ZN8facebook5react16parseCSSPropertyIJNS0_8CSSAngleEEEENS0_6detail13merge_variantIJNS3_16merge_data_typesIJNS0_14CSSWideKeywordEDpT_EE4typeENSt3__19monostateEEE4typeENSB_17basic_string_viewIcNSB_11char_traitsIcEEEE, symObjAddr: 0x21B68, symBinAddr: 0x32368, symSize: 0xD8 }
  - { offset: 0x14E2A6, size: 0x8, addend: 0x0, symName: __ZN8facebook5react16parseCSSPropertyIJNS0_9CSSNumberENS0_13CSSPercentageEEEENS0_6detail13merge_variantIJNS4_16merge_data_typesIJNS0_14CSSWideKeywordEDpT_EE4typeENSt3__19monostateEEE4typeENSC_17basic_string_viewIcNSC_11char_traitsIcEEEE, symObjAddr: 0x21F98, symBinAddr: 0x32648, symSize: 0xD8 }
  - { offset: 0x14EBE9, size: 0x8, addend: 0x0, symName: __ZN8facebook5react20parseGradientKeywordERKNSt3__112basic_stringIcNS1_11char_traitsIcEENS1_9allocatorIcEEEE, symObjAddr: 0x23D08, symBinAddr: 0x341A0, symSize: 0x2BC }
  - { offset: 0x14F0FE, size: 0x8, addend: 0x0, symName: __ZN8facebook5react16parseCSSPropertyIJNS0_13CSSPercentageEEEENS0_6detail13merge_variantIJNS3_16merge_data_typesIJNS0_14CSSWideKeywordEDpT_EE4typeENSt3__19monostateEEE4typeENSB_17basic_string_viewIcNSB_11char_traitsIcEEEE, symObjAddr: 0x244D4, symBinAddr: 0x3496C, symSize: 0xD8 }
  - { offset: 0x14F5E4, size: 0x8, addend: 0x0, symName: __ZN8facebook5react19blendModeFromStringENSt3__117basic_string_viewIcNS1_11char_traitsIcEEEE, symObjAddr: 0x25478, symBinAddr: 0x357C0, symSize: 0x2F8 }
  - { offset: 0x14FE66, size: 0x8, addend: 0x0, symName: __ZN8facebook5react9toRadiansERKNS0_8RawValueE, symObjAddr: 0x266CC, symBinAddr: 0x36A14, symSize: 0x108 }
  - { offset: 0x1881C2, size: 0x8, addend: 0x0, symName: __ZNSt3__119__allocate_at_leastB8ne200100INS_9allocatorIN8facebook5react9BoxShadowEEEEENS_19__allocation_resultINS_16allocator_traitsIT_E7pointerEEERS8_m, symObjAddr: 0x9C00, symBinAddr: 0x21168, symSize: 0x34 }
  - { offset: 0x1884FB, size: 0x8, addend: 0x0, symName: __ZNSt3__135__uninitialized_allocator_copy_implB8ne200100INS_9allocatorIN8facebook5react14FilterFunctionEEEPS4_S6_S6_EET2_RT_T0_T1_S7_, symObjAddr: 0x9E58, symBinAddr: 0x21220, symSize: 0x9C }
  - { offset: 0x188AE9, size: 0x8, addend: 0x0, symName: __ZNSt3__135__uninitialized_allocator_copy_implB8ne200100INS_9allocatorIN8facebook5react14FilterFunctionEEEPS4_S6_S6_EET2_RT_T0_T1_S7_, symObjAddr: 0x9E58, symBinAddr: 0x21220, symSize: 0x9C }
  - { offset: 0x189050, size: 0x8, addend: 0x0, symName: __ZNSt3__135__uninitialized_allocator_copy_implB8ne200100INS_9allocatorINS_7variantIJN8facebook5react14LinearGradientENS4_14RadialGradientEEEEEEPS7_S9_S9_EET2_RT_T0_T1_SA_, symObjAddr: 0xA1E8, symBinAddr: 0x214C8, symSize: 0x84 }
  - { offset: 0x189417, size: 0x8, addend: 0x0, symName: __ZNSt3__119__allocate_at_leastB8ne200100INS_9allocatorINS_7variantIJN8facebook5react14LinearGradientENS4_14RadialGradientEEEEEEEENS_19__allocation_resultINS_16allocator_traitsIT_E7pointerEEERSB_m, symObjAddr: 0xA1A0, symBinAddr: 0x21480, symSize: 0x48 }
  - { offset: 0x1894BC, size: 0x8, addend: 0x0, symName: __ZNSt3__135__uninitialized_allocator_copy_implB8ne200100INS_9allocatorINS_7variantIJN8facebook5react14LinearGradientENS4_14RadialGradientEEEEEEPS7_S9_S9_EET2_RT_T0_T1_SA_, symObjAddr: 0xA1E8, symBinAddr: 0x214C8, symSize: 0x84 }
  - { offset: 0x189B4E, size: 0x8, addend: 0x0, symName: __ZNSt3__119__allocate_at_leastB8ne200100INS_9allocatorIN8facebook5react9ColorStopEEEEENS_19__allocation_resultINS_16allocator_traitsIT_E7pointerEEERS8_m, symObjAddr: 0xA588, symBinAddr: 0x21740, symSize: 0x34 }
  - { offset: 0x18A2CD, size: 0x8, addend: 0x0, symName: __ZNSt3__119__allocate_at_leastB8ne200100INS_9allocatorIN8facebook5react18TransformOperationEEEEENS_19__allocation_resultINS_16allocator_traitsIT_E7pointerEEERS8_m, symObjAddr: 0xA704, symBinAddr: 0x21838, symSize: 0x48 }
  - { offset: 0x18B0FD, size: 0x8, addend: 0x0, symName: __ZNSt3__119__allocate_at_leastB8ne200100INS_9allocatorIfEEEENS_19__allocation_resultINS_16allocator_traitsIT_E7pointerEEERS5_m, symObjAddr: 0xD750, symBinAddr: 0x22728, symSize: 0x34 }
  - { offset: 0x18BFB3, size: 0x8, addend: 0x0, symName: __ZN8facebook5react12fromRawValueERKNS0_18PropsParserContextERKNS0_8RawValueERNS0_6CursorE, symObjAddr: 0x11368, symBinAddr: 0x2387C, symSize: 0x60C }
  - { offset: 0x192C78, size: 0x8, addend: 0x0, symName: __ZNSt3__119__allocate_at_leastB8ne200100INS_9allocatorIN8facebook5react9CSSShadowEEEEENS_19__allocation_resultINS_16allocator_traitsIT_E7pointerEEERS8_m, symObjAddr: 0x19E94, symBinAddr: 0x2BB04, symSize: 0x44 }
  - { offset: 0x192D1D, size: 0x8, addend: 0x0, symName: __ZNSt3__16vectorIN8facebook5react9CSSShadowENS_9allocatorIS3_EEE16__init_with_sizeB8ne200100IPS3_S8_EEvT_T0_m, symObjAddr: 0x19ED8, symBinAddr: 0x2BB48, symSize: 0x78 }
  - { offset: 0x1935DF, size: 0x8, addend: 0x0, symName: __ZNSt3__134__uninitialized_allocator_relocateB8ne200100INS_9allocatorIN8facebook5react9BoxShadowEEEPS4_EEvRT_T0_S9_S9_, symObjAddr: 0x1A94C, symBinAddr: 0x2C5BC, symSize: 0x78 }
  - { offset: 0x193639, size: 0x8, addend: 0x0, symName: __ZNSt3__134__uninitialized_allocator_relocateB8ne200100INS_9allocatorIN8facebook5react9BoxShadowEEEPS4_EEvRT_T0_S9_S9_, symObjAddr: 0x1A94C, symBinAddr: 0x2C5BC, symSize: 0x78 }
  - { offset: 0x194CA0, size: 0x8, addend: 0x0, symName: __ZNSt3__124__copy_move_unwrap_itersB8ne200100INS_11__copy_implEPKN8facebook5react9BoxShadowES6_PS4_Li0EEENS_4pairIT0_T2_EES9_T1_SA_, symObjAddr: 0x1C52C, symBinAddr: 0x2D69C, symSize: 0x78 }
  - { offset: 0x19B1A1, size: 0x8, addend: 0x0, symName: __ZNSt3__16vectorINS_7variantIJN8facebook5react13CSSBlurFilterENS3_19CSSBrightnessFilterENS3_17CSSContrastFilterENS3_19CSSDropShadowFilterENS3_18CSSGrayscaleFilterENS3_18CSSHueRotateFilterENS3_15CSSInvertFilterENS3_16CSSOpacityFilterENS3_17CSSSaturateFilterENS3_14CSSSepiaFilterEEEENS_9allocatorISE_EEE16__init_with_sizeB8ne200100IPSE_SJ_EEvT_T0_m, symObjAddr: 0x1F78C, symBinAddr: 0x304BC, symSize: 0x78 }
  - { offset: 0x19C185, size: 0x8, addend: 0x0, symName: __ZNSt3__134__uninitialized_allocator_relocateB8ne200100INS_9allocatorIN8facebook5react14FilterFunctionEEEPS4_EEvRT_T0_S9_S9_, symObjAddr: 0x20920, symBinAddr: 0x311D4, symSize: 0x74 }
  - { offset: 0x19C1DF, size: 0x8, addend: 0x0, symName: __ZNSt3__134__uninitialized_allocator_relocateB8ne200100INS_9allocatorIN8facebook5react14FilterFunctionEEEPS4_EEvRT_T0_S9_S9_, symObjAddr: 0x20920, symBinAddr: 0x311D4, symSize: 0x74 }
  - { offset: 0x19DAAD, size: 0x8, addend: 0x0, symName: __ZNSt3__135__uninitialized_allocator_copy_implB8ne200100INS_9allocatorIN8facebook5react14FilterFunctionEEEPKS4_S7_PS4_EET2_RT_T0_T1_S9_, symObjAddr: 0x22664, symBinAddr: 0x32BC4, symSize: 0x9C }
  - { offset: 0x19EA83, size: 0x8, addend: 0x0, symName: __ZNSt3__135__uninitialized_allocator_copy_implB8ne200100INS_9allocatorINS_7variantIJN8facebook5react14LinearGradientENS4_14RadialGradientEEEEEEPKS7_SA_PS7_EET2_RT_T0_T1_SC_, symObjAddr: 0x241CC, symBinAddr: 0x34664, symSize: 0x84 }
  - { offset: 0x19F52F, size: 0x8, addend: 0x0, symName: __ZNSt3__134__uninitialized_allocator_relocateB8ne200100INS_9allocatorIN8facebook5react9ColorStopEEEPS4_EEvRT_T0_S9_S9_, symObjAddr: 0x24A2C, symBinAddr: 0x34D74, symSize: 0x6C }
  - { offset: 0x19F589, size: 0x8, addend: 0x0, symName: __ZNSt3__134__uninitialized_allocator_relocateB8ne200100INS_9allocatorIN8facebook5react9ColorStopEEEPS4_EEvRT_T0_S9_S9_, symObjAddr: 0x24A2C, symBinAddr: 0x34D74, symSize: 0x6C }
  - { offset: 0x19FC06, size: 0x8, addend: 0x0, symName: __ZNSt3__134__uninitialized_allocator_relocateB8ne200100INS_9allocatorINS_7variantIJN8facebook5react14LinearGradientENS4_14RadialGradientEEEEEEPS7_EEvRT_T0_SC_SC_, symObjAddr: 0x24E78, symBinAddr: 0x351C0, symSize: 0x68 }
  - { offset: 0x19FC60, size: 0x8, addend: 0x0, symName: __ZNSt3__134__uninitialized_allocator_relocateB8ne200100INS_9allocatorINS_7variantIJN8facebook5react14LinearGradientENS4_14RadialGradientEEEEEEPS7_EEvRT_T0_SC_SC_, symObjAddr: 0x24E78, symBinAddr: 0x351C0, symSize: 0x68 }
  - { offset: 0x1A9F06, size: 0x8, addend: 0x0, symName: __ZN8facebook5react13BaseViewProps7setPropERKNS0_18PropsParserContextEjPKcRKNS0_8RawValueE, symObjAddr: 0x559C, symBinAddr: 0x1CF10, symSize: 0x1F74 }
  - { offset: 0x1A9F2E, size: 0x8, addend: 0x0, symName: __ZZN8facebook5react13BaseViewProps7setPropERKNS0_18PropsParserContextEjPKcRKNS0_8RawValueEE8defaults, symObjAddr: 0x48F3F8, symBinAddr: 0xD4F78, symSize: 0x0 }
  - { offset: 0x1B579D, size: 0x8, addend: 0x0, symName: __ZN10fast_float9space_lutIvE5valueE, symObjAddr: 0x29728, symBinAddr: 0xA81E8, symSize: 0x0 }
  - { offset: 0x1B57E9, size: 0x8, addend: 0x0, symName: __ZN10fast_float6detail12parse_infnanIfcEENS_19from_chars_result_tIT0_EEPKS3_S6_RT_NS_12chars_formatE, symObjAddr: 0x132BC, symBinAddr: 0x2575C, symSize: 0x1D4 }
  - { offset: 0x1B5A40, size: 0x8, addend: 0x0, symName: __ZN10fast_floatL20powers_of_ten_uint64E, symObjAddr: 0x2C168, symBinAddr: 0xAAC28, symSize: 0x0 }
  - { offset: 0x1B5C0A, size: 0x8, addend: 0x0, symName: __ZN10fast_float25from_chars_float_advancedIfcEENS_19from_chars_result_tIT0_EEPKS2_S5_RT_NS_15parse_options_tIS2_EE, symObjAddr: 0x12DD8, symBinAddr: 0x25278, symSize: 0x4E4 }
  - { offset: 0x1B6296, size: 0x8, addend: 0x0, symName: __ZN10fast_float19from_chars_advancedIfcEENS_19from_chars_result_tIT0_EERNS_22parsed_number_string_tIS2_EERT_, symObjAddr: 0x13490, symBinAddr: 0x25930, symSize: 0x440 }
  - { offset: 0x1B6C54, size: 0x8, addend: 0x0, symName: __ZN10fast_float10digit_compIfcEENS_17adjusted_mantissaERNS_22parsed_number_string_tIT0_EES1_, symObjAddr: 0x138D0, symBinAddr: 0x25D70, symSize: 0x230 }
  - { offset: 0x1B7606, size: 0x8, addend: 0x0, symName: __ZN10fast_float14parse_mantissaIcEEvRNS_6bigintERNS_22parsed_number_string_tIT_EEmRm, symObjAddr: 0x13B00, symBinAddr: 0x25FA0, symSize: 0x6A8 }
  - { offset: 0x1B819F, size: 0x8, addend: 0x0, symName: __ZN10fast_float19negative_digit_compIfEENS_17adjusted_mantissaERNS_6bigintES1_i, symObjAddr: 0x141A8, symBinAddr: 0x26648, symSize: 0x24C }
  - { offset: 0x1B8BA4, size: 0x8, addend: 0x0, symName: __ZN10fast_float9large_mulILt62EEEbRNS_8stackvecIXT_EEENS_4spanIyEE, symObjAddr: 0x1463C, symBinAddr: 0x26ADC, symSize: 0x80 }
  - { offset: 0x1B8C95, size: 0x8, addend: 0x0, symName: __ZN10fast_float8long_mulILt62EEEbRNS_8stackvecIXT_EEENS_4spanIyEE, symObjAddr: 0x146BC, symBinAddr: 0x26B5C, symSize: 0x1F0 }
  - { offset: 0x1B93F0, size: 0x8, addend: 0x0, symName: __ZN10fast_float14large_add_fromILt62EEEbRNS_8stackvecIXT_EEENS_4spanIyEEm, symObjAddr: 0x148AC, symBinAddr: 0x26D4C, symSize: 0x114 }
  - { offset: 0x1B96DC, size: 0x8, addend: 0x0, symName: __ZN10fast_float27binary_format_lookup_tablesIfvE13powers_of_tenE, symObjAddr: 0x29828, symBinAddr: 0xA82E8, symSize: 0x0 }
  - { offset: 0x1B9712, size: 0x8, addend: 0x0, symName: __ZN10fast_float27binary_format_lookup_tablesIfvE12max_mantissaE, symObjAddr: 0x29858, symBinAddr: 0xA8318, symSize: 0x0 }
  - { offset: 0x1B9726, size: 0x8, addend: 0x0, symName: __ZN10fast_float15powers_templateIvE17power_of_five_128E, symObjAddr: 0x298B8, symBinAddr: 0xA8378, symSize: 0x0 }
  - { offset: 0x1B9769, size: 0x8, addend: 0x0, symName: __ZN10fast_float11pow5_tablesIvE16large_power_of_5E, symObjAddr: 0x2C208, symBinAddr: 0xAACC8, symSize: 0x0 }
  - { offset: 0x1B97A5, size: 0x8, addend: 0x0, symName: __ZN10fast_float11pow5_tablesIvE16small_power_of_5E, symObjAddr: 0x2C230, symBinAddr: 0xAACF0, symSize: 0x0 }
  - { offset: 0x1BADC3, size: 0x8, addend: 0x0, symName: __ZN8facebook5react17CSSDataTypeParserINS0_7CSSListINS0_9CSSShadowELNS0_12CSSDelimiterE4EEEE7consumeERNS0_15CSSSyntaxParserE, symObjAddr: 0x14D28, symBinAddr: 0x271C8, symSize: 0x130 }
  - { offset: 0x1BB988, size: 0x8, addend: 0x0, symName: __ZN8facebook5react17CSSDataTypeParserINS0_7CSSListINS0_19CSSCompoundDataTypeIJNS0_13CSSBlurFilterENS0_19CSSBrightnessFilterENS0_17CSSContrastFilterENS0_19CSSDropShadowFilterENS0_18CSSGrayscaleFilterENS0_18CSSHueRotateFilterENS0_15CSSInvertFilterENS0_16CSSOpacityFilterENS0_17CSSSaturateFilterENS0_14CSSSepiaFilterEEEELNS0_12CSSDelimiterE0EEEE7consumeERNS0_15CSSSyntaxParserE, symObjAddr: 0x1D424, symBinAddr: 0x2E394, symSize: 0x18C }
  - { offset: 0x1BD186, size: 0x8, addend: 0x0, symName: __ZN8facebook5react13BaseViewPropsC2ERKNS0_18PropsParserContextERKS1_RKNS0_8RawPropsERKNSt3__18functionIFbRKNSA_12basic_stringIcNSA_11char_traitsIcEENSA_9allocatorIcEEEEEEE, symObjAddr: 0x0, symBinAddr: 0x17F70, symSize: 0xD60 }
  - { offset: 0x1C0457, size: 0x8, addend: 0x0, symName: __ZN8facebook5react22CascadedRectangleEdgesINS0_11SharedColorEEC2ERKS3_, symObjAddr: 0x96C0, symBinAddr: 0x20D4C, symSize: 0x334 }
  - { offset: 0x1C048C, size: 0x8, addend: 0x0, symName: __ZN8facebook5react22CascadedRectangleEdgesINS0_11SharedColorEEC2ERKS3_, symObjAddr: 0x96C0, symBinAddr: 0x20D4C, symSize: 0x334 }
  - { offset: 0x1C04AE, size: 0x8, addend: 0x0, symName: __ZN8facebook5react22CascadedRectangleEdgesINS0_11SharedColorEEC2ERKS3_, symObjAddr: 0x96C0, symBinAddr: 0x20D4C, symSize: 0x334 }
  - { offset: 0x1C04D1, size: 0x8, addend: 0x0, symName: __ZN8facebook5react22CascadedRectangleEdgesINS0_11SharedColorEEC2ERKS3_, symObjAddr: 0x96C0, symBinAddr: 0x20D4C, symSize: 0x334 }
  - { offset: 0x1C04F4, size: 0x8, addend: 0x0, symName: __ZN8facebook5react22CascadedRectangleEdgesINS0_11SharedColorEEC2ERKS3_, symObjAddr: 0x96C0, symBinAddr: 0x20D4C, symSize: 0x334 }
  - { offset: 0x1C0517, size: 0x8, addend: 0x0, symName: __ZN8facebook5react22CascadedRectangleEdgesINS0_11SharedColorEEC2ERKS3_, symObjAddr: 0x96C0, symBinAddr: 0x20D4C, symSize: 0x334 }
  - { offset: 0x1C053A, size: 0x8, addend: 0x0, symName: __ZN8facebook5react22CascadedRectangleEdgesINS0_11SharedColorEEC2ERKS3_, symObjAddr: 0x96C0, symBinAddr: 0x20D4C, symSize: 0x334 }
  - { offset: 0x1C055D, size: 0x8, addend: 0x0, symName: __ZN8facebook5react22CascadedRectangleEdgesINS0_11SharedColorEEC2ERKS3_, symObjAddr: 0x96C0, symBinAddr: 0x20D4C, symSize: 0x334 }
  - { offset: 0x1C0579, size: 0x8, addend: 0x0, symName: __ZN8facebook5react22CascadedRectangleEdgesINS0_11SharedColorEEC2ERKS3_, symObjAddr: 0x96C0, symBinAddr: 0x20D4C, symSize: 0x334 }
  - { offset: 0x1C35AA, size: 0x8, addend: 0x0, symName: __ZNSt3__16vectorIN8facebook5react9BoxShadowENS_9allocatorIS3_EEE16__init_with_sizeB8ne200100IPS3_S8_EEvT_T0_m, symObjAddr: 0x9B04, symBinAddr: 0x21080, symSize: 0xB0 }
  - { offset: 0x1C3B21, size: 0x8, addend: 0x0, symName: __ZNSt3__16vectorIN8facebook5react14FilterFunctionENS_9allocatorIS3_EEE16__init_with_sizeB8ne200100IPS3_S8_EEvT_T0_m, symObjAddr: 0x9D54, symBinAddr: 0x2119C, symSize: 0x84 }
  - { offset: 0x1C3F26, size: 0x8, addend: 0x0, symName: __ZNSt3__16vectorINS_7variantIJN8facebook5react14LinearGradientENS3_14RadialGradientEEEENS_9allocatorIS6_EEE16__init_with_sizeB8ne200100IPS6_SB_EEvT_T0_m, symObjAddr: 0xA0BC, symBinAddr: 0x213B0, symSize: 0x84 }
  - { offset: 0x1C4311, size: 0x8, addend: 0x0, symName: __ZNSt3__16vectorIN8facebook5react18TransformOperationENS_9allocatorIS3_EEE16__init_with_sizeB8ne200100IPS3_S8_EEvT_T0_m, symObjAddr: 0xA62C, symBinAddr: 0x21774, symSize: 0x78 }
  - { offset: 0x1C4D3C, size: 0x8, addend: 0x0, symName: __ZN8facebook5react17YogaStylablePropsD2Ev, symObjAddr: 0x47CC, symBinAddr: 0x1C140, symSize: 0x54 }
  - { offset: 0x1C5195, size: 0x8, addend: 0x0, symName: __ZN8facebook5react12fromRawValueINS0_11SharedColorEEEvRKNS0_18PropsParserContextERKNS0_8RawValueERNSt3__18optionalIT_EE, symObjAddr: 0x7DBC, symBinAddr: 0x1F5FC, symSize: 0x108 }
  - { offset: 0x1C52CF, size: 0x8, addend: 0x0, symName: __ZN8facebook5react14convertRawPropINS0_11SharedColorES2_EET_RKNS0_18PropsParserContextERKNS0_8RawPropsEPKcRKS3_RKT0_SB_SB_.cold.1, symObjAddr: 0x272CC, symBinAddr: 0xA63B8, symSize: 0x50 }
  - { offset: 0x1C551F, size: 0x8, addend: 0x0, symName: __ZNSt3__123__optional_storage_baseIN8facebook5react11SharedColorELb0EE13__assign_fromB8ne200100INS_27__optional_move_assign_baseIS3_Lb0EEEEEvOT_, symObjAddr: 0xF504, symBinAddr: 0x22DE8, symSize: 0x7C }
  - { offset: 0x1C5817, size: 0x8, addend: 0x0, symName: __ZN8facebook5react14convertRawPropINSt3__16vectorINS0_9BoxShadowENS2_9allocatorIS4_EEEES7_EET_RKNS0_18PropsParserContextERKNS0_8RawPropsEPKcRKS8_RKT0_SG_SG_.cold.1, symObjAddr: 0x2731C, symBinAddr: 0xA6408, symSize: 0x38 }
  - { offset: 0x1C585A, size: 0x8, addend: 0x0, symName: __ZN8facebook5react14convertRawPropINSt3__16vectorINS0_14FilterFunctionENS2_9allocatorIS4_EEEES7_EET_RKNS0_18PropsParserContextERKNS0_8RawPropsEPKcRKS8_RKT0_SG_SG_.cold.1, symObjAddr: 0x27354, symBinAddr: 0xA6440, symSize: 0x38 }
  - { offset: 0x1C589D, size: 0x8, addend: 0x0, symName: __ZN8facebook5react14convertRawPropINSt3__16vectorINS2_7variantIJNS0_14LinearGradientENS0_14RadialGradientEEEENS2_9allocatorIS7_EEEESA_EET_RKNS0_18PropsParserContextERKNS0_8RawPropsEPKcRKSB_RKT0_SJ_SJ_.cold.1, symObjAddr: 0x2738C, symBinAddr: 0xA6478, symSize: 0x48 }
  - { offset: 0x1C592E, size: 0x8, addend: 0x0, symName: __ZN8facebook5react14convertRawPropINS0_9TransformES2_EET_RKNS0_18PropsParserContextERKNS0_8RawPropsEPKcRKS3_RKT0_SB_SB_.cold.1, symObjAddr: 0x273D4, symBinAddr: 0xA64C0, symSize: 0x58 }
  - { offset: 0x1C5B35, size: 0x8, addend: 0x0, symName: __ZN8facebook5react11coerceColorERKNS0_8RawValueERKNS0_18PropsParserContextE, symObjAddr: 0x1AFE4, symBinAddr: 0x2CB20, symSize: 0x1BC }
  - { offset: 0x1C5C51, size: 0x8, addend: 0x0, symName: __ZN8facebook5react12fromRawValueERKNS0_18PropsParserContextERKNS0_8RawValueERNS0_17PointerEventsModeE, symObjAddr: 0x26B24, symBinAddr: 0x36E34, symSize: 0x220 }
  - { offset: 0x1C63A0, size: 0x8, addend: 0x0, symName: __ZN8facebook5react13BaseViewPropsC1ERKNS0_18PropsParserContextERKS1_RKNS0_8RawPropsERKNSt3__18functionIFbRKNSA_12basic_stringIcNSA_11char_traitsIcEENSA_9allocatorIcEEEEEEE, symObjAddr: 0x4820, symBinAddr: 0x1C194, symSize: 0xD7C }
  - { offset: 0x1C983A, size: 0x8, addend: 0x0, symName: __ZNSt3__123__optional_storage_baseIN8facebook5react11SharedColorELb0EE13__assign_fromB8ne200100IRKNS_27__optional_copy_assign_baseIS3_Lb0EEEEEvOT_, symObjAddr: 0xAAD4, symBinAddr: 0x21880, symSize: 0x90 }
  - { offset: 0x1C9B4D, size: 0x8, addend: 0x0, symName: __ZN8facebook5react13BaseViewPropsC1Ev, symObjAddr: 0x7510, symBinAddr: 0x1EE84, symSize: 0x25C }
  - { offset: 0x1CC919, size: 0x8, addend: 0x0, symName: __ZNSt3__16vectorINS_7variantIJN8facebook5react14LinearGradientENS3_14RadialGradientEEEENS_9allocatorIS6_EEE13__vdeallocateEv, symObjAddr: 0x24168, symBinAddr: 0x34600, symSize: 0x64 }
  - { offset: 0x1CCD06, size: 0x8, addend: 0x0, symName: __ZNSt3__16vectorIN8facebook5react14FilterFunctionENS_9allocatorIS3_EEE13__vdeallocateEv, symObjAddr: 0x225FC, symBinAddr: 0x32B5C, symSize: 0x68 }
  - { offset: 0x1CD04C, size: 0x8, addend: 0x0, symName: __ZNSt3__16vectorIN8facebook5react9BoxShadowENS_9allocatorIS3_EEE13__vdeallocateEv, symObjAddr: 0x1C4C4, symBinAddr: 0x2D634, symSize: 0x68 }
  - { offset: 0x1CD609, size: 0x8, addend: 0x0, symName: __ZNK8facebook5react13BaseViewProps15getBorderWidthsEv, symObjAddr: 0x7EC4, symBinAddr: 0x1F704, symSize: 0x240 }
  - { offset: 0x1CDBB9, size: 0x8, addend: 0x0, symName: __ZNK8facebook4yoga14StyleValuePool9getLengthENS0_16StyleValueHandleE, symObjAddr: 0xABDC, symBinAddr: 0x21910, symSize: 0xEC }
  - { offset: 0x1CDBF1, size: 0x8, addend: 0x0, symName: __ZNK8facebook4yoga14StyleValuePool9getLengthENS0_16StyleValueHandleE, symObjAddr: 0xABDC, symBinAddr: 0x21910, symSize: 0xEC }
  - { offset: 0x1CDD0E, size: 0x8, addend: 0x0, symName: __ZNSt3__16vectorIjNS_9allocatorIjEEE20__throw_out_of_rangeB8ne200100Ev, symObjAddr: 0xACC8, symBinAddr: 0x219FC, symSize: 0x14 }
  - { offset: 0x1CDD9C, size: 0x8, addend: 0x0, symName: __ZNK8facebook5react13BaseViewProps20resolveBorderMetricsERKNS0_13LayoutMetricsE, symObjAddr: 0x8104, symBinAddr: 0x1F944, symSize: 0x370 }
  - { offset: 0x1CE327, size: 0x8, addend: 0x0, symName: __ZNK8facebook5react24CascadedRectangleCornersINS0_9ValueUnitEE7resolveEbS2_, symObjAddr: 0x8474, symBinAddr: 0x1FCB4, symSize: 0x160 }
  - { offset: 0x1CE6AC, size: 0x8, addend: 0x0, symName: __ZNK8facebook5react22CascadedRectangleEdgesINS0_11SharedColorEE7resolveEbS2_, symObjAddr: 0x85D4, symBinAddr: 0x1FE14, symSize: 0x770 }
  - { offset: 0x1D1D6D, size: 0x8, addend: 0x0, symName: __ZNK8facebook5react22CascadedRectangleEdgesIdE7resolveEbd, symObjAddr: 0x8D44, symBinAddr: 0x20584, symSize: 0x104 }
  - { offset: 0x1D20C0, size: 0x8, addend: 0x0, symName: __ZNK8facebook5react24CascadedRectangleCornersINS0_11BorderCurveEE7resolveEbS2_, symObjAddr: 0x8E48, symBinAddr: 0x20688, symSize: 0x120 }
  - { offset: 0x1D2183, size: 0x8, addend: 0x0, symName: __ZNK8facebook5react24CascadedRectangleCornersINS0_11BorderCurveEE7resolveEbS2_, symObjAddr: 0x8E48, symBinAddr: 0x20688, symSize: 0x120 }
  - { offset: 0x1D21A0, size: 0x8, addend: 0x0, symName: __ZNK8facebook5react24CascadedRectangleCornersINS0_11BorderCurveEE7resolveEbS2_, symObjAddr: 0x8E48, symBinAddr: 0x20688, symSize: 0x120 }
  - { offset: 0x1D244F, size: 0x8, addend: 0x0, symName: __ZNK8facebook5react22CascadedRectangleEdgesINS0_11BorderStyleEE7resolveEbS2_, symObjAddr: 0x8F68, symBinAddr: 0x207A8, symSize: 0x100 }
  - { offset: 0x1D2794, size: 0x8, addend: 0x0, symName: __ZN8facebook5react14RectangleEdgesINS0_11SharedColorEED1Ev, symObjAddr: 0x9068, symBinAddr: 0x208A8, symSize: 0x38 }
  - { offset: 0x1D2F7A, size: 0x8, addend: 0x0, symName: __ZNK8facebook5react13BaseViewProps16resolveTransformERKNS0_13LayoutMetricsE, symObjAddr: 0x90A0, symBinAddr: 0x208E0, symSize: 0x45C }
  - { offset: 0x1D40AA, size: 0x8, addend: 0x0, symName: __ZNSt3__16vectorIN8facebook5react18TransformOperationENS_9allocatorIS3_EEE18__assign_with_sizeB8ne200100IPS3_S8_EEvT_T0_l, symObjAddr: 0xAD50, symBinAddr: 0x21A10, symSize: 0x170 }
  - { offset: 0x1D497B, size: 0x8, addend: 0x0, symName: __ZNK8facebook5react13BaseViewProps23getClipsContentToBoundsEv, symObjAddr: 0x94FC, symBinAddr: 0x20D3C, symSize: 0x10 }
  - { offset: 0x1D4C24, size: 0x8, addend: 0x0, symName: __ZNSt3__16vectorIN8facebook5react9BoxShadowENS_9allocatorIS3_EEE11__vallocateB8ne200100Em, symObjAddr: 0x9BB4, symBinAddr: 0x21130, symSize: 0x38 }
  - { offset: 0x1D4C8E, size: 0x8, addend: 0x0, symName: __ZNSt3__119__allocate_at_leastB8ne200100INS_9allocatorIN8facebook5react9BoxShadowEEEEENS_19__allocation_resultINS_16allocator_traitsIT_E7pointerEEERS8_m, symObjAddr: 0x9C00, symBinAddr: 0x21168, symSize: 0x34 }
  - { offset: 0x1D5440, size: 0x8, addend: 0x0, symName: __ZNSt3__116__variant_detail18__copy_constructorINS0_8__traitsIJdN8facebook5react16DropShadowParamsEEEELNS0_6_TraitE1EEC2B8ne200100ERKS8_, symObjAddr: 0x9EF4, symBinAddr: 0x212BC, symSize: 0x44 }
  - { offset: 0x1D579C, size: 0x8, addend: 0x0, symName: __ZNSt3__116__variant_detail6__ctorINS0_8__traitsIJdN8facebook5react16DropShadowParamsEEEEE19__generic_constructB8ne200100IRKNS0_18__copy_constructorIS6_LNS0_6_TraitE1EEEEEvRS7_OT_, symObjAddr: 0x9F38, symBinAddr: 0x21300, symSize: 0x60 }
  - { offset: 0x1D5C88, size: 0x8, addend: 0x0, symName: __ZNSt3__116__variant_detail12__visitation6__base12__dispatcherIJLm0EEE10__dispatchB8ne200100IOZNS0_6__ctorINS0_8__traitsIJdN8facebook5react16DropShadowParamsEEEEE19__generic_constructB8ne200100IRKNS0_18__copy_constructorISB_LNS0_6_TraitE1EEEEEvRSC_OT_EUlSL_E_JRKNS0_6__baseILSF_1EJdSA_EEEEEEDcSK_DpT0_, symObjAddr: 0x9FF8, symBinAddr: 0x21360, symSize: 0x10 }
  - { offset: 0x1D5CBD, size: 0x8, addend: 0x0, symName: __ZNSt3__116__variant_detail12__visitation6__base12__dispatcherIJLm0EEE10__dispatchB8ne200100IOZNS0_6__ctorINS0_8__traitsIJdN8facebook5react16DropShadowParamsEEEEE19__generic_constructB8ne200100IRKNS0_18__copy_constructorISB_LNS0_6_TraitE1EEEEEvRSC_OT_EUlSL_E_JRKNS0_6__baseILSF_1EJdSA_EEEEEEDcSK_DpT0_, symObjAddr: 0x9FF8, symBinAddr: 0x21360, symSize: 0x10 }
  - { offset: 0x1D5CE0, size: 0x8, addend: 0x0, symName: __ZNSt3__116__variant_detail12__visitation6__base12__dispatcherIJLm0EEE10__dispatchB8ne200100IOZNS0_6__ctorINS0_8__traitsIJdN8facebook5react16DropShadowParamsEEEEE19__generic_constructB8ne200100IRKNS0_18__copy_constructorISB_LNS0_6_TraitE1EEEEEvRSC_OT_EUlSL_E_JRKNS0_6__baseILSF_1EJdSA_EEEEEEDcSK_DpT0_, symObjAddr: 0x9FF8, symBinAddr: 0x21360, symSize: 0x10 }
  - { offset: 0x1D5FEC, size: 0x8, addend: 0x0, symName: __ZNSt3__116__variant_detail12__visitation6__base12__dispatcherIJLm1EEE10__dispatchB8ne200100IOZNS0_6__ctorINS0_8__traitsIJdN8facebook5react16DropShadowParamsEEEEE19__generic_constructB8ne200100IRKNS0_18__copy_constructorISB_LNS0_6_TraitE1EEEEEvRSC_OT_EUlSL_E_JRKNS0_6__baseILSF_1EJdSA_EEEEEEDcSK_DpT0_, symObjAddr: 0xA008, symBinAddr: 0x21370, symSize: 0x40 }
  - { offset: 0x1D6021, size: 0x8, addend: 0x0, symName: __ZNSt3__116__variant_detail12__visitation6__base12__dispatcherIJLm1EEE10__dispatchB8ne200100IOZNS0_6__ctorINS0_8__traitsIJdN8facebook5react16DropShadowParamsEEEEE19__generic_constructB8ne200100IRKNS0_18__copy_constructorISB_LNS0_6_TraitE1EEEEEvRSC_OT_EUlSL_E_JRKNS0_6__baseILSF_1EJdSA_EEEEEEDcSK_DpT0_, symObjAddr: 0xA008, symBinAddr: 0x21370, symSize: 0x40 }
  - { offset: 0x1D6044, size: 0x8, addend: 0x0, symName: __ZNSt3__116__variant_detail12__visitation6__base12__dispatcherIJLm1EEE10__dispatchB8ne200100IOZNS0_6__ctorINS0_8__traitsIJdN8facebook5react16DropShadowParamsEEEEE19__generic_constructB8ne200100IRKNS0_18__copy_constructorISB_LNS0_6_TraitE1EEEEEvRSC_OT_EUlSL_E_JRKNS0_6__baseILSF_1EJdSA_EEEEEEDcSK_DpT0_, symObjAddr: 0xA008, symBinAddr: 0x21370, symSize: 0x40 }
  - { offset: 0x1D6595, size: 0x8, addend: 0x0, symName: __ZNSt3__16vectorINS_7variantIJN8facebook5react14LinearGradientENS3_14RadialGradientEEEENS_9allocatorIS6_EEE11__vallocateB8ne200100Em, symObjAddr: 0xA140, symBinAddr: 0x21434, symSize: 0x4C }
  - { offset: 0x1D65FF, size: 0x8, addend: 0x0, symName: __ZNSt3__119__allocate_at_leastB8ne200100INS_9allocatorINS_7variantIJN8facebook5react14LinearGradientENS4_14RadialGradientEEEEEEEENS_19__allocation_resultINS_16allocator_traitsIT_E7pointerEEERSB_m, symObjAddr: 0xA1A0, symBinAddr: 0x21480, symSize: 0x48 }
  - { offset: 0x1D6969, size: 0x8, addend: 0x0, symName: __ZNSt3__116__variant_detail18__copy_constructorINS0_8__traitsIJN8facebook5react14LinearGradientENS4_14RadialGradientEEEELNS0_6_TraitE1EEC2B8ne200100ERKS9_, symObjAddr: 0xA26C, symBinAddr: 0x2154C, symSize: 0x44 }
  - { offset: 0x1D6CE2, size: 0x8, addend: 0x0, symName: __ZNSt3__116__variant_detail6__ctorINS0_8__traitsIJN8facebook5react14LinearGradientENS4_14RadialGradientEEEEE19__generic_constructB8ne200100IRKNS0_18__copy_constructorIS7_LNS0_6_TraitE1EEEEEvRS8_OT_, symObjAddr: 0xA2B0, symBinAddr: 0x21590, symSize: 0x60 }
  - { offset: 0x1D75B2, size: 0x8, addend: 0x0, symName: __ZNSt3__116__variant_detail12__visitation6__base12__dispatcherIJLm0EEE10__dispatchB8ne200100IOZNS0_6__ctorINS0_8__traitsIJN8facebook5react14LinearGradientENS9_14RadialGradientEEEEE19__generic_constructB8ne200100IRKNS0_18__copy_constructorISC_LNS0_6_TraitE1EEEEEvRSD_OT_EUlSM_E_JRKNS0_6__baseILSG_1EJSA_SB_EEEEEEDcSL_DpT0_, symObjAddr: 0xA424, symBinAddr: 0x215F0, symSize: 0x30 }
  - { offset: 0x1D75E9, size: 0x8, addend: 0x0, symName: __ZNSt3__116__variant_detail12__visitation6__base12__dispatcherIJLm0EEE10__dispatchB8ne200100IOZNS0_6__ctorINS0_8__traitsIJN8facebook5react14LinearGradientENS9_14RadialGradientEEEEE19__generic_constructB8ne200100IRKNS0_18__copy_constructorISC_LNS0_6_TraitE1EEEEEvRSD_OT_EUlSM_E_JRKNS0_6__baseILSG_1EJSA_SB_EEEEEEDcSL_DpT0_, symObjAddr: 0xA424, symBinAddr: 0x215F0, symSize: 0x30 }
  - { offset: 0x1D7610, size: 0x8, addend: 0x0, symName: __ZNSt3__116__variant_detail12__visitation6__base12__dispatcherIJLm0EEE10__dispatchB8ne200100IOZNS0_6__ctorINS0_8__traitsIJN8facebook5react14LinearGradientENS9_14RadialGradientEEEEE19__generic_constructB8ne200100IRKNS0_18__copy_constructorISC_LNS0_6_TraitE1EEEEEvRSD_OT_EUlSM_E_JRKNS0_6__baseILSG_1EJSA_SB_EEEEEEDcSL_DpT0_, symObjAddr: 0xA424, symBinAddr: 0x215F0, symSize: 0x30 }
  - { offset: 0x1D77F8, size: 0x8, addend: 0x0, symName: __ZNSt3__16vectorIN8facebook5react9ColorStopENS_9allocatorIS3_EEE16__init_with_sizeB8ne200100IPS3_S8_EEvT_T0_m, symObjAddr: 0xA494, symBinAddr: 0x21660, symSize: 0xA8 }
  - { offset: 0x1D7E0E, size: 0x8, addend: 0x0, symName: __ZNSt3__116__variant_detail12__visitation6__base12__dispatcherIJLm1EEE10__dispatchB8ne200100IOZNS0_6__ctorINS0_8__traitsIJN8facebook5react14LinearGradientENS9_14RadialGradientEEEEE19__generic_constructB8ne200100IRKNS0_18__copy_constructorISC_LNS0_6_TraitE1EEEEEvRSD_OT_EUlSM_E_JRKNS0_6__baseILSG_1EJSA_SB_EEEEEEDcSL_DpT0_, symObjAddr: 0xA454, symBinAddr: 0x21620, symSize: 0x40 }
  - { offset: 0x1D7E45, size: 0x8, addend: 0x0, symName: __ZNSt3__116__variant_detail12__visitation6__base12__dispatcherIJLm1EEE10__dispatchB8ne200100IOZNS0_6__ctorINS0_8__traitsIJN8facebook5react14LinearGradientENS9_14RadialGradientEEEEE19__generic_constructB8ne200100IRKNS0_18__copy_constructorISC_LNS0_6_TraitE1EEEEEvRSD_OT_EUlSM_E_JRKNS0_6__baseILSG_1EJSA_SB_EEEEEEDcSL_DpT0_, symObjAddr: 0xA454, symBinAddr: 0x21620, symSize: 0x40 }
  - { offset: 0x1D7E6C, size: 0x8, addend: 0x0, symName: __ZNSt3__116__variant_detail12__visitation6__base12__dispatcherIJLm1EEE10__dispatchB8ne200100IOZNS0_6__ctorINS0_8__traitsIJN8facebook5react14LinearGradientENS9_14RadialGradientEEEEE19__generic_constructB8ne200100IRKNS0_18__copy_constructorISC_LNS0_6_TraitE1EEEEEvRSD_OT_EUlSM_E_JRKNS0_6__baseILSG_1EJSA_SB_EEEEEEDcSL_DpT0_, symObjAddr: 0xA454, symBinAddr: 0x21620, symSize: 0x40 }
  - { offset: 0x1D82EB, size: 0x8, addend: 0x0, symName: __ZNSt3__16vectorIN8facebook5react9ColorStopENS_9allocatorIS3_EEE11__vallocateB8ne200100Em, symObjAddr: 0xA53C, symBinAddr: 0x21708, symSize: 0x38 }
  - { offset: 0x1D8355, size: 0x8, addend: 0x0, symName: __ZNSt3__119__allocate_at_leastB8ne200100INS_9allocatorIN8facebook5react9ColorStopEEEEENS_19__allocation_resultINS_16allocator_traitsIT_E7pointerEEERS8_m, symObjAddr: 0xA588, symBinAddr: 0x21740, symSize: 0x34 }
  - { offset: 0x1D860A, size: 0x8, addend: 0x0, symName: __ZNSt3__16vectorIN8facebook5react18TransformOperationENS_9allocatorIS3_EEE11__vallocateB8ne200100Em, symObjAddr: 0xA6A4, symBinAddr: 0x217EC, symSize: 0x4C }
  - { offset: 0x1D8674, size: 0x8, addend: 0x0, symName: __ZNSt3__119__allocate_at_leastB8ne200100INS_9allocatorIN8facebook5react18TransformOperationEEEEENS_19__allocation_resultINS_16allocator_traitsIT_E7pointerEEERS8_m, symObjAddr: 0xA704, symBinAddr: 0x21838, symSize: 0x48 }
  - { offset: 0x1D9095, size: 0x8, addend: 0x0, symName: __ZNSt3__16vectorIjNS_9allocatorIjEEE20__throw_out_of_rangeB8ne200100Ev, symObjAddr: 0xACC8, symBinAddr: 0x219FC, symSize: 0x14 }
  - { offset: 0x1DB116, size: 0x8, addend: 0x0, symName: __ZN8facebook5react18fromRawValueSharedERKNS0_16ContextContainerEiRKNS0_8RawValueERNS0_11SharedColorEPFS7_S3_iS6_E, symObjAddr: 0xC1A0, symBinAddr: 0x21B80, symSize: 0x5C0 }
  - { offset: 0x1DB5D5, size: 0x8, addend: 0x0, symName: __ZNK8facebook5react8RawValuecvT_IxEEv, symObjAddr: 0xC7A0, symBinAddr: 0x22140, symSize: 0x38 }
  - { offset: 0x1DB5E9, size: 0x8, addend: 0x0, symName: __ZNK8facebook5react8RawValuecvT_IxEEv, symObjAddr: 0xC7A0, symBinAddr: 0x22140, symSize: 0x38 }
  - { offset: 0x1DB7A6, size: 0x8, addend: 0x0, symName: __ZNK8facebook5react8RawValue7hasTypeINSt3__16vectorIfNS3_9allocatorIfEEEEEEbv, symObjAddr: 0xC7D8, symBinAddr: 0x22178, symSize: 0x68 }
  - { offset: 0x1DB7BA, size: 0x8, addend: 0x0, symName: __ZNK8facebook5react8RawValue7hasTypeINSt3__16vectorIfNS3_9allocatorIfEEEEEEbv, symObjAddr: 0xC7D8, symBinAddr: 0x22178, symSize: 0x68 }
  - { offset: 0x1DBA72, size: 0x8, addend: 0x0, symName: __ZNK8facebook5react8RawValuecvT_INSt3__16vectorIfNS4_9allocatorIfEEEEEEv, symObjAddr: 0xC840, symBinAddr: 0x221E0, symSize: 0x38 }
  - { offset: 0x1DBA86, size: 0x8, addend: 0x0, symName: __ZNK8facebook5react8RawValuecvT_INSt3__16vectorIfNS4_9allocatorIfEEEEEEv, symObjAddr: 0xC840, symBinAddr: 0x221E0, symSize: 0x38 }
  - { offset: 0x1DBBCF, size: 0x8, addend: 0x0, symName: __ZNK8facebook5react8RawValue7hasTypeINSt3__113unordered_mapINS3_12basic_stringIcNS3_11char_traitsIcEENS3_9allocatorIcEEEES1_NS3_4hashISA_EENS3_8equal_toISA_EENS8_INS3_4pairIKSA_S1_EEEEEEEEbv, symObjAddr: 0xC878, symBinAddr: 0x22218, symSize: 0x3C }
  - { offset: 0x1DBBE3, size: 0x8, addend: 0x0, symName: __ZNK8facebook5react8RawValue7hasTypeINSt3__113unordered_mapINS3_12basic_stringIcNS3_11char_traitsIcEENS3_9allocatorIcEEEES1_NS3_4hashISA_EENS3_8equal_toISA_EENS8_INS3_4pairIKSA_S1_EEEEEEEEbv, symObjAddr: 0xC878, symBinAddr: 0x22218, symSize: 0x3C }
  - { offset: 0x1DBE67, size: 0x8, addend: 0x0, symName: __ZNK8facebook5react8RawValuecvT_IfEEv, symObjAddr: 0xC8EC, symBinAddr: 0x22254, symSize: 0x38 }
  - { offset: 0x1DBE7B, size: 0x8, addend: 0x0, symName: __ZNKSt3__112__hash_tableINS_17__hash_value_typeINS_12basic_stringIcNS_11char_traitsIcEENS_9allocatorIcEEEEN8facebook5react8RawValueEEENS_22__unordered_map_hasherIS7_SB_NS_4hashIS7_EENS_8equal_toIS7_EELb1EEENS_21__unordered_map_equalIS7_SB_SG_SE_Lb1EEENS5_ISB_EEE4findIS7_EENS_21__hash_const_iteratorIPNS_11__hash_nodeISB_PvEEEERKT_, symObjAddr: 0xEE8C, symBinAddr: 0x228C0, symSize: 0xF8 }
  - { offset: 0x1DC06A, size: 0x8, addend: 0x0, symName: __ZNK8facebook5react8RawValuecvT_IfEEv, symObjAddr: 0xC8EC, symBinAddr: 0x22254, symSize: 0x38 }
  - { offset: 0x1DC3F4, size: 0x8, addend: 0x0, symName: __ZN8facebook5react8RawValue14checkValueTypeIS1_EEbPNS_3jsi7RuntimeERKNS3_5ValueEPNSt3__113unordered_mapINS9_12basic_stringIcNS9_11char_traitsIcEENS9_9allocatorIcEEEET_NS9_4hashISG_EENS9_8equal_toISG_EENSE_INS9_4pairIKSG_SH_EEEEEE, symObjAddr: 0xD798, symBinAddr: 0x2275C, symSize: 0x164 }
  - { offset: 0x1DC8CA, size: 0x8, addend: 0x0, symName: __ZN8facebook5react8RawValue14checkValueTypeIfEEbPNS_3jsi7RuntimeERKNS3_5ValueEPNSt3__16vectorIT_NS9_9allocatorISB_EEEE, symObjAddr: 0xD2A0, symBinAddr: 0x2228C, symSize: 0x104 }
  - { offset: 0x1DCD07, size: 0x8, addend: 0x0, symName: __ZN8facebook5react8RawValue9castValueIfEENSt3__16vectorIT_NS3_9allocatorIS5_EEEERKN5folly7dynamicEPS8_, symObjAddr: 0xD3A4, symBinAddr: 0x22390, symSize: 0xBC }
  - { offset: 0x1DD01F, size: 0x8, addend: 0x0, symName: __ZN8facebook5react8RawValue9castValueIfEENSt3__16vectorIT_NS3_9allocatorIS5_EEEEPNS_3jsi7RuntimeERKNS9_5ValueEPS8_, symObjAddr: 0xD460, symBinAddr: 0x2244C, symSize: 0x174 }
  - { offset: 0x1DD697, size: 0x8, addend: 0x0, symName: __ZN8facebook5react8RawValue14checkValueTypeIS1_EEbPNS_3jsi7RuntimeERKNS3_5ValueEPNSt3__113unordered_mapINS9_12basic_stringIcNS9_11char_traitsIcEENS9_9allocatorIcEEEET_NS9_4hashISG_EENS9_8equal_toISG_EENSE_INS9_4pairIKSG_SH_EEEEEE, symObjAddr: 0xD798, symBinAddr: 0x2275C, symSize: 0x164 }
  - { offset: 0x1DFDF9, size: 0x8, addend: 0x0, symName: __ZNSt3__16vectorIfNS_9allocatorIfEEE7reserveEm, symObjAddr: 0xD5D4, symBinAddr: 0x225C0, symSize: 0x8C }
  - { offset: 0x1E0027, size: 0x8, addend: 0x0, symName: __ZNSt3__16vectorIfNS_9allocatorIfEEE9push_backB8ne200100EOf, symObjAddr: 0xD660, symBinAddr: 0x2264C, symSize: 0xDC }
  - { offset: 0x1E0032, size: 0x8, addend: 0x0, symName: __ZNSt3__16vectorIfNS_9allocatorIfEEE9push_backB8ne200100EOf, symObjAddr: 0xD660, symBinAddr: 0x2264C, symSize: 0xDC }
  - { offset: 0x1E04F7, size: 0x8, addend: 0x0, symName: __ZNSt3__119__allocate_at_leastB8ne200100INS_9allocatorIfEEEENS_19__allocation_resultINS_16allocator_traitsIT_E7pointerEEERS5_m, symObjAddr: 0xD750, symBinAddr: 0x22728, symSize: 0x34 }
  - { offset: 0x1E4B18, size: 0x8, addend: 0x0, symName: __ZN8facebook5react14convertRawPropINSt3__18optionalINS0_11SharedColorEEES5_EET_RKNS0_18PropsParserContextERKNS0_8RawPropsEPKcRKS6_RKT0_SE_SE_.cold.1, symObjAddr: 0x274E0, symBinAddr: 0xA6518, symSize: 0x40 }
  - { offset: 0x1E4B33, size: 0x8, addend: 0x0, symName: __ZN8facebook5react14convertRawPropINSt3__18optionalINS0_11SharedColorEEES5_EET_RKNS0_18PropsParserContextERKNS0_8RawPropsEPKcRKS6_RKT0_SE_SE_.cold.1, symObjAddr: 0x274E0, symBinAddr: 0xA6518, symSize: 0x40 }
  - { offset: 0x1E4B47, size: 0x8, addend: 0x0, symName: __ZN8facebook5react14convertRawPropINSt3__18optionalINS0_11SharedColorEEES5_EET_RKNS0_18PropsParserContextERKNS0_8RawPropsEPKcRKS6_RKT0_SE_SE_.cold.1, symObjAddr: 0x274E0, symBinAddr: 0xA6518, symSize: 0x40 }
  - { offset: 0x1E4B5C, size: 0x8, addend: 0x0, symName: __ZN8facebook5react14convertRawPropINSt3__18optionalINS0_11SharedColorEEES5_EET_RKNS0_18PropsParserContextERKNS0_8RawPropsEPKcRKS6_RKT0_SE_SE_.cold.1, symObjAddr: 0x274E0, symBinAddr: 0xA6518, symSize: 0x40 }
  - { offset: 0x1E4B71, size: 0x8, addend: 0x0, symName: __ZN8facebook5react14convertRawPropINSt3__18optionalINS0_11SharedColorEEES5_EET_RKNS0_18PropsParserContextERKNS0_8RawPropsEPKcRKS6_RKT0_SE_SE_.cold.1, symObjAddr: 0x274E0, symBinAddr: 0xA6518, symSize: 0x40 }
  - { offset: 0x1E4B86, size: 0x8, addend: 0x0, symName: __ZN8facebook5react14convertRawPropINSt3__18optionalINS0_11SharedColorEEES5_EET_RKNS0_18PropsParserContextERKNS0_8RawPropsEPKcRKS6_RKT0_SE_SE_.cold.1, symObjAddr: 0x274E0, symBinAddr: 0xA6518, symSize: 0x40 }
  - { offset: 0x1E4B9B, size: 0x8, addend: 0x0, symName: __ZN8facebook5react14convertRawPropINSt3__18optionalINS0_11SharedColorEEES5_EET_RKNS0_18PropsParserContextERKNS0_8RawPropsEPKcRKS6_RKT0_SE_SE_.cold.1, symObjAddr: 0x274E0, symBinAddr: 0xA6518, symSize: 0x40 }
  - { offset: 0x1E4BB0, size: 0x8, addend: 0x0, symName: __ZN8facebook5react14convertRawPropINSt3__18optionalINS0_11SharedColorEEES5_EET_RKNS0_18PropsParserContextERKNS0_8RawPropsEPKcRKS6_RKT0_SE_SE_.cold.1, symObjAddr: 0x274E0, symBinAddr: 0xA6518, symSize: 0x40 }
  - { offset: 0x1E4BC5, size: 0x8, addend: 0x0, symName: __ZN8facebook5react14convertRawPropINSt3__18optionalINS0_11SharedColorEEES5_EET_RKNS0_18PropsParserContextERKNS0_8RawPropsEPKcRKS6_RKT0_SE_SE_.cold.1, symObjAddr: 0x274E0, symBinAddr: 0xA6518, symSize: 0x40 }
  - { offset: 0x1E93CA, size: 0x8, addend: 0x0, symName: __ZN8facebook5react16parseCSSPropertyIJNS0_7CSSListINS0_9CSSShadowELNS0_12CSSDelimiterE4EEEEEENS0_6detail13merge_variantIJNS6_16merge_data_typesIJNS0_14CSSWideKeywordEDpT_EE4typeENSt3__19monostateEEE4typeENSE_17basic_string_viewIcNSE_11char_traitsIcEEEE, symObjAddr: 0x12354, symBinAddr: 0x247F4, symSize: 0xFC }
  - { offset: 0x1E93DE, size: 0x8, addend: 0x0, symName: __ZNSt3__16vectorIN8facebook5react9BoxShadowENS_9allocatorIS3_EEE9push_backB8ne200100ERKS3_, symObjAddr: 0x125A0, symBinAddr: 0x24A40, symSize: 0x74 }
  - { offset: 0x1E9681, size: 0x8, addend: 0x0, symName: __ZNSt3__16vectorIN8facebook5react9BoxShadowENS_9allocatorIS3_EEE18__assign_with_sizeB8ne200100IPKS3_S9_EEvT_T0_l, symObjAddr: 0x1C33C, symBinAddr: 0x2D4AC, symSize: 0x188 }
  - { offset: 0x1EA04B, size: 0x8, addend: 0x0, symName: __ZNSt3__16vectorIN8facebook5react9BoxShadowENS_9allocatorIS3_EEE13__vdeallocateEv, symObjAddr: 0x1C4C4, symBinAddr: 0x2D634, symSize: 0x68 }
  - { offset: 0x1EA567, size: 0x8, addend: 0x0, symName: __ZN8facebook5react16parseCSSPropertyIJNS0_9CSSLengthEEEENS0_6detail13merge_variantIJNS3_16merge_data_typesIJNS0_14CSSWideKeywordEDpT_EE4typeENSt3__19monostateEEE4typeENSB_17basic_string_viewIcNSB_11char_traitsIcEEEE, symObjAddr: 0x1B2D8, symBinAddr: 0x2CCDC, symSize: 0xE8 }
  - { offset: 0x1EAEB7, size: 0x8, addend: 0x0, symName: __ZNSt3__116__variant_detail6__dtorINS0_8__traitsIJNS_9monostateEN8facebook5react14CSSWideKeywordENS5_7CSSListINS5_9CSSShadowELNS5_12CSSDelimiterE4EEEEEELNS0_6_TraitE1EE9__destroyB8ne200100Ev, symObjAddr: 0x1A460, symBinAddr: 0x2C0D0, symSize: 0x54 }
  - { offset: 0x1EC1B6, size: 0x8, addend: 0x0, symName: __ZN8facebook5react12CSSTokenizer4nextEv, symObjAddr: 0x126B0, symBinAddr: 0x24B50, symSize: 0x30C }
  - { offset: 0x1ECC5E, size: 0x8, addend: 0x0, symName: __ZN8facebook5react6detail14CSSValueParser12consumeValueIJNS0_14CSSWideKeywordENS0_7CSSListINS0_9CSSShadowELNS0_12CSSDelimiterE4EEEEEENSt3__17variantIJNS9_9monostateEDpT_EEES7_NS0_19CSSCompoundDataTypeIJSD_EEE, symObjAddr: 0x12614, symBinAddr: 0x24AB4, symSize: 0x9C }
  - { offset: 0x1ED28E, size: 0x8, addend: 0x0, symName: __ZNSt3__116__variant_detail18__move_constructorINS0_8__traitsIJNS_9monostateEN8facebook5react14CSSWideKeywordENS5_7CSSListINS5_9CSSShadowELNS5_12CSSDelimiterE4EEEEEELNS0_6_TraitE1EEC2B8ne200100EOSD_, symObjAddr: 0x1A748, symBinAddr: 0x2C3B8, symSize: 0x34 }
  - { offset: 0x1ED71F, size: 0x8, addend: 0x0, symName: __ZNSt3__16vectorIN8facebook5react9BoxShadowENS_9allocatorIS3_EEE24__emplace_back_slow_pathIJRKS3_EEEPS3_DpOT_, symObjAddr: 0x1A818, symBinAddr: 0x2C488, symSize: 0x134 }
  - { offset: 0x1EDCDA, size: 0x8, addend: 0x0, symName: __ZN8facebook5react6detail14CSSValueParser16tryConsumeParserINSt3__17variantIJNS4_9monostateENS0_14CSSWideKeywordENS0_7CSSListINS0_9CSSShadowELNS0_12CSSDelimiterE4EEEEEENS0_17CSSDataTypeParserISB_EEJEEET_SA_, symObjAddr: 0x14AC8, symBinAddr: 0x26F68, symSize: 0xFC }
  - { offset: 0x1EE7B0, size: 0x8, addend: 0x0, symName: __ZN8facebook5react34CSSComponentValueVisitorDispatcherINSt3__17variantIJNS2_9monostateENS0_14CSSWideKeywordENS0_7CSSListINS0_9CSSShadowELNS0_12CSSDelimiterE4EEEEEEJRKZNS0_6detail14CSSValueParser12consumeValueIJS5_S9_EEENS3_IJS4_DpT_EEES8_NS0_19CSSCompoundDataTypeIJSF_EEEEUlRKNS0_8CSSTokenEE_RKZNSD_IJS5_S9_EEESG_S8_SI_EUlRKNS0_14CSSSimpleBlockERNS0_15CSSSyntaxParserEE_RKZNSD_IJS5_S9_EEESG_S8_SI_EUlRKNS0_16CSSFunctionBlockEST_E_EE21consumeComponentValueES8_SO_SW_S12_, symObjAddr: 0x19F98, symBinAddr: 0x2BC08, symSize: 0x204 }
  - { offset: 0x1EF5D2, size: 0x8, addend: 0x0, symName: __ZN8facebook5react12CSSTokenizer17consumeWhitespaceEv, symObjAddr: 0x129BC, symBinAddr: 0x24E5C, symSize: 0x78 }
  - { offset: 0x1EF765, size: 0x8, addend: 0x0, symName: __ZNK8facebook5react12CSSTokenizer16wouldStartNumberEv, symObjAddr: 0x12A34, symBinAddr: 0x24ED4, symSize: 0x90 }
  - { offset: 0x1EF78E, size: 0x8, addend: 0x0, symName: __ZNK8facebook5react12CSSTokenizer16wouldStartNumberEv, symObjAddr: 0x12A34, symBinAddr: 0x24ED4, symSize: 0x90 }
  - { offset: 0x1EF894, size: 0x8, addend: 0x0, symName: __ZN8facebook5react12CSSTokenizer14consumeNumericEv, symObjAddr: 0x12AC4, symBinAddr: 0x24F64, symSize: 0x108 }
  - { offset: 0x1EFC0B, size: 0x8, addend: 0x0, symName: __ZN8facebook5react12CSSTokenizer21consumeIdentlikeTokenEv, symObjAddr: 0x12C34, symBinAddr: 0x250D4, symSize: 0x8C }
  - { offset: 0x1EFDAB, size: 0x8, addend: 0x0, symName: __ZN8facebook5react12CSSTokenizer11consumeHashEv, symObjAddr: 0x12BCC, symBinAddr: 0x2506C, symSize: 0x68 }
  - { offset: 0x1F0037, size: 0x8, addend: 0x0, symName: __ZN8facebook5react12CSSTokenizer13consumeNumberEv, symObjAddr: 0x12CC0, symBinAddr: 0x25160, symSize: 0x80 }
  - { offset: 0x1F0277, size: 0x8, addend: 0x0, symName: __ZN8facebook5react12CSSTokenizer20consumeIdentSequenceEv, symObjAddr: 0x12D40, symBinAddr: 0x251E0, symSize: 0x98 }
  - { offset: 0x1F07D4, size: 0x8, addend: 0x0, symName: __ZN10fast_float6bigint4pow5Ej, symObjAddr: 0x1450C, symBinAddr: 0x269AC, symSize: 0x130 }
  - { offset: 0x1F09BF, size: 0x8, addend: 0x0, symName: __ZN10fast_float6bigint3shlEm, symObjAddr: 0x149C0, symBinAddr: 0x26E60, symSize: 0xA0 }
  - { offset: 0x1F0C5A, size: 0x8, addend: 0x0, symName: __ZNK10fast_float6bigint4hi64ERb, symObjAddr: 0x14450, symBinAddr: 0x268F0, symSize: 0xBC }
  - { offset: 0x1F0C92, size: 0x8, addend: 0x0, symName: __ZNK10fast_float6bigint4hi64ERb, symObjAddr: 0x14450, symBinAddr: 0x268F0, symSize: 0xBC }
  - { offset: 0x1F0E85, size: 0x8, addend: 0x0, symName: __ZN10fast_float6bigint3mulEy, symObjAddr: 0x143F4, symBinAddr: 0x26894, symSize: 0x5C }
  - { offset: 0x1F1409, size: 0x8, addend: 0x0, symName: __ZN10fast_float6bigint8shl_bitsEm, symObjAddr: 0x14A60, symBinAddr: 0x26F00, symSize: 0x68 }
  - { offset: 0x1F1C9F, size: 0x8, addend: 0x0, symName: __ZN8facebook5react15CSSSyntaxParser16consumeDelimiterENS0_12CSSDelimiterE, symObjAddr: 0x14BC4, symBinAddr: 0x27064, symSize: 0x164 }
  - { offset: 0x1F1F1A, size: 0x8, addend: 0x0, symName: __ZNSt3__16vectorIN8facebook5react9CSSShadowENS_9allocatorIS3_EEE16__init_with_sizeB8ne200100IPS3_S8_EEvT_T0_m, symObjAddr: 0x19ED8, symBinAddr: 0x2BB48, symSize: 0x78 }
  - { offset: 0x1F28AA, size: 0x8, addend: 0x0, symName: __ZN8facebook5react6detail14CSSValueParser12consumeValueIJNS0_9CSSShadowEEEENSt3__17variantIJNS5_9monostateEDpT_EEENS0_12CSSDelimiterENS0_19CSSCompoundDataTypeIJS9_EEE, symObjAddr: 0x14E58, symBinAddr: 0x272F8, symSize: 0x88 }
  - { offset: 0x1F2CE3, size: 0x8, addend: 0x0, symName: __ZN8facebook5react6detail14CSSValueParser16tryConsumeParserINSt3__17variantIJNS4_9monostateENS0_9CSSShadowEEEENS0_17CSSDataTypeParserIS7_EEJEEET_NS0_12CSSDelimiterE, symObjAddr: 0x14EE0, symBinAddr: 0x27380, symSize: 0xA0 }
  - { offset: 0x1F3266, size: 0x8, addend: 0x0, symName: __ZN8facebook5react34CSSComponentValueVisitorDispatcherINSt3__17variantIJNS2_9monostateENS0_9CSSShadowEEEEJRKZNS0_6detail14CSSValueParser12consumeValueIJS5_EEENS3_IJS4_DpT_EEENS0_12CSSDelimiterENS0_19CSSCompoundDataTypeIJSB_EEEEUlRKNS0_8CSSTokenEE_RKZNS9_IJS5_EEESC_SD_SF_EUlRKNS0_14CSSSimpleBlockERNS0_15CSSSyntaxParserEE_RKZNS9_IJS5_EEESC_SD_SF_EUlRKNS0_16CSSFunctionBlockESQ_E_EE21consumeComponentValueESD_SL_ST_SZ_, symObjAddr: 0x19A98, symBinAddr: 0x2B7D0, symSize: 0x16C }
  - { offset: 0x1F3CA0, size: 0x8, addend: 0x0, symName: __ZN8facebook5react17CSSDataTypeParserINS0_9CSSShadowEE7consumeERNS0_15CSSSyntaxParserE, symObjAddr: 0x14F80, symBinAddr: 0x27420, symSize: 0x158 }
  - { offset: 0x1F44C8, size: 0x8, addend: 0x0, symName: __ZN8facebook5react17CSSDataTypeParserINS0_9CSSShadowEE16parseRestLengthsENS0_9CSSLengthERNS0_15CSSSyntaxParserE, symObjAddr: 0x15118, symBinAddr: 0x275B8, symSize: 0xF4 }
  - { offset: 0x1F4AAC, size: 0x8, addend: 0x0, symName: __ZN8facebook5react34CSSComponentValueVisitorDispatcherINSt3__17variantIJNS2_9monostateENS0_9CSSLengthENS0_8CSSColorENS0_21CSSInsetShadowKeywordEEEEJRKZNS0_6detail14CSSValueParser12consumeValueIJS5_S6_S7_EEENS3_IJS4_DpT_EEENS0_12CSSDelimiterENS0_19CSSCompoundDataTypeIJSD_EEEEUlRKNS0_8CSSTokenEE_RKZNSB_IJS5_S6_S7_EEESE_SF_SH_EUlRKNS0_14CSSSimpleBlockERNS0_15CSSSyntaxParserEE_RKZNSB_IJS5_S6_S7_EEESE_SF_SH_EUlRKNS0_16CSSFunctionBlockESS_E_EE21consumeComponentValueESF_SN_SV_S11_, symObjAddr: 0x1520C, symBinAddr: 0x276AC, symSize: 0x13C }
  - { offset: 0x1F4C84, size: 0x8, addend: 0x0, symName: __ZN8facebook5react34CSSComponentValueVisitorDispatcherINSt3__17variantIJNS2_9monostateENS0_9CSSLengthENS0_8CSSColorENS0_21CSSInsetShadowKeywordEEEEJRKZNS0_6detail14CSSValueParser12consumeValueIJS5_S6_S7_EEENS3_IJS4_DpT_EEENS0_12CSSDelimiterENS0_19CSSCompoundDataTypeIJSD_EEEEUlRKNS0_8CSSTokenEE_RKZNSB_IJS5_S6_S7_EEESE_SF_SH_EUlRKNS0_14CSSSimpleBlockERNS0_15CSSSyntaxParserEE_RKZNSB_IJS5_S6_S7_EEESE_SF_SH_EUlRKNS0_16CSSFunctionBlockESS_E_EE21consumeComponentValueESF_SN_SV_S11_, symObjAddr: 0x1520C, symBinAddr: 0x276AC, symSize: 0x13C }
  - { offset: 0x1F539C, size: 0x8, addend: 0x0, symName: __ZN8facebook5react34CSSComponentValueVisitorDispatcherINSt3__17variantIJNS2_9monostateENS0_9CSSLengthENS0_8CSSColorENS0_21CSSInsetShadowKeywordEEEEJRKZNS0_6detail14CSSValueParser12consumeValueIJS5_S6_S7_EEENS3_IJS4_DpT_EEENS0_12CSSDelimiterENS0_19CSSCompoundDataTypeIJSD_EEEEUlRKNS0_8CSSTokenEE_RKZNSB_IJS5_S6_S7_EEESE_SF_SH_EUlRKNS0_14CSSSimpleBlockERNS0_15CSSSyntaxParserEE_RKZNSB_IJS5_S6_S7_EEESE_SF_SH_EUlRKNS0_16CSSFunctionBlockESS_E_EE19visitPreservedTokenISL_JST_SZ_EEENS2_8optionalIS8_EERKT_DpRKT0_, symObjAddr: 0x15348, symBinAddr: 0x277E8, symSize: 0x78 }
  - { offset: 0x1F54B6, size: 0x8, addend: 0x0, symName: __ZN8facebook5react34CSSComponentValueVisitorDispatcherINSt3__17variantIJNS2_9monostateENS0_9CSSLengthENS0_8CSSColorENS0_21CSSInsetShadowKeywordEEEEJRKZNS0_6detail14CSSValueParser12consumeValueIJS5_S6_S7_EEENS3_IJS4_DpT_EEENS0_12CSSDelimiterENS0_19CSSCompoundDataTypeIJSD_EEEEUlRKNS0_8CSSTokenEE_RKZNSB_IJS5_S6_S7_EEESE_SF_SH_EUlRKNS0_14CSSSimpleBlockERNS0_15CSSSyntaxParserEE_RKZNSB_IJS5_S6_S7_EEESE_SF_SH_EUlRKNS0_16CSSFunctionBlockESS_E_EE13visitFunctionISZ_JEEENS2_8optionalIS8_EERKT_DpRKT0_, symObjAddr: 0x153C0, symBinAddr: 0x27860, symSize: 0x180 }
  - { offset: 0x1F5A43, size: 0x8, addend: 0x0, symName: __ZN8facebook5react6detail14CSSValueParser24tryConsumePreservedTokenINSt3__17variantIJNS4_9monostateENS0_9CSSLengthENS0_8CSSColorENS0_21CSSInsetShadowKeywordEEEENS0_17CSSDataTypeParserIS7_EEJNSB_IS8_EENSB_IS9_EEEEET_RKNS0_8CSSTokenE, symObjAddr: 0x17668, symBinAddr: 0x294F0, symSize: 0x44 }
  - { offset: 0x1F5DA0, size: 0x8, addend: 0x0, symName: __ZN8facebook5react6detail14CSSValueParser23tryConsumeFunctionBlockINSt3__17variantIJNS4_9monostateENS0_9CSSLengthENS0_8CSSColorENS0_21CSSInsetShadowKeywordEEEENS0_17CSSDataTypeParserIS8_EEJNSB_IS9_EEEEET_RKNS0_16CSSFunctionBlockERNS0_15CSSSyntaxParserE, symObjAddr: 0x15540, symBinAddr: 0x279E0, symSize: 0x70 }
  - { offset: 0x1F6650, size: 0x8, addend: 0x0, symName: __ZN8facebook5react34CSSComponentValueVisitorDispatcherINSt3__17variantIJNS2_9monostateENS0_9CSSNumberENS0_8CSSAngleEEEEJRKZNS0_6detail14CSSValueParser12consumeValueIJS5_S6_EEENS3_IJS4_DpT_EEENS0_12CSSDelimiterENS0_19CSSCompoundDataTypeIJSC_EEEEUlRKNS0_8CSSTokenEE_RKZNSA_IJS5_S6_EEESD_SE_SG_EUlRKNS0_14CSSSimpleBlockERNS0_15CSSSyntaxParserEE_RKZNSA_IJS5_S6_EEESD_SE_SG_EUlRKNS0_16CSSFunctionBlockESR_E_EE21consumeComponentValueESE_SM_SU_S10_, symObjAddr: 0x16CB8, symBinAddr: 0x28E10, symSize: 0x134 }
  - { offset: 0x1F696D, size: 0x8, addend: 0x0, symName: __ZN8facebook5react34CSSComponentValueVisitorDispatcherINSt3__17variantIJNS2_9monostateENS0_9CSSNumberENS0_13CSSPercentageEEEEJRKZNS0_6detail14CSSValueParser12consumeValueIJS5_S6_EEENS3_IJS4_DpT_EEENS0_12CSSDelimiterENS0_19CSSCompoundDataTypeIJSC_EEEEUlRKNS0_8CSSTokenEE_RKZNSA_IJS5_S6_EEESD_SE_SG_EUlRKNS0_14CSSSimpleBlockERNS0_15CSSSyntaxParserEE_RKZNSA_IJS5_S6_EEESD_SE_SG_EUlRKNS0_16CSSFunctionBlockESR_E_EE21consumeComponentValueESE_SM_SU_S10_, symObjAddr: 0x15EF8, symBinAddr: 0x28398, symSize: 0x188 }
  - { offset: 0x1F6C81, size: 0x8, addend: 0x0, symName: __ZN8facebook5react34CSSComponentValueVisitorDispatcherIbJRKZNS0_6detail21isLegacyColorFunctionIJNS0_9CSSNumberENS0_13CSSPercentageEEEEbRNS0_15CSSSyntaxParserEEUlNS0_8CSSTokenEE_EE21consumeComponentValueENS0_12CSSDelimiterESB_, symObjAddr: 0x161D0, symBinAddr: 0x285C8, symSize: 0xD8 }
  - { offset: 0x1F7257, size: 0x8, addend: 0x0, symName: __ZN8facebook5react34CSSComponentValueVisitorDispatcherINSt3__17variantIJNS2_9monostateENS0_9CSSNumberEEEEJRKZNS0_6detail14CSSValueParser12consumeValueIJS5_EEENS3_IJS4_DpT_EEENS0_12CSSDelimiterENS0_19CSSCompoundDataTypeIJSB_EEEEUlRKNS0_8CSSTokenEE_RKZNS9_IJS5_EEESC_SD_SF_EUlRKNS0_14CSSSimpleBlockERNS0_15CSSSyntaxParserEE_RKZNS9_IJS5_EEESC_SD_SF_EUlRKNS0_16CSSFunctionBlockESQ_E_EE21consumeComponentValueESD_SL_ST_SZ_, symObjAddr: 0x162A8, symBinAddr: 0x286A0, symSize: 0x170 }
  - { offset: 0x1F7582, size: 0x8, addend: 0x0, symName: __ZN8facebook5react34CSSComponentValueVisitorDispatcherINSt3__17variantIJNS2_9monostateENS0_13CSSPercentageEEEEJRKZNS0_6detail14CSSValueParser12consumeValueIJS5_EEENS3_IJS4_DpT_EEENS0_12CSSDelimiterENS0_19CSSCompoundDataTypeIJSB_EEEEUlRKNS0_8CSSTokenEE_RKZNS9_IJS5_EEESC_SD_SF_EUlRKNS0_14CSSSimpleBlockERNS0_15CSSSyntaxParserEE_RKZNS9_IJS5_EEESC_SD_SF_EUlRKNS0_16CSSFunctionBlockESQ_E_EE21consumeComponentValueESD_SL_ST_SZ_, symObjAddr: 0x16568, symBinAddr: 0x28810, symSize: 0x170 }
  - { offset: 0x1F7B11, size: 0x8, addend: 0x0, symName: __ZN8facebook5react34CSSComponentValueVisitorDispatcherINSt3__17variantIJNS2_9monostateENS0_9CSSNumberENS0_13CSSPercentageEEEEJRKZNS0_6detail14CSSValueParser12consumeValueIJS5_S6_EEENS3_IJS4_DpT_EEENS0_12CSSDelimiterENS0_19CSSCompoundDataTypeIJSC_EEEEUlRKNS0_8CSSTokenEE_RKZNSA_IJS5_S6_EEESD_SE_SG_EUlRKNS0_14CSSSimpleBlockERNS0_15CSSSyntaxParserEE_RKZNSA_IJS5_S6_EEESD_SE_SG_EUlRKNS0_16CSSFunctionBlockESR_E_EE13visitFunctionISY_JEEENS2_8optionalIS7_EERKT_DpRKT0_, symObjAddr: 0x16080, symBinAddr: 0x28520, symSize: 0xA8 }
  - { offset: 0x1F861D, size: 0x8, addend: 0x0, symName: __ZN8facebook5react34CSSComponentValueVisitorDispatcherINSt3__17variantIJNS2_9monostateENS0_9CSSNumberENS0_8CSSAngleEEEEJRKZNS0_6detail14CSSValueParser12consumeValueIJS5_S6_EEENS3_IJS4_DpT_EEENS0_12CSSDelimiterENS0_19CSSCompoundDataTypeIJSC_EEEEUlRKNS0_8CSSTokenEE_RKZNSA_IJS5_S6_EEESD_SE_SG_EUlRKNS0_14CSSSimpleBlockERNS0_15CSSSyntaxParserEE_RKZNSA_IJS5_S6_EEESD_SE_SG_EUlRKNS0_16CSSFunctionBlockESR_E_EE19visitPreservedTokenISK_JSS_SY_EEENS2_8optionalIS7_EERKT_DpRKT0_, symObjAddr: 0x16DEC, symBinAddr: 0x28F44, symSize: 0x98 }
  - { offset: 0x1F8B2F, size: 0x8, addend: 0x0, symName: __ZN8facebook5react17CSSDataTypeParserINS0_8CSSAngleEE21consumePreservedTokenERKNS0_8CSSTokenE, symObjAddr: 0x16FD4, symBinAddr: 0x28FDC, symSize: 0xCC }
  - { offset: 0x1F8B55, size: 0x8, addend: 0x0, symName: __ZN8facebook5react17CSSDataTypeParserINS0_8CSSAngleEE21consumePreservedTokenERKNS0_8CSSTokenE, symObjAddr: 0x16FD4, symBinAddr: 0x28FDC, symSize: 0xCC }
  - { offset: 0x1F8EAE, size: 0x8, addend: 0x0, symName: __ZN8facebook5react17CSSDataTypeParserINS0_9CSSLengthEE21consumePreservedTokenERKNS0_8CSSTokenE, symObjAddr: 0x176AC, symBinAddr: 0x29534, symSize: 0x94 }
  - { offset: 0x1F9012, size: 0x8, addend: 0x0, symName: __ZN8facebook5react6detail14CSSValueParser24tryConsumePreservedTokenINSt3__17variantIJNS4_9monostateENS0_9CSSLengthENS0_8CSSColorENS0_21CSSInsetShadowKeywordEEEENS0_17CSSDataTypeParserIS8_EEJNSB_IS9_EEEEET_RKNS0_8CSSTokenE, symObjAddr: 0x17740, symBinAddr: 0x295C8, symSize: 0x50 }
  - { offset: 0x1F92BC, size: 0x8, addend: 0x0, symName: __ZN8facebook5react17CSSDataTypeParserINS0_8CSSColorEE21consumePreservedTokenERKNS0_8CSSTokenE, symObjAddr: 0x17D7C, symBinAddr: 0x29C04, symSize: 0x68 }
  - { offset: 0x1F934E, size: 0x8, addend: 0x0, symName: __ZN8facebook5react17CSSDataTypeParserINS0_21CSSInsetShadowKeywordEE21consumePreservedTokenERKNS0_8CSSTokenE, symObjAddr: 0x19630, symBinAddr: 0x2B4B8, symSize: 0x40 }
  - { offset: 0x1F9375, size: 0x8, addend: 0x0, symName: __ZN8facebook5react17CSSDataTypeParserINS0_21CSSInsetShadowKeywordEE21consumePreservedTokenERKNS0_8CSSTokenE, symObjAddr: 0x19630, symBinAddr: 0x2B4B8, symSize: 0x40 }
  - { offset: 0x1F9560, size: 0x8, addend: 0x0, symName: __ZN8facebook5react34CSSComponentValueVisitorDispatcherINSt3__17variantIJNS2_9monostateENS0_9CSSLengthEEEEJRKZNS0_6detail14CSSValueParser12consumeValueIJS5_EEENS3_IJS4_DpT_EEENS0_12CSSDelimiterENS0_19CSSCompoundDataTypeIJSB_EEEEUlRKNS0_8CSSTokenEE_RKZNS9_IJS5_EEESC_SD_SF_EUlRKNS0_14CSSSimpleBlockERNS0_15CSSSyntaxParserEE_RKZNS9_IJS5_EEESC_SD_SF_EUlRKNS0_16CSSFunctionBlockESQ_E_EE21consumeComponentValueESD_SL_ST_SZ_, symObjAddr: 0x19718, symBinAddr: 0x2B5A0, symSize: 0x13C }
  - { offset: 0x1F98DF, size: 0x8, addend: 0x0, symName: __ZN8facebook5react34CSSComponentValueVisitorDispatcherINSt3__17variantIJNS2_9monostateENS0_9CSSLengthEEEEJRKZNS0_6detail14CSSValueParser12consumeValueIJS5_EEENS3_IJS4_DpT_EEENS0_12CSSDelimiterENS0_19CSSCompoundDataTypeIJSB_EEEEUlRKNS0_8CSSTokenEE_RKZNS9_IJS5_EEESC_SD_SF_EUlRKNS0_14CSSSimpleBlockERNS0_15CSSSyntaxParserEE_RKZNS9_IJS5_EEESC_SD_SF_EUlRKNS0_16CSSFunctionBlockESQ_E_EE19visitPreservedTokenISJ_JSR_SX_EEENS2_8optionalIS6_EERKT_DpRKT0_, symObjAddr: 0x19854, symBinAddr: 0x2B6DC, symSize: 0xC4 }
  - { offset: 0x1FA513, size: 0x8, addend: 0x0, symName: __ZNSt3__116__variant_detail12__visitation6__base12__dispatcherIJLm0ELm0EEE10__dispatchB8ne200100IONS1_9__variant15__value_visitorINS_17__convert_to_boolINS_12not_equal_toIvEEEEEEJRKNS0_6__baseILNS0_6_TraitE0EJNS_9monostateEN8facebook5react9CSSLengthEEEESM_EEEDcT_DpT0_, symObjAddr: 0x199C0, symBinAddr: 0x2B7A0, symSize: 0x8 }
  - { offset: 0x1FA696, size: 0x8, addend: 0x0, symName: __ZNSt3__116__variant_detail12__visitation6__base12__dispatcherIJLm1ELm1EEE10__dispatchB8ne200100IONS1_9__variant15__value_visitorINS_17__convert_to_boolINS_12not_equal_toIvEEEEEEJRKNS0_6__baseILNS0_6_TraitE0EJNS_9monostateEN8facebook5react9CSSLengthEEEESM_EEEDcT_DpT0_, symObjAddr: 0x199C8, symBinAddr: 0x2B7A8, symSize: 0x28 }
  - { offset: 0x1FA6DB, size: 0x8, addend: 0x0, symName: __ZNSt3__116__variant_detail12__visitation6__base12__dispatcherIJLm1ELm1EEE10__dispatchB8ne200100IONS1_9__variant15__value_visitorINS_17__convert_to_boolINS_12not_equal_toIvEEEEEEJRKNS0_6__baseILNS0_6_TraitE0EJNS_9monostateEN8facebook5react9CSSLengthEEEESM_EEEDcT_DpT0_, symObjAddr: 0x199C8, symBinAddr: 0x2B7A8, symSize: 0x28 }
  - { offset: 0x1FA705, size: 0x8, addend: 0x0, symName: __ZNSt3__116__variant_detail12__visitation6__base12__dispatcherIJLm1ELm1EEE10__dispatchB8ne200100IONS1_9__variant15__value_visitorINS_17__convert_to_boolINS_12not_equal_toIvEEEEEEJRKNS0_6__baseILNS0_6_TraitE0EJNS_9monostateEN8facebook5react9CSSLengthEEEESM_EEEDcT_DpT0_, symObjAddr: 0x199C8, symBinAddr: 0x2B7A8, symSize: 0x28 }
  - { offset: 0x1FA72E, size: 0x8, addend: 0x0, symName: __ZNSt3__116__variant_detail12__visitation6__base12__dispatcherIJLm1ELm1EEE10__dispatchB8ne200100IONS1_9__variant15__value_visitorINS_17__convert_to_boolINS_12not_equal_toIvEEEEEEJRKNS0_6__baseILNS0_6_TraitE0EJNS_9monostateEN8facebook5react9CSSLengthEEEESM_EEEDcT_DpT0_, symObjAddr: 0x199C8, symBinAddr: 0x2B7A8, symSize: 0x28 }
  - { offset: 0x1FA751, size: 0x8, addend: 0x0, symName: __ZNSt3__116__variant_detail12__visitation6__base12__dispatcherIJLm1ELm1EEE10__dispatchB8ne200100IONS1_9__variant15__value_visitorINS_17__convert_to_boolINS_12not_equal_toIvEEEEEEJRKNS0_6__baseILNS0_6_TraitE0EJNS_9monostateEN8facebook5react9CSSLengthEEEESM_EEEDcT_DpT0_, symObjAddr: 0x199C8, symBinAddr: 0x2B7A8, symSize: 0x28 }
  - { offset: 0x1FA773, size: 0x8, addend: 0x0, symName: __ZNSt3__116__variant_detail12__visitation6__base12__dispatcherIJLm1ELm1EEE10__dispatchB8ne200100IONS1_9__variant15__value_visitorINS_17__convert_to_boolINS_12not_equal_toIvEEEEEEJRKNS0_6__baseILNS0_6_TraitE0EJNS_9monostateEN8facebook5react9CSSLengthEEEESM_EEEDcT_DpT0_, symObjAddr: 0x199C8, symBinAddr: 0x2B7A8, symSize: 0x28 }
  - { offset: 0x1FA796, size: 0x8, addend: 0x0, symName: __ZNSt3__116__variant_detail12__visitation6__base12__dispatcherIJLm1ELm1EEE10__dispatchB8ne200100IONS1_9__variant15__value_visitorINS_17__convert_to_boolINS_12not_equal_toIvEEEEEEJRKNS0_6__baseILNS0_6_TraitE0EJNS_9monostateEN8facebook5react9CSSLengthEEEESM_EEEDcT_DpT0_, symObjAddr: 0x199C8, symBinAddr: 0x2B7A8, symSize: 0x28 }
  - { offset: 0x1FA977, size: 0x8, addend: 0x0, symName: __ZN8facebook5react34CSSComponentValueVisitorDispatcherINSt3__17variantIJNS2_9monostateENS0_9CSSShadowEEEEJRKZNS0_6detail14CSSValueParser12consumeValueIJS5_EEENS3_IJS4_DpT_EEENS0_12CSSDelimiterENS0_19CSSCompoundDataTypeIJSB_EEEEUlRKNS0_8CSSTokenEE_RKZNS9_IJS5_EEESC_SD_SF_EUlRKNS0_14CSSSimpleBlockERNS0_15CSSSyntaxParserEE_RKZNS9_IJS5_EEESC_SD_SF_EUlRKNS0_16CSSFunctionBlockESQ_E_EE13visitFunctionISX_JEEENS2_8optionalIS6_EERKT_DpRKT0_, symObjAddr: 0x19C04, symBinAddr: 0x2B93C, symSize: 0xB4 }
  - { offset: 0x1FAE4B, size: 0x8, addend: 0x0, symName: __ZNSt3__116__variant_detail12__visitation6__base12__dispatcherIJLm0EEE10__dispatchB8ne200100IONS1_9__variant15__value_visitorIZN8facebook5react17CSSDataTypeParserINS9_7CSSListINS9_9CSSShadowELNS9_12CSSDelimiterE4EEEE7consumeERNS9_15CSSSyntaxParserEEUlOT_E_EEJRNS0_6__baseILNS0_6_TraitE0EJNS_9monostateESC_EEEEEEDcSI_DpT0_, symObjAddr: 0x19D6C, symBinAddr: 0x2B9F0, symSize: 0x4 }
  - { offset: 0x1FAF18, size: 0x8, addend: 0x0, symName: __ZNSt3__116__variant_detail12__visitation6__base12__dispatcherIJLm1EEE10__dispatchB8ne200100IONS1_9__variant15__value_visitorIZN8facebook5react17CSSDataTypeParserINS9_7CSSListINS9_9CSSShadowELNS9_12CSSDelimiterE4EEEE7consumeERNS9_15CSSSyntaxParserEEUlOT_E_EEJRNS0_6__baseILNS0_6_TraitE0EJNS_9monostateESC_EEEEEEDcSI_DpT0_, symObjAddr: 0x19D70, symBinAddr: 0x2B9F4, symSize: 0xC }
  - { offset: 0x1FAF4E, size: 0x8, addend: 0x0, symName: __ZNSt3__116__variant_detail12__visitation6__base12__dispatcherIJLm1EEE10__dispatchB8ne200100IONS1_9__variant15__value_visitorIZN8facebook5react17CSSDataTypeParserINS9_7CSSListINS9_9CSSShadowELNS9_12CSSDelimiterE4EEEE7consumeERNS9_15CSSSyntaxParserEEUlOT_E_EEJRNS0_6__baseILNS0_6_TraitE0EJNS_9monostateESC_EEEEEEDcSI_DpT0_, symObjAddr: 0x19D70, symBinAddr: 0x2B9F4, symSize: 0xC }
  - { offset: 0x1FAF73, size: 0x8, addend: 0x0, symName: __ZNSt3__116__variant_detail12__visitation6__base12__dispatcherIJLm1EEE10__dispatchB8ne200100IONS1_9__variant15__value_visitorIZN8facebook5react17CSSDataTypeParserINS9_7CSSListINS9_9CSSShadowELNS9_12CSSDelimiterE4EEEE7consumeERNS9_15CSSSyntaxParserEEUlOT_E_EEJRNS0_6__baseILNS0_6_TraitE0EJNS_9monostateESC_EEEEEEDcSI_DpT0_, symObjAddr: 0x19D70, symBinAddr: 0x2B9F4, symSize: 0xC }
  - { offset: 0x1FB008, size: 0x8, addend: 0x0, symName: __ZNSt3__16vectorIN8facebook5react9CSSShadowENS_9allocatorIS3_EEE9push_backB8ne200100ERKS3_, symObjAddr: 0x19D7C, symBinAddr: 0x2BA00, symSize: 0x104 }
  - { offset: 0x1FB627, size: 0x8, addend: 0x0, symName: __ZNSt3__119__allocate_at_leastB8ne200100INS_9allocatorIN8facebook5react9CSSShadowEEEEENS_19__allocation_resultINS_16allocator_traitsIT_E7pointerEEERS8_m, symObjAddr: 0x19E94, symBinAddr: 0x2BB04, symSize: 0x44 }
  - { offset: 0x1FB7F8, size: 0x8, addend: 0x0, symName: __ZNSt3__16vectorIN8facebook5react9CSSShadowENS_9allocatorIS3_EEE11__vallocateB8ne200100Em, symObjAddr: 0x19F50, symBinAddr: 0x2BBC0, symSize: 0x48 }
  - { offset: 0x1FB84E, size: 0x8, addend: 0x0, symName: __ZN8facebook5react34CSSComponentValueVisitorDispatcherINSt3__17variantIJNS2_9monostateENS0_14CSSWideKeywordENS0_7CSSListINS0_9CSSShadowELNS0_12CSSDelimiterE4EEEEEEJRKZNS0_6detail14CSSValueParser12consumeValueIJS5_S9_EEENS3_IJS4_DpT_EEES8_NS0_19CSSCompoundDataTypeIJSF_EEEEUlRKNS0_8CSSTokenEE_RKZNSD_IJS5_S9_EEESG_S8_SI_EUlRKNS0_14CSSSimpleBlockERNS0_15CSSSyntaxParserEE_RKZNSD_IJS5_S9_EEESG_S8_SI_EUlRKNS0_16CSSFunctionBlockEST_E_EE21consumeComponentValueES8_SO_SW_S12_, symObjAddr: 0x19F98, symBinAddr: 0x2BC08, symSize: 0x204 }
  - { offset: 0x1FBBA3, size: 0x8, addend: 0x0, symName: __ZN8facebook5react34CSSComponentValueVisitorDispatcherINSt3__17variantIJNS2_9monostateENS0_14CSSWideKeywordENS0_7CSSListINS0_9CSSShadowELNS0_12CSSDelimiterE4EEEEEEJRKZNS0_6detail14CSSValueParser12consumeValueIJS5_S9_EEENS3_IJS4_DpT_EEES8_NS0_19CSSCompoundDataTypeIJSF_EEEEUlRKNS0_8CSSTokenEE_RKZNSD_IJS5_S9_EEESG_S8_SI_EUlRKNS0_14CSSSimpleBlockERNS0_15CSSSyntaxParserEE_RKZNSD_IJS5_S9_EEESG_S8_SI_EUlRKNS0_16CSSFunctionBlockEST_E_EE16visitSimpleBlockISU_JS10_EEENS2_8optionalISA_EENS0_12CSSTokenTypeERKT_DpRKT0_, symObjAddr: 0x1A510, symBinAddr: 0x2C180, symSize: 0x158 }
  - { offset: 0x1FC837, size: 0x8, addend: 0x0, symName: __ZNSt3__116__variant_detail18__copy_constructorINS0_8__traitsIJNS_9monostateEN8facebook5react14CSSWideKeywordENS5_7CSSListINS5_9CSSShadowELNS5_12CSSDelimiterE4EEEEEELNS0_6_TraitE1EEC2B8ne200100ERKSD_, symObjAddr: 0x1A3BC, symBinAddr: 0x2C02C, symSize: 0x44 }
  - { offset: 0x1FC9E1, size: 0x8, addend: 0x0, symName: __ZN8facebook5react34CSSComponentValueVisitorDispatcherINSt3__17variantIJNS2_9monostateENS0_14CSSWideKeywordENS0_7CSSListINS0_9CSSShadowELNS0_12CSSDelimiterE4EEEEEEJRKZNS0_6detail14CSSValueParser12consumeValueIJS5_S9_EEENS3_IJS4_DpT_EEES8_NS0_19CSSCompoundDataTypeIJSF_EEEEUlRKNS0_8CSSTokenEE_RKZNSD_IJS5_S9_EEESG_S8_SI_EUlRKNS0_14CSSSimpleBlockERNS0_15CSSSyntaxParserEE_RKZNSD_IJS5_S9_EEESG_S8_SI_EUlRKNS0_16CSSFunctionBlockEST_E_EE19visitPreservedTokenISM_JSU_S10_EEENS2_8optionalISA_EERKT_DpRKT0_, symObjAddr: 0x1A19C, symBinAddr: 0x2BE0C, symSize: 0xCC }
  - { offset: 0x1FD3DA, size: 0x8, addend: 0x0, symName: __ZN8facebook5react34CSSComponentValueVisitorDispatcherINSt3__17variantIJNS2_9monostateENS0_14CSSWideKeywordENS0_7CSSListINS0_9CSSShadowELNS0_12CSSDelimiterE4EEEEEEJRKZNS0_6detail14CSSValueParser12consumeValueIJS5_S9_EEENS3_IJS4_DpT_EEES8_NS0_19CSSCompoundDataTypeIJSF_EEEEUlRKNS0_8CSSTokenEE_RKZNSD_IJS5_S9_EEESG_S8_SI_EUlRKNS0_14CSSSimpleBlockERNS0_15CSSSyntaxParserEE_RKZNSD_IJS5_S9_EEESG_S8_SI_EUlRKNS0_16CSSFunctionBlockEST_E_EE13visitFunctionIS10_JEEENS2_8optionalISA_EERKT_DpRKT0_, symObjAddr: 0x1A268, symBinAddr: 0x2BED8, symSize: 0x154 }
  - { offset: 0x1FE979, size: 0x8, addend: 0x0, symName: __ZNSt3__116__variant_detail6__ctorINS0_8__traitsIJNS_9monostateEN8facebook5react14CSSWideKeywordENS5_7CSSListINS5_9CSSShadowELNS5_12CSSDelimiterE4EEEEEEE19__generic_constructB8ne200100IRKNS0_18__copy_constructorISB_LNS0_6_TraitE1EEEEEvRSC_OT_, symObjAddr: 0x1A400, symBinAddr: 0x2C070, symSize: 0x60 }
  - { offset: 0x1FECAF, size: 0x8, addend: 0x0, symName: __ZNSt3__116__variant_detail12__visitation6__base12__dispatcherIJLm0EEE10__dispatchB8ne200100IOZNS0_6__dtorINS0_8__traitsIJNS_9monostateEN8facebook5react14CSSWideKeywordENSA_7CSSListINSA_9CSSShadowELNSA_12CSSDelimiterE4EEEEEELNS0_6_TraitE1EE9__destroyB8ne200100EvEUlRT_E_JRNS0_6__baseILSH_1EJS8_SB_SF_EEEEEEDcSJ_DpT0_, symObjAddr: 0x1A4B4, symBinAddr: 0x2C124, symSize: 0x4 }
  - { offset: 0x1FECF6, size: 0x8, addend: 0x0, symName: __ZNSt3__116__variant_detail12__visitation6__base12__dispatcherIJLm1EEE10__dispatchB8ne200100IOZNS0_6__dtorINS0_8__traitsIJNS_9monostateEN8facebook5react14CSSWideKeywordENSA_7CSSListINSA_9CSSShadowELNSA_12CSSDelimiterE4EEEEEELNS0_6_TraitE1EE9__destroyB8ne200100EvEUlRT_E_JRNS0_6__baseILSH_1EJS8_SB_SF_EEEEEEDcSJ_DpT0_, symObjAddr: 0x1A4B8, symBinAddr: 0x2C128, symSize: 0x4 }
  - { offset: 0x1FEDBF, size: 0x8, addend: 0x0, symName: __ZNSt3__116__variant_detail12__visitation6__base12__dispatcherIJLm2EEE10__dispatchB8ne200100IOZNS0_6__dtorINS0_8__traitsIJNS_9monostateEN8facebook5react14CSSWideKeywordENSA_7CSSListINSA_9CSSShadowELNSA_12CSSDelimiterE4EEEEEELNS0_6_TraitE1EE9__destroyB8ne200100EvEUlRT_E_JRNS0_6__baseILSH_1EJS8_SB_SF_EEEEEEDcSJ_DpT0_, symObjAddr: 0x1A4BC, symBinAddr: 0x2C12C, symSize: 0x14 }
  - { offset: 0x1FEDF5, size: 0x8, addend: 0x0, symName: __ZNSt3__116__variant_detail12__visitation6__base12__dispatcherIJLm2EEE10__dispatchB8ne200100IOZNS0_6__dtorINS0_8__traitsIJNS_9monostateEN8facebook5react14CSSWideKeywordENSA_7CSSListINSA_9CSSShadowELNSA_12CSSDelimiterE4EEEEEELNS0_6_TraitE1EE9__destroyB8ne200100EvEUlRT_E_JRNS0_6__baseILSH_1EJS8_SB_SF_EEEEEEDcSJ_DpT0_, symObjAddr: 0x1A4BC, symBinAddr: 0x2C12C, symSize: 0x14 }
  - { offset: 0x1FEE1A, size: 0x8, addend: 0x0, symName: __ZNSt3__116__variant_detail12__visitation6__base12__dispatcherIJLm2EEE10__dispatchB8ne200100IOZNS0_6__dtorINS0_8__traitsIJNS_9monostateEN8facebook5react14CSSWideKeywordENSA_7CSSListINSA_9CSSShadowELNSA_12CSSDelimiterE4EEEEEELNS0_6_TraitE1EE9__destroyB8ne200100EvEUlRT_E_JRNS0_6__baseILSH_1EJS8_SB_SF_EEEEEEDcSJ_DpT0_, symObjAddr: 0x1A4BC, symBinAddr: 0x2C12C, symSize: 0x14 }
  - { offset: 0x1FEE3E, size: 0x8, addend: 0x0, symName: __ZNSt3__116__variant_detail12__visitation6__base12__dispatcherIJLm2EEE10__dispatchB8ne200100IOZNS0_6__dtorINS0_8__traitsIJNS_9monostateEN8facebook5react14CSSWideKeywordENSA_7CSSListINSA_9CSSShadowELNSA_12CSSDelimiterE4EEEEEELNS0_6_TraitE1EE9__destroyB8ne200100EvEUlRT_E_JRNS0_6__baseILSH_1EJS8_SB_SF_EEEEEEDcSJ_DpT0_, symObjAddr: 0x1A4BC, symBinAddr: 0x2C12C, symSize: 0x14 }
  - { offset: 0x1FEE5A, size: 0x8, addend: 0x0, symName: __ZNSt3__116__variant_detail12__visitation6__base12__dispatcherIJLm2EEE10__dispatchB8ne200100IOZNS0_6__dtorINS0_8__traitsIJNS_9monostateEN8facebook5react14CSSWideKeywordENSA_7CSSListINSA_9CSSShadowELNSA_12CSSDelimiterE4EEEEEELNS0_6_TraitE1EE9__destroyB8ne200100EvEUlRT_E_JRNS0_6__baseILSH_1EJS8_SB_SF_EEEEEEDcSJ_DpT0_, symObjAddr: 0x1A4BC, symBinAddr: 0x2C12C, symSize: 0x14 }
  - { offset: 0x1FEE76, size: 0x8, addend: 0x0, symName: __ZNSt3__116__variant_detail12__visitation6__base12__dispatcherIJLm2EEE10__dispatchB8ne200100IOZNS0_6__dtorINS0_8__traitsIJNS_9monostateEN8facebook5react14CSSWideKeywordENSA_7CSSListINSA_9CSSShadowELNSA_12CSSDelimiterE4EEEEEELNS0_6_TraitE1EE9__destroyB8ne200100EvEUlRT_E_JRNS0_6__baseILSH_1EJS8_SB_SF_EEEEEEDcSJ_DpT0_, symObjAddr: 0x1A4BC, symBinAddr: 0x2C12C, symSize: 0x14 }
  - { offset: 0x1FEE92, size: 0x8, addend: 0x0, symName: __ZNSt3__116__variant_detail12__visitation6__base12__dispatcherIJLm2EEE10__dispatchB8ne200100IOZNS0_6__dtorINS0_8__traitsIJNS_9monostateEN8facebook5react14CSSWideKeywordENSA_7CSSListINSA_9CSSShadowELNSA_12CSSDelimiterE4EEEEEELNS0_6_TraitE1EE9__destroyB8ne200100EvEUlRT_E_JRNS0_6__baseILSH_1EJS8_SB_SF_EEEEEEDcSJ_DpT0_, symObjAddr: 0x1A4BC, symBinAddr: 0x2C12C, symSize: 0x14 }
  - { offset: 0x1FEEAD, size: 0x8, addend: 0x0, symName: __ZNSt3__116__variant_detail12__visitation6__base12__dispatcherIJLm2EEE10__dispatchB8ne200100IOZNS0_6__dtorINS0_8__traitsIJNS_9monostateEN8facebook5react14CSSWideKeywordENSA_7CSSListINSA_9CSSShadowELNSA_12CSSDelimiterE4EEEEEELNS0_6_TraitE1EE9__destroyB8ne200100EvEUlRT_E_JRNS0_6__baseILSH_1EJS8_SB_SF_EEEEEEDcSJ_DpT0_, symObjAddr: 0x1A4BC, symBinAddr: 0x2C12C, symSize: 0x14 }
  - { offset: 0x1FEEC8, size: 0x8, addend: 0x0, symName: __ZNSt3__116__variant_detail12__visitation6__base12__dispatcherIJLm2EEE10__dispatchB8ne200100IOZNS0_6__dtorINS0_8__traitsIJNS_9monostateEN8facebook5react14CSSWideKeywordENSA_7CSSListINSA_9CSSShadowELNSA_12CSSDelimiterE4EEEEEELNS0_6_TraitE1EE9__destroyB8ne200100EvEUlRT_E_JRNS0_6__baseILSH_1EJS8_SB_SF_EEEEEEDcSJ_DpT0_, symObjAddr: 0x1A4BC, symBinAddr: 0x2C12C, symSize: 0x14 }
  - { offset: 0x1FEFAE, size: 0x8, addend: 0x0, symName: __ZNSt3__116__variant_detail12__visitation6__base12__dispatcherIJLm0EEE10__dispatchB8ne200100IOZNS0_6__ctorINS0_8__traitsIJNS_9monostateEN8facebook5react14CSSWideKeywordENSA_7CSSListINSA_9CSSShadowELNSA_12CSSDelimiterE4EEEEEEE19__generic_constructB8ne200100IRKNS0_18__copy_constructorISG_LNS0_6_TraitE1EEEEEvRSH_OT_EUlSQ_E_JRKNS0_6__baseILSK_1EJS8_SB_SF_EEEEEEDcSP_DpT0_, symObjAddr: 0x1A4D0, symBinAddr: 0x2C140, symSize: 0x4 }
  - { offset: 0x1FF1BF, size: 0x8, addend: 0x0, symName: __ZNSt3__116__variant_detail12__visitation6__base12__dispatcherIJLm1EEE10__dispatchB8ne200100IOZNS0_6__ctorINS0_8__traitsIJNS_9monostateEN8facebook5react14CSSWideKeywordENSA_7CSSListINSA_9CSSShadowELNSA_12CSSDelimiterE4EEEEEEE19__generic_constructB8ne200100IRKNS0_18__copy_constructorISG_LNS0_6_TraitE1EEEEEvRSH_OT_EUlSQ_E_JRKNS0_6__baseILSK_1EJS8_SB_SF_EEEEEEDcSP_DpT0_, symObjAddr: 0x1A4D4, symBinAddr: 0x2C144, symSize: 0x10 }
  - { offset: 0x1FF1F4, size: 0x8, addend: 0x0, symName: __ZNSt3__116__variant_detail12__visitation6__base12__dispatcherIJLm1EEE10__dispatchB8ne200100IOZNS0_6__ctorINS0_8__traitsIJNS_9monostateEN8facebook5react14CSSWideKeywordENSA_7CSSListINSA_9CSSShadowELNSA_12CSSDelimiterE4EEEEEEE19__generic_constructB8ne200100IRKNS0_18__copy_constructorISG_LNS0_6_TraitE1EEEEEvRSH_OT_EUlSQ_E_JRKNS0_6__baseILSK_1EJS8_SB_SF_EEEEEEDcSP_DpT0_, symObjAddr: 0x1A4D4, symBinAddr: 0x2C144, symSize: 0x10 }
  - { offset: 0x1FF217, size: 0x8, addend: 0x0, symName: __ZNSt3__116__variant_detail12__visitation6__base12__dispatcherIJLm1EEE10__dispatchB8ne200100IOZNS0_6__ctorINS0_8__traitsIJNS_9monostateEN8facebook5react14CSSWideKeywordENSA_7CSSListINSA_9CSSShadowELNSA_12CSSDelimiterE4EEEEEEE19__generic_constructB8ne200100IRKNS0_18__copy_constructorISG_LNS0_6_TraitE1EEEEEvRSH_OT_EUlSQ_E_JRKNS0_6__baseILSK_1EJS8_SB_SF_EEEEEEDcSP_DpT0_, symObjAddr: 0x1A4D4, symBinAddr: 0x2C144, symSize: 0x10 }
  - { offset: 0x1FF5AD, size: 0x8, addend: 0x0, symName: __ZNSt3__116__variant_detail12__visitation6__base12__dispatcherIJLm2EEE10__dispatchB8ne200100IOZNS0_6__ctorINS0_8__traitsIJNS_9monostateEN8facebook5react14CSSWideKeywordENSA_7CSSListINSA_9CSSShadowELNSA_12CSSDelimiterE4EEEEEEE19__generic_constructB8ne200100IRKNS0_18__copy_constructorISG_LNS0_6_TraitE1EEEEEvRSH_OT_EUlSQ_E_JRKNS0_6__baseILSK_1EJS8_SB_SF_EEEEEEDcSP_DpT0_, symObjAddr: 0x1A4E4, symBinAddr: 0x2C154, symSize: 0x2C }
  - { offset: 0x1FF5E4, size: 0x8, addend: 0x0, symName: __ZNSt3__116__variant_detail12__visitation6__base12__dispatcherIJLm2EEE10__dispatchB8ne200100IOZNS0_6__ctorINS0_8__traitsIJNS_9monostateEN8facebook5react14CSSWideKeywordENSA_7CSSListINSA_9CSSShadowELNSA_12CSSDelimiterE4EEEEEEE19__generic_constructB8ne200100IRKNS0_18__copy_constructorISG_LNS0_6_TraitE1EEEEEvRSH_OT_EUlSQ_E_JRKNS0_6__baseILSK_1EJS8_SB_SF_EEEEEEDcSP_DpT0_, symObjAddr: 0x1A4E4, symBinAddr: 0x2C154, symSize: 0x2C }
  - { offset: 0x1FF60B, size: 0x8, addend: 0x0, symName: __ZNSt3__116__variant_detail12__visitation6__base12__dispatcherIJLm2EEE10__dispatchB8ne200100IOZNS0_6__ctorINS0_8__traitsIJNS_9monostateEN8facebook5react14CSSWideKeywordENSA_7CSSListINSA_9CSSShadowELNSA_12CSSDelimiterE4EEEEEEE19__generic_constructB8ne200100IRKNS0_18__copy_constructorISG_LNS0_6_TraitE1EEEEEvRSH_OT_EUlSQ_E_JRKNS0_6__baseILSK_1EJS8_SB_SF_EEEEEEDcSP_DpT0_, symObjAddr: 0x1A4E4, symBinAddr: 0x2C154, symSize: 0x2C }
  - { offset: 0x1FF955, size: 0x8, addend: 0x0, symName: __ZN8facebook5react17CSSDataTypeParserINS0_14CSSWideKeywordEE21consumePreservedTokenERKNS0_8CSSTokenE, symObjAddr: 0x1A668, symBinAddr: 0x2C2D8, symSize: 0x40 }
  - { offset: 0x1FF975, size: 0x8, addend: 0x0, symName: __ZN8facebook5react17CSSDataTypeParserINS0_14CSSWideKeywordEE21consumePreservedTokenERKNS0_8CSSTokenE, symObjAddr: 0x1A668, symBinAddr: 0x2C2D8, symSize: 0x40 }
  - { offset: 0x1FF9BA, size: 0x8, addend: 0x0, symName: __ZNSt3__116__variant_detail6__ctorINS0_8__traitsIJNS_9monostateEN8facebook5react14CSSWideKeywordENS5_7CSSListINS5_9CSSShadowELNS5_12CSSDelimiterE4EEEEEEE19__generic_constructB8ne200100INS0_18__move_constructorISB_LNS0_6_TraitE1EEEEEvRSC_OT_, symObjAddr: 0x1A77C, symBinAddr: 0x2C3EC, symSize: 0x60 }
  - { offset: 0x1FFBD5, size: 0x8, addend: 0x0, symName: __ZNSt3__116__variant_detail12__visitation6__base12__dispatcherIJLm0EEE10__dispatchB8ne200100IOZNS0_6__ctorINS0_8__traitsIJNS_9monostateEN8facebook5react14CSSWideKeywordENSA_7CSSListINSA_9CSSShadowELNSA_12CSSDelimiterE4EEEEEEE19__generic_constructB8ne200100INS0_18__move_constructorISG_LNS0_6_TraitE1EEEEEvRSH_OT_EUlSO_E_JONS0_6__baseILSK_1EJS8_SB_SF_EEEEEEDcSN_DpT0_, symObjAddr: 0x1A7DC, symBinAddr: 0x2C44C, symSize: 0x4 }
  - { offset: 0x1FFDE0, size: 0x8, addend: 0x0, symName: __ZNSt3__116__variant_detail12__visitation6__base12__dispatcherIJLm1EEE10__dispatchB8ne200100IOZNS0_6__ctorINS0_8__traitsIJNS_9monostateEN8facebook5react14CSSWideKeywordENSA_7CSSListINSA_9CSSShadowELNSA_12CSSDelimiterE4EEEEEEE19__generic_constructB8ne200100INS0_18__move_constructorISG_LNS0_6_TraitE1EEEEEvRSH_OT_EUlSO_E_JONS0_6__baseILSK_1EJS8_SB_SF_EEEEEEDcSN_DpT0_, symObjAddr: 0x1A7E0, symBinAddr: 0x2C450, symSize: 0x10 }
  - { offset: 0x1FFE15, size: 0x8, addend: 0x0, symName: __ZNSt3__116__variant_detail12__visitation6__base12__dispatcherIJLm1EEE10__dispatchB8ne200100IOZNS0_6__ctorINS0_8__traitsIJNS_9monostateEN8facebook5react14CSSWideKeywordENSA_7CSSListINSA_9CSSShadowELNSA_12CSSDelimiterE4EEEEEEE19__generic_constructB8ne200100INS0_18__move_constructorISG_LNS0_6_TraitE1EEEEEvRSH_OT_EUlSO_E_JONS0_6__baseILSK_1EJS8_SB_SF_EEEEEEDcSN_DpT0_, symObjAddr: 0x1A7E0, symBinAddr: 0x2C450, symSize: 0x10 }
  - { offset: 0x1FFE38, size: 0x8, addend: 0x0, symName: __ZNSt3__116__variant_detail12__visitation6__base12__dispatcherIJLm1EEE10__dispatchB8ne200100IOZNS0_6__ctorINS0_8__traitsIJNS_9monostateEN8facebook5react14CSSWideKeywordENSA_7CSSListINSA_9CSSShadowELNSA_12CSSDelimiterE4EEEEEEE19__generic_constructB8ne200100INS0_18__move_constructorISG_LNS0_6_TraitE1EEEEEvRSH_OT_EUlSO_E_JONS0_6__baseILSK_1EJS8_SB_SF_EEEEEEDcSN_DpT0_, symObjAddr: 0x1A7E0, symBinAddr: 0x2C450, symSize: 0x10 }
  - { offset: 0x2001C2, size: 0x8, addend: 0x0, symName: __ZNSt3__116__variant_detail12__visitation6__base12__dispatcherIJLm2EEE10__dispatchB8ne200100IOZNS0_6__ctorINS0_8__traitsIJNS_9monostateEN8facebook5react14CSSWideKeywordENSA_7CSSListINSA_9CSSShadowELNSA_12CSSDelimiterE4EEEEEEE19__generic_constructB8ne200100INS0_18__move_constructorISG_LNS0_6_TraitE1EEEEEvRSH_OT_EUlSO_E_JONS0_6__baseILSK_1EJS8_SB_SF_EEEEEEDcSN_DpT0_, symObjAddr: 0x1A7F0, symBinAddr: 0x2C460, symSize: 0x28 }
  - { offset: 0x2001F7, size: 0x8, addend: 0x0, symName: __ZNSt3__116__variant_detail12__visitation6__base12__dispatcherIJLm2EEE10__dispatchB8ne200100IOZNS0_6__ctorINS0_8__traitsIJNS_9monostateEN8facebook5react14CSSWideKeywordENSA_7CSSListINSA_9CSSShadowELNSA_12CSSDelimiterE4EEEEEEE19__generic_constructB8ne200100INS0_18__move_constructorISG_LNS0_6_TraitE1EEEEEvRSH_OT_EUlSO_E_JONS0_6__baseILSK_1EJS8_SB_SF_EEEEEEDcSN_DpT0_, symObjAddr: 0x1A7F0, symBinAddr: 0x2C460, symSize: 0x28 }
  - { offset: 0x20021A, size: 0x8, addend: 0x0, symName: __ZNSt3__116__variant_detail12__visitation6__base12__dispatcherIJLm2EEE10__dispatchB8ne200100IOZNS0_6__ctorINS0_8__traitsIJNS_9monostateEN8facebook5react14CSSWideKeywordENSA_7CSSListINSA_9CSSShadowELNSA_12CSSDelimiterE4EEEEEEE19__generic_constructB8ne200100INS0_18__move_constructorISG_LNS0_6_TraitE1EEEEEvRSH_OT_EUlSO_E_JONS0_6__baseILSK_1EJS8_SB_SF_EEEEEEDcSN_DpT0_, symObjAddr: 0x1A7F0, symBinAddr: 0x2C460, symSize: 0x28 }
  - { offset: 0x20054F, size: 0x8, addend: 0x0, symName: __ZNSt3__114__split_bufferIN8facebook5react9BoxShadowERNS_9allocatorIS3_EEED2Ev, symObjAddr: 0x1A9C4, symBinAddr: 0x2C634, symSize: 0x50 }
  - { offset: 0x200D72, size: 0x8, addend: 0x0, symName: __ZN8facebook5react34CSSComponentValueVisitorDispatcherINSt3__17variantIJNS2_9monostateENS0_14CSSWideKeywordENS0_9CSSLengthEEEEJRKZNS0_6detail14CSSValueParser12consumeValueIJS5_S6_EEENS3_IJS4_DpT_EEENS0_12CSSDelimiterENS0_19CSSCompoundDataTypeIJSC_EEEEUlRKNS0_8CSSTokenEE_RKZNSA_IJS5_S6_EEESD_SE_SG_EUlRKNS0_14CSSSimpleBlockERNS0_15CSSSyntaxParserEE_RKZNSA_IJS5_S6_EEESD_SE_SG_EUlRKNS0_16CSSFunctionBlockESR_E_EE21consumeComponentValueESE_SM_SU_S10_, symObjAddr: 0x1B3C0, symBinAddr: 0x2CDC4, symSize: 0x13C }
  - { offset: 0x2010F1, size: 0x8, addend: 0x0, symName: __ZN8facebook5react34CSSComponentValueVisitorDispatcherINSt3__17variantIJNS2_9monostateENS0_14CSSWideKeywordENS0_9CSSLengthEEEEJRKZNS0_6detail14CSSValueParser12consumeValueIJS5_S6_EEENS3_IJS4_DpT_EEENS0_12CSSDelimiterENS0_19CSSCompoundDataTypeIJSC_EEEEUlRKNS0_8CSSTokenEE_RKZNSA_IJS5_S6_EEESD_SE_SG_EUlRKNS0_14CSSSimpleBlockERNS0_15CSSSyntaxParserEE_RKZNSA_IJS5_S6_EEESD_SE_SG_EUlRKNS0_16CSSFunctionBlockESR_E_EE19visitPreservedTokenISK_JSS_SY_EEENS2_8optionalIS7_EERKT_DpRKT0_, symObjAddr: 0x1B4FC, symBinAddr: 0x2CF00, symSize: 0x78 }
  - { offset: 0x201417, size: 0x8, addend: 0x0, symName: __ZN8facebook5react6detail14CSSValueParser24tryConsumePreservedTokenINSt3__17variantIJNS4_9monostateENS0_14CSSWideKeywordENS0_9CSSLengthEEEENS0_17CSSDataTypeParserIS7_EEJNSA_IS8_EEEEET_RKNS0_8CSSTokenE, symObjAddr: 0x1B6C4, symBinAddr: 0x2CF78, symSize: 0x58 }
  - { offset: 0x201821, size: 0x8, addend: 0x0, symName: __ZN8facebook5react34CSSComponentValueVisitorDispatcherINSt3__17variantIJNS2_9monostateENS0_14CSSWideKeywordENS0_8CSSColorEEEEJRKZNS0_6detail14CSSValueParser12consumeValueIJS5_S6_EEENS3_IJS4_DpT_EEENS0_12CSSDelimiterENS0_19CSSCompoundDataTypeIJSC_EEEEUlRKNS0_8CSSTokenEE_RKZNSA_IJS5_S6_EEESD_SE_SG_EUlRKNS0_14CSSSimpleBlockERNS0_15CSSSyntaxParserEE_RKZNSA_IJS5_S6_EEESD_SE_SG_EUlRKNS0_16CSSFunctionBlockESR_E_EE21consumeComponentValueESE_SM_SU_S10_, symObjAddr: 0x1B7F4, symBinAddr: 0x2D0A8, symSize: 0x134 }
  - { offset: 0x201BA0, size: 0x8, addend: 0x0, symName: __ZN8facebook5react34CSSComponentValueVisitorDispatcherINSt3__17variantIJNS2_9monostateENS0_14CSSWideKeywordENS0_8CSSColorEEEEJRKZNS0_6detail14CSSValueParser12consumeValueIJS5_S6_EEENS3_IJS4_DpT_EEENS0_12CSSDelimiterENS0_19CSSCompoundDataTypeIJSC_EEEEUlRKNS0_8CSSTokenEE_RKZNSA_IJS5_S6_EEESD_SE_SG_EUlRKNS0_14CSSSimpleBlockERNS0_15CSSSyntaxParserEE_RKZNSA_IJS5_S6_EEESD_SE_SG_EUlRKNS0_16CSSFunctionBlockESR_E_EE19visitPreservedTokenISK_JSS_SY_EEENS2_8optionalIS7_EERKT_DpRKT0_, symObjAddr: 0x1B928, symBinAddr: 0x2D1DC, symSize: 0x78 }
  - { offset: 0x201CBA, size: 0x8, addend: 0x0, symName: __ZN8facebook5react34CSSComponentValueVisitorDispatcherINSt3__17variantIJNS2_9monostateENS0_14CSSWideKeywordENS0_8CSSColorEEEEJRKZNS0_6detail14CSSValueParser12consumeValueIJS5_S6_EEENS3_IJS4_DpT_EEENS0_12CSSDelimiterENS0_19CSSCompoundDataTypeIJSC_EEEEUlRKNS0_8CSSTokenEE_RKZNSA_IJS5_S6_EEESD_SE_SG_EUlRKNS0_14CSSSimpleBlockERNS0_15CSSSyntaxParserEE_RKZNSA_IJS5_S6_EEESD_SE_SG_EUlRKNS0_16CSSFunctionBlockESR_E_EE13visitFunctionISY_JEEENS2_8optionalIS7_EERKT_DpRKT0_, symObjAddr: 0x1B9A0, symBinAddr: 0x2D254, symSize: 0x184 }
  - { offset: 0x20207C, size: 0x8, addend: 0x0, symName: __ZN8facebook5react6detail14CSSValueParser24tryConsumePreservedTokenINSt3__17variantIJNS4_9monostateENS0_14CSSWideKeywordENS0_8CSSColorEEEENS0_17CSSDataTypeParserIS7_EEJNSA_IS8_EEEEET_RKNS0_8CSSTokenE, symObjAddr: 0x1BC40, symBinAddr: 0x2D44C, symSize: 0x60 }
  - { offset: 0x2021F3, size: 0x8, addend: 0x0, symName: __ZN8facebook5react6detail14CSSValueParser23tryConsumeFunctionBlockINSt3__17variantIJNS4_9monostateENS0_14CSSWideKeywordENS0_8CSSColorEEEENS0_17CSSDataTypeParserIS8_EEJEEET_RKNS0_16CSSFunctionBlockERNS0_15CSSSyntaxParserE, symObjAddr: 0x1BB24, symBinAddr: 0x2D3D8, symSize: 0x74 }
  - { offset: 0x2032D4, size: 0x8, addend: 0x0, symName: __ZNSt3__16vectorIN8facebook5react14FilterFunctionENS_9allocatorIS3_EEE9push_backB8ne200100ERKS3_, symObjAddr: 0x1D240, symBinAddr: 0x2E1B0, symSize: 0x58 }
  - { offset: 0x203591, size: 0x8, addend: 0x0, symName: __ZNSt3__16vectorIN8facebook5react14FilterFunctionENS_9allocatorIS3_EEE18__assign_with_sizeB8ne200100IPKS3_S9_EEvT_T0_l, symObjAddr: 0x22474, symBinAddr: 0x329D4, symSize: 0x188 }
  - { offset: 0x2043D7, size: 0x8, addend: 0x0, symName: __ZNSt3__16vectorIN8facebook5react14FilterFunctionENS_9allocatorIS3_EEE9push_backB8ne200100EOS3_, symObjAddr: 0x22874, symBinAddr: 0x32DD4, symSize: 0x50 }
  - { offset: 0x204636, size: 0x8, addend: 0x0, symName: __ZNSt3__16vectorIN8facebook5react14FilterFunctionENS_9allocatorIS3_EEE18__assign_with_sizeB8ne200100IPS3_S8_EEvT_T0_l, symObjAddr: 0x22A9C, symBinAddr: 0x32F34, symSize: 0x188 }
  - { offset: 0x2052C7, size: 0x8, addend: 0x0, symName: __ZNSt3__116__variant_detail6__dtorINS0_8__traitsIJNS_9monostateEN8facebook5react14CSSWideKeywordENS5_7CSSListINS5_19CSSCompoundDataTypeIJNS5_13CSSBlurFilterENS5_19CSSBrightnessFilterENS5_17CSSContrastFilterENS5_19CSSDropShadowFilterENS5_18CSSGrayscaleFilterENS5_18CSSHueRotateFilterENS5_15CSSInvertFilterENS5_16CSSOpacityFilterENS5_17CSSSaturateFilterENS5_14CSSSepiaFilterEEEELNS5_12CSSDelimiterE0EEEEEELNS0_6_TraitE1EE9__destroyB8ne200100Ev, symObjAddr: 0x1FD04, symBinAddr: 0x309FC, symSize: 0x54 }
  - { offset: 0x2056A1, size: 0x8, addend: 0x0, symName: __ZN8facebook5react6detail14CSSValueParser12consumeValueIJNS0_14CSSWideKeywordENS0_7CSSListINS0_19CSSCompoundDataTypeIJNS0_13CSSBlurFilterENS0_19CSSBrightnessFilterENS0_17CSSContrastFilterENS0_19CSSDropShadowFilterENS0_18CSSGrayscaleFilterENS0_18CSSHueRotateFilterENS0_15CSSInvertFilterENS0_16CSSOpacityFilterENS0_17CSSSaturateFilterENS0_14CSSSepiaFilterEEEELNS0_12CSSDelimiterE0EEEEEENSt3__17variantIJNSK_9monostateEDpT_EEESI_NS6_IJSO_EEE, symObjAddr: 0x1D298, symBinAddr: 0x2E208, symSize: 0x9C }
  - { offset: 0x205CD1, size: 0x8, addend: 0x0, symName: __ZNSt3__116__variant_detail18__move_constructorINS0_8__traitsIJNS_9monostateEN8facebook5react14CSSWideKeywordENS5_7CSSListINS5_19CSSCompoundDataTypeIJNS5_13CSSBlurFilterENS5_19CSSBrightnessFilterENS5_17CSSContrastFilterENS5_19CSSDropShadowFilterENS5_18CSSGrayscaleFilterENS5_18CSSHueRotateFilterENS5_15CSSInvertFilterENS5_16CSSOpacityFilterENS5_17CSSSaturateFilterENS5_14CSSSepiaFilterEEEELNS5_12CSSDelimiterE0EEEEEELNS0_6_TraitE1EEC2B8ne200100EOSO_, symObjAddr: 0x1FF00, symBinAddr: 0x30BF8, symSize: 0x34 }
  - { offset: 0x205E93, size: 0x8, addend: 0x0, symName: __ZNSt3__16vectorIN8facebook5react14FilterFunctionENS_9allocatorIS3_EEE24__emplace_back_slow_pathIJRKS3_EEEPS3_DpOT_, symObjAddr: 0x2080C, symBinAddr: 0x310C0, symSize: 0x114 }
  - { offset: 0x206397, size: 0x8, addend: 0x0, symName: __ZN8facebook5react6detail14CSSValueParser16tryConsumeParserINSt3__17variantIJNS4_9monostateENS0_14CSSWideKeywordENS0_7CSSListINS0_19CSSCompoundDataTypeIJNS0_13CSSBlurFilterENS0_19CSSBrightnessFilterENS0_17CSSContrastFilterENS0_19CSSDropShadowFilterENS0_18CSSGrayscaleFilterENS0_18CSSHueRotateFilterENS0_15CSSInvertFilterENS0_16CSSOpacityFilterENS0_17CSSSaturateFilterENS0_14CSSSepiaFilterEEEELNS0_12CSSDelimiterE0EEEEEENS0_17CSSDataTypeParserISM_EEJEEET_SL_, symObjAddr: 0x1D334, symBinAddr: 0x2E2A4, symSize: 0xF0 }
  - { offset: 0x206E6D, size: 0x8, addend: 0x0, symName: __ZN8facebook5react34CSSComponentValueVisitorDispatcherINSt3__17variantIJNS2_9monostateENS0_14CSSWideKeywordENS0_7CSSListINS0_19CSSCompoundDataTypeIJNS0_13CSSBlurFilterENS0_19CSSBrightnessFilterENS0_17CSSContrastFilterENS0_19CSSDropShadowFilterENS0_18CSSGrayscaleFilterENS0_18CSSHueRotateFilterENS0_15CSSInvertFilterENS0_16CSSOpacityFilterENS0_17CSSSaturateFilterENS0_14CSSSepiaFilterEEEELNS0_12CSSDelimiterE0EEEEEEJRKZNS0_6detail14CSSValueParser12consumeValueIJS5_SK_EEENS3_IJS4_DpT_EEESJ_NS7_IJSQ_EEEEUlRKNS0_8CSSTokenEE_RKZNSO_IJS5_SK_EEESR_SJ_SS_EUlRKNS0_14CSSSimpleBlockERNS0_15CSSSyntaxParserEE_RKZNSO_IJS5_SK_EEESR_SJ_SS_EUlRKNS0_16CSSFunctionBlockES13_E_EE21consumeComponentValueESJ_SY_S16_S1C_, symObjAddr: 0x1F83C, symBinAddr: 0x30534, symSize: 0x204 }
  - { offset: 0x2081E9, size: 0x8, addend: 0x0, symName: __ZNSt3__16vectorINS_7variantIJN8facebook5react13CSSBlurFilterENS3_19CSSBrightnessFilterENS3_17CSSContrastFilterENS3_19CSSDropShadowFilterENS3_18CSSGrayscaleFilterENS3_18CSSHueRotateFilterENS3_15CSSInvertFilterENS3_16CSSOpacityFilterENS3_17CSSSaturateFilterENS3_14CSSSepiaFilterEEEENS_9allocatorISE_EEE16__init_with_sizeB8ne200100IPSE_SJ_EEvT_T0_m, symObjAddr: 0x1F78C, symBinAddr: 0x304BC, symSize: 0x78 }
  - { offset: 0x208DF9, size: 0x8, addend: 0x0, symName: __ZN8facebook5react34CSSComponentValueVisitorDispatcherINSt3__17variantIJNS2_9monostateENS0_13CSSBlurFilterENS0_19CSSBrightnessFilterENS0_17CSSContrastFilterENS0_19CSSDropShadowFilterENS0_18CSSGrayscaleFilterENS0_18CSSHueRotateFilterENS0_15CSSInvertFilterENS0_16CSSOpacityFilterENS0_17CSSSaturateFilterENS0_14CSSSepiaFilterEEEEJRKZNS0_6detail14CSSValueParser12consumeValueIJS5_S6_S7_S8_S9_SA_SB_SC_SD_SE_EEENS3_IJS4_DpT_EEENS0_12CSSDelimiterENS0_19CSSCompoundDataTypeIJSK_EEEEUlRKNS0_8CSSTokenEE_RKZNSI_IJS5_S6_S7_S8_S9_SA_SB_SC_SD_SE_EEESL_SM_SO_EUlRKNS0_14CSSSimpleBlockERNS0_15CSSSyntaxParserEE_RKZNSI_IJS5_S6_S7_S8_S9_SA_SB_SC_SD_SE_EEESL_SM_SO_EUlRKNS0_16CSSFunctionBlockESZ_E_EE21consumeComponentValueESM_SU_S12_S18_, symObjAddr: 0x1D5B0, symBinAddr: 0x2E520, symSize: 0x1B4 }
  - { offset: 0x2095E4, size: 0x8, addend: 0x0, symName: __ZN8facebook5react34CSSComponentValueVisitorDispatcherINSt3__17variantIJNS2_9monostateENS0_13CSSBlurFilterENS0_19CSSBrightnessFilterENS0_17CSSContrastFilterENS0_19CSSDropShadowFilterENS0_18CSSGrayscaleFilterENS0_18CSSHueRotateFilterENS0_15CSSInvertFilterENS0_16CSSOpacityFilterENS0_17CSSSaturateFilterENS0_14CSSSepiaFilterEEEEJRKZNS0_6detail14CSSValueParser12consumeValueIJS5_S6_S7_S8_S9_SA_SB_SC_SD_SE_EEENS3_IJS4_DpT_EEENS0_12CSSDelimiterENS0_19CSSCompoundDataTypeIJSK_EEEEUlRKNS0_8CSSTokenEE_RKZNSI_IJS5_S6_S7_S8_S9_SA_SB_SC_SD_SE_EEESL_SM_SO_EUlRKNS0_14CSSSimpleBlockERNS0_15CSSSyntaxParserEE_RKZNSI_IJS5_S6_S7_S8_S9_SA_SB_SC_SD_SE_EEESL_SM_SO_EUlRKNS0_16CSSFunctionBlockESZ_E_EE16visitSimpleBlockIS10_JS16_EEENS2_8optionalISF_EENS0_12CSSTokenTypeERKT_DpRKT0_, symObjAddr: 0x1F1A4, symBinAddr: 0x2FF1C, symSize: 0xB4 }
  - { offset: 0x209834, size: 0x8, addend: 0x0, symName: __ZN8facebook5react34CSSComponentValueVisitorDispatcherINSt3__17variantIJNS2_9monostateENS0_13CSSBlurFilterENS0_19CSSBrightnessFilterENS0_17CSSContrastFilterENS0_19CSSDropShadowFilterENS0_18CSSGrayscaleFilterENS0_18CSSHueRotateFilterENS0_15CSSInvertFilterENS0_16CSSOpacityFilterENS0_17CSSSaturateFilterENS0_14CSSSepiaFilterEEEEJRKZNS0_6detail14CSSValueParser12consumeValueIJS5_S6_S7_S8_S9_SA_SB_SC_SD_SE_EEENS3_IJS4_DpT_EEENS0_12CSSDelimiterENS0_19CSSCompoundDataTypeIJSK_EEEEUlRKNS0_8CSSTokenEE_RKZNSI_IJS5_S6_S7_S8_S9_SA_SB_SC_SD_SE_EEESL_SM_SO_EUlRKNS0_14CSSSimpleBlockERNS0_15CSSSyntaxParserEE_RKZNSI_IJS5_S6_S7_S8_S9_SA_SB_SC_SD_SE_EEESL_SM_SO_EUlRKNS0_16CSSFunctionBlockESZ_E_EE13visitFunctionIS16_JEEENS2_8optionalISF_EERKT_DpRKT0_, symObjAddr: 0x1D764, symBinAddr: 0x2E6D4, symSize: 0x1CC }
  - { offset: 0x20A607, size: 0x8, addend: 0x0, symName: __ZN8facebook5react6detail14CSSValueParser23tryConsumeFunctionBlockINSt3__17variantIJNS4_9monostateENS0_13CSSBlurFilterENS0_19CSSBrightnessFilterENS0_17CSSContrastFilterENS0_19CSSDropShadowFilterENS0_18CSSGrayscaleFilterENS0_18CSSHueRotateFilterENS0_15CSSInvertFilterENS0_16CSSOpacityFilterENS0_17CSSSaturateFilterENS0_14CSSSepiaFilterEEEENS0_17CSSDataTypeParserIS7_EEJNSI_IS8_EENSI_IS9_EENSI_ISA_EENSI_ISB_EENSI_ISC_EENSI_ISD_EENSI_ISE_EENSI_ISF_EENSI_ISG_EEEEET_RKNS0_16CSSFunctionBlockERNS0_15CSSSyntaxParserE, symObjAddr: 0x1D930, symBinAddr: 0x2E8A0, symSize: 0xA8 }
  - { offset: 0x20ACDA, size: 0x8, addend: 0x0, symName: __ZN8facebook5react17CSSDataTypeParserINS0_13CSSBlurFilterEE20consumeFunctionBlockERKNS0_16CSSFunctionBlockERNS0_15CSSSyntaxParserE, symObjAddr: 0x1D9D8, symBinAddr: 0x2E948, symSize: 0x64 }
  - { offset: 0x20AD48, size: 0x8, addend: 0x0, symName: __ZN8facebook5react6detail14CSSValueParser23tryConsumeFunctionBlockINSt3__17variantIJNS4_9monostateENS0_13CSSBlurFilterENS0_19CSSBrightnessFilterENS0_17CSSContrastFilterENS0_19CSSDropShadowFilterENS0_18CSSGrayscaleFilterENS0_18CSSHueRotateFilterENS0_15CSSInvertFilterENS0_16CSSOpacityFilterENS0_17CSSSaturateFilterENS0_14CSSSepiaFilterEEEENS0_17CSSDataTypeParserIS8_EEJNSI_IS9_EENSI_ISA_EENSI_ISB_EENSI_ISC_EENSI_ISD_EENSI_ISE_EENSI_ISF_EENSI_ISG_EEEEET_RKNS0_16CSSFunctionBlockERNS0_15CSSSyntaxParserE, symObjAddr: 0x1DA3C, symBinAddr: 0x2E9AC, symSize: 0xA8 }
  - { offset: 0x20B4D4, size: 0x8, addend: 0x0, symName: __ZN8facebook5react6detail27CSSFilterSimpleAmountParserINS0_19CSSBrightnessFilterEXtlNS0_21TemplateStringLiteralILm11EEEtlNSt3__15arrayIcLm11EEEtlA11_cLc98ELc114ELc105ELc103ELc104ELc116ELc110ELc101ELc115ELc115EEEEEE20consumeFunctionBlockERKNS0_16CSSFunctionBlockERNS0_15CSSSyntaxParserE, symObjAddr: 0x1DB48, symBinAddr: 0x2EAB8, symSize: 0xE8 }
  - { offset: 0x20B6DB, size: 0x8, addend: 0x0, symName: __ZN8facebook5react6detail14CSSValueParser23tryConsumeFunctionBlockINSt3__17variantIJNS4_9monostateENS0_13CSSBlurFilterENS0_19CSSBrightnessFilterENS0_17CSSContrastFilterENS0_19CSSDropShadowFilterENS0_18CSSGrayscaleFilterENS0_18CSSHueRotateFilterENS0_15CSSInvertFilterENS0_16CSSOpacityFilterENS0_17CSSSaturateFilterENS0_14CSSSepiaFilterEEEENS0_17CSSDataTypeParserIS9_EEJNSI_ISA_EENSI_ISB_EENSI_ISC_EENSI_ISD_EENSI_ISE_EENSI_ISF_EENSI_ISG_EEEEET_RKNS0_16CSSFunctionBlockERNS0_15CSSSyntaxParserE, symObjAddr: 0x1DC30, symBinAddr: 0x2EBA0, symSize: 0xA8 }
  - { offset: 0x20C0D8, size: 0x8, addend: 0x0, symName: __ZN8facebook5react6detail27CSSFilterSimpleAmountParserINS0_17CSSContrastFilterEXtlNS0_21TemplateStringLiteralILm9EEEtlNSt3__15arrayIcLm9EEEtlA9_cLc99ELc111ELc110ELc116ELc114ELc97ELc115ELc116EEEEEE20consumeFunctionBlockERKNS0_16CSSFunctionBlockERNS0_15CSSSyntaxParserE, symObjAddr: 0x1DCD8, symBinAddr: 0x2EC48, symSize: 0xE8 }
  - { offset: 0x20C2DF, size: 0x8, addend: 0x0, symName: __ZN8facebook5react6detail14CSSValueParser23tryConsumeFunctionBlockINSt3__17variantIJNS4_9monostateENS0_13CSSBlurFilterENS0_19CSSBrightnessFilterENS0_17CSSContrastFilterENS0_19CSSDropShadowFilterENS0_18CSSGrayscaleFilterENS0_18CSSHueRotateFilterENS0_15CSSInvertFilterENS0_16CSSOpacityFilterENS0_17CSSSaturateFilterENS0_14CSSSepiaFilterEEEENS0_17CSSDataTypeParserISA_EEJNSI_ISB_EENSI_ISC_EENSI_ISD_EENSI_ISE_EENSI_ISF_EENSI_ISG_EEEEET_RKNS0_16CSSFunctionBlockERNS0_15CSSSyntaxParserE, symObjAddr: 0x1DDC0, symBinAddr: 0x2ED30, symSize: 0xB4 }
  - { offset: 0x20CEDA, size: 0x8, addend: 0x0, symName: __ZN8facebook5react17CSSDataTypeParserINS0_19CSSDropShadowFilterEE20consumeFunctionBlockERKNS0_16CSSFunctionBlockERNS0_15CSSSyntaxParserE, symObjAddr: 0x1DE74, symBinAddr: 0x2EDE4, symSize: 0x1AC }
  - { offset: 0x20D18D, size: 0x8, addend: 0x0, symName: __ZN8facebook5react6detail14CSSValueParser23tryConsumeFunctionBlockINSt3__17variantIJNS4_9monostateENS0_13CSSBlurFilterENS0_19CSSBrightnessFilterENS0_17CSSContrastFilterENS0_19CSSDropShadowFilterENS0_18CSSGrayscaleFilterENS0_18CSSHueRotateFilterENS0_15CSSInvertFilterENS0_16CSSOpacityFilterENS0_17CSSSaturateFilterENS0_14CSSSepiaFilterEEEENS0_17CSSDataTypeParserISB_EEJNSI_ISC_EENSI_ISD_EENSI_ISE_EENSI_ISF_EENSI_ISG_EEEEET_RKNS0_16CSSFunctionBlockERNS0_15CSSSyntaxParserE, symObjAddr: 0x1E020, symBinAddr: 0x2EF90, symSize: 0xA8 }
  - { offset: 0x20D198, size: 0x8, addend: 0x0, symName: __ZN8facebook5react6detail14CSSValueParser23tryConsumeFunctionBlockINSt3__17variantIJNS4_9monostateENS0_13CSSBlurFilterENS0_19CSSBrightnessFilterENS0_17CSSContrastFilterENS0_19CSSDropShadowFilterENS0_18CSSGrayscaleFilterENS0_18CSSHueRotateFilterENS0_15CSSInvertFilterENS0_16CSSOpacityFilterENS0_17CSSSaturateFilterENS0_14CSSSepiaFilterEEEENS0_17CSSDataTypeParserISB_EEJNSI_ISC_EENSI_ISD_EENSI_ISE_EENSI_ISF_EENSI_ISG_EEEEET_RKNS0_16CSSFunctionBlockERNS0_15CSSSyntaxParserE, symObjAddr: 0x1E020, symBinAddr: 0x2EF90, symSize: 0xA8 }
  - { offset: 0x20D914, size: 0x8, addend: 0x0, symName: __ZN8facebook5react17CSSDataTypeParserINS0_19CSSDropShadowFilterEE12parseLengthsENS0_9CSSLengthERNS0_15CSSSyntaxParserE, symObjAddr: 0x1E108, symBinAddr: 0x2F078, symSize: 0xCC }
  - { offset: 0x20E10C, size: 0x8, addend: 0x0, symName: __ZN8facebook5react6detail27CSSFilterSimpleAmountParserINS0_18CSSGrayscaleFilterEXtlNS0_21TemplateStringLiteralILm10EEEtlNSt3__15arrayIcLm10EEEtlA10_cLc103ELc114ELc97ELc121ELc115ELc99ELc97ELc108ELc101EEEEEE20consumeFunctionBlockERKNS0_16CSSFunctionBlockERNS0_15CSSSyntaxParserE, symObjAddr: 0x1E678, symBinAddr: 0x2F540, symSize: 0xE8 }
  - { offset: 0x20E313, size: 0x8, addend: 0x0, symName: __ZN8facebook5react6detail14CSSValueParser23tryConsumeFunctionBlockINSt3__17variantIJNS4_9monostateENS0_13CSSBlurFilterENS0_19CSSBrightnessFilterENS0_17CSSContrastFilterENS0_19CSSDropShadowFilterENS0_18CSSGrayscaleFilterENS0_18CSSHueRotateFilterENS0_15CSSInvertFilterENS0_16CSSOpacityFilterENS0_17CSSSaturateFilterENS0_14CSSSepiaFilterEEEENS0_17CSSDataTypeParserISC_EEJNSI_ISD_EENSI_ISE_EENSI_ISF_EENSI_ISG_EEEEET_RKNS0_16CSSFunctionBlockERNS0_15CSSSyntaxParserE, symObjAddr: 0x1E760, symBinAddr: 0x2F628, symSize: 0xA8 }
  - { offset: 0x20E8C9, size: 0x8, addend: 0x0, symName: __ZN8facebook5react34CSSComponentValueVisitorDispatcherINSt3__17variantIJNS2_9monostateENS0_8CSSColorENS0_9CSSLengthEEEEJRKZNS0_6detail14CSSValueParser12consumeValueIJS5_S6_EEENS3_IJS4_DpT_EEENS0_12CSSDelimiterENS0_19CSSCompoundDataTypeIJSC_EEEEUlRKNS0_8CSSTokenEE_RKZNSA_IJS5_S6_EEESD_SE_SG_EUlRKNS0_14CSSSimpleBlockERNS0_15CSSSyntaxParserEE_RKZNSA_IJS5_S6_EEESD_SE_SG_EUlRKNS0_16CSSFunctionBlockESR_E_EE21consumeComponentValueESE_SM_SU_S10_, symObjAddr: 0x1E1D4, symBinAddr: 0x2F144, symSize: 0x13C }
  - { offset: 0x20EED9, size: 0x8, addend: 0x0, symName: __ZN8facebook5react34CSSComponentValueVisitorDispatcherINSt3__17variantIJNS2_9monostateENS0_8CSSColorENS0_9CSSLengthEEEEJRKZNS0_6detail14CSSValueParser12consumeValueIJS5_S6_EEENS3_IJS4_DpT_EEENS0_12CSSDelimiterENS0_19CSSCompoundDataTypeIJSC_EEEEUlRKNS0_8CSSTokenEE_RKZNSA_IJS5_S6_EEESD_SE_SG_EUlRKNS0_14CSSSimpleBlockERNS0_15CSSSyntaxParserEE_RKZNSA_IJS5_S6_EEESD_SE_SG_EUlRKNS0_16CSSFunctionBlockESR_E_EE19visitPreservedTokenISK_JSS_SY_EEENS2_8optionalIS7_EERKT_DpRKT0_, symObjAddr: 0x1E310, symBinAddr: 0x2F280, symSize: 0x78 }
  - { offset: 0x20EFF3, size: 0x8, addend: 0x0, symName: __ZN8facebook5react34CSSComponentValueVisitorDispatcherINSt3__17variantIJNS2_9monostateENS0_8CSSColorENS0_9CSSLengthEEEEJRKZNS0_6detail14CSSValueParser12consumeValueIJS5_S6_EEENS3_IJS4_DpT_EEENS0_12CSSDelimiterENS0_19CSSCompoundDataTypeIJSC_EEEEUlRKNS0_8CSSTokenEE_RKZNSA_IJS5_S6_EEESD_SE_SG_EUlRKNS0_14CSSSimpleBlockERNS0_15CSSSyntaxParserEE_RKZNSA_IJS5_S6_EEESD_SE_SG_EUlRKNS0_16CSSFunctionBlockESR_E_EE13visitFunctionISY_JEEENS2_8optionalIS7_EERKT_DpRKT0_, symObjAddr: 0x1E388, symBinAddr: 0x2F2F8, symSize: 0x180 }
  - { offset: 0x20F437, size: 0x8, addend: 0x0, symName: __ZN8facebook5react6detail14CSSValueParser24tryConsumePreservedTokenINSt3__17variantIJNS4_9monostateENS0_8CSSColorENS0_9CSSLengthEEEENS0_17CSSDataTypeParserIS7_EEJNSA_IS8_EEEEET_RKNS0_8CSSTokenE, symObjAddr: 0x1E620, symBinAddr: 0x2F4E8, symSize: 0x58 }
  - { offset: 0x20F6D0, size: 0x8, addend: 0x0, symName: __ZN8facebook5react6detail14CSSValueParser23tryConsumeFunctionBlockINSt3__17variantIJNS4_9monostateENS0_8CSSColorENS0_9CSSLengthEEEENS0_17CSSDataTypeParserIS7_EEJNSA_IS8_EEEEET_RKNS0_16CSSFunctionBlockERNS0_15CSSSyntaxParserE, symObjAddr: 0x1E508, symBinAddr: 0x2F478, symSize: 0x70 }
  - { offset: 0x210034, size: 0x8, addend: 0x0, symName: __ZN8facebook5react17CSSDataTypeParserINS0_18CSSHueRotateFilterEE20consumeFunctionBlockERKNS0_16CSSFunctionBlockERNS0_15CSSSyntaxParserE, symObjAddr: 0x1E808, symBinAddr: 0x2F6D0, symSize: 0x88 }
  - { offset: 0x21018D, size: 0x8, addend: 0x0, symName: __ZN8facebook5react6detail14CSSValueParser23tryConsumeFunctionBlockINSt3__17variantIJNS4_9monostateENS0_13CSSBlurFilterENS0_19CSSBrightnessFilterENS0_17CSSContrastFilterENS0_19CSSDropShadowFilterENS0_18CSSGrayscaleFilterENS0_18CSSHueRotateFilterENS0_15CSSInvertFilterENS0_16CSSOpacityFilterENS0_17CSSSaturateFilterENS0_14CSSSepiaFilterEEEENS0_17CSSDataTypeParserISD_EEJNSI_ISE_EENSI_ISF_EENSI_ISG_EEEEET_RKNS0_16CSSFunctionBlockERNS0_15CSSSyntaxParserE, symObjAddr: 0x1E890, symBinAddr: 0x2F758, symSize: 0xA8 }
  - { offset: 0x2108A5, size: 0x8, addend: 0x0, symName: __ZN8facebook5react34CSSComponentValueVisitorDispatcherINSt3__17variantIJNS2_9monostateENS0_8CSSAngleENS0_7CSSZeroEEEEJRKZNS0_6detail14CSSValueParser12consumeValueIJS5_S6_EEENS3_IJS4_DpT_EEENS0_12CSSDelimiterENS0_19CSSCompoundDataTypeIJSC_EEEEUlRKNS0_8CSSTokenEE_RKZNSA_IJS5_S6_EEESD_SE_SG_EUlRKNS0_14CSSSimpleBlockERNS0_15CSSSyntaxParserEE_RKZNSA_IJS5_S6_EEESD_SE_SG_EUlRKNS0_16CSSFunctionBlockESR_E_EE21consumeComponentValueESE_SM_SU_S10_, symObjAddr: 0x1E938, symBinAddr: 0x2F800, symSize: 0x134 }
  - { offset: 0x211245, size: 0x8, addend: 0x0, symName: __ZN8facebook5react6detail27CSSFilterSimpleAmountParserINS0_15CSSInvertFilterEXtlNS0_21TemplateStringLiteralILm7EEEtlNSt3__15arrayIcLm7EEEtlA7_cLc105ELc110ELc118ELc101ELc114ELc116EEEEEE20consumeFunctionBlockERKNS0_16CSSFunctionBlockERNS0_15CSSSyntaxParserE, symObjAddr: 0x1EC88, symBinAddr: 0x2FA00, symSize: 0xE8 }
  - { offset: 0x21144C, size: 0x8, addend: 0x0, symName: __ZN8facebook5react6detail14CSSValueParser23tryConsumeFunctionBlockINSt3__17variantIJNS4_9monostateENS0_13CSSBlurFilterENS0_19CSSBrightnessFilterENS0_17CSSContrastFilterENS0_19CSSDropShadowFilterENS0_18CSSGrayscaleFilterENS0_18CSSHueRotateFilterENS0_15CSSInvertFilterENS0_16CSSOpacityFilterENS0_17CSSSaturateFilterENS0_14CSSSepiaFilterEEEENS0_17CSSDataTypeParserISE_EEJNSI_ISF_EENSI_ISG_EEEEET_RKNS0_16CSSFunctionBlockERNS0_15CSSSyntaxParserE, symObjAddr: 0x1ED70, symBinAddr: 0x2FAE8, symSize: 0xA8 }
  - { offset: 0x2119A7, size: 0x8, addend: 0x0, symName: __ZN8facebook5react34CSSComponentValueVisitorDispatcherINSt3__17variantIJNS2_9monostateENS0_8CSSAngleENS0_7CSSZeroEEEEJRKZNS0_6detail14CSSValueParser12consumeValueIJS5_S6_EEENS3_IJS4_DpT_EEENS0_12CSSDelimiterENS0_19CSSCompoundDataTypeIJSC_EEEEUlRKNS0_8CSSTokenEE_RKZNSA_IJS5_S6_EEESD_SE_SG_EUlRKNS0_14CSSSimpleBlockERNS0_15CSSSyntaxParserEE_RKZNSA_IJS5_S6_EEESD_SE_SG_EUlRKNS0_16CSSFunctionBlockESR_E_EE19visitPreservedTokenISK_JSS_SY_EEENS2_8optionalIS7_EERKT_DpRKT0_, symObjAddr: 0x1EA6C, symBinAddr: 0x2F934, symSize: 0x78 }
  - { offset: 0x211D51, size: 0x8, addend: 0x0, symName: __ZN8facebook5react6detail14CSSValueParser24tryConsumePreservedTokenINSt3__17variantIJNS4_9monostateENS0_8CSSAngleENS0_7CSSZeroEEEENS0_17CSSDataTypeParserIS7_EEJNSA_IS8_EEEEET_RKNS0_8CSSTokenE, symObjAddr: 0x1EC34, symBinAddr: 0x2F9AC, symSize: 0x54 }
  - { offset: 0x2127E0, size: 0x8, addend: 0x0, symName: __ZN8facebook5react6detail27CSSFilterSimpleAmountParserINS0_16CSSOpacityFilterEXtlNS0_21TemplateStringLiteralILm8EEEtlNSt3__15arrayIcLm8EEEtlA8_cLc111ELc112ELc97ELc99ELc105ELc116ELc121EEEEEE20consumeFunctionBlockERKNS0_16CSSFunctionBlockERNS0_15CSSSyntaxParserE, symObjAddr: 0x1EE18, symBinAddr: 0x2FB90, symSize: 0xE8 }
  - { offset: 0x2129E7, size: 0x8, addend: 0x0, symName: __ZN8facebook5react6detail14CSSValueParser23tryConsumeFunctionBlockINSt3__17variantIJNS4_9monostateENS0_13CSSBlurFilterENS0_19CSSBrightnessFilterENS0_17CSSContrastFilterENS0_19CSSDropShadowFilterENS0_18CSSGrayscaleFilterENS0_18CSSHueRotateFilterENS0_15CSSInvertFilterENS0_16CSSOpacityFilterENS0_17CSSSaturateFilterENS0_14CSSSepiaFilterEEEENS0_17CSSDataTypeParserISF_EEJNSI_ISG_EEEEET_RKNS0_16CSSFunctionBlockERNS0_15CSSSyntaxParserE, symObjAddr: 0x1EF00, symBinAddr: 0x2FC78, symSize: 0xD4 }
  - { offset: 0x2145DC, size: 0x8, addend: 0x0, symName: __ZN8facebook5react6detail27CSSFilterSimpleAmountParserINS0_17CSSSaturateFilterEXtlNS0_21TemplateStringLiteralILm9EEEtlNSt3__15arrayIcLm9EEEtlA9_cLc115ELc97ELc116ELc117ELc114ELc97ELc116ELc101EEEEEE20consumeFunctionBlockERKNS0_16CSSFunctionBlockERNS0_15CSSSyntaxParserE, symObjAddr: 0x1EFD4, symBinAddr: 0x2FD4C, symSize: 0xE8 }
  - { offset: 0x2147E3, size: 0x8, addend: 0x0, symName: __ZN8facebook5react6detail27CSSFilterSimpleAmountParserINS0_14CSSSepiaFilterEXtlNS0_21TemplateStringLiteralILm6EEEtlNSt3__15arrayIcLm6EEEtlA6_cLc115ELc101ELc112ELc105ELc97EEEEEE20consumeFunctionBlockERKNS0_16CSSFunctionBlockERNS0_15CSSSyntaxParserE, symObjAddr: 0x1F0BC, symBinAddr: 0x2FE34, symSize: 0xE8 }
  - { offset: 0x214D4E, size: 0x8, addend: 0x0, symName: __ZNSt3__116__variant_detail12__visitation6__base12__dispatcherIJLm0EEE10__dispatchB8ne200100IONS1_9__variant15__value_visitorIZN8facebook5react17CSSDataTypeParserINS9_7CSSListINS9_19CSSCompoundDataTypeIJNS9_13CSSBlurFilterENS9_19CSSBrightnessFilterENS9_17CSSContrastFilterENS9_19CSSDropShadowFilterENS9_18CSSGrayscaleFilterENS9_18CSSHueRotateFilterENS9_15CSSInvertFilterENS9_16CSSOpacityFilterENS9_17CSSSaturateFilterENS9_14CSSSepiaFilterEEEELNS9_12CSSDelimiterE0EEEE7consumeERNS9_15CSSSyntaxParserEEUlOT_E_EEJRNS0_6__baseILNS0_6_TraitE0EJNS_9monostateESD_SE_SF_SG_SH_SI_SJ_SK_SL_SM_EEEEEEDcST_DpT0_, symObjAddr: 0x1F258, symBinAddr: 0x2FFD0, symSize: 0x4 }
  - { offset: 0x2151B5, size: 0x8, addend: 0x0, symName: __ZNSt3__116__variant_detail12__visitation6__base12__dispatcherIJLm1EEE10__dispatchB8ne200100IONS1_9__variant15__value_visitorIZN8facebook5react17CSSDataTypeParserINS9_7CSSListINS9_19CSSCompoundDataTypeIJNS9_13CSSBlurFilterENS9_19CSSBrightnessFilterENS9_17CSSContrastFilterENS9_19CSSDropShadowFilterENS9_18CSSGrayscaleFilterENS9_18CSSHueRotateFilterENS9_15CSSInvertFilterENS9_16CSSOpacityFilterENS9_17CSSSaturateFilterENS9_14CSSSepiaFilterEEEELNS9_12CSSDelimiterE0EEEE7consumeERNS9_15CSSSyntaxParserEEUlOT_E_EEJRNS0_6__baseILNS0_6_TraitE0EJNS_9monostateESD_SE_SF_SG_SH_SI_SJ_SK_SL_SM_EEEEEEDcST_DpT0_, symObjAddr: 0x1F25C, symBinAddr: 0x2FFD4, symSize: 0x64 }
  - { offset: 0x21550F, size: 0x8, addend: 0x0, symName: __ZNSt3__16vectorINS_7variantIJN8facebook5react13CSSBlurFilterENS3_19CSSBrightnessFilterENS3_17CSSContrastFilterENS3_19CSSDropShadowFilterENS3_18CSSGrayscaleFilterENS3_18CSSHueRotateFilterENS3_15CSSInvertFilterENS3_16CSSOpacityFilterENS3_17CSSSaturateFilterENS3_14CSSSepiaFilterEEEENS_9allocatorISE_EEE9push_backB8ne200100EOSE_, symObjAddr: 0x1F670, symBinAddr: 0x303E8, symSize: 0xD4 }
  - { offset: 0x215D21, size: 0x8, addend: 0x0, symName: __ZNSt3__116__variant_detail12__visitation6__base12__dispatcherIJLm2EEE10__dispatchB8ne200100IONS1_9__variant15__value_visitorIZN8facebook5react17CSSDataTypeParserINS9_7CSSListINS9_19CSSCompoundDataTypeIJNS9_13CSSBlurFilterENS9_19CSSBrightnessFilterENS9_17CSSContrastFilterENS9_19CSSDropShadowFilterENS9_18CSSGrayscaleFilterENS9_18CSSHueRotateFilterENS9_15CSSInvertFilterENS9_16CSSOpacityFilterENS9_17CSSSaturateFilterENS9_14CSSSepiaFilterEEEELNS9_12CSSDelimiterE0EEEE7consumeERNS9_15CSSSyntaxParserEEUlOT_E_EEJRNS0_6__baseILNS0_6_TraitE0EJNS_9monostateESD_SE_SF_SG_SH_SI_SJ_SK_SL_SM_EEEEEEDcST_DpT0_, symObjAddr: 0x1F2C0, symBinAddr: 0x30038, symSize: 0x68 }
  - { offset: 0x216595, size: 0x8, addend: 0x0, symName: __ZNSt3__116__variant_detail12__visitation6__base12__dispatcherIJLm3EEE10__dispatchB8ne200100IONS1_9__variant15__value_visitorIZN8facebook5react17CSSDataTypeParserINS9_7CSSListINS9_19CSSCompoundDataTypeIJNS9_13CSSBlurFilterENS9_19CSSBrightnessFilterENS9_17CSSContrastFilterENS9_19CSSDropShadowFilterENS9_18CSSGrayscaleFilterENS9_18CSSHueRotateFilterENS9_15CSSInvertFilterENS9_16CSSOpacityFilterENS9_17CSSSaturateFilterENS9_14CSSSepiaFilterEEEELNS9_12CSSDelimiterE0EEEE7consumeERNS9_15CSSSyntaxParserEEUlOT_E_EEJRNS0_6__baseILNS0_6_TraitE0EJNS_9monostateESD_SE_SF_SG_SH_SI_SJ_SK_SL_SM_EEEEEEDcST_DpT0_, symObjAddr: 0x1F328, symBinAddr: 0x300A0, symSize: 0x68 }
  - { offset: 0x216EDF, size: 0x8, addend: 0x0, symName: __ZNSt3__116__variant_detail12__visitation6__base12__dispatcherIJLm4EEE10__dispatchB8ne200100IONS1_9__variant15__value_visitorIZN8facebook5react17CSSDataTypeParserINS9_7CSSListINS9_19CSSCompoundDataTypeIJNS9_13CSSBlurFilterENS9_19CSSBrightnessFilterENS9_17CSSContrastFilterENS9_19CSSDropShadowFilterENS9_18CSSGrayscaleFilterENS9_18CSSHueRotateFilterENS9_15CSSInvertFilterENS9_16CSSOpacityFilterENS9_17CSSSaturateFilterENS9_14CSSSepiaFilterEEEELNS9_12CSSDelimiterE0EEEE7consumeERNS9_15CSSSyntaxParserEEUlOT_E_EEJRNS0_6__baseILNS0_6_TraitE0EJNS_9monostateESD_SE_SF_SG_SH_SI_SJ_SK_SL_SM_EEEEEEDcST_DpT0_, symObjAddr: 0x1F390, symBinAddr: 0x30108, symSize: 0x70 }
  - { offset: 0x2178D3, size: 0x8, addend: 0x0, symName: __ZNSt3__116__variant_detail12__visitation6__base12__dispatcherIJLm5EEE10__dispatchB8ne200100IONS1_9__variant15__value_visitorIZN8facebook5react17CSSDataTypeParserINS9_7CSSListINS9_19CSSCompoundDataTypeIJNS9_13CSSBlurFilterENS9_19CSSBrightnessFilterENS9_17CSSContrastFilterENS9_19CSSDropShadowFilterENS9_18CSSGrayscaleFilterENS9_18CSSHueRotateFilterENS9_15CSSInvertFilterENS9_16CSSOpacityFilterENS9_17CSSSaturateFilterENS9_14CSSSepiaFilterEEEELNS9_12CSSDelimiterE0EEEE7consumeERNS9_15CSSSyntaxParserEEUlOT_E_EEJRNS0_6__baseILNS0_6_TraitE0EJNS_9monostateESD_SE_SF_SG_SH_SI_SJ_SK_SL_SM_EEEEEEDcST_DpT0_, symObjAddr: 0x1F400, symBinAddr: 0x30178, symSize: 0x68 }
  - { offset: 0x2183C9, size: 0x8, addend: 0x0, symName: __ZNSt3__116__variant_detail12__visitation6__base12__dispatcherIJLm6EEE10__dispatchB8ne200100IONS1_9__variant15__value_visitorIZN8facebook5react17CSSDataTypeParserINS9_7CSSListINS9_19CSSCompoundDataTypeIJNS9_13CSSBlurFilterENS9_19CSSBrightnessFilterENS9_17CSSContrastFilterENS9_19CSSDropShadowFilterENS9_18CSSGrayscaleFilterENS9_18CSSHueRotateFilterENS9_15CSSInvertFilterENS9_16CSSOpacityFilterENS9_17CSSSaturateFilterENS9_14CSSSepiaFilterEEEELNS9_12CSSDelimiterE0EEEE7consumeERNS9_15CSSSyntaxParserEEUlOT_E_EEJRNS0_6__baseILNS0_6_TraitE0EJNS_9monostateESD_SE_SF_SG_SH_SI_SJ_SK_SL_SM_EEEEEEDcST_DpT0_, symObjAddr: 0x1F468, symBinAddr: 0x301E0, symSize: 0x68 }
  - { offset: 0x218F95, size: 0x8, addend: 0x0, symName: __ZNSt3__116__variant_detail12__visitation6__base12__dispatcherIJLm7EEE10__dispatchB8ne200100IONS1_9__variant15__value_visitorIZN8facebook5react17CSSDataTypeParserINS9_7CSSListINS9_19CSSCompoundDataTypeIJNS9_13CSSBlurFilterENS9_19CSSBrightnessFilterENS9_17CSSContrastFilterENS9_19CSSDropShadowFilterENS9_18CSSGrayscaleFilterENS9_18CSSHueRotateFilterENS9_15CSSInvertFilterENS9_16CSSOpacityFilterENS9_17CSSSaturateFilterENS9_14CSSSepiaFilterEEEELNS9_12CSSDelimiterE0EEEE7consumeERNS9_15CSSSyntaxParserEEUlOT_E_EEJRNS0_6__baseILNS0_6_TraitE0EJNS_9monostateESD_SE_SF_SG_SH_SI_SJ_SK_SL_SM_EEEEEEDcST_DpT0_, symObjAddr: 0x1F4D0, symBinAddr: 0x30248, symSize: 0x68 }
  - { offset: 0x219C37, size: 0x8, addend: 0x0, symName: __ZNSt3__116__variant_detail12__visitation6__base12__dispatcherIJLm8EEE10__dispatchB8ne200100IONS1_9__variant15__value_visitorIZN8facebook5react17CSSDataTypeParserINS9_7CSSListINS9_19CSSCompoundDataTypeIJNS9_13CSSBlurFilterENS9_19CSSBrightnessFilterENS9_17CSSContrastFilterENS9_19CSSDropShadowFilterENS9_18CSSGrayscaleFilterENS9_18CSSHueRotateFilterENS9_15CSSInvertFilterENS9_16CSSOpacityFilterENS9_17CSSSaturateFilterENS9_14CSSSepiaFilterEEEELNS9_12CSSDelimiterE0EEEE7consumeERNS9_15CSSSyntaxParserEEUlOT_E_EEJRNS0_6__baseILNS0_6_TraitE0EJNS_9monostateESD_SE_SF_SG_SH_SI_SJ_SK_SL_SM_EEEEEEDcST_DpT0_, symObjAddr: 0x1F538, symBinAddr: 0x302B0, symSize: 0x68 }
  - { offset: 0x21A9AF, size: 0x8, addend: 0x0, symName: __ZNSt3__116__variant_detail12__visitation6__base12__dispatcherIJLm9EEE10__dispatchB8ne200100IONS1_9__variant15__value_visitorIZN8facebook5react17CSSDataTypeParserINS9_7CSSListINS9_19CSSCompoundDataTypeIJNS9_13CSSBlurFilterENS9_19CSSBrightnessFilterENS9_17CSSContrastFilterENS9_19CSSDropShadowFilterENS9_18CSSGrayscaleFilterENS9_18CSSHueRotateFilterENS9_15CSSInvertFilterENS9_16CSSOpacityFilterENS9_17CSSSaturateFilterENS9_14CSSSepiaFilterEEEELNS9_12CSSDelimiterE0EEEE7consumeERNS9_15CSSSyntaxParserEEUlOT_E_EEJRNS0_6__baseILNS0_6_TraitE0EJNS_9monostateESD_SE_SF_SG_SH_SI_SJ_SK_SL_SM_EEEEEEDcST_DpT0_, symObjAddr: 0x1F5A0, symBinAddr: 0x30318, symSize: 0x68 }
  - { offset: 0x21B7FD, size: 0x8, addend: 0x0, symName: __ZNSt3__116__variant_detail12__visitation6__base12__dispatcherIJLm10EEE10__dispatchB8ne200100IONS1_9__variant15__value_visitorIZN8facebook5react17CSSDataTypeParserINS9_7CSSListINS9_19CSSCompoundDataTypeIJNS9_13CSSBlurFilterENS9_19CSSBrightnessFilterENS9_17CSSContrastFilterENS9_19CSSDropShadowFilterENS9_18CSSGrayscaleFilterENS9_18CSSHueRotateFilterENS9_15CSSInvertFilterENS9_16CSSOpacityFilterENS9_17CSSSaturateFilterENS9_14CSSSepiaFilterEEEELNS9_12CSSDelimiterE0EEEE7consumeERNS9_15CSSSyntaxParserEEUlOT_E_EEJRNS0_6__baseILNS0_6_TraitE0EJNS_9monostateESD_SE_SF_SG_SH_SI_SJ_SK_SL_SM_EEEEEEDcST_DpT0_, symObjAddr: 0x1F608, symBinAddr: 0x30380, symSize: 0x68 }
  - { offset: 0x21C280, size: 0x8, addend: 0x0, symName: __ZN8facebook5react34CSSComponentValueVisitorDispatcherINSt3__17variantIJNS2_9monostateENS0_14CSSWideKeywordENS0_7CSSListINS0_19CSSCompoundDataTypeIJNS0_13CSSBlurFilterENS0_19CSSBrightnessFilterENS0_17CSSContrastFilterENS0_19CSSDropShadowFilterENS0_18CSSGrayscaleFilterENS0_18CSSHueRotateFilterENS0_15CSSInvertFilterENS0_16CSSOpacityFilterENS0_17CSSSaturateFilterENS0_14CSSSepiaFilterEEEELNS0_12CSSDelimiterE0EEEEEEJRKZNS0_6detail14CSSValueParser12consumeValueIJS5_SK_EEENS3_IJS4_DpT_EEESJ_NS7_IJSQ_EEEEUlRKNS0_8CSSTokenEE_RKZNSO_IJS5_SK_EEESR_SJ_SS_EUlRKNS0_14CSSSimpleBlockERNS0_15CSSSyntaxParserEE_RKZNSO_IJS5_SK_EEESR_SJ_SS_EUlRKNS0_16CSSFunctionBlockES13_E_EE21consumeComponentValueESJ_SY_S16_S1C_, symObjAddr: 0x1F83C, symBinAddr: 0x30534, symSize: 0x204 }
  - { offset: 0x21C5D5, size: 0x8, addend: 0x0, symName: __ZN8facebook5react34CSSComponentValueVisitorDispatcherINSt3__17variantIJNS2_9monostateENS0_14CSSWideKeywordENS0_7CSSListINS0_19CSSCompoundDataTypeIJNS0_13CSSBlurFilterENS0_19CSSBrightnessFilterENS0_17CSSContrastFilterENS0_19CSSDropShadowFilterENS0_18CSSGrayscaleFilterENS0_18CSSHueRotateFilterENS0_15CSSInvertFilterENS0_16CSSOpacityFilterENS0_17CSSSaturateFilterENS0_14CSSSepiaFilterEEEELNS0_12CSSDelimiterE0EEEEEEJRKZNS0_6detail14CSSValueParser12consumeValueIJS5_SK_EEENS3_IJS4_DpT_EEESJ_NS7_IJSQ_EEEEUlRKNS0_8CSSTokenEE_RKZNSO_IJS5_SK_EEESR_SJ_SS_EUlRKNS0_14CSSSimpleBlockERNS0_15CSSSyntaxParserEE_RKZNSO_IJS5_SK_EEESR_SJ_SS_EUlRKNS0_16CSSFunctionBlockES13_E_EE16visitSimpleBlockIS14_JS1A_EEENS2_8optionalISL_EENS0_12CSSTokenTypeERKT_DpRKT0_, symObjAddr: 0x1FDA8, symBinAddr: 0x30AA0, symSize: 0x158 }
  - { offset: 0x21D269, size: 0x8, addend: 0x0, symName: __ZNSt3__116__variant_detail18__copy_constructorINS0_8__traitsIJNS_9monostateEN8facebook5react14CSSWideKeywordENS5_7CSSListINS5_19CSSCompoundDataTypeIJNS5_13CSSBlurFilterENS5_19CSSBrightnessFilterENS5_17CSSContrastFilterENS5_19CSSDropShadowFilterENS5_18CSSGrayscaleFilterENS5_18CSSHueRotateFilterENS5_15CSSInvertFilterENS5_16CSSOpacityFilterENS5_17CSSSaturateFilterENS5_14CSSSepiaFilterEEEELNS5_12CSSDelimiterE0EEEEEELNS0_6_TraitE1EEC2B8ne200100ERKSO_, symObjAddr: 0x1FC60, symBinAddr: 0x30958, symSize: 0x44 }
  - { offset: 0x21D413, size: 0x8, addend: 0x0, symName: __ZN8facebook5react34CSSComponentValueVisitorDispatcherINSt3__17variantIJNS2_9monostateENS0_14CSSWideKeywordENS0_7CSSListINS0_19CSSCompoundDataTypeIJNS0_13CSSBlurFilterENS0_19CSSBrightnessFilterENS0_17CSSContrastFilterENS0_19CSSDropShadowFilterENS0_18CSSGrayscaleFilterENS0_18CSSHueRotateFilterENS0_15CSSInvertFilterENS0_16CSSOpacityFilterENS0_17CSSSaturateFilterENS0_14CSSSepiaFilterEEEELNS0_12CSSDelimiterE0EEEEEEJRKZNS0_6detail14CSSValueParser12consumeValueIJS5_SK_EEENS3_IJS4_DpT_EEESJ_NS7_IJSQ_EEEEUlRKNS0_8CSSTokenEE_RKZNSO_IJS5_SK_EEESR_SJ_SS_EUlRKNS0_14CSSSimpleBlockERNS0_15CSSSyntaxParserEE_RKZNSO_IJS5_SK_EEESR_SJ_SS_EUlRKNS0_16CSSFunctionBlockES13_E_EE19visitPreservedTokenISW_JS14_S1A_EEENS2_8optionalISL_EERKT_DpRKT0_, symObjAddr: 0x1FA40, symBinAddr: 0x30738, symSize: 0xCC }
  - { offset: 0x21DE0C, size: 0x8, addend: 0x0, symName: __ZN8facebook5react34CSSComponentValueVisitorDispatcherINSt3__17variantIJNS2_9monostateENS0_14CSSWideKeywordENS0_7CSSListINS0_19CSSCompoundDataTypeIJNS0_13CSSBlurFilterENS0_19CSSBrightnessFilterENS0_17CSSContrastFilterENS0_19CSSDropShadowFilterENS0_18CSSGrayscaleFilterENS0_18CSSHueRotateFilterENS0_15CSSInvertFilterENS0_16CSSOpacityFilterENS0_17CSSSaturateFilterENS0_14CSSSepiaFilterEEEELNS0_12CSSDelimiterE0EEEEEEJRKZNS0_6detail14CSSValueParser12consumeValueIJS5_SK_EEENS3_IJS4_DpT_EEESJ_NS7_IJSQ_EEEEUlRKNS0_8CSSTokenEE_RKZNSO_IJS5_SK_EEESR_SJ_SS_EUlRKNS0_14CSSSimpleBlockERNS0_15CSSSyntaxParserEE_RKZNSO_IJS5_SK_EEESR_SJ_SS_EUlRKNS0_16CSSFunctionBlockES13_E_EE13visitFunctionIS1A_JEEENS2_8optionalISL_EERKT_DpRKT0_, symObjAddr: 0x1FB0C, symBinAddr: 0x30804, symSize: 0x154 }
  - { offset: 0x21F30E, size: 0x8, addend: 0x0, symName: __ZNSt3__116__variant_detail6__ctorINS0_8__traitsIJNS_9monostateEN8facebook5react14CSSWideKeywordENS5_7CSSListINS5_19CSSCompoundDataTypeIJNS5_13CSSBlurFilterENS5_19CSSBrightnessFilterENS5_17CSSContrastFilterENS5_19CSSDropShadowFilterENS5_18CSSGrayscaleFilterENS5_18CSSHueRotateFilterENS5_15CSSInvertFilterENS5_16CSSOpacityFilterENS5_17CSSSaturateFilterENS5_14CSSSepiaFilterEEEELNS5_12CSSDelimiterE0EEEEEEE19__generic_constructB8ne200100IRKNS0_18__copy_constructorISM_LNS0_6_TraitE1EEEEEvRSN_OT_, symObjAddr: 0x1FCA4, symBinAddr: 0x3099C, symSize: 0x60 }
  - { offset: 0x21F644, size: 0x8, addend: 0x0, symName: __ZNSt3__116__variant_detail12__visitation6__base12__dispatcherIJLm0EEE10__dispatchB8ne200100IOZNS0_6__dtorINS0_8__traitsIJNS_9monostateEN8facebook5react14CSSWideKeywordENSA_7CSSListINSA_19CSSCompoundDataTypeIJNSA_13CSSBlurFilterENSA_19CSSBrightnessFilterENSA_17CSSContrastFilterENSA_19CSSDropShadowFilterENSA_18CSSGrayscaleFilterENSA_18CSSHueRotateFilterENSA_15CSSInvertFilterENSA_16CSSOpacityFilterENSA_17CSSSaturateFilterENSA_14CSSSepiaFilterEEEELNSA_12CSSDelimiterE0EEEEEELNS0_6_TraitE1EE9__destroyB8ne200100EvEUlRT_E_JRNS0_6__baseILSS_1EJS8_SB_SQ_EEEEEEDcSU_DpT0_, symObjAddr: 0x1FD58, symBinAddr: 0x30A50, symSize: 0x4 }
  - { offset: 0x21F68B, size: 0x8, addend: 0x0, symName: __ZNSt3__116__variant_detail12__visitation6__base12__dispatcherIJLm1EEE10__dispatchB8ne200100IOZNS0_6__dtorINS0_8__traitsIJNS_9monostateEN8facebook5react14CSSWideKeywordENSA_7CSSListINSA_19CSSCompoundDataTypeIJNSA_13CSSBlurFilterENSA_19CSSBrightnessFilterENSA_17CSSContrastFilterENSA_19CSSDropShadowFilterENSA_18CSSGrayscaleFilterENSA_18CSSHueRotateFilterENSA_15CSSInvertFilterENSA_16CSSOpacityFilterENSA_17CSSSaturateFilterENSA_14CSSSepiaFilterEEEELNSA_12CSSDelimiterE0EEEEEELNS0_6_TraitE1EE9__destroyB8ne200100EvEUlRT_E_JRNS0_6__baseILSS_1EJS8_SB_SQ_EEEEEEDcSU_DpT0_, symObjAddr: 0x1FD5C, symBinAddr: 0x30A54, symSize: 0x4 }
  - { offset: 0x21F754, size: 0x8, addend: 0x0, symName: __ZNSt3__116__variant_detail12__visitation6__base12__dispatcherIJLm2EEE10__dispatchB8ne200100IOZNS0_6__dtorINS0_8__traitsIJNS_9monostateEN8facebook5react14CSSWideKeywordENSA_7CSSListINSA_19CSSCompoundDataTypeIJNSA_13CSSBlurFilterENSA_19CSSBrightnessFilterENSA_17CSSContrastFilterENSA_19CSSDropShadowFilterENSA_18CSSGrayscaleFilterENSA_18CSSHueRotateFilterENSA_15CSSInvertFilterENSA_16CSSOpacityFilterENSA_17CSSSaturateFilterENSA_14CSSSepiaFilterEEEELNSA_12CSSDelimiterE0EEEEEELNS0_6_TraitE1EE9__destroyB8ne200100EvEUlRT_E_JRNS0_6__baseILSS_1EJS8_SB_SQ_EEEEEEDcSU_DpT0_, symObjAddr: 0x1FD60, symBinAddr: 0x30A58, symSize: 0x14 }
  - { offset: 0x21F78A, size: 0x8, addend: 0x0, symName: __ZNSt3__116__variant_detail12__visitation6__base12__dispatcherIJLm2EEE10__dispatchB8ne200100IOZNS0_6__dtorINS0_8__traitsIJNS_9monostateEN8facebook5react14CSSWideKeywordENSA_7CSSListINSA_19CSSCompoundDataTypeIJNSA_13CSSBlurFilterENSA_19CSSBrightnessFilterENSA_17CSSContrastFilterENSA_19CSSDropShadowFilterENSA_18CSSGrayscaleFilterENSA_18CSSHueRotateFilterENSA_15CSSInvertFilterENSA_16CSSOpacityFilterENSA_17CSSSaturateFilterENSA_14CSSSepiaFilterEEEELNSA_12CSSDelimiterE0EEEEEELNS0_6_TraitE1EE9__destroyB8ne200100EvEUlRT_E_JRNS0_6__baseILSS_1EJS8_SB_SQ_EEEEEEDcSU_DpT0_, symObjAddr: 0x1FD60, symBinAddr: 0x30A58, symSize: 0x14 }
  - { offset: 0x21F7AF, size: 0x8, addend: 0x0, symName: __ZNSt3__116__variant_detail12__visitation6__base12__dispatcherIJLm2EEE10__dispatchB8ne200100IOZNS0_6__dtorINS0_8__traitsIJNS_9monostateEN8facebook5react14CSSWideKeywordENSA_7CSSListINSA_19CSSCompoundDataTypeIJNSA_13CSSBlurFilterENSA_19CSSBrightnessFilterENSA_17CSSContrastFilterENSA_19CSSDropShadowFilterENSA_18CSSGrayscaleFilterENSA_18CSSHueRotateFilterENSA_15CSSInvertFilterENSA_16CSSOpacityFilterENSA_17CSSSaturateFilterENSA_14CSSSepiaFilterEEEELNSA_12CSSDelimiterE0EEEEEELNS0_6_TraitE1EE9__destroyB8ne200100EvEUlRT_E_JRNS0_6__baseILSS_1EJS8_SB_SQ_EEEEEEDcSU_DpT0_, symObjAddr: 0x1FD60, symBinAddr: 0x30A58, symSize: 0x14 }
  - { offset: 0x21F7D3, size: 0x8, addend: 0x0, symName: __ZNSt3__116__variant_detail12__visitation6__base12__dispatcherIJLm2EEE10__dispatchB8ne200100IOZNS0_6__dtorINS0_8__traitsIJNS_9monostateEN8facebook5react14CSSWideKeywordENSA_7CSSListINSA_19CSSCompoundDataTypeIJNSA_13CSSBlurFilterENSA_19CSSBrightnessFilterENSA_17CSSContrastFilterENSA_19CSSDropShadowFilterENSA_18CSSGrayscaleFilterENSA_18CSSHueRotateFilterENSA_15CSSInvertFilterENSA_16CSSOpacityFilterENSA_17CSSSaturateFilterENSA_14CSSSepiaFilterEEEELNSA_12CSSDelimiterE0EEEEEELNS0_6_TraitE1EE9__destroyB8ne200100EvEUlRT_E_JRNS0_6__baseILSS_1EJS8_SB_SQ_EEEEEEDcSU_DpT0_, symObjAddr: 0x1FD60, symBinAddr: 0x30A58, symSize: 0x14 }
  - { offset: 0x21F7EF, size: 0x8, addend: 0x0, symName: __ZNSt3__116__variant_detail12__visitation6__base12__dispatcherIJLm2EEE10__dispatchB8ne200100IOZNS0_6__dtorINS0_8__traitsIJNS_9monostateEN8facebook5react14CSSWideKeywordENSA_7CSSListINSA_19CSSCompoundDataTypeIJNSA_13CSSBlurFilterENSA_19CSSBrightnessFilterENSA_17CSSContrastFilterENSA_19CSSDropShadowFilterENSA_18CSSGrayscaleFilterENSA_18CSSHueRotateFilterENSA_15CSSInvertFilterENSA_16CSSOpacityFilterENSA_17CSSSaturateFilterENSA_14CSSSepiaFilterEEEELNSA_12CSSDelimiterE0EEEEEELNS0_6_TraitE1EE9__destroyB8ne200100EvEUlRT_E_JRNS0_6__baseILSS_1EJS8_SB_SQ_EEEEEEDcSU_DpT0_, symObjAddr: 0x1FD60, symBinAddr: 0x30A58, symSize: 0x14 }
  - { offset: 0x21F80B, size: 0x8, addend: 0x0, symName: __ZNSt3__116__variant_detail12__visitation6__base12__dispatcherIJLm2EEE10__dispatchB8ne200100IOZNS0_6__dtorINS0_8__traitsIJNS_9monostateEN8facebook5react14CSSWideKeywordENSA_7CSSListINSA_19CSSCompoundDataTypeIJNSA_13CSSBlurFilterENSA_19CSSBrightnessFilterENSA_17CSSContrastFilterENSA_19CSSDropShadowFilterENSA_18CSSGrayscaleFilterENSA_18CSSHueRotateFilterENSA_15CSSInvertFilterENSA_16CSSOpacityFilterENSA_17CSSSaturateFilterENSA_14CSSSepiaFilterEEEELNSA_12CSSDelimiterE0EEEEEELNS0_6_TraitE1EE9__destroyB8ne200100EvEUlRT_E_JRNS0_6__baseILSS_1EJS8_SB_SQ_EEEEEEDcSU_DpT0_, symObjAddr: 0x1FD60, symBinAddr: 0x30A58, symSize: 0x14 }
  - { offset: 0x21F827, size: 0x8, addend: 0x0, symName: __ZNSt3__116__variant_detail12__visitation6__base12__dispatcherIJLm2EEE10__dispatchB8ne200100IOZNS0_6__dtorINS0_8__traitsIJNS_9monostateEN8facebook5react14CSSWideKeywordENSA_7CSSListINSA_19CSSCompoundDataTypeIJNSA_13CSSBlurFilterENSA_19CSSBrightnessFilterENSA_17CSSContrastFilterENSA_19CSSDropShadowFilterENSA_18CSSGrayscaleFilterENSA_18CSSHueRotateFilterENSA_15CSSInvertFilterENSA_16CSSOpacityFilterENSA_17CSSSaturateFilterENSA_14CSSSepiaFilterEEEELNSA_12CSSDelimiterE0EEEEEELNS0_6_TraitE1EE9__destroyB8ne200100EvEUlRT_E_JRNS0_6__baseILSS_1EJS8_SB_SQ_EEEEEEDcSU_DpT0_, symObjAddr: 0x1FD60, symBinAddr: 0x30A58, symSize: 0x14 }
  - { offset: 0x21F842, size: 0x8, addend: 0x0, symName: __ZNSt3__116__variant_detail12__visitation6__base12__dispatcherIJLm2EEE10__dispatchB8ne200100IOZNS0_6__dtorINS0_8__traitsIJNS_9monostateEN8facebook5react14CSSWideKeywordENSA_7CSSListINSA_19CSSCompoundDataTypeIJNSA_13CSSBlurFilterENSA_19CSSBrightnessFilterENSA_17CSSContrastFilterENSA_19CSSDropShadowFilterENSA_18CSSGrayscaleFilterENSA_18CSSHueRotateFilterENSA_15CSSInvertFilterENSA_16CSSOpacityFilterENSA_17CSSSaturateFilterENSA_14CSSSepiaFilterEEEELNSA_12CSSDelimiterE0EEEEEELNS0_6_TraitE1EE9__destroyB8ne200100EvEUlRT_E_JRNS0_6__baseILSS_1EJS8_SB_SQ_EEEEEEDcSU_DpT0_, symObjAddr: 0x1FD60, symBinAddr: 0x30A58, symSize: 0x14 }
  - { offset: 0x21F85D, size: 0x8, addend: 0x0, symName: __ZNSt3__116__variant_detail12__visitation6__base12__dispatcherIJLm2EEE10__dispatchB8ne200100IOZNS0_6__dtorINS0_8__traitsIJNS_9monostateEN8facebook5react14CSSWideKeywordENSA_7CSSListINSA_19CSSCompoundDataTypeIJNSA_13CSSBlurFilterENSA_19CSSBrightnessFilterENSA_17CSSContrastFilterENSA_19CSSDropShadowFilterENSA_18CSSGrayscaleFilterENSA_18CSSHueRotateFilterENSA_15CSSInvertFilterENSA_16CSSOpacityFilterENSA_17CSSSaturateFilterENSA_14CSSSepiaFilterEEEELNSA_12CSSDelimiterE0EEEEEELNS0_6_TraitE1EE9__destroyB8ne200100EvEUlRT_E_JRNS0_6__baseILSS_1EJS8_SB_SQ_EEEEEEDcSU_DpT0_, symObjAddr: 0x1FD60, symBinAddr: 0x30A58, symSize: 0x14 }
  - { offset: 0x21F943, size: 0x8, addend: 0x0, symName: __ZNSt3__116__variant_detail12__visitation6__base12__dispatcherIJLm0EEE10__dispatchB8ne200100IOZNS0_6__ctorINS0_8__traitsIJNS_9monostateEN8facebook5react14CSSWideKeywordENSA_7CSSListINSA_19CSSCompoundDataTypeIJNSA_13CSSBlurFilterENSA_19CSSBrightnessFilterENSA_17CSSContrastFilterENSA_19CSSDropShadowFilterENSA_18CSSGrayscaleFilterENSA_18CSSHueRotateFilterENSA_15CSSInvertFilterENSA_16CSSOpacityFilterENSA_17CSSSaturateFilterENSA_14CSSSepiaFilterEEEELNSA_12CSSDelimiterE0EEEEEEE19__generic_constructB8ne200100IRKNS0_18__copy_constructorISR_LNS0_6_TraitE1EEEEEvRSS_OT_EUlS11_E_JRKNS0_6__baseILSV_1EJS8_SB_SQ_EEEEEEDcS10_DpT0_, symObjAddr: 0x1FD74, symBinAddr: 0x30A6C, symSize: 0x4 }
  - { offset: 0x21FACC, size: 0x8, addend: 0x0, symName: __ZNSt3__116__variant_detail12__visitation6__base12__dispatcherIJLm1EEE10__dispatchB8ne200100IOZNS0_6__ctorINS0_8__traitsIJNS_9monostateEN8facebook5react14CSSWideKeywordENSA_7CSSListINSA_19CSSCompoundDataTypeIJNSA_13CSSBlurFilterENSA_19CSSBrightnessFilterENSA_17CSSContrastFilterENSA_19CSSDropShadowFilterENSA_18CSSGrayscaleFilterENSA_18CSSHueRotateFilterENSA_15CSSInvertFilterENSA_16CSSOpacityFilterENSA_17CSSSaturateFilterENSA_14CSSSepiaFilterEEEELNSA_12CSSDelimiterE0EEEEEEE19__generic_constructB8ne200100IRKNS0_18__copy_constructorISR_LNS0_6_TraitE1EEEEEvRSS_OT_EUlS11_E_JRKNS0_6__baseILSV_1EJS8_SB_SQ_EEEEEEDcS10_DpT0_, symObjAddr: 0x1FD78, symBinAddr: 0x30A70, symSize: 0x10 }
  - { offset: 0x21FB01, size: 0x8, addend: 0x0, symName: __ZNSt3__116__variant_detail12__visitation6__base12__dispatcherIJLm1EEE10__dispatchB8ne200100IOZNS0_6__ctorINS0_8__traitsIJNS_9monostateEN8facebook5react14CSSWideKeywordENSA_7CSSListINSA_19CSSCompoundDataTypeIJNSA_13CSSBlurFilterENSA_19CSSBrightnessFilterENSA_17CSSContrastFilterENSA_19CSSDropShadowFilterENSA_18CSSGrayscaleFilterENSA_18CSSHueRotateFilterENSA_15CSSInvertFilterENSA_16CSSOpacityFilterENSA_17CSSSaturateFilterENSA_14CSSSepiaFilterEEEELNSA_12CSSDelimiterE0EEEEEEE19__generic_constructB8ne200100IRKNS0_18__copy_constructorISR_LNS0_6_TraitE1EEEEEvRSS_OT_EUlS11_E_JRKNS0_6__baseILSV_1EJS8_SB_SQ_EEEEEEDcS10_DpT0_, symObjAddr: 0x1FD78, symBinAddr: 0x30A70, symSize: 0x10 }
  - { offset: 0x21FB24, size: 0x8, addend: 0x0, symName: __ZNSt3__116__variant_detail12__visitation6__base12__dispatcherIJLm1EEE10__dispatchB8ne200100IOZNS0_6__ctorINS0_8__traitsIJNS_9monostateEN8facebook5react14CSSWideKeywordENSA_7CSSListINSA_19CSSCompoundDataTypeIJNSA_13CSSBlurFilterENSA_19CSSBrightnessFilterENSA_17CSSContrastFilterENSA_19CSSDropShadowFilterENSA_18CSSGrayscaleFilterENSA_18CSSHueRotateFilterENSA_15CSSInvertFilterENSA_16CSSOpacityFilterENSA_17CSSSaturateFilterENSA_14CSSSepiaFilterEEEELNSA_12CSSDelimiterE0EEEEEEE19__generic_constructB8ne200100IRKNS0_18__copy_constructorISR_LNS0_6_TraitE1EEEEEvRSS_OT_EUlS11_E_JRKNS0_6__baseILSV_1EJS8_SB_SQ_EEEEEEDcS10_DpT0_, symObjAddr: 0x1FD78, symBinAddr: 0x30A70, symSize: 0x10 }
  - { offset: 0x21FEB4, size: 0x8, addend: 0x0, symName: __ZNSt3__116__variant_detail12__visitation6__base12__dispatcherIJLm2EEE10__dispatchB8ne200100IOZNS0_6__ctorINS0_8__traitsIJNS_9monostateEN8facebook5react14CSSWideKeywordENSA_7CSSListINSA_19CSSCompoundDataTypeIJNSA_13CSSBlurFilterENSA_19CSSBrightnessFilterENSA_17CSSContrastFilterENSA_19CSSDropShadowFilterENSA_18CSSGrayscaleFilterENSA_18CSSHueRotateFilterENSA_15CSSInvertFilterENSA_16CSSOpacityFilterENSA_17CSSSaturateFilterENSA_14CSSSepiaFilterEEEELNSA_12CSSDelimiterE0EEEEEEE19__generic_constructB8ne200100IRKNS0_18__copy_constructorISR_LNS0_6_TraitE1EEEEEvRSS_OT_EUlS11_E_JRKNS0_6__baseILSV_1EJS8_SB_SQ_EEEEEEDcS10_DpT0_, symObjAddr: 0x1FD88, symBinAddr: 0x30A80, symSize: 0x20 }
  - { offset: 0x21FEEB, size: 0x8, addend: 0x0, symName: __ZNSt3__116__variant_detail12__visitation6__base12__dispatcherIJLm2EEE10__dispatchB8ne200100IOZNS0_6__ctorINS0_8__traitsIJNS_9monostateEN8facebook5react14CSSWideKeywordENSA_7CSSListINSA_19CSSCompoundDataTypeIJNSA_13CSSBlurFilterENSA_19CSSBrightnessFilterENSA_17CSSContrastFilterENSA_19CSSDropShadowFilterENSA_18CSSGrayscaleFilterENSA_18CSSHueRotateFilterENSA_15CSSInvertFilterENSA_16CSSOpacityFilterENSA_17CSSSaturateFilterENSA_14CSSSepiaFilterEEEELNSA_12CSSDelimiterE0EEEEEEE19__generic_constructB8ne200100IRKNS0_18__copy_constructorISR_LNS0_6_TraitE1EEEEEvRSS_OT_EUlS11_E_JRKNS0_6__baseILSV_1EJS8_SB_SQ_EEEEEEDcS10_DpT0_, symObjAddr: 0x1FD88, symBinAddr: 0x30A80, symSize: 0x20 }
  - { offset: 0x21FF12, size: 0x8, addend: 0x0, symName: __ZNSt3__116__variant_detail12__visitation6__base12__dispatcherIJLm2EEE10__dispatchB8ne200100IOZNS0_6__ctorINS0_8__traitsIJNS_9monostateEN8facebook5react14CSSWideKeywordENSA_7CSSListINSA_19CSSCompoundDataTypeIJNSA_13CSSBlurFilterENSA_19CSSBrightnessFilterENSA_17CSSContrastFilterENSA_19CSSDropShadowFilterENSA_18CSSGrayscaleFilterENSA_18CSSHueRotateFilterENSA_15CSSInvertFilterENSA_16CSSOpacityFilterENSA_17CSSSaturateFilterENSA_14CSSSepiaFilterEEEELNSA_12CSSDelimiterE0EEEEEEE19__generic_constructB8ne200100IRKNS0_18__copy_constructorISR_LNS0_6_TraitE1EEEEEvRSS_OT_EUlS11_E_JRKNS0_6__baseILSV_1EJS8_SB_SQ_EEEEEEDcS10_DpT0_, symObjAddr: 0x1FD88, symBinAddr: 0x30A80, symSize: 0x20 }
  - { offset: 0x220250, size: 0x8, addend: 0x0, symName: __ZNSt3__116__variant_detail6__ctorINS0_8__traitsIJNS_9monostateEN8facebook5react14CSSWideKeywordENS5_7CSSListINS5_19CSSCompoundDataTypeIJNS5_13CSSBlurFilterENS5_19CSSBrightnessFilterENS5_17CSSContrastFilterENS5_19CSSDropShadowFilterENS5_18CSSGrayscaleFilterENS5_18CSSHueRotateFilterENS5_15CSSInvertFilterENS5_16CSSOpacityFilterENS5_17CSSSaturateFilterENS5_14CSSSepiaFilterEEEELNS5_12CSSDelimiterE0EEEEEEE19__generic_constructB8ne200100INS0_18__move_constructorISM_LNS0_6_TraitE1EEEEEvRSN_OT_, symObjAddr: 0x1FF34, symBinAddr: 0x30C2C, symSize: 0x60 }
  - { offset: 0x22046B, size: 0x8, addend: 0x0, symName: __ZNSt3__116__variant_detail12__visitation6__base12__dispatcherIJLm0EEE10__dispatchB8ne200100IOZNS0_6__ctorINS0_8__traitsIJNS_9monostateEN8facebook5react14CSSWideKeywordENSA_7CSSListINSA_19CSSCompoundDataTypeIJNSA_13CSSBlurFilterENSA_19CSSBrightnessFilterENSA_17CSSContrastFilterENSA_19CSSDropShadowFilterENSA_18CSSGrayscaleFilterENSA_18CSSHueRotateFilterENSA_15CSSInvertFilterENSA_16CSSOpacityFilterENSA_17CSSSaturateFilterENSA_14CSSSepiaFilterEEEELNSA_12CSSDelimiterE0EEEEEEE19__generic_constructB8ne200100INS0_18__move_constructorISR_LNS0_6_TraitE1EEEEEvRSS_OT_EUlSZ_E_JONS0_6__baseILSV_1EJS8_SB_SQ_EEEEEEDcSY_DpT0_, symObjAddr: 0x1FF94, symBinAddr: 0x30C8C, symSize: 0x4 }
  - { offset: 0x2205F4, size: 0x8, addend: 0x0, symName: __ZNSt3__116__variant_detail12__visitation6__base12__dispatcherIJLm1EEE10__dispatchB8ne200100IOZNS0_6__ctorINS0_8__traitsIJNS_9monostateEN8facebook5react14CSSWideKeywordENSA_7CSSListINSA_19CSSCompoundDataTypeIJNSA_13CSSBlurFilterENSA_19CSSBrightnessFilterENSA_17CSSContrastFilterENSA_19CSSDropShadowFilterENSA_18CSSGrayscaleFilterENSA_18CSSHueRotateFilterENSA_15CSSInvertFilterENSA_16CSSOpacityFilterENSA_17CSSSaturateFilterENSA_14CSSSepiaFilterEEEELNSA_12CSSDelimiterE0EEEEEEE19__generic_constructB8ne200100INS0_18__move_constructorISR_LNS0_6_TraitE1EEEEEvRSS_OT_EUlSZ_E_JONS0_6__baseILSV_1EJS8_SB_SQ_EEEEEEDcSY_DpT0_, symObjAddr: 0x1FF98, symBinAddr: 0x30C90, symSize: 0x10 }
  - { offset: 0x220629, size: 0x8, addend: 0x0, symName: __ZNSt3__116__variant_detail12__visitation6__base12__dispatcherIJLm1EEE10__dispatchB8ne200100IOZNS0_6__ctorINS0_8__traitsIJNS_9monostateEN8facebook5react14CSSWideKeywordENSA_7CSSListINSA_19CSSCompoundDataTypeIJNSA_13CSSBlurFilterENSA_19CSSBrightnessFilterENSA_17CSSContrastFilterENSA_19CSSDropShadowFilterENSA_18CSSGrayscaleFilterENSA_18CSSHueRotateFilterENSA_15CSSInvertFilterENSA_16CSSOpacityFilterENSA_17CSSSaturateFilterENSA_14CSSSepiaFilterEEEELNSA_12CSSDelimiterE0EEEEEEE19__generic_constructB8ne200100INS0_18__move_constructorISR_LNS0_6_TraitE1EEEEEvRSS_OT_EUlSZ_E_JONS0_6__baseILSV_1EJS8_SB_SQ_EEEEEEDcSY_DpT0_, symObjAddr: 0x1FF98, symBinAddr: 0x30C90, symSize: 0x10 }
  - { offset: 0x22064C, size: 0x8, addend: 0x0, symName: __ZNSt3__116__variant_detail12__visitation6__base12__dispatcherIJLm1EEE10__dispatchB8ne200100IOZNS0_6__ctorINS0_8__traitsIJNS_9monostateEN8facebook5react14CSSWideKeywordENSA_7CSSListINSA_19CSSCompoundDataTypeIJNSA_13CSSBlurFilterENSA_19CSSBrightnessFilterENSA_17CSSContrastFilterENSA_19CSSDropShadowFilterENSA_18CSSGrayscaleFilterENSA_18CSSHueRotateFilterENSA_15CSSInvertFilterENSA_16CSSOpacityFilterENSA_17CSSSaturateFilterENSA_14CSSSepiaFilterEEEELNSA_12CSSDelimiterE0EEEEEEE19__generic_constructB8ne200100INS0_18__move_constructorISR_LNS0_6_TraitE1EEEEEvRSS_OT_EUlSZ_E_JONS0_6__baseILSV_1EJS8_SB_SQ_EEEEEEDcSY_DpT0_, symObjAddr: 0x1FF98, symBinAddr: 0x30C90, symSize: 0x10 }
  - { offset: 0x2209D6, size: 0x8, addend: 0x0, symName: __ZNSt3__116__variant_detail12__visitation6__base12__dispatcherIJLm2EEE10__dispatchB8ne200100IOZNS0_6__ctorINS0_8__traitsIJNS_9monostateEN8facebook5react14CSSWideKeywordENSA_7CSSListINSA_19CSSCompoundDataTypeIJNSA_13CSSBlurFilterENSA_19CSSBrightnessFilterENSA_17CSSContrastFilterENSA_19CSSDropShadowFilterENSA_18CSSGrayscaleFilterENSA_18CSSHueRotateFilterENSA_15CSSInvertFilterENSA_16CSSOpacityFilterENSA_17CSSSaturateFilterENSA_14CSSSepiaFilterEEEELNSA_12CSSDelimiterE0EEEEEEE19__generic_constructB8ne200100INS0_18__move_constructorISR_LNS0_6_TraitE1EEEEEvRSS_OT_EUlSZ_E_JONS0_6__baseILSV_1EJS8_SB_SQ_EEEEEEDcSY_DpT0_, symObjAddr: 0x1FFA8, symBinAddr: 0x30CA0, symSize: 0x28 }
  - { offset: 0x220A0B, size: 0x8, addend: 0x0, symName: __ZNSt3__116__variant_detail12__visitation6__base12__dispatcherIJLm2EEE10__dispatchB8ne200100IOZNS0_6__ctorINS0_8__traitsIJNS_9monostateEN8facebook5react14CSSWideKeywordENSA_7CSSListINSA_19CSSCompoundDataTypeIJNSA_13CSSBlurFilterENSA_19CSSBrightnessFilterENSA_17CSSContrastFilterENSA_19CSSDropShadowFilterENSA_18CSSGrayscaleFilterENSA_18CSSHueRotateFilterENSA_15CSSInvertFilterENSA_16CSSOpacityFilterENSA_17CSSSaturateFilterENSA_14CSSSepiaFilterEEEELNSA_12CSSDelimiterE0EEEEEEE19__generic_constructB8ne200100INS0_18__move_constructorISR_LNS0_6_TraitE1EEEEEvRSS_OT_EUlSZ_E_JONS0_6__baseILSV_1EJS8_SB_SQ_EEEEEEDcSY_DpT0_, symObjAddr: 0x1FFA8, symBinAddr: 0x30CA0, symSize: 0x28 }
  - { offset: 0x220A2E, size: 0x8, addend: 0x0, symName: __ZNSt3__116__variant_detail12__visitation6__base12__dispatcherIJLm2EEE10__dispatchB8ne200100IOZNS0_6__ctorINS0_8__traitsIJNS_9monostateEN8facebook5react14CSSWideKeywordENSA_7CSSListINSA_19CSSCompoundDataTypeIJNSA_13CSSBlurFilterENSA_19CSSBrightnessFilterENSA_17CSSContrastFilterENSA_19CSSDropShadowFilterENSA_18CSSGrayscaleFilterENSA_18CSSHueRotateFilterENSA_15CSSInvertFilterENSA_16CSSOpacityFilterENSA_17CSSSaturateFilterENSA_14CSSSepiaFilterEEEELNSA_12CSSDelimiterE0EEEEEEE19__generic_constructB8ne200100INS0_18__move_constructorISR_LNS0_6_TraitE1EEEEEvRSS_OT_EUlSZ_E_JONS0_6__baseILSV_1EJS8_SB_SQ_EEEEEEDcSY_DpT0_, symObjAddr: 0x1FFA8, symBinAddr: 0x30CA0, symSize: 0x28 }
  - { offset: 0x220C40, size: 0x8, addend: 0x0, symName: __ZNSt3__116__variant_detail12__visitation6__base12__dispatcherIJLm0EEE10__dispatchB8ne200100IONS1_9__variant15__value_visitorIZN8facebook5react13fromCSSFilterERKNS_7variantIJNS9_13CSSBlurFilterENS9_19CSSBrightnessFilterENS9_17CSSContrastFilterENS9_19CSSDropShadowFilterENS9_18CSSGrayscaleFilterENS9_18CSSHueRotateFilterENS9_15CSSInvertFilterENS9_16CSSOpacityFilterENS9_17CSSSaturateFilterENS9_14CSSSepiaFilterEEEEEUlOT_E_EEJRKNS0_6__baseILNS0_6_TraitE0EJSB_SC_SD_SE_SF_SG_SH_SI_SJ_SK_EEEEEEDcSO_DpT0_, symObjAddr: 0x1FFD0, symBinAddr: 0x30CC8, symSize: 0x4 }
  - { offset: 0x220C75, size: 0x8, addend: 0x0, symName: __ZNSt3__116__variant_detail12__visitation6__base12__dispatcherIJLm0EEE10__dispatchB8ne200100IONS1_9__variant15__value_visitorIZN8facebook5react13fromCSSFilterERKNS_7variantIJNS9_13CSSBlurFilterENS9_19CSSBrightnessFilterENS9_17CSSContrastFilterENS9_19CSSDropShadowFilterENS9_18CSSGrayscaleFilterENS9_18CSSHueRotateFilterENS9_15CSSInvertFilterENS9_16CSSOpacityFilterENS9_17CSSSaturateFilterENS9_14CSSSepiaFilterEEEEEUlOT_E_EEJRKNS0_6__baseILNS0_6_TraitE0EJSB_SC_SD_SE_SF_SG_SH_SI_SJ_SK_EEEEEEDcSO_DpT0_, symObjAddr: 0x1FFD0, symBinAddr: 0x30CC8, symSize: 0x4 }
  - { offset: 0x220C9A, size: 0x8, addend: 0x0, symName: __ZNSt3__116__variant_detail12__visitation6__base12__dispatcherIJLm0EEE10__dispatchB8ne200100IONS1_9__variant15__value_visitorIZN8facebook5react13fromCSSFilterERKNS_7variantIJNS9_13CSSBlurFilterENS9_19CSSBrightnessFilterENS9_17CSSContrastFilterENS9_19CSSDropShadowFilterENS9_18CSSGrayscaleFilterENS9_18CSSHueRotateFilterENS9_15CSSInvertFilterENS9_16CSSOpacityFilterENS9_17CSSSaturateFilterENS9_14CSSSepiaFilterEEEEEUlOT_E_EEJRKNS0_6__baseILNS0_6_TraitE0EJSB_SC_SD_SE_SF_SG_SH_SI_SJ_SK_EEEEEEDcSO_DpT0_, symObjAddr: 0x1FFD0, symBinAddr: 0x30CC8, symSize: 0x4 }
  - { offset: 0x220CDB, size: 0x8, addend: 0x0, symName: __ZNKSt3__116__variant_detail12__visitation9__variant15__value_visitorIZN8facebook5react13fromCSSFilterERKNS_7variantIJNS5_13CSSBlurFilterENS5_19CSSBrightnessFilterENS5_17CSSContrastFilterENS5_19CSSDropShadowFilterENS5_18CSSGrayscaleFilterENS5_18CSSHueRotateFilterENS5_15CSSInvertFilterENS5_16CSSOpacityFilterENS5_17CSSSaturateFilterENS5_14CSSSepiaFilterEEEEEUlOT_E_EclB8ne200100IJRKNS0_5__altILm0ES7_EEEEEDcDpOT_, symObjAddr: 0x1FFFC, symBinAddr: 0x30CF4, symSize: 0xB4 }
  - { offset: 0x22149C, size: 0x8, addend: 0x0, symName: __ZNSt3__116__variant_detail12__visitation6__base12__dispatcherIJLm0EEE10__dispatchB8ne200100IONS1_9__variant15__value_visitorIZN8facebook5react21filterTypeFromVariantERKNS_7variantIJNS9_13CSSBlurFilterENS9_19CSSBrightnessFilterENS9_17CSSContrastFilterENS9_19CSSDropShadowFilterENS9_18CSSGrayscaleFilterENS9_18CSSHueRotateFilterENS9_15CSSInvertFilterENS9_16CSSOpacityFilterENS9_17CSSSaturateFilterENS9_14CSSSepiaFilterEEEEEUlOT_E_EEJRKNS0_6__baseILNS0_6_TraitE0EJSB_SC_SD_SE_SF_SG_SH_SI_SJ_SK_EEEEEEDcSO_DpT0_, symObjAddr: 0x200B0, symBinAddr: 0x30DA8, symSize: 0x8 }
  - { offset: 0x2214BE, size: 0x8, addend: 0x0, symName: __ZNSt3__116__variant_detail12__visitation6__base12__dispatcherIJLm1EEE10__dispatchB8ne200100IONS1_9__variant15__value_visitorIZN8facebook5react13fromCSSFilterERKNS_7variantIJNS9_13CSSBlurFilterENS9_19CSSBrightnessFilterENS9_17CSSContrastFilterENS9_19CSSDropShadowFilterENS9_18CSSGrayscaleFilterENS9_18CSSHueRotateFilterENS9_15CSSInvertFilterENS9_16CSSOpacityFilterENS9_17CSSSaturateFilterENS9_14CSSSepiaFilterEEEEEUlOT_E_EEJRKNS0_6__baseILNS0_6_TraitE0EJSB_SC_SD_SE_SF_SG_SH_SI_SJ_SK_EEEEEEDcSO_DpT0_, symObjAddr: 0x1FFD4, symBinAddr: 0x30CCC, symSize: 0x4 }
  - { offset: 0x2214F3, size: 0x8, addend: 0x0, symName: __ZNSt3__116__variant_detail12__visitation6__base12__dispatcherIJLm1EEE10__dispatchB8ne200100IONS1_9__variant15__value_visitorIZN8facebook5react13fromCSSFilterERKNS_7variantIJNS9_13CSSBlurFilterENS9_19CSSBrightnessFilterENS9_17CSSContrastFilterENS9_19CSSDropShadowFilterENS9_18CSSGrayscaleFilterENS9_18CSSHueRotateFilterENS9_15CSSInvertFilterENS9_16CSSOpacityFilterENS9_17CSSSaturateFilterENS9_14CSSSepiaFilterEEEEEUlOT_E_EEJRKNS0_6__baseILNS0_6_TraitE0EJSB_SC_SD_SE_SF_SG_SH_SI_SJ_SK_EEEEEEDcSO_DpT0_, symObjAddr: 0x1FFD4, symBinAddr: 0x30CCC, symSize: 0x4 }
  - { offset: 0x221518, size: 0x8, addend: 0x0, symName: __ZNSt3__116__variant_detail12__visitation6__base12__dispatcherIJLm1EEE10__dispatchB8ne200100IONS1_9__variant15__value_visitorIZN8facebook5react13fromCSSFilterERKNS_7variantIJNS9_13CSSBlurFilterENS9_19CSSBrightnessFilterENS9_17CSSContrastFilterENS9_19CSSDropShadowFilterENS9_18CSSGrayscaleFilterENS9_18CSSHueRotateFilterENS9_15CSSInvertFilterENS9_16CSSOpacityFilterENS9_17CSSSaturateFilterENS9_14CSSSepiaFilterEEEEEUlOT_E_EEJRKNS0_6__baseILNS0_6_TraitE0EJSB_SC_SD_SE_SF_SG_SH_SI_SJ_SK_EEEEEEDcSO_DpT0_, symObjAddr: 0x1FFD4, symBinAddr: 0x30CCC, symSize: 0x4 }
  - { offset: 0x22154D, size: 0x8, addend: 0x0, symName: __ZNKSt3__116__variant_detail12__visitation9__variant15__value_visitorIZN8facebook5react13fromCSSFilterERKNS_7variantIJNS5_13CSSBlurFilterENS5_19CSSBrightnessFilterENS5_17CSSContrastFilterENS5_19CSSDropShadowFilterENS5_18CSSGrayscaleFilterENS5_18CSSHueRotateFilterENS5_15CSSInvertFilterENS5_16CSSOpacityFilterENS5_17CSSSaturateFilterENS5_14CSSSepiaFilterEEEEEUlOT_E_EclB8ne200100IJRKNS0_5__altILm1ES8_EEEEEDcDpOT_, symObjAddr: 0x201D0, symBinAddr: 0x30EC8, symSize: 0x9C }
  - { offset: 0x221C37, size: 0x8, addend: 0x0, symName: __ZNSt3__116__variant_detail12__visitation6__base12__dispatcherIJLm2EEE10__dispatchB8ne200100IONS1_9__variant15__value_visitorIZN8facebook5react13fromCSSFilterERKNS_7variantIJNS9_13CSSBlurFilterENS9_19CSSBrightnessFilterENS9_17CSSContrastFilterENS9_19CSSDropShadowFilterENS9_18CSSGrayscaleFilterENS9_18CSSHueRotateFilterENS9_15CSSInvertFilterENS9_16CSSOpacityFilterENS9_17CSSSaturateFilterENS9_14CSSSepiaFilterEEEEEUlOT_E_EEJRKNS0_6__baseILNS0_6_TraitE0EJSB_SC_SD_SE_SF_SG_SH_SI_SJ_SK_EEEEEEDcSO_DpT0_, symObjAddr: 0x1FFD8, symBinAddr: 0x30CD0, symSize: 0x4 }
  - { offset: 0x221C6C, size: 0x8, addend: 0x0, symName: __ZNSt3__116__variant_detail12__visitation6__base12__dispatcherIJLm2EEE10__dispatchB8ne200100IONS1_9__variant15__value_visitorIZN8facebook5react13fromCSSFilterERKNS_7variantIJNS9_13CSSBlurFilterENS9_19CSSBrightnessFilterENS9_17CSSContrastFilterENS9_19CSSDropShadowFilterENS9_18CSSGrayscaleFilterENS9_18CSSHueRotateFilterENS9_15CSSInvertFilterENS9_16CSSOpacityFilterENS9_17CSSSaturateFilterENS9_14CSSSepiaFilterEEEEEUlOT_E_EEJRKNS0_6__baseILNS0_6_TraitE0EJSB_SC_SD_SE_SF_SG_SH_SI_SJ_SK_EEEEEEDcSO_DpT0_, symObjAddr: 0x1FFD8, symBinAddr: 0x30CD0, symSize: 0x4 }
  - { offset: 0x221C91, size: 0x8, addend: 0x0, symName: __ZNSt3__116__variant_detail12__visitation6__base12__dispatcherIJLm2EEE10__dispatchB8ne200100IONS1_9__variant15__value_visitorIZN8facebook5react13fromCSSFilterERKNS_7variantIJNS9_13CSSBlurFilterENS9_19CSSBrightnessFilterENS9_17CSSContrastFilterENS9_19CSSDropShadowFilterENS9_18CSSGrayscaleFilterENS9_18CSSHueRotateFilterENS9_15CSSInvertFilterENS9_16CSSOpacityFilterENS9_17CSSSaturateFilterENS9_14CSSSepiaFilterEEEEEUlOT_E_EEJRKNS0_6__baseILNS0_6_TraitE0EJSB_SC_SD_SE_SF_SG_SH_SI_SJ_SK_EEEEEEDcSO_DpT0_, symObjAddr: 0x1FFD8, symBinAddr: 0x30CD0, symSize: 0x4 }
  - { offset: 0x2220F8, size: 0x8, addend: 0x0, symName: __ZZN8facebook5react13fromCSSFilterERKNSt3__17variantIJNS0_13CSSBlurFilterENS0_19CSSBrightnessFilterENS0_17CSSContrastFilterENS0_19CSSDropShadowFilterENS0_18CSSGrayscaleFilterENS0_18CSSHueRotateFilterENS0_15CSSInvertFilterENS0_16CSSOpacityFilterENS0_17CSSSaturateFilterENS0_14CSSSepiaFilterEEEEENKUlOT_E_clIRKS6_EENS1_8optionalINS0_14FilterFunctionEEESH_, symObjAddr: 0x20308, symBinAddr: 0x30F64, symSize: 0x15C }
  - { offset: 0x22214E, size: 0x8, addend: 0x0, symName: __ZNSt3__116__variant_detail12__visitation6__base12__dispatcherIJLm3EEE10__dispatchB8ne200100IONS1_9__variant15__value_visitorIZN8facebook5react13fromCSSFilterERKNS_7variantIJNS9_13CSSBlurFilterENS9_19CSSBrightnessFilterENS9_17CSSContrastFilterENS9_19CSSDropShadowFilterENS9_18CSSGrayscaleFilterENS9_18CSSHueRotateFilterENS9_15CSSInvertFilterENS9_16CSSOpacityFilterENS9_17CSSSaturateFilterENS9_14CSSSepiaFilterEEEEEUlOT_E_EEJRKNS0_6__baseILNS0_6_TraitE0EJSB_SC_SD_SE_SF_SG_SH_SI_SJ_SK_EEEEEEDcSO_DpT0_, symObjAddr: 0x1FFDC, symBinAddr: 0x30CD4, symSize: 0x8 }
  - { offset: 0x222175, size: 0x8, addend: 0x0, symName: __ZNSt3__116__variant_detail12__visitation6__base12__dispatcherIJLm3EEE10__dispatchB8ne200100IONS1_9__variant15__value_visitorIZN8facebook5react13fromCSSFilterERKNS_7variantIJNS9_13CSSBlurFilterENS9_19CSSBrightnessFilterENS9_17CSSContrastFilterENS9_19CSSDropShadowFilterENS9_18CSSGrayscaleFilterENS9_18CSSHueRotateFilterENS9_15CSSInvertFilterENS9_16CSSOpacityFilterENS9_17CSSSaturateFilterENS9_14CSSSepiaFilterEEEEEUlOT_E_EEJRKNS0_6__baseILNS0_6_TraitE0EJSB_SC_SD_SE_SF_SG_SH_SI_SJ_SK_EEEEEEDcSO_DpT0_, symObjAddr: 0x1FFDC, symBinAddr: 0x30CD4, symSize: 0x8 }
  - { offset: 0x22219A, size: 0x8, addend: 0x0, symName: __ZNSt3__116__variant_detail12__visitation6__base12__dispatcherIJLm3EEE10__dispatchB8ne200100IONS1_9__variant15__value_visitorIZN8facebook5react13fromCSSFilterERKNS_7variantIJNS9_13CSSBlurFilterENS9_19CSSBrightnessFilterENS9_17CSSContrastFilterENS9_19CSSDropShadowFilterENS9_18CSSGrayscaleFilterENS9_18CSSHueRotateFilterENS9_15CSSInvertFilterENS9_16CSSOpacityFilterENS9_17CSSSaturateFilterENS9_14CSSSepiaFilterEEEEEUlOT_E_EEJRKNS0_6__baseILNS0_6_TraitE0EJSB_SC_SD_SE_SF_SG_SH_SI_SJ_SK_EEEEEEDcSO_DpT0_, symObjAddr: 0x1FFDC, symBinAddr: 0x30CD4, symSize: 0x8 }
  - { offset: 0x22220B, size: 0x8, addend: 0x0, symName: __ZZN8facebook5react13fromCSSFilterERKNSt3__17variantIJNS0_13CSSBlurFilterENS0_19CSSBrightnessFilterENS0_17CSSContrastFilterENS0_19CSSDropShadowFilterENS0_18CSSGrayscaleFilterENS0_18CSSHueRotateFilterENS0_15CSSInvertFilterENS0_16CSSOpacityFilterENS0_17CSSSaturateFilterENS0_14CSSSepiaFilterEEEEENKUlOT_E_clIRKS6_EENS1_8optionalINS0_14FilterFunctionEEESH_, symObjAddr: 0x20308, symBinAddr: 0x30F64, symSize: 0x15C }
  - { offset: 0x222AC7, size: 0x8, addend: 0x0, symName: __ZNSt3__116__variant_detail12__visitation6__base12__dispatcherIJLm4EEE10__dispatchB8ne200100IONS1_9__variant15__value_visitorIZN8facebook5react13fromCSSFilterERKNS_7variantIJNS9_13CSSBlurFilterENS9_19CSSBrightnessFilterENS9_17CSSContrastFilterENS9_19CSSDropShadowFilterENS9_18CSSGrayscaleFilterENS9_18CSSHueRotateFilterENS9_15CSSInvertFilterENS9_16CSSOpacityFilterENS9_17CSSSaturateFilterENS9_14CSSSepiaFilterEEEEEUlOT_E_EEJRKNS0_6__baseILNS0_6_TraitE0EJSB_SC_SD_SE_SF_SG_SH_SI_SJ_SK_EEEEEEDcSO_DpT0_, symObjAddr: 0x1FFE4, symBinAddr: 0x30CDC, symSize: 0x4 }
  - { offset: 0x222AFC, size: 0x8, addend: 0x0, symName: __ZNSt3__116__variant_detail12__visitation6__base12__dispatcherIJLm4EEE10__dispatchB8ne200100IONS1_9__variant15__value_visitorIZN8facebook5react13fromCSSFilterERKNS_7variantIJNS9_13CSSBlurFilterENS9_19CSSBrightnessFilterENS9_17CSSContrastFilterENS9_19CSSDropShadowFilterENS9_18CSSGrayscaleFilterENS9_18CSSHueRotateFilterENS9_15CSSInvertFilterENS9_16CSSOpacityFilterENS9_17CSSSaturateFilterENS9_14CSSSepiaFilterEEEEEUlOT_E_EEJRKNS0_6__baseILNS0_6_TraitE0EJSB_SC_SD_SE_SF_SG_SH_SI_SJ_SK_EEEEEEDcSO_DpT0_, symObjAddr: 0x1FFE4, symBinAddr: 0x30CDC, symSize: 0x4 }
  - { offset: 0x222B21, size: 0x8, addend: 0x0, symName: __ZNSt3__116__variant_detail12__visitation6__base12__dispatcherIJLm4EEE10__dispatchB8ne200100IONS1_9__variant15__value_visitorIZN8facebook5react13fromCSSFilterERKNS_7variantIJNS9_13CSSBlurFilterENS9_19CSSBrightnessFilterENS9_17CSSContrastFilterENS9_19CSSDropShadowFilterENS9_18CSSGrayscaleFilterENS9_18CSSHueRotateFilterENS9_15CSSInvertFilterENS9_16CSSOpacityFilterENS9_17CSSSaturateFilterENS9_14CSSSepiaFilterEEEEEUlOT_E_EEJRKNS0_6__baseILNS0_6_TraitE0EJSB_SC_SD_SE_SF_SG_SH_SI_SJ_SK_EEEEEEDcSO_DpT0_, symObjAddr: 0x1FFE4, symBinAddr: 0x30CDC, symSize: 0x4 }
  - { offset: 0x222FAA, size: 0x8, addend: 0x0, symName: __ZNSt3__116__variant_detail12__visitation6__base12__dispatcherIJLm5EEE10__dispatchB8ne200100IONS1_9__variant15__value_visitorIZN8facebook5react13fromCSSFilterERKNS_7variantIJNS9_13CSSBlurFilterENS9_19CSSBrightnessFilterENS9_17CSSContrastFilterENS9_19CSSDropShadowFilterENS9_18CSSGrayscaleFilterENS9_18CSSHueRotateFilterENS9_15CSSInvertFilterENS9_16CSSOpacityFilterENS9_17CSSSaturateFilterENS9_14CSSSepiaFilterEEEEEUlOT_E_EEJRKNS0_6__baseILNS0_6_TraitE0EJSB_SC_SD_SE_SF_SG_SH_SI_SJ_SK_EEEEEEDcSO_DpT0_, symObjAddr: 0x1FFE8, symBinAddr: 0x30CE0, symSize: 0x4 }
  - { offset: 0x222FDF, size: 0x8, addend: 0x0, symName: __ZNSt3__116__variant_detail12__visitation6__base12__dispatcherIJLm5EEE10__dispatchB8ne200100IONS1_9__variant15__value_visitorIZN8facebook5react13fromCSSFilterERKNS_7variantIJNS9_13CSSBlurFilterENS9_19CSSBrightnessFilterENS9_17CSSContrastFilterENS9_19CSSDropShadowFilterENS9_18CSSGrayscaleFilterENS9_18CSSHueRotateFilterENS9_15CSSInvertFilterENS9_16CSSOpacityFilterENS9_17CSSSaturateFilterENS9_14CSSSepiaFilterEEEEEUlOT_E_EEJRKNS0_6__baseILNS0_6_TraitE0EJSB_SC_SD_SE_SF_SG_SH_SI_SJ_SK_EEEEEEDcSO_DpT0_, symObjAddr: 0x1FFE8, symBinAddr: 0x30CE0, symSize: 0x4 }
  - { offset: 0x223004, size: 0x8, addend: 0x0, symName: __ZNSt3__116__variant_detail12__visitation6__base12__dispatcherIJLm5EEE10__dispatchB8ne200100IONS1_9__variant15__value_visitorIZN8facebook5react13fromCSSFilterERKNS_7variantIJNS9_13CSSBlurFilterENS9_19CSSBrightnessFilterENS9_17CSSContrastFilterENS9_19CSSDropShadowFilterENS9_18CSSGrayscaleFilterENS9_18CSSHueRotateFilterENS9_15CSSInvertFilterENS9_16CSSOpacityFilterENS9_17CSSSaturateFilterENS9_14CSSSepiaFilterEEEEEUlOT_E_EEJRKNS0_6__baseILNS0_6_TraitE0EJSB_SC_SD_SE_SF_SG_SH_SI_SJ_SK_EEEEEEDcSO_DpT0_, symObjAddr: 0x1FFE8, symBinAddr: 0x30CE0, symSize: 0x4 }
  - { offset: 0x22348D, size: 0x8, addend: 0x0, symName: __ZNSt3__116__variant_detail12__visitation6__base12__dispatcherIJLm6EEE10__dispatchB8ne200100IONS1_9__variant15__value_visitorIZN8facebook5react13fromCSSFilterERKNS_7variantIJNS9_13CSSBlurFilterENS9_19CSSBrightnessFilterENS9_17CSSContrastFilterENS9_19CSSDropShadowFilterENS9_18CSSGrayscaleFilterENS9_18CSSHueRotateFilterENS9_15CSSInvertFilterENS9_16CSSOpacityFilterENS9_17CSSSaturateFilterENS9_14CSSSepiaFilterEEEEEUlOT_E_EEJRKNS0_6__baseILNS0_6_TraitE0EJSB_SC_SD_SE_SF_SG_SH_SI_SJ_SK_EEEEEEDcSO_DpT0_, symObjAddr: 0x1FFEC, symBinAddr: 0x30CE4, symSize: 0x4 }
  - { offset: 0x2234C2, size: 0x8, addend: 0x0, symName: __ZNSt3__116__variant_detail12__visitation6__base12__dispatcherIJLm6EEE10__dispatchB8ne200100IONS1_9__variant15__value_visitorIZN8facebook5react13fromCSSFilterERKNS_7variantIJNS9_13CSSBlurFilterENS9_19CSSBrightnessFilterENS9_17CSSContrastFilterENS9_19CSSDropShadowFilterENS9_18CSSGrayscaleFilterENS9_18CSSHueRotateFilterENS9_15CSSInvertFilterENS9_16CSSOpacityFilterENS9_17CSSSaturateFilterENS9_14CSSSepiaFilterEEEEEUlOT_E_EEJRKNS0_6__baseILNS0_6_TraitE0EJSB_SC_SD_SE_SF_SG_SH_SI_SJ_SK_EEEEEEDcSO_DpT0_, symObjAddr: 0x1FFEC, symBinAddr: 0x30CE4, symSize: 0x4 }
  - { offset: 0x2234E7, size: 0x8, addend: 0x0, symName: __ZNSt3__116__variant_detail12__visitation6__base12__dispatcherIJLm6EEE10__dispatchB8ne200100IONS1_9__variant15__value_visitorIZN8facebook5react13fromCSSFilterERKNS_7variantIJNS9_13CSSBlurFilterENS9_19CSSBrightnessFilterENS9_17CSSContrastFilterENS9_19CSSDropShadowFilterENS9_18CSSGrayscaleFilterENS9_18CSSHueRotateFilterENS9_15CSSInvertFilterENS9_16CSSOpacityFilterENS9_17CSSSaturateFilterENS9_14CSSSepiaFilterEEEEEUlOT_E_EEJRKNS0_6__baseILNS0_6_TraitE0EJSB_SC_SD_SE_SF_SG_SH_SI_SJ_SK_EEEEEEDcSO_DpT0_, symObjAddr: 0x1FFEC, symBinAddr: 0x30CE4, symSize: 0x4 }
  - { offset: 0x223970, size: 0x8, addend: 0x0, symName: __ZNSt3__116__variant_detail12__visitation6__base12__dispatcherIJLm7EEE10__dispatchB8ne200100IONS1_9__variant15__value_visitorIZN8facebook5react13fromCSSFilterERKNS_7variantIJNS9_13CSSBlurFilterENS9_19CSSBrightnessFilterENS9_17CSSContrastFilterENS9_19CSSDropShadowFilterENS9_18CSSGrayscaleFilterENS9_18CSSHueRotateFilterENS9_15CSSInvertFilterENS9_16CSSOpacityFilterENS9_17CSSSaturateFilterENS9_14CSSSepiaFilterEEEEEUlOT_E_EEJRKNS0_6__baseILNS0_6_TraitE0EJSB_SC_SD_SE_SF_SG_SH_SI_SJ_SK_EEEEEEDcSO_DpT0_, symObjAddr: 0x1FFF0, symBinAddr: 0x30CE8, symSize: 0x4 }
  - { offset: 0x2239A5, size: 0x8, addend: 0x0, symName: __ZNSt3__116__variant_detail12__visitation6__base12__dispatcherIJLm7EEE10__dispatchB8ne200100IONS1_9__variant15__value_visitorIZN8facebook5react13fromCSSFilterERKNS_7variantIJNS9_13CSSBlurFilterENS9_19CSSBrightnessFilterENS9_17CSSContrastFilterENS9_19CSSDropShadowFilterENS9_18CSSGrayscaleFilterENS9_18CSSHueRotateFilterENS9_15CSSInvertFilterENS9_16CSSOpacityFilterENS9_17CSSSaturateFilterENS9_14CSSSepiaFilterEEEEEUlOT_E_EEJRKNS0_6__baseILNS0_6_TraitE0EJSB_SC_SD_SE_SF_SG_SH_SI_SJ_SK_EEEEEEDcSO_DpT0_, symObjAddr: 0x1FFF0, symBinAddr: 0x30CE8, symSize: 0x4 }
  - { offset: 0x2239CA, size: 0x8, addend: 0x0, symName: __ZNSt3__116__variant_detail12__visitation6__base12__dispatcherIJLm7EEE10__dispatchB8ne200100IONS1_9__variant15__value_visitorIZN8facebook5react13fromCSSFilterERKNS_7variantIJNS9_13CSSBlurFilterENS9_19CSSBrightnessFilterENS9_17CSSContrastFilterENS9_19CSSDropShadowFilterENS9_18CSSGrayscaleFilterENS9_18CSSHueRotateFilterENS9_15CSSInvertFilterENS9_16CSSOpacityFilterENS9_17CSSSaturateFilterENS9_14CSSSepiaFilterEEEEEUlOT_E_EEJRKNS0_6__baseILNS0_6_TraitE0EJSB_SC_SD_SE_SF_SG_SH_SI_SJ_SK_EEEEEEDcSO_DpT0_, symObjAddr: 0x1FFF0, symBinAddr: 0x30CE8, symSize: 0x4 }
  - { offset: 0x223E53, size: 0x8, addend: 0x0, symName: __ZNSt3__116__variant_detail12__visitation6__base12__dispatcherIJLm8EEE10__dispatchB8ne200100IONS1_9__variant15__value_visitorIZN8facebook5react13fromCSSFilterERKNS_7variantIJNS9_13CSSBlurFilterENS9_19CSSBrightnessFilterENS9_17CSSContrastFilterENS9_19CSSDropShadowFilterENS9_18CSSGrayscaleFilterENS9_18CSSHueRotateFilterENS9_15CSSInvertFilterENS9_16CSSOpacityFilterENS9_17CSSSaturateFilterENS9_14CSSSepiaFilterEEEEEUlOT_E_EEJRKNS0_6__baseILNS0_6_TraitE0EJSB_SC_SD_SE_SF_SG_SH_SI_SJ_SK_EEEEEEDcSO_DpT0_, symObjAddr: 0x1FFF4, symBinAddr: 0x30CEC, symSize: 0x4 }
  - { offset: 0x223E88, size: 0x8, addend: 0x0, symName: __ZNSt3__116__variant_detail12__visitation6__base12__dispatcherIJLm8EEE10__dispatchB8ne200100IONS1_9__variant15__value_visitorIZN8facebook5react13fromCSSFilterERKNS_7variantIJNS9_13CSSBlurFilterENS9_19CSSBrightnessFilterENS9_17CSSContrastFilterENS9_19CSSDropShadowFilterENS9_18CSSGrayscaleFilterENS9_18CSSHueRotateFilterENS9_15CSSInvertFilterENS9_16CSSOpacityFilterENS9_17CSSSaturateFilterENS9_14CSSSepiaFilterEEEEEUlOT_E_EEJRKNS0_6__baseILNS0_6_TraitE0EJSB_SC_SD_SE_SF_SG_SH_SI_SJ_SK_EEEEEEDcSO_DpT0_, symObjAddr: 0x1FFF4, symBinAddr: 0x30CEC, symSize: 0x4 }
  - { offset: 0x223EAD, size: 0x8, addend: 0x0, symName: __ZNSt3__116__variant_detail12__visitation6__base12__dispatcherIJLm8EEE10__dispatchB8ne200100IONS1_9__variant15__value_visitorIZN8facebook5react13fromCSSFilterERKNS_7variantIJNS9_13CSSBlurFilterENS9_19CSSBrightnessFilterENS9_17CSSContrastFilterENS9_19CSSDropShadowFilterENS9_18CSSGrayscaleFilterENS9_18CSSHueRotateFilterENS9_15CSSInvertFilterENS9_16CSSOpacityFilterENS9_17CSSSaturateFilterENS9_14CSSSepiaFilterEEEEEUlOT_E_EEJRKNS0_6__baseILNS0_6_TraitE0EJSB_SC_SD_SE_SF_SG_SH_SI_SJ_SK_EEEEEEDcSO_DpT0_, symObjAddr: 0x1FFF4, symBinAddr: 0x30CEC, symSize: 0x4 }
  - { offset: 0x224336, size: 0x8, addend: 0x0, symName: __ZNSt3__116__variant_detail12__visitation6__base12__dispatcherIJLm9EEE10__dispatchB8ne200100IONS1_9__variant15__value_visitorIZN8facebook5react13fromCSSFilterERKNS_7variantIJNS9_13CSSBlurFilterENS9_19CSSBrightnessFilterENS9_17CSSContrastFilterENS9_19CSSDropShadowFilterENS9_18CSSGrayscaleFilterENS9_18CSSHueRotateFilterENS9_15CSSInvertFilterENS9_16CSSOpacityFilterENS9_17CSSSaturateFilterENS9_14CSSSepiaFilterEEEEEUlOT_E_EEJRKNS0_6__baseILNS0_6_TraitE0EJSB_SC_SD_SE_SF_SG_SH_SI_SJ_SK_EEEEEEDcSO_DpT0_, symObjAddr: 0x1FFF8, symBinAddr: 0x30CF0, symSize: 0x4 }
  - { offset: 0x22436B, size: 0x8, addend: 0x0, symName: __ZNSt3__116__variant_detail12__visitation6__base12__dispatcherIJLm9EEE10__dispatchB8ne200100IONS1_9__variant15__value_visitorIZN8facebook5react13fromCSSFilterERKNS_7variantIJNS9_13CSSBlurFilterENS9_19CSSBrightnessFilterENS9_17CSSContrastFilterENS9_19CSSDropShadowFilterENS9_18CSSGrayscaleFilterENS9_18CSSHueRotateFilterENS9_15CSSInvertFilterENS9_16CSSOpacityFilterENS9_17CSSSaturateFilterENS9_14CSSSepiaFilterEEEEEUlOT_E_EEJRKNS0_6__baseILNS0_6_TraitE0EJSB_SC_SD_SE_SF_SG_SH_SI_SJ_SK_EEEEEEDcSO_DpT0_, symObjAddr: 0x1FFF8, symBinAddr: 0x30CF0, symSize: 0x4 }
  - { offset: 0x224390, size: 0x8, addend: 0x0, symName: __ZNSt3__116__variant_detail12__visitation6__base12__dispatcherIJLm9EEE10__dispatchB8ne200100IONS1_9__variant15__value_visitorIZN8facebook5react13fromCSSFilterERKNS_7variantIJNS9_13CSSBlurFilterENS9_19CSSBrightnessFilterENS9_17CSSContrastFilterENS9_19CSSDropShadowFilterENS9_18CSSGrayscaleFilterENS9_18CSSHueRotateFilterENS9_15CSSInvertFilterENS9_16CSSOpacityFilterENS9_17CSSSaturateFilterENS9_14CSSSepiaFilterEEEEEUlOT_E_EEJRKNS0_6__baseILNS0_6_TraitE0EJSB_SC_SD_SE_SF_SG_SH_SI_SJ_SK_EEEEEEDcSO_DpT0_, symObjAddr: 0x1FFF8, symBinAddr: 0x30CF0, symSize: 0x4 }
  - { offset: 0x2247F7, size: 0x8, addend: 0x0, symName: __ZNSt3__16vectorIN8facebook5react14FilterFunctionENS_9allocatorIS3_EEE24__emplace_back_slow_pathIJRKS3_EEEPS3_DpOT_, symObjAddr: 0x2080C, symBinAddr: 0x310C0, symSize: 0x114 }
  - { offset: 0x225098, size: 0x8, addend: 0x0, symName: __ZNSt3__116__variant_detail18__move_constructorINS0_8__traitsIJdN8facebook5react16DropShadowParamsEEEELNS0_6_TraitE1EEC2B8ne200100EOS8_, symObjAddr: 0x20100, symBinAddr: 0x30DF8, symSize: 0x34 }
  - { offset: 0x22519D, size: 0x8, addend: 0x0, symName: __ZNSt3__116__variant_detail12__visitation6__base12__dispatcherIJLm0EEE10__dispatchB8ne200100IONS1_9__variant15__value_visitorIZN8facebook5react21filterTypeFromVariantERKNS_7variantIJNS9_13CSSBlurFilterENS9_19CSSBrightnessFilterENS9_17CSSContrastFilterENS9_19CSSDropShadowFilterENS9_18CSSGrayscaleFilterENS9_18CSSHueRotateFilterENS9_15CSSInvertFilterENS9_16CSSOpacityFilterENS9_17CSSSaturateFilterENS9_14CSSSepiaFilterEEEEEUlOT_E_EEJRKNS0_6__baseILNS0_6_TraitE0EJSB_SC_SD_SE_SF_SG_SH_SI_SJ_SK_EEEEEEDcSO_DpT0_, symObjAddr: 0x200B0, symBinAddr: 0x30DA8, symSize: 0x8 }
  - { offset: 0x2251E5, size: 0x8, addend: 0x0, symName: __ZNSt3__116__variant_detail12__visitation6__base12__dispatcherIJLm1EEE10__dispatchB8ne200100IONS1_9__variant15__value_visitorIZN8facebook5react21filterTypeFromVariantERKNS_7variantIJNS9_13CSSBlurFilterENS9_19CSSBrightnessFilterENS9_17CSSContrastFilterENS9_19CSSDropShadowFilterENS9_18CSSGrayscaleFilterENS9_18CSSHueRotateFilterENS9_15CSSInvertFilterENS9_16CSSOpacityFilterENS9_17CSSSaturateFilterENS9_14CSSSepiaFilterEEEEEUlOT_E_EEJRKNS0_6__baseILNS0_6_TraitE0EJSB_SC_SD_SE_SF_SG_SH_SI_SJ_SK_EEEEEEDcSO_DpT0_, symObjAddr: 0x200B8, symBinAddr: 0x30DB0, symSize: 0x8 }
  - { offset: 0x22522D, size: 0x8, addend: 0x0, symName: __ZNSt3__116__variant_detail12__visitation6__base12__dispatcherIJLm2EEE10__dispatchB8ne200100IONS1_9__variant15__value_visitorIZN8facebook5react21filterTypeFromVariantERKNS_7variantIJNS9_13CSSBlurFilterENS9_19CSSBrightnessFilterENS9_17CSSContrastFilterENS9_19CSSDropShadowFilterENS9_18CSSGrayscaleFilterENS9_18CSSHueRotateFilterENS9_15CSSInvertFilterENS9_16CSSOpacityFilterENS9_17CSSSaturateFilterENS9_14CSSSepiaFilterEEEEEUlOT_E_EEJRKNS0_6__baseILNS0_6_TraitE0EJSB_SC_SD_SE_SF_SG_SH_SI_SJ_SK_EEEEEEDcSO_DpT0_, symObjAddr: 0x200C0, symBinAddr: 0x30DB8, symSize: 0x8 }
  - { offset: 0x225275, size: 0x8, addend: 0x0, symName: __ZNSt3__116__variant_detail12__visitation6__base12__dispatcherIJLm3EEE10__dispatchB8ne200100IONS1_9__variant15__value_visitorIZN8facebook5react21filterTypeFromVariantERKNS_7variantIJNS9_13CSSBlurFilterENS9_19CSSBrightnessFilterENS9_17CSSContrastFilterENS9_19CSSDropShadowFilterENS9_18CSSGrayscaleFilterENS9_18CSSHueRotateFilterENS9_15CSSInvertFilterENS9_16CSSOpacityFilterENS9_17CSSSaturateFilterENS9_14CSSSepiaFilterEEEEEUlOT_E_EEJRKNS0_6__baseILNS0_6_TraitE0EJSB_SC_SD_SE_SF_SG_SH_SI_SJ_SK_EEEEEEDcSO_DpT0_, symObjAddr: 0x200C8, symBinAddr: 0x30DC0, symSize: 0x8 }
  - { offset: 0x2252BD, size: 0x8, addend: 0x0, symName: __ZNSt3__116__variant_detail12__visitation6__base12__dispatcherIJLm4EEE10__dispatchB8ne200100IONS1_9__variant15__value_visitorIZN8facebook5react21filterTypeFromVariantERKNS_7variantIJNS9_13CSSBlurFilterENS9_19CSSBrightnessFilterENS9_17CSSContrastFilterENS9_19CSSDropShadowFilterENS9_18CSSGrayscaleFilterENS9_18CSSHueRotateFilterENS9_15CSSInvertFilterENS9_16CSSOpacityFilterENS9_17CSSSaturateFilterENS9_14CSSSepiaFilterEEEEEUlOT_E_EEJRKNS0_6__baseILNS0_6_TraitE0EJSB_SC_SD_SE_SF_SG_SH_SI_SJ_SK_EEEEEEDcSO_DpT0_, symObjAddr: 0x200D0, symBinAddr: 0x30DC8, symSize: 0x8 }
  - { offset: 0x225305, size: 0x8, addend: 0x0, symName: __ZNSt3__116__variant_detail12__visitation6__base12__dispatcherIJLm5EEE10__dispatchB8ne200100IONS1_9__variant15__value_visitorIZN8facebook5react21filterTypeFromVariantERKNS_7variantIJNS9_13CSSBlurFilterENS9_19CSSBrightnessFilterENS9_17CSSContrastFilterENS9_19CSSDropShadowFilterENS9_18CSSGrayscaleFilterENS9_18CSSHueRotateFilterENS9_15CSSInvertFilterENS9_16CSSOpacityFilterENS9_17CSSSaturateFilterENS9_14CSSSepiaFilterEEEEEUlOT_E_EEJRKNS0_6__baseILNS0_6_TraitE0EJSB_SC_SD_SE_SF_SG_SH_SI_SJ_SK_EEEEEEDcSO_DpT0_, symObjAddr: 0x200D8, symBinAddr: 0x30DD0, symSize: 0x8 }
  - { offset: 0x22534D, size: 0x8, addend: 0x0, symName: __ZNSt3__116__variant_detail12__visitation6__base12__dispatcherIJLm6EEE10__dispatchB8ne200100IONS1_9__variant15__value_visitorIZN8facebook5react21filterTypeFromVariantERKNS_7variantIJNS9_13CSSBlurFilterENS9_19CSSBrightnessFilterENS9_17CSSContrastFilterENS9_19CSSDropShadowFilterENS9_18CSSGrayscaleFilterENS9_18CSSHueRotateFilterENS9_15CSSInvertFilterENS9_16CSSOpacityFilterENS9_17CSSSaturateFilterENS9_14CSSSepiaFilterEEEEEUlOT_E_EEJRKNS0_6__baseILNS0_6_TraitE0EJSB_SC_SD_SE_SF_SG_SH_SI_SJ_SK_EEEEEEDcSO_DpT0_, symObjAddr: 0x200E0, symBinAddr: 0x30DD8, symSize: 0x8 }
  - { offset: 0x225395, size: 0x8, addend: 0x0, symName: __ZNSt3__116__variant_detail12__visitation6__base12__dispatcherIJLm7EEE10__dispatchB8ne200100IONS1_9__variant15__value_visitorIZN8facebook5react21filterTypeFromVariantERKNS_7variantIJNS9_13CSSBlurFilterENS9_19CSSBrightnessFilterENS9_17CSSContrastFilterENS9_19CSSDropShadowFilterENS9_18CSSGrayscaleFilterENS9_18CSSHueRotateFilterENS9_15CSSInvertFilterENS9_16CSSOpacityFilterENS9_17CSSSaturateFilterENS9_14CSSSepiaFilterEEEEEUlOT_E_EEJRKNS0_6__baseILNS0_6_TraitE0EJSB_SC_SD_SE_SF_SG_SH_SI_SJ_SK_EEEEEEDcSO_DpT0_, symObjAddr: 0x200E8, symBinAddr: 0x30DE0, symSize: 0x8 }
  - { offset: 0x2253DD, size: 0x8, addend: 0x0, symName: __ZNSt3__116__variant_detail12__visitation6__base12__dispatcherIJLm8EEE10__dispatchB8ne200100IONS1_9__variant15__value_visitorIZN8facebook5react21filterTypeFromVariantERKNS_7variantIJNS9_13CSSBlurFilterENS9_19CSSBrightnessFilterENS9_17CSSContrastFilterENS9_19CSSDropShadowFilterENS9_18CSSGrayscaleFilterENS9_18CSSHueRotateFilterENS9_15CSSInvertFilterENS9_16CSSOpacityFilterENS9_17CSSSaturateFilterENS9_14CSSSepiaFilterEEEEEUlOT_E_EEJRKNS0_6__baseILNS0_6_TraitE0EJSB_SC_SD_SE_SF_SG_SH_SI_SJ_SK_EEEEEEDcSO_DpT0_, symObjAddr: 0x200F0, symBinAddr: 0x30DE8, symSize: 0x8 }
  - { offset: 0x225425, size: 0x8, addend: 0x0, symName: __ZNSt3__116__variant_detail12__visitation6__base12__dispatcherIJLm9EEE10__dispatchB8ne200100IONS1_9__variant15__value_visitorIZN8facebook5react21filterTypeFromVariantERKNS_7variantIJNS9_13CSSBlurFilterENS9_19CSSBrightnessFilterENS9_17CSSContrastFilterENS9_19CSSDropShadowFilterENS9_18CSSGrayscaleFilterENS9_18CSSHueRotateFilterENS9_15CSSInvertFilterENS9_16CSSOpacityFilterENS9_17CSSSaturateFilterENS9_14CSSSepiaFilterEEEEEUlOT_E_EEJRKNS0_6__baseILNS0_6_TraitE0EJSB_SC_SD_SE_SF_SG_SH_SI_SJ_SK_EEEEEEDcSO_DpT0_, symObjAddr: 0x200F8, symBinAddr: 0x30DF0, symSize: 0x8 }
  - { offset: 0x22546D, size: 0x8, addend: 0x0, symName: __ZNSt3__116__variant_detail6__ctorINS0_8__traitsIJdN8facebook5react16DropShadowParamsEEEEE19__generic_constructB8ne200100INS0_18__move_constructorIS6_LNS0_6_TraitE1EEEEEvRS7_OT_, symObjAddr: 0x20134, symBinAddr: 0x30E2C, symSize: 0x60 }
  - { offset: 0x2257BC, size: 0x8, addend: 0x0, symName: __ZNSt3__116__variant_detail12__visitation6__base12__dispatcherIJLm0EEE10__dispatchB8ne200100IOZNS0_6__ctorINS0_8__traitsIJdN8facebook5react16DropShadowParamsEEEEE19__generic_constructB8ne200100INS0_18__move_constructorISB_LNS0_6_TraitE1EEEEEvRSC_OT_EUlSJ_E_JONS0_6__baseILSF_1EJdSA_EEEEEEDcSI_DpT0_, symObjAddr: 0x20194, symBinAddr: 0x30E8C, symSize: 0x10 }
  - { offset: 0x2257F1, size: 0x8, addend: 0x0, symName: __ZNSt3__116__variant_detail12__visitation6__base12__dispatcherIJLm0EEE10__dispatchB8ne200100IOZNS0_6__ctorINS0_8__traitsIJdN8facebook5react16DropShadowParamsEEEEE19__generic_constructB8ne200100INS0_18__move_constructorISB_LNS0_6_TraitE1EEEEEvRSC_OT_EUlSJ_E_JONS0_6__baseILSF_1EJdSA_EEEEEEDcSI_DpT0_, symObjAddr: 0x20194, symBinAddr: 0x30E8C, symSize: 0x10 }
  - { offset: 0x225814, size: 0x8, addend: 0x0, symName: __ZNSt3__116__variant_detail12__visitation6__base12__dispatcherIJLm0EEE10__dispatchB8ne200100IOZNS0_6__ctorINS0_8__traitsIJdN8facebook5react16DropShadowParamsEEEEE19__generic_constructB8ne200100INS0_18__move_constructorISB_LNS0_6_TraitE1EEEEEvRSC_OT_EUlSJ_E_JONS0_6__baseILSF_1EJdSA_EEEEEEDcSI_DpT0_, symObjAddr: 0x20194, symBinAddr: 0x30E8C, symSize: 0x10 }
  - { offset: 0x225B14, size: 0x8, addend: 0x0, symName: __ZNSt3__116__variant_detail12__visitation6__base12__dispatcherIJLm1EEE10__dispatchB8ne200100IOZNS0_6__ctorINS0_8__traitsIJdN8facebook5react16DropShadowParamsEEEEE19__generic_constructB8ne200100INS0_18__move_constructorISB_LNS0_6_TraitE1EEEEEvRSC_OT_EUlSJ_E_JONS0_6__baseILSF_1EJdSA_EEEEEEDcSI_DpT0_, symObjAddr: 0x201A4, symBinAddr: 0x30E9C, symSize: 0x2C }
  - { offset: 0x225B49, size: 0x8, addend: 0x0, symName: __ZNSt3__116__variant_detail12__visitation6__base12__dispatcherIJLm1EEE10__dispatchB8ne200100IOZNS0_6__ctorINS0_8__traitsIJdN8facebook5react16DropShadowParamsEEEEE19__generic_constructB8ne200100INS0_18__move_constructorISB_LNS0_6_TraitE1EEEEEvRSC_OT_EUlSJ_E_JONS0_6__baseILSF_1EJdSA_EEEEEEDcSI_DpT0_, symObjAddr: 0x201A4, symBinAddr: 0x30E9C, symSize: 0x2C }
  - { offset: 0x225B6C, size: 0x8, addend: 0x0, symName: __ZNSt3__116__variant_detail12__visitation6__base12__dispatcherIJLm1EEE10__dispatchB8ne200100IOZNS0_6__ctorINS0_8__traitsIJdN8facebook5react16DropShadowParamsEEEEE19__generic_constructB8ne200100INS0_18__move_constructorISB_LNS0_6_TraitE1EEEEEvRSC_OT_EUlSJ_E_JONS0_6__baseILSF_1EJdSA_EEEEEEDcSI_DpT0_, symObjAddr: 0x201A4, symBinAddr: 0x30E9C, symSize: 0x2C }
  - { offset: 0x2262EB, size: 0x8, addend: 0x0, symName: __ZNSt3__114__split_bufferIN8facebook5react14FilterFunctionERNS_9allocatorIS3_EEED2Ev, symObjAddr: 0x20994, symBinAddr: 0x31248, symSize: 0x50 }
  - { offset: 0x227158, size: 0x8, addend: 0x0, symName: __ZNSt3__112basic_stringIcNS_11char_traitsIcEENS_9allocatorIcEEEC1INS_17basic_string_viewIcS2_EELi0EEERKT_, symObjAddr: 0x223D8, symBinAddr: 0x32938, symSize: 0x9C }
  - { offset: 0x22738E, size: 0x8, addend: 0x0, symName: __ZNSt3__16vectorIN8facebook5react14FilterFunctionENS_9allocatorIS3_EEE18__assign_with_sizeB8ne200100IPKS3_S9_EEvT_T0_l, symObjAddr: 0x22474, symBinAddr: 0x329D4, symSize: 0x188 }
  - { offset: 0x227765, size: 0x8, addend: 0x0, symName: __ZN8facebook5react34CSSComponentValueVisitorDispatcherINSt3__17variantIJNS2_9monostateENS0_14CSSWideKeywordENS0_19CSSDropShadowFilterEEEEJRKZNS0_6detail14CSSValueParser12consumeValueIJS5_S6_EEENS3_IJS4_DpT_EEENS0_12CSSDelimiterENS0_19CSSCompoundDataTypeIJSC_EEEEUlRKNS0_8CSSTokenEE_RKZNSA_IJS5_S6_EEESD_SE_SG_EUlRKNS0_14CSSSimpleBlockERNS0_15CSSSyntaxParserEE_RKZNSA_IJS5_S6_EEESD_SE_SG_EUlRKNS0_16CSSFunctionBlockESR_E_EE21consumeComponentValueESE_SM_SU_S10_, symObjAddr: 0x216E8, symBinAddr: 0x31F9C, symSize: 0x148 }
  - { offset: 0x227C9E, size: 0x8, addend: 0x0, symName: __ZN8facebook5react34CSSComponentValueVisitorDispatcherINSt3__17variantIJNS2_9monostateENS0_14CSSWideKeywordENS0_19CSSDropShadowFilterEEEEJRKZNS0_6detail14CSSValueParser12consumeValueIJS5_S6_EEENS3_IJS4_DpT_EEENS0_12CSSDelimiterENS0_19CSSCompoundDataTypeIJSC_EEEEUlRKNS0_8CSSTokenEE_RKZNSA_IJS5_S6_EEESD_SE_SG_EUlRKNS0_14CSSSimpleBlockERNS0_15CSSSyntaxParserEE_RKZNSA_IJS5_S6_EEESD_SE_SG_EUlRKNS0_16CSSFunctionBlockESR_E_EE19visitPreservedTokenISK_JSS_SY_EEENS2_8optionalIS7_EERKT_DpRKT0_, symObjAddr: 0x21830, symBinAddr: 0x320E4, symSize: 0x94 }
  - { offset: 0x227FCF, size: 0x8, addend: 0x0, symName: __ZN8facebook5react34CSSComponentValueVisitorDispatcherINSt3__17variantIJNS2_9monostateENS0_14CSSWideKeywordENS0_19CSSDropShadowFilterEEEEJRKZNS0_6detail14CSSValueParser12consumeValueIJS5_S6_EEENS3_IJS4_DpT_EEENS0_12CSSDelimiterENS0_19CSSCompoundDataTypeIJSC_EEEEUlRKNS0_8CSSTokenEE_RKZNSA_IJS5_S6_EEESD_SE_SG_EUlRKNS0_14CSSSimpleBlockERNS0_15CSSSyntaxParserEE_RKZNSA_IJS5_S6_EEESD_SE_SG_EUlRKNS0_16CSSFunctionBlockESR_E_EE13visitFunctionISY_JEEENS2_8optionalIS7_EERKT_DpRKT0_, symObjAddr: 0x218C4, symBinAddr: 0x32178, symSize: 0x1F0 }
  - { offset: 0x229352, size: 0x8, addend: 0x0, symName: __ZN8facebook5react34CSSComponentValueVisitorDispatcherINSt3__17variantIJNS2_9monostateENS0_14CSSWideKeywordENS0_8CSSAngleEEEEJRKZNS0_6detail14CSSValueParser12consumeValueIJS5_S6_EEENS3_IJS4_DpT_EEENS0_12CSSDelimiterENS0_19CSSCompoundDataTypeIJSC_EEEEUlRKNS0_8CSSTokenEE_RKZNSA_IJS5_S6_EEESD_SE_SG_EUlRKNS0_14CSSSimpleBlockERNS0_15CSSSyntaxParserEE_RKZNSA_IJS5_S6_EEESD_SE_SG_EUlRKNS0_16CSSFunctionBlockESR_E_EE21consumeComponentValueESE_SM_SU_S10_, symObjAddr: 0x21C40, symBinAddr: 0x32440, symSize: 0x134 }
  - { offset: 0x2296D1, size: 0x8, addend: 0x0, symName: __ZN8facebook5react34CSSComponentValueVisitorDispatcherINSt3__17variantIJNS2_9monostateENS0_14CSSWideKeywordENS0_8CSSAngleEEEEJRKZNS0_6detail14CSSValueParser12consumeValueIJS5_S6_EEENS3_IJS4_DpT_EEENS0_12CSSDelimiterENS0_19CSSCompoundDataTypeIJSC_EEEEUlRKNS0_8CSSTokenEE_RKZNSA_IJS5_S6_EEESD_SE_SG_EUlRKNS0_14CSSSimpleBlockERNS0_15CSSSyntaxParserEE_RKZNSA_IJS5_S6_EEESD_SE_SG_EUlRKNS0_16CSSFunctionBlockESR_E_EE19visitPreservedTokenISK_JSS_SY_EEENS2_8optionalIS7_EERKT_DpRKT0_, symObjAddr: 0x21D74, symBinAddr: 0x32574, symSize: 0x78 }
  - { offset: 0x2299F7, size: 0x8, addend: 0x0, symName: __ZN8facebook5react6detail14CSSValueParser24tryConsumePreservedTokenINSt3__17variantIJNS4_9monostateENS0_14CSSWideKeywordENS0_8CSSAngleEEEENS0_17CSSDataTypeParserIS7_EEJNSA_IS8_EEEEET_RKNS0_8CSSTokenE, symObjAddr: 0x21F3C, symBinAddr: 0x325EC, symSize: 0x5C }
  - { offset: 0x229E48, size: 0x8, addend: 0x0, symName: __ZN8facebook5react34CSSComponentValueVisitorDispatcherINSt3__17variantIJNS2_9monostateENS0_14CSSWideKeywordENS0_9CSSNumberENS0_13CSSPercentageEEEEJRKZNS0_6detail14CSSValueParser12consumeValueIJS5_S6_S7_EEENS3_IJS4_DpT_EEENS0_12CSSDelimiterENS0_19CSSCompoundDataTypeIJSD_EEEEUlRKNS0_8CSSTokenEE_RKZNSB_IJS5_S6_S7_EEESE_SF_SH_EUlRKNS0_14CSSSimpleBlockERNS0_15CSSSyntaxParserEE_RKZNSB_IJS5_S6_S7_EEESE_SF_SH_EUlRKNS0_16CSSFunctionBlockESS_E_EE21consumeComponentValueESF_SN_SV_S11_, symObjAddr: 0x22070, symBinAddr: 0x32720, symSize: 0x134 }
  - { offset: 0x22A1C7, size: 0x8, addend: 0x0, symName: __ZN8facebook5react34CSSComponentValueVisitorDispatcherINSt3__17variantIJNS2_9monostateENS0_14CSSWideKeywordENS0_9CSSNumberENS0_13CSSPercentageEEEEJRKZNS0_6detail14CSSValueParser12consumeValueIJS5_S6_S7_EEENS3_IJS4_DpT_EEENS0_12CSSDelimiterENS0_19CSSCompoundDataTypeIJSD_EEEEUlRKNS0_8CSSTokenEE_RKZNSB_IJS5_S6_S7_EEESE_SF_SH_EUlRKNS0_14CSSSimpleBlockERNS0_15CSSSyntaxParserEE_RKZNSB_IJS5_S6_S7_EEESE_SF_SH_EUlRKNS0_16CSSFunctionBlockESS_E_EE19visitPreservedTokenISL_JST_SZ_EEENS2_8optionalIS8_EERKT_DpRKT0_, symObjAddr: 0x221A4, symBinAddr: 0x32854, symSize: 0x78 }
  - { offset: 0x22A4ED, size: 0x8, addend: 0x0, symName: __ZN8facebook5react6detail14CSSValueParser24tryConsumePreservedTokenINSt3__17variantIJNS4_9monostateENS0_14CSSWideKeywordENS0_9CSSNumberENS0_13CSSPercentageEEEENS0_17CSSDataTypeParserIS7_EEJNSB_IS8_EENSB_IS9_EEEEET_RKNS0_8CSSTokenE, symObjAddr: 0x2236C, symBinAddr: 0x328CC, symSize: 0x6C }
  - { offset: 0x22A7E7, size: 0x8, addend: 0x0, symName: __ZNSt3__116__variant_detail12__assignmentINS0_8__traitsIJdN8facebook5react16DropShadowParamsEEEEE16__generic_assignB8ne200100IRKNS0_17__copy_assignmentIS6_LNS0_6_TraitE1EEEEEvOT_, symObjAddr: 0x22700, symBinAddr: 0x32C60, symSize: 0x5C }
  - { offset: 0x22AB93, size: 0x8, addend: 0x0, symName: __ZNSt3__116__variant_detail12__visitation6__base12__dispatcherIJLm0ELm0EEE10__dispatchB8ne200100IOZNS0_12__assignmentINS0_8__traitsIJdN8facebook5react16DropShadowParamsEEEEE16__generic_assignB8ne200100IRKNS0_17__copy_assignmentISB_LNS0_6_TraitE1EEEEEvOT_EUlRSJ_OT0_E_JRNS0_6__baseILSF_1EJdSA_EEERKSR_EEEDcSJ_DpT0_, symObjAddr: 0x2275C, symBinAddr: 0x32CBC, symSize: 0x48 }
  - { offset: 0x22AE09, size: 0x8, addend: 0x0, symName: __ZNSt3__116__variant_detail12__visitation6__base12__dispatcherIJLm1ELm1EEE10__dispatchB8ne200100IOZNS0_12__assignmentINS0_8__traitsIJdN8facebook5react16DropShadowParamsEEEEE16__generic_assignB8ne200100IRKNS0_17__copy_assignmentISB_LNS0_6_TraitE1EEEEEvOT_EUlRSJ_OT0_E_JRNS0_6__baseILSF_1EJdSA_EEERKSR_EEEDcSJ_DpT0_, symObjAddr: 0x227A4, symBinAddr: 0x32D04, symSize: 0x8 }
  - { offset: 0x22AEC9, size: 0x8, addend: 0x0, symName: __ZNSt3__116__variant_detail12__assignmentINS0_8__traitsIJdN8facebook5react16DropShadowParamsEEEEE12__assign_altB8ne200100ILm1ES5_RKS5_EEvRNS0_5__altIXT_ET0_EEOT1_, symObjAddr: 0x227AC, symBinAddr: 0x32D0C, symSize: 0x60 }
  - { offset: 0x22B084, size: 0x8, addend: 0x0, symName: __ZNSt3__116__variant_detail12__assignmentINS0_8__traitsIJdN8facebook5react16DropShadowParamsEEEEE9__emplaceB8ne200100ILm1EJRKS5_EEERDaDpOT0_, symObjAddr: 0x2280C, symBinAddr: 0x32D6C, symSize: 0x68 }
  - { offset: 0x22B404, size: 0x8, addend: 0x0, symName: __ZNSt3__16vectorIN8facebook5react14FilterFunctionENS_9allocatorIS3_EEE24__emplace_back_slow_pathIJS3_EEEPS3_DpOT_, symObjAddr: 0x2298C, symBinAddr: 0x32E24, symSize: 0x110 }
  - { offset: 0x22D165, size: 0x8, addend: 0x0, symName: __ZNSt3__16vectorIN8facebook5react9ColorStopENS_9allocatorIS3_EEE9push_backB8ne200100ERKS3_, symObjAddr: 0x23C9C, symBinAddr: 0x34134, symSize: 0x6C }
  - { offset: 0x22D3F0, size: 0x8, addend: 0x0, symName: __ZNSt3__16vectorINS_7variantIJN8facebook5react14LinearGradientENS3_14RadialGradientEEEENS_9allocatorIS6_EEE18__assign_with_sizeB8ne200100IPKS6_SC_EEvT_T0_l, symObjAddr: 0x23FC4, symBinAddr: 0x3445C, symSize: 0x1A4 }
  - { offset: 0x22DB9D, size: 0x8, addend: 0x0, symName: __ZNSt3__16vectorIN8facebook5react9ColorStopENS_9allocatorIS3_EEE18__assign_with_sizeB8ne200100IPS3_S8_EEvT_T0_l, symObjAddr: 0x24AE4, symBinAddr: 0x34E2C, symSize: 0x1D4 }
  - { offset: 0x22E6F9, size: 0x8, addend: 0x0, symName: __ZNSt3__16vectorIN8facebook5react9ColorStopENS_9allocatorIS3_EEE13__vdeallocateEv, symObjAddr: 0x24CB8, symBinAddr: 0x35000, symSize: 0x5C }
  - { offset: 0x22E716, size: 0x8, addend: 0x0, symName: __ZNSt3__16vectorINS_7variantIJN8facebook5react14LinearGradientENS3_14RadialGradientEEEENS_9allocatorIS6_EEE24__emplace_back_slow_pathIJS5_EEEPS6_DpOT_, symObjAddr: 0x2503C, symBinAddr: 0x35384, symSize: 0x178 }
  - { offset: 0x22ED08, size: 0x8, addend: 0x0, symName: __ZNSt3__16vectorINS_7variantIJN8facebook5react14LinearGradientENS3_14RadialGradientEEEENS_9allocatorIS6_EEE24__emplace_back_slow_pathIJS4_EEEPS6_DpOT_, symObjAddr: 0x24D14, symBinAddr: 0x3505C, symSize: 0x164 }
  - { offset: 0x22F2AE, size: 0x8, addend: 0x0, symName: __ZNSt3__16vectorINS_7variantIJN8facebook5react14LinearGradientENS3_14RadialGradientEEEENS_9allocatorIS6_EEE18__assign_with_sizeB8ne200100IPS6_SB_EEvT_T0_l, symObjAddr: 0x251B4, symBinAddr: 0x354FC, symSize: 0x1A4 }
  - { offset: 0x22FC44, size: 0x8, addend: 0x0, symName: __ZNSt3__16vectorIN8facebook5react9ColorStopENS_9allocatorIS3_EEE24__emplace_back_slow_pathIJRKS3_EEEPS3_DpOT_, symObjAddr: 0x24900, symBinAddr: 0x34C48, symSize: 0x12C }
  - { offset: 0x230261, size: 0x8, addend: 0x0, symName: __ZNSt3__116__variant_detail12__assignmentINS0_8__traitsIJN8facebook5react14LinearGradientENS4_14RadialGradientEEEEE16__generic_assignB8ne200100IRKNS0_17__copy_assignmentIS7_LNS0_6_TraitE1EEEEEvOT_, symObjAddr: 0x24250, symBinAddr: 0x346E8, symSize: 0x5C }
  - { offset: 0x230543, size: 0x8, addend: 0x0, symName: __ZNSt3__116__variant_detail12__visitation6__base12__dispatcherIJLm0ELm0EEE10__dispatchB8ne200100IOZNS0_12__assignmentINS0_8__traitsIJN8facebook5react14LinearGradientENS9_14RadialGradientEEEEE16__generic_assignB8ne200100IRKNS0_17__copy_assignmentISC_LNS0_6_TraitE1EEEEEvOT_EUlRSK_OT0_E_JRNS0_6__baseILSG_1EJSA_SB_EEERKSS_EEEDcSK_DpT0_, symObjAddr: 0x242AC, symBinAddr: 0x34744, symSize: 0x8 }
  - { offset: 0x230603, size: 0x8, addend: 0x0, symName: __ZNSt3__116__variant_detail12__assignmentINS0_8__traitsIJN8facebook5react14LinearGradientENS4_14RadialGradientEEEEE12__assign_altB8ne200100ILm0ES5_RKS5_EEvRNS0_5__altIXT_ET0_EEOT1_, symObjAddr: 0x242BC, symBinAddr: 0x34754, symSize: 0x5C }
  - { offset: 0x23064C, size: 0x8, addend: 0x0, symName: __ZNSt3__116__variant_detail12__assignmentINS0_8__traitsIJN8facebook5react14LinearGradientENS4_14RadialGradientEEEEE12__assign_altB8ne200100ILm0ES5_RKS5_EEvRNS0_5__altIXT_ET0_EEOT1_, symObjAddr: 0x242BC, symBinAddr: 0x34754, symSize: 0x5C }
  - { offset: 0x2307F9, size: 0x8, addend: 0x0, symName: __ZNSt3__116__variant_detail12__visitation6__base12__dispatcherIJLm1ELm1EEE10__dispatchB8ne200100IOZNS0_12__assignmentINS0_8__traitsIJN8facebook5react14LinearGradientENS9_14RadialGradientEEEEE16__generic_assignB8ne200100IRKNS0_17__copy_assignmentISC_LNS0_6_TraitE1EEEEEvOT_EUlRSK_OT0_E_JRNS0_6__baseILSG_1EJSA_SB_EEERKSS_EEEDcSK_DpT0_, symObjAddr: 0x242B4, symBinAddr: 0x3474C, symSize: 0x8 }
  - { offset: 0x2308B9, size: 0x8, addend: 0x0, symName: __ZNSt3__116__variant_detail12__assignmentINS0_8__traitsIJN8facebook5react14LinearGradientENS4_14RadialGradientEEEEE12__assign_altB8ne200100ILm1ES6_RKS6_EEvRNS0_5__altIXT_ET0_EEOT1_, symObjAddr: 0x243AC, symBinAddr: 0x34844, symSize: 0x70 }
  - { offset: 0x230902, size: 0x8, addend: 0x0, symName: __ZNSt3__116__variant_detail12__assignmentINS0_8__traitsIJN8facebook5react14LinearGradientENS4_14RadialGradientEEEEE12__assign_altB8ne200100ILm1ES6_RKS6_EEvRNS0_5__altIXT_ET0_EEOT1_, symObjAddr: 0x243AC, symBinAddr: 0x34844, symSize: 0x70 }
  - { offset: 0x230A98, size: 0x8, addend: 0x0, symName: __ZZNSt3__116__variant_detail12__assignmentINS0_8__traitsIJN8facebook5react14LinearGradientENS4_14RadialGradientEEEEE12__assign_altB8ne200100ILm0ES5_RKS5_EEvRNS0_5__altIXT_ET0_EEOT1_ENKUt_clENS_17integral_constantIbLb0EEE, symObjAddr: 0x24318, symBinAddr: 0x347B0, symSize: 0x94 }
  - { offset: 0x230E63, size: 0x8, addend: 0x0, symName: __ZZNSt3__116__variant_detail12__assignmentINS0_8__traitsIJN8facebook5react14LinearGradientENS4_14RadialGradientEEEEE12__assign_altB8ne200100ILm1ES6_RKS6_EEvRNS0_5__altIXT_ET0_EEOT1_ENKUt_clENS_17integral_constantIbLb0EEE, symObjAddr: 0x2441C, symBinAddr: 0x348B4, symSize: 0xB8 }
  - { offset: 0x2313F4, size: 0x8, addend: 0x0, symName: __ZN8facebook5react34CSSComponentValueVisitorDispatcherINSt3__17variantIJNS2_9monostateENS0_14CSSWideKeywordENS0_13CSSPercentageEEEEJRKZNS0_6detail14CSSValueParser12consumeValueIJS5_S6_EEENS3_IJS4_DpT_EEENS0_12CSSDelimiterENS0_19CSSCompoundDataTypeIJSC_EEEEUlRKNS0_8CSSTokenEE_RKZNSA_IJS5_S6_EEESD_SE_SG_EUlRKNS0_14CSSSimpleBlockERNS0_15CSSSyntaxParserEE_RKZNSA_IJS5_S6_EEESD_SE_SG_EUlRKNS0_16CSSFunctionBlockESR_E_EE21consumeComponentValueESE_SM_SU_S10_, symObjAddr: 0x245AC, symBinAddr: 0x34A44, symSize: 0x134 }
  - { offset: 0x231773, size: 0x8, addend: 0x0, symName: __ZN8facebook5react34CSSComponentValueVisitorDispatcherINSt3__17variantIJNS2_9monostateENS0_14CSSWideKeywordENS0_13CSSPercentageEEEEJRKZNS0_6detail14CSSValueParser12consumeValueIJS5_S6_EEENS3_IJS4_DpT_EEENS0_12CSSDelimiterENS0_19CSSCompoundDataTypeIJSC_EEEEUlRKNS0_8CSSTokenEE_RKZNSA_IJS5_S6_EEESD_SE_SG_EUlRKNS0_14CSSSimpleBlockERNS0_15CSSSyntaxParserEE_RKZNSA_IJS5_S6_EEESD_SE_SG_EUlRKNS0_16CSSFunctionBlockESR_E_EE19visitPreservedTokenISK_JSS_SY_EEENS2_8optionalIS7_EERKT_DpRKT0_, symObjAddr: 0x246E0, symBinAddr: 0x34B78, symSize: 0x78 }
  - { offset: 0x231A99, size: 0x8, addend: 0x0, symName: __ZN8facebook5react6detail14CSSValueParser24tryConsumePreservedTokenINSt3__17variantIJNS4_9monostateENS0_14CSSWideKeywordENS0_13CSSPercentageEEEENS0_17CSSDataTypeParserIS7_EEJNSA_IS8_EEEEET_RKNS0_8CSSTokenE, symObjAddr: 0x248A8, symBinAddr: 0x34BF0, symSize: 0x58 }
  - { offset: 0x231CF7, size: 0x8, addend: 0x0, symName: __ZNSt3__114__split_bufferIN8facebook5react9ColorStopERNS_9allocatorIS3_EEED2Ev, symObjAddr: 0x24A98, symBinAddr: 0x34DE0, symSize: 0x4C }
  - { offset: 0x2320B4, size: 0x8, addend: 0x0, symName: __ZNSt3__16vectorIN8facebook5react9ColorStopENS_9allocatorIS3_EEE13__vdeallocateEv, symObjAddr: 0x24CB8, symBinAddr: 0x35000, symSize: 0x5C }
  - { offset: 0x2323AF, size: 0x8, addend: 0x0, symName: __ZNSt3__114__split_bufferINS_7variantIJN8facebook5react14LinearGradientENS3_14RadialGradientEEEERNS_9allocatorIS6_EEED2Ev, symObjAddr: 0x24FF0, symBinAddr: 0x35338, symSize: 0x4C }
  - { offset: 0x23279E, size: 0x8, addend: 0x0, symName: __ZNSt3__116__variant_detail18__move_constructorINS0_8__traitsIJN8facebook5react14LinearGradientENS4_14RadialGradientEEEELNS0_6_TraitE1EEC2B8ne200100EOS9_, symObjAddr: 0x24EE0, symBinAddr: 0x35228, symSize: 0x34 }
  - { offset: 0x2328A3, size: 0x8, addend: 0x0, symName: __ZNSt3__116__variant_detail6__ctorINS0_8__traitsIJN8facebook5react14LinearGradientENS4_14RadialGradientEEEEE19__generic_constructB8ne200100INS0_18__move_constructorIS7_LNS0_6_TraitE1EEEEEvRS8_OT_, symObjAddr: 0x24F14, symBinAddr: 0x3525C, symSize: 0x60 }
  - { offset: 0x232B06, size: 0x8, addend: 0x0, symName: __ZNSt3__116__variant_detail12__visitation6__base12__dispatcherIJLm0EEE10__dispatchB8ne200100IOZNS0_6__ctorINS0_8__traitsIJN8facebook5react14LinearGradientENS9_14RadialGradientEEEEE19__generic_constructB8ne200100INS0_18__move_constructorISC_LNS0_6_TraitE1EEEEEvRSD_OT_EUlSK_E_JONS0_6__baseILSG_1EJSA_SB_EEEEEEDcSJ_DpT0_, symObjAddr: 0x24F74, symBinAddr: 0x352BC, symSize: 0x34 }
  - { offset: 0x232B3B, size: 0x8, addend: 0x0, symName: __ZNSt3__116__variant_detail12__visitation6__base12__dispatcherIJLm0EEE10__dispatchB8ne200100IOZNS0_6__ctorINS0_8__traitsIJN8facebook5react14LinearGradientENS9_14RadialGradientEEEEE19__generic_constructB8ne200100INS0_18__move_constructorISC_LNS0_6_TraitE1EEEEEvRSD_OT_EUlSK_E_JONS0_6__baseILSG_1EJSA_SB_EEEEEEDcSJ_DpT0_, symObjAddr: 0x24F74, symBinAddr: 0x352BC, symSize: 0x34 }
  - { offset: 0x232B5E, size: 0x8, addend: 0x0, symName: __ZNSt3__116__variant_detail12__visitation6__base12__dispatcherIJLm0EEE10__dispatchB8ne200100IOZNS0_6__ctorINS0_8__traitsIJN8facebook5react14LinearGradientENS9_14RadialGradientEEEEE19__generic_constructB8ne200100INS0_18__move_constructorISC_LNS0_6_TraitE1EEEEEvRSD_OT_EUlSK_E_JONS0_6__baseILSG_1EJSA_SB_EEEEEEDcSJ_DpT0_, symObjAddr: 0x24F74, symBinAddr: 0x352BC, symSize: 0x34 }
  - { offset: 0x232D36, size: 0x8, addend: 0x0, symName: __ZNSt3__116__variant_detail12__visitation6__base12__dispatcherIJLm1EEE10__dispatchB8ne200100IOZNS0_6__ctorINS0_8__traitsIJN8facebook5react14LinearGradientENS9_14RadialGradientEEEEE19__generic_constructB8ne200100INS0_18__move_constructorISC_LNS0_6_TraitE1EEEEEvRSD_OT_EUlSK_E_JONS0_6__baseILSG_1EJSA_SB_EEEEEEDcSJ_DpT0_, symObjAddr: 0x24FA8, symBinAddr: 0x352F0, symSize: 0x48 }
  - { offset: 0x232D6B, size: 0x8, addend: 0x0, symName: __ZNSt3__116__variant_detail12__visitation6__base12__dispatcherIJLm1EEE10__dispatchB8ne200100IOZNS0_6__ctorINS0_8__traitsIJN8facebook5react14LinearGradientENS9_14RadialGradientEEEEE19__generic_constructB8ne200100INS0_18__move_constructorISC_LNS0_6_TraitE1EEEEEvRSD_OT_EUlSK_E_JONS0_6__baseILSG_1EJSA_SB_EEEEEEDcSJ_DpT0_, symObjAddr: 0x24FA8, symBinAddr: 0x352F0, symSize: 0x48 }
  - { offset: 0x232D8E, size: 0x8, addend: 0x0, symName: __ZNSt3__116__variant_detail12__visitation6__base12__dispatcherIJLm1EEE10__dispatchB8ne200100IOZNS0_6__ctorINS0_8__traitsIJN8facebook5react14LinearGradientENS9_14RadialGradientEEEEE19__generic_constructB8ne200100INS0_18__move_constructorISC_LNS0_6_TraitE1EEEEEvRSD_OT_EUlSK_E_JONS0_6__baseILSG_1EJSA_SB_EEEEEEDcSJ_DpT0_, symObjAddr: 0x24FA8, symBinAddr: 0x352F0, symSize: 0x48 }
  - { offset: 0x2330DB, size: 0x8, addend: 0x0, symName: __ZNSt3__16vectorIN8facebook5react18TransformOperationENS_9allocatorIS3_EEE9push_backB8ne200100EOS3_, symObjAddr: 0x265B0, symBinAddr: 0x368F8, symSize: 0x11C }
  - { offset: 0x233481, size: 0x8, addend: 0x0, symName: __ZN8facebook5react9toRadiansERKNS0_8RawValueE, symObjAddr: 0x266CC, symBinAddr: 0x36A14, symSize: 0x108 }
  - { offset: 0x2336CC, size: 0x8, addend: 0x0, symName: _OUTLINED_FUNCTION_2, symObjAddr: 0x27550, symBinAddr: 0x3725C, symSize: 0xC }
  - { offset: 0x2336E4, size: 0x8, addend: 0x0, symName: _OUTLINED_FUNCTION_3, symObjAddr: 0x2755C, symBinAddr: 0x37268, symSize: 0x14 }
  - { offset: 0x235D1A, size: 0x8, addend: 0x0, symName: __ZN8facebook5react19ComponentDescriptorC2ERKNS0_29ComponentDescriptorParametersEONS0_14RawPropsParserE, symObjAddr: 0x0, symBinAddr: 0x3727C, symSize: 0xE4 }
  - { offset: 0x24701F, size: 0x8, addend: 0x0, symName: __ZN8facebook5react19ComponentDescriptorC2ERKNS0_29ComponentDescriptorParametersEONS0_14RawPropsParserE, symObjAddr: 0x0, symBinAddr: 0x3727C, symSize: 0xE4 }
  - { offset: 0x2473BD, size: 0x8, addend: 0x0, symName: __ZNK8facebook5react19ComponentDescriptor19getContextContainerEv, symObjAddr: 0xE4, symBinAddr: 0x37360, symSize: 0x8 }
  - { offset: 0x2473E6, size: 0x8, addend: 0x0, symName: __ZN8facebook5react19ComponentDescriptorD1Ev, symObjAddr: 0xEC, symBinAddr: 0xA6558, symSize: 0x4 }
  - { offset: 0x24740F, size: 0x8, addend: 0x0, symName: __ZN8facebook5react19ComponentDescriptorD0Ev, symObjAddr: 0xF0, symBinAddr: 0xA655C, symSize: 0x4 }
  - { offset: 0x25D2C0, size: 0x8, addend: 0x0, symName: __ZNSt3__115allocate_sharedB8ne200100IKN8facebook5react27ComponentDescriptorRegistryENS_9allocatorIS3_EEJRKNS2_29ComponentDescriptorParametersERKNS2_35ComponentDescriptorProviderRegistryERKNS_10shared_ptrIKNS2_16ContextContainerEEEELi0EEENSD_IT_EERKT0_DpOT1_, symObjAddr: 0x1130, symBinAddr: 0x380FC, symSize: 0x70 }
  - { offset: 0x25D6AC, size: 0x8, addend: 0x0, symName: __ZNSt3__119__allocate_at_leastB8ne200100INS_9allocatorINS_8weak_ptrIKN8facebook5react27ComponentDescriptorRegistryEEEEEEENS_19__allocation_resultINS_16allocator_traitsIT_E7pointerEEERSB_m, symObjAddr: 0x768, symBinAddr: 0x379E0, symSize: 0x34 }
  - { offset: 0x25E100, size: 0x8, addend: 0x0, symName: __ZNSt3__112construct_atB8ne200100IN8facebook5react27ComponentDescriptorRegistryEJRKNS2_29ComponentDescriptorParametersERKNS2_35ComponentDescriptorProviderRegistryERKNS_10shared_ptrIKNS2_16ContextContainerEEEEPS3_EEPT_SI_DpOT0_, symObjAddr: 0x1230, symBinAddr: 0x381FC, symSize: 0x188 }
  - { offset: 0x25E8A2, size: 0x8, addend: 0x0, symName: __ZNSt3__112__destroy_atB8ne200100INS_4pairIKNS_12basic_stringIcNS_11char_traitsIcEENS_9allocatorIcEEEENS_10shared_ptrIKN8facebook5react19ComponentDescriptorEEEEELi0EEEvPT_, symObjAddr: 0x1584, symBinAddr: 0x384A0, symSize: 0x3C }
  - { offset: 0x26368C, size: 0x8, addend: 0x0, symName: __ZNK8facebook5react35ComponentDescriptorProviderRegistry3addERKNS0_27ComponentDescriptorProviderE, symObjAddr: 0x0, symBinAddr: 0x37368, symSize: 0x218 }
  - { offset: 0x263EE4, size: 0x8, addend: 0x0, symName: __ZNSt3__112__hash_tableINS_17__hash_value_typeIxKN8facebook5react27ComponentDescriptorProviderEEENS_22__unordered_map_hasherIxS6_NS_4hashIxEENS_8equal_toIxEELb1EEENS_21__unordered_map_equalIxS6_SB_S9_Lb1EEENS_9allocatorIS6_EEE4findIxEENS_15__hash_iteratorIPNS_11__hash_nodeIS6_PvEEEERKT_, symObjAddr: 0x87C, symBinAddr: 0x37ACC, symSize: 0xB4 }
  - { offset: 0x263F3C, size: 0x8, addend: 0x0, symName: __ZNSt3__112__hash_tableINS_17__hash_value_typeIxKN8facebook5react27ComponentDescriptorProviderEEENS_22__unordered_map_hasherIxS6_NS_4hashIxEENS_8equal_toIxEELb1EEENS_21__unordered_map_equalIxS6_SB_S9_Lb1EEENS_9allocatorIS6_EEE4findIxEENS_15__hash_iteratorIPNS_11__hash_nodeIS6_PvEEEERKT_, symObjAddr: 0x87C, symBinAddr: 0x37ACC, symSize: 0xB4 }
  - { offset: 0x263F58, size: 0x8, addend: 0x0, symName: __ZNSt3__112__hash_tableINS_17__hash_value_typeIxKN8facebook5react27ComponentDescriptorProviderEEENS_22__unordered_map_hasherIxS6_NS_4hashIxEENS_8equal_toIxEELb1EEENS_21__unordered_map_equalIxS6_SB_S9_Lb1EEENS_9allocatorIS6_EEE4findIxEENS_15__hash_iteratorIPNS_11__hash_nodeIS6_PvEEEERKT_, symObjAddr: 0x87C, symBinAddr: 0x37ACC, symSize: 0xB4 }
  - { offset: 0x26406F, size: 0x8, addend: 0x0, symName: __ZNSt3__112__hash_tableINS_17__hash_value_typeIxKN8facebook5react27ComponentDescriptorProviderEEENS_22__unordered_map_hasherIxS6_NS_4hashIxEENS_8equal_toIxEELb1EEENS_21__unordered_map_equalIxS6_SB_S9_Lb1EEENS_9allocatorIS6_EEE25__emplace_unique_key_argsIxJNS_4pairIKxS5_EEEEENSJ_INS_15__hash_iteratorIPNS_11__hash_nodeIS6_PvEEEEbEERKT_DpOT0_, symObjAddr: 0x930, symBinAddr: 0x37B80, symSize: 0x21C }
  - { offset: 0x264562, size: 0x8, addend: 0x0, symName: __ZNSt3__111unique_lockINS_12shared_mutexEED2B8ne200100Ev, symObjAddr: 0x844, symBinAddr: 0x37A94, symSize: 0x38 }
  - { offset: 0x2646AF, size: 0x8, addend: 0x0, symName: __ZNK8facebook5react35ComponentDescriptorProviderRegistry37setComponentDescriptorProviderRequestENSt3__18functionIFvPKcEEE, symObjAddr: 0x218, symBinAddr: 0x37580, symSize: 0x40 }
  - { offset: 0x2647B5, size: 0x8, addend: 0x0, symName: __ZNSt3__110__function12__value_funcIFvPKcEEaSB8ne200100EOS5_, symObjAddr: 0xED4, symBinAddr: 0x37EA0, symSize: 0x8C }
  - { offset: 0x264990, size: 0x8, addend: 0x0, symName: __ZNK8facebook5react35ComponentDescriptorProviderRegistry7requestEPKc, symObjAddr: 0x258, symBinAddr: 0x375C0, symSize: 0x120 }
  - { offset: 0x264D17, size: 0x8, addend: 0x0, symName: __ZNSt3__18functionIFvPKcEEaSERKS4_, symObjAddr: 0x378, symBinAddr: 0x376E0, symSize: 0x94 }
  - { offset: 0x264EA5, size: 0x8, addend: 0x0, symName: __ZNSt3__111shared_lockINS_12shared_mutexEED2B8ne200100Ev, symObjAddr: 0xE9C, symBinAddr: 0x37E68, symSize: 0x38 }
  - { offset: 0x264F82, size: 0x8, addend: 0x0, symName: __ZNSt3__110__function12__value_funcIFvPKcEEC2B8ne200100ERKS5_, symObjAddr: 0xF60, symBinAddr: 0x37F2C, symSize: 0x64 }
  - { offset: 0x264FDB, size: 0x8, addend: 0x0, symName: __ZNSt3__110__function12__value_funcIFvPKcEE4swapB8ne200100ERS5_, symObjAddr: 0xFC4, symBinAddr: 0x37F90, symSize: 0x16C }
  - { offset: 0x2651DE, size: 0x8, addend: 0x0, symName: __ZNK8facebook5react35ComponentDescriptorProviderRegistry33createComponentDescriptorRegistryERKNS0_29ComponentDescriptorParametersE, symObjAddr: 0x40C, symBinAddr: 0x37774, symSize: 0x17C }
  - { offset: 0x265716, size: 0x8, addend: 0x0, symName: __ZNSt3__16vectorINS_8weak_ptrIKN8facebook5react27ComponentDescriptorRegistryEEENS_9allocatorIS6_EEE9push_backB8ne200100EOS6_, symObjAddr: 0x588, symBinAddr: 0x378F0, symSize: 0xF0 }
  - { offset: 0x265DE2, size: 0x8, addend: 0x0, symName: __ZNSt3__114__split_bufferINS_8weak_ptrIKN8facebook5react27ComponentDescriptorRegistryEEERNS_9allocatorIS6_EEED2Ev, symObjAddr: 0x7C4, symBinAddr: 0x37A14, symSize: 0x30 }
  - { offset: 0x265FA1, size: 0x8, addend: 0x0, symName: __ZNSt3__114__split_bufferINS_8weak_ptrIKN8facebook5react27ComponentDescriptorRegistryEEERNS_9allocatorIS6_EEE5clearB8ne200100Ev, symObjAddr: 0x7F4, symBinAddr: 0x37A44, symSize: 0x50 }
  - { offset: 0x2662AC, size: 0x8, addend: 0x0, symName: __ZNSt3__112__hash_tableINS_17__hash_value_typeIxKN8facebook5react27ComponentDescriptorProviderEEENS_22__unordered_map_hasherIxS6_NS_4hashIxEENS_8equal_toIxEELb1EEENS_21__unordered_map_equalIxS6_SB_S9_Lb1EEENS_9allocatorIS6_EEE21__construct_node_hashINS_4pairIKxS5_EEJEEENS_10unique_ptrINS_11__hash_nodeIS6_PvEENS_22__hash_node_destructorINSF_ISP_EEEEEEmOT_DpOT0_, symObjAddr: 0xB4C, symBinAddr: 0x37D9C, symSize: 0x84 }
  - { offset: 0x266736, size: 0x8, addend: 0x0, symName: __ZNSt3__110unique_ptrINS_11__hash_nodeINS_17__hash_value_typeIxKN8facebook5react27ComponentDescriptorProviderEEEPvEENS_22__hash_node_destructorINS_9allocatorIS9_EEEEE5resetB8ne200100EPS9_, symObjAddr: 0xDFC, symBinAddr: 0x37E20, symSize: 0x48 }
  - { offset: 0x266DC8, size: 0x8, addend: 0x0, symName: __ZNSt3__110unique_ptrINS_11__hash_nodeINS_17__hash_value_typeIxKN8facebook5react27ComponentDescriptorProviderEEEPvEENS_22__hash_node_destructorINS_9allocatorIS9_EEEEE5resetB8ne200100EPS9_, symObjAddr: 0xDFC, symBinAddr: 0x37E20, symSize: 0x48 }
  - { offset: 0x267243, size: 0x8, addend: 0x0, symName: __ZNSt3__120__shared_ptr_emplaceIKN8facebook5react27ComponentDescriptorRegistryENS_9allocatorIS3_EEEC2B8ne200100IJRKNS2_29ComponentDescriptorParametersERKNS2_35ComponentDescriptorProviderRegistryERKNS_10shared_ptrIKNS2_16ContextContainerEEEES6_Li0EEES6_DpOT_, symObjAddr: 0x11A0, symBinAddr: 0x3816C, symSize: 0x4C }
  - { offset: 0x26746B, size: 0x8, addend: 0x0, symName: __ZNSt3__120__shared_ptr_emplaceIKN8facebook5react27ComponentDescriptorRegistryENS_9allocatorIS3_EEED1Ev, symObjAddr: 0x11EC, symBinAddr: 0x381B8, symSize: 0x14 }
  - { offset: 0x26748D, size: 0x8, addend: 0x0, symName: __ZNSt3__120__shared_ptr_emplaceIKN8facebook5react27ComponentDescriptorRegistryENS_9allocatorIS3_EEED1Ev, symObjAddr: 0x11EC, symBinAddr: 0x381B8, symSize: 0x14 }
  - { offset: 0x2674C3, size: 0x8, addend: 0x0, symName: __ZNSt3__120__shared_ptr_emplaceIKN8facebook5react27ComponentDescriptorRegistryENS_9allocatorIS3_EEED0Ev, symObjAddr: 0x1200, symBinAddr: 0x381CC, symSize: 0x24 }
  - { offset: 0x2675AC, size: 0x8, addend: 0x0, symName: __ZNSt3__120__shared_ptr_emplaceIKN8facebook5react27ComponentDescriptorRegistryENS_9allocatorIS3_EEE16__on_zero_sharedEv, symObjAddr: 0x1224, symBinAddr: 0x381F0, symSize: 0x8 }
  - { offset: 0x2675D5, size: 0x8, addend: 0x0, symName: __ZNSt3__120__shared_ptr_emplaceIKN8facebook5react27ComponentDescriptorRegistryENS_9allocatorIS3_EEE16__on_zero_sharedEv, symObjAddr: 0x1224, symBinAddr: 0x381F0, symSize: 0x8 }
  - { offset: 0x2675F2, size: 0x8, addend: 0x0, symName: __ZNSt3__120__shared_ptr_emplaceIKN8facebook5react27ComponentDescriptorRegistryENS_9allocatorIS3_EEE16__on_zero_sharedEv, symObjAddr: 0x1224, symBinAddr: 0x381F0, symSize: 0x8 }
  - { offset: 0x267659, size: 0x8, addend: 0x0, symName: __ZN8facebook5react27ComponentDescriptorRegistryD2Ev, symObjAddr: 0x144C, symBinAddr: 0x383C0, symSize: 0x6C }
  - { offset: 0x2678C1, size: 0x8, addend: 0x0, symName: __ZNSt3__120__shared_ptr_emplaceIKN8facebook5react27ComponentDescriptorRegistryENS_9allocatorIS3_EEE21__on_zero_shared_weakEv, symObjAddr: 0x122C, symBinAddr: 0x381F8, symSize: 0x4 }
  - { offset: 0x2678F3, size: 0x8, addend: 0x0, symName: __ZNSt3__120__shared_ptr_emplaceIKN8facebook5react27ComponentDescriptorRegistryENS_9allocatorIS3_EEE21__on_zero_shared_weakEv, symObjAddr: 0x122C, symBinAddr: 0x381F8, symSize: 0x4 }
  - { offset: 0x267914, size: 0x8, addend: 0x0, symName: __ZNSt3__120__shared_ptr_emplaceIKN8facebook5react27ComponentDescriptorRegistryENS_9allocatorIS3_EEE21__on_zero_shared_weakEv, symObjAddr: 0x122C, symBinAddr: 0x381F8, symSize: 0x4 }
  - { offset: 0x267936, size: 0x8, addend: 0x0, symName: __ZNSt3__120__shared_ptr_emplaceIKN8facebook5react27ComponentDescriptorRegistryENS_9allocatorIS3_EEE21__on_zero_shared_weakEv, symObjAddr: 0x122C, symBinAddr: 0x381F8, symSize: 0x4 }
  - { offset: 0x267969, size: 0x8, addend: 0x0, symName: __ZNSt3__120__shared_ptr_emplaceIKN8facebook5react27ComponentDescriptorRegistryENS_9allocatorIS3_EEE21__on_zero_shared_weakEv, symObjAddr: 0x122C, symBinAddr: 0x381F8, symSize: 0x4 }
  - { offset: 0x267B82, size: 0x8, addend: 0x0, symName: __ZN8facebook5react29ComponentDescriptorParametersD1Ev, symObjAddr: 0x13B8, symBinAddr: 0x38384, symSize: 0x3C }
  - { offset: 0x267DE3, size: 0x8, addend: 0x0, symName: __ZNSt3__112__hash_tableINS_17__hash_value_typeINS_12basic_stringIcNS_11char_traitsIcEENS_9allocatorIcEEEENS_10shared_ptrIKN8facebook5react19ComponentDescriptorEEEEENS_22__unordered_map_hasherIS7_SE_NS_4hashIS7_EENS_8equal_toIS7_EELb1EEENS_21__unordered_map_equalIS7_SE_SJ_SH_Lb1EEENS5_ISE_EEED2Ev, symObjAddr: 0x1510, symBinAddr: 0x3842C, symSize: 0x38 }
  - { offset: 0x267F3B, size: 0x8, addend: 0x0, symName: __ZNSt3__112__hash_tableINS_17__hash_value_typeIxNS_10shared_ptrIKN8facebook5react19ComponentDescriptorEEEEENS_22__unordered_map_hasherIxS8_NS_4hashIxEENS_8equal_toIxEELb1EEENS_21__unordered_map_equalIxS8_SD_SB_Lb1EEENS_9allocatorIS8_EEED2Ev, symObjAddr: 0x15C0, symBinAddr: 0x384DC, symSize: 0x38 }
  - { offset: 0x268189, size: 0x8, addend: 0x0, symName: __ZNSt3__112__hash_tableINS_17__hash_value_typeINS_12basic_stringIcNS_11char_traitsIcEENS_9allocatorIcEEEENS_10shared_ptrIKN8facebook5react19ComponentDescriptorEEEEENS_22__unordered_map_hasherIS7_SE_NS_4hashIS7_EENS_8equal_toIS7_EELb1EEENS_21__unordered_map_equalIS7_SE_SJ_SH_Lb1EEENS5_ISE_EEE17__deallocate_nodeEPNS_16__hash_node_baseIPNS_11__hash_nodeISE_PvEEEE, symObjAddr: 0x1548, symBinAddr: 0x38464, symSize: 0x3C }
  - { offset: 0x268550, size: 0x8, addend: 0x0, symName: __ZNSt3__112__hash_tableINS_17__hash_value_typeIxNS_10shared_ptrIKN8facebook5react19ComponentDescriptorEEEEENS_22__unordered_map_hasherIxS8_NS_4hashIxEENS_8equal_toIxEELb1EEENS_21__unordered_map_equalIxS8_SD_SB_Lb1EEENS_9allocatorIS8_EEE17__deallocate_nodeEPNS_16__hash_node_baseIPNS_11__hash_nodeIS8_PvEEEE, symObjAddr: 0x15F8, symBinAddr: 0x38514, symSize: 0x3C }
  - { offset: 0x291FD9, size: 0x8, addend: 0x0, symName: __ZNSt3__115allocate_sharedB8ne200100IKN8facebook5react53UnstableLegacyViewManagerAutomaticComponentDescriptorENS_9allocatorIS3_EEJRKNS2_29ComponentDescriptorParametersERNS_12basic_stringIcNS_11char_traitsIcEENS5_IcEEEEELi0EEENS_10shared_ptrIT_EERKT0_DpOT1_, symObjAddr: 0x1DDC, symBinAddr: 0x3942C, symSize: 0x60 }
  - { offset: 0x2932E5, size: 0x8, addend: 0x0, symName: __ZNSt3__112construct_atB8ne200100IN8facebook5react53UnstableLegacyViewManagerAutomaticComponentDescriptorEJRKNS2_29ComponentDescriptorParametersERNS_12basic_stringIcNS_11char_traitsIcEENS_9allocatorIcEEEEEPS3_EEPT_SG_DpOT0_, symObjAddr: 0x1ECC, symBinAddr: 0x3951C, symSize: 0x90 }
  - { offset: 0x293624, size: 0x8, addend: 0x0, symName: __ZNSt3__112__destroy_atB8ne200100IN8facebook5react53UnstableLegacyViewManagerAutomaticComponentDescriptorELi0EEEvPT_, symObjAddr: 0x4B74, symBinAddr: 0x3ADC8, symSize: 0x30 }
  - { offset: 0x293BCF, size: 0x8, addend: 0x0, symName: __ZNSt3__115allocate_sharedB8ne200100IN8facebook5react22ConcreteViewShadowNodeIXadL_ZNS2_44LegacyViewManagerAndroidInteropComponentNameEEENS2_33LegacyViewManagerInteropViewPropsENS2_20BaseViewEventEmitterENS2_9StateDataEEENS_9allocatorIS7_EEJRKNS2_18ShadowNodeFragmentERKNS_10shared_ptrIKNS2_16ShadowNodeFamilyEEENS2_16ShadowNodeTraitsEELi0EEENSD_IT_EERKT0_DpOT1_, symObjAddr: 0x3680, symBinAddr: 0x39F2C, symSize: 0x70 }
  - { offset: 0x293ECD, size: 0x8, addend: 0x0, symName: __ZNSt3__115allocate_sharedB8ne200100IN8facebook5react22ConcreteViewShadowNodeIXadL_ZNS2_44LegacyViewManagerAndroidInteropComponentNameEEENS2_33LegacyViewManagerInteropViewPropsENS2_20BaseViewEventEmitterENS2_9StateDataEEENS_9allocatorIS7_EEJRKNS2_10ShadowNodeERKNS2_18ShadowNodeFragmentEELi0EEENS_10shared_ptrIT_EERKT0_DpOT1_, symObjAddr: 0x3C3C, symBinAddr: 0x3A2D8, symSize: 0x60 }
  - { offset: 0x29483C, size: 0x8, addend: 0x0, symName: __ZNSt3__115allocate_sharedB8ne200100IN8facebook5react11EventTargetENS_9allocatorIS3_EEJRKNS_10shared_ptrIKNS2_14InstanceHandleEEERKiELi0EEENS6_IT_EERKT0_DpOT1_, symObjAddr: 0x4624, symBinAddr: 0x3AA30, symSize: 0x60 }
  - { offset: 0x294ACA, size: 0x8, addend: 0x0, symName: __ZNSt3__115allocate_sharedB8ne200100IKN8facebook5react20BaseViewEventEmitterENS_9allocatorIS3_EEJNS_10shared_ptrINS2_11EventTargetEEERKNS_8weak_ptrIKNS2_15EventDispatcherEEEELi0EEENS7_IT_EERKT0_DpOT1_, symObjAddr: 0x4238, symBinAddr: 0x3A6F4, symSize: 0x60 }
  - { offset: 0x294D58, size: 0x8, addend: 0x0, symName: __ZNSt3__115allocate_sharedB8ne200100IN8facebook5react16ShadowNodeFamilyENS_9allocatorIS3_EEJRKNS2_24ShadowNodeFamilyFragmentERNS_10shared_ptrIKNS2_20BaseViewEventEmitterEEERKNS_8weak_ptrIKNS2_15EventDispatcherEEERKNS2_27ConcreteComponentDescriptorINS2_22ConcreteViewShadowNodeIXadL_ZNS2_44LegacyViewManagerAndroidInteropComponentNameEEENS2_33LegacyViewManagerInteropViewPropsESA_NS2_9StateDataEEEEEELi0EEENS9_IT_EERKT0_DpOT1_, symObjAddr: 0x4888, symBinAddr: 0x3ABE4, symSize: 0x78 }
  - { offset: 0x296062, size: 0x8, addend: 0x0, symName: __ZNSt3__115allocate_sharedB8ne200100IKN8facebook5react33LegacyViewManagerInteropViewPropsENS_9allocatorIS3_EEJELi0EEENS_10shared_ptrIT_EERKT0_DpOT1_, symObjAddr: 0x3E50, symBinAddr: 0x3A494, symSize: 0x48 }
  - { offset: 0x29630B, size: 0x8, addend: 0x0, symName: __ZNSt3__115allocate_sharedB8ne200100IN8facebook5react33LegacyViewManagerInteropViewPropsENS_9allocatorIS3_EEJRKNS2_18PropsParserContextERKS3_RKNS2_8RawPropsEELi0EEENS_10shared_ptrIT_EERKT0_DpOT1_, symObjAddr: 0x3FDC, symBinAddr: 0x3A5C8, symSize: 0x70 }
  - { offset: 0x297223, size: 0x8, addend: 0x0, symName: __ZNSt3__112construct_atB8ne200100IN8facebook5react20BaseViewEventEmitterEJNS_10shared_ptrINS2_11EventTargetEEERKNS_8weak_ptrIKNS2_15EventDispatcherEEEEPS3_EEPT_SF_DpOT0_, symObjAddr: 0x432C, symBinAddr: 0x3A7E8, symSize: 0x130 }
  - { offset: 0x298088, size: 0x8, addend: 0x0, symName: __ZNSt3__112construct_atB8ne200100IN8facebook5react11EventTargetEJRKNS_10shared_ptrIKNS2_14InstanceHandleEEERKiEPS3_EEPT_SE_DpOT0_, symObjAddr: 0x4734, symBinAddr: 0x3AB40, symSize: 0xA4 }
  - { offset: 0x2986DB, size: 0x8, addend: 0x0, symName: __ZNSt3__112construct_atB8ne200100IN8facebook5react16ShadowNodeFamilyEJRKNS2_24ShadowNodeFamilyFragmentERNS_10shared_ptrIKNS2_20BaseViewEventEmitterEEERKNS_8weak_ptrIKNS2_15EventDispatcherEEERKNS2_27ConcreteComponentDescriptorINS2_22ConcreteViewShadowNodeIXadL_ZNS2_44LegacyViewManagerAndroidInteropComponentNameEEENS2_33LegacyViewManagerInteropViewPropsES8_NS2_9StateDataEEEEEEPS3_EEPT_SS_DpOT0_, symObjAddr: 0x4990, symBinAddr: 0x3ACEC, symSize: 0xDC }
  - { offset: 0x29E376, size: 0x8, addend: 0x0, symName: __ZN8facebook5react18ConcreteShadowNodeIXadL_ZNS0_44LegacyViewManagerAndroidInteropComponentNameEEENS0_24YogaLayoutableShadowNodeENS0_33LegacyViewManagerInteropViewPropsENS0_20BaseViewEventEmitterENS0_9StateDataEE18defaultSharedPropsEv, symObjAddr: 0x3D58, symBinAddr: 0x3A39C, symSize: 0x9C }
  - { offset: 0x29E396, size: 0x8, addend: 0x0, symName: __ZZN8facebook5react18ConcreteShadowNodeIXadL_ZNS0_44LegacyViewManagerAndroidInteropComponentNameEEENS0_24YogaLayoutableShadowNodeENS0_33LegacyViewManagerInteropViewPropsENS0_20BaseViewEventEmitterENS0_9StateDataEE18defaultSharedPropsEvE18defaultSharedProps, symObjAddr: 0x6390, symBinAddr: 0xD4628, symSize: 0x0 }
  - { offset: 0x29F239, size: 0x8, addend: 0x0, symName: __ZN8facebook5react27ComponentDescriptorRegistryC2ENS0_29ComponentDescriptorParametersERKNS0_35ComponentDescriptorProviderRegistryENSt3__110shared_ptrIKNS0_16ContextContainerEEE, symObjAddr: 0x0, symBinAddr: 0x38550, symSize: 0x88 }
  - { offset: 0x29F608, size: 0x8, addend: 0x0, symName: __ZN8facebook5react27ComponentDescriptorRegistryC1ENS0_29ComponentDescriptorParametersERKNS0_35ComponentDescriptorProviderRegistryENSt3__110shared_ptrIKNS0_16ContextContainerEEE, symObjAddr: 0x88, symBinAddr: 0x385D8, symSize: 0x4 }
  - { offset: 0x29F662, size: 0x8, addend: 0x0, symName: __ZN8facebook5react27ComponentDescriptorRegistryC1ENS0_29ComponentDescriptorParametersERKNS0_35ComponentDescriptorProviderRegistryENSt3__110shared_ptrIKNS0_16ContextContainerEEE, symObjAddr: 0x88, symBinAddr: 0x385D8, symSize: 0x4 }
  - { offset: 0x29FD0B, size: 0x8, addend: 0x0, symName: __ZNK8facebook5react27ComponentDescriptorRegistry3addENS0_27ComponentDescriptorProviderE, symObjAddr: 0x8C, symBinAddr: 0x385DC, symSize: 0x2B0 }
  - { offset: 0x2A07FC, size: 0x8, addend: 0x0, symName: __ZNSt3__112__hash_tableINS_17__hash_value_typeIxNS_10shared_ptrIKN8facebook5react19ComponentDescriptorEEEEENS_22__unordered_map_hasherIxS8_NS_4hashIxEENS_8equal_toIxEELb1EEENS_21__unordered_map_equalIxS8_SD_SB_Lb1EEENS_9allocatorIS8_EEE25__emplace_unique_key_argsIxJRKNS_21piecewise_construct_tENS_5tupleIJRKxEEENSO_IJEEEEEENS_4pairINS_15__hash_iteratorIPNS_11__hash_nodeIS8_PvEEEEbEERKT_DpOT0_, symObjAddr: 0xDD0, symBinAddr: 0x38EFC, symSize: 0x238 }
  - { offset: 0x2A117D, size: 0x8, addend: 0x0, symName: __ZNSt3__112__hash_tableINS_17__hash_value_typeINS_12basic_stringIcNS_11char_traitsIcEENS_9allocatorIcEEEENS_10shared_ptrIKN8facebook5react19ComponentDescriptorEEEEENS_22__unordered_map_hasherIS7_SE_NS_4hashIS7_EENS_8equal_toIS7_EELb1EEENS_21__unordered_map_equalIS7_SE_SJ_SH_Lb1EEENS5_ISE_EEE25__emplace_unique_key_argsIS7_JRKNS_21piecewise_construct_tENS_5tupleIJOS7_EEENST_IJEEEEEENS_4pairINS_15__hash_iteratorIPNS_11__hash_nodeISE_PvEEEEbEERKT_DpOT0_, symObjAddr: 0x127C, symBinAddr: 0x3917C, symSize: 0x268 }
  - { offset: 0x2A1B19, size: 0x8, addend: 0x0, symName: __ZNK8facebook5react27ComponentDescriptorRegistry27registerComponentDescriptorERKNSt3__110shared_ptrIKNS0_19ComponentDescriptorEEE, symObjAddr: 0x3F0, symBinAddr: 0x3888C, symSize: 0xEC }
  - { offset: 0x2A2197, size: 0x8, addend: 0x0, symName: __ZNK8facebook5react27ComponentDescriptorRegistry2atERKNSt3__112basic_stringIcNS2_11char_traitsIcEENS2_9allocatorIcEEEE, symObjAddr: 0x4DC, symBinAddr: 0x38978, symSize: 0x300 }
  - { offset: 0x2A30D4, size: 0x8, addend: 0x0, symName: __ZNSt3__111shared_lockINS_12shared_mutexEE4lockEv, symObjAddr: 0x7DC, symBinAddr: 0x38C78, symSize: 0x5C }
  - { offset: 0x2A3131, size: 0x8, addend: 0x0, symName: __ZNK8facebook5react27ComponentDescriptorRegistry57findComponentDescriptorByHandle_DO_NOT_USE_THIS_IS_BROKENEx, symObjAddr: 0x838, symBinAddr: 0x38CD4, symSize: 0x78 }
  - { offset: 0x2A31DA, size: 0x8, addend: 0x0, symName: __ZNK8facebook5react27ComponentDescriptorRegistry57findComponentDescriptorByHandle_DO_NOT_USE_THIS_IS_BROKENEx, symObjAddr: 0x838, symBinAddr: 0x38CD4, symSize: 0x78 }
  - { offset: 0x2A3492, size: 0x8, addend: 0x0, symName: __ZNK8facebook5react27ComponentDescriptorRegistry2atEx, symObjAddr: 0x8B0, symBinAddr: 0x38D4C, symSize: 0x80 }
  - { offset: 0x2A364C, size: 0x8, addend: 0x0, symName: __ZNK8facebook5react27ComponentDescriptorRegistry24hasComponentDescriptorAtEx, symObjAddr: 0x930, symBinAddr: 0x38DCC, symSize: 0x70 }
  - { offset: 0x2A37E8, size: 0x8, addend: 0x0, symName: __ZN8facebook5react27ComponentDescriptorRegistry30setFallbackComponentDescriptorERKNSt3__110shared_ptrIKNS0_19ComponentDescriptorEEE, symObjAddr: 0x9A0, symBinAddr: 0x38E3C, symSize: 0x30 }
  - { offset: 0x2A3842, size: 0x8, addend: 0x0, symName: __ZNK8facebook5react27ComponentDescriptorRegistry30getFallbackComponentDescriptorEv, symObjAddr: 0x9D0, symBinAddr: 0x38E6C, symSize: 0x24 }
  - { offset: 0x2A386B, size: 0x8, addend: 0x0, symName: __ZNK8facebook5react27ComponentDescriptorRegistry30getFallbackComponentDescriptorEv, symObjAddr: 0x9D0, symBinAddr: 0x38E6C, symSize: 0x24 }
  - { offset: 0x2A3892, size: 0x8, addend: 0x0, symName: __ZNK8facebook5react27ComponentDescriptorRegistry30getFallbackComponentDescriptorEv, symObjAddr: 0x9D0, symBinAddr: 0x38E6C, symSize: 0x24 }
  - { offset: 0x2A3B20, size: 0x8, addend: 0x0, symName: __ZNSt3__120__shared_ptr_pointerIPKN8facebook5react19ComponentDescriptorENS_14default_deleteIS4_EENS_9allocatorIS3_EEED1Ev, symObjAddr: 0xD18, symBinAddr: 0x38E90, symSize: 0x4 }
  - { offset: 0x2A3B42, size: 0x8, addend: 0x0, symName: __ZNSt3__120__shared_ptr_pointerIPKN8facebook5react19ComponentDescriptorENS_14default_deleteIS4_EENS_9allocatorIS3_EEED1Ev, symObjAddr: 0xD18, symBinAddr: 0x38E90, symSize: 0x4 }
  - { offset: 0x2A3B78, size: 0x8, addend: 0x0, symName: __ZNSt3__120__shared_ptr_pointerIPKN8facebook5react19ComponentDescriptorENS_14default_deleteIS4_EENS_9allocatorIS3_EEED0Ev, symObjAddr: 0xD1C, symBinAddr: 0x38E94, symSize: 0x14 }
  - { offset: 0x2A3BDB, size: 0x8, addend: 0x0, symName: __ZNSt3__120__shared_ptr_pointerIPKN8facebook5react19ComponentDescriptorENS_14default_deleteIS4_EENS_9allocatorIS3_EEE16__on_zero_sharedEv, symObjAddr: 0xD30, symBinAddr: 0x38EA8, symSize: 0x18 }
  - { offset: 0x2A3C2A, size: 0x8, addend: 0x0, symName: __ZNKSt3__120__shared_ptr_pointerIPKN8facebook5react19ComponentDescriptorENS_14default_deleteIS4_EENS_9allocatorIS3_EEE13__get_deleterERKSt9type_info, symObjAddr: 0xD48, symBinAddr: 0x38EC0, symSize: 0x38 }
  - { offset: 0x2A3D1F, size: 0x8, addend: 0x0, symName: __ZNSt3__120__shared_ptr_pointerIPKN8facebook5react19ComponentDescriptorENS_14default_deleteIS4_EENS_9allocatorIS3_EEE21__on_zero_shared_weakEv, symObjAddr: 0xD80, symBinAddr: 0x38EF8, symSize: 0x4 }
  - { offset: 0x2A3D51, size: 0x8, addend: 0x0, symName: __ZNSt3__120__shared_ptr_pointerIPKN8facebook5react19ComponentDescriptorENS_14default_deleteIS4_EENS_9allocatorIS3_EEE21__on_zero_shared_weakEv, symObjAddr: 0xD80, symBinAddr: 0x38EF8, symSize: 0x4 }
  - { offset: 0x2A3D72, size: 0x8, addend: 0x0, symName: __ZNSt3__120__shared_ptr_pointerIPKN8facebook5react19ComponentDescriptorENS_14default_deleteIS4_EENS_9allocatorIS3_EEE21__on_zero_shared_weakEv, symObjAddr: 0xD80, symBinAddr: 0x38EF8, symSize: 0x4 }
  - { offset: 0x2A3DA4, size: 0x8, addend: 0x0, symName: __ZNSt3__120__shared_ptr_pointerIPKN8facebook5react19ComponentDescriptorENS_14default_deleteIS4_EENS_9allocatorIS3_EEE21__on_zero_shared_weakEv, symObjAddr: 0xD80, symBinAddr: 0x38EF8, symSize: 0x4 }
  - { offset: 0x2A43DC, size: 0x8, addend: 0x0, symName: __ZNSt3__110unique_ptrINS_11__hash_nodeINS_17__hash_value_typeIxNS_10shared_ptrIKN8facebook5react19ComponentDescriptorEEEEEPvEENS_22__hash_node_destructorINS_9allocatorISB_EEEEE5resetB8ne200100EPSB_, symObjAddr: 0x1234, symBinAddr: 0x39134, symSize: 0x48 }
  - { offset: 0x2A4811, size: 0x8, addend: 0x0, symName: __ZNSt3__110unique_ptrINS_11__hash_nodeINS_17__hash_value_typeIxNS_10shared_ptrIKN8facebook5react19ComponentDescriptorEEEEEPvEENS_22__hash_node_destructorINS_9allocatorISB_EEEEE5resetB8ne200100EPSB_, symObjAddr: 0x1234, symBinAddr: 0x39134, symSize: 0x48 }
  - { offset: 0x2A519C, size: 0x8, addend: 0x0, symName: __ZNSt3__110unique_ptrINS_11__hash_nodeINS_17__hash_value_typeINS_12basic_stringIcNS_11char_traitsIcEENS_9allocatorIcEEEENS_10shared_ptrIKN8facebook5react19ComponentDescriptorEEEEEPvEENS_22__hash_node_destructorINS6_ISH_EEEEE5resetB8ne200100EPSH_, symObjAddr: 0x1C28, symBinAddr: 0x393E4, symSize: 0x48 }
  - { offset: 0x2A5E09, size: 0x8, addend: 0x0, symName: __ZNSt3__110unique_ptrINS_11__hash_nodeINS_17__hash_value_typeINS_12basic_stringIcNS_11char_traitsIcEENS_9allocatorIcEEEENS_10shared_ptrIKN8facebook5react19ComponentDescriptorEEEEEPvEENS_22__hash_node_destructorINS6_ISH_EEEEE5resetB8ne200100EPSH_, symObjAddr: 0x1C28, symBinAddr: 0x393E4, symSize: 0x48 }
  - { offset: 0x2A627A, size: 0x8, addend: 0x0, symName: __ZNSt3__120__shared_ptr_emplaceIKN8facebook5react53UnstableLegacyViewManagerAutomaticComponentDescriptorENS_9allocatorIS3_EEEC2B8ne200100IJRKNS2_29ComponentDescriptorParametersERNS_12basic_stringIcNS_11char_traitsIcEENS5_IcEEEEES6_Li0EEES6_DpOT_, symObjAddr: 0x1E3C, symBinAddr: 0x3948C, symSize: 0x4C }
  - { offset: 0x2A6442, size: 0x8, addend: 0x0, symName: __ZNSt3__120__shared_ptr_emplaceIKN8facebook5react53UnstableLegacyViewManagerAutomaticComponentDescriptorENS_9allocatorIS3_EEED1Ev, symObjAddr: 0x1E88, symBinAddr: 0x394D8, symSize: 0x14 }
  - { offset: 0x2A6464, size: 0x8, addend: 0x0, symName: __ZNSt3__120__shared_ptr_emplaceIKN8facebook5react53UnstableLegacyViewManagerAutomaticComponentDescriptorENS_9allocatorIS3_EEED1Ev, symObjAddr: 0x1E88, symBinAddr: 0x394D8, symSize: 0x14 }
  - { offset: 0x2A649A, size: 0x8, addend: 0x0, symName: __ZNSt3__120__shared_ptr_emplaceIKN8facebook5react53UnstableLegacyViewManagerAutomaticComponentDescriptorENS_9allocatorIS3_EEED0Ev, symObjAddr: 0x1E9C, symBinAddr: 0x394EC, symSize: 0x24 }
  - { offset: 0x2A6567, size: 0x8, addend: 0x0, symName: __ZNSt3__120__shared_ptr_emplaceIKN8facebook5react53UnstableLegacyViewManagerAutomaticComponentDescriptorENS_9allocatorIS3_EEE16__on_zero_sharedEv, symObjAddr: 0x1EC0, symBinAddr: 0x39510, symSize: 0x8 }
  - { offset: 0x2A6590, size: 0x8, addend: 0x0, symName: __ZNSt3__120__shared_ptr_emplaceIKN8facebook5react53UnstableLegacyViewManagerAutomaticComponentDescriptorENS_9allocatorIS3_EEE16__on_zero_sharedEv, symObjAddr: 0x1EC0, symBinAddr: 0x39510, symSize: 0x8 }
  - { offset: 0x2A65AD, size: 0x8, addend: 0x0, symName: __ZNSt3__120__shared_ptr_emplaceIKN8facebook5react53UnstableLegacyViewManagerAutomaticComponentDescriptorENS_9allocatorIS3_EEE16__on_zero_sharedEv, symObjAddr: 0x1EC0, symBinAddr: 0x39510, symSize: 0x8 }
  - { offset: 0x2A65E9, size: 0x8, addend: 0x0, symName: __ZNSt3__120__shared_ptr_emplaceIKN8facebook5react53UnstableLegacyViewManagerAutomaticComponentDescriptorENS_9allocatorIS3_EEE21__on_zero_shared_weakEv, symObjAddr: 0x1EC8, symBinAddr: 0x39518, symSize: 0x4 }
  - { offset: 0x2A661B, size: 0x8, addend: 0x0, symName: __ZNSt3__120__shared_ptr_emplaceIKN8facebook5react53UnstableLegacyViewManagerAutomaticComponentDescriptorENS_9allocatorIS3_EEE21__on_zero_shared_weakEv, symObjAddr: 0x1EC8, symBinAddr: 0x39518, symSize: 0x4 }
  - { offset: 0x2A663C, size: 0x8, addend: 0x0, symName: __ZNSt3__120__shared_ptr_emplaceIKN8facebook5react53UnstableLegacyViewManagerAutomaticComponentDescriptorENS_9allocatorIS3_EEE21__on_zero_shared_weakEv, symObjAddr: 0x1EC8, symBinAddr: 0x39518, symSize: 0x4 }
  - { offset: 0x2A665E, size: 0x8, addend: 0x0, symName: __ZNSt3__120__shared_ptr_emplaceIKN8facebook5react53UnstableLegacyViewManagerAutomaticComponentDescriptorENS_9allocatorIS3_EEE21__on_zero_shared_weakEv, symObjAddr: 0x1EC8, symBinAddr: 0x39518, symSize: 0x4 }
  - { offset: 0x2A6691, size: 0x8, addend: 0x0, symName: __ZNSt3__120__shared_ptr_emplaceIKN8facebook5react53UnstableLegacyViewManagerAutomaticComponentDescriptorENS_9allocatorIS3_EEE21__on_zero_shared_weakEv, symObjAddr: 0x1EC8, symBinAddr: 0x39518, symSize: 0x4 }
  - { offset: 0x2A66E9, size: 0x8, addend: 0x0, symName: __ZN8facebook5react53UnstableLegacyViewManagerAutomaticComponentDescriptorC2ERKNS0_29ComponentDescriptorParametersENSt3__112basic_stringIcNS5_11char_traitsIcEENS5_9allocatorIcEEEE, symObjAddr: 0x1F5C, symBinAddr: 0x395AC, symSize: 0xE4 }
  - { offset: 0x2A702A, size: 0x8, addend: 0x0, symName: __ZN8facebook5react14RawPropsParser7prepareINS0_33LegacyViewManagerInteropViewPropsEEEvv, symObjAddr: 0x2090, symBinAddr: 0x396E0, symSize: 0x1EC }
  - { offset: 0x2A77DE, size: 0x8, addend: 0x0, symName: __ZN8facebook5react14RawPropsParserD1Ev, symObjAddr: 0x2040, symBinAddr: 0x39690, symSize: 0x50 }
  - { offset: 0x2A9ADD, size: 0x8, addend: 0x0, symName: __ZN8facebook5react27ConcreteComponentDescriptorINS0_22ConcreteViewShadowNodeIXadL_ZNS0_44LegacyViewManagerAndroidInteropComponentNameEEENS0_33LegacyViewManagerInteropViewPropsENS0_20BaseViewEventEmitterENS0_9StateDataEEEED1Ev, symObjAddr: 0x227C, symBinAddr: 0x398CC, symSize: 0x4 }
  - { offset: 0x2A9AFF, size: 0x8, addend: 0x0, symName: __ZN8facebook5react27ConcreteComponentDescriptorINS0_22ConcreteViewShadowNodeIXadL_ZNS0_44LegacyViewManagerAndroidInteropComponentNameEEENS0_33LegacyViewManagerInteropViewPropsENS0_20BaseViewEventEmitterENS0_9StateDataEEEED1Ev, symObjAddr: 0x227C, symBinAddr: 0x398CC, symSize: 0x4 }
  - { offset: 0x2A9B1C, size: 0x8, addend: 0x0, symName: __ZN8facebook5react27ConcreteComponentDescriptorINS0_22ConcreteViewShadowNodeIXadL_ZNS0_44LegacyViewManagerAndroidInteropComponentNameEEENS0_33LegacyViewManagerInteropViewPropsENS0_20BaseViewEventEmitterENS0_9StateDataEEEED1Ev, symObjAddr: 0x227C, symBinAddr: 0x398CC, symSize: 0x4 }
  - { offset: 0x2A9B2F, size: 0x8, addend: 0x0, symName: __ZN8facebook5react19ComponentDescriptorD2Ev, symObjAddr: 0x35FC, symBinAddr: 0x39EB0, symSize: 0x7C }
  - { offset: 0x2A9FEF, size: 0x8, addend: 0x0, symName: __ZN8facebook5react27ConcreteComponentDescriptorINS0_22ConcreteViewShadowNodeIXadL_ZNS0_44LegacyViewManagerAndroidInteropComponentNameEEENS0_33LegacyViewManagerInteropViewPropsENS0_20BaseViewEventEmitterENS0_9StateDataEEEED0Ev, symObjAddr: 0x2280, symBinAddr: 0x398D0, symSize: 0x14 }
  - { offset: 0x2AA067, size: 0x8, addend: 0x0, symName: __ZNK8facebook5react27ConcreteComponentDescriptorINS0_22ConcreteViewShadowNodeIXadL_ZNS0_44LegacyViewManagerAndroidInteropComponentNameEEENS0_33LegacyViewManagerInteropViewPropsENS0_20BaseViewEventEmitterENS0_9StateDataEEEE18getComponentHandleEv, symObjAddr: 0x2294, symBinAddr: 0x398E4, symSize: 0xC }
  - { offset: 0x2AA08E, size: 0x8, addend: 0x0, symName: __ZNK8facebook5react27ConcreteComponentDescriptorINS0_22ConcreteViewShadowNodeIXadL_ZNS0_44LegacyViewManagerAndroidInteropComponentNameEEENS0_33LegacyViewManagerInteropViewPropsENS0_20BaseViewEventEmitterENS0_9StateDataEEEE16getComponentNameEv, symObjAddr: 0x22A0, symBinAddr: 0x398F0, symSize: 0xC }
  - { offset: 0x2AA0B5, size: 0x8, addend: 0x0, symName: __ZNK8facebook5react27ConcreteComponentDescriptorINS0_22ConcreteViewShadowNodeIXadL_ZNS0_44LegacyViewManagerAndroidInteropComponentNameEEENS0_33LegacyViewManagerInteropViewPropsENS0_20BaseViewEventEmitterENS0_9StateDataEEEE9getTraitsEv, symObjAddr: 0x22AC, symBinAddr: 0x398FC, symSize: 0x8 }
  - { offset: 0x2AA1C0, size: 0x8, addend: 0x0, symName: __ZNK8facebook5react27ConcreteComponentDescriptorINS0_22ConcreteViewShadowNodeIXadL_ZNS0_44LegacyViewManagerAndroidInteropComponentNameEEENS0_33LegacyViewManagerInteropViewPropsENS0_20BaseViewEventEmitterENS0_9StateDataEEEE16createShadowNodeERKNS0_18ShadowNodeFragmentERKNSt3__110shared_ptrIKNS0_16ShadowNodeFamilyEEE, symObjAddr: 0x22B4, symBinAddr: 0x39904, symSize: 0x90 }
  - { offset: 0x2AA442, size: 0x8, addend: 0x0, symName: __ZNK8facebook5react27ConcreteComponentDescriptorINS0_22ConcreteViewShadowNodeIXadL_ZNS0_44LegacyViewManagerAndroidInteropComponentNameEEENS0_33LegacyViewManagerInteropViewPropsENS0_20BaseViewEventEmitterENS0_9StateDataEEEE15cloneShadowNodeERKNS0_10ShadowNodeERKNS0_18ShadowNodeFragmentE, symObjAddr: 0x2344, symBinAddr: 0x39994, symSize: 0x104 }
  - { offset: 0x2AA7A6, size: 0x8, addend: 0x0, symName: __ZNK8facebook5react27ConcreteComponentDescriptorINS0_22ConcreteViewShadowNodeIXadL_ZNS0_44LegacyViewManagerAndroidInteropComponentNameEEENS0_33LegacyViewManagerInteropViewPropsENS0_20BaseViewEventEmitterENS0_9StateDataEEEE11appendChildERKNSt3__110shared_ptrIKNS0_10ShadowNodeEEESE_, symObjAddr: 0x2448, symBinAddr: 0x39A98, symSize: 0x14 }
  - { offset: 0x2AA7FC, size: 0x8, addend: 0x0, symName: __ZNK8facebook5react27ConcreteComponentDescriptorINS0_22ConcreteViewShadowNodeIXadL_ZNS0_44LegacyViewManagerAndroidInteropComponentNameEEENS0_33LegacyViewManagerInteropViewPropsENS0_20BaseViewEventEmitterENS0_9StateDataEEEE11appendChildERKNSt3__110shared_ptrIKNS0_10ShadowNodeEEESE_, symObjAddr: 0x2448, symBinAddr: 0x39A98, symSize: 0x14 }
  - { offset: 0x2AB0B8, size: 0x8, addend: 0x0, symName: __ZNK8facebook5react27ConcreteComponentDescriptorINS0_22ConcreteViewShadowNodeIXadL_ZNS0_44LegacyViewManagerAndroidInteropComponentNameEEENS0_33LegacyViewManagerInteropViewPropsENS0_20BaseViewEventEmitterENS0_9StateDataEEEE10clonePropsERKNS0_18PropsParserContextERKNSt3__110shared_ptrIKNS0_5PropsEEENS0_8RawPropsE, symObjAddr: 0x245C, symBinAddr: 0x39AAC, symSize: 0x21C }
  - { offset: 0x2ABBA4, size: 0x8, addend: 0x0, symName: __ZN8facebook5react18ConcreteShadowNodeIXadL_ZNS0_44LegacyViewManagerAndroidInteropComponentNameEEENS0_24YogaLayoutableShadowNodeENS0_33LegacyViewManagerInteropViewPropsENS0_20BaseViewEventEmitterENS0_9StateDataEE5PropsERKNS0_18PropsParserContextERKNS0_8RawPropsERKNSt3__110shared_ptrIKNS0_5PropsEEE, symObjAddr: 0x3DF4, symBinAddr: 0x3A438, symSize: 0x58 }
  - { offset: 0x2ABE07, size: 0x8, addend: 0x0, symName: __ZNK8facebook5react27ConcreteComponentDescriptorINS0_22ConcreteViewShadowNodeIXadL_ZNS0_44LegacyViewManagerAndroidInteropComponentNameEEENS0_33LegacyViewManagerInteropViewPropsENS0_20BaseViewEventEmitterENS0_9StateDataEEEE18createInitialStateERKNSt3__110shared_ptrIKNS0_5PropsEEERKNS9_IKNS0_16ShadowNodeFamilyEEE, symObjAddr: 0x2678, symBinAddr: 0x39CC8, symSize: 0x8 }
  - { offset: 0x2ABE4A, size: 0x8, addend: 0x0, symName: __ZNK8facebook5react27ConcreteComponentDescriptorINS0_22ConcreteViewShadowNodeIXadL_ZNS0_44LegacyViewManagerAndroidInteropComponentNameEEENS0_33LegacyViewManagerInteropViewPropsENS0_20BaseViewEventEmitterENS0_9StateDataEEEE18createInitialStateERKNSt3__110shared_ptrIKNS0_5PropsEEERKNS9_IKNS0_16ShadowNodeFamilyEEE, symObjAddr: 0x2678, symBinAddr: 0x39CC8, symSize: 0x8 }
  - { offset: 0x2ABE6B, size: 0x8, addend: 0x0, symName: __ZNK8facebook5react27ConcreteComponentDescriptorINS0_22ConcreteViewShadowNodeIXadL_ZNS0_44LegacyViewManagerAndroidInteropComponentNameEEENS0_33LegacyViewManagerInteropViewPropsENS0_20BaseViewEventEmitterENS0_9StateDataEEEE18createInitialStateERKNSt3__110shared_ptrIKNS0_5PropsEEERKNS9_IKNS0_16ShadowNodeFamilyEEE, symObjAddr: 0x2678, symBinAddr: 0x39CC8, symSize: 0x8 }
  - { offset: 0x2ABE8D, size: 0x8, addend: 0x0, symName: __ZNK8facebook5react27ConcreteComponentDescriptorINS0_22ConcreteViewShadowNodeIXadL_ZNS0_44LegacyViewManagerAndroidInteropComponentNameEEENS0_33LegacyViewManagerInteropViewPropsENS0_20BaseViewEventEmitterENS0_9StateDataEEEE11createStateERKNS0_16ShadowNodeFamilyERKNSt3__110shared_ptrIKvEE, symObjAddr: 0x2680, symBinAddr: 0x39CD0, symSize: 0x8 }
  - { offset: 0x2ABED0, size: 0x8, addend: 0x0, symName: __ZNK8facebook5react27ConcreteComponentDescriptorINS0_22ConcreteViewShadowNodeIXadL_ZNS0_44LegacyViewManagerAndroidInteropComponentNameEEENS0_33LegacyViewManagerInteropViewPropsENS0_20BaseViewEventEmitterENS0_9StateDataEEEE11createStateERKNS0_16ShadowNodeFamilyERKNSt3__110shared_ptrIKvEE, symObjAddr: 0x2680, symBinAddr: 0x39CD0, symSize: 0x8 }
  - { offset: 0x2ABEF1, size: 0x8, addend: 0x0, symName: __ZNK8facebook5react27ConcreteComponentDescriptorINS0_22ConcreteViewShadowNodeIXadL_ZNS0_44LegacyViewManagerAndroidInteropComponentNameEEENS0_33LegacyViewManagerInteropViewPropsENS0_20BaseViewEventEmitterENS0_9StateDataEEEE11createStateERKNS0_16ShadowNodeFamilyERKNSt3__110shared_ptrIKvEE, symObjAddr: 0x2680, symBinAddr: 0x39CD0, symSize: 0x8 }
  - { offset: 0x2AC175, size: 0x8, addend: 0x0, symName: __ZNK8facebook5react27ConcreteComponentDescriptorINS0_22ConcreteViewShadowNodeIXadL_ZNS0_44LegacyViewManagerAndroidInteropComponentNameEEENS0_33LegacyViewManagerInteropViewPropsENS0_20BaseViewEventEmitterENS0_9StateDataEEEE12createFamilyERKNS0_24ShadowNodeFamilyFragmentE, symObjAddr: 0x2688, symBinAddr: 0x39CD8, symSize: 0x168 }
  - { offset: 0x2AC6C6, size: 0x8, addend: 0x0, symName: __ZNK8facebook5react27ConcreteComponentDescriptorINS0_22ConcreteViewShadowNodeIXadL_ZNS0_44LegacyViewManagerAndroidInteropComponentNameEEENS0_33LegacyViewManagerInteropViewPropsENS0_20BaseViewEventEmitterENS0_9StateDataEEEE5adoptERNS0_10ShadowNodeE, symObjAddr: 0x27F0, symBinAddr: 0x39E40, symSize: 0x4 }
  - { offset: 0x2AC6F9, size: 0x8, addend: 0x0, symName: __ZN8facebook5react33LegacyViewManagerInteropViewPropsD1Ev, symObjAddr: 0x27F4, symBinAddr: 0x39E44, symSize: 0x34 }
  - { offset: 0x2AF128, size: 0x8, addend: 0x0, symName: __ZN8facebook5react33LegacyViewManagerInteropViewPropsD0Ev, symObjAddr: 0x2CB8, symBinAddr: 0x39E78, symSize: 0x38 }
  - { offset: 0x2B0ED0, size: 0x8, addend: 0x0, symName: __ZNSt3__120__shared_ptr_emplaceIN8facebook5react22ConcreteViewShadowNodeIXadL_ZNS2_44LegacyViewManagerAndroidInteropComponentNameEEENS2_33LegacyViewManagerInteropViewPropsENS2_20BaseViewEventEmitterENS2_9StateDataEEENS_9allocatorIS7_EEEC2B8ne200100IJRKNS2_18ShadowNodeFragmentERKNS_10shared_ptrIKNS2_16ShadowNodeFamilyEEENS2_16ShadowNodeTraitsEES9_Li0EEES9_DpOT_, symObjAddr: 0x36F0, symBinAddr: 0x39F9C, symSize: 0x68 }
  - { offset: 0x2B11E4, size: 0x8, addend: 0x0, symName: __ZN8facebook5react22ConcreteViewShadowNodeIXadL_ZNS0_44LegacyViewManagerAndroidInteropComponentNameEEENS0_33LegacyViewManagerInteropViewPropsENS0_20BaseViewEventEmitterENS0_9StateDataEE10initializeEv, symObjAddr: 0x37A0, symBinAddr: 0x3A04C, symSize: 0x6C }
  - { offset: 0x2B1229, size: 0x8, addend: 0x0, symName: __ZN8facebook5react22ConcreteViewShadowNodeIXadL_ZNS0_44LegacyViewManagerAndroidInteropComponentNameEEENS0_33LegacyViewManagerInteropViewPropsENS0_20BaseViewEventEmitterENS0_9StateDataEE10initializeEv, symObjAddr: 0x37A0, symBinAddr: 0x3A04C, symSize: 0x6C }
  - { offset: 0x2B1244, size: 0x8, addend: 0x0, symName: __ZN8facebook5react22ConcreteViewShadowNodeIXadL_ZNS0_44LegacyViewManagerAndroidInteropComponentNameEEENS0_33LegacyViewManagerInteropViewPropsENS0_20BaseViewEventEmitterENS0_9StateDataEE10initializeEv, symObjAddr: 0x37A0, symBinAddr: 0x3A04C, symSize: 0x6C }
  - { offset: 0x2B12DA, size: 0x8, addend: 0x0, symName: __ZNSt3__120__shared_ptr_emplaceIN8facebook5react22ConcreteViewShadowNodeIXadL_ZNS2_44LegacyViewManagerAndroidInteropComponentNameEEENS2_33LegacyViewManagerInteropViewPropsENS2_20BaseViewEventEmitterENS2_9StateDataEEENS_9allocatorIS7_EEED1Ev, symObjAddr: 0x3758, symBinAddr: 0x3A004, symSize: 0x14 }
  - { offset: 0x2B12FC, size: 0x8, addend: 0x0, symName: __ZNSt3__120__shared_ptr_emplaceIN8facebook5react22ConcreteViewShadowNodeIXadL_ZNS2_44LegacyViewManagerAndroidInteropComponentNameEEENS2_33LegacyViewManagerInteropViewPropsENS2_20BaseViewEventEmitterENS2_9StateDataEEENS_9allocatorIS7_EEED1Ev, symObjAddr: 0x3758, symBinAddr: 0x3A004, symSize: 0x14 }
  - { offset: 0x2B1332, size: 0x8, addend: 0x0, symName: __ZNSt3__120__shared_ptr_emplaceIN8facebook5react22ConcreteViewShadowNodeIXadL_ZNS2_44LegacyViewManagerAndroidInteropComponentNameEEENS2_33LegacyViewManagerInteropViewPropsENS2_20BaseViewEventEmitterENS2_9StateDataEEENS_9allocatorIS7_EEED0Ev, symObjAddr: 0x376C, symBinAddr: 0x3A018, symSize: 0x24 }
  - { offset: 0x2B13FF, size: 0x8, addend: 0x0, symName: __ZNSt3__120__shared_ptr_emplaceIN8facebook5react22ConcreteViewShadowNodeIXadL_ZNS2_44LegacyViewManagerAndroidInteropComponentNameEEENS2_33LegacyViewManagerInteropViewPropsENS2_20BaseViewEventEmitterENS2_9StateDataEEENS_9allocatorIS7_EEE16__on_zero_sharedEv, symObjAddr: 0x3790, symBinAddr: 0x3A03C, symSize: 0xC }
  - { offset: 0x2B1428, size: 0x8, addend: 0x0, symName: __ZNSt3__120__shared_ptr_emplaceIN8facebook5react22ConcreteViewShadowNodeIXadL_ZNS2_44LegacyViewManagerAndroidInteropComponentNameEEENS2_33LegacyViewManagerInteropViewPropsENS2_20BaseViewEventEmitterENS2_9StateDataEEENS_9allocatorIS7_EEE16__on_zero_sharedEv, symObjAddr: 0x3790, symBinAddr: 0x3A03C, symSize: 0xC }
  - { offset: 0x2B1445, size: 0x8, addend: 0x0, symName: __ZNSt3__120__shared_ptr_emplaceIN8facebook5react22ConcreteViewShadowNodeIXadL_ZNS2_44LegacyViewManagerAndroidInteropComponentNameEEENS2_33LegacyViewManagerInteropViewPropsENS2_20BaseViewEventEmitterENS2_9StateDataEEENS_9allocatorIS7_EEE16__on_zero_sharedEv, symObjAddr: 0x3790, symBinAddr: 0x3A03C, symSize: 0xC }
  - { offset: 0x2B1462, size: 0x8, addend: 0x0, symName: __ZNSt3__120__shared_ptr_emplaceIN8facebook5react22ConcreteViewShadowNodeIXadL_ZNS2_44LegacyViewManagerAndroidInteropComponentNameEEENS2_33LegacyViewManagerInteropViewPropsENS2_20BaseViewEventEmitterENS2_9StateDataEEENS_9allocatorIS7_EEE16__on_zero_sharedEv, symObjAddr: 0x3790, symBinAddr: 0x3A03C, symSize: 0xC }
  - { offset: 0x2B148D, size: 0x8, addend: 0x0, symName: __ZNSt3__120__shared_ptr_emplaceIN8facebook5react22ConcreteViewShadowNodeIXadL_ZNS2_44LegacyViewManagerAndroidInteropComponentNameEEENS2_33LegacyViewManagerInteropViewPropsENS2_20BaseViewEventEmitterENS2_9StateDataEEENS_9allocatorIS7_EEE21__on_zero_shared_weakEv, symObjAddr: 0x379C, symBinAddr: 0x3A048, symSize: 0x4 }
  - { offset: 0x2B14BF, size: 0x8, addend: 0x0, symName: __ZNSt3__120__shared_ptr_emplaceIN8facebook5react22ConcreteViewShadowNodeIXadL_ZNS2_44LegacyViewManagerAndroidInteropComponentNameEEENS2_33LegacyViewManagerInteropViewPropsENS2_20BaseViewEventEmitterENS2_9StateDataEEENS_9allocatorIS7_EEE21__on_zero_shared_weakEv, symObjAddr: 0x379C, symBinAddr: 0x3A048, symSize: 0x4 }
  - { offset: 0x2B14E0, size: 0x8, addend: 0x0, symName: __ZNSt3__120__shared_ptr_emplaceIN8facebook5react22ConcreteViewShadowNodeIXadL_ZNS2_44LegacyViewManagerAndroidInteropComponentNameEEENS2_33LegacyViewManagerInteropViewPropsENS2_20BaseViewEventEmitterENS2_9StateDataEEENS_9allocatorIS7_EEE21__on_zero_shared_weakEv, symObjAddr: 0x379C, symBinAddr: 0x3A048, symSize: 0x4 }
  - { offset: 0x2B1502, size: 0x8, addend: 0x0, symName: __ZNSt3__120__shared_ptr_emplaceIN8facebook5react22ConcreteViewShadowNodeIXadL_ZNS2_44LegacyViewManagerAndroidInteropComponentNameEEENS2_33LegacyViewManagerInteropViewPropsENS2_20BaseViewEventEmitterENS2_9StateDataEEENS_9allocatorIS7_EEE21__on_zero_shared_weakEv, symObjAddr: 0x379C, symBinAddr: 0x3A048, symSize: 0x4 }
  - { offset: 0x2B1535, size: 0x8, addend: 0x0, symName: __ZNSt3__120__shared_ptr_emplaceIN8facebook5react22ConcreteViewShadowNodeIXadL_ZNS2_44LegacyViewManagerAndroidInteropComponentNameEEENS2_33LegacyViewManagerInteropViewPropsENS2_20BaseViewEventEmitterENS2_9StateDataEEENS_9allocatorIS7_EEE21__on_zero_shared_weakEv, symObjAddr: 0x379C, symBinAddr: 0x3A048, symSize: 0x4 }
  - { offset: 0x2B184D, size: 0x8, addend: 0x0, symName: __ZN8facebook5react22ConcreteViewShadowNodeIXadL_ZNS0_44LegacyViewManagerAndroidInteropComponentNameEEENS0_33LegacyViewManagerInteropViewPropsENS0_20BaseViewEventEmitterENS0_9StateDataEED1Ev, symObjAddr: 0x380C, symBinAddr: 0x3A0B8, symSize: 0x70 }
  - { offset: 0x2B1BF6, size: 0x8, addend: 0x0, symName: __ZNSt3__16vectorINS_10shared_ptrIKN8facebook5react24YogaLayoutableShadowNodeEEENS_9allocatorIS6_EEE16__destroy_vectorclB8ne200100Ev, symObjAddr: 0x3960, symBinAddr: 0x3A20C, symSize: 0x70 }
  - { offset: 0x2B1D63, size: 0x8, addend: 0x0, symName: __ZN8facebook5react10ShadowNodeD2Ev, symObjAddr: 0x3A28, symBinAddr: 0x3A27C, symSize: 0x5C }
  - { offset: 0x2B1E8A, size: 0x8, addend: 0x0, symName: __ZN8facebook5react22ConcreteViewShadowNodeIXadL_ZNS0_44LegacyViewManagerAndroidInteropComponentNameEEENS0_33LegacyViewManagerInteropViewPropsENS0_20BaseViewEventEmitterENS0_9StateDataEED0Ev, symObjAddr: 0x387C, symBinAddr: 0x3A128, symSize: 0x74 }
  - { offset: 0x2B225A, size: 0x8, addend: 0x0, symName: __ZNK8facebook5react22ConcreteViewShadowNodeIXadL_ZNS0_44LegacyViewManagerAndroidInteropComponentNameEEENS0_33LegacyViewManagerInteropViewPropsENS0_20BaseViewEventEmitterENS0_9StateDataEE12getTransformEv, symObjAddr: 0x38F0, symBinAddr: 0x3A19C, symSize: 0x40 }
  - { offset: 0x2B22C9, size: 0x8, addend: 0x0, symName: __ZNK8facebook5react22ConcreteViewShadowNodeIXadL_ZNS0_44LegacyViewManagerAndroidInteropComponentNameEEENS0_33LegacyViewManagerInteropViewPropsENS0_20BaseViewEventEmitterENS0_9StateDataEE16canBeTouchTargetEv, symObjAddr: 0x3930, symBinAddr: 0x3A1DC, symSize: 0x18 }
  - { offset: 0x2B2301, size: 0x8, addend: 0x0, symName: __ZNK8facebook5react22ConcreteViewShadowNodeIXadL_ZNS0_44LegacyViewManagerAndroidInteropComponentNameEEENS0_33LegacyViewManagerInteropViewPropsENS0_20BaseViewEventEmitterENS0_9StateDataEE16canBeTouchTargetEv, symObjAddr: 0x3930, symBinAddr: 0x3A1DC, symSize: 0x18 }
  - { offset: 0x2B231C, size: 0x8, addend: 0x0, symName: __ZNK8facebook5react22ConcreteViewShadowNodeIXadL_ZNS0_44LegacyViewManagerAndroidInteropComponentNameEEENS0_33LegacyViewManagerInteropViewPropsENS0_20BaseViewEventEmitterENS0_9StateDataEE16canBeTouchTargetEv, symObjAddr: 0x3930, symBinAddr: 0x3A1DC, symSize: 0x18 }
  - { offset: 0x2B2339, size: 0x8, addend: 0x0, symName: __ZNK8facebook5react22ConcreteViewShadowNodeIXadL_ZNS0_44LegacyViewManagerAndroidInteropComponentNameEEENS0_33LegacyViewManagerInteropViewPropsENS0_20BaseViewEventEmitterENS0_9StateDataEE24canChildrenBeTouchTargetEv, symObjAddr: 0x3948, symBinAddr: 0x3A1F4, symSize: 0x18 }
  - { offset: 0x2B236D, size: 0x8, addend: 0x0, symName: __ZNK8facebook5react22ConcreteViewShadowNodeIXadL_ZNS0_44LegacyViewManagerAndroidInteropComponentNameEEENS0_33LegacyViewManagerInteropViewPropsENS0_20BaseViewEventEmitterENS0_9StateDataEE24canChildrenBeTouchTargetEv, symObjAddr: 0x3948, symBinAddr: 0x3A1F4, symSize: 0x18 }
  - { offset: 0x2B2388, size: 0x8, addend: 0x0, symName: __ZNK8facebook5react22ConcreteViewShadowNodeIXadL_ZNS0_44LegacyViewManagerAndroidInteropComponentNameEEENS0_33LegacyViewManagerInteropViewPropsENS0_20BaseViewEventEmitterENS0_9StateDataEE24canChildrenBeTouchTargetEv, symObjAddr: 0x3948, symBinAddr: 0x3A1F4, symSize: 0x18 }
  - { offset: 0x2B2791, size: 0x8, addend: 0x0, symName: __ZNSt3__120__shared_ptr_emplaceIN8facebook5react22ConcreteViewShadowNodeIXadL_ZNS2_44LegacyViewManagerAndroidInteropComponentNameEEENS2_33LegacyViewManagerInteropViewPropsENS2_20BaseViewEventEmitterENS2_9StateDataEEENS_9allocatorIS7_EEEC2B8ne200100IJRKNS2_10ShadowNodeERKNS2_18ShadowNodeFragmentEES9_Li0EEES9_DpOT_, symObjAddr: 0x3C9C, symBinAddr: 0x3A338, symSize: 0x64 }
  - { offset: 0x2B2A40, size: 0x8, addend: 0x0, symName: __ZNSt3__110shared_ptrIKN8facebook5react33LegacyViewManagerInteropViewPropsEED1B8ne200100Ev, symObjAddr: 0x3E4C, symBinAddr: 0x3A490, symSize: 0x4 }
  - { offset: 0x2B2A6C, size: 0x8, addend: 0x0, symName: __ZNSt3__110shared_ptrIKN8facebook5react33LegacyViewManagerInteropViewPropsEED1B8ne200100Ev, symObjAddr: 0x3E4C, symBinAddr: 0x3A490, symSize: 0x4 }
  - { offset: 0x2B2D0D, size: 0x8, addend: 0x0, symName: __ZNSt3__120__shared_ptr_emplaceIKN8facebook5react33LegacyViewManagerInteropViewPropsENS_9allocatorIS3_EEEC2B8ne200100IJES6_Li0EEES6_DpOT_, symObjAddr: 0x3E98, symBinAddr: 0x3A4DC, symSize: 0x7C }
  - { offset: 0x2B2F11, size: 0x8, addend: 0x0, symName: __ZNSt3__120__shared_ptr_emplaceIKN8facebook5react33LegacyViewManagerInteropViewPropsENS_9allocatorIS3_EEED1Ev, symObjAddr: 0x3F14, symBinAddr: 0x3A558, symSize: 0x14 }
  - { offset: 0x2B2F33, size: 0x8, addend: 0x0, symName: __ZNSt3__120__shared_ptr_emplaceIKN8facebook5react33LegacyViewManagerInteropViewPropsENS_9allocatorIS3_EEED1Ev, symObjAddr: 0x3F14, symBinAddr: 0x3A558, symSize: 0x14 }
  - { offset: 0x2B2F69, size: 0x8, addend: 0x0, symName: __ZNSt3__120__shared_ptr_emplaceIKN8facebook5react33LegacyViewManagerInteropViewPropsENS_9allocatorIS3_EEED0Ev, symObjAddr: 0x3F28, symBinAddr: 0x3A56C, symSize: 0x24 }
  - { offset: 0x2B3036, size: 0x8, addend: 0x0, symName: __ZNSt3__120__shared_ptr_emplaceIKN8facebook5react33LegacyViewManagerInteropViewPropsENS_9allocatorIS3_EEE16__on_zero_sharedEv, symObjAddr: 0x3F4C, symBinAddr: 0x3A590, symSize: 0x34 }
  - { offset: 0x2B310C, size: 0x8, addend: 0x0, symName: __ZNSt3__120__shared_ptr_emplaceIKN8facebook5react33LegacyViewManagerInteropViewPropsENS_9allocatorIS3_EEE21__on_zero_shared_weakEv, symObjAddr: 0x3F80, symBinAddr: 0x3A5C4, symSize: 0x4 }
  - { offset: 0x2B313E, size: 0x8, addend: 0x0, symName: __ZNSt3__120__shared_ptr_emplaceIKN8facebook5react33LegacyViewManagerInteropViewPropsENS_9allocatorIS3_EEE21__on_zero_shared_weakEv, symObjAddr: 0x3F80, symBinAddr: 0x3A5C4, symSize: 0x4 }
  - { offset: 0x2B315F, size: 0x8, addend: 0x0, symName: __ZNSt3__120__shared_ptr_emplaceIKN8facebook5react33LegacyViewManagerInteropViewPropsENS_9allocatorIS3_EEE21__on_zero_shared_weakEv, symObjAddr: 0x3F80, symBinAddr: 0x3A5C4, symSize: 0x4 }
  - { offset: 0x2B3181, size: 0x8, addend: 0x0, symName: __ZNSt3__120__shared_ptr_emplaceIKN8facebook5react33LegacyViewManagerInteropViewPropsENS_9allocatorIS3_EEE21__on_zero_shared_weakEv, symObjAddr: 0x3F80, symBinAddr: 0x3A5C4, symSize: 0x4 }
  - { offset: 0x2B31B4, size: 0x8, addend: 0x0, symName: __ZNSt3__120__shared_ptr_emplaceIKN8facebook5react33LegacyViewManagerInteropViewPropsENS_9allocatorIS3_EEE21__on_zero_shared_weakEv, symObjAddr: 0x3F80, symBinAddr: 0x3A5C4, symSize: 0x4 }
  - { offset: 0x2B343F, size: 0x8, addend: 0x0, symName: __ZNSt3__120__shared_ptr_emplaceIN8facebook5react33LegacyViewManagerInteropViewPropsENS_9allocatorIS3_EEEC2B8ne200100IJRKNS2_18PropsParserContextERKS3_RKNS2_8RawPropsEES5_Li0EEES5_DpOT_, symObjAddr: 0x404C, symBinAddr: 0x3A638, symSize: 0x4C }
  - { offset: 0x2B361E, size: 0x8, addend: 0x0, symName: __ZNSt3__120__shared_ptr_emplaceIN8facebook5react33LegacyViewManagerInteropViewPropsENS_9allocatorIS3_EEED1Ev, symObjAddr: 0x4098, symBinAddr: 0x3A684, symSize: 0x14 }
  - { offset: 0x2B3640, size: 0x8, addend: 0x0, symName: __ZNSt3__120__shared_ptr_emplaceIN8facebook5react33LegacyViewManagerInteropViewPropsENS_9allocatorIS3_EEED1Ev, symObjAddr: 0x4098, symBinAddr: 0x3A684, symSize: 0x14 }
  - { offset: 0x2B3676, size: 0x8, addend: 0x0, symName: __ZNSt3__120__shared_ptr_emplaceIN8facebook5react33LegacyViewManagerInteropViewPropsENS_9allocatorIS3_EEED0Ev, symObjAddr: 0x40AC, symBinAddr: 0x3A698, symSize: 0x24 }
  - { offset: 0x2B3714, size: 0x8, addend: 0x0, symName: __ZNSt3__120__shared_ptr_emplaceIN8facebook5react33LegacyViewManagerInteropViewPropsENS_9allocatorIS3_EEE16__on_zero_sharedEv, symObjAddr: 0x40D0, symBinAddr: 0x3A6BC, symSize: 0x34 }
  - { offset: 0x2B37EA, size: 0x8, addend: 0x0, symName: __ZNSt3__120__shared_ptr_emplaceIN8facebook5react33LegacyViewManagerInteropViewPropsENS_9allocatorIS3_EEE21__on_zero_shared_weakEv, symObjAddr: 0x4104, symBinAddr: 0x3A6F0, symSize: 0x4 }
  - { offset: 0x2B381C, size: 0x8, addend: 0x0, symName: __ZNSt3__120__shared_ptr_emplaceIN8facebook5react33LegacyViewManagerInteropViewPropsENS_9allocatorIS3_EEE21__on_zero_shared_weakEv, symObjAddr: 0x4104, symBinAddr: 0x3A6F0, symSize: 0x4 }
  - { offset: 0x2B383D, size: 0x8, addend: 0x0, symName: __ZNSt3__120__shared_ptr_emplaceIN8facebook5react33LegacyViewManagerInteropViewPropsENS_9allocatorIS3_EEE21__on_zero_shared_weakEv, symObjAddr: 0x4104, symBinAddr: 0x3A6F0, symSize: 0x4 }
  - { offset: 0x2B385F, size: 0x8, addend: 0x0, symName: __ZNSt3__120__shared_ptr_emplaceIN8facebook5react33LegacyViewManagerInteropViewPropsENS_9allocatorIS3_EEE21__on_zero_shared_weakEv, symObjAddr: 0x4104, symBinAddr: 0x3A6F0, symSize: 0x4 }
  - { offset: 0x2B3892, size: 0x8, addend: 0x0, symName: __ZNSt3__120__shared_ptr_emplaceIN8facebook5react33LegacyViewManagerInteropViewPropsENS_9allocatorIS3_EEE21__on_zero_shared_weakEv, symObjAddr: 0x4104, symBinAddr: 0x3A6F0, symSize: 0x4 }
  - { offset: 0x2B3BA8, size: 0x8, addend: 0x0, symName: __ZNSt3__120__shared_ptr_emplaceIKN8facebook5react20BaseViewEventEmitterENS_9allocatorIS3_EEEC2B8ne200100IJNS_10shared_ptrINS2_11EventTargetEEERKNS_8weak_ptrIKNS2_15EventDispatcherEEEES6_Li0EEES6_DpOT_, symObjAddr: 0x4298, symBinAddr: 0x3A754, symSize: 0x4C }
  - { offset: 0x2B3D4B, size: 0x8, addend: 0x0, symName: __ZNSt3__120__shared_ptr_emplaceIKN8facebook5react20BaseViewEventEmitterENS_9allocatorIS3_EEED1Ev, symObjAddr: 0x42E4, symBinAddr: 0x3A7A0, symSize: 0x14 }
  - { offset: 0x2B3D6D, size: 0x8, addend: 0x0, symName: __ZNSt3__120__shared_ptr_emplaceIKN8facebook5react20BaseViewEventEmitterENS_9allocatorIS3_EEED1Ev, symObjAddr: 0x42E4, symBinAddr: 0x3A7A0, symSize: 0x14 }
  - { offset: 0x2B3DA3, size: 0x8, addend: 0x0, symName: __ZNSt3__120__shared_ptr_emplaceIKN8facebook5react20BaseViewEventEmitterENS_9allocatorIS3_EEED0Ev, symObjAddr: 0x42F8, symBinAddr: 0x3A7B4, symSize: 0x24 }
  - { offset: 0x2B3E70, size: 0x8, addend: 0x0, symName: __ZNSt3__120__shared_ptr_emplaceIKN8facebook5react20BaseViewEventEmitterENS_9allocatorIS3_EEE16__on_zero_sharedEv, symObjAddr: 0x431C, symBinAddr: 0x3A7D8, symSize: 0xC }
  - { offset: 0x2B3E99, size: 0x8, addend: 0x0, symName: __ZNSt3__120__shared_ptr_emplaceIKN8facebook5react20BaseViewEventEmitterENS_9allocatorIS3_EEE16__on_zero_sharedEv, symObjAddr: 0x431C, symBinAddr: 0x3A7D8, symSize: 0xC }
  - { offset: 0x2B3EB6, size: 0x8, addend: 0x0, symName: __ZNSt3__120__shared_ptr_emplaceIKN8facebook5react20BaseViewEventEmitterENS_9allocatorIS3_EEE16__on_zero_sharedEv, symObjAddr: 0x431C, symBinAddr: 0x3A7D8, symSize: 0xC }
  - { offset: 0x2B3ED3, size: 0x8, addend: 0x0, symName: __ZNSt3__120__shared_ptr_emplaceIKN8facebook5react20BaseViewEventEmitterENS_9allocatorIS3_EEE16__on_zero_sharedEv, symObjAddr: 0x431C, symBinAddr: 0x3A7D8, symSize: 0xC }
  - { offset: 0x2B3EFE, size: 0x8, addend: 0x0, symName: __ZNSt3__120__shared_ptr_emplaceIKN8facebook5react20BaseViewEventEmitterENS_9allocatorIS3_EEE21__on_zero_shared_weakEv, symObjAddr: 0x4328, symBinAddr: 0x3A7E4, symSize: 0x4 }
  - { offset: 0x2B3F30, size: 0x8, addend: 0x0, symName: __ZNSt3__120__shared_ptr_emplaceIKN8facebook5react20BaseViewEventEmitterENS_9allocatorIS3_EEE21__on_zero_shared_weakEv, symObjAddr: 0x4328, symBinAddr: 0x3A7E4, symSize: 0x4 }
  - { offset: 0x2B3F51, size: 0x8, addend: 0x0, symName: __ZNSt3__120__shared_ptr_emplaceIKN8facebook5react20BaseViewEventEmitterENS_9allocatorIS3_EEE21__on_zero_shared_weakEv, symObjAddr: 0x4328, symBinAddr: 0x3A7E4, symSize: 0x4 }
  - { offset: 0x2B3F73, size: 0x8, addend: 0x0, symName: __ZNSt3__120__shared_ptr_emplaceIKN8facebook5react20BaseViewEventEmitterENS_9allocatorIS3_EEE21__on_zero_shared_weakEv, symObjAddr: 0x4328, symBinAddr: 0x3A7E4, symSize: 0x4 }
  - { offset: 0x2B3FA5, size: 0x8, addend: 0x0, symName: __ZNSt3__120__shared_ptr_emplaceIKN8facebook5react20BaseViewEventEmitterENS_9allocatorIS3_EEE21__on_zero_shared_weakEv, symObjAddr: 0x4328, symBinAddr: 0x3A7E4, symSize: 0x4 }
  - { offset: 0x2B4397, size: 0x8, addend: 0x0, symName: __ZN8facebook5react12EventEmitterD2Ev, symObjAddr: 0x4564, symBinAddr: 0x3A9C8, symSize: 0x50 }
  - { offset: 0x2B44F3, size: 0x8, addend: 0x0, symName: __ZN8facebook5react20BaseViewEventEmitterD1Ev, symObjAddr: 0x445C, symBinAddr: 0x3A918, symSize: 0x34 }
  - { offset: 0x2B45FE, size: 0x8, addend: 0x0, symName: __ZN8facebook5react20BaseViewEventEmitterD0Ev, symObjAddr: 0x4490, symBinAddr: 0x3A94C, symSize: 0x38 }
  - { offset: 0x2B46D8, size: 0x8, addend: 0x0, symName: __ZNSt3__120__shared_ptr_emplaceIN8facebook5react20BaseViewEventEmitter16LayoutEventStateENS_9allocatorIS4_EEED1Ev, symObjAddr: 0x44C8, symBinAddr: 0x3A984, symSize: 0x14 }
  - { offset: 0x2B46FA, size: 0x8, addend: 0x0, symName: __ZNSt3__120__shared_ptr_emplaceIN8facebook5react20BaseViewEventEmitter16LayoutEventStateENS_9allocatorIS4_EEED1Ev, symObjAddr: 0x44C8, symBinAddr: 0x3A984, symSize: 0x14 }
  - { offset: 0x2B4730, size: 0x8, addend: 0x0, symName: __ZNSt3__120__shared_ptr_emplaceIN8facebook5react20BaseViewEventEmitter16LayoutEventStateENS_9allocatorIS4_EEED0Ev, symObjAddr: 0x44DC, symBinAddr: 0x3A998, symSize: 0x24 }
  - { offset: 0x2B484B, size: 0x8, addend: 0x0, symName: __ZNSt3__120__shared_ptr_emplaceIN8facebook5react20BaseViewEventEmitter16LayoutEventStateENS_9allocatorIS4_EEE16__on_zero_sharedEv, symObjAddr: 0x4500, symBinAddr: 0x3A9BC, symSize: 0x8 }
  - { offset: 0x2B4874, size: 0x8, addend: 0x0, symName: __ZNSt3__120__shared_ptr_emplaceIN8facebook5react20BaseViewEventEmitter16LayoutEventStateENS_9allocatorIS4_EEE16__on_zero_sharedEv, symObjAddr: 0x4500, symBinAddr: 0x3A9BC, symSize: 0x8 }
  - { offset: 0x2B4891, size: 0x8, addend: 0x0, symName: __ZNSt3__120__shared_ptr_emplaceIN8facebook5react20BaseViewEventEmitter16LayoutEventStateENS_9allocatorIS4_EEE16__on_zero_sharedEv, symObjAddr: 0x4500, symBinAddr: 0x3A9BC, symSize: 0x8 }
  - { offset: 0x2B4961, size: 0x8, addend: 0x0, symName: __ZNSt3__120__shared_ptr_emplaceIN8facebook5react20BaseViewEventEmitter16LayoutEventStateENS_9allocatorIS4_EEE21__on_zero_shared_weakEv, symObjAddr: 0x4508, symBinAddr: 0x3A9C4, symSize: 0x4 }
  - { offset: 0x2B4993, size: 0x8, addend: 0x0, symName: __ZNSt3__120__shared_ptr_emplaceIN8facebook5react20BaseViewEventEmitter16LayoutEventStateENS_9allocatorIS4_EEE21__on_zero_shared_weakEv, symObjAddr: 0x4508, symBinAddr: 0x3A9C4, symSize: 0x4 }
  - { offset: 0x2B49B4, size: 0x8, addend: 0x0, symName: __ZNSt3__120__shared_ptr_emplaceIN8facebook5react20BaseViewEventEmitter16LayoutEventStateENS_9allocatorIS4_EEE21__on_zero_shared_weakEv, symObjAddr: 0x4508, symBinAddr: 0x3A9C4, symSize: 0x4 }
  - { offset: 0x2B49D6, size: 0x8, addend: 0x0, symName: __ZNSt3__120__shared_ptr_emplaceIN8facebook5react20BaseViewEventEmitter16LayoutEventStateENS_9allocatorIS4_EEE21__on_zero_shared_weakEv, symObjAddr: 0x4508, symBinAddr: 0x3A9C4, symSize: 0x4 }
  - { offset: 0x2B4A09, size: 0x8, addend: 0x0, symName: __ZNSt3__120__shared_ptr_emplaceIN8facebook5react20BaseViewEventEmitter16LayoutEventStateENS_9allocatorIS4_EEE21__on_zero_shared_weakEv, symObjAddr: 0x4508, symBinAddr: 0x3A9C4, symSize: 0x4 }
  - { offset: 0x2B4A31, size: 0x8, addend: 0x0, symName: __ZN8facebook5react12EventEmitterD1Ev, symObjAddr: 0x45B4, symBinAddr: 0x3AA18, symSize: 0x4 }
  - { offset: 0x2B4A54, size: 0x8, addend: 0x0, symName: __ZN8facebook5react12EventEmitterD1Ev, symObjAddr: 0x45B4, symBinAddr: 0x3AA18, symSize: 0x4 }
  - { offset: 0x2B4A87, size: 0x8, addend: 0x0, symName: __ZN8facebook5react12EventEmitterD0Ev, symObjAddr: 0x45B8, symBinAddr: 0x3AA1C, symSize: 0x14 }
  - { offset: 0x2B4D34, size: 0x8, addend: 0x0, symName: __ZNSt3__120__shared_ptr_emplaceIN8facebook5react11EventTargetENS_9allocatorIS3_EEEC2B8ne200100IJRKNS_10shared_ptrIKNS2_14InstanceHandleEEERKiES5_Li0EEES5_DpOT_, symObjAddr: 0x4684, symBinAddr: 0x3AA90, symSize: 0x4C }
  - { offset: 0x2B4ED7, size: 0x8, addend: 0x0, symName: __ZNSt3__120__shared_ptr_emplaceIN8facebook5react11EventTargetENS_9allocatorIS3_EEED1Ev, symObjAddr: 0x46D0, symBinAddr: 0x3AADC, symSize: 0x14 }
  - { offset: 0x2B4EF9, size: 0x8, addend: 0x0, symName: __ZNSt3__120__shared_ptr_emplaceIN8facebook5react11EventTargetENS_9allocatorIS3_EEED1Ev, symObjAddr: 0x46D0, symBinAddr: 0x3AADC, symSize: 0x14 }
  - { offset: 0x2B4F2F, size: 0x8, addend: 0x0, symName: __ZNSt3__120__shared_ptr_emplaceIN8facebook5react11EventTargetENS_9allocatorIS3_EEED0Ev, symObjAddr: 0x46E4, symBinAddr: 0x3AAF0, symSize: 0x24 }
  - { offset: 0x2B5054, size: 0x8, addend: 0x0, symName: __ZNSt3__120__shared_ptr_emplaceIN8facebook5react11EventTargetENS_9allocatorIS3_EEE16__on_zero_sharedEv, symObjAddr: 0x4708, symBinAddr: 0x3AB14, symSize: 0x28 }
  - { offset: 0x2B515E, size: 0x8, addend: 0x0, symName: __ZNSt3__120__shared_ptr_emplaceIN8facebook5react11EventTargetENS_9allocatorIS3_EEE21__on_zero_shared_weakEv, symObjAddr: 0x4730, symBinAddr: 0x3AB3C, symSize: 0x4 }
  - { offset: 0x2B5190, size: 0x8, addend: 0x0, symName: __ZNSt3__120__shared_ptr_emplaceIN8facebook5react11EventTargetENS_9allocatorIS3_EEE21__on_zero_shared_weakEv, symObjAddr: 0x4730, symBinAddr: 0x3AB3C, symSize: 0x4 }
  - { offset: 0x2B51B1, size: 0x8, addend: 0x0, symName: __ZNSt3__120__shared_ptr_emplaceIN8facebook5react11EventTargetENS_9allocatorIS3_EEE21__on_zero_shared_weakEv, symObjAddr: 0x4730, symBinAddr: 0x3AB3C, symSize: 0x4 }
  - { offset: 0x2B51D3, size: 0x8, addend: 0x0, symName: __ZNSt3__120__shared_ptr_emplaceIN8facebook5react11EventTargetENS_9allocatorIS3_EEE21__on_zero_shared_weakEv, symObjAddr: 0x4730, symBinAddr: 0x3AB3C, symSize: 0x4 }
  - { offset: 0x2B5205, size: 0x8, addend: 0x0, symName: __ZNSt3__120__shared_ptr_emplaceIN8facebook5react11EventTargetENS_9allocatorIS3_EEE21__on_zero_shared_weakEv, symObjAddr: 0x4730, symBinAddr: 0x3AB3C, symSize: 0x4 }
  - { offset: 0x2B5508, size: 0x8, addend: 0x0, symName: __ZNSt3__120__shared_ptr_emplaceIN8facebook5react16ShadowNodeFamilyENS_9allocatorIS3_EEEC2B8ne200100IJRKNS2_24ShadowNodeFamilyFragmentERNS_10shared_ptrIKNS2_20BaseViewEventEmitterEEERKNS_8weak_ptrIKNS2_15EventDispatcherEEERKNS2_27ConcreteComponentDescriptorINS2_22ConcreteViewShadowNodeIXadL_ZNS2_44LegacyViewManagerAndroidInteropComponentNameEEENS2_33LegacyViewManagerInteropViewPropsESC_NS2_9StateDataEEEEEES5_Li0EEES5_DpOT_, symObjAddr: 0x4900, symBinAddr: 0x3AC5C, symSize: 0x4C }
  - { offset: 0x2B5721, size: 0x8, addend: 0x0, symName: __ZNSt3__120__shared_ptr_emplaceIN8facebook5react16ShadowNodeFamilyENS_9allocatorIS3_EEED1Ev, symObjAddr: 0x494C, symBinAddr: 0x3ACA8, symSize: 0x14 }
  - { offset: 0x2B5743, size: 0x8, addend: 0x0, symName: __ZNSt3__120__shared_ptr_emplaceIN8facebook5react16ShadowNodeFamilyENS_9allocatorIS3_EEED1Ev, symObjAddr: 0x494C, symBinAddr: 0x3ACA8, symSize: 0x14 }
  - { offset: 0x2B5779, size: 0x8, addend: 0x0, symName: __ZNSt3__120__shared_ptr_emplaceIN8facebook5react16ShadowNodeFamilyENS_9allocatorIS3_EEED0Ev, symObjAddr: 0x4960, symBinAddr: 0x3ACBC, symSize: 0x24 }
  - { offset: 0x2B5846, size: 0x8, addend: 0x0, symName: __ZNSt3__120__shared_ptr_emplaceIN8facebook5react16ShadowNodeFamilyENS_9allocatorIS3_EEE16__on_zero_sharedEv, symObjAddr: 0x4984, symBinAddr: 0x3ACE0, symSize: 0x8 }
  - { offset: 0x2B586F, size: 0x8, addend: 0x0, symName: __ZNSt3__120__shared_ptr_emplaceIN8facebook5react16ShadowNodeFamilyENS_9allocatorIS3_EEE16__on_zero_sharedEv, symObjAddr: 0x4984, symBinAddr: 0x3ACE0, symSize: 0x8 }
  - { offset: 0x2B588C, size: 0x8, addend: 0x0, symName: __ZNSt3__120__shared_ptr_emplaceIN8facebook5react16ShadowNodeFamilyENS_9allocatorIS3_EEE16__on_zero_sharedEv, symObjAddr: 0x4984, symBinAddr: 0x3ACE0, symSize: 0x8 }
  - { offset: 0x2B58D1, size: 0x8, addend: 0x0, symName: __ZNSt3__120__shared_ptr_emplaceIN8facebook5react16ShadowNodeFamilyENS_9allocatorIS3_EEE21__on_zero_shared_weakEv, symObjAddr: 0x498C, symBinAddr: 0x3ACE8, symSize: 0x4 }
  - { offset: 0x2B5903, size: 0x8, addend: 0x0, symName: __ZNSt3__120__shared_ptr_emplaceIN8facebook5react16ShadowNodeFamilyENS_9allocatorIS3_EEE21__on_zero_shared_weakEv, symObjAddr: 0x498C, symBinAddr: 0x3ACE8, symSize: 0x4 }
  - { offset: 0x2B5924, size: 0x8, addend: 0x0, symName: __ZNSt3__120__shared_ptr_emplaceIN8facebook5react16ShadowNodeFamilyENS_9allocatorIS3_EEE21__on_zero_shared_weakEv, symObjAddr: 0x498C, symBinAddr: 0x3ACE8, symSize: 0x4 }
  - { offset: 0x2B5946, size: 0x8, addend: 0x0, symName: __ZNSt3__120__shared_ptr_emplaceIN8facebook5react16ShadowNodeFamilyENS_9allocatorIS3_EEE21__on_zero_shared_weakEv, symObjAddr: 0x498C, symBinAddr: 0x3ACE8, symSize: 0x4 }
  - { offset: 0x2B5979, size: 0x8, addend: 0x0, symName: __ZNSt3__120__shared_ptr_emplaceIN8facebook5react16ShadowNodeFamilyENS_9allocatorIS3_EEE21__on_zero_shared_weakEv, symObjAddr: 0x498C, symBinAddr: 0x3ACE8, symSize: 0x4 }
  - { offset: 0x2BB4A1, size: 0x8, addend: 0x0, symName: __ZN8facebook5react28componentNameByReactViewNameENSt3__112basic_stringIcNS1_11char_traitsIcEENS1_9allocatorIcEEEE, symObjAddr: 0x0, symBinAddr: 0x3ADF8, symSize: 0x448 }
  - { offset: 0x2BE26B, size: 0x8, addend: 0x0, symName: __ZNK8facebook5react14CullingContext21shouldConsiderCullingEv, symObjAddr: 0x0, symBinAddr: 0x3B240, symSize: 0x24 }
  - { offset: 0x2D9AF5, size: 0x8, addend: 0x0, symName: __ZNK8facebook5react14CullingContext21shouldConsiderCullingEv, symObjAddr: 0x0, symBinAddr: 0x3B240, symSize: 0x24 }
  - { offset: 0x2D9ED6, size: 0x8, addend: 0x0, symName: __ZNK8facebook5react14CullingContext28adjustCullingContextIfNeededERKNS0_18ShadowViewNodePairE, symObjAddr: 0x24, symBinAddr: 0x3B264, symSize: 0x314 }
  - { offset: 0x2DCDCF, size: 0x8, addend: 0x0, symName: __ZN8facebook5react28calculateShadowViewMutationsERKNS0_10ShadowNodeES3_, symObjAddr: 0x0, symBinAddr: 0x3B578, symSize: 0xBCC }
  - { offset: 0x2DCE15, size: 0x8, addend: 0x0, symName: __ZN8facebook5reactL18EmptyLayoutMetricsE, symObjAddr: 0x9650, symBinAddr: 0xAB378, symSize: 0x0 }
  - { offset: 0x2DD5C1, size: 0x8, addend: 0x0, symName: __ZN8facebook5react28calculateShadowViewMutationsERKNS0_10ShadowNodeES3_, symObjAddr: 0x0, symBinAddr: 0x3B578, symSize: 0xBCC }
  - { offset: 0x2E045C, size: 0x8, addend: 0x0, symName: __ZN8facebook5reactL28calculateShadowViewMutationsERNSt3__15dequeINS0_18ShadowViewNodePairENS1_9allocatorIS3_EEEERNS1_6vectorINS0_18ShadowViewMutationENS4_IS9_EEEEiONS8_IPS3_NS4_ISD_EEEESG_RKNS0_14CullingContextESJ_, symObjAddr: 0xDA8, symBinAddr: 0x3C2E8, symSize: 0x2D80 }
  - { offset: 0x2EB338, size: 0x8, addend: 0x0, symName: __ZN8facebook5reactL17updateMatchedPairERNS0_35OrderedMutationInstructionContainerEbbiRKNS0_18ShadowViewNodePairES5_, symObjAddr: 0x4090, symBinAddr: 0x3F418, symSize: 0x1310 }
  - { offset: 0x2EF019, size: 0x8, addend: 0x0, symName: __ZN8facebook5reactL25updateMatchedPairSubtreesERNSt3__15dequeINS0_18ShadowViewNodePairENS1_9allocatorIS3_EEEERNS0_35OrderedMutationInstructionContainerER7TinyMapIiPS3_ERNS1_6vectorISB_NS4_ISB_EEEEiRKS3_SJ_RKNS0_14CullingContextESM_, symObjAddr: 0x53A0, symBinAddr: 0x40728, symSize: 0x5C8 }
  - { offset: 0x2F047E, size: 0x8, addend: 0x0, symName: __ZN8facebook5reactL37calculateShadowViewMutationsFlattenerERNSt3__15dequeINS0_18ShadowViewNodePairENS1_9allocatorIS3_EEEENS0_12ReparentModeERNS0_35OrderedMutationInstructionContainerEiR7TinyMapIiPS3_ERKS3_iPSD_SH_RKNS0_14CullingContextESK_, symObjAddr: 0x5B18, symBinAddr: 0x40E58, symSize: 0x2F10 }
  - { offset: 0x304074, size: 0x8, addend: 0x0, symName: __ZNSt3__119__allocate_at_leastB8ne200100INS_9allocatorIN8facebook5react18ShadowViewMutationEEEEENS_19__allocation_resultINS_16allocator_traitsIT_E7pointerEEERS8_m, symObjAddr: 0x3BB0, symBinAddr: 0x3F068, symSize: 0x44 }
  - { offset: 0x30412C, size: 0x8, addend: 0x0, symName: __ZNSt3__134__uninitialized_allocator_relocateB8ne200100INS_9allocatorIN8facebook5react18ShadowViewMutationEEEPS4_EEvRT_T0_S9_S9_, symObjAddr: 0x3C1C, symBinAddr: 0x3F0AC, symSize: 0x6C }
  - { offset: 0x304186, size: 0x8, addend: 0x0, symName: __ZNSt3__134__uninitialized_allocator_relocateB8ne200100INS_9allocatorIN8facebook5react18ShadowViewMutationEEEPS4_EEvRT_T0_S9_S9_, symObjAddr: 0x3C1C, symBinAddr: 0x3F0AC, symSize: 0x6C }
  - { offset: 0x3042CA, size: 0x8, addend: 0x0, symName: __ZNSt3__112construct_atB8ne200100IN8facebook5react18ShadowViewMutationEJS3_EPS3_EEPT_S6_DpOT0_, symObjAddr: 0x3C88, symBinAddr: 0x3F118, symSize: 0xFC }
  - { offset: 0x304307, size: 0x8, addend: 0x0, symName: __ZNSt3__112construct_atB8ne200100IN8facebook5react18ShadowViewMutationEJS3_EPS3_EEPT_S6_DpOT0_, symObjAddr: 0x3C88, symBinAddr: 0x3F118, symSize: 0xFC }
  - { offset: 0x304329, size: 0x8, addend: 0x0, symName: __ZNSt3__112construct_atB8ne200100IN8facebook5react18ShadowViewMutationEJS3_EPS3_EEPT_S6_DpOT0_, symObjAddr: 0x3C88, symBinAddr: 0x3F118, symSize: 0xFC }
  - { offset: 0x3051A4, size: 0x8, addend: 0x0, symName: __ZNSt3__19remove_ifB8ne200100INS_11__wrap_iterIPNS_4pairIiPKN8facebook5react18ShadowViewNodePairEEEEEZN7TinyMapIiS7_E11cleanVectorEbEUlRKT_E_EESD_SD_SD_T0_, symObjAddr: 0x8A28, symBinAddr: 0x43D68, symSize: 0x64 }
  - { offset: 0x3053B9, size: 0x8, addend: 0x0, symName: __ZNSt3__112__destroy_atB8ne200100IN8facebook5react18ShadowViewMutationELi0EEEvPT_, symObjAddr: 0x3D84, symBinAddr: 0x3F214, symSize: 0x48 }
  - { offset: 0x30585D, size: 0x8, addend: 0x0, symName: __ZN8facebook5reactL37calculateShadowViewMutationsFlattenerERNSt3__15dequeINS0_18ShadowViewNodePairENS1_9allocatorIS3_EEEENS0_12ReparentModeERNS0_35OrderedMutationInstructionContainerEiR7TinyMapIiPS3_ERKS3_iPSD_SH_RKNS0_14CullingContextESK_, symObjAddr: 0x5B18, symBinAddr: 0x40E58, symSize: 0x2F10 }
  - { offset: 0x305B0C, size: 0x8, addend: 0x0, symName: __ZNSt3__16vectorIN8facebook5react18ShadowViewMutationENS_9allocatorIS3_EEE16__destroy_vectorclB8ne200100Ev, symObjAddr: 0x8C0C, symBinAddr: 0x43DCC, symSize: 0x70 }
  - { offset: 0x308242, size: 0x8, addend: 0x0, symName: __ZNSt3__16vectorIN8facebook5react18ShadowViewMutationENS_9allocatorIS3_EEE7reserveEm, symObjAddr: 0xBCC, symBinAddr: 0x3C144, symSize: 0xD8 }
  - { offset: 0x308462, size: 0x8, addend: 0x0, symName: __ZNSt3__16vectorIN8facebook5react18ShadowViewMutationENS_9allocatorIS3_EEE9push_backB8ne200100EOS3_, symObjAddr: 0xCA4, symBinAddr: 0x3C21C, symSize: 0x44 }
  - { offset: 0x308574, size: 0x8, addend: 0x0, symName: __ZNSt3__15dequeIN8facebook5react18ShadowViewNodePairENS_9allocatorIS3_EEED2B8ne200100Ev, symObjAddr: 0x8D44, symBinAddr: 0x43E3C, symSize: 0x44 }
  - { offset: 0x3086D7, size: 0x8, addend: 0x0, symName: __ZN8facebook5react18ShadowViewMutationD1Ev, symObjAddr: 0xCE8, symBinAddr: 0x3C260, symSize: 0x50 }
  - { offset: 0x30887B, size: 0x8, addend: 0x0, symName: __ZN8facebook5react10ShadowViewD1Ev, symObjAddr: 0xD38, symBinAddr: 0x3C2B0, symSize: 0x38 }
  - { offset: 0x3089B9, size: 0x8, addend: 0x0, symName: __ZNSt3__16vectorIN8facebook5react18ShadowViewMutationENS_9allocatorIS3_EEE16__destroy_vectorclB8ne200100Ev, symObjAddr: 0x8C0C, symBinAddr: 0x43DCC, symSize: 0x70 }
  - { offset: 0x308BFC, size: 0x8, addend: 0x0, symName: __ZNSt3__114__split_bufferIN8facebook5react18ShadowViewMutationERNS_9allocatorIS3_EEED2Ev, symObjAddr: 0x3DCC, symBinAddr: 0x3F25C, symSize: 0x4C }
  - { offset: 0x308E21, size: 0x8, addend: 0x0, symName: __ZNSt3__16vectorIN8facebook5react18ShadowViewMutationENS_9allocatorIS3_EEE24__emplace_back_slow_pathIJS3_EEEPS3_DpOT_, symObjAddr: 0x3E18, symBinAddr: 0x3F2A8, symSize: 0x128 }
  - { offset: 0x309F43, size: 0x8, addend: 0x0, symName: __ZNK8facebook5react14CullingContexteqERKS1_, symObjAddr: 0x4048, symBinAddr: 0x3F3D0, symSize: 0x48 }
  - { offset: 0x309F7B, size: 0x8, addend: 0x0, symName: __ZNK8facebook5react14CullingContexteqERKS1_, symObjAddr: 0x4048, symBinAddr: 0x3F3D0, symSize: 0x48 }
  - { offset: 0x309F9D, size: 0x8, addend: 0x0, symName: __ZNK8facebook5react14CullingContexteqERKS1_, symObjAddr: 0x4048, symBinAddr: 0x3F3D0, symSize: 0x48 }
  - { offset: 0x309FB1, size: 0x8, addend: 0x0, symName: __ZNK8facebook5react14CullingContexteqERKS1_, symObjAddr: 0x4048, symBinAddr: 0x3F3D0, symSize: 0x48 }
  - { offset: 0x309FC6, size: 0x8, addend: 0x0, symName: __ZNK8facebook5react14CullingContexteqERKS1_, symObjAddr: 0x4048, symBinAddr: 0x3F3D0, symSize: 0x48 }
  - { offset: 0x309FDB, size: 0x8, addend: 0x0, symName: __ZNK8facebook5react14CullingContexteqERKS1_, symObjAddr: 0x4048, symBinAddr: 0x3F3D0, symSize: 0x48 }
  - { offset: 0x30A069, size: 0x8, addend: 0x0, symName: __ZNSt3__16vectorINS_4pairIiPN8facebook5react18ShadowViewNodePairEEENS_9allocatorIS6_EEE9push_backB8ne200100ERKS6_, symObjAddr: 0x59FC, symBinAddr: 0x40D84, symSize: 0xD4 }
  - { offset: 0x30A69E, size: 0x8, addend: 0x0, symName: __ZN8facebook5react35OrderedMutationInstructionContainerD1Ev, symObjAddr: 0x5968, symBinAddr: 0x40CF0, symSize: 0x94 }
  - { offset: 0x30B87D, size: 0x8, addend: 0x0, symName: __ZNSt3__15dequeIN8facebook5react18ShadowViewNodePairENS_9allocatorIS3_EEE5clearEv, symObjAddr: 0x8D88, symBinAddr: 0x43E80, symSize: 0x11C }
  - { offset: 0x30BBD1, size: 0x8, addend: 0x0, symName: __ZNSt3__114__split_bufferIPN8facebook5react18ShadowViewNodePairENS_9allocatorIS4_EEED2Ev, symObjAddr: 0x8EA4, symBinAddr: 0x43F9C, symSize: 0x4C }
  - { offset: 0x30E5C5, size: 0x8, addend: 0x0, symName: __ZN8facebook5react3dom13getParentNodeERKNSt3__110shared_ptrIKNS0_14RootShadowNodeEEERKNS0_10ShadowNodeE, symObjAddr: 0x0, symBinAddr: 0x43FE8, symSize: 0x134 }
  - { offset: 0x30E79B, size: 0x8, addend: 0x0, symName: __ZN8facebook5react3dom12_GLOBAL__N_123getShadowNodeInRevisionERKNSt3__110shared_ptrIKNS0_14RootShadowNodeEEERKNS0_10ShadowNodeE, symObjAddr: 0x1EC, symBinAddr: 0x441D4, symSize: 0x100 }
  - { offset: 0x30EC57, size: 0x8, addend: 0x0, symName: __ZN8facebook5react3dom12_GLOBAL__N_126getTextContentInShadowNodeERKNS0_10ShadowNodeERNSt3__112basic_stringIcNS6_11char_traitsIcEENS6_9allocatorIcEEEE, symObjAddr: 0x5D0, symBinAddr: 0x445B8, symSize: 0x90 }
  - { offset: 0x30EDF9, size: 0x8, addend: 0x0, symName: __ZN8facebook5react3dom12_GLOBAL__N_124getLayoutMetricsFromRootERKNS0_10ShadowNodeES5_NS0_20LayoutableShadowNode22LayoutInspectingPolicyE, symObjAddr: 0x768, symBinAddr: 0x44750, symSize: 0xA4 }
  - { offset: 0x30EF23, size: 0x8, addend: 0x0, symName: __ZN8facebook5react3dom13getParentNodeERKNSt3__110shared_ptrIKNS0_14RootShadowNodeEEERKNS0_10ShadowNodeE, symObjAddr: 0x0, symBinAddr: 0x43FE8, symSize: 0x134 }
  - { offset: 0x30F4BC, size: 0x8, addend: 0x0, symName: __ZN8facebook5react3dom13getChildNodesERKNSt3__110shared_ptrIKNS0_14RootShadowNodeEEERKNS0_10ShadowNodeE, symObjAddr: 0x134, symBinAddr: 0x4411C, symSize: 0xB8 }
  - { offset: 0x30F6E8, size: 0x8, addend: 0x0, symName: __ZN8facebook5react3dom11isConnectedERKNSt3__110shared_ptrIKNS0_14RootShadowNodeEEERKNS0_10ShadowNodeE, symObjAddr: 0x2EC, symBinAddr: 0x442D4, symSize: 0x68 }
  - { offset: 0x30F844, size: 0x8, addend: 0x0, symName: __ZN8facebook5react3dom23compareDocumentPositionERKNSt3__110shared_ptrIKNS0_14RootShadowNodeEEERKNS0_10ShadowNodeESB_, symObjAddr: 0x354, symBinAddr: 0x4433C, symSize: 0x1D0 }
  - { offset: 0x30FDCC, size: 0x8, addend: 0x0, symName: __ZN8facebook5react3dom14getTextContentERKNSt3__110shared_ptrIKNS0_14RootShadowNodeEEERKNS0_10ShadowNodeE, symObjAddr: 0x524, symBinAddr: 0x4450C, symSize: 0xAC }
  - { offset: 0x31008F, size: 0x8, addend: 0x0, symName: __ZN8facebook5react3dom21getBoundingClientRectERKNSt3__110shared_ptrIKNS0_14RootShadowNodeEEERKNS0_10ShadowNodeEb, symObjAddr: 0x660, symBinAddr: 0x44648, symSize: 0x108 }
  - { offset: 0x3102B9, size: 0x8, addend: 0x0, symName: __ZN8facebook5react3dom9getOffsetERKNSt3__110shared_ptrIKNS0_14RootShadowNodeEEERKNS0_10ShadowNodeE, symObjAddr: 0x95C, symBinAddr: 0x447F4, symSize: 0x2F8 }
  - { offset: 0x310D24, size: 0x8, addend: 0x0, symName: __ZN8facebook5react3dom17getScrollPositionERKNSt3__110shared_ptrIKNS0_14RootShadowNodeEEERKNS0_10ShadowNodeE, symObjAddr: 0xC54, symBinAddr: 0x44AEC, symSize: 0x11C }
  - { offset: 0x310F5A, size: 0x8, addend: 0x0, symName: __ZN8facebook5react3dom13getScrollSizeERKNSt3__110shared_ptrIKNS0_14RootShadowNodeEEERKNS0_10ShadowNodeE, symObjAddr: 0xD70, symBinAddr: 0x44C08, symSize: 0x1B4 }
  - { offset: 0x31128C, size: 0x8, addend: 0x0, symName: __ZN8facebook5react3dom12getInnerSizeERKNSt3__110shared_ptrIKNS0_14RootShadowNodeEEERKNS0_10ShadowNodeE, symObjAddr: 0xF24, symBinAddr: 0x44DBC, symSize: 0xE4 }
  - { offset: 0x3114BD, size: 0x8, addend: 0x0, symName: __ZN8facebook5react3dom14getBorderWidthERKNSt3__110shared_ptrIKNS0_14RootShadowNodeEEERKNS0_10ShadowNodeE, symObjAddr: 0x1008, symBinAddr: 0x44EA0, symSize: 0xF0 }
  - { offset: 0x3116C2, size: 0x8, addend: 0x0, symName: __ZN8facebook5react3dom10getTagNameERKNS0_10ShadowNodeE, symObjAddr: 0x10F8, symBinAddr: 0x44F90, symSize: 0x1D0 }
  - { offset: 0x311CB2, size: 0x8, addend: 0x0, symName: __ZN8facebook5react3dom7measureERKNSt3__110shared_ptrIKNS0_14RootShadowNodeEEERKNS0_10ShadowNodeE, symObjAddr: 0x12C8, symBinAddr: 0x45160, symSize: 0x108 }
  - { offset: 0x311EE7, size: 0x8, addend: 0x0, symName: __ZN8facebook5react3dom15measureInWindowERKNSt3__110shared_ptrIKNS0_14RootShadowNodeEEERKNS0_10ShadowNodeE, symObjAddr: 0x13D0, symBinAddr: 0x45268, symSize: 0xF0 }
  - { offset: 0x3120FB, size: 0x8, addend: 0x0, symName: __ZN8facebook5react3dom13measureLayoutERKNSt3__110shared_ptrIKNS0_14RootShadowNodeEEERKNS0_10ShadowNodeESB_, symObjAddr: 0x14C0, symBinAddr: 0x45358, symSize: 0x148 }
  - { offset: 0x31281D, size: 0x8, addend: 0x0, symName: __ZN8facebook5reactL18EmptyLayoutMetricsE, symObjAddr: 0x1B68, symBinAddr: 0xAB490, symSize: 0x0 }
  - { offset: 0x330523, size: 0x8, addend: 0x0, symName: __ZNSt3__16vectorINS_10shared_ptrIKN8facebook5react10ShadowNodeEEENS_9allocatorIS6_EEE16__init_with_sizeB8ne200100IPS6_SB_EEvT_T0_m, symObjAddr: 0x1690, symBinAddr: 0x454A0, symSize: 0x98 }
  - { offset: 0x3318F7, size: 0x8, addend: 0x0, symName: __ZNSt3__16vectorINS_10shared_ptrIKN8facebook5react10ShadowNodeEEENS_9allocatorIS6_EEE11__vallocateB8ne200100Em, symObjAddr: 0x1728, symBinAddr: 0x45538, symSize: 0x38 }
  - { offset: 0x333DB1, size: 0x8, addend: 0x0, symName: __ZN8facebook5react19DynamicEventPayloadC2EON5folly7dynamicE, symObjAddr: 0x0, symBinAddr: 0x45570, symSize: 0x30 }
  - { offset: 0x3423FA, size: 0x8, addend: 0x0, symName: __ZN8facebook5react19DynamicEventPayloadC2EON5folly7dynamicE, symObjAddr: 0x0, symBinAddr: 0x45570, symSize: 0x30 }
  - { offset: 0x342452, size: 0x8, addend: 0x0, symName: __ZN8facebook5react19DynamicEventPayloadC1EON5folly7dynamicE, symObjAddr: 0x30, symBinAddr: 0x455A0, symSize: 0x30 }
  - { offset: 0x3424B1, size: 0x8, addend: 0x0, symName: __ZNK8facebook5react19DynamicEventPayload10asJSIValueERNS_3jsi7RuntimeE, symObjAddr: 0x60, symBinAddr: 0x455D0, symSize: 0x10 }
  - { offset: 0x342506, size: 0x8, addend: 0x0, symName: __ZNK8facebook5react19DynamicEventPayload7getTypeEv, symObjAddr: 0x70, symBinAddr: 0x455E0, symSize: 0x8 }
  - { offset: 0x342895, size: 0x8, addend: 0x0, symName: __ZNK8facebook5react19DynamicEventPayload12extractValueERKNSt3__16vectorINS2_12basic_stringIcNS2_11char_traitsIcEENS2_9allocatorIcEEEENS7_IS9_EEEE, symObjAddr: 0x78, symBinAddr: 0x455E8, symSize: 0x154 }
  - { offset: 0x343176, size: 0x8, addend: 0x0, symName: __ZN8facebook5react19DynamicEventPayloadD1Ev, symObjAddr: 0x1CC, symBinAddr: 0x4573C, symSize: 0x30 }
  - { offset: 0x343209, size: 0x8, addend: 0x0, symName: __ZN8facebook5react19DynamicEventPayloadD0Ev, symObjAddr: 0x1FC, symBinAddr: 0x4576C, symSize: 0x30 }
  - { offset: 0x347AED, size: 0x8, addend: 0x0, symName: __ZN8facebook5react17mergeDynamicPropsERKN5folly7dynamicES4_NS0_17NullValueStrategyE, symObjAddr: 0x0, symBinAddr: 0x4579C, symSize: 0x148 }
  - { offset: 0x34FF5A, size: 0x8, addend: 0x0, symName: __ZN5folly6detail22callWithKeyAndPairArgsINS_7dynamicES2_ZNS_3f146detail11F14BasicMapIS2_S2_NS0_13DynamicHasherENS0_15DynamicKeyEqualENSt3__19allocatorINS8_4pairIKS2_S2_EEEEE7emplaceIJRSB_DnEEENSA_INS8_19__hash_map_iteratorINS8_15__hash_iteratorIPNS8_11__hash_nodeINS8_17__hash_value_typeIS2_S2_EEPvEEEEEEbEEDpOT_EUlRT_DpOT0_E_S2_SG_ODnLi0EEEDaOT1_RKT2_ONS8_5tupleIJT3_EEEONS18_IJT4_EEE, symObjAddr: 0x650, symBinAddr: 0x45BC0, symSize: 0x58 }
  - { offset: 0x35147D, size: 0x8, addend: 0x0, symName: __ZN8facebook5react17mergeDynamicPropsERKN5folly7dynamicES4_NS0_17NullValueStrategyE, symObjAddr: 0x0, symBinAddr: 0x4579C, symSize: 0x148 }
  - { offset: 0x351A4F, size: 0x8, addend: 0x0, symName: __ZN8facebook5react16diffDynamicPropsERKN5folly7dynamicES4_, symObjAddr: 0x1DC, symBinAddr: 0x45978, symSize: 0x1D8 }
  - { offset: 0x3527EF, size: 0x8, addend: 0x0, symName: __ZNK5folly7dynamic4findIRKS0_EENSt3__19enable_ifIXaantsr3std14is_convertibleIT_NS_5RangeIPKcEEEE5valuesr3std14is_convertibleIS6_S0_EE5valueENS0_19const_item_iteratorEE4typeEOS6_, symObjAddr: 0x148, symBinAddr: 0x458E4, symSize: 0x24 }
  - { offset: 0x3528CF, size: 0x8, addend: 0x0, symName: __ZNR5folly7dynamicixIRKS0_EENSt3__19enable_ifIXaantsr3std14is_convertibleIT_NS_5RangeIPKcEEEE5valuesr3std14is_convertibleIS6_S0_EE5valueERS0_E4typeEOS6_, symObjAddr: 0x16C, symBinAddr: 0x45908, symSize: 0x70 }
  - { offset: 0x3528E3, size: 0x8, addend: 0x0, symName: __ZNR5folly7dynamicixIRKS0_EENSt3__19enable_ifIXaantsr3std14is_convertibleIT_NS_5RangeIPKcEEEE5valuesr3std14is_convertibleIS6_S0_EE5valueERS0_E4typeEOS6_, symObjAddr: 0x16C, symBinAddr: 0x45908, symSize: 0x70 }
  - { offset: 0x352A98, size: 0x8, addend: 0x0, symName: __ZN8facebook5react16diffDynamicPropsERKN5folly7dynamicES4_, symObjAddr: 0x1DC, symBinAddr: 0x45978, symSize: 0x1D8 }
  - { offset: 0x352AFE, size: 0x8, addend: 0x0, symName: __ZNKSt3__112__hash_tableINS_17__hash_value_typeIN5folly7dynamicES3_EENS_22__unordered_map_hasherIS3_S4_NS2_6detail13DynamicHasherENS6_15DynamicKeyEqualELb1EEENS_21__unordered_map_equalIS3_S4_S8_S7_Lb1EEENS_9allocatorIS4_EEE4findIS3_EENS_21__hash_const_iteratorIPNS_11__hash_nodeIS4_PvEEEERKT_, symObjAddr: 0xD08, symBinAddr: 0x4604C, symSize: 0xF8 }
  - { offset: 0x352D21, size: 0x8, addend: 0x0, symName: __ZNK5folly7dynamic4findIRKS0_EENSt3__19enable_ifIXaantsr3std14is_convertibleIT_NS_5RangeIPKcEEEE5valuesr3std14is_convertibleIS6_S0_EE5valueENS0_19const_item_iteratorEE4typeEOS6_.cold.1, symObjAddr: 0xE00, symBinAddr: 0xA6560, symSize: 0x1C }
  - { offset: 0x352ED5, size: 0x8, addend: 0x0, symName: __ZNSt3__112__hash_tableINS_17__hash_value_typeIN5folly7dynamicES3_EENS_22__unordered_map_hasherIS3_S4_NS2_6detail13DynamicHasherENS6_15DynamicKeyEqualELb1EEENS_21__unordered_map_equalIS3_S4_S8_S7_Lb1EEENS_9allocatorIS4_EEEC2EOSE_, symObjAddr: 0x3B4, symBinAddr: 0x45B50, symSize: 0x70 }
  - { offset: 0x352F3A, size: 0x8, addend: 0x0, symName: __ZNSt3__112__hash_tableINS_17__hash_value_typeIN5folly7dynamicES3_EENS_22__unordered_map_hasherIS3_S4_NS2_6detail13DynamicHasherENS6_15DynamicKeyEqualELb1EEENS_21__unordered_map_equalIS3_S4_S8_S7_Lb1EEENS_9allocatorIS4_EEEC2EOSE_, symObjAddr: 0x3B4, symBinAddr: 0x45B50, symSize: 0x70 }
  - { offset: 0x3536F8, size: 0x8, addend: 0x0, symName: __ZNSt3__112__hash_tableINS_17__hash_value_typeIN5folly7dynamicES3_EENS_22__unordered_map_hasherIS3_S4_NS2_6detail13DynamicHasherENS6_15DynamicKeyEqualELb1EEENS_21__unordered_map_equalIS3_S4_S8_S7_Lb1EEENS_9allocatorIS4_EEE4findIS3_EENS_15__hash_iteratorIPNS_11__hash_nodeIS4_PvEEEERKT_, symObjAddr: 0x6A8, symBinAddr: 0x45C18, symSize: 0xF8 }
  - { offset: 0x35391B, size: 0x8, addend: 0x0, symName: __ZNSt3__112__hash_tableINS_17__hash_value_typeIN5folly7dynamicES3_EENS_22__unordered_map_hasherIS3_S4_NS2_6detail13DynamicHasherENS6_15DynamicKeyEqualELb1EEENS_21__unordered_map_equalIS3_S4_S8_S7_Lb1EEENS_9allocatorIS4_EEE25__emplace_unique_key_argsIS3_JRKS3_DnEEENS_4pairINS_15__hash_iteratorIPNS_11__hash_nodeIS4_PvEEEEbEERKT_DpOT0_, symObjAddr: 0x7A0, symBinAddr: 0x45D10, symSize: 0x264 }
  - { offset: 0x354014, size: 0x8, addend: 0x0, symName: __ZNSt3__112__hash_tableINS_17__hash_value_typeIN5folly7dynamicES3_EENS_22__unordered_map_hasherIS3_S4_NS2_6detail13DynamicHasherENS6_15DynamicKeyEqualELb1EEENS_21__unordered_map_equalIS3_S4_S8_S7_Lb1EEENS_9allocatorIS4_EEE21__construct_node_hashIRKS3_JDnEEENS_10unique_ptrINS_11__hash_nodeIS4_PvEENS_22__hash_node_destructorINSC_ISL_EEEEEEmOT_DpOT0_, symObjAddr: 0xA04, symBinAddr: 0x45F74, symSize: 0x8C }
  - { offset: 0x354499, size: 0x8, addend: 0x0, symName: __ZNSt3__122__hash_node_destructorINS_9allocatorINS_11__hash_nodeINS_17__hash_value_typeIN5folly7dynamicES5_EEPvEEEEEclB8ne200100EPS8_, symObjAddr: 0xCBC, symBinAddr: 0x46000, symSize: 0x4C }
  - { offset: 0x354B60, size: 0x8, addend: 0x0, symName: __ZNSt3__122__hash_node_destructorINS_9allocatorINS_11__hash_nodeINS_17__hash_value_typeIN5folly7dynamicES5_EEPvEEEEEclB8ne200100EPS8_, symObjAddr: 0xCBC, symBinAddr: 0x46000, symSize: 0x4C }
  - { offset: 0x368389, size: 0x8, addend: 0x0, symName: __ZNK8facebook5react9EventBeat6induceEv, symObjAddr: 0xC0, symBinAddr: 0x46204, symSize: 0x17C }
  - { offset: 0x368E24, size: 0x8, addend: 0x0, symName: __ZN8facebook5react9EventBeatC2ENSt3__110shared_ptrINS1_8OwnerBoxEEERNS0_16RuntimeSchedulerE, symObjAddr: 0x0, symBinAddr: 0x46144, symSize: 0x30 }
  - { offset: 0x36919E, size: 0x8, addend: 0x0, symName: __ZN8facebook5react9EventBeatC1ENSt3__110shared_ptrINS1_8OwnerBoxEEERNS0_16RuntimeSchedulerE, symObjAddr: 0x30, symBinAddr: 0x46174, symSize: 0x30 }
  - { offset: 0x3691E8, size: 0x8, addend: 0x0, symName: __ZN8facebook5react9EventBeatC1ENSt3__110shared_ptrINS1_8OwnerBoxEEERNS0_16RuntimeSchedulerE, symObjAddr: 0x30, symBinAddr: 0x46174, symSize: 0x30 }
  - { offset: 0x369571, size: 0x8, addend: 0x0, symName: __ZNK8facebook5react9EventBeat7requestEv, symObjAddr: 0x60, symBinAddr: 0x461A4, symSize: 0x10 }
  - { offset: 0x36960E, size: 0x8, addend: 0x0, symName: __ZNK8facebook5react9EventBeat18requestSynchronousEv, symObjAddr: 0x70, symBinAddr: 0x461B4, symSize: 0x18 }
  - { offset: 0x3696E4, size: 0x8, addend: 0x0, symName: __ZN8facebook5react9EventBeat15setBeatCallbackENSt3__18functionIFvRNS_3jsi7RuntimeEEEE, symObjAddr: 0x88, symBinAddr: 0x461CC, symSize: 0x1C }
  - { offset: 0x3697C7, size: 0x8, addend: 0x0, symName: __ZN8facebook5react9EventBeat26unstable_setInduceCallbackENSt3__18functionIFvvEEE, symObjAddr: 0xA4, symBinAddr: 0x461E8, symSize: 0x1C }
  - { offset: 0x369DB7, size: 0x8, addend: 0x0, symName: __ZN8facebook5react9EventBeatD1Ev, symObjAddr: 0x23C, symBinAddr: 0x46380, symSize: 0x4 }
  - { offset: 0x369DDA, size: 0x8, addend: 0x0, symName: __ZN8facebook5react9EventBeatD1Ev, symObjAddr: 0x23C, symBinAddr: 0x46380, symSize: 0x4 }
  - { offset: 0x369DED, size: 0x8, addend: 0x0, symName: __ZN8facebook5react9EventBeatD2Ev, symObjAddr: 0x2AC, symBinAddr: 0x46398, symSize: 0x88 }
  - { offset: 0x369F61, size: 0x8, addend: 0x0, symName: __ZN8facebook5react9EventBeatD0Ev, symObjAddr: 0x240, symBinAddr: 0x46384, symSize: 0x14 }
  - { offset: 0x36A100, size: 0x8, addend: 0x0, symName: '__ZNSt3__110__function6__funcIZNK8facebook5react9EventBeat6induceEvE3$_0NS_9allocatorIS5_EEFvRNS2_3jsi7RuntimeEEED1Ev', symObjAddr: 0x45C, symBinAddr: 0x46420, symSize: 0x30 }
  - { offset: 0x36A1FE, size: 0x8, addend: 0x0, symName: '__ZNSt3__110__function6__funcIZNK8facebook5react9EventBeat6induceEvE3$_0NS_9allocatorIS5_EEFvRNS2_3jsi7RuntimeEEED0Ev', symObjAddr: 0x48C, symBinAddr: 0x46450, symSize: 0x30 }
  - { offset: 0x36A412, size: 0x8, addend: 0x0, symName: '__ZNKSt3__110__function6__funcIZNK8facebook5react9EventBeat6induceEvE3$_0NS_9allocatorIS5_EEFvRNS2_3jsi7RuntimeEEE7__cloneEv', symObjAddr: 0x4BC, symBinAddr: 0x46480, symSize: 0x58 }
  - { offset: 0x36A71B, size: 0x8, addend: 0x0, symName: '__ZNKSt3__110__function6__funcIZNK8facebook5react9EventBeat6induceEvE3$_0NS_9allocatorIS5_EEFvRNS2_3jsi7RuntimeEEE7__cloneEPNS0_6__baseISB_EE', symObjAddr: 0x514, symBinAddr: 0x464D8, symSize: 0x38 }
  - { offset: 0x36A751, size: 0x8, addend: 0x0, symName: '__ZNKSt3__110__function6__funcIZNK8facebook5react9EventBeat6induceEvE3$_0NS_9allocatorIS5_EEFvRNS2_3jsi7RuntimeEEE7__cloneEPNS0_6__baseISB_EE', symObjAddr: 0x514, symBinAddr: 0x464D8, symSize: 0x38 }
  - { offset: 0x36A77F, size: 0x8, addend: 0x0, symName: '__ZNKSt3__110__function6__funcIZNK8facebook5react9EventBeat6induceEvE3$_0NS_9allocatorIS5_EEFvRNS2_3jsi7RuntimeEEE7__cloneEPNS0_6__baseISB_EE', symObjAddr: 0x514, symBinAddr: 0x464D8, symSize: 0x38 }
  - { offset: 0x36A91A, size: 0x8, addend: 0x0, symName: '__ZNSt3__110__function6__funcIZNK8facebook5react9EventBeat6induceEvE3$_0NS_9allocatorIS5_EEFvRNS2_3jsi7RuntimeEEE7destroyEv', symObjAddr: 0x54C, symBinAddr: 0x46510, symSize: 0x8 }
  - { offset: 0x36A943, size: 0x8, addend: 0x0, symName: '__ZNSt3__110__function6__funcIZNK8facebook5react9EventBeat6induceEvE3$_0NS_9allocatorIS5_EEFvRNS2_3jsi7RuntimeEEE7destroyEv', symObjAddr: 0x54C, symBinAddr: 0x46510, symSize: 0x8 }
  - { offset: 0x36A961, size: 0x8, addend: 0x0, symName: '__ZNSt3__110__function6__funcIZNK8facebook5react9EventBeat6induceEvE3$_0NS_9allocatorIS5_EEFvRNS2_3jsi7RuntimeEEE7destroyEv', symObjAddr: 0x54C, symBinAddr: 0x46510, symSize: 0x8 }
  - { offset: 0x36A97E, size: 0x8, addend: 0x0, symName: '__ZNSt3__110__function6__funcIZNK8facebook5react9EventBeat6induceEvE3$_0NS_9allocatorIS5_EEFvRNS2_3jsi7RuntimeEEE7destroyEv', symObjAddr: 0x54C, symBinAddr: 0x46510, symSize: 0x8 }
  - { offset: 0x36A9EF, size: 0x8, addend: 0x0, symName: '__ZNSt3__110__function6__funcIZNK8facebook5react9EventBeat6induceEvE3$_0NS_9allocatorIS5_EEFvRNS2_3jsi7RuntimeEEE18destroy_deallocateEv', symObjAddr: 0x554, symBinAddr: 0x46518, symSize: 0x28 }
  - { offset: 0x36ACB6, size: 0x8, addend: 0x0, symName: '__ZNSt3__110__function6__funcIZNK8facebook5react9EventBeat6induceEvE3$_0NS_9allocatorIS5_EEFvRNS2_3jsi7RuntimeEEEclESA_', symObjAddr: 0x57C, symBinAddr: 0x46540, symSize: 0xD0 }
  - { offset: 0x36AFB0, size: 0x8, addend: 0x0, symName: '__ZNKSt3__110__function6__funcIZNK8facebook5react9EventBeat6induceEvE3$_0NS_9allocatorIS5_EEFvRNS2_3jsi7RuntimeEEE6targetERKSt9type_info', symObjAddr: 0x64C, symBinAddr: 0x46610, symSize: 0x3C }
  - { offset: 0x36B062, size: 0x8, addend: 0x0, symName: '__ZNKSt3__110__function6__funcIZNK8facebook5react9EventBeat6induceEvE3$_0NS_9allocatorIS5_EEFvRNS2_3jsi7RuntimeEEE11target_typeEv', symObjAddr: 0x688, symBinAddr: 0x4664C, symSize: 0xC }
  - { offset: 0x37510D, size: 0x8, addend: 0x0, symName: __ZNSt3__112__destroy_atB8ne200100IN8facebook5react8RawEventELi0EEEvPT_, symObjAddr: 0x910, symBinAddr: 0x46DD4, symSize: 0x50 }
  - { offset: 0x376E7E, size: 0x8, addend: 0x0, symName: __ZN8facebook5react15EventDispatcherC2ERKNS0_19EventQueueProcessorENSt3__110unique_ptrINS0_9EventBeatENS5_14default_deleteIS7_EEEENS5_8functionIFvRKNS0_11StateUpdateEEEENS5_8weak_ptrINS0_11EventLoggerEEE, symObjAddr: 0x0, symBinAddr: 0x46658, symSize: 0x28C }
  - { offset: 0x377890, size: 0x8, addend: 0x0, symName: __ZNSt3__110__function12__value_funcIFvRKN8facebook5react11StateUpdateEEEC2B8ne200100EOS8_, symObjAddr: 0xA10, symBinAddr: 0x46E24, symSize: 0x64 }
  - { offset: 0x3778DD, size: 0x8, addend: 0x0, symName: __ZN8facebook5react10EventQueueD1Ev, symObjAddr: 0x338, symBinAddr: 0x46990, symSize: 0xF4 }
  - { offset: 0x377CFB, size: 0x8, addend: 0x0, symName: __ZN8facebook5react19EventQueueProcessorD1Ev, symObjAddr: 0x28C, symBinAddr: 0x468E4, symSize: 0xAC }
  - { offset: 0x37803B, size: 0x8, addend: 0x0, symName: __ZNSt3__16vectorIN8facebook5react11StateUpdateENS_9allocatorIS3_EEE16__destroy_vectorclB8ne200100Ev, symObjAddr: 0x790, symBinAddr: 0x46CAC, symSize: 0x40 }
  - { offset: 0x378102, size: 0x8, addend: 0x0, symName: __ZNSt3__16vectorIN8facebook5react8RawEventENS_9allocatorIS3_EEE16__destroy_vectorclB8ne200100Ev, symObjAddr: 0x8A0, symBinAddr: 0x46D64, symSize: 0x70 }
  - { offset: 0x37823D, size: 0x8, addend: 0x0, symName: __ZN8facebook5react15EventDispatcherC1ERKNS0_19EventQueueProcessorENSt3__110unique_ptrINS0_9EventBeatENS5_14default_deleteIS7_EEEENS5_8functionIFvRKNS0_11StateUpdateEEEENS5_8weak_ptrINS0_11EventLoggerEEE, symObjAddr: 0x42C, symBinAddr: 0x46A84, symSize: 0x4 }
  - { offset: 0x3782A6, size: 0x8, addend: 0x0, symName: __ZN8facebook5react15EventDispatcherC1ERKNS0_19EventQueueProcessorENSt3__110unique_ptrINS0_9EventBeatENS5_14default_deleteIS7_EEEENS5_8functionIFvRKNS0_11StateUpdateEEEENS5_8weak_ptrINS0_11EventLoggerEEE, symObjAddr: 0x42C, symBinAddr: 0x46A84, symSize: 0x4 }
  - { offset: 0x3784AC, size: 0x8, addend: 0x0, symName: __ZNK8facebook5react15EventDispatcher13dispatchEventEONS0_8RawEventE, symObjAddr: 0x430, symBinAddr: 0x46A88, symSize: 0x150 }
  - { offset: 0x3788CC, size: 0x8, addend: 0x0, symName: __ZNK8facebook5react15EventDispatcher22experimental_flushSyncEv, symObjAddr: 0x580, symBinAddr: 0x46BD8, symSize: 0x4 }
  - { offset: 0x3788F3, size: 0x8, addend: 0x0, symName: __ZNK8facebook5react15EventDispatcher19dispatchStateUpdateEONS0_11StateUpdateE, symObjAddr: 0x584, symBinAddr: 0x46BDC, symSize: 0x4 }
  - { offset: 0x378928, size: 0x8, addend: 0x0, symName: __ZNK8facebook5react15EventDispatcher19dispatchUniqueEventEONS0_8RawEventE, symObjAddr: 0x588, symBinAddr: 0x46BE0, symSize: 0x40 }
  - { offset: 0x3789E2, size: 0x8, addend: 0x0, symName: __ZNK8facebook5react15EventDispatcher11addListenerENSt3__110shared_ptrIKNS2_8functionIFbRKNS0_8RawEventEEEEEE, symObjAddr: 0x5C8, symBinAddr: 0x46C20, symSize: 0x84 }
  - { offset: 0x378B84, size: 0x8, addend: 0x0, symName: __ZNK8facebook5react15EventDispatcher14removeListenerERKNSt3__110shared_ptrIKNS2_8functionIFbRKNS0_8RawEventEEEEEE, symObjAddr: 0x64C, symBinAddr: 0x46CA4, symSize: 0x8 }
  - { offset: 0x378C4B, size: 0x8, addend: 0x0, symName: __ZNSt3__16vectorIN8facebook5react11StateUpdateENS_9allocatorIS3_EEE22__base_destruct_at_endB8ne200100EPS3_, symObjAddr: 0x7D0, symBinAddr: 0x46CEC, symSize: 0x78 }
  - { offset: 0x37B38D, size: 0x8, addend: 0x0, symName: __ZZN8facebook5react8systraceL31getOrCreateInstrumentsLogHandleEvE4flag, symObjAddr: 0xA9168, symBinAddr: 0xD5628, symSize: 0x0 }
  - { offset: 0x37B56A, size: 0x8, addend: 0x0, symName: __ZN8facebook5reactL9hasPrefixERKNSt3__112basic_stringIcNS1_11char_traitsIcEENS1_9allocatorIcEEEES9_, symObjAddr: 0x1C0, symBinAddr: 0x47048, symSize: 0x74 }
  - { offset: 0x37B737, size: 0x8, addend: 0x0, symName: __ZN8facebook5react12EventEmitter13DispatchMutexEv, symObjAddr: 0x234, symBinAddr: 0x470BC, symSize: 0x30 }
  - { offset: 0x383B83, size: 0x8, addend: 0x0, symName: __ZNSt3__115allocate_sharedB8ne200100IN8facebook5react19DynamicEventPayloadENS_9allocatorIS3_EEJN5folly7dynamicEELi0EEENS_10shared_ptrIT_EERKT0_DpOT1_, symObjAddr: 0x1490, symBinAddr: 0x47F44, symSize: 0x58 }
  - { offset: 0x38403D, size: 0x8, addend: 0x0, symName: __ZNSt3__115allocate_sharedB8ne200100IN8facebook5react24ValueFactoryEventPayloadENS_9allocatorIS3_EEJRKNS_8functionIFNS1_3jsi5ValueERNS7_7RuntimeEEEEELi0EEENS_10shared_ptrIT_EERKT0_DpOT1_, symObjAddr: 0x162C, symBinAddr: 0x48030, symSize: 0x58 }
  - { offset: 0x384FCC, size: 0x8, addend: 0x0, symName: __ZNSt3__112construct_atB8ne200100IN8facebook5react24ValueFactoryEventPayloadEJRKNS_8functionIFNS1_3jsi5ValueERNS5_7RuntimeEEEEEPS3_EEPT_SF_DpOT0_, symObjAddr: 0x1718, symBinAddr: 0x4811C, symSize: 0xD0 }
  - { offset: 0x3853E4, size: 0x8, addend: 0x0, symName: __ZNSt3__117__call_once_proxyB8ne200100INS_5tupleIJOZN8facebook5react8systraceL31getOrCreateInstrumentsLogHandleEvEUlvE_EEEEEvPv, symObjAddr: 0x1C90, symBinAddr: 0x4863C, symSize: 0x40 }
  - { offset: 0x385BD9, size: 0x8, addend: 0x0, symName: __ZNSt3__135__uninitialized_allocator_copy_implB8ne200100INS_9allocatorINS_12basic_stringIcNS_11char_traitsIcEENS1_IcEEEEEEPKS6_S9_PS6_EET2_RT_T0_T1_SB_, symObjAddr: 0x26D0, symBinAddr: 0x48C9C, symSize: 0xBC }
  - { offset: 0x385EBC, size: 0x8, addend: 0x0, symName: __ZNSt3__135__uninitialized_allocator_copy_implB8ne200100INS_9allocatorINS_12basic_stringIcNS_11char_traitsIcEENS1_IcEEEEEEPKS6_S9_PS6_EET2_RT_T0_T1_SB_, symObjAddr: 0x26D0, symBinAddr: 0x48C9C, symSize: 0xBC }
  - { offset: 0x389307, size: 0x8, addend: 0x0, symName: __ZN8facebook5react12EventEmitter13DispatchMutexEv, symObjAddr: 0x234, symBinAddr: 0x470BC, symSize: 0x30 }
  - { offset: 0x389329, size: 0x8, addend: 0x0, symName: __ZZN8facebook5react12EventEmitter13DispatchMutexEvE5mutex, symObjAddr: 0x2EE8, symBinAddr: 0xD4640, symSize: 0x0 }
  - { offset: 0x389341, size: 0x8, addend: 0x0, symName: __ZN8facebook5react12EventEmitter21defaultPayloadFactoryEv, symObjAddr: 0x264, symBinAddr: 0x470EC, symSize: 0x44 }
  - { offset: 0x389363, size: 0x8, addend: 0x0, symName: __MergedGlobals, symObjAddr: 0xA9170, symBinAddr: 0xD5630, symSize: 0x0 }
  - { offset: 0x389545, size: 0x8, addend: 0x0, symName: __ZN8facebook5react12TraceSectionC2IJRA5_KcRNSt3__112basic_stringIcNS6_11char_traitsIcEENS6_9allocatorIcEEEEEEEPS3_DpOT_, symObjAddr: 0x1840, symBinAddr: 0x481EC, symSize: 0x450 }
  - { offset: 0x38B41A, size: 0x8, addend: 0x0, symName: __ZN8facebook5react12EventEmitter18normalizeEventTypeENSt3__112basic_stringIcNS2_11char_traitsIcEENS2_9allocatorIcEEEE, symObjAddr: 0x0, symBinAddr: 0x46E88, symSize: 0x1C0 }
  - { offset: 0x38C04B, size: 0x8, addend: 0x0, symName: __ZN8facebook5react12EventEmitter13DispatchMutexEv.cold.1, symObjAddr: 0x2B34, symBinAddr: 0xA657C, symSize: 0x4C }
  - { offset: 0x38C12B, size: 0x8, addend: 0x0, symName: __ZN8facebook5react12EventEmitter21defaultPayloadFactoryEv.cold.1, symObjAddr: 0x2B80, symBinAddr: 0xA65C8, symSize: 0x64 }
  - { offset: 0x38C259, size: 0x8, addend: 0x0, symName: __ZNSt3__18functionIFN8facebook3jsi5ValueERNS2_7RuntimeEEED1Ev, symObjAddr: 0x2A8, symBinAddr: 0x47130, symSize: 0x48 }
  - { offset: 0x38C3C4, size: 0x8, addend: 0x0, symName: __ZN8facebook5react12EventEmitterC2ENSt3__110shared_ptrIKNS0_11EventTargetEEENS2_8weak_ptrIKNS0_15EventDispatcherEEE, symObjAddr: 0x2F0, symBinAddr: 0x47178, symSize: 0x38 }
  - { offset: 0x38C4FF, size: 0x8, addend: 0x0, symName: __ZN8facebook5react12EventEmitterC1ENSt3__110shared_ptrIKNS0_11EventTargetEEENS2_8weak_ptrIKNS0_15EventDispatcherEEE, symObjAddr: 0x328, symBinAddr: 0x471B0, symSize: 0x38 }
  - { offset: 0x38C54A, size: 0x8, addend: 0x0, symName: __ZN8facebook5react12EventEmitterC1ENSt3__110shared_ptrIKNS0_11EventTargetEEENS2_8weak_ptrIKNS0_15EventDispatcherEEE, symObjAddr: 0x328, symBinAddr: 0x471B0, symSize: 0x38 }
  - { offset: 0x38C789, size: 0x8, addend: 0x0, symName: __ZNK8facebook5react12EventEmitter13dispatchEventENSt3__112basic_stringIcNS2_11char_traitsIcEENS2_9allocatorIcEEEEON5folly7dynamicENS0_8RawEvent8CategoryE, symObjAddr: 0x360, symBinAddr: 0x471E8, symSize: 0x124 }
  - { offset: 0x38CC88, size: 0x8, addend: 0x0, symName: __ZNK8facebook5react12EventEmitter13dispatchEventENSt3__112basic_stringIcNS2_11char_traitsIcEENS2_9allocatorIcEEEENS2_10shared_ptrIKNS0_12EventPayloadEEENS0_8RawEvent8CategoryE, symObjAddr: 0x484, symBinAddr: 0x4730C, symSize: 0x334 }
  - { offset: 0x38DD0A, size: 0x8, addend: 0x0, symName: __ZN8facebook5react8RawEventD1Ev, symObjAddr: 0xD14, symBinAddr: 0x47B9C, symSize: 0x4C }
  - { offset: 0x38DF74, size: 0x8, addend: 0x0, symName: __ZNK8facebook5react12EventEmitter19dispatchUniqueEventENSt3__112basic_stringIcNS2_11char_traitsIcEENS2_9allocatorIcEEEEON5folly7dynamicE, symObjAddr: 0x7B8, symBinAddr: 0x47640, symSize: 0x11C }
  - { offset: 0x38E45E, size: 0x8, addend: 0x0, symName: __ZNK8facebook5react12EventEmitter19dispatchUniqueEventENSt3__112basic_stringIcNS2_11char_traitsIcEENS2_9allocatorIcEEEENS2_10shared_ptrIKNS0_12EventPayloadEEE, symObjAddr: 0x8D4, symBinAddr: 0x4775C, symSize: 0x31C }
  - { offset: 0x38F272, size: 0x8, addend: 0x0, symName: __ZNK8facebook5react12EventEmitter13dispatchEventENSt3__112basic_stringIcNS2_11char_traitsIcEENS2_9allocatorIcEEEERKNS2_8functionIFNS_3jsi5ValueERNSA_7RuntimeEEEENS0_8RawEvent8CategoryE, symObjAddr: 0xBF0, symBinAddr: 0x47A78, symSize: 0x124 }
  - { offset: 0x38F7C4, size: 0x8, addend: 0x0, symName: __ZNK8facebook5react12EventEmitter19dispatchUniqueEventENSt3__112basic_stringIcNS2_11char_traitsIcEENS2_9allocatorIcEEEERKNS2_8functionIFNS_3jsi5ValueERNSA_7RuntimeEEEE, symObjAddr: 0xD60, symBinAddr: 0x47BE8, symSize: 0x11C }
  - { offset: 0x38FCE0, size: 0x8, addend: 0x0, symName: __ZNK8facebook5react12EventEmitter10setEnabledEb, symObjAddr: 0xE7C, symBinAddr: 0x47D04, symSize: 0x80 }
  - { offset: 0x38FDC2, size: 0x8, addend: 0x0, symName: __ZNSt3__110shared_ptrIKN8facebook5react11EventTargetEE5resetB8ne200100Ev, symObjAddr: 0xEFC, symBinAddr: 0x47D84, symSize: 0x5C }
  - { offset: 0x38FF9E, size: 0x8, addend: 0x0, symName: __ZNK8facebook5react12EventEmitter19setShadowNodeFamilyENSt3__18weak_ptrIKNS0_16ShadowNodeFamilyEEE, symObjAddr: 0xF58, symBinAddr: 0x47DE0, symSize: 0x20 }
  - { offset: 0x3900BD, size: 0x8, addend: 0x0, symName: __ZNK8facebook5react12EventEmitter14getEventTargetEv, symObjAddr: 0xF78, symBinAddr: 0x47E00, symSize: 0x8 }
  - { offset: 0x39035E, size: 0x8, addend: 0x0, symName: __ZNSt3__112basic_stringIcNS_11char_traitsIcEENS_9allocatorIcEEEC2B8ne200100ENS_24__uninitialized_size_tagEmRKS4_, symObjAddr: 0x1184, symBinAddr: 0x47E08, symSize: 0x78 }
  - { offset: 0x39057E, size: 0x8, addend: 0x0, symName: '__ZNSt3__110__function6__funcIZN8facebook5react12EventEmitter21defaultPayloadFactoryEvE3$_0NS_9allocatorIS5_EEFNS2_3jsi5ValueERNS8_7RuntimeEEED1Ev', symObjAddr: 0x12C4, symBinAddr: 0x47E80, symSize: 0x4 }
  - { offset: 0x3905AA, size: 0x8, addend: 0x0, symName: '__ZNSt3__110__function6__funcIZN8facebook5react12EventEmitter21defaultPayloadFactoryEvE3$_0NS_9allocatorIS5_EEFNS2_3jsi5ValueERNS8_7RuntimeEEED0Ev', symObjAddr: 0x12C8, symBinAddr: 0x47E84, symSize: 0x4 }
  - { offset: 0x390671, size: 0x8, addend: 0x0, symName: '__ZNKSt3__110__function6__funcIZN8facebook5react12EventEmitter21defaultPayloadFactoryEvE3$_0NS_9allocatorIS5_EEFNS2_3jsi5ValueERNS8_7RuntimeEEE7__cloneEv', symObjAddr: 0x12CC, symBinAddr: 0x47E88, symSize: 0x24 }
  - { offset: 0x3907BF, size: 0x8, addend: 0x0, symName: '__ZNKSt3__110__function6__funcIZN8facebook5react12EventEmitter21defaultPayloadFactoryEvE3$_0NS_9allocatorIS5_EEFNS2_3jsi5ValueERNS8_7RuntimeEEE7__cloneEPNS0_6__baseISC_EE', symObjAddr: 0x12F0, symBinAddr: 0x47EAC, symSize: 0x10 }
  - { offset: 0x3907F3, size: 0x8, addend: 0x0, symName: '__ZNKSt3__110__function6__funcIZN8facebook5react12EventEmitter21defaultPayloadFactoryEvE3$_0NS_9allocatorIS5_EEFNS2_3jsi5ValueERNS8_7RuntimeEEE7__cloneEPNS0_6__baseISC_EE', symObjAddr: 0x12F0, symBinAddr: 0x47EAC, symSize: 0x10 }
  - { offset: 0x39080F, size: 0x8, addend: 0x0, symName: '__ZNKSt3__110__function6__funcIZN8facebook5react12EventEmitter21defaultPayloadFactoryEvE3$_0NS_9allocatorIS5_EEFNS2_3jsi5ValueERNS8_7RuntimeEEE7__cloneEPNS0_6__baseISC_EE', symObjAddr: 0x12F0, symBinAddr: 0x47EAC, symSize: 0x10 }
  - { offset: 0x39082B, size: 0x8, addend: 0x0, symName: '__ZNSt3__110__function6__funcIZN8facebook5react12EventEmitter21defaultPayloadFactoryEvE3$_0NS_9allocatorIS5_EEFNS2_3jsi5ValueERNS8_7RuntimeEEE7destroyEv', symObjAddr: 0x1300, symBinAddr: 0x47EBC, symSize: 0x4 }
  - { offset: 0x390880, size: 0x8, addend: 0x0, symName: '__ZNSt3__110__function6__funcIZN8facebook5react12EventEmitter21defaultPayloadFactoryEvE3$_0NS_9allocatorIS5_EEFNS2_3jsi5ValueERNS8_7RuntimeEEE18destroy_deallocateEv', symObjAddr: 0x1304, symBinAddr: 0x47EC0, symSize: 0x4 }
  - { offset: 0x3908B4, size: 0x8, addend: 0x0, symName: '__ZNSt3__110__function6__funcIZN8facebook5react12EventEmitter21defaultPayloadFactoryEvE3$_0NS_9allocatorIS5_EEFNS2_3jsi5ValueERNS8_7RuntimeEEE18destroy_deallocateEv', symObjAddr: 0x1304, symBinAddr: 0x47EC0, symSize: 0x4 }
  - { offset: 0x3908D6, size: 0x8, addend: 0x0, symName: '__ZNSt3__110__function6__funcIZN8facebook5react12EventEmitter21defaultPayloadFactoryEvE3$_0NS_9allocatorIS5_EEFNS2_3jsi5ValueERNS8_7RuntimeEEE18destroy_deallocateEv', symObjAddr: 0x1304, symBinAddr: 0x47EC0, symSize: 0x4 }
  - { offset: 0x390907, size: 0x8, addend: 0x0, symName: '__ZNSt3__110__function6__funcIZN8facebook5react12EventEmitter21defaultPayloadFactoryEvE3$_0NS_9allocatorIS5_EEFNS2_3jsi5ValueERNS8_7RuntimeEEE18destroy_deallocateEv', symObjAddr: 0x1304, symBinAddr: 0x47EC0, symSize: 0x4 }
  - { offset: 0x390A69, size: 0x8, addend: 0x0, symName: '__ZNSt3__110__function6__funcIZN8facebook5react12EventEmitter21defaultPayloadFactoryEvE3$_0NS_9allocatorIS5_EEFNS2_3jsi5ValueERNS8_7RuntimeEEEclESB_', symObjAddr: 0x1308, symBinAddr: 0x47EC4, symSize: 0x38 }
  - { offset: 0x390BAF, size: 0x8, addend: 0x0, symName: '__ZNKSt3__110__function6__funcIZN8facebook5react12EventEmitter21defaultPayloadFactoryEvE3$_0NS_9allocatorIS5_EEFNS2_3jsi5ValueERNS8_7RuntimeEEE6targetERKSt9type_info', symObjAddr: 0x1340, symBinAddr: 0x47EFC, symSize: 0x3C }
  - { offset: 0x390C61, size: 0x8, addend: 0x0, symName: '__ZNKSt3__110__function6__funcIZN8facebook5react12EventEmitter21defaultPayloadFactoryEvE3$_0NS_9allocatorIS5_EEFNS2_3jsi5ValueERNS8_7RuntimeEEE11target_typeEv', symObjAddr: 0x137C, symBinAddr: 0x47F38, symSize: 0xC }
  - { offset: 0x390F0F, size: 0x8, addend: 0x0, symName: __ZNSt3__120__shared_ptr_emplaceIN8facebook5react19DynamicEventPayloadENS_9allocatorIS3_EEEC2B8ne200100IJN5folly7dynamicEES5_Li0EEES5_DpOT_, symObjAddr: 0x14E8, symBinAddr: 0x47F9C, symSize: 0x4C }
  - { offset: 0x3910C8, size: 0x8, addend: 0x0, symName: __ZNSt3__120__shared_ptr_emplaceIN8facebook5react19DynamicEventPayloadENS_9allocatorIS3_EEED1Ev, symObjAddr: 0x1534, symBinAddr: 0x47FE8, symSize: 0x14 }
  - { offset: 0x3910EA, size: 0x8, addend: 0x0, symName: __ZNSt3__120__shared_ptr_emplaceIN8facebook5react19DynamicEventPayloadENS_9allocatorIS3_EEED1Ev, symObjAddr: 0x1534, symBinAddr: 0x47FE8, symSize: 0x14 }
  - { offset: 0x391120, size: 0x8, addend: 0x0, symName: __ZNSt3__120__shared_ptr_emplaceIN8facebook5react19DynamicEventPayloadENS_9allocatorIS3_EEED0Ev, symObjAddr: 0x1548, symBinAddr: 0x47FFC, symSize: 0x24 }
  - { offset: 0x3911ED, size: 0x8, addend: 0x0, symName: __ZNSt3__120__shared_ptr_emplaceIN8facebook5react19DynamicEventPayloadENS_9allocatorIS3_EEE16__on_zero_sharedEv, symObjAddr: 0x156C, symBinAddr: 0x48020, symSize: 0xC }
  - { offset: 0x391216, size: 0x8, addend: 0x0, symName: __ZNSt3__120__shared_ptr_emplaceIN8facebook5react19DynamicEventPayloadENS_9allocatorIS3_EEE16__on_zero_sharedEv, symObjAddr: 0x156C, symBinAddr: 0x48020, symSize: 0xC }
  - { offset: 0x391233, size: 0x8, addend: 0x0, symName: __ZNSt3__120__shared_ptr_emplaceIN8facebook5react19DynamicEventPayloadENS_9allocatorIS3_EEE16__on_zero_sharedEv, symObjAddr: 0x156C, symBinAddr: 0x48020, symSize: 0xC }
  - { offset: 0x391250, size: 0x8, addend: 0x0, symName: __ZNSt3__120__shared_ptr_emplaceIN8facebook5react19DynamicEventPayloadENS_9allocatorIS3_EEE16__on_zero_sharedEv, symObjAddr: 0x156C, symBinAddr: 0x48020, symSize: 0xC }
  - { offset: 0x39127B, size: 0x8, addend: 0x0, symName: __ZNSt3__120__shared_ptr_emplaceIN8facebook5react19DynamicEventPayloadENS_9allocatorIS3_EEE21__on_zero_shared_weakEv, symObjAddr: 0x1578, symBinAddr: 0x4802C, symSize: 0x4 }
  - { offset: 0x3912AD, size: 0x8, addend: 0x0, symName: __ZNSt3__120__shared_ptr_emplaceIN8facebook5react19DynamicEventPayloadENS_9allocatorIS3_EEE21__on_zero_shared_weakEv, symObjAddr: 0x1578, symBinAddr: 0x4802C, symSize: 0x4 }
  - { offset: 0x3912CE, size: 0x8, addend: 0x0, symName: __ZNSt3__120__shared_ptr_emplaceIN8facebook5react19DynamicEventPayloadENS_9allocatorIS3_EEE21__on_zero_shared_weakEv, symObjAddr: 0x1578, symBinAddr: 0x4802C, symSize: 0x4 }
  - { offset: 0x3912F0, size: 0x8, addend: 0x0, symName: __ZNSt3__120__shared_ptr_emplaceIN8facebook5react19DynamicEventPayloadENS_9allocatorIS3_EEE21__on_zero_shared_weakEv, symObjAddr: 0x1578, symBinAddr: 0x4802C, symSize: 0x4 }
  - { offset: 0x391322, size: 0x8, addend: 0x0, symName: __ZNSt3__120__shared_ptr_emplaceIN8facebook5react19DynamicEventPayloadENS_9allocatorIS3_EEE21__on_zero_shared_weakEv, symObjAddr: 0x1578, symBinAddr: 0x4802C, symSize: 0x4 }
  - { offset: 0x39158D, size: 0x8, addend: 0x0, symName: __ZNSt3__120__shared_ptr_emplaceIN8facebook5react24ValueFactoryEventPayloadENS_9allocatorIS3_EEEC2B8ne200100IJRKNS_8functionIFNS1_3jsi5ValueERNS9_7RuntimeEEEEES5_Li0EEES5_DpOT_, symObjAddr: 0x1684, symBinAddr: 0x48088, symSize: 0x4C }
  - { offset: 0x3916F5, size: 0x8, addend: 0x0, symName: __ZNSt3__120__shared_ptr_emplaceIN8facebook5react24ValueFactoryEventPayloadENS_9allocatorIS3_EEED1Ev, symObjAddr: 0x16D0, symBinAddr: 0x480D4, symSize: 0x14 }
  - { offset: 0x391717, size: 0x8, addend: 0x0, symName: __ZNSt3__120__shared_ptr_emplaceIN8facebook5react24ValueFactoryEventPayloadENS_9allocatorIS3_EEED1Ev, symObjAddr: 0x16D0, symBinAddr: 0x480D4, symSize: 0x14 }
  - { offset: 0x39174D, size: 0x8, addend: 0x0, symName: __ZNSt3__120__shared_ptr_emplaceIN8facebook5react24ValueFactoryEventPayloadENS_9allocatorIS3_EEED0Ev, symObjAddr: 0x16E4, symBinAddr: 0x480E8, symSize: 0x24 }
  - { offset: 0x39181A, size: 0x8, addend: 0x0, symName: __ZNSt3__120__shared_ptr_emplaceIN8facebook5react24ValueFactoryEventPayloadENS_9allocatorIS3_EEE16__on_zero_sharedEv, symObjAddr: 0x1708, symBinAddr: 0x4810C, symSize: 0xC }
  - { offset: 0x391843, size: 0x8, addend: 0x0, symName: __ZNSt3__120__shared_ptr_emplaceIN8facebook5react24ValueFactoryEventPayloadENS_9allocatorIS3_EEE16__on_zero_sharedEv, symObjAddr: 0x1708, symBinAddr: 0x4810C, symSize: 0xC }
  - { offset: 0x391860, size: 0x8, addend: 0x0, symName: __ZNSt3__120__shared_ptr_emplaceIN8facebook5react24ValueFactoryEventPayloadENS_9allocatorIS3_EEE16__on_zero_sharedEv, symObjAddr: 0x1708, symBinAddr: 0x4810C, symSize: 0xC }
  - { offset: 0x39187D, size: 0x8, addend: 0x0, symName: __ZNSt3__120__shared_ptr_emplaceIN8facebook5react24ValueFactoryEventPayloadENS_9allocatorIS3_EEE16__on_zero_sharedEv, symObjAddr: 0x1708, symBinAddr: 0x4810C, symSize: 0xC }
  - { offset: 0x3918A8, size: 0x8, addend: 0x0, symName: __ZNSt3__120__shared_ptr_emplaceIN8facebook5react24ValueFactoryEventPayloadENS_9allocatorIS3_EEE21__on_zero_shared_weakEv, symObjAddr: 0x1714, symBinAddr: 0x48118, symSize: 0x4 }
  - { offset: 0x3918DA, size: 0x8, addend: 0x0, symName: __ZNSt3__120__shared_ptr_emplaceIN8facebook5react24ValueFactoryEventPayloadENS_9allocatorIS3_EEE21__on_zero_shared_weakEv, symObjAddr: 0x1714, symBinAddr: 0x48118, symSize: 0x4 }
  - { offset: 0x3918FB, size: 0x8, addend: 0x0, symName: __ZNSt3__120__shared_ptr_emplaceIN8facebook5react24ValueFactoryEventPayloadENS_9allocatorIS3_EEE21__on_zero_shared_weakEv, symObjAddr: 0x1714, symBinAddr: 0x48118, symSize: 0x4 }
  - { offset: 0x39191D, size: 0x8, addend: 0x0, symName: __ZNSt3__120__shared_ptr_emplaceIN8facebook5react24ValueFactoryEventPayloadENS_9allocatorIS3_EEE21__on_zero_shared_weakEv, symObjAddr: 0x1714, symBinAddr: 0x48118, symSize: 0x4 }
  - { offset: 0x39194F, size: 0x8, addend: 0x0, symName: __ZNSt3__120__shared_ptr_emplaceIN8facebook5react24ValueFactoryEventPayloadENS_9allocatorIS3_EEE21__on_zero_shared_weakEv, symObjAddr: 0x1714, symBinAddr: 0x48118, symSize: 0x4 }
  - { offset: 0x391E40, size: 0x8, addend: 0x0, symName: __ZN8facebook5react8systrace8rendererIA5_cvE6renderERA5_Kc, symObjAddr: 0x1CD0, symBinAddr: 0x4867C, symSize: 0xE4 }
  - { offset: 0x392100, size: 0x8, addend: 0x0, symName: __ZN8facebook5react8systrace8rendererINSt3__112basic_stringIcNS3_11char_traitsIcEENS3_9allocatorIcEEEEvE6renderERKS9_, symObjAddr: 0x24C0, symBinAddr: 0x48B2C, symSize: 0xEC }
  - { offset: 0x3923C4, size: 0x8, addend: 0x0, symName: __ZNSt3__16vectorINS_12basic_stringIcNS_11char_traitsIcEENS_9allocatorIcEEEENS4_IS6_EEE16__init_with_sizeB8ne200100IPKS6_SB_EEvT_T0_m, symObjAddr: 0x25AC, symBinAddr: 0x48C18, symSize: 0x84 }
  - { offset: 0x39283D, size: 0x8, addend: 0x0, symName: __ZNSt3__119basic_ostringstreamIcNS_11char_traitsIcEENS_9allocatorIcEEEC1B8ne200100Ev, symObjAddr: 0x1DB4, symBinAddr: 0x48760, symSize: 0xC4 }
  - { offset: 0x392931, size: 0x8, addend: 0x0, symName: __ZNKSt3__115basic_stringbufIcNS_11char_traitsIcEENS_9allocatorIcEEE3strB8ne200100IS4_EENS_12basic_stringIcS2_T_EERKS8_, symObjAddr: 0x23E4, symBinAddr: 0x48A50, symSize: 0x90 }
  - { offset: 0x392B74, size: 0x8, addend: 0x0, symName: __ZNKSt3__115basic_stringbufIcNS_11char_traitsIcEENS_9allocatorIcEEE4viewB8ne200100Ev, symObjAddr: 0x2474, symBinAddr: 0x48AE0, symSize: 0x4C }
  - { offset: 0x392B88, size: 0x8, addend: 0x0, symName: __ZNSt3__119basic_ostringstreamIcNS_11char_traitsIcEENS_9allocatorIcEEED1Ev, symObjAddr: 0x1E78, symBinAddr: 0x48824, symSize: 0x88 }
  - { offset: 0x392E15, size: 0x8, addend: 0x0, symName: __ZNSt3__115basic_stringbufIcNS_11char_traitsIcEENS_9allocatorIcEEEC2B8ne200100Ej, symObjAddr: 0x1F00, symBinAddr: 0x488AC, symSize: 0xA0 }
  - { offset: 0x392F96, size: 0x8, addend: 0x0, symName: __ZNSt3__115basic_stringbufIcNS_11char_traitsIcEENS_9allocatorIcEEE15__init_buf_ptrsB8ne200100Ev, symObjAddr: 0x1FA0, symBinAddr: 0x4894C, symSize: 0x104 }
  - { offset: 0x393658, size: 0x8, addend: 0x0, symName: __ZNKSt3__115basic_stringbufIcNS_11char_traitsIcEENS_9allocatorIcEEE3strB8ne200100IS4_EENS_12basic_stringIcS2_T_EERKS8_, symObjAddr: 0x23E4, symBinAddr: 0x48A50, symSize: 0x90 }
  - { offset: 0x393775, size: 0x8, addend: 0x0, symName: __ZNKSt3__115basic_stringbufIcNS_11char_traitsIcEENS_9allocatorIcEEE4viewB8ne200100Ev, symObjAddr: 0x2474, symBinAddr: 0x48AE0, symSize: 0x4C }
  - { offset: 0x399BE3, size: 0x8, addend: 0x0, symName: __ZNSt3__125__throw_bad_function_callB8ne200100Ev, symObjAddr: 0x508, symBinAddr: 0x49078, symSize: 0x34 }
  - { offset: 0x39B401, size: 0x8, addend: 0x0, symName: __ZN8facebook5react22EventListenerContainer17willDispatchEventERKNS0_8RawEventE, symObjAddr: 0x0, symBinAddr: 0x48D58, symSize: 0xC4 }
  - { offset: 0x39B6E9, size: 0x8, addend: 0x0, symName: __ZN8facebook5react22EventListenerContainer11addListenerENSt3__110shared_ptrIKNS2_8functionIFbRKNS0_8RawEventEEEEEE, symObjAddr: 0xC4, symBinAddr: 0x48E1C, symSize: 0x64 }
  - { offset: 0x39B824, size: 0x8, addend: 0x0, symName: __ZNSt3__16vectorINS_10shared_ptrIKNS_8functionIFbRKN8facebook5react8RawEventEEEEEENS_9allocatorISB_EEE9push_backB8ne200100EOSB_, symObjAddr: 0x128, symBinAddr: 0x48E80, symSize: 0xF0 }
  - { offset: 0x39BC2C, size: 0x8, addend: 0x0, symName: __ZN8facebook5react22EventListenerContainer14removeListenerERKNSt3__110shared_ptrIKNS2_8functionIFbRKNS0_8RawEventEEEEEE, symObjAddr: 0x218, symBinAddr: 0x48F70, symSize: 0xBC }
  - { offset: 0x39BF0D, size: 0x8, addend: 0x0, symName: __ZNSt3__114__split_bufferINS_10shared_ptrIKNS_8functionIFbRKN8facebook5react8RawEventEEEEEERNS_9allocatorISB_EEED2Ev, symObjAddr: 0x3C8, symBinAddr: 0x4902C, symSize: 0x4C }
  - { offset: 0x39C20E, size: 0x8, addend: 0x0, symName: __ZN8facebook5react22EventListenerContainer14removeListenerERKNSt3__110shared_ptrIKNS2_8functionIFbRKNS0_8RawEventEEEEEE, symObjAddr: 0x218, symBinAddr: 0x48F70, symSize: 0xBC }
  - { offset: 0x39C8BA, size: 0x8, addend: 0x0, symName: __ZNSt3__117bad_function_callD1Ev, symObjAddr: 0x53C, symBinAddr: 0x490AC, symSize: 0x4 }
  - { offset: 0x39C8DC, size: 0x8, addend: 0x0, symName: __ZNSt3__117bad_function_callD1Ev, symObjAddr: 0x53C, symBinAddr: 0x490AC, symSize: 0x4 }
  - { offset: 0x39C910, size: 0x8, addend: 0x0, symName: __ZNSt3__117bad_function_callD0Ev, symObjAddr: 0x540, symBinAddr: 0x490B0, symSize: 0x14 }
  - { offset: 0x3AE5C9, size: 0x8, addend: 0x0, symName: __ZNSt3__127__throw_bad_optional_accessB8ne200100Ev, symObjAddr: 0x1C94, symBinAddr: 0x4A7D4, symSize: 0x34 }
  - { offset: 0x3B3055, size: 0x8, addend: 0x0, symName: __ZN8facebook5react22EventPerformanceLoggerC2ENSt3__18weak_ptrINS0_24PerformanceEntryReporterEEE, symObjAddr: 0x0, symBinAddr: 0x490C4, symSize: 0x5C }
  - { offset: 0x3B31F1, size: 0x8, addend: 0x0, symName: __ZN8facebook5react22EventPerformanceLoggerC1ENSt3__18weak_ptrINS0_24PerformanceEntryReporterEEE, symObjAddr: 0x5C, symBinAddr: 0x49120, symSize: 0x5C }
  - { offset: 0x3B322D, size: 0x8, addend: 0x0, symName: __ZN8facebook5react22EventPerformanceLoggerC1ENSt3__18weak_ptrINS0_24PerformanceEntryReporterEEE, symObjAddr: 0x5C, symBinAddr: 0x49120, symSize: 0x5C }
  - { offset: 0x3B42CC, size: 0x8, addend: 0x0, symName: __ZN8facebook5react22EventPerformanceLogger12onEventStartENSt3__117basic_string_viewIcNS2_11char_traitsIcEEEENS2_10shared_ptrIKNS0_11EventTargetEEENS2_8optionalINS0_16HighResTimeStampEEE, symObjAddr: 0xB8, symBinAddr: 0x4917C, symSize: 0x8E0 }
  - { offset: 0x3B6383, size: 0x8, addend: 0x0, symName: __ZNKSt3__118__string_view_hashIcEclB8ne200100ENS_17basic_string_viewIcNS_11char_traitsIcEEEE, symObjAddr: 0x1670, symBinAddr: 0x4A6FC, symSize: 0x24 }
  - { offset: 0x3B63F9, size: 0x8, addend: 0x0, symName: __ZNSt3__112__hash_tableINS_17__hash_value_typeIjN8facebook5react22EventPerformanceLogger10EventEntryEEENS_22__unordered_map_hasherIjS6_NS_4hashIjEENS_8equal_toIjEELb1EEENS_21__unordered_map_equalIjS6_SB_S9_Lb1EEENS_9allocatorIS6_EEE25__emplace_unique_key_argsIjJRjS5_EEENS_4pairINS_15__hash_iteratorIPNS_11__hash_nodeIS6_PvEEEEbEERKT_DpOT0_, symObjAddr: 0x1D94, symBinAddr: 0x4A87C, symSize: 0x264 }
  - { offset: 0x3B6B49, size: 0x8, addend: 0x0, symName: __ZNSt3__113unordered_mapIN8facebook5react12_GLOBAL__N_16StrKeyENS_17basic_string_viewIcNS_11char_traitsIcEEEENS3_10StrKeyHashENS_8equal_toIS4_EENS_9allocatorINS_4pairIKS4_S8_EEEEEC1ESt16initializer_listISF_E, symObjAddr: 0x1194, symBinAddr: 0x4A248, symSize: 0x468 }
  - { offset: 0x3B763B, size: 0x8, addend: 0x0, symName: __ZN8facebook5react22EventPerformanceLogger14createEventTagEv, symObjAddr: 0x998, symBinAddr: 0x49A5C, symSize: 0x14 }
  - { offset: 0x3B76F8, size: 0x8, addend: 0x0, symName: __ZN8facebook5react22EventPerformanceLogger22onEventProcessingStartEj, symObjAddr: 0x9AC, symBinAddr: 0x49A70, symSize: 0xE8 }
  - { offset: 0x3B797C, size: 0x8, addend: 0x0, symName: __ZNSt3__112__hash_tableINS_17__hash_value_typeIjN8facebook5react22EventPerformanceLogger10EventEntryEEENS_22__unordered_map_hasherIjS6_NS_4hashIjEENS_8equal_toIjEELb1EEENS_21__unordered_map_equalIjS6_SB_S9_Lb1EEENS_9allocatorIS6_EEE4findIjEENS_15__hash_iteratorIPNS_11__hash_nodeIS6_PvEEEERKT_, symObjAddr: 0x226C, symBinAddr: 0x4AAE0, symSize: 0xB4 }
  - { offset: 0x3B79D4, size: 0x8, addend: 0x0, symName: __ZNSt3__112__hash_tableINS_17__hash_value_typeIjN8facebook5react22EventPerformanceLogger10EventEntryEEENS_22__unordered_map_hasherIjS6_NS_4hashIjEENS_8equal_toIjEELb1EEENS_21__unordered_map_equalIjS6_SB_S9_Lb1EEENS_9allocatorIS6_EEE4findIjEENS_15__hash_iteratorIPNS_11__hash_nodeIS6_PvEEEERKT_, symObjAddr: 0x226C, symBinAddr: 0x4AAE0, symSize: 0xB4 }
  - { offset: 0x3B79F0, size: 0x8, addend: 0x0, symName: __ZNSt3__112__hash_tableINS_17__hash_value_typeIjN8facebook5react22EventPerformanceLogger10EventEntryEEENS_22__unordered_map_hasherIjS6_NS_4hashIjEENS_8equal_toIjEELb1EEENS_21__unordered_map_equalIjS6_SB_S9_Lb1EEENS_9allocatorIS6_EEE4findIjEENS_15__hash_iteratorIPNS_11__hash_nodeIS6_PvEEEERKT_, symObjAddr: 0x226C, symBinAddr: 0x4AAE0, symSize: 0xB4 }
  - { offset: 0x3B7B07, size: 0x8, addend: 0x0, symName: __ZN8facebook5react22EventPerformanceLogger20onEventProcessingEndEj, symObjAddr: 0xA94, symBinAddr: 0x49B58, symSize: 0xE8 }
  - { offset: 0x3B816F, size: 0x8, addend: 0x0, symName: __ZN8facebook5react22EventPerformanceLogger33dispatchPendingEventTimingEntriesERKNSt3__113unordered_setIiNS2_4hashIiEENS2_8equal_toIiEENS2_9allocatorIiEEEE, symObjAddr: 0xB7C, symBinAddr: 0x49C40, symSize: 0x23C }
  - { offset: 0x3B89C5, size: 0x8, addend: 0x0, symName: __ZNKSt3__112__hash_tableIiNS_4hashIiEENS_8equal_toIiEENS_9allocatorIiEEE4findIiEENS_21__hash_const_iteratorIPNS_11__hash_nodeIiPvEEEERKT_, symObjAddr: 0x1B58, symBinAddr: 0x4A720, symSize: 0xB4 }
  - { offset: 0x3B8A1D, size: 0x8, addend: 0x0, symName: __ZNKSt3__112__hash_tableIiNS_4hashIiEENS_8equal_toIiEENS_9allocatorIiEEE4findIiEENS_21__hash_const_iteratorIPNS_11__hash_nodeIiPvEEEERKT_, symObjAddr: 0x1B58, symBinAddr: 0x4A720, symSize: 0xB4 }
  - { offset: 0x3B8A39, size: 0x8, addend: 0x0, symName: __ZNKSt3__112__hash_tableIiNS_4hashIiEENS_8equal_toIiEENS_9allocatorIiEEE4findIiEENS_21__hash_const_iteratorIPNS_11__hash_nodeIiPvEEEERKT_, symObjAddr: 0x1B58, symBinAddr: 0x4A720, symSize: 0xB4 }
  - { offset: 0x3B8B31, size: 0x8, addend: 0x0, symName: __ZNSt3__112__hash_tableINS_17__hash_value_typeIjN8facebook5react22EventPerformanceLogger10EventEntryEEENS_22__unordered_map_hasherIjS6_NS_4hashIjEENS_8equal_toIjEELb1EEENS_21__unordered_map_equalIjS6_SB_S9_Lb1EEENS_9allocatorIS6_EEE5eraseENS_21__hash_const_iteratorIPNS_11__hash_nodeIS6_PvEEEE, symObjAddr: 0x2320, symBinAddr: 0x4AB94, symSize: 0x58 }
  - { offset: 0x3B8DDC, size: 0x8, addend: 0x0, symName: __ZThn8_N8facebook5react22EventPerformanceLogger33dispatchPendingEventTimingEntriesERKNSt3__113unordered_setIiNS2_4hashIiEENS2_8equal_toIiEENS2_9allocatorIiEEEE, symObjAddr: 0xDB8, symBinAddr: 0x49E7C, symSize: 0x8 }
  - { offset: 0x3B8E41, size: 0x8, addend: 0x0, symName: __ZN8facebook5react22EventPerformanceLogger18shadowTreeDidMountERKNSt3__110shared_ptrIKNS0_14RootShadowNodeEEENS0_16HighResTimeStampE, symObjAddr: 0xDC0, symBinAddr: 0x49E84, symSize: 0x1C8 }
  - { offset: 0x3B94A2, size: 0x8, addend: 0x0, symName: __ZThn16_N8facebook5react22EventPerformanceLogger18shadowTreeDidMountERKNSt3__110shared_ptrIKNS0_14RootShadowNodeEEENS0_16HighResTimeStampE, symObjAddr: 0xF98, symBinAddr: 0x4A04C, symSize: 0x8 }
  - { offset: 0x3B957A, size: 0x8, addend: 0x0, symName: __ZN8facebook5react22EventPerformanceLoggerD1Ev, symObjAddr: 0xFA0, symBinAddr: 0x4A054, symSize: 0x54 }
  - { offset: 0x3B964B, size: 0x8, addend: 0x0, symName: __ZNSt3__112__hash_tableINS_17__hash_value_typeIjN8facebook5react22EventPerformanceLogger10EventEntryEEENS_22__unordered_map_hasherIjS6_NS_4hashIjEENS_8equal_toIjEELb1EEENS_21__unordered_map_equalIjS6_SB_S9_Lb1EEENS_9allocatorIS6_EEED2Ev, symObjAddr: 0x1CC8, symBinAddr: 0x4A808, symSize: 0x38 }
  - { offset: 0x3B97BF, size: 0x8, addend: 0x0, symName: __ZN8facebook5react22EventPerformanceLoggerD0Ev, symObjAddr: 0xFF4, symBinAddr: 0x4A0A8, symSize: 0x54 }
  - { offset: 0x3B98AC, size: 0x8, addend: 0x0, symName: __ZThn8_N8facebook5react22EventPerformanceLoggerD1Ev, symObjAddr: 0x1048, symBinAddr: 0x4A0FC, symSize: 0x4C }
  - { offset: 0x3B99AA, size: 0x8, addend: 0x0, symName: __ZThn8_N8facebook5react22EventPerformanceLoggerD0Ev, symObjAddr: 0x1094, symBinAddr: 0x4A148, symSize: 0x58 }
  - { offset: 0x3B9AAD, size: 0x8, addend: 0x0, symName: __ZN8facebook5react18UIManagerMountHook20shadowTreeDidUnmountEiNS0_16HighResTimeStampE, symObjAddr: 0x10EC, symBinAddr: 0x4A1A0, symSize: 0x4 }
  - { offset: 0x3B9AE6, size: 0x8, addend: 0x0, symName: __ZThn16_N8facebook5react22EventPerformanceLoggerD1Ev, symObjAddr: 0x10F0, symBinAddr: 0x4A1A4, symSize: 0x4C }
  - { offset: 0x3B9BC8, size: 0x8, addend: 0x0, symName: __ZThn16_N8facebook5react22EventPerformanceLoggerD0Ev, symObjAddr: 0x113C, symBinAddr: 0x4A1F0, symSize: 0x58 }
  - { offset: 0x3BA33A, size: 0x8, addend: 0x0, symName: __ZNSt3__112__hash_tableINS_17__hash_value_typeIN8facebook5react12_GLOBAL__N_16StrKeyENS_17basic_string_viewIcNS_11char_traitsIcEEEEEENS_22__unordered_map_hasherIS5_SA_NS4_10StrKeyHashENS_8equal_toIS5_EELb1EEENS_21__unordered_map_equalIS5_SA_SE_SC_Lb1EEENS_9allocatorISA_EEED1Ev, symObjAddr: 0x1600, symBinAddr: 0x4A6B4, symSize: 0x48 }
  - { offset: 0x3BA5AC, size: 0x8, addend: 0x0, symName: __ZNSt3__113unordered_mapIN8facebook5react12_GLOBAL__N_16StrKeyENS_17basic_string_viewIcNS_11char_traitsIcEEEENS3_10StrKeyHashENS_8equal_toIS4_EENS_9allocatorINS_4pairIKS4_S8_EEEEED1B8ne200100Ev, symObjAddr: 0x15FC, symBinAddr: 0x4A6B0, symSize: 0x4 }
  - { offset: 0x3BA5D7, size: 0x8, addend: 0x0, symName: __ZNSt3__113unordered_mapIN8facebook5react12_GLOBAL__N_16StrKeyENS_17basic_string_viewIcNS_11char_traitsIcEEEENS3_10StrKeyHashENS_8equal_toIS4_EENS_9allocatorINS_4pairIKS4_S8_EEEEED1B8ne200100Ev, symObjAddr: 0x15FC, symBinAddr: 0x4A6B0, symSize: 0x4 }
  - { offset: 0x3BA5F5, size: 0x8, addend: 0x0, symName: __ZNSt3__113unordered_mapIN8facebook5react12_GLOBAL__N_16StrKeyENS_17basic_string_viewIcNS_11char_traitsIcEEEENS3_10StrKeyHashENS_8equal_toIS4_EENS_9allocatorINS_4pairIKS4_S8_EEEEED1B8ne200100Ev, symObjAddr: 0x15FC, symBinAddr: 0x4A6B0, symSize: 0x4 }
  - { offset: 0x3BB172, size: 0x8, addend: 0x0, symName: __ZNSt3__112__hash_tableINS_17__hash_value_typeIjN8facebook5react22EventPerformanceLogger10EventEntryEEENS_22__unordered_map_hasherIjS6_NS_4hashIjEENS_8equal_toIjEELb1EEENS_21__unordered_map_equalIjS6_SB_S9_Lb1EEENS_9allocatorIS6_EEE17__deallocate_nodeEPNS_16__hash_node_baseIPNS_11__hash_nodeIS6_PvEEEE, symObjAddr: 0x1D00, symBinAddr: 0x4A840, symSize: 0x3C }
  - { offset: 0x3BBE39, size: 0x8, addend: 0x0, symName: __ZNSt3__112__hash_tableINS_17__hash_value_typeIjN8facebook5react22EventPerformanceLogger10EventEntryEEENS_22__unordered_map_hasherIjS6_NS_4hashIjEENS_8equal_toIjEELb1EEENS_21__unordered_map_equalIjS6_SB_S9_Lb1EEENS_9allocatorIS6_EEE6removeENS_21__hash_const_iteratorIPNS_11__hash_nodeIS6_PvEEEE, symObjAddr: 0x2378, symBinAddr: 0x4ABEC, symSize: 0x13C }
  - { offset: 0x3BBEAF, size: 0x8, addend: 0x0, symName: __ZNSt3__112__hash_tableINS_17__hash_value_typeIjN8facebook5react22EventPerformanceLogger10EventEntryEEENS_22__unordered_map_hasherIjS6_NS_4hashIjEENS_8equal_toIjEELb1EEENS_21__unordered_map_equalIjS6_SB_S9_Lb1EEENS_9allocatorIS6_EEE6removeENS_21__hash_const_iteratorIPNS_11__hash_nodeIS6_PvEEEE, symObjAddr: 0x2378, symBinAddr: 0x4ABEC, symSize: 0x13C }
  - { offset: 0x3BBECB, size: 0x8, addend: 0x0, symName: __ZNSt3__112__hash_tableINS_17__hash_value_typeIjN8facebook5react22EventPerformanceLogger10EventEntryEEENS_22__unordered_map_hasherIjS6_NS_4hashIjEENS_8equal_toIjEELb1EEENS_21__unordered_map_equalIjS6_SB_S9_Lb1EEENS_9allocatorIS6_EEE6removeENS_21__hash_const_iteratorIPNS_11__hash_nodeIS6_PvEEEE, symObjAddr: 0x2378, symBinAddr: 0x4ABEC, symSize: 0x13C }
  - { offset: 0x3C8981, size: 0x8, addend: 0x0, symName: __ZNSt3__134__uninitialized_allocator_relocateB8ne200100INS_9allocatorIN8facebook5react8RawEventEEEPS4_EEvRT_T0_S9_S9_, symObjAddr: 0xD5C, symBinAddr: 0x4B6F4, symSize: 0xA0 }
  - { offset: 0x3C89DB, size: 0x8, addend: 0x0, symName: __ZNSt3__134__uninitialized_allocator_relocateB8ne200100INS_9allocatorIN8facebook5react8RawEventEEEPS4_EEvRT_T0_S9_S9_, symObjAddr: 0xD5C, symBinAddr: 0x4B6F4, symSize: 0xA0 }
  - { offset: 0x3C8E4E, size: 0x8, addend: 0x0, symName: __ZNSt3__119__allocate_at_leastB8ne200100INS_9allocatorIN8facebook5react11StateUpdateEEEEENS_19__allocation_resultINS_16allocator_traitsIT_E7pointerEEERS8_m, symObjAddr: 0x12F0, symBinAddr: 0x4B978, symSize: 0x44 }
  - { offset: 0x3C8EF3, size: 0x8, addend: 0x0, symName: __ZNSt3__134__uninitialized_allocator_relocateB8ne200100INS_9allocatorIN8facebook5react11StateUpdateEEEPS4_EEvRT_T0_S9_S9_, symObjAddr: 0x1334, symBinAddr: 0x4B9BC, symSize: 0xBC }
  - { offset: 0x3C8F06, size: 0x8, addend: 0x0, symName: __ZNSt3__134__uninitialized_allocator_relocateB8ne200100INS_9allocatorIN8facebook5react11StateUpdateEEEPS4_EEvRT_T0_S9_S9_, symObjAddr: 0x1334, symBinAddr: 0x4B9BC, symSize: 0xBC }
  - { offset: 0x3C92AF, size: 0x8, addend: 0x0, symName: __ZNSt3__119__allocator_destroyB8ne200100INS_9allocatorIN8facebook5react11StateUpdateEEEPS4_S6_EEvRT_T0_T1_, symObjAddr: 0x13F0, symBinAddr: 0x4BA78, symSize: 0x68 }
  - { offset: 0x3C943E, size: 0x8, addend: 0x0, symName: __ZNSt3__119__allocator_destroyB8ne200100INS_9allocatorIN8facebook5react11StateUpdateEEENS_16reverse_iteratorIPS4_EES8_EEvRT_T0_T1_, symObjAddr: 0x14A0, symBinAddr: 0x4BB28, symSize: 0x68 }
  - { offset: 0x3CD0E2, size: 0x8, addend: 0x0, symName: __ZN8facebook5react10EventQueueC1ENS0_19EventQueueProcessorENSt3__110unique_ptrINS0_9EventBeatENS3_14default_deleteIS5_EEEE, symObjAddr: 0x32C, symBinAddr: 0x4AFA8, symSize: 0x4 }
  - { offset: 0x3CD177, size: 0x8, addend: 0x0, symName: __ZN8facebook5react10EventQueueC1ENS0_19EventQueueProcessorENSt3__110unique_ptrINS0_9EventBeatENS3_14default_deleteIS5_EEEE, symObjAddr: 0x32C, symBinAddr: 0x4AFA8, symSize: 0x4 }
  - { offset: 0x3CDC1B, size: 0x8, addend: 0x0, symName: __ZN8facebook5react10EventQueueC2ENS0_19EventQueueProcessorENSt3__110unique_ptrINS0_9EventBeatENS3_14default_deleteIS5_EEEE, symObjAddr: 0x0, symBinAddr: 0x4AD28, symSize: 0x280 }
  - { offset: 0x3CED96, size: 0x8, addend: 0x0, symName: __ZNK8facebook5react10EventQueue12enqueueEventEONS0_8RawEventE, symObjAddr: 0x330, symBinAddr: 0x4AFAC, symSize: 0x18C }
  - { offset: 0x3CF2F2, size: 0x8, addend: 0x0, symName: __ZNSt3__16vectorIN8facebook5react8RawEventENS_9allocatorIS3_EEE9push_backB8ne200100EOS3_, symObjAddr: 0x4BC, symBinAddr: 0x4B138, symSize: 0x88 }
  - { offset: 0x3CF936, size: 0x8, addend: 0x0, symName: __ZNSt3__16vectorIN8facebook5react8RawEventENS_9allocatorIS3_EEE24__emplace_back_slow_pathIJS3_EEEPS3_DpOT_, symObjAddr: 0xAE4, symBinAddr: 0x4B574, symSize: 0x180 }
  - { offset: 0x3CFD81, size: 0x8, addend: 0x0, symName: __ZNK8facebook5react10EventQueue9onEnqueueEv, symObjAddr: 0x544, symBinAddr: 0x4B1C0, symSize: 0x10 }
  - { offset: 0x3CFDA5, size: 0x8, addend: 0x0, symName: __ZNK8facebook5react10EventQueue9onEnqueueEv, symObjAddr: 0x544, symBinAddr: 0x4B1C0, symSize: 0x10 }
  - { offset: 0x3CFDCE, size: 0x8, addend: 0x0, symName: __ZNK8facebook5react10EventQueue18enqueueUniqueEventEONS0_8RawEventE, symObjAddr: 0x554, symBinAddr: 0x4B1D0, symSize: 0xC }
  - { offset: 0x3D00F5, size: 0x8, addend: 0x0, symName: __ZNK8facebook5react10EventQueue18enqueueStateUpdateEONS0_11StateUpdateE, symObjAddr: 0x560, symBinAddr: 0x4B1DC, symSize: 0x178 }
  - { offset: 0x3D071C, size: 0x8, addend: 0x0, symName: __ZNSt3__16vectorIN8facebook5react11StateUpdateENS_9allocatorIS3_EEE9push_backB8ne200100EOS3_, symObjAddr: 0x6D8, symBinAddr: 0x4B354, symSize: 0x54 }
  - { offset: 0x3D0B52, size: 0x8, addend: 0x0, symName: __ZNSt3__110__function12__value_funcIFNS_10shared_ptrIKvEERKS4_EEC2B8ne200100EOS8_, symObjAddr: 0x1278, symBinAddr: 0x4B914, symSize: 0x64 }
  - { offset: 0x3D0B9F, size: 0x8, addend: 0x0, symName: __ZNSt3__16vectorIN8facebook5react11StateUpdateENS_9allocatorIS3_EEE24__emplace_back_slow_pathIJS3_EEEPS3_DpOT_, symObjAddr: 0x1144, symBinAddr: 0x4B7E0, symSize: 0x134 }
  - { offset: 0x3D0F5B, size: 0x8, addend: 0x0, symName: __ZNK8facebook5react10EventQueue22experimental_flushSyncEv, symObjAddr: 0x72C, symBinAddr: 0x4B3A8, symSize: 0x10 }
  - { offset: 0x3D0F86, size: 0x8, addend: 0x0, symName: __ZNK8facebook5react10EventQueue22experimental_flushSyncEv, symObjAddr: 0x72C, symBinAddr: 0x4B3A8, symSize: 0x10 }
  - { offset: 0x3D0FAF, size: 0x8, addend: 0x0, symName: __ZNK8facebook5react10EventQueue6onBeatERNS_3jsi7RuntimeE, symObjAddr: 0x73C, symBinAddr: 0x4B3B8, symSize: 0x38 }
  - { offset: 0x3D1008, size: 0x8, addend: 0x0, symName: __ZNK8facebook5react10EventQueue17flushStateUpdatesEv, symObjAddr: 0x774, symBinAddr: 0x4B3F0, symSize: 0xC0 }
  - { offset: 0x3D12DD, size: 0x8, addend: 0x0, symName: __ZNK8facebook5react10EventQueue11flushEventsERNS_3jsi7RuntimeE, symObjAddr: 0x834, symBinAddr: 0x4B4B0, symSize: 0xC4 }
  - { offset: 0x3D1654, size: 0x8, addend: 0x0, symName: __ZNSt3__16vectorIN8facebook5react11StateUpdateENS_9allocatorIS3_EEE13__vdeallocateEv, symObjAddr: 0x161C, symBinAddr: 0x4BCA4, symSize: 0x38 }
  - { offset: 0x3D181D, size: 0x8, addend: 0x0, symName: __ZNSt3__16vectorIN8facebook5react8RawEventENS_9allocatorIS3_EEE13__vdeallocateEv, symObjAddr: 0x15B8, symBinAddr: 0x4BC40, symSize: 0x64 }
  - { offset: 0x3D1BAA, size: 0x8, addend: 0x0, symName: __ZNSt3__114__split_bufferIN8facebook5react8RawEventERNS_9allocatorIS3_EEED2Ev, symObjAddr: 0xEFC, symBinAddr: 0x4B794, symSize: 0x4C }
  - { offset: 0x3D2130, size: 0x8, addend: 0x0, symName: __ZNSt3__114__split_bufferIN8facebook5react11StateUpdateERNS_9allocatorIS3_EEED2Ev, symObjAddr: 0x1508, symBinAddr: 0x4BB90, symSize: 0x34 }
  - { offset: 0x3D220E, size: 0x8, addend: 0x0, symName: __ZNSt3__119__allocate_at_leastB8ne200100INS_9allocatorIN8facebook5react11StateUpdateEEEEENS_19__allocation_resultINS_16allocator_traitsIT_E7pointerEEERS8_m, symObjAddr: 0x12F0, symBinAddr: 0x4B978, symSize: 0x44 }
  - { offset: 0x3D22BA, size: 0x8, addend: 0x0, symName: __ZNSt3__128__exception_guard_exceptionsINS_29_AllocatorDestroyRangeReverseINS_9allocatorIN8facebook5react11StateUpdateEEEPS5_EEED2B8ne200100Ev, symObjAddr: 0x1458, symBinAddr: 0x4BAE0, symSize: 0x48 }
  - { offset: 0x3D2340, size: 0x8, addend: 0x0, symName: __ZNSt3__114__split_bufferIN8facebook5react11StateUpdateERNS_9allocatorIS3_EEE17__destruct_at_endB8ne200100EPS3_, symObjAddr: 0x153C, symBinAddr: 0x4BBC4, symSize: 0x7C }
  - { offset: 0x3D2378, size: 0x8, addend: 0x0, symName: __ZNSt3__114__split_bufferIN8facebook5react11StateUpdateERNS_9allocatorIS3_EEE17__destruct_at_endB8ne200100EPS3_, symObjAddr: 0x153C, symBinAddr: 0x4BBC4, symSize: 0x7C }
  - { offset: 0x3D24EF, size: 0x8, addend: 0x0, symName: '__ZNSt3__110__function6__funcIZN8facebook5react10EventQueueC1ENS3_19EventQueueProcessorENS_10unique_ptrINS3_9EventBeatENS_14default_deleteIS7_EEEEE3$_0NS_9allocatorISB_EEFvRNS2_3jsi7RuntimeEEED1Ev', symObjAddr: 0x1654, symBinAddr: 0x4BCDC, symSize: 0x4 }
  - { offset: 0x3D251B, size: 0x8, addend: 0x0, symName: '__ZNSt3__110__function6__funcIZN8facebook5react10EventQueueC1ENS3_19EventQueueProcessorENS_10unique_ptrINS3_9EventBeatENS_14default_deleteIS7_EEEEE3$_0NS_9allocatorISB_EEFvRNS2_3jsi7RuntimeEEED0Ev', symObjAddr: 0x1658, symBinAddr: 0x4BCE0, symSize: 0x4 }
  - { offset: 0x3D2636, size: 0x8, addend: 0x0, symName: '__ZNKSt3__110__function6__funcIZN8facebook5react10EventQueueC1ENS3_19EventQueueProcessorENS_10unique_ptrINS3_9EventBeatENS_14default_deleteIS7_EEEEE3$_0NS_9allocatorISB_EEFvRNS2_3jsi7RuntimeEEE7__cloneEv', symObjAddr: 0x165C, symBinAddr: 0x4BCE4, symSize: 0x34 }
  - { offset: 0x3D2837, size: 0x8, addend: 0x0, symName: '__ZNKSt3__110__function6__funcIZN8facebook5react10EventQueueC1ENS3_19EventQueueProcessorENS_10unique_ptrINS3_9EventBeatENS_14default_deleteIS7_EEEEE3$_0NS_9allocatorISB_EEFvRNS2_3jsi7RuntimeEEE7__cloneEPNS0_6__baseISH_EE', symObjAddr: 0x1690, symBinAddr: 0x4BD18, symSize: 0x14 }
  - { offset: 0x3D286D, size: 0x8, addend: 0x0, symName: '__ZNKSt3__110__function6__funcIZN8facebook5react10EventQueueC1ENS3_19EventQueueProcessorENS_10unique_ptrINS3_9EventBeatENS_14default_deleteIS7_EEEEE3$_0NS_9allocatorISB_EEFvRNS2_3jsi7RuntimeEEE7__cloneEPNS0_6__baseISH_EE', symObjAddr: 0x1690, symBinAddr: 0x4BD18, symSize: 0x14 }
  - { offset: 0x3D289B, size: 0x8, addend: 0x0, symName: '__ZNKSt3__110__function6__funcIZN8facebook5react10EventQueueC1ENS3_19EventQueueProcessorENS_10unique_ptrINS3_9EventBeatENS_14default_deleteIS7_EEEEE3$_0NS_9allocatorISB_EEFvRNS2_3jsi7RuntimeEEE7__cloneEPNS0_6__baseISH_EE', symObjAddr: 0x1690, symBinAddr: 0x4BD18, symSize: 0x14 }
  - { offset: 0x3D28C9, size: 0x8, addend: 0x0, symName: '__ZNKSt3__110__function6__funcIZN8facebook5react10EventQueueC1ENS3_19EventQueueProcessorENS_10unique_ptrINS3_9EventBeatENS_14default_deleteIS7_EEEEE3$_0NS_9allocatorISB_EEFvRNS2_3jsi7RuntimeEEE7__cloneEPNS0_6__baseISH_EE', symObjAddr: 0x1690, symBinAddr: 0x4BD18, symSize: 0x14 }
  - { offset: 0x3D28DE, size: 0x8, addend: 0x0, symName: '__ZNKSt3__110__function6__funcIZN8facebook5react10EventQueueC1ENS3_19EventQueueProcessorENS_10unique_ptrINS3_9EventBeatENS_14default_deleteIS7_EEEEE3$_0NS_9allocatorISB_EEFvRNS2_3jsi7RuntimeEEE7__cloneEPNS0_6__baseISH_EE', symObjAddr: 0x1690, symBinAddr: 0x4BD18, symSize: 0x14 }
  - { offset: 0x3D28F3, size: 0x8, addend: 0x0, symName: '__ZNSt3__110__function6__funcIZN8facebook5react10EventQueueC1ENS3_19EventQueueProcessorENS_10unique_ptrINS3_9EventBeatENS_14default_deleteIS7_EEEEE3$_0NS_9allocatorISB_EEFvRNS2_3jsi7RuntimeEEE7destroyEv', symObjAddr: 0x16A4, symBinAddr: 0x4BD2C, symSize: 0x4 }
  - { offset: 0x3D2948, size: 0x8, addend: 0x0, symName: '__ZNSt3__110__function6__funcIZN8facebook5react10EventQueueC1ENS3_19EventQueueProcessorENS_10unique_ptrINS3_9EventBeatENS_14default_deleteIS7_EEEEE3$_0NS_9allocatorISB_EEFvRNS2_3jsi7RuntimeEEE18destroy_deallocateEv', symObjAddr: 0x16A8, symBinAddr: 0x4BD30, symSize: 0x4 }
