---
triple:          'arm64-apple-darwin'
binary-path:     '/Users/uk-aplatts/Development/InjuryIQ/ios/DerivedData/Build/Intermediates.noindex/ArchiveIntermediates/InjuryIQ/IntermediateBuildFilesPath/UninstalledProducts/iphoneos/React_NativeModulesApple.framework/React_NativeModulesApple'
relocations:
  - { offset: 0x33, size: 0x8, addend: 0x0, symName: _React_NativeModulesAppleVersionString, symObjAddr: 0x0, symBinAddr: 0x1AB78, symSize: 0x0 }
  - { offset: 0x67, size: 0x8, addend: 0x0, symName: _React_NativeModulesAppleVersionNumber, symObjAddr: 0x38, symBinAddr: 0x1ABB0, symSize: 0x0 }
  - { offset: 0xD18, size: 0x8, addend: 0x0, symName: __ZN8facebook5react12_GLOBAL__N_112RCTConvertToIiEET_P13objc_selectorP11objc_object, symObjAddr: 0x368C, symBinAddr: 0x768C, symSize: 0x58 }
  - { offset: 0xD68, size: 0x8, addend: 0x0, symName: __ZN8facebook5react12_GLOBAL__N_112RCTConvertToIjEET_P13objc_selectorP11objc_object, symObjAddr: 0x36E4, symBinAddr: 0x76E4, symSize: 0x58 }
  - { offset: 0xDB8, size: 0x8, addend: 0x0, symName: __ZN8facebook5react12_GLOBAL__N_112RCTConvertToIlEET_P13objc_selectorP11objc_object, symObjAddr: 0x373C, symBinAddr: 0x773C, symSize: 0x58 }
  - { offset: 0xE08, size: 0x8, addend: 0x0, symName: __ZN8facebook5react12_GLOBAL__N_112RCTConvertToImEET_P13objc_selectorP11objc_object, symObjAddr: 0x3794, symBinAddr: 0x7794, symSize: 0x58 }
  - { offset: 0xE58, size: 0x8, addend: 0x0, symName: __ZN8facebook5react12_GLOBAL__N_112RCTConvertToIxEET_P13objc_selectorP11objc_object, symObjAddr: 0x37EC, symBinAddr: 0x77EC, symSize: 0x58 }
  - { offset: 0xEA8, size: 0x8, addend: 0x0, symName: __ZN8facebook5react12_GLOBAL__N_112RCTConvertToIyEET_P13objc_selectorP11objc_object, symObjAddr: 0x3844, symBinAddr: 0x7844, symSize: 0x58 }
  - { offset: 0xEF8, size: 0x8, addend: 0x0, symName: __ZN8facebook5react12_GLOBAL__N_112RCTConvertToIfEET_P13objc_selectorP11objc_object, symObjAddr: 0x389C, symBinAddr: 0x789C, symSize: 0x60 }
  - { offset: 0xF48, size: 0x8, addend: 0x0, symName: __ZN8facebook5react12_GLOBAL__N_112RCTConvertToIdEET_P13objc_selectorP11objc_object, symObjAddr: 0x38FC, symBinAddr: 0x78FC, symSize: 0x60 }
  - { offset: 0xF98, size: 0x8, addend: 0x0, symName: __ZN8facebook5react12_GLOBAL__N_112RCTConvertToIbEET_P13objc_selectorP11objc_object, symObjAddr: 0x395C, symBinAddr: 0x795C, symSize: 0x58 }
  - { offset: 0xFE8, size: 0x8, addend: 0x0, symName: __ZN8facebook5react12_GLOBAL__N_112RCTConvertToIP13objc_selectorEET_S4_P11objc_object, symObjAddr: 0x39B4, symBinAddr: 0x79B4, symSize: 0x58 }
  - { offset: 0x1038, size: 0x8, addend: 0x0, symName: __ZN8facebook5react12_GLOBAL__N_112RCTConvertToIPKcEET_P13objc_selectorP11objc_object, symObjAddr: 0x3A0C, symBinAddr: 0x7A0C, symSize: 0x58 }
  - { offset: 0x1088, size: 0x8, addend: 0x0, symName: __ZN8facebook5react12_GLOBAL__N_112RCTConvertToIPvEET_P13objc_selectorP11objc_object, symObjAddr: 0x3A64, symBinAddr: 0x7A64, symSize: 0x58 }
  - { offset: 0x10D8, size: 0x8, addend: 0x0, symName: __ZN8facebook5react12_GLOBAL__N_112RCTConvertToIU8__strongP11objc_objectEET_P13objc_selectorS4_, symObjAddr: 0x3ABC, symBinAddr: 0x7ABC, symSize: 0x5C }
  - { offset: 0x1128, size: 0x8, addend: 0x0, symName: __ZN8facebook5react12_GLOBAL__N_17getTypeERNS_3jsi7RuntimeERKNS2_5ValueE, symObjAddr: 0x3B18, symBinAddr: 0x7B18, symSize: 0x1A4 }
  - { offset: 0x13E27, size: 0x8, addend: 0x0, symName: __ZNSt3__119piecewise_constructE, symObjAddr: 0x9596, symBinAddr: 0x1ADA6, symSize: 0x0 }
  - { offset: 0x175DC, size: 0x8, addend: 0x0, symName: __ZNSt3__1plB8ne200100IcNS_11char_traitsIcEENS_9allocatorIcEEEENS_12basic_stringIT_T0_T1_EEPKS6_OS9_, symObjAddr: 0x4C78, symBinAddr: 0x8C78, symSize: 0x5C }
  - { offset: 0x176FC, size: 0x8, addend: 0x0, symName: __ZNSt3__1plB8ne200100IcNS_11char_traitsIcEENS_9allocatorIcEEEENS_12basic_stringIT_T0_T1_EEOS9_PKS6_, symObjAddr: 0x3578, symBinAddr: 0x7578, symSize: 0x5C }
  - { offset: 0x17864, size: 0x8, addend: 0x0, symName: __ZNSt3__119__allocate_at_leastB8ne200100INS_9allocatorIN8facebook5react22ObjCInteropTurboModule16MethodDescriptorEEEEENS_19__allocation_resultINS_16allocator_traitsIT_E7pointerEEERS9_m, symObjAddr: 0x54B4, symBinAddr: 0x948C, symSize: 0x44 }
  - { offset: 0x1790D, size: 0x8, addend: 0x0, symName: __ZNSt3__134__uninitialized_allocator_relocateB8ne200100INS_9allocatorIN8facebook5react22ObjCInteropTurboModule16MethodDescriptorEEEPS5_EEvRT_T0_SA_SA_, symObjAddr: 0x54F8, symBinAddr: 0x94D0, symSize: 0xC0 }
  - { offset: 0x17921, size: 0x8, addend: 0x0, symName: __ZNSt3__134__uninitialized_allocator_relocateB8ne200100INS_9allocatorIN8facebook5react22ObjCInteropTurboModule16MethodDescriptorEEEPS5_EEvRT_T0_SA_SA_, symObjAddr: 0x54F8, symBinAddr: 0x94D0, symSize: 0xC0 }
  - { offset: 0x17CE9, size: 0x8, addend: 0x0, symName: __ZNSt3__1eqB8ne200100IcNS_11char_traitsIcEENS_9allocatorIcEEEEbRKNS_12basic_stringIT_T0_T1_EEPKS6_, symObjAddr: 0x1764, symBinAddr: 0x5764, symSize: 0x80 }
  - { offset: 0x18353, size: 0x8, addend: 0x0, symName: __ZNSt3__1plB8ne200100IcNS_11char_traitsIcEENS_9allocatorIcEEEENS_12basic_stringIT_T0_T1_EERKS9_PKS6_, symObjAddr: 0x35D4, symBinAddr: 0x75D4, symSize: 0xB8 }
  - { offset: 0x1875B, size: 0x8, addend: 0x0, symName: __ZNSt3__114__split_bufferIN8facebook3jsi10PropNameIDERNS_9allocatorIS3_EEED2Ev, symObjAddr: 0x6940, symBinAddr: 0xA728, symSize: 0x58 }
  - { offset: 0x188B0, size: 0x8, addend: 0x0, symName: __ZNSt3__119__allocate_at_leastB8ne200100INS_9allocatorIPK13RCTMethodInfoEEEENS_19__allocation_resultINS_16allocator_traitsIT_E7pointerEEERS8_m, symObjAddr: 0x5128, symBinAddr: 0x9128, symSize: 0x34 }
  - { offset: 0x18959, size: 0x8, addend: 0x0, symName: __ZSt28__throw_bad_array_new_lengthB8ne200100v, symObjAddr: 0x515C, symBinAddr: 0x915C, symSize: 0x28 }
  - { offset: 0x1896D, size: 0x8, addend: 0x0, symName: __ZNSt3__120__throw_length_errorB8ne200100EPKc, symObjAddr: 0x50B4, symBinAddr: 0x90B4, symSize: 0x50 }
  - { offset: 0x18B4A, size: 0x8, addend: 0x0, symName: __ZNSt3__120__throw_out_of_rangeB8ne200100EPKc, symObjAddr: 0x5384, symBinAddr: 0x9370, symSize: 0x50 }
  - { offset: 0x1946D, size: 0x8, addend: 0x0, symName: __ZNSt3__112__destroy_atB8ne200100INS_4pairIKNS_12basic_stringIcNS_11char_traitsIcEENS_9allocatorIcEEEENS_10shared_ptrIN8facebook5react18IAsyncEventEmitterEEEEELi0EEEvPT_, symObjAddr: 0x5D44, symBinAddr: 0x9D1C, symSize: 0x3C }
  - { offset: 0x1C2D7, size: 0x8, addend: 0x0, symName: __ZSt28__throw_bad_array_new_lengthB8ne200100v, symObjAddr: 0x515C, symBinAddr: 0x915C, symSize: 0x28 }
  - { offset: 0x1D9B4, size: 0x8, addend: 0x0, symName: __ZN8facebook5react22ObjCInteropTurboModuleC2ERKNS0_15ObjCTurboModule10InitParamsE, symObjAddr: 0x0, symBinAddr: 0x4000, symSize: 0x168C }
  - { offset: 0x1D9DE, size: 0x8, addend: 0x0, symName: __ZZN8facebook5react22ObjCInteropTurboModuleC1ERKNS0_15ObjCTurboModule10InitParamsEE20getConstantsSelector, symObjAddr: 0xF49E0, symBinAddr: 0x2CEB8, symSize: 0x0 }
  - { offset: 0x22D0B, size: 0x8, addend: 0x0, symName: __ZN8facebook5react11TurboModule6createERNS_3jsi7RuntimeERKNS2_10PropNameIDE, symObjAddr: 0x5A48, symBinAddr: 0x9A20, symSize: 0x240 }
  - { offset: 0x238D7, size: 0x8, addend: 0x0, symName: __ZN8facebook5react22ObjCInteropTurboModule6createERNS_3jsi7RuntimeERKNS2_10PropNameIDE, symObjAddr: 0x18DC, symBinAddr: 0x58DC, symSize: 0x434 }
  - { offset: 0x25780, size: 0x8, addend: 0x0, symName: __ZNSt3__112basic_stringIcNS_11char_traitsIcEENS_9allocatorIcEEE25__init_copy_ctor_externalEPKcm, symObjAddr: 0x5420, symBinAddr: 0x940C, symSize: 0x80 }
  - { offset: 0x259C6, size: 0x8, addend: 0x0, symName: __ZNSt3__16vectorIPK13RCTMethodInfoNS_9allocatorIS3_EEE9push_backB8ne200100ERKS3_, symObjAddr: 0x4FD0, symBinAddr: 0x8FD0, symSize: 0xD0 }
  - { offset: 0x25D98, size: 0x8, addend: 0x0, symName: __ZNSt3__16vectorIPK13RCTMethodInfoNS_9allocatorIS3_EEE20__throw_length_errorB8ne200100Ev, symObjAddr: 0x50A0, symBinAddr: 0x90A0, symSize: 0x14 }
  - { offset: 0x25DC3, size: 0x8, addend: 0x0, symName: __ZNSt3__16vectorIN8facebook5react12_GLOBAL__N_114ExportedMethodENS_9allocatorIS4_EEE26__swap_out_circular_bufferERNS_14__split_bufferIS4_RS6_EE, symObjAddr: 0x5210, symBinAddr: 0x91FC, symSize: 0xDC }
  - { offset: 0x26037, size: 0x8, addend: 0x0, symName: __ZNSt3__114__split_bufferIN8facebook5react12_GLOBAL__N_114ExportedMethodERNS_9allocatorIS4_EEED1Ev, symObjAddr: 0x52EC, symBinAddr: 0x92D8, symSize: 0x4C }
  - { offset: 0x26169, size: 0x8, addend: 0x0, symName: __ZNSt3__112basic_stringIcNS_11char_traitsIcEENS_9allocatorIcEEEC2B8ne200100ILi0EEEPKc, symObjAddr: 0x56B8, symBinAddr: 0x9690, symSize: 0xA4 }
  - { offset: 0x263C9, size: 0x8, addend: 0x0, symName: __ZNSt3__16vectorIN8facebook5react22ObjCInteropTurboModule16MethodDescriptorENS_9allocatorIS4_EEE24__emplace_back_slow_pathIJS4_EEEPS4_DpOT_, symObjAddr: 0x575C, symBinAddr: 0x9734, symSize: 0x144 }
  - { offset: 0x26431, size: 0x8, addend: 0x0, symName: __ZNSt3__114__split_bufferIN8facebook5react12_GLOBAL__N_114ExportedMethodERNS_9allocatorIS4_EEEC1EmmS7_, symObjAddr: 0x5198, symBinAddr: 0x9184, symSize: 0x78 }
  - { offset: 0x2652E, size: 0x8, addend: 0x0, symName: __ZNSt3__16vectorIN8facebook5react12_GLOBAL__N_114ExportedMethodENS_9allocatorIS4_EEE26__swap_out_circular_bufferERNS_14__split_bufferIS4_RS6_EE, symObjAddr: 0x5210, symBinAddr: 0x91FC, symSize: 0xDC }
  - { offset: 0x26539, size: 0x8, addend: 0x0, symName: __ZNSt3__16vectorIN8facebook5react22ObjCInteropTurboModule16MethodDescriptorENS_9allocatorIS4_EEE7reserveEm, symObjAddr: 0x168C, symBinAddr: 0x568C, symSize: 0xD8 }
  - { offset: 0x26775, size: 0x8, addend: 0x0, symName: __ZNSt3__112__hash_tableINS_17__hash_value_typeINS_12basic_stringIcNS_11char_traitsIcEENS_9allocatorIcEEEEN8facebook5react11TurboModule14MethodMetadataEEENS_22__unordered_map_hasherIS7_SC_NS_4hashIS7_EENS_8equal_toIS7_EELb1EEENS_21__unordered_map_equalIS7_SC_SH_SF_Lb1EEENS5_ISC_EEE25__emplace_unique_key_argsIS7_JRKNS_21piecewise_construct_tENS_5tupleIJOS7_EEENSR_IJEEEEEENS_4pairINS_15__hash_iteratorIPNS_11__hash_nodeISC_PvEEEEbEERKT_DpOT0_, symObjAddr: 0x6B04, symBinAddr: 0xA870, symSize: 0x26C }
  - { offset: 0x26E8F, size: 0x8, addend: 0x0, symName: __ZNSt3__16vectorIN8facebook5react22ObjCInteropTurboModule16MethodDescriptorENS_9allocatorIS4_EEE24__emplace_back_slow_pathIJS4_EEEPS4_DpOT_, symObjAddr: 0x575C, symBinAddr: 0x9734, symSize: 0x144 }
  - { offset: 0x271FC, size: 0x8, addend: 0x0, symName: __ZNSt3__16vectorIN8facebook5react12_GLOBAL__N_114ExportedMethodENS_9allocatorIS4_EEED1B8ne200100Ev, symObjAddr: 0x17E4, symBinAddr: 0x57E4, symSize: 0x60 }
  - { offset: 0x27359, size: 0x8, addend: 0x0, symName: __ZNSt3__114__split_bufferIN8facebook5react12_GLOBAL__N_114ExportedMethodERNS_9allocatorIS4_EEEC1EmmS7_, symObjAddr: 0x5198, symBinAddr: 0x9184, symSize: 0x78 }
  - { offset: 0x27382, size: 0x8, addend: 0x0, symName: __ZN8facebook5react12_GLOBAL__N_136ObjCInteropTurboModuleParseExceptionC1ENSt3__112basic_stringIcNS3_11char_traitsIcEENS3_9allocatorIcEEEES9_S9_, symObjAddr: 0x4CD4, symBinAddr: 0x8CD4, symSize: 0x2B8 }
  - { offset: 0x28757, size: 0x8, addend: 0x0, symName: __ZN8facebook5react12_GLOBAL__N_114ExportedMethodD1Ev, symObjAddr: 0x4F90, symBinAddr: 0x8F90, symSize: 0x40 }
  - { offset: 0x2896B, size: 0x8, addend: 0x0, symName: __ZNSt3__16vectorIN8facebook5react22ObjCInteropTurboModule16MethodDescriptorENS_9allocatorIS4_EEE16__destroy_vectorclB8ne200100Ev, symObjAddr: 0x58A0, symBinAddr: 0x9878, symSize: 0x40 }
  - { offset: 0x28A18, size: 0x8, addend: 0x0, symName: __ZN8facebook5react15ObjCTurboModuleD2Ev, symObjAddr: 0x1844, symBinAddr: 0x5844, symSize: 0x94 }
  - { offset: 0x28DB1, size: 0x8, addend: 0x0, symName: __ZNSt3__114__split_bufferIN8facebook5react22ObjCInteropTurboModule16MethodDescriptorERNS_9allocatorIS4_EEED2Ev, symObjAddr: 0x5630, symBinAddr: 0x9608, symSize: 0x34 }
  - { offset: 0x28E91, size: 0x8, addend: 0x0, symName: __ZNSt3__119__allocate_at_leastB8ne200100INS_9allocatorIN8facebook5react22ObjCInteropTurboModule16MethodDescriptorEEEEENS_19__allocation_resultINS_16allocator_traitsIT_E7pointerEEERS9_m, symObjAddr: 0x54B4, symBinAddr: 0x948C, symSize: 0x44 }
  - { offset: 0x28EDD, size: 0x8, addend: 0x0, symName: __ZNSt3__112basic_stringIcNS_11char_traitsIcEENS_9allocatorIcEEE20__throw_out_of_rangeB8ne200100Ev, symObjAddr: 0x5370, symBinAddr: 0x935C, symSize: 0x14 }
  - { offset: 0x28EF5, size: 0x8, addend: 0x0, symName: __ZNSt3__120__throw_out_of_rangeB8ne200100EPKc, symObjAddr: 0x5384, symBinAddr: 0x9370, symSize: 0x50 }
  - { offset: 0x28FE8, size: 0x8, addend: 0x0, symName: __ZNSt3__116allocator_traitsINS_9allocatorIN8facebook5react12_GLOBAL__N_114ExportedMethodEEEE7destroyB8ne200100IS5_vLi0EEEvRS6_PT_, symObjAddr: 0x5338, symBinAddr: 0x9324, symSize: 0x38 }
  - { offset: 0x292CA, size: 0x8, addend: 0x0, symName: __ZNSt3__110shared_ptrIN8facebook5react23NativeMethodCallInvokerEED2B8ne200100Ev, symObjAddr: 0x592C, symBinAddr: 0x9904, symSize: 0x58 }
  - { offset: 0x2935C, size: 0x8, addend: 0x0, symName: __ZNSt3__110unique_ptrIN8facebook3jsi10WeakObjectENS_14default_deleteIS3_EEE5resetB8ne200100EPS3_, symObjAddr: 0x5C88, symBinAddr: 0x9C60, symSize: 0x48 }
  - { offset: 0x29425, size: 0x8, addend: 0x0, symName: __ZNSt3__112__hash_tableINS_17__hash_value_typeINS_12basic_stringIcNS_11char_traitsIcEENS_9allocatorIcEEEENS_10shared_ptrIN8facebook5react18IAsyncEventEmitterEEEEENS_22__unordered_map_hasherIS7_SD_NS_4hashIS7_EENS_8equal_toIS7_EELb1EEENS_21__unordered_map_equalIS7_SD_SI_SG_Lb1EEENS5_ISD_EEED2Ev, symObjAddr: 0x5CD0, symBinAddr: 0x9CA8, symSize: 0x38 }
  - { offset: 0x29580, size: 0x8, addend: 0x0, symName: __ZNSt3__112__hash_tableINS_17__hash_value_typeINS_12basic_stringIcNS_11char_traitsIcEENS_9allocatorIcEEEEN8facebook5react11TurboModule14MethodMetadataEEENS_22__unordered_map_hasherIS7_SC_NS_4hashIS7_EENS_8equal_toIS7_EELb1EEENS_21__unordered_map_equalIS7_SC_SH_SF_Lb1EEENS5_ISC_EEED2Ev, symObjAddr: 0x5DD8, symBinAddr: 0x9D58, symSize: 0x38 }
  - { offset: 0x29733, size: 0x8, addend: 0x0, symName: __ZN8facebook5react22ObjCInteropTurboModuleC1ERKNS0_15ObjCTurboModule10InitParamsE, symObjAddr: 0x18D8, symBinAddr: 0x58D8, symSize: 0x4 }
  - { offset: 0x2976F, size: 0x8, addend: 0x0, symName: __ZN8facebook5react22ObjCInteropTurboModuleC1ERKNS0_15ObjCTurboModule10InitParamsE, symObjAddr: 0x18D8, symBinAddr: 0x58D8, symSize: 0x4 }
  - { offset: 0x29ED7, size: 0x8, addend: 0x0, symName: __ZN8facebook5react22ObjCInteropTurboModule12getConstantsERNS_3jsi7RuntimeE, symObjAddr: 0x1D10, symBinAddr: 0x5D10, symSize: 0x248 }
  - { offset: 0x2A6C3, size: 0x8, addend: 0x0, symName: __ZNSt3__110__function12__value_funcIFN8facebook3jsi5ValueERNS3_7RuntimeERKS4_PS7_mEEC2B8ne200100EOSB_, symObjAddr: 0x66D4, symBinAddr: 0xA504, symSize: 0x64 }
  - { offset: 0x2A988, size: 0x8, addend: 0x0, symName: __ZN8facebook5react22ObjCInteropTurboModule16exportsConstantsEv, symObjAddr: 0x4660, symBinAddr: 0x8660, symSize: 0xA8 }
  - { offset: 0x2AB16, size: 0x8, addend: 0x0, symName: __ZN8facebook5react22ObjCInteropTurboModule29_logLegacyArchitectureWarningEP8NSStringRKNSt3__112basic_stringIcNS4_11char_traitsIcEENS4_9allocatorIcEEEE, symObjAddr: 0x1F58, symBinAddr: 0x5F58, symSize: 0x188 }
  - { offset: 0x2B4B0, size: 0x8, addend: 0x0, symName: __ZNSt3__112__hash_tableINS_12basic_stringIcNS_11char_traitsIcEENS_9allocatorIcEEEENS_4hashIS6_EENS_8equal_toIS6_EENS4_IS6_EEE25__emplace_unique_key_argsIS6_JRKS6_EEENS_4pairINS_15__hash_iteratorIPNS_11__hash_nodeIS6_PvEEEEbEERKT_DpOT0_, symObjAddr: 0x76C0, symBinAddr: 0xB334, symSize: 0x25C }
  - { offset: 0x2BA38, size: 0x8, addend: 0x0, symName: __ZN8facebook5react22ObjCInteropTurboModule16setInvocationArgERNS_3jsi7RuntimeEPKcRKNSt3__112basic_stringIcNS7_11char_traitsIcEENS7_9allocatorIcEEEERKNS2_5ValueEmP12NSInvocationP14NSMutableArray, symObjAddr: 0x20E0, symBinAddr: 0x60E0, symSize: 0x1498 }
  - { offset: 0x2F66E, size: 0x8, addend: 0x0, symName: __ZNSt3__112basic_stringIcNS_11char_traitsIcEENS_9allocatorIcEEEC2B8ne200100ENS_24__uninitialized_size_tagEmRKS4_, symObjAddr: 0x6738, symBinAddr: 0xA568, symSize: 0x78 }
  - { offset: 0x2F810, size: 0x8, addend: 0x0, symName: __ZNSt3__16vectorIN8facebook3jsi10PropNameIDENS_9allocatorIS3_EEE7reserveEm, symObjAddr: 0x67B0, symBinAddr: 0xA5E0, symSize: 0x8C }
  - { offset: 0x2F8F0, size: 0x8, addend: 0x0, symName: ____ZN8facebook5react22ObjCInteropTurboModule16setInvocationArgERNS_3jsi7RuntimeEPKcRKNSt3__112basic_stringIcNS7_11char_traitsIcEENS7_9allocatorIcEEEERKNS2_5ValueEmP12NSInvocationP14NSMutableArray_block_invoke, symObjAddr: 0x3CBC, symBinAddr: 0x7CBC, symSize: 0xDC }
  - { offset: 0x2F977, size: 0x8, addend: 0x0, symName: ___copy_helper_block_ea8_32b, symObjAddr: 0x3D98, symBinAddr: 0x7D98, symSize: 0x10 }
  - { offset: 0x2F9A0, size: 0x8, addend: 0x0, symName: ___destroy_helper_block_ea8_32s, symObjAddr: 0x3DA8, symBinAddr: 0x7DA8, symSize: 0x8 }
  - { offset: 0x2F9BF, size: 0x8, addend: 0x0, symName: __ZN8facebook5react22ObjCInteropTurboModule25convertReturnIdToJSIValueERNS_3jsi7RuntimeEPKcNS0_26TurboModuleMethodValueKindEP11objc_object, symObjAddr: 0x3DB0, symBinAddr: 0x7DB0, symSize: 0x318 }
  - { offset: 0x30919, size: 0x8, addend: 0x0, symName: __ZN8facebook5react22ObjCInteropTurboModule19getArgumentTypeNameERNS_3jsi7RuntimeEP8NSStringi, symObjAddr: 0x40C8, symBinAddr: 0x80C8, symSize: 0x598 }
  - { offset: 0x326C0, size: 0x8, addend: 0x0, symName: __ZN8facebook5react22ObjCInteropTurboModule16getPropertyNamesERNS_3jsi7RuntimeE, symObjAddr: 0x4708, symBinAddr: 0x8708, symSize: 0x1E0 }
  - { offset: 0x32CEF, size: 0x8, addend: 0x0, symName: __ZN8facebook5react11TurboModule16getPropertyNamesERNS_3jsi7RuntimeE, symObjAddr: 0x48E8, symBinAddr: 0x88E8, symSize: 0xE4 }
  - { offset: 0x32FEF, size: 0x8, addend: 0x0, symName: __ZNSt3__16vectorIN8facebook3jsi10PropNameIDENS_9allocatorIS3_EEE9push_backB8ne200100EOS3_, symObjAddr: 0x49CC, symBinAddr: 0x89CC, symSize: 0xF0 }
  - { offset: 0x33393, size: 0x8, addend: 0x0, symName: __ZNSt3__16vectorIN8facebook3jsi10PropNameIDENS_9allocatorIS3_EEE16__destroy_vectorclB8ne200100Ev, symObjAddr: 0x6998, symBinAddr: 0xA780, symSize: 0x78 }
  - { offset: 0x335D3, size: 0x8, addend: 0x0, symName: __ZNSt3__16vectorIN8facebook3jsi10PropNameIDENS_9allocatorIS3_EEE7reserveEm, symObjAddr: 0x67B0, symBinAddr: 0xA5E0, symSize: 0x8C }
  - { offset: 0x33A1F, size: 0x8, addend: 0x0, symName: __ZNSt3__16vectorIN8facebook3jsi10PropNameIDENS_9allocatorIS3_EEE26__swap_out_circular_bufferERNS_14__split_bufferIS3_RS5_EE, symObjAddr: 0x6850, symBinAddr: 0xA66C, symSize: 0xBC }
  - { offset: 0x33D03, size: 0x8, addend: 0x0, symName: __ZNSt3__114__split_bufferIN8facebook3jsi10PropNameIDERNS_9allocatorIS3_EEED2Ev, symObjAddr: 0x6940, symBinAddr: 0xA728, symSize: 0x58 }
  - { offset: 0x33E96, size: 0x8, addend: 0x0, symName: __ZNSt3__16vectorIN8facebook3jsi10PropNameIDENS_9allocatorIS3_EEE26__swap_out_circular_bufferERNS_14__split_bufferIS3_RS5_EE, symObjAddr: 0x6850, symBinAddr: 0xA66C, symSize: 0xBC }
  - { offset: 0x33EBD, size: 0x8, addend: 0x0, symName: __ZN8facebook5react22ObjCInteropTurboModuleD1Ev, symObjAddr: 0x4ABC, symBinAddr: 0x8ABC, symSize: 0x5C }
  - { offset: 0x34012, size: 0x8, addend: 0x0, symName: __ZN8facebook5react22ObjCInteropTurboModuleD0Ev, symObjAddr: 0x4B18, symBinAddr: 0x8B18, symSize: 0x60 }
  - { offset: 0x341B8, size: 0x8, addend: 0x0, symName: __ZN8facebook5react11TurboModule3getERNS_3jsi7RuntimeERKNS2_10PropNameIDE, symObjAddr: 0x4B78, symBinAddr: 0x8B78, symSize: 0xF0 }
  - { offset: 0x34382, size: 0x8, addend: 0x0, symName: __ZNK8facebook3jsi6Object11setPropertyIRNS0_5ValueEEEvRNS0_7RuntimeERKNS0_10PropNameIDEOT_, symObjAddr: 0x6A10, symBinAddr: 0xA7F8, symSize: 0x78 }
  - { offset: 0x344E3, size: 0x8, addend: 0x0, symName: __ZN8facebook5react12_GLOBAL__N_136ObjCInteropTurboModuleParseExceptionD1Ev, symObjAddr: 0x4F8C, symBinAddr: 0x8F8C, symSize: 0x4 }
  - { offset: 0x34505, size: 0x8, addend: 0x0, symName: __ZN8facebook5react12_GLOBAL__N_136ObjCInteropTurboModuleParseExceptionD1Ev, symObjAddr: 0x4F8C, symBinAddr: 0x8F8C, symSize: 0x4 }
  - { offset: 0x34787, size: 0x8, addend: 0x0, symName: __ZNSt3__16vectorIPK13RCTMethodInfoNS_9allocatorIS3_EEE20__throw_length_errorB8ne200100Ev, symObjAddr: 0x50A0, symBinAddr: 0x90A0, symSize: 0x14 }
  - { offset: 0x3479F, size: 0x8, addend: 0x0, symName: __ZNSt3__120__throw_length_errorB8ne200100EPKc, symObjAddr: 0x50B4, symBinAddr: 0x90B4, symSize: 0x50 }
  - { offset: 0x347AA, size: 0x8, addend: 0x0, symName: __ZNSt12length_errorC1B8ne200100EPKc, symObjAddr: 0x5104, symBinAddr: 0x9104, symSize: 0x24 }
  - { offset: 0x348CC, size: 0x8, addend: 0x0, symName: __ZNSt12out_of_rangeC1B8ne200100EPKc, symObjAddr: 0x53D4, symBinAddr: 0x93C0, symSize: 0x24 }
  - { offset: 0x34953, size: 0x8, addend: 0x0, symName: __ZNSt3__112basic_stringIcNS_11char_traitsIcEENS_9allocatorIcEEE20__throw_length_errorB8ne200100Ev, symObjAddr: 0x53F8, symBinAddr: 0x93E4, symSize: 0x14 }
  - { offset: 0x3496B, size: 0x8, addend: 0x0, symName: __ZN8facebook5react12_GLOBAL__N_136ObjCInteropTurboModuleParseExceptionD0Ev, symObjAddr: 0x540C, symBinAddr: 0x93F8, symSize: 0x14 }
  - { offset: 0x34992, size: 0x8, addend: 0x0, symName: __ZN8facebook5react12_GLOBAL__N_136ObjCInteropTurboModuleParseExceptionD0Ev, symObjAddr: 0x540C, symBinAddr: 0x93F8, symSize: 0x14 }
  - { offset: 0x34B3C, size: 0x8, addend: 0x0, symName: __ZNSt3__128__exception_guard_exceptionsINS_29_AllocatorDestroyRangeReverseINS_9allocatorIN8facebook5react22ObjCInteropTurboModule16MethodDescriptorEEEPS6_EEED2B8ne200100Ev, symObjAddr: 0x55B8, symBinAddr: 0x9590, symSize: 0x34 }
  - { offset: 0x34B7B, size: 0x8, addend: 0x0, symName: __ZNKSt3__129_AllocatorDestroyRangeReverseINS_9allocatorIN8facebook5react22ObjCInteropTurboModule16MethodDescriptorEEEPS5_EclB8ne200100Ev, symObjAddr: 0x55EC, symBinAddr: 0x95C4, symSize: 0x44 }
  - { offset: 0x34E15, size: 0x8, addend: 0x0, symName: __ZNSt3__114__split_bufferIN8facebook5react22ObjCInteropTurboModule16MethodDescriptorERNS_9allocatorIS4_EEE17__destruct_at_endB8ne200100EPS4_, symObjAddr: 0x5664, symBinAddr: 0x963C, symSize: 0x54 }
  - { offset: 0x34E4D, size: 0x8, addend: 0x0, symName: __ZNSt3__114__split_bufferIN8facebook5react22ObjCInteropTurboModule16MethodDescriptorERNS_9allocatorIS4_EEE17__destruct_at_endB8ne200100EPS4_, symObjAddr: 0x5664, symBinAddr: 0x963C, symSize: 0x54 }
  - { offset: 0x35074, size: 0x8, addend: 0x0, symName: __ZNSt3__16vectorIN8facebook5react22ObjCInteropTurboModule16MethodDescriptorENS_9allocatorIS4_EEE5clearB8ne200100Ev, symObjAddr: 0x58E0, symBinAddr: 0x98B8, symSize: 0x4C }
  - { offset: 0x352AF, size: 0x8, addend: 0x0, symName: __ZN8facebook5react11TurboModuleD1Ev, symObjAddr: 0x5984, symBinAddr: 0x995C, symSize: 0x60 }
  - { offset: 0x35523, size: 0x8, addend: 0x0, symName: __ZN8facebook5react11TurboModuleD0Ev, symObjAddr: 0x59E4, symBinAddr: 0x99BC, symSize: 0x64 }
  - { offset: 0x35A84, size: 0x8, addend: 0x0, symName: __ZNSt3__112__hash_tableINS_17__hash_value_typeINS_12basic_stringIcNS_11char_traitsIcEENS_9allocatorIcEEEEN8facebook5react11TurboModule14MethodMetadataEEENS_22__unordered_map_hasherIS7_SC_NS_4hashIS7_EENS_8equal_toIS7_EELb1EEENS_21__unordered_map_equalIS7_SC_SH_SF_Lb1EEENS5_ISC_EEE4findIS7_EENS_15__hash_iteratorIPNS_11__hash_nodeISC_PvEEEERKT_, symObjAddr: 0x5EAC, symBinAddr: 0x9DD4, symSize: 0xF8 }
  - { offset: 0x35F07, size: 0x8, addend: 0x0, symName: __ZNSt3__112__hash_tableINS_17__hash_value_typeINS_12basic_stringIcNS_11char_traitsIcEENS_9allocatorIcEEEENS_10shared_ptrIN8facebook5react18IAsyncEventEmitterEEEEENS_22__unordered_map_hasherIS7_SD_NS_4hashIS7_EENS_8equal_toIS7_EELb1EEENS_21__unordered_map_equalIS7_SD_SI_SG_Lb1EEENS5_ISD_EEE17__deallocate_nodeEPNS_16__hash_node_baseIPNS_11__hash_nodeISD_PvEEEE, symObjAddr: 0x5D08, symBinAddr: 0x9CE0, symSize: 0x3C }
  - { offset: 0x36281, size: 0x8, addend: 0x0, symName: __ZNSt3__112__hash_tableINS_17__hash_value_typeINS_12basic_stringIcNS_11char_traitsIcEENS_9allocatorIcEEEEN8facebook5react11TurboModule14MethodMetadataEEENS_22__unordered_map_hasherIS7_SC_NS_4hashIS7_EENS_8equal_toIS7_EELb1EEENS_21__unordered_map_equalIS7_SC_SH_SF_Lb1EEENS5_ISC_EEE17__deallocate_nodeEPNS_16__hash_node_baseIPNS_11__hash_nodeISC_PvEEEE, symObjAddr: 0x5E10, symBinAddr: 0x9D90, symSize: 0x44 }
  - { offset: 0x366C9, size: 0x8, addend: 0x0, symName: __ZNKSt3__113__string_hashIcNS_9allocatorIcEEEclB8ne200100ERKNS_12basic_stringIcNS_11char_traitsIcEES2_EE, symObjAddr: 0x5FA4, symBinAddr: 0x9ECC, symSize: 0x3C }
  - { offset: 0x36799, size: 0x8, addend: 0x0, symName: __ZNKSt3__18equal_toINS_12basic_stringIcNS_11char_traitsIcEENS_9allocatorIcEEEEEclB8ne200100ERKS6_S9_, symObjAddr: 0x644C, symBinAddr: 0xA374, symSize: 0x70 }
  - { offset: 0x367E4, size: 0x8, addend: 0x0, symName: __ZNKSt3__18equal_toINS_12basic_stringIcNS_11char_traitsIcEENS_9allocatorIcEEEEEclB8ne200100ERKS6_S9_, symObjAddr: 0x644C, symBinAddr: 0xA374, symSize: 0x70 }
  - { offset: 0x36815, size: 0x8, addend: 0x0, symName: __ZNKSt3__18equal_toINS_12basic_stringIcNS_11char_traitsIcEENS_9allocatorIcEEEEEclB8ne200100ERKS6_S9_, symObjAddr: 0x644C, symBinAddr: 0xA374, symSize: 0x70 }
  - { offset: 0x36831, size: 0x8, addend: 0x0, symName: __ZNKSt3__18equal_toINS_12basic_stringIcNS_11char_traitsIcEENS_9allocatorIcEEEEEclB8ne200100ERKS6_S9_, symObjAddr: 0x644C, symBinAddr: 0xA374, symSize: 0x70 }
  - { offset: 0x36935, size: 0x8, addend: 0x0, symName: __ZNKSt3__121__murmur2_or_cityhashImLm64EEclB8ne200100EPKvm, symObjAddr: 0x5FE0, symBinAddr: 0x9F08, symSize: 0x208 }
  - { offset: 0x36FA3, size: 0x8, addend: 0x0, symName: __ZNSt3__121__murmur2_or_cityhashImLm64EE18__hash_len_0_to_16B8ne200100EPKcm, symObjAddr: 0x61E8, symBinAddr: 0xA110, symSize: 0xF8 }
  - { offset: 0x371B0, size: 0x8, addend: 0x0, symName: __ZNSt3__121__murmur2_or_cityhashImLm64EE19__hash_len_33_to_64B8ne200100EPKcm, symObjAddr: 0x638C, symBinAddr: 0xA2B4, symSize: 0xC0 }
  - { offset: 0x3741E, size: 0x8, addend: 0x0, symName: __ZNSt3__121__murmur2_or_cityhashImLm64EE19__hash_len_17_to_32B8ne200100EPKcm, symObjAddr: 0x62E0, symBinAddr: 0xA208, symSize: 0xAC }
  - { offset: 0x3758D, size: 0x8, addend: 0x0, symName: __ZNSt3__110__function6__funcIZN8facebook5react11TurboModule6createERNS2_3jsi7RuntimeERKNS5_10PropNameIDEEUlS7_RKNS5_5ValueEPSC_mE_NS_9allocatorISF_EEFSB_S7_SD_SE_mEED1Ev, symObjAddr: 0x64BC, symBinAddr: 0xA3E4, symSize: 0x4 }
  - { offset: 0x375B9, size: 0x8, addend: 0x0, symName: __ZNSt3__110__function6__funcIZN8facebook5react11TurboModule6createERNS2_3jsi7RuntimeERKNS5_10PropNameIDEEUlS7_RKNS5_5ValueEPSC_mE_NS_9allocatorISF_EEFSB_S7_SD_SE_mEED0Ev, symObjAddr: 0x64C0, symBinAddr: 0xA3E8, symSize: 0x4 }
  - { offset: 0x376AD, size: 0x8, addend: 0x0, symName: __ZNKSt3__110__function6__funcIZN8facebook5react11TurboModule6createERNS2_3jsi7RuntimeERKNS5_10PropNameIDEEUlS7_RKNS5_5ValueEPSC_mE_NS_9allocatorISF_EEFSB_S7_SD_SE_mEE7__cloneEv, symObjAddr: 0x64C4, symBinAddr: 0xA3EC, symSize: 0x40 }
  - { offset: 0x378C4, size: 0x8, addend: 0x0, symName: __ZNKSt3__110__function6__funcIZN8facebook5react11TurboModule6createERNS2_3jsi7RuntimeERKNS5_10PropNameIDEEUlS7_RKNS5_5ValueEPSC_mE_NS_9allocatorISF_EEFSB_S7_SD_SE_mEE7__cloneEPNS0_6__baseISI_EE, symObjAddr: 0x6504, symBinAddr: 0xA42C, symSize: 0x20 }
  - { offset: 0x378FA, size: 0x8, addend: 0x0, symName: __ZNKSt3__110__function6__funcIZN8facebook5react11TurboModule6createERNS2_3jsi7RuntimeERKNS5_10PropNameIDEEUlS7_RKNS5_5ValueEPSC_mE_NS_9allocatorISF_EEFSB_S7_SD_SE_mEE7__cloneEPNS0_6__baseISI_EE, symObjAddr: 0x6504, symBinAddr: 0xA42C, symSize: 0x20 }
  - { offset: 0x37928, size: 0x8, addend: 0x0, symName: __ZNKSt3__110__function6__funcIZN8facebook5react11TurboModule6createERNS2_3jsi7RuntimeERKNS5_10PropNameIDEEUlS7_RKNS5_5ValueEPSC_mE_NS_9allocatorISF_EEFSB_S7_SD_SE_mEE7__cloneEPNS0_6__baseISI_EE, symObjAddr: 0x6504, symBinAddr: 0xA42C, symSize: 0x20 }
  - { offset: 0x379B7, size: 0x8, addend: 0x0, symName: __ZNSt3__110__function6__funcIZN8facebook5react11TurboModule6createERNS2_3jsi7RuntimeERKNS5_10PropNameIDEEUlS7_RKNS5_5ValueEPSC_mE_NS_9allocatorISF_EEFSB_S7_SD_SE_mEE7destroyEv, symObjAddr: 0x6524, symBinAddr: 0xA44C, symSize: 0x4 }
  - { offset: 0x37A0D, size: 0x8, addend: 0x0, symName: __ZNSt3__110__function6__funcIZN8facebook5react11TurboModule6createERNS2_3jsi7RuntimeERKNS5_10PropNameIDEEUlS7_RKNS5_5ValueEPSC_mE_NS_9allocatorISF_EEFSB_S7_SD_SE_mEE18destroy_deallocateEv, symObjAddr: 0x6528, symBinAddr: 0xA450, symSize: 0x4 }
  - { offset: 0x37A41, size: 0x8, addend: 0x0, symName: __ZNSt3__110__function6__funcIZN8facebook5react11TurboModule6createERNS2_3jsi7RuntimeERKNS5_10PropNameIDEEUlS7_RKNS5_5ValueEPSC_mE_NS_9allocatorISF_EEFSB_S7_SD_SE_mEE18destroy_deallocateEv, symObjAddr: 0x6528, symBinAddr: 0xA450, symSize: 0x4 }
  - { offset: 0x37A64, size: 0x8, addend: 0x0, symName: __ZNSt3__110__function6__funcIZN8facebook5react11TurboModule6createERNS2_3jsi7RuntimeERKNS5_10PropNameIDEEUlS7_RKNS5_5ValueEPSC_mE_NS_9allocatorISF_EEFSB_S7_SD_SE_mEE18destroy_deallocateEv, symObjAddr: 0x6528, symBinAddr: 0xA450, symSize: 0x4 }
  - { offset: 0x37A99, size: 0x8, addend: 0x0, symName: __ZNSt3__110__function6__funcIZN8facebook5react11TurboModule6createERNS2_3jsi7RuntimeERKNS5_10PropNameIDEEUlS7_RKNS5_5ValueEPSC_mE_NS_9allocatorISF_EEFSB_S7_SD_SE_mEE18destroy_deallocateEv, symObjAddr: 0x6528, symBinAddr: 0xA450, symSize: 0x4 }
  - { offset: 0x37BBC, size: 0x8, addend: 0x0, symName: __ZNSt3__110__function6__funcIZN8facebook5react11TurboModule6createERNS2_3jsi7RuntimeERKNS5_10PropNameIDEEUlS7_RKNS5_5ValueEPSC_mE_NS_9allocatorISF_EEFSB_S7_SD_SE_mEEclES7_SD_OSE_Om, symObjAddr: 0x652C, symBinAddr: 0xA454, symSize: 0x1C }
  - { offset: 0x37D53, size: 0x8, addend: 0x0, symName: __ZNKSt3__110__function6__funcIZN8facebook5react11TurboModule6createERNS2_3jsi7RuntimeERKNS5_10PropNameIDEEUlS7_RKNS5_5ValueEPSC_mE_NS_9allocatorISF_EEFSB_S7_SD_SE_mEE6targetERKSt9type_info, symObjAddr: 0x6548, symBinAddr: 0xA470, symSize: 0x3C }
  - { offset: 0x37DA0, size: 0x8, addend: 0x0, symName: __ZNKSt9type_infoeqB8ne200100ERKS_, symObjAddr: 0x6590, symBinAddr: 0xA4B8, symSize: 0x4C }
  - { offset: 0x37E3F, size: 0x8, addend: 0x0, symName: __ZNKSt3__110__function6__funcIZN8facebook5react11TurboModule6createERNS2_3jsi7RuntimeERKNS5_10PropNameIDEEUlS7_RKNS5_5ValueEPSC_mE_NS_9allocatorISF_EEFSB_S7_SD_SE_mEE11target_typeEv, symObjAddr: 0x6584, symBinAddr: 0xA4AC, symSize: 0xC }
  - { offset: 0x3883E, size: 0x8, addend: 0x0, symName: __ZNSt3__112__hash_tableINS_17__hash_value_typeINS_12basic_stringIcNS_11char_traitsIcEENS_9allocatorIcEEEEN8facebook5react11TurboModule14MethodMetadataEEENS_22__unordered_map_hasherIS7_SC_NS_4hashIS7_EENS_8equal_toIS7_EELb1EEENS_21__unordered_map_equalIS7_SC_SH_SF_Lb1EEENS5_ISC_EEE8__rehashILb1EEEvm, symObjAddr: 0x6D70, symBinAddr: 0xAADC, symSize: 0xDC }
  - { offset: 0x38936, size: 0x8, addend: 0x0, symName: __ZNSt3__122__hash_node_destructorINS_9allocatorINS_11__hash_nodeINS_17__hash_value_typeINS_12basic_stringIcNS_11char_traitsIcEENS1_IcEEEEN8facebook5react11TurboModule14MethodMetadataEEEPvEEEEEclB8ne200100EPSF_, symObjAddr: 0x6F9C, symBinAddr: 0xAD08, symSize: 0x50 }
  - { offset: 0x38B98, size: 0x8, addend: 0x0, symName: __ZNSt3__112__hash_tableINS_17__hash_value_typeINS_12basic_stringIcNS_11char_traitsIcEENS_9allocatorIcEEEEN8facebook5react11TurboModule14MethodMetadataEEENS_22__unordered_map_hasherIS7_SC_NS_4hashIS7_EENS_8equal_toIS7_EELb1EEENS_21__unordered_map_equalIS7_SC_SH_SF_Lb1EEENS5_ISC_EEE11__do_rehashILb1EEEvm, symObjAddr: 0x6E4C, symBinAddr: 0xABB8, symSize: 0x150 }
  - { offset: 0x38FA8, size: 0x8, addend: 0x0, symName: __ZNSt3__122__hash_node_destructorINS_9allocatorINS_11__hash_nodeINS_17__hash_value_typeINS_12basic_stringIcNS_11char_traitsIcEENS1_IcEEEEN8facebook5react11TurboModule14MethodMetadataEEEPvEEEEEclB8ne200100EPSF_, symObjAddr: 0x6F9C, symBinAddr: 0xAD08, symSize: 0x50 }
  - { offset: 0x3903F, size: 0x8, addend: 0x0, symName: '__ZNSt3__110__function6__funcIZN8facebook5react22ObjCInteropTurboModule6createERNS2_3jsi7RuntimeERKNS5_10PropNameIDEE3$_0NS_9allocatorISB_EEFNS5_5ValueES7_RKSE_PSF_mEED1Ev', symObjAddr: 0x6FEC, symBinAddr: 0xAD58, symSize: 0x4 }
  - { offset: 0x3906B, size: 0x8, addend: 0x0, symName: '__ZNSt3__110__function6__funcIZN8facebook5react22ObjCInteropTurboModule6createERNS2_3jsi7RuntimeERKNS5_10PropNameIDEE3$_0NS_9allocatorISB_EEFNS5_5ValueES7_RKSE_PSF_mEED0Ev', symObjAddr: 0x6FF0, symBinAddr: 0xAD5C, symSize: 0x4 }
  - { offset: 0x39185, size: 0x8, addend: 0x0, symName: '__ZNKSt3__110__function6__funcIZN8facebook5react22ObjCInteropTurboModule6createERNS2_3jsi7RuntimeERKNS5_10PropNameIDEE3$_0NS_9allocatorISB_EEFNS5_5ValueES7_RKSE_PSF_mEE7__cloneEv', symObjAddr: 0x6FF4, symBinAddr: 0xAD60, symSize: 0x38 }
  - { offset: 0x3939C, size: 0x8, addend: 0x0, symName: '__ZNKSt3__110__function6__funcIZN8facebook5react22ObjCInteropTurboModule6createERNS2_3jsi7RuntimeERKNS5_10PropNameIDEE3$_0NS_9allocatorISB_EEFNS5_5ValueES7_RKSE_PSF_mEE7__cloneEPNS0_6__baseISI_EE', symObjAddr: 0x702C, symBinAddr: 0xAD98, symSize: 0x18 }
  - { offset: 0x393D2, size: 0x8, addend: 0x0, symName: '__ZNKSt3__110__function6__funcIZN8facebook5react22ObjCInteropTurboModule6createERNS2_3jsi7RuntimeERKNS5_10PropNameIDEE3$_0NS_9allocatorISB_EEFNS5_5ValueES7_RKSE_PSF_mEE7__cloneEPNS0_6__baseISI_EE', symObjAddr: 0x702C, symBinAddr: 0xAD98, symSize: 0x18 }
  - { offset: 0x39400, size: 0x8, addend: 0x0, symName: '__ZNKSt3__110__function6__funcIZN8facebook5react22ObjCInteropTurboModule6createERNS2_3jsi7RuntimeERKNS5_10PropNameIDEE3$_0NS_9allocatorISB_EEFNS5_5ValueES7_RKSE_PSF_mEE7__cloneEPNS0_6__baseISI_EE', symObjAddr: 0x702C, symBinAddr: 0xAD98, symSize: 0x18 }
  - { offset: 0x3948F, size: 0x8, addend: 0x0, symName: '__ZNSt3__110__function6__funcIZN8facebook5react22ObjCInteropTurboModule6createERNS2_3jsi7RuntimeERKNS5_10PropNameIDEE3$_0NS_9allocatorISB_EEFNS5_5ValueES7_RKSE_PSF_mEE7destroyEv', symObjAddr: 0x7044, symBinAddr: 0xADB0, symSize: 0x4 }
  - { offset: 0x394E3, size: 0x8, addend: 0x0, symName: '__ZNSt3__110__function6__funcIZN8facebook5react22ObjCInteropTurboModule6createERNS2_3jsi7RuntimeERKNS5_10PropNameIDEE3$_0NS_9allocatorISB_EEFNS5_5ValueES7_RKSE_PSF_mEE18destroy_deallocateEv', symObjAddr: 0x7048, symBinAddr: 0xADB4, symSize: 0x4 }
  - { offset: 0x39517, size: 0x8, addend: 0x0, symName: '__ZNSt3__110__function6__funcIZN8facebook5react22ObjCInteropTurboModule6createERNS2_3jsi7RuntimeERKNS5_10PropNameIDEE3$_0NS_9allocatorISB_EEFNS5_5ValueES7_RKSE_PSF_mEE18destroy_deallocateEv', symObjAddr: 0x7048, symBinAddr: 0xADB4, symSize: 0x4 }
  - { offset: 0x3953A, size: 0x8, addend: 0x0, symName: '__ZNSt3__110__function6__funcIZN8facebook5react22ObjCInteropTurboModule6createERNS2_3jsi7RuntimeERKNS5_10PropNameIDEE3$_0NS_9allocatorISB_EEFNS5_5ValueES7_RKSE_PSF_mEE18destroy_deallocateEv', symObjAddr: 0x7048, symBinAddr: 0xADB4, symSize: 0x4 }
  - { offset: 0x3956E, size: 0x8, addend: 0x0, symName: '__ZNSt3__110__function6__funcIZN8facebook5react22ObjCInteropTurboModule6createERNS2_3jsi7RuntimeERKNS5_10PropNameIDEE3$_0NS_9allocatorISB_EEFNS5_5ValueES7_RKSE_PSF_mEE18destroy_deallocateEv', symObjAddr: 0x7048, symBinAddr: 0xADB4, symSize: 0x4 }
  - { offset: 0x396E4, size: 0x8, addend: 0x0, symName: '__ZNSt3__110__function6__funcIZN8facebook5react22ObjCInteropTurboModule6createERNS2_3jsi7RuntimeERKNS5_10PropNameIDEE3$_0NS_9allocatorISB_EEFNS5_5ValueES7_RKSE_PSF_mEEclES7_SG_OSH_Om', symObjAddr: 0x704C, symBinAddr: 0xADB8, symSize: 0x3C0 }
  - { offset: 0x3A305, size: 0x8, addend: 0x0, symName: '__ZNKSt3__110__function6__funcIZN8facebook5react22ObjCInteropTurboModule6createERNS2_3jsi7RuntimeERKNS5_10PropNameIDEE3$_0NS_9allocatorISB_EEFNS5_5ValueES7_RKSE_PSF_mEE6targetERKSt9type_info', symObjAddr: 0x740C, symBinAddr: 0xB178, symSize: 0x3C }
  - { offset: 0x3A352, size: 0x8, addend: 0x0, symName: '__ZNKSt3__110__function6__funcIZN8facebook5react22ObjCInteropTurboModule6createERNS2_3jsi7RuntimeERKNS5_10PropNameIDEE3$_0NS_9allocatorISB_EEFNS5_5ValueES7_RKSE_PSF_mEE11target_typeEv', symObjAddr: 0x7448, symBinAddr: 0xB1B4, symSize: 0xC }
  - { offset: 0x3A375, size: 0x8, addend: 0x0, symName: '__ZNSt3__110__function6__funcIZN8facebook5react22ObjCInteropTurboModule6createERNS2_3jsi7RuntimeERKNS5_10PropNameIDEE3$_1NS_9allocatorISB_EEFNS5_5ValueES7_RKSE_PSF_mEED1Ev', symObjAddr: 0x7454, symBinAddr: 0xB1C0, symSize: 0x4 }
  - { offset: 0x3A3A1, size: 0x8, addend: 0x0, symName: '__ZNSt3__110__function6__funcIZN8facebook5react22ObjCInteropTurboModule6createERNS2_3jsi7RuntimeERKNS5_10PropNameIDEE3$_1NS_9allocatorISB_EEFNS5_5ValueES7_RKSE_PSF_mEED0Ev', symObjAddr: 0x7458, symBinAddr: 0xB1C4, symSize: 0x4 }
  - { offset: 0x3A4BB, size: 0x8, addend: 0x0, symName: '__ZNKSt3__110__function6__funcIZN8facebook5react22ObjCInteropTurboModule6createERNS2_3jsi7RuntimeERKNS5_10PropNameIDEE3$_1NS_9allocatorISB_EEFNS5_5ValueES7_RKSE_PSF_mEE7__cloneEv', symObjAddr: 0x745C, symBinAddr: 0xB1C8, symSize: 0x38 }
  - { offset: 0x3A6D2, size: 0x8, addend: 0x0, symName: '__ZNKSt3__110__function6__funcIZN8facebook5react22ObjCInteropTurboModule6createERNS2_3jsi7RuntimeERKNS5_10PropNameIDEE3$_1NS_9allocatorISB_EEFNS5_5ValueES7_RKSE_PSF_mEE7__cloneEPNS0_6__baseISI_EE', symObjAddr: 0x7494, symBinAddr: 0xB200, symSize: 0x18 }
  - { offset: 0x3A708, size: 0x8, addend: 0x0, symName: '__ZNKSt3__110__function6__funcIZN8facebook5react22ObjCInteropTurboModule6createERNS2_3jsi7RuntimeERKNS5_10PropNameIDEE3$_1NS_9allocatorISB_EEFNS5_5ValueES7_RKSE_PSF_mEE7__cloneEPNS0_6__baseISI_EE', symObjAddr: 0x7494, symBinAddr: 0xB200, symSize: 0x18 }
  - { offset: 0x3A736, size: 0x8, addend: 0x0, symName: '__ZNKSt3__110__function6__funcIZN8facebook5react22ObjCInteropTurboModule6createERNS2_3jsi7RuntimeERKNS5_10PropNameIDEE3$_1NS_9allocatorISB_EEFNS5_5ValueES7_RKSE_PSF_mEE7__cloneEPNS0_6__baseISI_EE', symObjAddr: 0x7494, symBinAddr: 0xB200, symSize: 0x18 }
  - { offset: 0x3A7C5, size: 0x8, addend: 0x0, symName: '__ZNSt3__110__function6__funcIZN8facebook5react22ObjCInteropTurboModule6createERNS2_3jsi7RuntimeERKNS5_10PropNameIDEE3$_1NS_9allocatorISB_EEFNS5_5ValueES7_RKSE_PSF_mEE7destroyEv', symObjAddr: 0x74AC, symBinAddr: 0xB218, symSize: 0x4 }
  - { offset: 0x3A819, size: 0x8, addend: 0x0, symName: '__ZNSt3__110__function6__funcIZN8facebook5react22ObjCInteropTurboModule6createERNS2_3jsi7RuntimeERKNS5_10PropNameIDEE3$_1NS_9allocatorISB_EEFNS5_5ValueES7_RKSE_PSF_mEE18destroy_deallocateEv', symObjAddr: 0x74B0, symBinAddr: 0xB21C, symSize: 0x4 }
  - { offset: 0x3A84D, size: 0x8, addend: 0x0, symName: '__ZNSt3__110__function6__funcIZN8facebook5react22ObjCInteropTurboModule6createERNS2_3jsi7RuntimeERKNS5_10PropNameIDEE3$_1NS_9allocatorISB_EEFNS5_5ValueES7_RKSE_PSF_mEE18destroy_deallocateEv', symObjAddr: 0x74B0, symBinAddr: 0xB21C, symSize: 0x4 }
  - { offset: 0x3A870, size: 0x8, addend: 0x0, symName: '__ZNSt3__110__function6__funcIZN8facebook5react22ObjCInteropTurboModule6createERNS2_3jsi7RuntimeERKNS5_10PropNameIDEE3$_1NS_9allocatorISB_EEFNS5_5ValueES7_RKSE_PSF_mEE18destroy_deallocateEv', symObjAddr: 0x74B0, symBinAddr: 0xB21C, symSize: 0x4 }
  - { offset: 0x3A8A4, size: 0x8, addend: 0x0, symName: '__ZNSt3__110__function6__funcIZN8facebook5react22ObjCInteropTurboModule6createERNS2_3jsi7RuntimeERKNS5_10PropNameIDEE3$_1NS_9allocatorISB_EEFNS5_5ValueES7_RKSE_PSF_mEE18destroy_deallocateEv', symObjAddr: 0x74B0, symBinAddr: 0xB21C, symSize: 0x4 }
  - { offset: 0x3A9E9, size: 0x8, addend: 0x0, symName: '__ZNSt3__110__function6__funcIZN8facebook5react22ObjCInteropTurboModule6createERNS2_3jsi7RuntimeERKNS5_10PropNameIDEE3$_1NS_9allocatorISB_EEFNS5_5ValueES7_RKSE_PSF_mEEclES7_SG_OSH_Om', symObjAddr: 0x74B4, symBinAddr: 0xB220, symSize: 0xCC }
  - { offset: 0x3ABBE, size: 0x8, addend: 0x0, symName: '__ZNKSt3__110__function6__funcIZN8facebook5react22ObjCInteropTurboModule6createERNS2_3jsi7RuntimeERKNS5_10PropNameIDEE3$_1NS_9allocatorISB_EEFNS5_5ValueES7_RKSE_PSF_mEE6targetERKSt9type_info', symObjAddr: 0x7580, symBinAddr: 0xB2EC, symSize: 0x3C }
  - { offset: 0x3AC0B, size: 0x8, addend: 0x0, symName: '__ZNKSt3__110__function6__funcIZN8facebook5react22ObjCInteropTurboModule6createERNS2_3jsi7RuntimeERKNS5_10PropNameIDEE3$_1NS_9allocatorISB_EEFNS5_5ValueES7_RKSE_PSF_mEE11target_typeEv', symObjAddr: 0x75BC, symBinAddr: 0xB328, symSize: 0xC }
  - { offset: 0x3AD87, size: 0x8, addend: 0x0, symName: __ZNSt3__112__hash_tableINS_12basic_stringIcNS_11char_traitsIcEENS_9allocatorIcEEEENS_4hashIS6_EENS_8equal_toIS6_EENS4_IS6_EEE21__construct_node_hashIRKS6_JEEENS_10unique_ptrINS_11__hash_nodeIS6_PvEENS_22__hash_node_destructorINS4_ISJ_EEEEEEmOT_DpOT0_, symObjAddr: 0x791C, symBinAddr: 0xB590, symSize: 0xA4 }
  - { offset: 0x3DD9F, size: 0x8, addend: 0x0, symName: __ZN8facebook5react8systrace20instrumentsLogHandleE, symObjAddr: 0xB670, symBinAddr: 0x2CCD0, symSize: 0x0 }
  - { offset: 0x3DDBB, size: 0x8, addend: 0x0, symName: __ZZN8facebook5react8systraceL31getOrCreateInstrumentsLogHandleEvE4flag, symObjAddr: 0x14C9C0, symBinAddr: 0x2CED0, symSize: 0x0 }
  - { offset: 0x3E8A4, size: 0x8, addend: 0x0, symName: __ZN8facebook5react23TurboModuleConvertUtils27convertObjCObjectToJSIValueERNS_3jsi7RuntimeEP11objc_object, symObjAddr: 0x0, symBinAddr: 0xB634, symSize: 0x188 }
  - { offset: 0x3EB11, size: 0x8, addend: 0x0, symName: __ZN8facebook5react23TurboModuleConvertUtilsL26convertNSStringToJSIStringERNS_3jsi7RuntimeEP8NSString, symObjAddr: 0x188, symBinAddr: 0xB7BC, symSize: 0xD4 }
  - { offset: 0x3EE34, size: 0x8, addend: 0x0, symName: __ZN8facebook5react23TurboModuleConvertUtilsL30convertNSDictionaryToJSIObjectERNS_3jsi7RuntimeEP12NSDictionary, symObjAddr: 0x25C, symBinAddr: 0xB890, symSize: 0x20C }
  - { offset: 0x3F134, size: 0x8, addend: 0x0, symName: __ZN8facebook5react23TurboModuleConvertUtilsL24convertNSArrayToJSIArrayERNS_3jsi7RuntimeEP7NSArray, symObjAddr: 0x468, symBinAddr: 0xBA9C, symSize: 0x11C }
  - { offset: 0x3F38B, size: 0x8, addend: 0x0, symName: __ZN8facebook5react23TurboModuleConvertUtils27convertJSIValueToObjCObjectERNS_3jsi7RuntimeERKNS2_5ValueERKNSt3__110shared_ptrINS0_11CallInvokerEEEb, symObjAddr: 0x584, symBinAddr: 0xBBB8, symSize: 0x27C }
  - { offset: 0x3F857, size: 0x8, addend: 0x0, symName: __ZN8facebook5react23TurboModuleConvertUtilsL24convertJSIArrayToNSArrayERNS_3jsi7RuntimeERKNS2_5ArrayERKNSt3__110shared_ptrINS0_11CallInvokerEEEb, symObjAddr: 0x88C, symBinAddr: 0xBEC0, symSize: 0x114 }
  - { offset: 0x3F9AE, size: 0x8, addend: 0x0, symName: __ZN8facebook5react23TurboModuleConvertUtilsL26convertJSIStringToNSStringERNS_3jsi7RuntimeERKNS2_6StringE, symObjAddr: 0x800, symBinAddr: 0xBE34, symSize: 0x8C }
  - { offset: 0x3FCB4, size: 0x8, addend: 0x0, symName: __ZN8facebook5react23TurboModuleConvertUtilsL28convertJSIFunctionToCallbackERNS_3jsi7RuntimeEONS2_8FunctionERKNSt3__110shared_ptrINS0_11CallInvokerEEE, symObjAddr: 0x9A0, symBinAddr: 0xBFD4, symSize: 0x1B0 }
  - { offset: 0x404D0, size: 0x8, addend: 0x0, symName: __ZN8facebook5react23TurboModuleConvertUtilsL30convertJSIObjectToNSDictionaryERNS_3jsi7RuntimeERKNS2_6ObjectERKNSt3__110shared_ptrINS0_11CallInvokerEEEb, symObjAddr: 0xB50, symBinAddr: 0xC184, symSize: 0x1D8 }
  - { offset: 0x40904, size: 0x8, addend: 0x0, symName: __ZN8facebook5react23TurboModuleConvertUtilsL27convertNSExceptionToJSErrorERNS_3jsi7RuntimeEP11NSExceptionRKNSt3__112basic_stringIcNS7_11char_traitsIcEENS7_9allocatorIcEEEESF_, symObjAddr: 0x18B4, symBinAddr: 0xCEE8, symSize: 0x46C }
  - { offset: 0x41D1C, size: 0x8, addend: 0x0, symName: __ZN8facebook5react23TurboModuleConvertUtilsL20createJSRuntimeErrorERNS_3jsi7RuntimeERKNSt3__112basic_stringIcNS5_11char_traitsIcEENS5_9allocatorIcEEEE, symObjAddr: 0x5DC0, symBinAddr: 0x10B1C, symSize: 0x17C }
  - { offset: 0x4D895, size: 0x8, addend: 0x0, symName: __ZNSt3__124__put_character_sequenceB8ne200100IcNS_11char_traitsIcEEEERNS_13basic_ostreamIT_T0_EES7_PKS4_m, symObjAddr: 0x4830, symBinAddr: 0xF8C4, symSize: 0x168 }
  - { offset: 0x5613D, size: 0x8, addend: 0x0, symName: __ZNSt3__115allocate_sharedB8ne200100IN8facebook5react12SyncCallbackIFvvEEENS_9allocatorIS5_EEJRNS1_3jsi7RuntimeENS8_8FunctionENS_10shared_ptrINS2_11CallInvokerEEEELi0EEENSC_IT_EERKT0_DpOT1_, symObjAddr: 0x4110, symBinAddr: 0xF320, symSize: 0x70 }
  - { offset: 0x576C5, size: 0x8, addend: 0x0, symName: __ZNSt3__1lsB8ne200100INS_11char_traitsIcEEEERNS_13basic_ostreamIcT_EES6_PKc, symObjAddr: 0x40C0, symBinAddr: 0xF2D0, symSize: 0x34 }
  - { offset: 0x57BAD, size: 0x8, addend: 0x0, symName: __ZNSt3__112construct_atB8ne200100IN8facebook5react12SyncCallbackIFvvEEEJRNS1_3jsi7RuntimeENS6_8FunctionENS_10shared_ptrINS2_11CallInvokerEEEEPS5_EEPT_SF_DpOT0_, symObjAddr: 0x4238, symBinAddr: 0xF420, symSize: 0xC0 }
  - { offset: 0x58ADE, size: 0x8, addend: 0x0, symName: __ZNSt3__116__pad_and_outputB8ne200100IcNS_11char_traitsIcEEEENS_19ostreambuf_iteratorIT_T0_EES6_PKS4_S8_S8_RNS_8ios_baseES4_, symObjAddr: 0x4998, symBinAddr: 0xFA2C, symSize: 0x13C }
  - { offset: 0x598BE, size: 0x8, addend: 0x0, symName: __ZNSt3__125__throw_bad_function_callB8ne200100Ev, symObjAddr: 0x53C4, symBinAddr: 0x103D0, symSize: 0x34 }
  - { offset: 0x59C05, size: 0x8, addend: 0x0, symName: __ZNSt3__119__allocate_at_leastB8ne200100INS_9allocatorIN8facebook3jsi5ValueEEEEENS_19__allocation_resultINS_16allocator_traitsIT_E7pointerEEERS8_m, symObjAddr: 0x57E0, symBinAddr: 0x107D8, symSize: 0x34 }
  - { offset: 0x59CAE, size: 0x8, addend: 0x0, symName: __ZNSt3__134__uninitialized_allocator_relocateB8ne200100INS_9allocatorIN8facebook3jsi5ValueEEEPS4_EEvRT_T0_S9_S9_, symObjAddr: 0x5814, symBinAddr: 0x1080C, symSize: 0x68 }
  - { offset: 0x59CC2, size: 0x8, addend: 0x0, symName: __ZNSt3__134__uninitialized_allocator_relocateB8ne200100INS_9allocatorIN8facebook3jsi5ValueEEEPS4_EEvRT_T0_S9_S9_, symObjAddr: 0x5814, symBinAddr: 0x1080C, symSize: 0x68 }
  - { offset: 0x59D21, size: 0x8, addend: 0x0, symName: __ZNSt3__134__uninitialized_allocator_relocateB8ne200100INS_9allocatorIN8facebook3jsi5ValueEEEPS4_EEvRT_T0_S9_S9_, symObjAddr: 0x5814, symBinAddr: 0x1080C, symSize: 0x68 }
  - { offset: 0x5B548, size: 0x8, addend: 0x0, symName: __ZNSt3__117__call_once_proxyB8ne200100INS_5tupleIJOZN8facebook5react8systraceL31getOrCreateInstrumentsLogHandleEvEUlvE_EEEEEvPv, symObjAddr: 0x90C4, symBinAddr: 0x12C8C, symSize: 0x50 }
  - { offset: 0x5B975, size: 0x8, addend: 0x0, symName: __ZNSt3__135__uninitialized_allocator_copy_implB8ne200100INS_9allocatorINS_12basic_stringIcNS_11char_traitsIcEENS1_IcEEEEEEPKS6_S9_PS6_EET2_RT_T0_T1_SB_, symObjAddr: 0x9A84, symBinAddr: 0x13638, symSize: 0xBC }
  - { offset: 0x5BBF4, size: 0x8, addend: 0x0, symName: __ZNSt3__119__allocate_at_leastB8ne200100INS_9allocatorINS_12basic_stringIcNS_11char_traitsIcEENS1_IcEEEEEEEENS_19__allocation_resultINS_16allocator_traitsIT_E7pointerEEERSA_m, symObjAddr: 0x9A40, symBinAddr: 0x135F4, symSize: 0x44 }
  - { offset: 0x5BC9D, size: 0x8, addend: 0x0, symName: __ZNSt3__135__uninitialized_allocator_copy_implB8ne200100INS_9allocatorINS_12basic_stringIcNS_11char_traitsIcEENS1_IcEEEEEEPKS6_S9_PS6_EET2_RT_T0_T1_SB_, symObjAddr: 0x9A84, symBinAddr: 0x13638, symSize: 0xBC }
  - { offset: 0x5E12E, size: 0x8, addend: 0x0, symName: __ZN8facebook5react12TraceSectionC2IJRA7_KcRKPS3_S5_RKNSt3__112basic_stringIcNS9_11char_traitsIcEENS9_9allocatorIcEEEERA11_S3_RA8_S3_EEES6_DpOT_, symObjAddr: 0x8BE8, symBinAddr: 0x127B0, symSize: 0x4DC }
  - { offset: 0x5F992, size: 0x8, addend: 0x0, symName: __ZN8facebook5react12TraceSectionD2Ev, symObjAddr: 0x9C44, symBinAddr: 0x137F8, symSize: 0xD4 }
  - { offset: 0x5FACA, size: 0x8, addend: 0x0, symName: __ZN8facebook5react12TraceSectionC2IJRA7_KcRKPS3_S5_RKNSt3__112basic_stringIcNS9_11char_traitsIcEENS9_9allocatorIcEEEERA11_S3_RA5_S3_EEES6_DpOT_, symObjAddr: 0xA0A4, symBinAddr: 0x13C58, symSize: 0x4DC }
  - { offset: 0x61D2C, size: 0x8, addend: 0x0, symName: __ZNK8facebook5react13AsyncCallbackIJEE16callWithFunctionENSt3__18optionalINS0_17SchedulerPriorityEEEONS3_8functionIFvRNS_3jsi7RuntimeERNS8_8FunctionEEEE, symObjAddr: 0x4BF8, symBinAddr: 0xFC04, symSize: 0x344 }
  - { offset: 0x62D47, size: 0x8, addend: 0x0, symName: ____ZN8facebook5react23TurboModuleConvertUtilsL28convertJSIFunctionToCallbackERNS_3jsi7RuntimeEONS2_8FunctionERKNSt3__110shared_ptrINS0_11CallInvokerEEE_block_invoke, symObjAddr: 0x3F8C, symBinAddr: 0xF19C, symSize: 0x134 }
  - { offset: 0x63E4A, size: 0x8, addend: 0x0, symName: __ZN8facebook5react15ObjCTurboModule13createPromiseERNS_3jsi7RuntimeERKNSt3__112basic_stringIcNS5_11char_traitsIcEENS5_9allocatorIcEEEEU13block_pointerFvU13block_pointerFvP11objc_objectEU13block_pointerFvP8NSStringSJ_P7NSErrorEE, symObjAddr: 0xD28, symBinAddr: 0xC35C, symSize: 0x4C0 }
  - { offset: 0x6531D, size: 0x8, addend: 0x0, symName: '____ZZN8facebook5react15ObjCTurboModule13createPromiseERNS_3jsi7RuntimeERKNSt3__112basic_stringIcNS5_11char_traitsIcEENS5_9allocatorIcEEEEU13block_pointerFvU13block_pointerFvP11objc_objectEU13block_pointerFvP8NSStringSJ_P7NSErrorEEENK3$_0clES4_RKNS2_5ValueEPSS_m_block_invoke', symObjAddr: 0x7CDC, symBinAddr: 0x118A4, symSize: 0x198 }
  - { offset: 0x657C5, size: 0x8, addend: 0x0, symName: '____ZZN8facebook5react15ObjCTurboModule13createPromiseERNS_3jsi7RuntimeERKNSt3__112basic_stringIcNS5_11char_traitsIcEENS5_9allocatorIcEEEEU13block_pointerFvU13block_pointerFvP11objc_objectEU13block_pointerFvP8NSStringSJ_P7NSErrorEEENK3$_0clES4_RKNS2_5ValueEPSS_m_block_invoke.100', symObjAddr: 0x7F68, symBinAddr: 0x11B30, symSize: 0x1F4 }
  - { offset: 0x65CE1, size: 0x8, addend: 0x0, symName: __ZN8facebook5react15ObjCTurboModule23performMethodInvocationERNS_3jsi7RuntimeEbPKcP12NSInvocationP14NSMutableArray, symObjAddr: 0x1238, symBinAddr: 0xC86C, symSize: 0x470 }
  - { offset: 0x66D8C, size: 0x8, addend: 0x0, symName: __ZN8facebook5react15ObjCTurboModule27performVoidMethodInvocationERNS_3jsi7RuntimeEPKcP12NSInvocationP14NSMutableArray, symObjAddr: 0x1E80, symBinAddr: 0xD4A4, symSize: 0x3F4 }
  - { offset: 0x67FC5, size: 0x8, addend: 0x0, symName: __ZNK8facebook3jsi6Object11setPropertyIPKcEEvRNS0_7RuntimeES4_OT_, symObjAddr: 0x5AC0, symBinAddr: 0x10930, symSize: 0xA4 }
  - { offset: 0x695B4, size: 0x8, addend: 0x0, symName: '__ZZN8facebook5react15ObjCTurboModule13createPromiseERNS_3jsi7RuntimeERKNSt3__112basic_stringIcNS5_11char_traitsIcEENS5_9allocatorIcEEEEU13block_pointerFvU13block_pointerFvP11objc_objectEU13block_pointerFvP8NSStringSJ_P7NSErrorEEEN3$_0D1Ev', symObjAddr: 0x11E8, symBinAddr: 0xC81C, symSize: 0x50 }
  - { offset: 0x69D89, size: 0x8, addend: 0x0, symName: '__ZZN8facebook5react15ObjCTurboModule23performMethodInvocationERNS_3jsi7RuntimeEbPKcP12NSInvocationP14NSMutableArrayEN3$_1D1Ev', symObjAddr: 0x1E48, symBinAddr: 0xD46C, symSize: 0x38 }
  - { offset: 0x69ECF, size: 0x8, addend: 0x0, symName: ___Block_byref_object_copy_, symObjAddr: 0x16A8, symBinAddr: 0xCCDC, symSize: 0x10 }
  - { offset: 0x69EF4, size: 0x8, addend: 0x0, symName: ___Block_byref_object_dispose_, symObjAddr: 0x16B8, symBinAddr: 0xCCEC, symSize: 0x8 }
  - { offset: 0x69F13, size: 0x8, addend: 0x0, symName: ____ZN8facebook5react15ObjCTurboModule23performMethodInvocationERNS_3jsi7RuntimeEbPKcP12NSInvocationP14NSMutableArray_block_invoke, symObjAddr: 0x16C0, symBinAddr: 0xCCF4, symSize: 0x1F4 }
  - { offset: 0x6A2A1, size: 0x8, addend: 0x0, symName: __ZNK8facebook3jsi6Object11setPropertyIPKcEEvRNS0_7RuntimeES4_OT_, symObjAddr: 0x5AC0, symBinAddr: 0x10930, symSize: 0xA4 }
  - { offset: 0x6A473, size: 0x8, addend: 0x0, symName: __ZNK8facebook3jsi6Object11setPropertyIRNSt3__112basic_stringIcNS3_11char_traitsIcEENS3_9allocatorIcEEEEEEvRNS0_7RuntimeEPKcOT_, symObjAddr: 0x5B64, symBinAddr: 0x109D4, symSize: 0xA4 }
  - { offset: 0x6A645, size: 0x8, addend: 0x0, symName: __ZNK8facebook3jsi6Object11setPropertyINS0_5ArrayEEEvRNS0_7RuntimeEPKcOT_, symObjAddr: 0x5C08, symBinAddr: 0x10A78, symSize: 0xA4 }
  - { offset: 0x6AA53, size: 0x8, addend: 0x0, symName: ___copy_helper_block_ea8_32s40s48r56r64w96c66_ZTSNSt3__112basic_stringIcNS_11char_traitsIcEENS_9allocatorIcEEEE, symObjAddr: 0x1D30, symBinAddr: 0xD354, symSize: 0xC0 }
  - { offset: 0x6AAD9, size: 0x8, addend: 0x0, symName: ___destroy_helper_block_ea8_32s40s48r56r64w96c66_ZTSNSt3__112basic_stringIcNS_11char_traitsIcEENS_9allocatorIcEEEE, symObjAddr: 0x1DF0, symBinAddr: 0xD414, symSize: 0x58 }
  - { offset: 0x6B0C0, size: 0x8, addend: 0x0, symName: '__ZZN8facebook5react15ObjCTurboModule27performVoidMethodInvocationERNS_3jsi7RuntimeEPKcP12NSInvocationP14NSMutableArrayEN3$_1D1Ev', symObjAddr: 0x251C, symBinAddr: 0xDB40, symSize: 0x38 }
  - { offset: 0x6B206, size: 0x8, addend: 0x0, symName: ____ZN8facebook5react15ObjCTurboModule27performVoidMethodInvocationERNS_3jsi7RuntimeEPKcP12NSInvocationP14NSMutableArray_block_invoke, symObjAddr: 0x2274, symBinAddr: 0xD898, symSize: 0x1B8 }
  - { offset: 0x6B47D, size: 0x8, addend: 0x0, symName: ___copy_helper_block_ea8_32s40s48r56w96c66_ZTSNSt3__112basic_stringIcNS_11char_traitsIcEENS_9allocatorIcEEEE, symObjAddr: 0x242C, symBinAddr: 0xDA50, symSize: 0xA4 }
  - { offset: 0x6B503, size: 0x8, addend: 0x0, symName: ___destroy_helper_block_ea8_32s40s48r56w96c66_ZTSNSt3__112basic_stringIcNS_11char_traitsIcEENS_9allocatorIcEEEE, symObjAddr: 0x24D0, symBinAddr: 0xDAF4, symSize: 0x4C }
  - { offset: 0x6B651, size: 0x8, addend: 0x0, symName: __ZN8facebook5react15ObjCTurboModule25convertReturnIdToJSIValueERNS_3jsi7RuntimeEPKcNS0_26TurboModuleMethodValueKindEP11objc_object, symObjAddr: 0x2554, symBinAddr: 0xDB78, symSize: 0x204 }
  - { offset: 0x6B997, size: 0x8, addend: 0x0, symName: __ZN8facebook5react15ObjCTurboModule19getArgumentTypeNameERNS_3jsi7RuntimeEP8NSStringi, symObjAddr: 0x2758, symBinAddr: 0xDD7C, symSize: 0x2E8 }
  - { offset: 0x6BCB0, size: 0x8, addend: 0x0, symName: __ZN8facebook5react15ObjCTurboModule16setInvocationArgERNS_3jsi7RuntimeEPKcRKNSt3__112basic_stringIcNS7_11char_traitsIcEENS7_9allocatorIcEEEERKNS2_5ValueEmP12NSInvocationP14NSMutableArray, symObjAddr: 0x2A40, symBinAddr: 0xE064, symSize: 0x494 }
  - { offset: 0x6C3D7, size: 0x8, addend: 0x0, symName: __ZN8facebook5react15ObjCTurboModule30hasMethodArgConversionSelectorEP8NSStringm, symObjAddr: 0x2ED4, symBinAddr: 0xE4F8, symSize: 0xE4 }
  - { offset: 0x6C423, size: 0x8, addend: 0x0, symName: __ZN8facebook5react15ObjCTurboModule30getMethodArgConversionSelectorEP8NSStringm, symObjAddr: 0x2FB8, symBinAddr: 0xE5DC, symSize: 0x78 }
  - { offset: 0x6C46F, size: 0x8, addend: 0x0, symName: __ZN8facebook5react15ObjCTurboModule22createMethodInvocationERNS_3jsi7RuntimeEbPKcP13objc_selectorPKNS2_5ValueEmP14NSMutableArray, symObjAddr: 0x3030, symBinAddr: 0xE654, symSize: 0x1D4 }
  - { offset: 0x6C918, size: 0x8, addend: 0x0, symName: __ZN8facebook5react15ObjCTurboModule12isMethodSyncENS0_26TurboModuleMethodValueKindE, symObjAddr: 0x3204, symBinAddr: 0xE828, symSize: 0x2C }
  - { offset: 0x6C994, size: 0x8, addend: 0x0, symName: __ZN8facebook5react15ObjCTurboModuleC2ERKNS1_10InitParamsE, symObjAddr: 0x3230, symBinAddr: 0xE854, symSize: 0x13C }
  - { offset: 0x6CE8D, size: 0x8, addend: 0x0, symName: __ZN8facebook5react15ObjCTurboModuleC1ERKNS1_10InitParamsE, symObjAddr: 0x336C, symBinAddr: 0xE990, symSize: 0x4 }
  - { offset: 0x6CECB, size: 0x8, addend: 0x0, symName: __ZN8facebook5react15ObjCTurboModuleC1ERKNS1_10InitParamsE, symObjAddr: 0x336C, symBinAddr: 0xE990, symSize: 0x4 }
  - { offset: 0x6CF10, size: 0x8, addend: 0x0, symName: __ZN8facebook5react15ObjCTurboModule16invokeObjCMethodERNS_3jsi7RuntimeENS0_26TurboModuleMethodValueKindERKNSt3__112basic_stringIcNS6_11char_traitsIcEENS6_9allocatorIcEEEEP13objc_selectorPKNS2_5ValueEm, symObjAddr: 0x3370, symBinAddr: 0xE994, symSize: 0x33C }
  - { offset: 0x6D502, size: 0x8, addend: 0x0, symName: ____ZN8facebook5react15ObjCTurboModule16invokeObjCMethodERNS_3jsi7RuntimeENS0_26TurboModuleMethodValueKindERKNSt3__112basic_stringIcNS6_11char_traitsIcEENS6_9allocatorIcEEEEP13objc_selectorPKNS2_5ValueEm_block_invoke, symObjAddr: 0x36AC, symBinAddr: 0xECD0, symSize: 0x148 }
  - { offset: 0x6D5F3, size: 0x8, addend: 0x0, symName: ___copy_helper_block_ea8_32s40s, symObjAddr: 0x37F4, symBinAddr: 0xEE18, symSize: 0x28 }
  - { offset: 0x6D61C, size: 0x8, addend: 0x0, symName: ___destroy_helper_block_ea8_32s40s, symObjAddr: 0x381C, symBinAddr: 0xEE40, symSize: 0x28 }
  - { offset: 0x6D695, size: 0x8, addend: 0x0, symName: __ZN8facebook5react15ObjCTurboModule30setMethodArgConversionSelectorEP8NSStringmS3_, symObjAddr: 0x3844, symBinAddr: 0xEE68, symSize: 0x200 }
  - { offset: 0x6DB86, size: 0x8, addend: 0x0, symName: __ZN8facebook5react15ObjCTurboModule23setEventEmitterCallbackENSt3__18functionIFvRKNS2_12basic_stringIcNS2_11char_traitsIcEENS2_9allocatorIcEEEEP11objc_objectEEE, symObjAddr: 0x3A44, symBinAddr: 0xF068, symSize: 0xA4 }
  - { offset: 0x6DC04, size: 0x8, addend: 0x0, symName: __ZNSt3__110__function12__value_funcIFvRKNS_12basic_stringIcNS_11char_traitsIcEENS_9allocatorIcEEEEP11objc_objectEEaSB8ne200100EOSD_, symObjAddr: 0xA664, symBinAddr: 0x14218, symSize: 0x8C }
  - { offset: 0x6DCF8, size: 0x8, addend: 0x0, symName: '-[EventEmitterCallbackWrapper .cxx_destruct]', symObjAddr: 0x3AE8, symBinAddr: 0xF10C, symSize: 0x30 }
  - { offset: 0x6DE1C, size: 0x8, addend: 0x0, symName: '-[EventEmitterCallbackWrapper .cxx_construct]', symObjAddr: 0x3B18, symBinAddr: 0xF13C, symSize: 0x8 }
  - { offset: 0x6DE54, size: 0x8, addend: 0x0, symName: '-[EventEmitterCallbackWrapper .cxx_construct]', symObjAddr: 0x3B18, symBinAddr: 0xF13C, symSize: 0x8 }
  - { offset: 0x6DE72, size: 0x8, addend: 0x0, symName: '-[EventEmitterCallbackWrapper .cxx_construct]', symObjAddr: 0x3B18, symBinAddr: 0xF13C, symSize: 0x8 }
  - { offset: 0x6DE90, size: 0x8, addend: 0x0, symName: '-[EventEmitterCallbackWrapper .cxx_construct]', symObjAddr: 0x3B18, symBinAddr: 0xF13C, symSize: 0x8 }
  - { offset: 0x6DEAE, size: 0x8, addend: 0x0, symName: '-[EventEmitterCallbackWrapper .cxx_construct]', symObjAddr: 0x3B18, symBinAddr: 0xF13C, symSize: 0x8 }
  - { offset: 0x6DECE, size: 0x8, addend: 0x0, symName: __ZN8facebook5react15ObjCTurboModuleD1Ev, symObjAddr: 0x3B20, symBinAddr: 0xF144, symSize: 0x4 }
  - { offset: 0x6DEF1, size: 0x8, addend: 0x0, symName: __ZN8facebook5react15ObjCTurboModuleD1Ev, symObjAddr: 0x3B20, symBinAddr: 0xF144, symSize: 0x4 }
  - { offset: 0x6E0A2, size: 0x8, addend: 0x0, symName: __ZN8facebook5react15ObjCTurboModuleD0Ev, symObjAddr: 0x3B24, symBinAddr: 0xF148, symSize: 0x14 }
  - { offset: 0x6E6BE, size: 0x8, addend: 0x0, symName: ___Block_byref_object_copy_.77, symObjAddr: 0x3F4C, symBinAddr: 0xF15C, symSize: 0x28 }
  - { offset: 0x6E6E6, size: 0x8, addend: 0x0, symName: ___Block_byref_object_copy_.77, symObjAddr: 0x3F4C, symBinAddr: 0xF15C, symSize: 0x28 }
  - { offset: 0x6E70B, size: 0x8, addend: 0x0, symName: ___Block_byref_object_copy_.77, symObjAddr: 0x3F4C, symBinAddr: 0xF15C, symSize: 0x28 }
  - { offset: 0x6E732, size: 0x8, addend: 0x0, symName: ___Block_byref_object_copy_.77, symObjAddr: 0x3F4C, symBinAddr: 0xF15C, symSize: 0x28 }
  - { offset: 0x6E759, size: 0x8, addend: 0x0, symName: ___Block_byref_object_copy_.77, symObjAddr: 0x3F4C, symBinAddr: 0xF15C, symSize: 0x28 }
  - { offset: 0x6E780, size: 0x8, addend: 0x0, symName: ___Block_byref_object_copy_.77, symObjAddr: 0x3F4C, symBinAddr: 0xF15C, symSize: 0x28 }
  - { offset: 0x6E7A7, size: 0x8, addend: 0x0, symName: ___Block_byref_object_copy_.77, symObjAddr: 0x3F4C, symBinAddr: 0xF15C, symSize: 0x28 }
  - { offset: 0x6E7C5, size: 0x8, addend: 0x0, symName: ___Block_byref_object_copy_.77, symObjAddr: 0x3F4C, symBinAddr: 0xF15C, symSize: 0x28 }
  - { offset: 0x6E7E3, size: 0x8, addend: 0x0, symName: ___Block_byref_object_copy_.77, symObjAddr: 0x3F4C, symBinAddr: 0xF15C, symSize: 0x28 }
  - { offset: 0x6E962, size: 0x8, addend: 0x0, symName: ___Block_byref_object_dispose_.78, symObjAddr: 0x3F74, symBinAddr: 0xF184, symSize: 0x18 }
  - { offset: 0x6ED99, size: 0x8, addend: 0x0, symName: ___copy_helper_block_ea8_32r, symObjAddr: 0x40F4, symBinAddr: 0xF304, symSize: 0x10 }
  - { offset: 0x6EDC2, size: 0x8, addend: 0x0, symName: ___destroy_helper_block_ea8_32r, symObjAddr: 0x4104, symBinAddr: 0xF314, symSize: 0xC }
  - { offset: 0x6F03D, size: 0x8, addend: 0x0, symName: __ZNSt3__120__shared_ptr_emplaceIN8facebook5react12SyncCallbackIFvvEEENS_9allocatorIS5_EEEC2B8ne200100IJRNS1_3jsi7RuntimeENSA_8FunctionENS_10shared_ptrINS2_11CallInvokerEEEES7_Li0EEES7_DpOT_, symObjAddr: 0x41A8, symBinAddr: 0xF390, symSize: 0x4C }
  - { offset: 0x6F26D, size: 0x8, addend: 0x0, symName: __ZNSt3__120__shared_ptr_emplaceIN8facebook5react12SyncCallbackIFvvEEENS_9allocatorIS5_EEED1Ev, symObjAddr: 0x41F4, symBinAddr: 0xF3DC, symSize: 0x14 }
  - { offset: 0x6F28F, size: 0x8, addend: 0x0, symName: __ZNSt3__120__shared_ptr_emplaceIN8facebook5react12SyncCallbackIFvvEEENS_9allocatorIS5_EEED1Ev, symObjAddr: 0x41F4, symBinAddr: 0xF3DC, symSize: 0x14 }
  - { offset: 0x6F2C5, size: 0x8, addend: 0x0, symName: __ZNSt3__120__shared_ptr_emplaceIN8facebook5react12SyncCallbackIFvvEEENS_9allocatorIS5_EEED0Ev, symObjAddr: 0x4208, symBinAddr: 0xF3F0, symSize: 0x24 }
  - { offset: 0x6F3AB, size: 0x8, addend: 0x0, symName: __ZNSt3__120__shared_ptr_emplaceIN8facebook5react12SyncCallbackIFvvEEENS_9allocatorIS5_EEE16__on_zero_sharedEv, symObjAddr: 0x422C, symBinAddr: 0xF414, symSize: 0x8 }
  - { offset: 0x6F3D4, size: 0x8, addend: 0x0, symName: __ZNSt3__120__shared_ptr_emplaceIN8facebook5react12SyncCallbackIFvvEEENS_9allocatorIS5_EEE16__on_zero_sharedEv, symObjAddr: 0x422C, symBinAddr: 0xF414, symSize: 0x8 }
  - { offset: 0x6F3F1, size: 0x8, addend: 0x0, symName: __ZNSt3__120__shared_ptr_emplaceIN8facebook5react12SyncCallbackIFvvEEENS_9allocatorIS5_EEE16__on_zero_sharedEv, symObjAddr: 0x422C, symBinAddr: 0xF414, symSize: 0x8 }
  - { offset: 0x6F459, size: 0x8, addend: 0x0, symName: __ZN8facebook5react12SyncCallbackIFvvEED2Ev, symObjAddr: 0x4750, symBinAddr: 0xF83C, symSize: 0x88 }
  - { offset: 0x6F5AC, size: 0x8, addend: 0x0, symName: __ZNSt3__120__shared_ptr_emplaceIN8facebook5react12SyncCallbackIFvvEEENS_9allocatorIS5_EEE21__on_zero_shared_weakEv, symObjAddr: 0x4234, symBinAddr: 0xF41C, symSize: 0x4 }
  - { offset: 0x6F5DE, size: 0x8, addend: 0x0, symName: __ZNSt3__120__shared_ptr_emplaceIN8facebook5react12SyncCallbackIFvvEEENS_9allocatorIS5_EEE21__on_zero_shared_weakEv, symObjAddr: 0x4234, symBinAddr: 0xF41C, symSize: 0x4 }
  - { offset: 0x6F600, size: 0x8, addend: 0x0, symName: __ZNSt3__120__shared_ptr_emplaceIN8facebook5react12SyncCallbackIFvvEEENS_9allocatorIS5_EEE21__on_zero_shared_weakEv, symObjAddr: 0x4234, symBinAddr: 0xF41C, symSize: 0x4 }
  - { offset: 0x6F623, size: 0x8, addend: 0x0, symName: __ZNSt3__120__shared_ptr_emplaceIN8facebook5react12SyncCallbackIFvvEEENS_9allocatorIS5_EEE21__on_zero_shared_weakEv, symObjAddr: 0x4234, symBinAddr: 0xF41C, symSize: 0x4 }
  - { offset: 0x6F658, size: 0x8, addend: 0x0, symName: __ZNSt3__120__shared_ptr_emplaceIN8facebook5react12SyncCallbackIFvvEEENS_9allocatorIS5_EEE21__on_zero_shared_weakEv, symObjAddr: 0x4234, symBinAddr: 0xF41C, symSize: 0x4 }
  - { offset: 0x6F6BB, size: 0x8, addend: 0x0, symName: __ZN8facebook5react12SyncCallbackIFvvEEC2ERNS_3jsi7RuntimeENS4_8FunctionENSt3__110shared_ptrINS0_11CallInvokerEEE, symObjAddr: 0x42F8, symBinAddr: 0xF4E0, symSize: 0x94 }
  - { offset: 0x6F853, size: 0x8, addend: 0x0, symName: __ZN8facebook5react15CallbackWrapper10createWeakEONS_3jsi8FunctionERNS2_7RuntimeENSt3__110shared_ptrINS0_11CallInvokerEEE, symObjAddr: 0x438C, symBinAddr: 0xF574, symSize: 0x164 }
  - { offset: 0x6FFFD, size: 0x8, addend: 0x0, symName: __ZNSt3__110shared_ptrIN8facebook5react15CallbackWrapperEEC2B8ne200100IS3_Li0EEEPT_, symObjAddr: 0x4580, symBinAddr: 0xF768, symSize: 0x68 }
  - { offset: 0x7020C, size: 0x8, addend: 0x0, symName: __ZN8facebook5react15CallbackWrapperD1Ev, symObjAddr: 0x44F0, symBinAddr: 0xF6D8, symSize: 0x48 }
  - { offset: 0x7030F, size: 0x8, addend: 0x0, symName: __ZN8facebook5react15CallbackWrapperD0Ev, symObjAddr: 0x4538, symBinAddr: 0xF720, symSize: 0x48 }
  - { offset: 0x70594, size: 0x8, addend: 0x0, symName: __ZNSt3__120__shared_ptr_pointerIPN8facebook5react15CallbackWrapperENS_10shared_ptrIS3_E27__shared_ptr_default_deleteIS3_S3_EENS_9allocatorIS3_EEED1Ev, symObjAddr: 0x45E8, symBinAddr: 0xF7D0, symSize: 0x4 }
  - { offset: 0x705B6, size: 0x8, addend: 0x0, symName: __ZNSt3__120__shared_ptr_pointerIPN8facebook5react15CallbackWrapperENS_10shared_ptrIS3_E27__shared_ptr_default_deleteIS3_S3_EENS_9allocatorIS3_EEED1Ev, symObjAddr: 0x45E8, symBinAddr: 0xF7D0, symSize: 0x4 }
  - { offset: 0x705EC, size: 0x8, addend: 0x0, symName: __ZNSt3__120__shared_ptr_pointerIPN8facebook5react15CallbackWrapperENS_10shared_ptrIS3_E27__shared_ptr_default_deleteIS3_S3_EENS_9allocatorIS3_EEED0Ev, symObjAddr: 0x45EC, symBinAddr: 0xF7D4, symSize: 0x14 }
  - { offset: 0x7064F, size: 0x8, addend: 0x0, symName: __ZNSt3__120__shared_ptr_pointerIPN8facebook5react15CallbackWrapperENS_10shared_ptrIS3_E27__shared_ptr_default_deleteIS3_S3_EENS_9allocatorIS3_EEE16__on_zero_sharedEv, symObjAddr: 0x4600, symBinAddr: 0xF7E8, symSize: 0x18 }
  - { offset: 0x7069E, size: 0x8, addend: 0x0, symName: __ZNKSt3__120__shared_ptr_pointerIPN8facebook5react15CallbackWrapperENS_10shared_ptrIS3_E27__shared_ptr_default_deleteIS3_S3_EENS_9allocatorIS3_EEE13__get_deleterERKSt9type_info, symObjAddr: 0x4618, symBinAddr: 0xF800, symSize: 0x38 }
  - { offset: 0x7078C, size: 0x8, addend: 0x0, symName: __ZNSt3__120__shared_ptr_pointerIPN8facebook5react15CallbackWrapperENS_10shared_ptrIS3_E27__shared_ptr_default_deleteIS3_S3_EENS_9allocatorIS3_EEE21__on_zero_shared_weakEv, symObjAddr: 0x4650, symBinAddr: 0xF838, symSize: 0x4 }
  - { offset: 0x707BE, size: 0x8, addend: 0x0, symName: __ZNSt3__120__shared_ptr_pointerIPN8facebook5react15CallbackWrapperENS_10shared_ptrIS3_E27__shared_ptr_default_deleteIS3_S3_EENS_9allocatorIS3_EEE21__on_zero_shared_weakEv, symObjAddr: 0x4650, symBinAddr: 0xF838, symSize: 0x4 }
  - { offset: 0x707E0, size: 0x8, addend: 0x0, symName: __ZNSt3__120__shared_ptr_pointerIPN8facebook5react15CallbackWrapperENS_10shared_ptrIS3_E27__shared_ptr_default_deleteIS3_S3_EENS_9allocatorIS3_EEE21__on_zero_shared_weakEv, symObjAddr: 0x4650, symBinAddr: 0xF838, symSize: 0x4 }
  - { offset: 0x70815, size: 0x8, addend: 0x0, symName: __ZNSt3__120__shared_ptr_pointerIPN8facebook5react15CallbackWrapperENS_10shared_ptrIS3_E27__shared_ptr_default_deleteIS3_S3_EENS_9allocatorIS3_EEE21__on_zero_shared_weakEv, symObjAddr: 0x4650, symBinAddr: 0xF838, symSize: 0x4 }
  - { offset: 0x70BB9, size: 0x8, addend: 0x0, symName: __ZNSt3__112basic_stringIcNS_11char_traitsIcEENS_9allocatorIcEEEC2B8ne200100Emc, symObjAddr: 0x4AD4, symBinAddr: 0xFB68, symSize: 0x9C }
  - { offset: 0x71453, size: 0x8, addend: 0x0, symName: __ZNSt3__110__function12__value_funcIFvRN8facebook3jsi7RuntimeERNS3_8FunctionEEEC2B8ne200100EOS9_, symObjAddr: 0x4F3C, symBinAddr: 0xFF48, symSize: 0x64 }
  - { offset: 0x714F6, size: 0x8, addend: 0x0, symName: __ZNSt3__110__function6__funcIZNK8facebook5react13AsyncCallbackIJEE16callWithFunctionENS_8optionalINS3_17SchedulerPriorityEEEONS_8functionIFvRNS2_3jsi7RuntimeERNSA_8FunctionEEEEEUlSC_E_NS_9allocatorISI_EEFvSC_EED1Ev, symObjAddr: 0x4FA0, symBinAddr: 0xFFAC, symSize: 0x60 }
  - { offset: 0x7165E, size: 0x8, addend: 0x0, symName: __ZNSt3__110__function6__funcIZNK8facebook5react13AsyncCallbackIJEE16callWithFunctionENS_8optionalINS3_17SchedulerPriorityEEEONS_8functionIFvRNS2_3jsi7RuntimeERNSA_8FunctionEEEEEUlSC_E_NS_9allocatorISI_EEFvSC_EED0Ev, symObjAddr: 0x5000, symBinAddr: 0x1000C, symSize: 0x60 }
  - { offset: 0x71987, size: 0x8, addend: 0x0, symName: __ZNKSt3__110__function6__funcIZNK8facebook5react13AsyncCallbackIJEE16callWithFunctionENS_8optionalINS3_17SchedulerPriorityEEEONS_8functionIFvRNS2_3jsi7RuntimeERNSA_8FunctionEEEEEUlSC_E_NS_9allocatorISI_EEFvSC_EE7__cloneEv, symObjAddr: 0x5060, symBinAddr: 0x1006C, symSize: 0x60 }
  - { offset: 0x71B9F, size: 0x8, addend: 0x0, symName: __ZNSt3__110__function12__alloc_funcIZNK8facebook5react13AsyncCallbackIJEE16callWithFunctionENS_8optionalINS3_17SchedulerPriorityEEEONS_8functionIFvRNS2_3jsi7RuntimeERNSA_8FunctionEEEEEUlSC_E_NS_9allocatorISI_EEFvSC_EEC2B8ne200100ERKSI_OSK_, symObjAddr: 0x51D0, symBinAddr: 0x101DC, symSize: 0x60 }
  - { offset: 0x71DE5, size: 0x8, addend: 0x0, symName: __ZNKSt3__110__function6__funcIZNK8facebook5react13AsyncCallbackIJEE16callWithFunctionENS_8optionalINS3_17SchedulerPriorityEEEONS_8functionIFvRNS2_3jsi7RuntimeERNSA_8FunctionEEEEEUlSC_E_NS_9allocatorISI_EEFvSC_EE7__cloneEPNS0_6__baseISL_EE, symObjAddr: 0x50C0, symBinAddr: 0x100CC, symSize: 0x20 }
  - { offset: 0x71E77, size: 0x8, addend: 0x0, symName: __ZNSt3__110__function12__alloc_funcIZNK8facebook5react13AsyncCallbackIJEE16callWithFunctionENS_8optionalINS3_17SchedulerPriorityEEEONS_8functionIFvRNS2_3jsi7RuntimeERNSA_8FunctionEEEEEUlSC_E_NS_9allocatorISI_EEFvSC_EEC2B8ne200100ERKSI_RKSK_, symObjAddr: 0x5294, symBinAddr: 0x102A0, symSize: 0x60 }
  - { offset: 0x7203B, size: 0x8, addend: 0x0, symName: __ZNSt3__110__function6__funcIZNK8facebook5react13AsyncCallbackIJEE16callWithFunctionENS_8optionalINS3_17SchedulerPriorityEEEONS_8functionIFvRNS2_3jsi7RuntimeERNSA_8FunctionEEEEEUlSC_E_NS_9allocatorISI_EEFvSC_EE7destroyEv, symObjAddr: 0x50E0, symBinAddr: 0x100EC, symSize: 0x4C }
  - { offset: 0x72150, size: 0x8, addend: 0x0, symName: __ZNSt3__110__function6__funcIZNK8facebook5react13AsyncCallbackIJEE16callWithFunctionENS_8optionalINS3_17SchedulerPriorityEEEONS_8functionIFvRNS2_3jsi7RuntimeERNSA_8FunctionEEEEEUlSC_E_NS_9allocatorISI_EEFvSC_EE18destroy_deallocateEv, symObjAddr: 0x512C, symBinAddr: 0x10138, symSize: 0x54 }
  - { offset: 0x72327, size: 0x8, addend: 0x0, symName: __ZNSt3__110__function6__funcIZNK8facebook5react13AsyncCallbackIJEE16callWithFunctionENS_8optionalINS3_17SchedulerPriorityEEEONS_8functionIFvRNS2_3jsi7RuntimeERNSA_8FunctionEEEEEUlSC_E_NS_9allocatorISI_EEFvSC_EEclESC_, symObjAddr: 0x5180, symBinAddr: 0x1018C, symSize: 0x8 }
  - { offset: 0x723AC, size: 0x8, addend: 0x0, symName: __ZNSt3__128__invoke_void_return_wrapperIvLb1EE6__callB8ne200100IJRZNK8facebook5react13AsyncCallbackIJEE16callWithFunctionENS_8optionalINS4_17SchedulerPriorityEEEONS_8functionIFvRNS3_3jsi7RuntimeERNSB_8FunctionEEEEEUlSD_E_SD_EEEvDpOT_, symObjAddr: 0x52F4, symBinAddr: 0x10300, symSize: 0xD0 }
  - { offset: 0x725A9, size: 0x8, addend: 0x0, symName: __ZNKSt3__110__function6__funcIZNK8facebook5react13AsyncCallbackIJEE16callWithFunctionENS_8optionalINS3_17SchedulerPriorityEEEONS_8functionIFvRNS2_3jsi7RuntimeERNSA_8FunctionEEEEEUlSC_E_NS_9allocatorISI_EEFvSC_EE6targetERKSt9type_info, symObjAddr: 0x5188, symBinAddr: 0x10194, symSize: 0x3C }
  - { offset: 0x725F6, size: 0x8, addend: 0x0, symName: __ZNKSt3__110__function6__funcIZNK8facebook5react13AsyncCallbackIJEE16callWithFunctionENS_8optionalINS3_17SchedulerPriorityEEEONS_8functionIFvRNS2_3jsi7RuntimeERNSA_8FunctionEEEEEUlSC_E_NS_9allocatorISI_EEFvSC_EE11target_typeEv, symObjAddr: 0x51C4, symBinAddr: 0x101D0, symSize: 0xC }
  - { offset: 0x726D4, size: 0x8, addend: 0x0, symName: __ZNSt3__110__function12__value_funcIFvRN8facebook3jsi7RuntimeERNS3_8FunctionEEEC2B8ne200100ERKS9_, symObjAddr: 0x5230, symBinAddr: 0x1023C, symSize: 0x64 }
  - { offset: 0x72850, size: 0x8, addend: 0x0, symName: __ZNSt3__117bad_function_callD1Ev, symObjAddr: 0x53F8, symBinAddr: 0x10404, symSize: 0x4 }
  - { offset: 0x72872, size: 0x8, addend: 0x0, symName: __ZNSt3__117bad_function_callD1Ev, symObjAddr: 0x53F8, symBinAddr: 0x10404, symSize: 0x4 }
  - { offset: 0x728A6, size: 0x8, addend: 0x0, symName: __ZNSt3__117bad_function_callD0Ev, symObjAddr: 0x53FC, symBinAddr: 0x10408, symSize: 0x14 }
  - { offset: 0x72999, size: 0x8, addend: 0x0, symName: '__ZNSt3__110__function6__funcIZZN8facebook5react23TurboModuleConvertUtilsL28convertJSIFunctionToCallbackERNS2_3jsi7RuntimeEONS5_8FunctionERKNS_10shared_ptrINS3_11CallInvokerEEEEUb_E3$_0NS_9allocatorISF_EEFvS7_RS8_EED1Ev', symObjAddr: 0x5410, symBinAddr: 0x1041C, symSize: 0x28 }
  - { offset: 0x72A6E, size: 0x8, addend: 0x0, symName: '__ZNSt3__110__function6__funcIZZN8facebook5react23TurboModuleConvertUtilsL28convertJSIFunctionToCallbackERNS2_3jsi7RuntimeEONS5_8FunctionERKNS_10shared_ptrINS3_11CallInvokerEEEEUb_E3$_0NS_9allocatorISF_EEFvS7_RS8_EED0Ev', symObjAddr: 0x5438, symBinAddr: 0x10444, symSize: 0x28 }
  - { offset: 0x72C7F, size: 0x8, addend: 0x0, symName: '__ZNKSt3__110__function6__funcIZZN8facebook5react23TurboModuleConvertUtilsL28convertJSIFunctionToCallbackERNS2_3jsi7RuntimeEONS5_8FunctionERKNS_10shared_ptrINS3_11CallInvokerEEEEUb_E3$_0NS_9allocatorISF_EEFvS7_RS8_EE7__cloneEv', symObjAddr: 0x5460, symBinAddr: 0x1046C, symSize: 0x44 }
  - { offset: 0x72EE4, size: 0x8, addend: 0x0, symName: '__ZNKSt3__110__function6__funcIZZN8facebook5react23TurboModuleConvertUtilsL28convertJSIFunctionToCallbackERNS2_3jsi7RuntimeEONS5_8FunctionERKNS_10shared_ptrINS3_11CallInvokerEEEEUb_E3$_0NS_9allocatorISF_EEFvS7_RS8_EE7__cloneEPNS0_6__baseISJ_EE', symObjAddr: 0x54A4, symBinAddr: 0x104B0, symSize: 0x34 }
  - { offset: 0x7303F, size: 0x8, addend: 0x0, symName: '__ZNSt3__110__function6__funcIZZN8facebook5react23TurboModuleConvertUtilsL28convertJSIFunctionToCallbackERNS2_3jsi7RuntimeEONS5_8FunctionERKNS_10shared_ptrINS3_11CallInvokerEEEEUb_E3$_0NS_9allocatorISF_EEFvS7_RS8_EE7destroyEv', symObjAddr: 0x54D8, symBinAddr: 0x104E4, symSize: 0x8 }
  - { offset: 0x73068, size: 0x8, addend: 0x0, symName: '__ZNSt3__110__function6__funcIZZN8facebook5react23TurboModuleConvertUtilsL28convertJSIFunctionToCallbackERNS2_3jsi7RuntimeEONS5_8FunctionERKNS_10shared_ptrINS3_11CallInvokerEEEEUb_E3$_0NS_9allocatorISF_EEFvS7_RS8_EE7destroyEv', symObjAddr: 0x54D8, symBinAddr: 0x104E4, symSize: 0x8 }
  - { offset: 0x73086, size: 0x8, addend: 0x0, symName: '__ZNSt3__110__function6__funcIZZN8facebook5react23TurboModuleConvertUtilsL28convertJSIFunctionToCallbackERNS2_3jsi7RuntimeEONS5_8FunctionERKNS_10shared_ptrINS3_11CallInvokerEEEEUb_E3$_0NS_9allocatorISF_EEFvS7_RS8_EE7destroyEv', symObjAddr: 0x54D8, symBinAddr: 0x104E4, symSize: 0x8 }
  - { offset: 0x730A3, size: 0x8, addend: 0x0, symName: '__ZNSt3__110__function6__funcIZZN8facebook5react23TurboModuleConvertUtilsL28convertJSIFunctionToCallbackERNS2_3jsi7RuntimeEONS5_8FunctionERKNS_10shared_ptrINS3_11CallInvokerEEEEUb_E3$_0NS_9allocatorISF_EEFvS7_RS8_EE7destroyEv', symObjAddr: 0x54D8, symBinAddr: 0x104E4, symSize: 0x8 }
  - { offset: 0x730F2, size: 0x8, addend: 0x0, symName: '__ZNSt3__110__function6__funcIZZN8facebook5react23TurboModuleConvertUtilsL28convertJSIFunctionToCallbackERNS2_3jsi7RuntimeEONS5_8FunctionERKNS_10shared_ptrINS3_11CallInvokerEEEEUb_E3$_0NS_9allocatorISF_EEFvS7_RS8_EE18destroy_deallocateEv', symObjAddr: 0x54E0, symBinAddr: 0x104EC, symSize: 0x28 }
  - { offset: 0x734C4, size: 0x8, addend: 0x0, symName: '__ZNSt3__110__function6__funcIZZN8facebook5react23TurboModuleConvertUtilsL28convertJSIFunctionToCallbackERNS2_3jsi7RuntimeEONS5_8FunctionERKNS_10shared_ptrINS3_11CallInvokerEEEEUb_E3$_0NS_9allocatorISF_EEFvS7_RS8_EEclES7_SI_', symObjAddr: 0x5508, symBinAddr: 0x10514, symSize: 0x174 }
  - { offset: 0x739F9, size: 0x8, addend: 0x0, symName: __ZNSt3__16vectorIN8facebook3jsi5ValueENS_9allocatorIS3_EEE24__emplace_back_slow_pathIJS3_EEEPS3_DpOT_, symObjAddr: 0x56C4, symBinAddr: 0x106D0, symSize: 0x108 }
  - { offset: 0x73CDD, size: 0x8, addend: 0x0, symName: __ZNSt3__16vectorIN8facebook3jsi5ValueENS_9allocatorIS3_EEE16__destroy_vectorclB8ne200100Ev, symObjAddr: 0x58C8, symBinAddr: 0x108C0, symSize: 0x70 }
  - { offset: 0x73E26, size: 0x8, addend: 0x0, symName: '__ZNKSt3__110__function6__funcIZZN8facebook5react23TurboModuleConvertUtilsL28convertJSIFunctionToCallbackERNS2_3jsi7RuntimeEONS5_8FunctionERKNS_10shared_ptrINS3_11CallInvokerEEEEUb_E3$_0NS_9allocatorISF_EEFvS7_RS8_EE6targetERKSt9type_info', symObjAddr: 0x567C, symBinAddr: 0x10688, symSize: 0x3C }
  - { offset: 0x73E73, size: 0x8, addend: 0x0, symName: '__ZNKSt3__110__function6__funcIZZN8facebook5react23TurboModuleConvertUtilsL28convertJSIFunctionToCallbackERNS2_3jsi7RuntimeEONS5_8FunctionERKNS_10shared_ptrINS3_11CallInvokerEEEEUb_E3$_0NS_9allocatorISF_EEFvS7_RS8_EE11target_typeEv', symObjAddr: 0x56B8, symBinAddr: 0x106C4, symSize: 0xC }
  - { offset: 0x73FC2, size: 0x8, addend: 0x0, symName: __ZNSt3__114__split_bufferIN8facebook3jsi5ValueERNS_9allocatorIS3_EEED2Ev, symObjAddr: 0x587C, symBinAddr: 0x10874, symSize: 0x4C }
  - { offset: 0x7410D, size: 0x8, addend: 0x0, symName: __ZNSt3__119__allocate_at_leastB8ne200100INS_9allocatorIN8facebook3jsi5ValueEEEEENS_19__allocation_resultINS_16allocator_traitsIT_E7pointerEEERS8_m, symObjAddr: 0x57E0, symBinAddr: 0x107D8, symSize: 0x34 }
  - { offset: 0x7431C, size: 0x8, addend: 0x0, symName: __ZNK8facebook3jsi6Object11setPropertyIPKcEEvRNS0_7RuntimeERKNS0_6StringEOT_, symObjAddr: 0x5FE0, symBinAddr: 0x10C98, symSize: 0xA0 }
  - { offset: 0x744CA, size: 0x8, addend: 0x0, symName: __ZNK8facebook3jsi6Object11setPropertyIRNSt3__112basic_stringIcNS3_11char_traitsIcEENS3_9allocatorIcEEEEEEvRNS0_7RuntimeERKNS0_6StringEOT_, symObjAddr: 0x6080, symBinAddr: 0x10D38, symSize: 0xA4 }
  - { offset: 0x74693, size: 0x8, addend: 0x0, symName: __ZNK8facebook3jsi6Object11setPropertyINS0_5ArrayEEEvRNS0_7RuntimeERKNS0_6StringEOT_, symObjAddr: 0x6124, symBinAddr: 0x10DDC, symSize: 0x90 }
  - { offset: 0x76083, size: 0x8, addend: 0x0, symName: '__ZNSt3__110__function6__funcIZN8facebook5react15ObjCTurboModule13createPromiseERNS2_3jsi7RuntimeERKNS_12basic_stringIcNS_11char_traitsIcEENS_9allocatorIcEEEEU13block_pointerFvU13block_pointerFvP11objc_objectEU13block_pointerFvP8NSStringSL_P7NSErrorEEE3$_0NSB_ISS_EEFNS5_5ValueES7_RKSU_PSV_mEED1Ev', symObjAddr: 0x72A4, symBinAddr: 0x10E6C, symSize: 0x5C }
  - { offset: 0x76391, size: 0x8, addend: 0x0, symName: '__ZNSt3__110__function6__funcIZN8facebook5react15ObjCTurboModule13createPromiseERNS2_3jsi7RuntimeERKNS_12basic_stringIcNS_11char_traitsIcEENS_9allocatorIcEEEEU13block_pointerFvU13block_pointerFvP11objc_objectEU13block_pointerFvP8NSStringSL_P7NSErrorEEE3$_0NSB_ISS_EEFNS5_5ValueES7_RKSU_PSV_mEED0Ev', symObjAddr: 0x7300, symBinAddr: 0x10EC8, symSize: 0x5C }
  - { offset: 0x7680A, size: 0x8, addend: 0x0, symName: '__ZNKSt3__110__function6__funcIZN8facebook5react15ObjCTurboModule13createPromiseERNS2_3jsi7RuntimeERKNS_12basic_stringIcNS_11char_traitsIcEENS_9allocatorIcEEEEU13block_pointerFvU13block_pointerFvP11objc_objectEU13block_pointerFvP8NSStringSL_P7NSErrorEEE3$_0NSB_ISS_EEFNS5_5ValueES7_RKSU_PSV_mEE7__cloneEv', symObjAddr: 0x735C, symBinAddr: 0x10F24, symSize: 0x54 }
  - { offset: 0x76A1D, size: 0x8, addend: 0x0, symName: '__ZZN8facebook5react15ObjCTurboModule13createPromiseERNS_3jsi7RuntimeERKNSt3__112basic_stringIcNS5_11char_traitsIcEENS5_9allocatorIcEEEEU13block_pointerFvU13block_pointerFvP11objc_objectEU13block_pointerFvP8NSStringSJ_P7NSErrorEEEN3$_0C1ERKSQ_', symObjAddr: 0x7BB0, symBinAddr: 0x11778, symSize: 0xE4 }
  - { offset: 0x76DAD, size: 0x8, addend: 0x0, symName: '__ZNKSt3__110__function6__funcIZN8facebook5react15ObjCTurboModule13createPromiseERNS2_3jsi7RuntimeERKNS_12basic_stringIcNS_11char_traitsIcEENS_9allocatorIcEEEEU13block_pointerFvU13block_pointerFvP11objc_objectEU13block_pointerFvP8NSStringSL_P7NSErrorEEE3$_0NSB_ISS_EEFNS5_5ValueES7_RKSU_PSV_mEE7__cloneEPNS0_6__baseISY_EE', symObjAddr: 0x73B0, symBinAddr: 0x10F78, symSize: 0x1C }
  - { offset: 0x76E5B, size: 0x8, addend: 0x0, symName: '__ZNSt3__110__function6__funcIZN8facebook5react15ObjCTurboModule13createPromiseERNS2_3jsi7RuntimeERKNS_12basic_stringIcNS_11char_traitsIcEENS_9allocatorIcEEEEU13block_pointerFvU13block_pointerFvP11objc_objectEU13block_pointerFvP8NSStringSL_P7NSErrorEEE3$_0NSB_ISS_EEFNS5_5ValueES7_RKSU_PSV_mEE7destroyEv', symObjAddr: 0x73CC, symBinAddr: 0x10F94, symSize: 0x8 }
  - { offset: 0x76E8F, size: 0x8, addend: 0x0, symName: '__ZNSt3__110__function12__alloc_funcIZN8facebook5react15ObjCTurboModule13createPromiseERNS2_3jsi7RuntimeERKNS_12basic_stringIcNS_11char_traitsIcEENS_9allocatorIcEEEEU13block_pointerFvU13block_pointerFvP11objc_objectEU13block_pointerFvP8NSStringSL_P7NSErrorEEE3$_0NSB_ISS_EEFNS5_5ValueES7_RKSU_PSV_mEE7destroyB8ne200100Ev', symObjAddr: 0x7C94, symBinAddr: 0x1185C, symSize: 0x48 }
  - { offset: 0x7712B, size: 0x8, addend: 0x0, symName: '__ZNSt3__110__function6__funcIZN8facebook5react15ObjCTurboModule13createPromiseERNS2_3jsi7RuntimeERKNS_12basic_stringIcNS_11char_traitsIcEENS_9allocatorIcEEEEU13block_pointerFvU13block_pointerFvP11objc_objectEU13block_pointerFvP8NSStringSL_P7NSErrorEEE3$_0NSB_ISS_EEFNS5_5ValueES7_RKSU_PSV_mEE18destroy_deallocateEv', symObjAddr: 0x73D4, symBinAddr: 0x10F9C, symSize: 0x28 }
  - { offset: 0x773C3, size: 0x8, addend: 0x0, symName: '__ZNSt3__110__function6__funcIZN8facebook5react15ObjCTurboModule13createPromiseERNS2_3jsi7RuntimeERKNS_12basic_stringIcNS_11char_traitsIcEENS_9allocatorIcEEEEU13block_pointerFvU13block_pointerFvP11objc_objectEU13block_pointerFvP8NSStringSL_P7NSErrorEEE3$_0NSB_ISS_EEFNS5_5ValueES7_RKSU_PSV_mEEclES7_SW_OSX_Om', symObjAddr: 0x73FC, symBinAddr: 0x10FC4, symSize: 0x76C }
  - { offset: 0x7996E, size: 0x8, addend: 0x0, symName: '__ZNKSt3__110__function6__funcIZN8facebook5react15ObjCTurboModule13createPromiseERNS2_3jsi7RuntimeERKNS_12basic_stringIcNS_11char_traitsIcEENS_9allocatorIcEEEEU13block_pointerFvU13block_pointerFvP11objc_objectEU13block_pointerFvP8NSStringSL_P7NSErrorEEE3$_0NSB_ISS_EEFNS5_5ValueES7_RKSU_PSV_mEE6targetERKSt9type_info', symObjAddr: 0x7B68, symBinAddr: 0x11730, symSize: 0x3C }
  - { offset: 0x799BB, size: 0x8, addend: 0x0, symName: '__ZNKSt3__110__function6__funcIZN8facebook5react15ObjCTurboModule13createPromiseERNS2_3jsi7RuntimeERKNS_12basic_stringIcNS_11char_traitsIcEENS_9allocatorIcEEEEU13block_pointerFvU13block_pointerFvP11objc_objectEU13block_pointerFvP8NSStringSL_P7NSErrorEEE3$_0NSB_ISS_EEFNS5_5ValueES7_RKSU_PSV_mEE11target_typeEv', symObjAddr: 0x7BA4, symBinAddr: 0x1176C, symSize: 0xC }
  - { offset: 0x79BD3, size: 0x8, addend: 0x0, symName: ___copy_helper_block_ea8_32r40r48r56c66_ZTSNSt3__112basic_stringIcNS_11char_traitsIcEENS_9allocatorIcEEEE, symObjAddr: 0x7E74, symBinAddr: 0x11A3C, symSize: 0xA8 }
  - { offset: 0x79C58, size: 0x8, addend: 0x0, symName: ___destroy_helper_block_ea8_32r40r48r56c66_ZTSNSt3__112basic_stringIcNS_11char_traitsIcEENS_9allocatorIcEEEE, symObjAddr: 0x7F1C, symBinAddr: 0x11AE4, symSize: 0x4C }
  - { offset: 0x79FE3, size: 0x8, addend: 0x0, symName: '__ZNSt3__110__function6__funcIZZZN8facebook5react15ObjCTurboModule13createPromiseERNS2_3jsi7RuntimeERKNS_12basic_stringIcNS_11char_traitsIcEENS_9allocatorIcEEEEU13block_pointerFvU13block_pointerFvP11objc_objectEU13block_pointerFvP8NSStringSL_P7NSErrorEEENK3$_0clES7_RKNS5_5ValueEPSU_mEUb_EUlS7_RNS5_8FunctionEE_NSB_ISZ_EEFvS7_SY_EED1Ev', symObjAddr: 0x815C, symBinAddr: 0x11D24, symSize: 0x28 }
  - { offset: 0x7A0B9, size: 0x8, addend: 0x0, symName: '__ZNSt3__110__function6__funcIZZZN8facebook5react15ObjCTurboModule13createPromiseERNS2_3jsi7RuntimeERKNS_12basic_stringIcNS_11char_traitsIcEENS_9allocatorIcEEEEU13block_pointerFvU13block_pointerFvP11objc_objectEU13block_pointerFvP8NSStringSL_P7NSErrorEEENK3$_0clES7_RKNS5_5ValueEPSU_mEUb_EUlS7_RNS5_8FunctionEE_NSB_ISZ_EEFvS7_SY_EED0Ev', symObjAddr: 0x8184, symBinAddr: 0x11D4C, symSize: 0x28 }
  - { offset: 0x7A2CD, size: 0x8, addend: 0x0, symName: '__ZNKSt3__110__function6__funcIZZZN8facebook5react15ObjCTurboModule13createPromiseERNS2_3jsi7RuntimeERKNS_12basic_stringIcNS_11char_traitsIcEENS_9allocatorIcEEEEU13block_pointerFvU13block_pointerFvP11objc_objectEU13block_pointerFvP8NSStringSL_P7NSErrorEEENK3$_0clES7_RKNS5_5ValueEPSU_mEUb_EUlS7_RNS5_8FunctionEE_NSB_ISZ_EEFvS7_SY_EE7__cloneEv', symObjAddr: 0x81AC, symBinAddr: 0x11D74, symSize: 0x44 }
  - { offset: 0x7A533, size: 0x8, addend: 0x0, symName: '__ZNKSt3__110__function6__funcIZZZN8facebook5react15ObjCTurboModule13createPromiseERNS2_3jsi7RuntimeERKNS_12basic_stringIcNS_11char_traitsIcEENS_9allocatorIcEEEEU13block_pointerFvU13block_pointerFvP11objc_objectEU13block_pointerFvP8NSStringSL_P7NSErrorEEENK3$_0clES7_RKNS5_5ValueEPSU_mEUb_EUlS7_RNS5_8FunctionEE_NSB_ISZ_EEFvS7_SY_EE7__cloneEPNS0_6__baseIS11_EE', symObjAddr: 0x81F0, symBinAddr: 0x11DB8, symSize: 0x34 }
  - { offset: 0x7A68F, size: 0x8, addend: 0x0, symName: '__ZNSt3__110__function6__funcIZZZN8facebook5react15ObjCTurboModule13createPromiseERNS2_3jsi7RuntimeERKNS_12basic_stringIcNS_11char_traitsIcEENS_9allocatorIcEEEEU13block_pointerFvU13block_pointerFvP11objc_objectEU13block_pointerFvP8NSStringSL_P7NSErrorEEENK3$_0clES7_RKNS5_5ValueEPSU_mEUb_EUlS7_RNS5_8FunctionEE_NSB_ISZ_EEFvS7_SY_EE7destroyEv', symObjAddr: 0x8224, symBinAddr: 0x11DEC, symSize: 0x8 }
  - { offset: 0x7A6B8, size: 0x8, addend: 0x0, symName: '__ZNSt3__110__function6__funcIZZZN8facebook5react15ObjCTurboModule13createPromiseERNS2_3jsi7RuntimeERKNS_12basic_stringIcNS_11char_traitsIcEENS_9allocatorIcEEEEU13block_pointerFvU13block_pointerFvP11objc_objectEU13block_pointerFvP8NSStringSL_P7NSErrorEEENK3$_0clES7_RKNS5_5ValueEPSU_mEUb_EUlS7_RNS5_8FunctionEE_NSB_ISZ_EEFvS7_SY_EE7destroyEv', symObjAddr: 0x8224, symBinAddr: 0x11DEC, symSize: 0x8 }
  - { offset: 0x7A6D6, size: 0x8, addend: 0x0, symName: '__ZNSt3__110__function6__funcIZZZN8facebook5react15ObjCTurboModule13createPromiseERNS2_3jsi7RuntimeERKNS_12basic_stringIcNS_11char_traitsIcEENS_9allocatorIcEEEEU13block_pointerFvU13block_pointerFvP11objc_objectEU13block_pointerFvP8NSStringSL_P7NSErrorEEENK3$_0clES7_RKNS5_5ValueEPSU_mEUb_EUlS7_RNS5_8FunctionEE_NSB_ISZ_EEFvS7_SY_EE7destroyEv', symObjAddr: 0x8224, symBinAddr: 0x11DEC, symSize: 0x8 }
  - { offset: 0x7A6F3, size: 0x8, addend: 0x0, symName: '__ZNSt3__110__function6__funcIZZZN8facebook5react15ObjCTurboModule13createPromiseERNS2_3jsi7RuntimeERKNS_12basic_stringIcNS_11char_traitsIcEENS_9allocatorIcEEEEU13block_pointerFvU13block_pointerFvP11objc_objectEU13block_pointerFvP8NSStringSL_P7NSErrorEEENK3$_0clES7_RKNS5_5ValueEPSU_mEUb_EUlS7_RNS5_8FunctionEE_NSB_ISZ_EEFvS7_SY_EE7destroyEv', symObjAddr: 0x8224, symBinAddr: 0x11DEC, symSize: 0x8 }
  - { offset: 0x7A743, size: 0x8, addend: 0x0, symName: '__ZNSt3__110__function6__funcIZZZN8facebook5react15ObjCTurboModule13createPromiseERNS2_3jsi7RuntimeERKNS_12basic_stringIcNS_11char_traitsIcEENS_9allocatorIcEEEEU13block_pointerFvU13block_pointerFvP11objc_objectEU13block_pointerFvP8NSStringSL_P7NSErrorEEENK3$_0clES7_RKNS5_5ValueEPSU_mEUb_EUlS7_RNS5_8FunctionEE_NSB_ISZ_EEFvS7_SY_EE18destroy_deallocateEv', symObjAddr: 0x822C, symBinAddr: 0x11DF4, symSize: 0x28 }
  - { offset: 0x7A944, size: 0x8, addend: 0x0, symName: '__ZNSt3__110__function6__funcIZZZN8facebook5react15ObjCTurboModule13createPromiseERNS2_3jsi7RuntimeERKNS_12basic_stringIcNS_11char_traitsIcEENS_9allocatorIcEEEEU13block_pointerFvU13block_pointerFvP11objc_objectEU13block_pointerFvP8NSStringSL_P7NSErrorEEENK3$_0clES7_RKNS5_5ValueEPSU_mEUb_EUlS7_RNS5_8FunctionEE_NSB_ISZ_EEFvS7_SY_EEclES7_SY_', symObjAddr: 0x8254, symBinAddr: 0x11E1C, symSize: 0xE4 }
  - { offset: 0x7AB80, size: 0x8, addend: 0x0, symName: '__ZNKSt3__110__function6__funcIZZZN8facebook5react15ObjCTurboModule13createPromiseERNS2_3jsi7RuntimeERKNS_12basic_stringIcNS_11char_traitsIcEENS_9allocatorIcEEEEU13block_pointerFvU13block_pointerFvP11objc_objectEU13block_pointerFvP8NSStringSL_P7NSErrorEEENK3$_0clES7_RKNS5_5ValueEPSU_mEUb_EUlS7_RNS5_8FunctionEE_NSB_ISZ_EEFvS7_SY_EE6targetERKSt9type_info', symObjAddr: 0x8338, symBinAddr: 0x11F00, symSize: 0x3C }
  - { offset: 0x7ABCD, size: 0x8, addend: 0x0, symName: '__ZNKSt3__110__function6__funcIZZZN8facebook5react15ObjCTurboModule13createPromiseERNS2_3jsi7RuntimeERKNS_12basic_stringIcNS_11char_traitsIcEENS_9allocatorIcEEEEU13block_pointerFvU13block_pointerFvP11objc_objectEU13block_pointerFvP8NSStringSL_P7NSErrorEEENK3$_0clES7_RKNS5_5ValueEPSU_mEUb_EUlS7_RNS5_8FunctionEE_NSB_ISZ_EEFvS7_SY_EE11target_typeEv', symObjAddr: 0x8374, symBinAddr: 0x11F3C, symSize: 0xC }
  - { offset: 0x7AC84, size: 0x8, addend: 0x0, symName: '__ZNSt3__110__function6__funcIZZZN8facebook5react15ObjCTurboModule13createPromiseERNS2_3jsi7RuntimeERKNS_12basic_stringIcNS_11char_traitsIcEENS_9allocatorIcEEEEU13block_pointerFvU13block_pointerFvP11objc_objectEU13block_pointerFvP8NSStringSL_P7NSErrorEEENK3$_0clES7_RKNS5_5ValueEPSU_mEUb0_EUlS7_RNS5_8FunctionEE_NSB_ISZ_EEFvS7_SY_EED1Ev', symObjAddr: 0x8380, symBinAddr: 0x11F48, symSize: 0x28 }
  - { offset: 0x7AD5A, size: 0x8, addend: 0x0, symName: '__ZNSt3__110__function6__funcIZZZN8facebook5react15ObjCTurboModule13createPromiseERNS2_3jsi7RuntimeERKNS_12basic_stringIcNS_11char_traitsIcEENS_9allocatorIcEEEEU13block_pointerFvU13block_pointerFvP11objc_objectEU13block_pointerFvP8NSStringSL_P7NSErrorEEENK3$_0clES7_RKNS5_5ValueEPSU_mEUb0_EUlS7_RNS5_8FunctionEE_NSB_ISZ_EEFvS7_SY_EED0Ev', symObjAddr: 0x83A8, symBinAddr: 0x11F70, symSize: 0x28 }
  - { offset: 0x7AF6E, size: 0x8, addend: 0x0, symName: '__ZNKSt3__110__function6__funcIZZZN8facebook5react15ObjCTurboModule13createPromiseERNS2_3jsi7RuntimeERKNS_12basic_stringIcNS_11char_traitsIcEENS_9allocatorIcEEEEU13block_pointerFvU13block_pointerFvP11objc_objectEU13block_pointerFvP8NSStringSL_P7NSErrorEEENK3$_0clES7_RKNS5_5ValueEPSU_mEUb0_EUlS7_RNS5_8FunctionEE_NSB_ISZ_EEFvS7_SY_EE7__cloneEv', symObjAddr: 0x83D0, symBinAddr: 0x11F98, symSize: 0x44 }
  - { offset: 0x7B1D4, size: 0x8, addend: 0x0, symName: '__ZNKSt3__110__function6__funcIZZZN8facebook5react15ObjCTurboModule13createPromiseERNS2_3jsi7RuntimeERKNS_12basic_stringIcNS_11char_traitsIcEENS_9allocatorIcEEEEU13block_pointerFvU13block_pointerFvP11objc_objectEU13block_pointerFvP8NSStringSL_P7NSErrorEEENK3$_0clES7_RKNS5_5ValueEPSU_mEUb0_EUlS7_RNS5_8FunctionEE_NSB_ISZ_EEFvS7_SY_EE7__cloneEPNS0_6__baseIS11_EE', symObjAddr: 0x8414, symBinAddr: 0x11FDC, symSize: 0x34 }
  - { offset: 0x7B330, size: 0x8, addend: 0x0, symName: '__ZNSt3__110__function6__funcIZZZN8facebook5react15ObjCTurboModule13createPromiseERNS2_3jsi7RuntimeERKNS_12basic_stringIcNS_11char_traitsIcEENS_9allocatorIcEEEEU13block_pointerFvU13block_pointerFvP11objc_objectEU13block_pointerFvP8NSStringSL_P7NSErrorEEENK3$_0clES7_RKNS5_5ValueEPSU_mEUb0_EUlS7_RNS5_8FunctionEE_NSB_ISZ_EEFvS7_SY_EE7destroyEv', symObjAddr: 0x8448, symBinAddr: 0x12010, symSize: 0x8 }
  - { offset: 0x7B359, size: 0x8, addend: 0x0, symName: '__ZNSt3__110__function6__funcIZZZN8facebook5react15ObjCTurboModule13createPromiseERNS2_3jsi7RuntimeERKNS_12basic_stringIcNS_11char_traitsIcEENS_9allocatorIcEEEEU13block_pointerFvU13block_pointerFvP11objc_objectEU13block_pointerFvP8NSStringSL_P7NSErrorEEENK3$_0clES7_RKNS5_5ValueEPSU_mEUb0_EUlS7_RNS5_8FunctionEE_NSB_ISZ_EEFvS7_SY_EE7destroyEv', symObjAddr: 0x8448, symBinAddr: 0x12010, symSize: 0x8 }
  - { offset: 0x7B377, size: 0x8, addend: 0x0, symName: '__ZNSt3__110__function6__funcIZZZN8facebook5react15ObjCTurboModule13createPromiseERNS2_3jsi7RuntimeERKNS_12basic_stringIcNS_11char_traitsIcEENS_9allocatorIcEEEEU13block_pointerFvU13block_pointerFvP11objc_objectEU13block_pointerFvP8NSStringSL_P7NSErrorEEENK3$_0clES7_RKNS5_5ValueEPSU_mEUb0_EUlS7_RNS5_8FunctionEE_NSB_ISZ_EEFvS7_SY_EE7destroyEv', symObjAddr: 0x8448, symBinAddr: 0x12010, symSize: 0x8 }
  - { offset: 0x7B394, size: 0x8, addend: 0x0, symName: '__ZNSt3__110__function6__funcIZZZN8facebook5react15ObjCTurboModule13createPromiseERNS2_3jsi7RuntimeERKNS_12basic_stringIcNS_11char_traitsIcEENS_9allocatorIcEEEEU13block_pointerFvU13block_pointerFvP11objc_objectEU13block_pointerFvP8NSStringSL_P7NSErrorEEENK3$_0clES7_RKNS5_5ValueEPSU_mEUb0_EUlS7_RNS5_8FunctionEE_NSB_ISZ_EEFvS7_SY_EE7destroyEv', symObjAddr: 0x8448, symBinAddr: 0x12010, symSize: 0x8 }
  - { offset: 0x7B3E4, size: 0x8, addend: 0x0, symName: '__ZNSt3__110__function6__funcIZZZN8facebook5react15ObjCTurboModule13createPromiseERNS2_3jsi7RuntimeERKNS_12basic_stringIcNS_11char_traitsIcEENS_9allocatorIcEEEEU13block_pointerFvU13block_pointerFvP11objc_objectEU13block_pointerFvP8NSStringSL_P7NSErrorEEENK3$_0clES7_RKNS5_5ValueEPSU_mEUb0_EUlS7_RNS5_8FunctionEE_NSB_ISZ_EEFvS7_SY_EE18destroy_deallocateEv', symObjAddr: 0x8450, symBinAddr: 0x12018, symSize: 0x28 }
  - { offset: 0x7B5AD, size: 0x8, addend: 0x0, symName: '__ZNSt3__110__function6__funcIZZZN8facebook5react15ObjCTurboModule13createPromiseERNS2_3jsi7RuntimeERKNS_12basic_stringIcNS_11char_traitsIcEENS_9allocatorIcEEEEU13block_pointerFvU13block_pointerFvP11objc_objectEU13block_pointerFvP8NSStringSL_P7NSErrorEEENK3$_0clES7_RKNS5_5ValueEPSU_mEUb0_EUlS7_RNS5_8FunctionEE_NSB_ISZ_EEFvS7_SY_EEclES7_SY_', symObjAddr: 0x8478, symBinAddr: 0x12040, symSize: 0x2E0 }
  - { offset: 0x7BB67, size: 0x8, addend: 0x0, symName: __ZNK8facebook3jsi6Object11setPropertyINS0_5ValueEEEvRNS0_7RuntimeEPKcOT_, symObjAddr: 0x87A0, symBinAddr: 0x12368, symSize: 0xAC }
  - { offset: 0x7BD9D, size: 0x8, addend: 0x0, symName: '__ZNKSt3__110__function6__funcIZZZN8facebook5react15ObjCTurboModule13createPromiseERNS2_3jsi7RuntimeERKNS_12basic_stringIcNS_11char_traitsIcEENS_9allocatorIcEEEEU13block_pointerFvU13block_pointerFvP11objc_objectEU13block_pointerFvP8NSStringSL_P7NSErrorEEENK3$_0clES7_RKNS5_5ValueEPSU_mEUb0_EUlS7_RNS5_8FunctionEE_NSB_ISZ_EEFvS7_SY_EE6targetERKSt9type_info', symObjAddr: 0x8758, symBinAddr: 0x12320, symSize: 0x3C }
  - { offset: 0x7BDEA, size: 0x8, addend: 0x0, symName: '__ZNKSt3__110__function6__funcIZZZN8facebook5react15ObjCTurboModule13createPromiseERNS2_3jsi7RuntimeERKNS_12basic_stringIcNS_11char_traitsIcEENS_9allocatorIcEEEEU13block_pointerFvU13block_pointerFvP11objc_objectEU13block_pointerFvP8NSStringSL_P7NSErrorEEENK3$_0clES7_RKNS5_5ValueEPSU_mEUb0_EUlS7_RNS5_8FunctionEE_NSB_ISZ_EEFvS7_SY_EE11target_typeEv', symObjAddr: 0x8794, symBinAddr: 0x1235C, symSize: 0xC }
  - { offset: 0x7BE0D, size: 0x8, addend: 0x0, symName: '__ZNSt3__110__function6__funcIZN8facebook5react15ObjCTurboModule23performMethodInvocationERNS2_3jsi7RuntimeEbPKcP12NSInvocationP14NSMutableArrayE3$_0NS_9allocatorISE_EEFvvEED1Ev', symObjAddr: 0x884C, symBinAddr: 0x12414, symSize: 0x4 }
  - { offset: 0x7BE39, size: 0x8, addend: 0x0, symName: '__ZNSt3__110__function6__funcIZN8facebook5react15ObjCTurboModule23performMethodInvocationERNS2_3jsi7RuntimeEbPKcP12NSInvocationP14NSMutableArrayE3$_0NS_9allocatorISE_EEFvvEED0Ev', symObjAddr: 0x8850, symBinAddr: 0x12418, symSize: 0x4 }
  - { offset: 0x7BF53, size: 0x8, addend: 0x0, symName: '__ZNKSt3__110__function6__funcIZN8facebook5react15ObjCTurboModule23performMethodInvocationERNS2_3jsi7RuntimeEbPKcP12NSInvocationP14NSMutableArrayE3$_0NS_9allocatorISE_EEFvvEE7__cloneEv', symObjAddr: 0x8854, symBinAddr: 0x1241C, symSize: 0x34 }
  - { offset: 0x7C158, size: 0x8, addend: 0x0, symName: '__ZNKSt3__110__function6__funcIZN8facebook5react15ObjCTurboModule23performMethodInvocationERNS2_3jsi7RuntimeEbPKcP12NSInvocationP14NSMutableArrayE3$_0NS_9allocatorISE_EEFvvEE7__cloneEPNS0_6__baseISH_EE', symObjAddr: 0x8888, symBinAddr: 0x12450, symSize: 0x14 }
  - { offset: 0x7C18E, size: 0x8, addend: 0x0, symName: '__ZNKSt3__110__function6__funcIZN8facebook5react15ObjCTurboModule23performMethodInvocationERNS2_3jsi7RuntimeEbPKcP12NSInvocationP14NSMutableArrayE3$_0NS_9allocatorISE_EEFvvEE7__cloneEPNS0_6__baseISH_EE', symObjAddr: 0x8888, symBinAddr: 0x12450, symSize: 0x14 }
  - { offset: 0x7C1BC, size: 0x8, addend: 0x0, symName: '__ZNKSt3__110__function6__funcIZN8facebook5react15ObjCTurboModule23performMethodInvocationERNS2_3jsi7RuntimeEbPKcP12NSInvocationP14NSMutableArrayE3$_0NS_9allocatorISE_EEFvvEE7__cloneEPNS0_6__baseISH_EE', symObjAddr: 0x8888, symBinAddr: 0x12450, symSize: 0x14 }
  - { offset: 0x7C1EA, size: 0x8, addend: 0x0, symName: '__ZNKSt3__110__function6__funcIZN8facebook5react15ObjCTurboModule23performMethodInvocationERNS2_3jsi7RuntimeEbPKcP12NSInvocationP14NSMutableArrayE3$_0NS_9allocatorISE_EEFvvEE7__cloneEPNS0_6__baseISH_EE', symObjAddr: 0x8888, symBinAddr: 0x12450, symSize: 0x14 }
  - { offset: 0x7C200, size: 0x8, addend: 0x0, symName: '__ZNKSt3__110__function6__funcIZN8facebook5react15ObjCTurboModule23performMethodInvocationERNS2_3jsi7RuntimeEbPKcP12NSInvocationP14NSMutableArrayE3$_0NS_9allocatorISE_EEFvvEE7__cloneEPNS0_6__baseISH_EE', symObjAddr: 0x8888, symBinAddr: 0x12450, symSize: 0x14 }
  - { offset: 0x7C215, size: 0x8, addend: 0x0, symName: '__ZNSt3__110__function6__funcIZN8facebook5react15ObjCTurboModule23performMethodInvocationERNS2_3jsi7RuntimeEbPKcP12NSInvocationP14NSMutableArrayE3$_0NS_9allocatorISE_EEFvvEE7destroyEv', symObjAddr: 0x889C, symBinAddr: 0x12464, symSize: 0x4 }
  - { offset: 0x7C269, size: 0x8, addend: 0x0, symName: '__ZNSt3__110__function6__funcIZN8facebook5react15ObjCTurboModule23performMethodInvocationERNS2_3jsi7RuntimeEbPKcP12NSInvocationP14NSMutableArrayE3$_0NS_9allocatorISE_EEFvvEE18destroy_deallocateEv', symObjAddr: 0x88A0, symBinAddr: 0x12468, symSize: 0x4 }
  - { offset: 0x7C29D, size: 0x8, addend: 0x0, symName: '__ZNSt3__110__function6__funcIZN8facebook5react15ObjCTurboModule23performMethodInvocationERNS2_3jsi7RuntimeEbPKcP12NSInvocationP14NSMutableArrayE3$_0NS_9allocatorISE_EEFvvEE18destroy_deallocateEv', symObjAddr: 0x88A0, symBinAddr: 0x12468, symSize: 0x4 }
  - { offset: 0x7C2C0, size: 0x8, addend: 0x0, symName: '__ZNSt3__110__function6__funcIZN8facebook5react15ObjCTurboModule23performMethodInvocationERNS2_3jsi7RuntimeEbPKcP12NSInvocationP14NSMutableArrayE3$_0NS_9allocatorISE_EEFvvEE18destroy_deallocateEv', symObjAddr: 0x88A0, symBinAddr: 0x12468, symSize: 0x4 }
  - { offset: 0x7C2F4, size: 0x8, addend: 0x0, symName: '__ZNSt3__110__function6__funcIZN8facebook5react15ObjCTurboModule23performMethodInvocationERNS2_3jsi7RuntimeEbPKcP12NSInvocationP14NSMutableArrayE3$_0NS_9allocatorISE_EEFvvEE18destroy_deallocateEv', symObjAddr: 0x88A0, symBinAddr: 0x12468, symSize: 0x4 }
  - { offset: 0x7C376, size: 0x8, addend: 0x0, symName: '__ZNSt3__110__function6__funcIZN8facebook5react15ObjCTurboModule23performMethodInvocationERNS2_3jsi7RuntimeEbPKcP12NSInvocationP14NSMutableArrayE3$_0NS_9allocatorISE_EEFvvEEclEv', symObjAddr: 0x88A4, symBinAddr: 0x1246C, symSize: 0x10 }
  - { offset: 0x7C39F, size: 0x8, addend: 0x0, symName: '__ZNSt3__110__function6__funcIZN8facebook5react15ObjCTurboModule23performMethodInvocationERNS2_3jsi7RuntimeEbPKcP12NSInvocationP14NSMutableArrayE3$_0NS_9allocatorISE_EEFvvEEclEv', symObjAddr: 0x88A4, symBinAddr: 0x1246C, symSize: 0x10 }
  - { offset: 0x7C3BD, size: 0x8, addend: 0x0, symName: '__ZNSt3__110__function6__funcIZN8facebook5react15ObjCTurboModule23performMethodInvocationERNS2_3jsi7RuntimeEbPKcP12NSInvocationP14NSMutableArrayE3$_0NS_9allocatorISE_EEFvvEEclEv', symObjAddr: 0x88A4, symBinAddr: 0x1246C, symSize: 0x10 }
  - { offset: 0x7C3DA, size: 0x8, addend: 0x0, symName: '__ZNSt3__110__function6__funcIZN8facebook5react15ObjCTurboModule23performMethodInvocationERNS2_3jsi7RuntimeEbPKcP12NSInvocationP14NSMutableArrayE3$_0NS_9allocatorISE_EEFvvEEclEv', symObjAddr: 0x88A4, symBinAddr: 0x1246C, symSize: 0x10 }
  - { offset: 0x7C3F8, size: 0x8, addend: 0x0, symName: '__ZNSt3__110__function6__funcIZN8facebook5react15ObjCTurboModule23performMethodInvocationERNS2_3jsi7RuntimeEbPKcP12NSInvocationP14NSMutableArrayE3$_0NS_9allocatorISE_EEFvvEEclEv', symObjAddr: 0x88A4, symBinAddr: 0x1246C, symSize: 0x10 }
  - { offset: 0x7C415, size: 0x8, addend: 0x0, symName: '__ZNSt3__110__function6__funcIZN8facebook5react15ObjCTurboModule23performMethodInvocationERNS2_3jsi7RuntimeEbPKcP12NSInvocationP14NSMutableArrayE3$_0NS_9allocatorISE_EEFvvEEclEv', symObjAddr: 0x88A4, symBinAddr: 0x1246C, symSize: 0x10 }
  - { offset: 0x7C441, size: 0x8, addend: 0x0, symName: '__ZNKSt3__110__function6__funcIZN8facebook5react15ObjCTurboModule23performMethodInvocationERNS2_3jsi7RuntimeEbPKcP12NSInvocationP14NSMutableArrayE3$_0NS_9allocatorISE_EEFvvEE6targetERKSt9type_info', symObjAddr: 0x88B4, symBinAddr: 0x1247C, symSize: 0x3C }
  - { offset: 0x7C48E, size: 0x8, addend: 0x0, symName: '__ZNKSt3__110__function6__funcIZN8facebook5react15ObjCTurboModule23performMethodInvocationERNS2_3jsi7RuntimeEbPKcP12NSInvocationP14NSMutableArrayE3$_0NS_9allocatorISE_EEFvvEE11target_typeEv', symObjAddr: 0x88F0, symBinAddr: 0x124B8, symSize: 0xC }
  - { offset: 0x7C506, size: 0x8, addend: 0x0, symName: '__ZNSt3__110__function6__funcIZN8facebook5react15ObjCTurboModule23performMethodInvocationERNS2_3jsi7RuntimeEbPKcP12NSInvocationP14NSMutableArrayE3$_1NS_9allocatorISE_EEFvvEED1Ev', symObjAddr: 0x88FC, symBinAddr: 0x124C4, symSize: 0x44 }
  - { offset: 0x7C6E3, size: 0x8, addend: 0x0, symName: '__ZNSt3__110__function6__funcIZN8facebook5react15ObjCTurboModule23performMethodInvocationERNS2_3jsi7RuntimeEbPKcP12NSInvocationP14NSMutableArrayE3$_1NS_9allocatorISE_EEFvvEED0Ev', symObjAddr: 0x8940, symBinAddr: 0x12508, symSize: 0x44 }
  - { offset: 0x7CAF5, size: 0x8, addend: 0x0, symName: '__ZNKSt3__110__function6__funcIZN8facebook5react15ObjCTurboModule23performMethodInvocationERNS2_3jsi7RuntimeEbPKcP12NSInvocationP14NSMutableArrayE3$_1NS_9allocatorISE_EEFvvEE7__cloneEv', symObjAddr: 0x8984, symBinAddr: 0x1254C, symSize: 0x8C }
  - { offset: 0x7CE79, size: 0x8, addend: 0x0, symName: '__ZNKSt3__110__function6__funcIZN8facebook5react15ObjCTurboModule23performMethodInvocationERNS2_3jsi7RuntimeEbPKcP12NSInvocationP14NSMutableArrayE3$_1NS_9allocatorISE_EEFvvEE7__cloneEPNS0_6__baseISH_EE', symObjAddr: 0x8A10, symBinAddr: 0x125D8, symSize: 0x78 }
  - { offset: 0x7CFF7, size: 0x8, addend: 0x0, symName: '__ZNSt3__110__function6__funcIZN8facebook5react15ObjCTurboModule23performMethodInvocationERNS2_3jsi7RuntimeEbPKcP12NSInvocationP14NSMutableArrayE3$_1NS_9allocatorISE_EEFvvEE7destroyEv', symObjAddr: 0x8A88, symBinAddr: 0x12650, symSize: 0x8 }
  - { offset: 0x7D02B, size: 0x8, addend: 0x0, symName: '__ZNSt3__110__function12__alloc_funcIZN8facebook5react15ObjCTurboModule23performMethodInvocationERNS2_3jsi7RuntimeEbPKcP12NSInvocationP14NSMutableArrayE3$_1NS_9allocatorISE_EEFvvEE7destroyB8ne200100Ev', symObjAddr: 0x8BB8, symBinAddr: 0x12780, symSize: 0x30 }
  - { offset: 0x7D196, size: 0x8, addend: 0x0, symName: '__ZNSt3__110__function6__funcIZN8facebook5react15ObjCTurboModule23performMethodInvocationERNS2_3jsi7RuntimeEbPKcP12NSInvocationP14NSMutableArrayE3$_1NS_9allocatorISE_EEFvvEE18destroy_deallocateEv', symObjAddr: 0x8A90, symBinAddr: 0x12658, symSize: 0x28 }
  - { offset: 0x7D378, size: 0x8, addend: 0x0, symName: '__ZNSt3__110__function6__funcIZN8facebook5react15ObjCTurboModule23performMethodInvocationERNS2_3jsi7RuntimeEbPKcP12NSInvocationP14NSMutableArrayE3$_1NS_9allocatorISE_EEFvvEEclEv', symObjAddr: 0x8AB8, symBinAddr: 0x12680, symSize: 0xB8 }
  - { offset: 0x7D4C6, size: 0x8, addend: 0x0, symName: '__ZNKSt3__110__function6__funcIZN8facebook5react15ObjCTurboModule23performMethodInvocationERNS2_3jsi7RuntimeEbPKcP12NSInvocationP14NSMutableArrayE3$_1NS_9allocatorISE_EEFvvEE6targetERKSt9type_info', symObjAddr: 0x8B70, symBinAddr: 0x12738, symSize: 0x3C }
  - { offset: 0x7D513, size: 0x8, addend: 0x0, symName: '__ZNKSt3__110__function6__funcIZN8facebook5react15ObjCTurboModule23performMethodInvocationERNS2_3jsi7RuntimeEbPKcP12NSInvocationP14NSMutableArrayE3$_1NS_9allocatorISE_EEFvvEE11target_typeEv', symObjAddr: 0x8BAC, symBinAddr: 0x12774, symSize: 0xC }
  - { offset: 0x7D961, size: 0x8, addend: 0x0, symName: __ZN8facebook5react8systrace8rendererIA7_cvE6renderERA7_Kc, symObjAddr: 0x9114, symBinAddr: 0x12CDC, symSize: 0xE4 }
  - { offset: 0x7DC24, size: 0x8, addend: 0x0, symName: __ZN8facebook5react8systrace8rendererIPKcvE6renderERKS4_, symObjAddr: 0x95C4, symBinAddr: 0x1318C, symSize: 0xE8 }
  - { offset: 0x7DEE7, size: 0x8, addend: 0x0, symName: __ZN8facebook5react8systrace8rendererINSt3__112basic_stringIcNS3_11char_traitsIcEENS3_9allocatorIcEEEEvE6renderERKS9_, symObjAddr: 0x96AC, symBinAddr: 0x13274, symSize: 0xEC }
  - { offset: 0x7E1AE, size: 0x8, addend: 0x0, symName: __ZN8facebook5react8systrace8rendererIA11_cvE6renderERA11_Kc, symObjAddr: 0x9798, symBinAddr: 0x13360, symSize: 0xE4 }
  - { offset: 0x7E471, size: 0x8, addend: 0x0, symName: __ZN8facebook5react8systrace8rendererIA8_cvE6renderERA8_Kc, symObjAddr: 0x987C, symBinAddr: 0x13444, symSize: 0xE4 }
  - { offset: 0x7E734, size: 0x8, addend: 0x0, symName: __ZNSt3__16vectorINS_12basic_stringIcNS_11char_traitsIcEENS_9allocatorIcEEEENS4_IS6_EEE16__init_with_sizeB8ne200100IPKS6_SB_EEvT_T0_m, symObjAddr: 0x9960, symBinAddr: 0x13528, symSize: 0x84 }
  - { offset: 0x7E9EA, size: 0x8, addend: 0x0, symName: __ZNSt3__16vectorINS_12basic_stringIcNS_11char_traitsIcEENS_9allocatorIcEEEENS4_IS6_EEE16__destroy_vectorclB8ne200100Ev, symObjAddr: 0x9BB8, symBinAddr: 0x1376C, symSize: 0x40 }
  - { offset: 0x7EC21, size: 0x8, addend: 0x0, symName: __ZNSt3__119basic_ostringstreamIcNS_11char_traitsIcEENS_9allocatorIcEEEC1B8ne200100Ev, symObjAddr: 0x91F8, symBinAddr: 0x12DC0, symSize: 0xC4 }
  - { offset: 0x7ED17, size: 0x8, addend: 0x0, symName: __ZNKSt3__115basic_stringbufIcNS_11char_traitsIcEENS_9allocatorIcEEE3strB8ne200100IS4_EENS_12basic_stringIcS2_T_EERKS8_, symObjAddr: 0x94E8, symBinAddr: 0x130B0, symSize: 0x90 }
  - { offset: 0x7EF68, size: 0x8, addend: 0x0, symName: __ZNKSt3__115basic_stringbufIcNS_11char_traitsIcEENS_9allocatorIcEEE4viewB8ne200100Ev, symObjAddr: 0x9578, symBinAddr: 0x13140, symSize: 0x4C }
  - { offset: 0x7EF7C, size: 0x8, addend: 0x0, symName: __ZNSt3__119basic_ostringstreamIcNS_11char_traitsIcEENS_9allocatorIcEEED1Ev, symObjAddr: 0x92BC, symBinAddr: 0x12E84, symSize: 0x88 }
  - { offset: 0x7F1F5, size: 0x8, addend: 0x0, symName: __ZNSt3__115basic_stringbufIcNS_11char_traitsIcEENS_9allocatorIcEEEC2B8ne200100Ej, symObjAddr: 0x9344, symBinAddr: 0x12F0C, symSize: 0xA0 }
  - { offset: 0x7F37A, size: 0x8, addend: 0x0, symName: __ZNSt3__115basic_stringbufIcNS_11char_traitsIcEENS_9allocatorIcEEE15__init_buf_ptrsB8ne200100Ev, symObjAddr: 0x93E4, symBinAddr: 0x12FAC, symSize: 0x104 }
  - { offset: 0x7F6F6, size: 0x8, addend: 0x0, symName: __ZNKSt3__115basic_stringbufIcNS_11char_traitsIcEENS_9allocatorIcEEE4viewB8ne200100Ev, symObjAddr: 0x9578, symBinAddr: 0x13140, symSize: 0x4C }
  - { offset: 0x7FAA5, size: 0x8, addend: 0x0, symName: __ZNSt3__16vectorINS_12basic_stringIcNS_11char_traitsIcEENS_9allocatorIcEEEENS4_IS6_EEE11__vallocateB8ne200100Em, symObjAddr: 0x99E4, symBinAddr: 0x135AC, symSize: 0x48 }
  - { offset: 0x7FB14, size: 0x8, addend: 0x0, symName: __ZNSt3__119__allocate_at_leastB8ne200100INS_9allocatorINS_12basic_stringIcNS_11char_traitsIcEENS1_IcEEEEEEEENS_19__allocation_resultINS_16allocator_traitsIT_E7pointerEEERSA_m, symObjAddr: 0x9A40, symBinAddr: 0x135F4, symSize: 0x44 }
  - { offset: 0x7FC0C, size: 0x8, addend: 0x0, symName: __ZNSt3__128__exception_guard_exceptionsINS_29_AllocatorDestroyRangeReverseINS_9allocatorINS_12basic_stringIcNS_11char_traitsIcEENS2_IcEEEEEEPS7_EEED2B8ne200100Ev, symObjAddr: 0x9B40, symBinAddr: 0x136F4, symSize: 0x34 }
  - { offset: 0x7FC4B, size: 0x8, addend: 0x0, symName: __ZNKSt3__129_AllocatorDestroyRangeReverseINS_9allocatorINS_12basic_stringIcNS_11char_traitsIcEENS1_IcEEEEEEPS6_EclB8ne200100Ev, symObjAddr: 0x9B74, symBinAddr: 0x13728, symSize: 0x44 }
  - { offset: 0x7FECF, size: 0x8, addend: 0x0, symName: __ZNSt3__16vectorINS_12basic_stringIcNS_11char_traitsIcEENS_9allocatorIcEEEENS4_IS6_EEE5clearB8ne200100Ev, symObjAddr: 0x9BF8, symBinAddr: 0x137AC, symSize: 0x4C }
  - { offset: 0x800DD, size: 0x8, addend: 0x0, symName: '__ZNSt3__110__function6__funcIZN8facebook5react15ObjCTurboModule27performVoidMethodInvocationERNS2_3jsi7RuntimeEPKcP12NSInvocationP14NSMutableArrayE3$_0NS_9allocatorISE_EEFvvEED1Ev', symObjAddr: 0x9D18, symBinAddr: 0x138CC, symSize: 0x4 }
  - { offset: 0x80109, size: 0x8, addend: 0x0, symName: '__ZNSt3__110__function6__funcIZN8facebook5react15ObjCTurboModule27performVoidMethodInvocationERNS2_3jsi7RuntimeEPKcP12NSInvocationP14NSMutableArrayE3$_0NS_9allocatorISE_EEFvvEED0Ev', symObjAddr: 0x9D1C, symBinAddr: 0x138D0, symSize: 0x4 }
  - { offset: 0x80223, size: 0x8, addend: 0x0, symName: '__ZNKSt3__110__function6__funcIZN8facebook5react15ObjCTurboModule27performVoidMethodInvocationERNS2_3jsi7RuntimeEPKcP12NSInvocationP14NSMutableArrayE3$_0NS_9allocatorISE_EEFvvEE7__cloneEv', symObjAddr: 0x9D20, symBinAddr: 0x138D4, symSize: 0x34 }
  - { offset: 0x80428, size: 0x8, addend: 0x0, symName: '__ZNKSt3__110__function6__funcIZN8facebook5react15ObjCTurboModule27performVoidMethodInvocationERNS2_3jsi7RuntimeEPKcP12NSInvocationP14NSMutableArrayE3$_0NS_9allocatorISE_EEFvvEE7__cloneEPNS0_6__baseISH_EE', symObjAddr: 0x9D54, symBinAddr: 0x13908, symSize: 0x14 }
  - { offset: 0x8045E, size: 0x8, addend: 0x0, symName: '__ZNKSt3__110__function6__funcIZN8facebook5react15ObjCTurboModule27performVoidMethodInvocationERNS2_3jsi7RuntimeEPKcP12NSInvocationP14NSMutableArrayE3$_0NS_9allocatorISE_EEFvvEE7__cloneEPNS0_6__baseISH_EE', symObjAddr: 0x9D54, symBinAddr: 0x13908, symSize: 0x14 }
  - { offset: 0x8048C, size: 0x8, addend: 0x0, symName: '__ZNKSt3__110__function6__funcIZN8facebook5react15ObjCTurboModule27performVoidMethodInvocationERNS2_3jsi7RuntimeEPKcP12NSInvocationP14NSMutableArrayE3$_0NS_9allocatorISE_EEFvvEE7__cloneEPNS0_6__baseISH_EE', symObjAddr: 0x9D54, symBinAddr: 0x13908, symSize: 0x14 }
  - { offset: 0x804BA, size: 0x8, addend: 0x0, symName: '__ZNKSt3__110__function6__funcIZN8facebook5react15ObjCTurboModule27performVoidMethodInvocationERNS2_3jsi7RuntimeEPKcP12NSInvocationP14NSMutableArrayE3$_0NS_9allocatorISE_EEFvvEE7__cloneEPNS0_6__baseISH_EE', symObjAddr: 0x9D54, symBinAddr: 0x13908, symSize: 0x14 }
  - { offset: 0x804D0, size: 0x8, addend: 0x0, symName: '__ZNKSt3__110__function6__funcIZN8facebook5react15ObjCTurboModule27performVoidMethodInvocationERNS2_3jsi7RuntimeEPKcP12NSInvocationP14NSMutableArrayE3$_0NS_9allocatorISE_EEFvvEE7__cloneEPNS0_6__baseISH_EE', symObjAddr: 0x9D54, symBinAddr: 0x13908, symSize: 0x14 }
  - { offset: 0x804E5, size: 0x8, addend: 0x0, symName: '__ZNSt3__110__function6__funcIZN8facebook5react15ObjCTurboModule27performVoidMethodInvocationERNS2_3jsi7RuntimeEPKcP12NSInvocationP14NSMutableArrayE3$_0NS_9allocatorISE_EEFvvEE7destroyEv', symObjAddr: 0x9D68, symBinAddr: 0x1391C, symSize: 0x4 }
  - { offset: 0x80539, size: 0x8, addend: 0x0, symName: '__ZNSt3__110__function6__funcIZN8facebook5react15ObjCTurboModule27performVoidMethodInvocationERNS2_3jsi7RuntimeEPKcP12NSInvocationP14NSMutableArrayE3$_0NS_9allocatorISE_EEFvvEE18destroy_deallocateEv', symObjAddr: 0x9D6C, symBinAddr: 0x13920, symSize: 0x4 }
  - { offset: 0x8056D, size: 0x8, addend: 0x0, symName: '__ZNSt3__110__function6__funcIZN8facebook5react15ObjCTurboModule27performVoidMethodInvocationERNS2_3jsi7RuntimeEPKcP12NSInvocationP14NSMutableArrayE3$_0NS_9allocatorISE_EEFvvEE18destroy_deallocateEv', symObjAddr: 0x9D6C, symBinAddr: 0x13920, symSize: 0x4 }
  - { offset: 0x80590, size: 0x8, addend: 0x0, symName: '__ZNSt3__110__function6__funcIZN8facebook5react15ObjCTurboModule27performVoidMethodInvocationERNS2_3jsi7RuntimeEPKcP12NSInvocationP14NSMutableArrayE3$_0NS_9allocatorISE_EEFvvEE18destroy_deallocateEv', symObjAddr: 0x9D6C, symBinAddr: 0x13920, symSize: 0x4 }
  - { offset: 0x805C4, size: 0x8, addend: 0x0, symName: '__ZNSt3__110__function6__funcIZN8facebook5react15ObjCTurboModule27performVoidMethodInvocationERNS2_3jsi7RuntimeEPKcP12NSInvocationP14NSMutableArrayE3$_0NS_9allocatorISE_EEFvvEE18destroy_deallocateEv', symObjAddr: 0x9D6C, symBinAddr: 0x13920, symSize: 0x4 }
  - { offset: 0x80646, size: 0x8, addend: 0x0, symName: '__ZNSt3__110__function6__funcIZN8facebook5react15ObjCTurboModule27performVoidMethodInvocationERNS2_3jsi7RuntimeEPKcP12NSInvocationP14NSMutableArrayE3$_0NS_9allocatorISE_EEFvvEEclEv', symObjAddr: 0x9D70, symBinAddr: 0x13924, symSize: 0x10 }
  - { offset: 0x8066F, size: 0x8, addend: 0x0, symName: '__ZNSt3__110__function6__funcIZN8facebook5react15ObjCTurboModule27performVoidMethodInvocationERNS2_3jsi7RuntimeEPKcP12NSInvocationP14NSMutableArrayE3$_0NS_9allocatorISE_EEFvvEEclEv', symObjAddr: 0x9D70, symBinAddr: 0x13924, symSize: 0x10 }
  - { offset: 0x8068D, size: 0x8, addend: 0x0, symName: '__ZNSt3__110__function6__funcIZN8facebook5react15ObjCTurboModule27performVoidMethodInvocationERNS2_3jsi7RuntimeEPKcP12NSInvocationP14NSMutableArrayE3$_0NS_9allocatorISE_EEFvvEEclEv', symObjAddr: 0x9D70, symBinAddr: 0x13924, symSize: 0x10 }
  - { offset: 0x806AA, size: 0x8, addend: 0x0, symName: '__ZNSt3__110__function6__funcIZN8facebook5react15ObjCTurboModule27performVoidMethodInvocationERNS2_3jsi7RuntimeEPKcP12NSInvocationP14NSMutableArrayE3$_0NS_9allocatorISE_EEFvvEEclEv', symObjAddr: 0x9D70, symBinAddr: 0x13924, symSize: 0x10 }
  - { offset: 0x806C8, size: 0x8, addend: 0x0, symName: '__ZNSt3__110__function6__funcIZN8facebook5react15ObjCTurboModule27performVoidMethodInvocationERNS2_3jsi7RuntimeEPKcP12NSInvocationP14NSMutableArrayE3$_0NS_9allocatorISE_EEFvvEEclEv', symObjAddr: 0x9D70, symBinAddr: 0x13924, symSize: 0x10 }
  - { offset: 0x806E5, size: 0x8, addend: 0x0, symName: '__ZNSt3__110__function6__funcIZN8facebook5react15ObjCTurboModule27performVoidMethodInvocationERNS2_3jsi7RuntimeEPKcP12NSInvocationP14NSMutableArrayE3$_0NS_9allocatorISE_EEFvvEEclEv', symObjAddr: 0x9D70, symBinAddr: 0x13924, symSize: 0x10 }
  - { offset: 0x80711, size: 0x8, addend: 0x0, symName: '__ZNKSt3__110__function6__funcIZN8facebook5react15ObjCTurboModule27performVoidMethodInvocationERNS2_3jsi7RuntimeEPKcP12NSInvocationP14NSMutableArrayE3$_0NS_9allocatorISE_EEFvvEE6targetERKSt9type_info', symObjAddr: 0x9D80, symBinAddr: 0x13934, symSize: 0x3C }
  - { offset: 0x8075E, size: 0x8, addend: 0x0, symName: '__ZNKSt3__110__function6__funcIZN8facebook5react15ObjCTurboModule27performVoidMethodInvocationERNS2_3jsi7RuntimeEPKcP12NSInvocationP14NSMutableArrayE3$_0NS_9allocatorISE_EEFvvEE11target_typeEv', symObjAddr: 0x9DBC, symBinAddr: 0x13970, symSize: 0xC }
  - { offset: 0x807D6, size: 0x8, addend: 0x0, symName: '__ZNSt3__110__function6__funcIZN8facebook5react15ObjCTurboModule27performVoidMethodInvocationERNS2_3jsi7RuntimeEPKcP12NSInvocationP14NSMutableArrayE3$_1NS_9allocatorISE_EEFvvEED1Ev', symObjAddr: 0x9DC8, symBinAddr: 0x1397C, symSize: 0x44 }
  - { offset: 0x809B3, size: 0x8, addend: 0x0, symName: '__ZNSt3__110__function6__funcIZN8facebook5react15ObjCTurboModule27performVoidMethodInvocationERNS2_3jsi7RuntimeEPKcP12NSInvocationP14NSMutableArrayE3$_1NS_9allocatorISE_EEFvvEED0Ev', symObjAddr: 0x9E0C, symBinAddr: 0x139C0, symSize: 0x44 }
  - { offset: 0x80DC5, size: 0x8, addend: 0x0, symName: '__ZNKSt3__110__function6__funcIZN8facebook5react15ObjCTurboModule27performVoidMethodInvocationERNS2_3jsi7RuntimeEPKcP12NSInvocationP14NSMutableArrayE3$_1NS_9allocatorISE_EEFvvEE7__cloneEv', symObjAddr: 0x9E50, symBinAddr: 0x13A04, symSize: 0x84 }
  - { offset: 0x81153, size: 0x8, addend: 0x0, symName: '__ZNKSt3__110__function6__funcIZN8facebook5react15ObjCTurboModule27performVoidMethodInvocationERNS2_3jsi7RuntimeEPKcP12NSInvocationP14NSMutableArrayE3$_1NS_9allocatorISE_EEFvvEE7__cloneEPNS0_6__baseISH_EE', symObjAddr: 0x9ED4, symBinAddr: 0x13A88, symSize: 0x64 }
  - { offset: 0x812DB, size: 0x8, addend: 0x0, symName: '__ZNSt3__110__function6__funcIZN8facebook5react15ObjCTurboModule27performVoidMethodInvocationERNS2_3jsi7RuntimeEPKcP12NSInvocationP14NSMutableArrayE3$_1NS_9allocatorISE_EEFvvEE7destroyEv', symObjAddr: 0x9F38, symBinAddr: 0x13AEC, symSize: 0x8 }
  - { offset: 0x8130F, size: 0x8, addend: 0x0, symName: '__ZNSt3__110__function12__alloc_funcIZN8facebook5react15ObjCTurboModule27performVoidMethodInvocationERNS2_3jsi7RuntimeEPKcP12NSInvocationP14NSMutableArrayE3$_1NS_9allocatorISE_EEFvvEE7destroyB8ne200100Ev', symObjAddr: 0xA068, symBinAddr: 0x13C1C, symSize: 0x3C }
  - { offset: 0x8144C, size: 0x8, addend: 0x0, symName: '__ZNSt3__110__function6__funcIZN8facebook5react15ObjCTurboModule27performVoidMethodInvocationERNS2_3jsi7RuntimeEPKcP12NSInvocationP14NSMutableArrayE3$_1NS_9allocatorISE_EEFvvEE18destroy_deallocateEv', symObjAddr: 0x9F40, symBinAddr: 0x13AF4, symSize: 0x28 }
  - { offset: 0x8160F, size: 0x8, addend: 0x0, symName: '__ZNSt3__110__function6__funcIZN8facebook5react15ObjCTurboModule27performVoidMethodInvocationERNS2_3jsi7RuntimeEPKcP12NSInvocationP14NSMutableArrayE3$_1NS_9allocatorISE_EEFvvEEclEv', symObjAddr: 0x9F68, symBinAddr: 0x13B1C, symSize: 0xB8 }
  - { offset: 0x8175D, size: 0x8, addend: 0x0, symName: '__ZNKSt3__110__function6__funcIZN8facebook5react15ObjCTurboModule27performVoidMethodInvocationERNS2_3jsi7RuntimeEPKcP12NSInvocationP14NSMutableArrayE3$_1NS_9allocatorISE_EEFvvEE6targetERKSt9type_info', symObjAddr: 0xA020, symBinAddr: 0x13BD4, symSize: 0x3C }
  - { offset: 0x817AA, size: 0x8, addend: 0x0, symName: '__ZNKSt3__110__function6__funcIZN8facebook5react15ObjCTurboModule27performVoidMethodInvocationERNS2_3jsi7RuntimeEPKcP12NSInvocationP14NSMutableArrayE3$_1NS_9allocatorISE_EEFvvEE11target_typeEv', symObjAddr: 0xA05C, symBinAddr: 0x13C10, symSize: 0xC }
  - { offset: 0x817CD, size: 0x8, addend: 0x0, symName: __ZN8facebook5react8systrace8rendererIA5_cvE6renderERA5_Kc, symObjAddr: 0xA580, symBinAddr: 0x14134, symSize: 0xE4 }
  - { offset: 0x8467F, size: 0x8, addend: 0x0, symName: '-[RCTTurboModuleManager _requiresMainQueueSetup:]', symObjAddr: 0x2CC4, symBinAddr: 0x16F68, symSize: 0x8C }
  - { offset: 0x846AB, size: 0x8, addend: 0x0, symName: '__ZZ49-[RCTTurboModuleManager _requiresMainQueueSetup:]E16objectInitMethod', symObjAddr: 0x15FF18, symBinAddr: 0x2CEE0, symSize: 0x0 }
  - { offset: 0x846C2, size: 0x8, addend: 0x0, symName: '__ZZ49-[RCTTurboModuleManager _requiresMainQueueSetup:]E9onceToken', symObjAddr: 0x15FF20, symBinAddr: 0x2CEE8, symSize: 0x0 }
  - { offset: 0xA285C, size: 0x8, addend: 0x0, symName: __ZNSt3__115allocate_sharedB8ne200100IN8facebook5react14TurboCxxModuleENS_9allocatorIS3_EEJNS_10unique_ptrINS1_5xplat6module9CxxModuleENS_14default_deleteIS9_EEEERNS_10shared_ptrINS2_11CallInvokerEEEELi0EEENSD_IT_EERKT0_DpOT1_, symObjAddr: 0x5064, symBinAddr: 0x185AC, symSize: 0x60 }
  - { offset: 0xA33E5, size: 0x8, addend: 0x0, symName: __ZNSt3__115allocate_sharedB8ne200100IN8facebook5react22ObjCInteropTurboModuleENS_9allocatorIS3_EEJRNS2_15ObjCTurboModule10InitParamsEELi0EEENS_10shared_ptrIT_EERKT0_DpOT1_, symObjAddr: 0x551C, symBinAddr: 0x18A0C, symSize: 0x58 }
  - { offset: 0xA5CF9, size: 0x8, addend: 0x0, symName: __ZNSt3__134__uninitialized_allocator_relocateB8ne200100INS_9allocatorI15ModuleQueuePairEEPS2_EEvRT_T0_S7_S7_, symObjAddr: 0x3CF8, symBinAddr: 0x17D20, symSize: 0x84 }
  - { offset: 0xA5D0D, size: 0x8, addend: 0x0, symName: __ZNSt3__134__uninitialized_allocator_relocateB8ne200100INS_9allocatorI15ModuleQueuePairEEPS2_EEvRT_T0_S7_S7_, symObjAddr: 0x3CF8, symBinAddr: 0x17D20, symSize: 0x84 }
  - { offset: 0xA5FC0, size: 0x8, addend: 0x0, symName: __ZNSt3__119__allocator_destroyB8ne200100INS_9allocatorI15ModuleQueuePairEEPS2_S4_EEvRT_T0_T1_, symObjAddr: 0x3D7C, symBinAddr: 0x17DA4, symSize: 0x40 }
  - { offset: 0xA60CC, size: 0x8, addend: 0x0, symName: __ZNSt3__119__allocator_destroyB8ne200100INS_9allocatorI15ModuleQueuePairEENS_16reverse_iteratorIPS2_EES6_EEvRT_T0_T1_, symObjAddr: 0x3E04, symBinAddr: 0x17E2C, symSize: 0x40 }
  - { offset: 0xA6C3E, size: 0x8, addend: 0x0, symName: __ZNSt3__112construct_atB8ne200100IN8facebook5react14TurboCxxModuleEJNS_10unique_ptrINS1_5xplat6module9CxxModuleENS_14default_deleteIS7_EEEERNS_10shared_ptrINS2_11CallInvokerEEEEPS3_EEPT_SH_DpOT0_, symObjAddr: 0x5158, symBinAddr: 0x186A0, symSize: 0xE0 }
  - { offset: 0xA9121, size: 0x8, addend: 0x0, symName: __ZL25kAssociatedMethodQueueKey, symObjAddr: 0x15FF10, symBinAddr: 0x2CED8, symSize: 0x0 }
  - { offset: 0xB01B9, size: 0x8, addend: 0x0, symName: '-[RCTTurboModuleManager installJSBindings:]', symObjAddr: 0x2D7C, symBinAddr: 0x17020, symSize: 0x300 }
  - { offset: 0xB1741, size: 0x8, addend: 0x0, symName: '-[RCTTurboModuleManager initWithBridge:bridgeProxy:bridgeModuleDecorator:delegate:jsInvoker:]', symObjAddr: 0x0, symBinAddr: 0x142A4, symSize: 0x4A0 }
  - { offset: 0xB193A, size: 0x8, addend: 0x0, symName: __ZNSt3__110shared_ptrIN8facebook5react11CallInvokerEEaSB8ne200100EOS4_, symObjAddr: 0x4A0, symBinAddr: 0x14744, symSize: 0x64 }
  - { offset: 0xB1C4A, size: 0x8, addend: 0x0, symName: '-[RCTTurboModuleManager initWithBridge:delegate:jsInvoker:]', symObjAddr: 0x504, symBinAddr: 0x147A8, symSize: 0x118 }
  - { offset: 0xB1E77, size: 0x8, addend: 0x0, symName: '-[RCTTurboModuleManager initWithBridgeProxy:bridgeModuleDecorator:delegate:jsInvoker:]', symObjAddr: 0x61C, symBinAddr: 0x148C0, symSize: 0x108 }
  - { offset: 0xB2BB7, size: 0x8, addend: 0x0, symName: '-[RCTTurboModuleManager provideTurboModule:runtime:]', symObjAddr: 0x724, symBinAddr: 0x149C8, symSize: 0xA1C }
  - { offset: 0xB5934, size: 0x8, addend: 0x0, symName: __ZNSt3__112__hash_tableINS_17__hash_value_typeINS_12basic_stringIcNS_11char_traitsIcEENS_9allocatorIcEEEENS_10shared_ptrIN8facebook5react11TurboModuleEEEEENS_22__unordered_map_hasherIS7_SD_NS_4hashIS7_EENS_8equal_toIS7_EELb1EEENS_21__unordered_map_equalIS7_SD_SI_SG_Lb1EEENS5_ISD_EEE25__emplace_unique_key_argsIS7_JNS_4pairIKS7_SC_EEEEENSP_INS_15__hash_iteratorIPNS_11__hash_nodeISD_PvEEEEbEERKT_DpOT0_, symObjAddr: 0x4620, symBinAddr: 0x17F88, symSize: 0x250 }
  - { offset: 0xB5FE0, size: 0x8, addend: 0x0, symName: __ZNSt3__14pairIKNS_12basic_stringIcNS_11char_traitsIcEENS_9allocatorIcEEEENS_10shared_ptrIN8facebook5react11TurboModuleEEEED1Ev, symObjAddr: 0x1140, symBinAddr: 0x153E4, symSize: 0x38 }
  - { offset: 0xB6193, size: 0x8, addend: 0x0, symName: __ZN8facebook5react15ObjCTurboModule10InitParamsD1Ev, symObjAddr: 0x1178, symBinAddr: 0x1541C, symSize: 0x48 }
  - { offset: 0xB67F0, size: 0x8, addend: 0x0, symName: '-[RCTTurboModuleManager provideLegacyModule:]', symObjAddr: 0x11C0, symBinAddr: 0x15464, symSize: 0x534 }
  - { offset: 0xB7F3C, size: 0x8, addend: 0x0, symName: '-[RCTTurboModuleManager _isTurboModule:]', symObjAddr: 0x16F4, symBinAddr: 0x15998, symSize: 0x50 }
  - { offset: 0xB7FB3, size: 0x8, addend: 0x0, symName: '-[RCTTurboModuleManager _isLegacyModule:]', symObjAddr: 0x1744, symBinAddr: 0x159E8, symSize: 0x28 }
  - { offset: 0xB800D, size: 0x8, addend: 0x0, symName: '-[RCTTurboModuleManager _isLegacyModuleClass:]', symObjAddr: 0x176C, symBinAddr: 0x15A10, symSize: 0x60 }
  - { offset: 0xB806F, size: 0x8, addend: 0x0, symName: '-[RCTTurboModuleManager _moduleProviderForName:]', symObjAddr: 0x17CC, symBinAddr: 0x15A70, symSize: 0x110 }
  - { offset: 0xB8AAC, size: 0x8, addend: 0x0, symName: '-[RCTTurboModuleManager _getOrCreateModuleHolder:]', symObjAddr: 0x18DC, symBinAddr: 0x15B80, symSize: 0x504 }
  - { offset: 0xB9C18, size: 0x8, addend: 0x0, symName: __ZNSt3__110unique_ptrINS_11__hash_nodeINS_17__hash_value_typeINS_12basic_stringIcNS_11char_traitsIcEENS_9allocatorIcEEEEN12_GLOBAL__N_112ModuleHolderEEEPvEENS_22__hash_node_destructorINS6_ISD_EEEEED1B8ne200100Ev, symObjAddr: 0x5660, symBinAddr: 0x18AF8, symSize: 0x48 }
  - { offset: 0xB9D9B, size: 0x8, addend: 0x0, symName: '-[RCTTurboModuleManager _provideObjCModule:moduleProvider:]', symObjAddr: 0x1DE0, symBinAddr: 0x16084, symSize: 0x14C }
  - { offset: 0xB9FC1, size: 0x8, addend: 0x0, symName: '-[RCTTurboModuleManager _provideObjCModule:moduleHolder:shouldPerfLog:moduleProvider:]', symObjAddr: 0x1F2C, symBinAddr: 0x161D0, symSize: 0x2F8 }
  - { offset: 0xBA472, size: 0x8, addend: 0x0, symName: ___Block_byref_object_copy_, symObjAddr: 0x2224, symBinAddr: 0x164C8, symSize: 0x10 }
  - { offset: 0xBA497, size: 0x8, addend: 0x0, symName: ___Block_byref_object_dispose_, symObjAddr: 0x2234, symBinAddr: 0x164D8, symSize: 0x8 }
  - { offset: 0xBA4B6, size: 0x8, addend: 0x0, symName: '___86-[RCTTurboModuleManager _provideObjCModule:moduleHolder:shouldPerfLog:moduleProvider:]_block_invoke', symObjAddr: 0x223C, symBinAddr: 0x164E0, symSize: 0x74 }
  - { offset: 0xBA575, size: 0x8, addend: 0x0, symName: ___copy_helper_block_ea8_32r40w, symObjAddr: 0x22B0, symBinAddr: 0x16554, symSize: 0x38 }
  - { offset: 0xBA59E, size: 0x8, addend: 0x0, symName: ___destroy_helper_block_ea8_32r40w, symObjAddr: 0x22E8, symBinAddr: 0x1658C, symSize: 0x2C }
  - { offset: 0xBA5BD, size: 0x8, addend: 0x0, symName: '-[RCTTurboModuleManager _shouldCreateObjCModule:]', symObjAddr: 0x2314, symBinAddr: 0x165B8, symSize: 0x40 }
  - { offset: 0xBA610, size: 0x8, addend: 0x0, symName: '-[RCTTurboModuleManager _createAndSetUpObjCModule:moduleName:moduleId:]', symObjAddr: 0x2354, symBinAddr: 0x165F8, symSize: 0x5A4 }
  - { offset: 0xBA9C2, size: 0x8, addend: 0x0, symName: '-[RCTTurboModuleManager _getModuleClassFromName:]', symObjAddr: 0x28F8, symBinAddr: 0x16B9C, symSize: 0x2E0 }
  - { offset: 0xBAADA, size: 0x8, addend: 0x0, symName: '-[RCTTurboModuleManager _getModuleInstanceFromClass:]', symObjAddr: 0x2BD8, symBinAddr: 0x16E7C, symSize: 0xEC }
  - { offset: 0xBAB83, size: 0x8, addend: 0x0, symName: '-[RCTTurboModuleManager _requiresMainQueueSetup:].cold.1', symObjAddr: 0x5CFC, symBinAddr: 0x1907C, symSize: 0x14 }
  - { offset: 0xBAB9F, size: 0x8, addend: 0x0, symName: '-[RCTTurboModuleManager _requiresMainQueueSetup:].cold.1', symObjAddr: 0x5CFC, symBinAddr: 0x1907C, symSize: 0x14 }
  - { offset: 0xBABB2, size: 0x8, addend: 0x0, symName: '___49-[RCTTurboModuleManager _requiresMainQueueSetup:]_block_invoke', symObjAddr: 0x2D50, symBinAddr: 0x16FF4, symSize: 0x2C }
  - { offset: 0xBB4E2, size: 0x8, addend: 0x0, symName: '-[RCTTurboModuleManager moduleForName:]', symObjAddr: 0x307C, symBinAddr: 0x17320, symSize: 0x8 }
  - { offset: 0xBB527, size: 0x8, addend: 0x0, symName: '-[RCTTurboModuleManager moduleForName:warnOnLookupFailure:]', symObjAddr: 0x3084, symBinAddr: 0x17328, symSize: 0xAC }
  - { offset: 0xBB694, size: 0x8, addend: 0x0, symName: '-[RCTTurboModuleManager moduleIsInitialized:]', symObjAddr: 0x3130, symBinAddr: 0x173D4, symSize: 0x14C }
  - { offset: 0xBBA5B, size: 0x8, addend: 0x0, symName: '-[RCTTurboModuleManager bridgeWillInvalidateModules:]', symObjAddr: 0x327C, symBinAddr: 0x17520, symSize: 0x90 }
  - { offset: 0xBBAB1, size: 0x8, addend: 0x0, symName: '-[RCTTurboModuleManager bridgeDidInvalidateModules:]', symObjAddr: 0x330C, symBinAddr: 0x175B0, symSize: 0x90 }
  - { offset: 0xBBB07, size: 0x8, addend: 0x0, symName: '-[RCTTurboModuleManager invalidate]', symObjAddr: 0x339C, symBinAddr: 0x17640, symSize: 0x24 }
  - { offset: 0xBBB3B, size: 0x8, addend: 0x0, symName: '-[RCTTurboModuleManager _enterInvalidatingState]', symObjAddr: 0x33C0, symBinAddr: 0x17664, symSize: 0x34 }
  - { offset: 0xBBEDB, size: 0x8, addend: 0x0, symName: '-[RCTTurboModuleManager _invalidateModules]', symObjAddr: 0x33F4, symBinAddr: 0x17698, symSize: 0x400 }
  - { offset: 0xBC9B0, size: 0x8, addend: 0x0, symName: __ZNSt3__16vectorI15ModuleQueuePairNS_9allocatorIS1_EEE24__emplace_back_slow_pathIJS1_EEEPS1_DpOT_, symObjAddr: 0x3B9C, symBinAddr: 0x17C0C, symSize: 0x114 }
  - { offset: 0xBC9BB, size: 0x8, addend: 0x0, symName: __ZNSt3__16vectorI15ModuleQueuePairNS_9allocatorIS1_EEE9push_backB8ne200100EOS1_, symObjAddr: 0x37F4, symBinAddr: 0x17A98, symSize: 0x48 }
  - { offset: 0xBCB76, size: 0x8, addend: 0x0, symName: __ZNSt3__112__hash_tableINS_17__hash_value_typeINS_12basic_stringIcNS_11char_traitsIcEENS_9allocatorIcEEEEN12_GLOBAL__N_112ModuleHolderEEENS_22__unordered_map_hasherIS7_SA_NS_4hashIS7_EENS_8equal_toIS7_EELb1EEENS_21__unordered_map_equalIS7_SA_SF_SD_Lb1EEENS5_ISA_EEE17__deallocate_nodeEPNS_16__hash_node_baseIPNS_11__hash_nodeISA_PvEEEE, symObjAddr: 0x5BF8, symBinAddr: 0x18FEC, symSize: 0x3C }
  - { offset: 0xBCC93, size: 0x8, addend: 0x0, symName: __ZNSt3__112__hash_tableINS_17__hash_value_typeINS_12basic_stringIcNS_11char_traitsIcEENS_9allocatorIcEEEENS_10shared_ptrIN8facebook5react11TurboModuleEEEEENS_22__unordered_map_hasherIS7_SD_NS_4hashIS7_EENS_8equal_toIS7_EELb1EEENS_21__unordered_map_equalIS7_SD_SI_SG_Lb1EEENS5_ISD_EEE5clearEv, symObjAddr: 0x5C34, symBinAddr: 0x19028, symSize: 0x54 }
  - { offset: 0xBCD6A, size: 0x8, addend: 0x0, symName: __ZNSt3__16vectorI15ModuleQueuePairNS_9allocatorIS1_EEE16__destroy_vectorclB8ne200100Ev, symObjAddr: 0x3ED0, symBinAddr: 0x17EF8, symSize: 0x40 }
  - { offset: 0xBCF56, size: 0x8, addend: 0x0, symName: __ZNSt3__16vectorI15ModuleQueuePairNS_9allocatorIS1_EEE24__emplace_back_slow_pathIJS1_EEEPS1_DpOT_, symObjAddr: 0x3B9C, symBinAddr: 0x17C0C, symSize: 0x114 }
  - { offset: 0xBD25A, size: 0x8, addend: 0x0, symName: '___43-[RCTTurboModuleManager _invalidateModules]_block_invoke', symObjAddr: 0x383C, symBinAddr: 0x17AE0, symSize: 0x28 }
  - { offset: 0xBD3E0, size: 0x8, addend: 0x0, symName: '-[RCTTurboModuleManager .cxx_destruct]', symObjAddr: 0x38B4, symBinAddr: 0x17B08, symSize: 0xA4 }
  - { offset: 0xBD995, size: 0x8, addend: 0x0, symName: '-[RCTTurboModuleManager .cxx_construct]', symObjAddr: 0x3958, symBinAddr: 0x17BAC, symSize: 0x60 }
  - { offset: 0xBD9CC, size: 0x8, addend: 0x0, symName: '-[RCTTurboModuleManager .cxx_construct]', symObjAddr: 0x3958, symBinAddr: 0x17BAC, symSize: 0x60 }
  - { offset: 0xBD9E9, size: 0x8, addend: 0x0, symName: '-[RCTTurboModuleManager .cxx_construct]', symObjAddr: 0x3958, symBinAddr: 0x17BAC, symSize: 0x60 }
  - { offset: 0xBE08A, size: 0x8, addend: 0x0, symName: __ZNSt3__114__split_bufferI15ModuleQueuePairRNS_9allocatorIS1_EEED2Ev, symObjAddr: 0x3E44, symBinAddr: 0x17E6C, symSize: 0x34 }
  - { offset: 0xBE1D0, size: 0x8, addend: 0x0, symName: __ZNSt3__128__exception_guard_exceptionsINS_29_AllocatorDestroyRangeReverseINS_9allocatorI15ModuleQueuePairEEPS3_EEED2B8ne200100Ev, symObjAddr: 0x3DBC, symBinAddr: 0x17DE4, symSize: 0x48 }
  - { offset: 0xBE2E4, size: 0x8, addend: 0x0, symName: __ZNSt3__114__split_bufferI15ModuleQueuePairRNS_9allocatorIS1_EEE17__destruct_at_endB8ne200100EPS1_, symObjAddr: 0x3E78, symBinAddr: 0x17EA0, symSize: 0x58 }
  - { offset: 0xBE3E3, size: 0x8, addend: 0x0, symName: __ZNSt3__16vectorI15ModuleQueuePairNS_9allocatorIS1_EEE22__base_destruct_at_endB8ne200100EPS1_, symObjAddr: 0x3F10, symBinAddr: 0x17F38, symSize: 0x50 }
  - { offset: 0xBEE84, size: 0x8, addend: 0x0, symName: __ZNSt3__112__hash_tableINS_17__hash_value_typeINS_12basic_stringIcNS_11char_traitsIcEENS_9allocatorIcEEEENS_10shared_ptrIN8facebook5react11TurboModuleEEEEENS_22__unordered_map_hasherIS7_SD_NS_4hashIS7_EENS_8equal_toIS7_EELb1EEENS_21__unordered_map_equalIS7_SD_SI_SG_Lb1EEENS5_ISD_EEE21__construct_node_hashINS_4pairIKS7_SC_EEJEEENS_10unique_ptrINS_11__hash_nodeISD_PvEENS_22__hash_node_destructorINS5_ISV_EEEEEEmOT_DpOT0_, symObjAddr: 0x4870, symBinAddr: 0x181D8, symSize: 0x6C }
  - { offset: 0xBF23E, size: 0x8, addend: 0x0, symName: __ZNSt3__110unique_ptrINS_11__hash_nodeINS_17__hash_value_typeINS_12basic_stringIcNS_11char_traitsIcEENS_9allocatorIcEEEENS_10shared_ptrIN8facebook5react11TurboModuleEEEEEPvEENS_22__hash_node_destructorINS6_ISG_EEEEE5resetB8ne200100EPSG_, symObjAddr: 0x4B60, symBinAddr: 0x1829C, symSize: 0x48 }
  - { offset: 0xBF58D, size: 0x8, addend: 0x0, symName: __ZNSt3__14pairIKNS_12basic_stringIcNS_11char_traitsIcEENS_9allocatorIcEEEENS_10shared_ptrIN8facebook5react11TurboModuleEEEEC2B8ne200100EOSD_, symObjAddr: 0x48DC, symBinAddr: 0x18244, symSize: 0x58 }
  - { offset: 0xBF95C, size: 0x8, addend: 0x0, symName: __ZNSt3__110unique_ptrINS_11__hash_nodeINS_17__hash_value_typeINS_12basic_stringIcNS_11char_traitsIcEENS_9allocatorIcEEEENS_10shared_ptrIN8facebook5react11TurboModuleEEEEEPvEENS_22__hash_node_destructorINS6_ISG_EEEEE5resetB8ne200100EPSG_, symObjAddr: 0x4B60, symBinAddr: 0x1829C, symSize: 0x48 }
  - { offset: 0xBFC7C, size: 0x8, addend: 0x0, symName: __ZNSt3__120__shared_ptr_emplaceIN12_GLOBAL__N_129ModuleNativeMethodCallInvokerENS_9allocatorIS2_EEED1Ev, symObjAddr: 0x4D80, symBinAddr: 0x182E4, symSize: 0x10 }
  - { offset: 0xBFC9E, size: 0x8, addend: 0x0, symName: __ZNSt3__120__shared_ptr_emplaceIN12_GLOBAL__N_129ModuleNativeMethodCallInvokerENS_9allocatorIS2_EEED1Ev, symObjAddr: 0x4D80, symBinAddr: 0x182E4, symSize: 0x10 }
  - { offset: 0xBFCD4, size: 0x8, addend: 0x0, symName: __ZNSt3__120__shared_ptr_emplaceIN12_GLOBAL__N_129ModuleNativeMethodCallInvokerENS_9allocatorIS2_EEED0Ev, symObjAddr: 0x4D90, symBinAddr: 0x182F4, symSize: 0x20 }
  - { offset: 0xBFDA0, size: 0x8, addend: 0x0, symName: __ZNSt3__120__shared_ptr_emplaceIN12_GLOBAL__N_129ModuleNativeMethodCallInvokerENS_9allocatorIS2_EEE16__on_zero_sharedEv, symObjAddr: 0x4DB0, symBinAddr: 0x18314, symSize: 0xC }
  - { offset: 0xBFDC9, size: 0x8, addend: 0x0, symName: __ZNSt3__120__shared_ptr_emplaceIN12_GLOBAL__N_129ModuleNativeMethodCallInvokerENS_9allocatorIS2_EEE16__on_zero_sharedEv, symObjAddr: 0x4DB0, symBinAddr: 0x18314, symSize: 0xC }
  - { offset: 0xBFDE6, size: 0x8, addend: 0x0, symName: __ZNSt3__120__shared_ptr_emplaceIN12_GLOBAL__N_129ModuleNativeMethodCallInvokerENS_9allocatorIS2_EEE16__on_zero_sharedEv, symObjAddr: 0x4DB0, symBinAddr: 0x18314, symSize: 0xC }
  - { offset: 0xBFE03, size: 0x8, addend: 0x0, symName: __ZNSt3__120__shared_ptr_emplaceIN12_GLOBAL__N_129ModuleNativeMethodCallInvokerENS_9allocatorIS2_EEE16__on_zero_sharedEv, symObjAddr: 0x4DB0, symBinAddr: 0x18314, symSize: 0xC }
  - { offset: 0xBFE8E, size: 0x8, addend: 0x0, symName: __ZNSt3__120__shared_ptr_emplaceIN12_GLOBAL__N_129ModuleNativeMethodCallInvokerENS_9allocatorIS2_EEE21__on_zero_shared_weakEv, symObjAddr: 0x4DBC, symBinAddr: 0x18320, symSize: 0x4 }
  - { offset: 0xBFEC0, size: 0x8, addend: 0x0, symName: __ZNSt3__120__shared_ptr_emplaceIN12_GLOBAL__N_129ModuleNativeMethodCallInvokerENS_9allocatorIS2_EEE21__on_zero_shared_weakEv, symObjAddr: 0x4DBC, symBinAddr: 0x18320, symSize: 0x4 }
  - { offset: 0xBFEE2, size: 0x8, addend: 0x0, symName: __ZNSt3__120__shared_ptr_emplaceIN12_GLOBAL__N_129ModuleNativeMethodCallInvokerENS_9allocatorIS2_EEE21__on_zero_shared_weakEv, symObjAddr: 0x4DBC, symBinAddr: 0x18320, symSize: 0x4 }
  - { offset: 0xBFF05, size: 0x8, addend: 0x0, symName: __ZNSt3__120__shared_ptr_emplaceIN12_GLOBAL__N_129ModuleNativeMethodCallInvokerENS_9allocatorIS2_EEE21__on_zero_shared_weakEv, symObjAddr: 0x4DBC, symBinAddr: 0x18320, symSize: 0x4 }
  - { offset: 0xBFF3A, size: 0x8, addend: 0x0, symName: __ZNSt3__120__shared_ptr_emplaceIN12_GLOBAL__N_129ModuleNativeMethodCallInvokerENS_9allocatorIS2_EEE21__on_zero_shared_weakEv, symObjAddr: 0x4DBC, symBinAddr: 0x18320, symSize: 0x4 }
  - { offset: 0xC0089, size: 0x8, addend: 0x0, symName: __ZN12_GLOBAL__N_129ModuleNativeMethodCallInvoker11invokeAsyncERKNSt3__112basic_stringIcNS1_11char_traitsIcEENS1_9allocatorIcEEEEONS1_8functionIFvvEEE, symObjAddr: 0x4DC0, symBinAddr: 0x18324, symSize: 0x150 }
  - { offset: 0xC0222, size: 0x8, addend: 0x0, symName: __ZNSt3__110__function12__value_funcIFvvEEC2B8ne200100EOS3_, symObjAddr: 0x5000, symBinAddr: 0x18548, symSize: 0x64 }
  - { offset: 0xC0270, size: 0x8, addend: 0x0, symName: __ZN12_GLOBAL__N_129ModuleNativeMethodCallInvoker10invokeSyncERKNSt3__112basic_stringIcNS1_11char_traitsIcEENS1_9allocatorIcEEEEONS1_8functionIFvvEEE, symObjAddr: 0x4F10, symBinAddr: 0x18474, symSize: 0x20 }
  - { offset: 0xC029E, size: 0x8, addend: 0x0, symName: __ZN12_GLOBAL__N_129ModuleNativeMethodCallInvoker10invokeSyncERKNSt3__112basic_stringIcNS1_11char_traitsIcEENS1_9allocatorIcEEEEONS1_8functionIFvvEEE, symObjAddr: 0x4F10, symBinAddr: 0x18474, symSize: 0x20 }
  - { offset: 0xC02B9, size: 0x8, addend: 0x0, symName: __ZN12_GLOBAL__N_129ModuleNativeMethodCallInvoker10invokeSyncERKNSt3__112basic_stringIcNS1_11char_traitsIcEENS1_9allocatorIcEEEEONS1_8functionIFvvEEE, symObjAddr: 0x4F10, symBinAddr: 0x18474, symSize: 0x20 }
  - { offset: 0xC02E4, size: 0x8, addend: 0x0, symName: __ZN12_GLOBAL__N_129ModuleNativeMethodCallInvokerD1Ev, symObjAddr: 0x4F30, symBinAddr: 0x18494, symSize: 0x28 }
  - { offset: 0xC030B, size: 0x8, addend: 0x0, symName: __ZN12_GLOBAL__N_129ModuleNativeMethodCallInvokerD1Ev, symObjAddr: 0x4F30, symBinAddr: 0x18494, symSize: 0x28 }
  - { offset: 0xC0365, size: 0x8, addend: 0x0, symName: __ZN12_GLOBAL__N_129ModuleNativeMethodCallInvokerD0Ev, symObjAddr: 0x4F58, symBinAddr: 0x184BC, symSize: 0x28 }
  - { offset: 0xC03CA, size: 0x8, addend: 0x0, symName: ___Block_byref_object_copy_.221, symObjAddr: 0x4F80, symBinAddr: 0x184E4, symSize: 0xC }
  - { offset: 0xC0441, size: 0x8, addend: 0x0, symName: ___Block_byref_object_dispose_.222, symObjAddr: 0x4F8C, symBinAddr: 0x184F0, symSize: 0x30 }
  - { offset: 0xC04E7, size: 0x8, addend: 0x0, symName: ____ZN12_GLOBAL__N_129ModuleNativeMethodCallInvoker11invokeAsyncERKNSt3__112basic_stringIcNS1_11char_traitsIcEENS1_9allocatorIcEEEEONS1_8functionIFvvEEE_block_invoke, symObjAddr: 0x4FBC, symBinAddr: 0x18520, symSize: 0x28 }
  - { offset: 0xC07C4, size: 0x8, addend: 0x0, symName: __ZNSt3__120__shared_ptr_emplaceIN8facebook5react14TurboCxxModuleENS_9allocatorIS3_EEEC2B8ne200100IJNS_10unique_ptrINS1_5xplat6module9CxxModuleENS_14default_deleteISB_EEEERNS_10shared_ptrINS2_11CallInvokerEEEES5_Li0EEES5_DpOT_, symObjAddr: 0x50C4, symBinAddr: 0x1860C, symSize: 0x4C }
  - { offset: 0xC0992, size: 0x8, addend: 0x0, symName: __ZNSt3__120__shared_ptr_emplaceIN8facebook5react14TurboCxxModuleENS_9allocatorIS3_EEED1Ev, symObjAddr: 0x5110, symBinAddr: 0x18658, symSize: 0x14 }
  - { offset: 0xC09B4, size: 0x8, addend: 0x0, symName: __ZNSt3__120__shared_ptr_emplaceIN8facebook5react14TurboCxxModuleENS_9allocatorIS3_EEED1Ev, symObjAddr: 0x5110, symBinAddr: 0x18658, symSize: 0x14 }
  - { offset: 0xC09EA, size: 0x8, addend: 0x0, symName: __ZNSt3__120__shared_ptr_emplaceIN8facebook5react14TurboCxxModuleENS_9allocatorIS3_EEED0Ev, symObjAddr: 0x5124, symBinAddr: 0x1866C, symSize: 0x24 }
  - { offset: 0xC0AB6, size: 0x8, addend: 0x0, symName: __ZNSt3__120__shared_ptr_emplaceIN8facebook5react14TurboCxxModuleENS_9allocatorIS3_EEE16__on_zero_sharedEv, symObjAddr: 0x5148, symBinAddr: 0x18690, symSize: 0xC }
  - { offset: 0xC0ADF, size: 0x8, addend: 0x0, symName: __ZNSt3__120__shared_ptr_emplaceIN8facebook5react14TurboCxxModuleENS_9allocatorIS3_EEE16__on_zero_sharedEv, symObjAddr: 0x5148, symBinAddr: 0x18690, symSize: 0xC }
  - { offset: 0xC0AFC, size: 0x8, addend: 0x0, symName: __ZNSt3__120__shared_ptr_emplaceIN8facebook5react14TurboCxxModuleENS_9allocatorIS3_EEE16__on_zero_sharedEv, symObjAddr: 0x5148, symBinAddr: 0x18690, symSize: 0xC }
  - { offset: 0xC0B19, size: 0x8, addend: 0x0, symName: __ZNSt3__120__shared_ptr_emplaceIN8facebook5react14TurboCxxModuleENS_9allocatorIS3_EEE16__on_zero_sharedEv, symObjAddr: 0x5148, symBinAddr: 0x18690, symSize: 0xC }
  - { offset: 0xC0B44, size: 0x8, addend: 0x0, symName: __ZNSt3__120__shared_ptr_emplaceIN8facebook5react14TurboCxxModuleENS_9allocatorIS3_EEE21__on_zero_shared_weakEv, symObjAddr: 0x5154, symBinAddr: 0x1869C, symSize: 0x4 }
  - { offset: 0xC0B76, size: 0x8, addend: 0x0, symName: __ZNSt3__120__shared_ptr_emplaceIN8facebook5react14TurboCxxModuleENS_9allocatorIS3_EEE21__on_zero_shared_weakEv, symObjAddr: 0x5154, symBinAddr: 0x1869C, symSize: 0x4 }
  - { offset: 0xC0B98, size: 0x8, addend: 0x0, symName: __ZNSt3__120__shared_ptr_emplaceIN8facebook5react14TurboCxxModuleENS_9allocatorIS3_EEE21__on_zero_shared_weakEv, symObjAddr: 0x5154, symBinAddr: 0x1869C, symSize: 0x4 }
  - { offset: 0xC0BBB, size: 0x8, addend: 0x0, symName: __ZNSt3__120__shared_ptr_emplaceIN8facebook5react14TurboCxxModuleENS_9allocatorIS3_EEE21__on_zero_shared_weakEv, symObjAddr: 0x5154, symBinAddr: 0x1869C, symSize: 0x4 }
  - { offset: 0xC0BF1, size: 0x8, addend: 0x0, symName: __ZNSt3__120__shared_ptr_emplaceIN8facebook5react14TurboCxxModuleENS_9allocatorIS3_EEE21__on_zero_shared_weakEv, symObjAddr: 0x5154, symBinAddr: 0x1869C, symSize: 0x4 }
  - { offset: 0xC0CA2, size: 0x8, addend: 0x0, symName: __ZNSt3__120__shared_ptr_emplaceIN12_GLOBAL__N_135LegacyModuleNativeMethodCallInvokerENS_9allocatorIS2_EEED1Ev, symObjAddr: 0x5290, symBinAddr: 0x18780, symSize: 0x10 }
  - { offset: 0xC0CC4, size: 0x8, addend: 0x0, symName: __ZNSt3__120__shared_ptr_emplaceIN12_GLOBAL__N_135LegacyModuleNativeMethodCallInvokerENS_9allocatorIS2_EEED1Ev, symObjAddr: 0x5290, symBinAddr: 0x18780, symSize: 0x10 }
  - { offset: 0xC0CFA, size: 0x8, addend: 0x0, symName: __ZNSt3__120__shared_ptr_emplaceIN12_GLOBAL__N_135LegacyModuleNativeMethodCallInvokerENS_9allocatorIS2_EEED0Ev, symObjAddr: 0x52A0, symBinAddr: 0x18790, symSize: 0x20 }
  - { offset: 0xC0DC6, size: 0x8, addend: 0x0, symName: __ZNSt3__120__shared_ptr_emplaceIN12_GLOBAL__N_135LegacyModuleNativeMethodCallInvokerENS_9allocatorIS2_EEE16__on_zero_sharedEv, symObjAddr: 0x52C0, symBinAddr: 0x187B0, symSize: 0xC }
  - { offset: 0xC0DEF, size: 0x8, addend: 0x0, symName: __ZNSt3__120__shared_ptr_emplaceIN12_GLOBAL__N_135LegacyModuleNativeMethodCallInvokerENS_9allocatorIS2_EEE16__on_zero_sharedEv, symObjAddr: 0x52C0, symBinAddr: 0x187B0, symSize: 0xC }
  - { offset: 0xC0E0C, size: 0x8, addend: 0x0, symName: __ZNSt3__120__shared_ptr_emplaceIN12_GLOBAL__N_135LegacyModuleNativeMethodCallInvokerENS_9allocatorIS2_EEE16__on_zero_sharedEv, symObjAddr: 0x52C0, symBinAddr: 0x187B0, symSize: 0xC }
  - { offset: 0xC0E29, size: 0x8, addend: 0x0, symName: __ZNSt3__120__shared_ptr_emplaceIN12_GLOBAL__N_135LegacyModuleNativeMethodCallInvokerENS_9allocatorIS2_EEE16__on_zero_sharedEv, symObjAddr: 0x52C0, symBinAddr: 0x187B0, symSize: 0xC }
  - { offset: 0xC0EB4, size: 0x8, addend: 0x0, symName: __ZNSt3__120__shared_ptr_emplaceIN12_GLOBAL__N_135LegacyModuleNativeMethodCallInvokerENS_9allocatorIS2_EEE21__on_zero_shared_weakEv, symObjAddr: 0x52CC, symBinAddr: 0x187BC, symSize: 0x4 }
  - { offset: 0xC0EE6, size: 0x8, addend: 0x0, symName: __ZNSt3__120__shared_ptr_emplaceIN12_GLOBAL__N_135LegacyModuleNativeMethodCallInvokerENS_9allocatorIS2_EEE21__on_zero_shared_weakEv, symObjAddr: 0x52CC, symBinAddr: 0x187BC, symSize: 0x4 }
  - { offset: 0xC0F08, size: 0x8, addend: 0x0, symName: __ZNSt3__120__shared_ptr_emplaceIN12_GLOBAL__N_135LegacyModuleNativeMethodCallInvokerENS_9allocatorIS2_EEE21__on_zero_shared_weakEv, symObjAddr: 0x52CC, symBinAddr: 0x187BC, symSize: 0x4 }
  - { offset: 0xC0F2B, size: 0x8, addend: 0x0, symName: __ZNSt3__120__shared_ptr_emplaceIN12_GLOBAL__N_135LegacyModuleNativeMethodCallInvokerENS_9allocatorIS2_EEE21__on_zero_shared_weakEv, symObjAddr: 0x52CC, symBinAddr: 0x187BC, symSize: 0x4 }
  - { offset: 0xC0F60, size: 0x8, addend: 0x0, symName: __ZNSt3__120__shared_ptr_emplaceIN12_GLOBAL__N_135LegacyModuleNativeMethodCallInvokerENS_9allocatorIS2_EEE21__on_zero_shared_weakEv, symObjAddr: 0x52CC, symBinAddr: 0x187BC, symSize: 0x4 }
  - { offset: 0xC103B, size: 0x8, addend: 0x0, symName: __ZN12_GLOBAL__N_135LegacyModuleNativeMethodCallInvoker10invokeSyncERKNSt3__112basic_stringIcNS1_11char_traitsIcEENS1_9allocatorIcEEEEONS1_8functionIFvvEEE, symObjAddr: 0x52D0, symBinAddr: 0x187C0, symSize: 0x1D4 }
  - { offset: 0xC13C9, size: 0x8, addend: 0x0, symName: __ZN12_GLOBAL__N_135LegacyModuleNativeMethodCallInvokerD1Ev, symObjAddr: 0x54A4, symBinAddr: 0x18994, symSize: 0x28 }
  - { offset: 0xC143F, size: 0x8, addend: 0x0, symName: __ZN12_GLOBAL__N_135LegacyModuleNativeMethodCallInvokerD0Ev, symObjAddr: 0x54CC, symBinAddr: 0x189BC, symSize: 0x28 }
  - { offset: 0xC14C0, size: 0x8, addend: 0x0, symName: ____ZN12_GLOBAL__N_135LegacyModuleNativeMethodCallInvoker10invokeSyncERKNSt3__112basic_stringIcNS1_11char_traitsIcEENS1_9allocatorIcEEEEONS1_8functionIFvvEEE_block_invoke, symObjAddr: 0x54F4, symBinAddr: 0x189E4, symSize: 0x28 }
  - { offset: 0xC1547, size: 0x8, addend: 0x0, symName: __ZNSt3__115allocate_sharedB8ne200100IN8facebook5react22ObjCInteropTurboModuleENS_9allocatorIS3_EEJRNS2_15ObjCTurboModule10InitParamsEELi0EEENS_10shared_ptrIT_EERKT0_DpOT1_, symObjAddr: 0x551C, symBinAddr: 0x18A0C, symSize: 0x58 }
  - { offset: 0xC178C, size: 0x8, addend: 0x0, symName: __ZNSt3__120__shared_ptr_emplaceIN8facebook5react22ObjCInteropTurboModuleENS_9allocatorIS3_EEEC2B8ne200100IJRNS2_15ObjCTurboModule10InitParamsEES5_Li0EEES5_DpOT_, symObjAddr: 0x5574, symBinAddr: 0x18A64, symSize: 0x4C }
  - { offset: 0xC18FF, size: 0x8, addend: 0x0, symName: __ZNSt3__120__shared_ptr_emplaceIN8facebook5react22ObjCInteropTurboModuleENS_9allocatorIS3_EEED1Ev, symObjAddr: 0x55C0, symBinAddr: 0x18AB0, symSize: 0x14 }
  - { offset: 0xC1921, size: 0x8, addend: 0x0, symName: __ZNSt3__120__shared_ptr_emplaceIN8facebook5react22ObjCInteropTurboModuleENS_9allocatorIS3_EEED1Ev, symObjAddr: 0x55C0, symBinAddr: 0x18AB0, symSize: 0x14 }
  - { offset: 0xC1957, size: 0x8, addend: 0x0, symName: __ZNSt3__120__shared_ptr_emplaceIN8facebook5react22ObjCInteropTurboModuleENS_9allocatorIS3_EEED0Ev, symObjAddr: 0x55D4, symBinAddr: 0x18AC4, symSize: 0x24 }
  - { offset: 0xC1A23, size: 0x8, addend: 0x0, symName: __ZNSt3__120__shared_ptr_emplaceIN8facebook5react22ObjCInteropTurboModuleENS_9allocatorIS3_EEE16__on_zero_sharedEv, symObjAddr: 0x55F8, symBinAddr: 0x18AE8, symSize: 0xC }
  - { offset: 0xC1A4C, size: 0x8, addend: 0x0, symName: __ZNSt3__120__shared_ptr_emplaceIN8facebook5react22ObjCInteropTurboModuleENS_9allocatorIS3_EEE16__on_zero_sharedEv, symObjAddr: 0x55F8, symBinAddr: 0x18AE8, symSize: 0xC }
  - { offset: 0xC1A69, size: 0x8, addend: 0x0, symName: __ZNSt3__120__shared_ptr_emplaceIN8facebook5react22ObjCInteropTurboModuleENS_9allocatorIS3_EEE16__on_zero_sharedEv, symObjAddr: 0x55F8, symBinAddr: 0x18AE8, symSize: 0xC }
  - { offset: 0xC1A86, size: 0x8, addend: 0x0, symName: __ZNSt3__120__shared_ptr_emplaceIN8facebook5react22ObjCInteropTurboModuleENS_9allocatorIS3_EEE16__on_zero_sharedEv, symObjAddr: 0x55F8, symBinAddr: 0x18AE8, symSize: 0xC }
  - { offset: 0xC1AB1, size: 0x8, addend: 0x0, symName: __ZNSt3__120__shared_ptr_emplaceIN8facebook5react22ObjCInteropTurboModuleENS_9allocatorIS3_EEE21__on_zero_shared_weakEv, symObjAddr: 0x5604, symBinAddr: 0x18AF4, symSize: 0x4 }
  - { offset: 0xC1AE3, size: 0x8, addend: 0x0, symName: __ZNSt3__120__shared_ptr_emplaceIN8facebook5react22ObjCInteropTurboModuleENS_9allocatorIS3_EEE21__on_zero_shared_weakEv, symObjAddr: 0x5604, symBinAddr: 0x18AF4, symSize: 0x4 }
  - { offset: 0xC1B05, size: 0x8, addend: 0x0, symName: __ZNSt3__120__shared_ptr_emplaceIN8facebook5react22ObjCInteropTurboModuleENS_9allocatorIS3_EEE21__on_zero_shared_weakEv, symObjAddr: 0x5604, symBinAddr: 0x18AF4, symSize: 0x4 }
  - { offset: 0xC1B28, size: 0x8, addend: 0x0, symName: __ZNSt3__120__shared_ptr_emplaceIN8facebook5react22ObjCInteropTurboModuleENS_9allocatorIS3_EEE21__on_zero_shared_weakEv, symObjAddr: 0x5604, symBinAddr: 0x18AF4, symSize: 0x4 }
  - { offset: 0xC1B5E, size: 0x8, addend: 0x0, symName: __ZNSt3__120__shared_ptr_emplaceIN8facebook5react22ObjCInteropTurboModuleENS_9allocatorIS3_EEE21__on_zero_shared_weakEv, symObjAddr: 0x5604, symBinAddr: 0x18AF4, symSize: 0x4 }
  - { offset: 0xC1C58, size: 0x8, addend: 0x0, symName: __ZNSt3__116allocator_traitsINS_9allocatorINS_11__hash_nodeINS_17__hash_value_typeINS_12basic_stringIcNS_11char_traitsIcEENS1_IcEEEEN12_GLOBAL__N_112ModuleHolderEEEPvEEEEE7destroyB8ne200100INS_4pairIKS8_SA_EEvLi0EEEvRSE_PT_, symObjAddr: 0x56A8, symBinAddr: 0x18B40, symSize: 0x4C }
  - { offset: 0xC1EC0, size: 0x8, addend: 0x0, symName: '__ZNSt3__110__function6__funcIZ43-[RCTTurboModuleManager installJSBindings:]E3$_0NS_9allocatorIS2_EEFNS_10shared_ptrIN8facebook5react11TurboModuleEEERKNS_12basic_stringIcNS_11char_traitsIcEENS3_IcEEEEEED1Ev', symObjAddr: 0x56F4, symBinAddr: 0x18B8C, symSize: 0x28 }
  - { offset: 0xC1F96, size: 0x8, addend: 0x0, symName: '__ZNSt3__110__function6__funcIZ43-[RCTTurboModuleManager installJSBindings:]E3$_0NS_9allocatorIS2_EEFNS_10shared_ptrIN8facebook5react11TurboModuleEEERKNS_12basic_stringIcNS_11char_traitsIcEENS3_IcEEEEEED0Ev', symObjAddr: 0x571C, symBinAddr: 0x18BB4, symSize: 0x28 }
  - { offset: 0xC21AA, size: 0x8, addend: 0x0, symName: '__ZNKSt3__110__function6__funcIZ43-[RCTTurboModuleManager installJSBindings:]E3$_0NS_9allocatorIS2_EEFNS_10shared_ptrIN8facebook5react11TurboModuleEEERKNS_12basic_stringIcNS_11char_traitsIcEENS3_IcEEEEEE7__cloneEv', symObjAddr: 0x5744, symBinAddr: 0x18BDC, symSize: 0x48 }
  - { offset: 0xC2410, size: 0x8, addend: 0x0, symName: '__ZNKSt3__110__function6__funcIZ43-[RCTTurboModuleManager installJSBindings:]E3$_0NS_9allocatorIS2_EEFNS_10shared_ptrIN8facebook5react11TurboModuleEEERKNS_12basic_stringIcNS_11char_traitsIcEENS3_IcEEEEEE7__cloneEPNS0_6__baseISH_EE', symObjAddr: 0x578C, symBinAddr: 0x18C24, symSize: 0x3C }
  - { offset: 0xC256C, size: 0x8, addend: 0x0, symName: '__ZNSt3__110__function6__funcIZ43-[RCTTurboModuleManager installJSBindings:]E3$_0NS_9allocatorIS2_EEFNS_10shared_ptrIN8facebook5react11TurboModuleEEERKNS_12basic_stringIcNS_11char_traitsIcEENS3_IcEEEEEE7destroyEv', symObjAddr: 0x57C8, symBinAddr: 0x18C60, symSize: 0x8 }
  - { offset: 0xC2595, size: 0x8, addend: 0x0, symName: '__ZNSt3__110__function6__funcIZ43-[RCTTurboModuleManager installJSBindings:]E3$_0NS_9allocatorIS2_EEFNS_10shared_ptrIN8facebook5react11TurboModuleEEERKNS_12basic_stringIcNS_11char_traitsIcEENS3_IcEEEEEE7destroyEv', symObjAddr: 0x57C8, symBinAddr: 0x18C60, symSize: 0x8 }
  - { offset: 0xC25B3, size: 0x8, addend: 0x0, symName: '__ZNSt3__110__function6__funcIZ43-[RCTTurboModuleManager installJSBindings:]E3$_0NS_9allocatorIS2_EEFNS_10shared_ptrIN8facebook5react11TurboModuleEEERKNS_12basic_stringIcNS_11char_traitsIcEENS3_IcEEEEEE7destroyEv', symObjAddr: 0x57C8, symBinAddr: 0x18C60, symSize: 0x8 }
  - { offset: 0xC25D0, size: 0x8, addend: 0x0, symName: '__ZNSt3__110__function6__funcIZ43-[RCTTurboModuleManager installJSBindings:]E3$_0NS_9allocatorIS2_EEFNS_10shared_ptrIN8facebook5react11TurboModuleEEERKNS_12basic_stringIcNS_11char_traitsIcEENS3_IcEEEEEE7destroyEv', symObjAddr: 0x57C8, symBinAddr: 0x18C60, symSize: 0x8 }
  - { offset: 0xC2620, size: 0x8, addend: 0x0, symName: '__ZNSt3__110__function6__funcIZ43-[RCTTurboModuleManager installJSBindings:]E3$_0NS_9allocatorIS2_EEFNS_10shared_ptrIN8facebook5react11TurboModuleEEERKNS_12basic_stringIcNS_11char_traitsIcEENS3_IcEEEEEE18destroy_deallocateEv', symObjAddr: 0x57D0, symBinAddr: 0x18C68, symSize: 0x28 }
  - { offset: 0xC27DD, size: 0x8, addend: 0x0, symName: '__ZNSt3__110__function6__funcIZ43-[RCTTurboModuleManager installJSBindings:]E3$_0NS_9allocatorIS2_EEFNS_10shared_ptrIN8facebook5react11TurboModuleEEERKNS_12basic_stringIcNS_11char_traitsIcEENS3_IcEEEEEEclESG_', symObjAddr: 0x57F8, symBinAddr: 0x18C90, symSize: 0x14C }
  - { offset: 0xC29E6, size: 0x8, addend: 0x0, symName: '__ZNKSt3__110__function6__funcIZ43-[RCTTurboModuleManager installJSBindings:]E3$_0NS_9allocatorIS2_EEFNS_10shared_ptrIN8facebook5react11TurboModuleEEERKNS_12basic_stringIcNS_11char_traitsIcEENS3_IcEEEEEE6targetERKSt9type_info', symObjAddr: 0x5944, symBinAddr: 0x18DDC, symSize: 0x3C }
  - { offset: 0xC2A96, size: 0x8, addend: 0x0, symName: '__ZNKSt3__110__function6__funcIZ43-[RCTTurboModuleManager installJSBindings:]E3$_0NS_9allocatorIS2_EEFNS_10shared_ptrIN8facebook5react11TurboModuleEEERKNS_12basic_stringIcNS_11char_traitsIcEENS3_IcEEEEEE11target_typeEv', symObjAddr: 0x5980, symBinAddr: 0x18E18, symSize: 0xC }
  - { offset: 0xC2B56, size: 0x8, addend: 0x0, symName: '__ZNSt3__110__function6__funcIZ43-[RCTTurboModuleManager installJSBindings:]E3$_1NS_9allocatorIS2_EEFNS_10shared_ptrIN8facebook5react11TurboModuleEEERKNS_12basic_stringIcNS_11char_traitsIcEENS3_IcEEEEEED1Ev', symObjAddr: 0x59D8, symBinAddr: 0x18E24, symSize: 0x28 }
  - { offset: 0xC2C2C, size: 0x8, addend: 0x0, symName: '__ZNSt3__110__function6__funcIZ43-[RCTTurboModuleManager installJSBindings:]E3$_1NS_9allocatorIS2_EEFNS_10shared_ptrIN8facebook5react11TurboModuleEEERKNS_12basic_stringIcNS_11char_traitsIcEENS3_IcEEEEEED0Ev', symObjAddr: 0x5A00, symBinAddr: 0x18E4C, symSize: 0x28 }
  - { offset: 0xC2E40, size: 0x8, addend: 0x0, symName: '__ZNKSt3__110__function6__funcIZ43-[RCTTurboModuleManager installJSBindings:]E3$_1NS_9allocatorIS2_EEFNS_10shared_ptrIN8facebook5react11TurboModuleEEERKNS_12basic_stringIcNS_11char_traitsIcEENS3_IcEEEEEE7__cloneEv', symObjAddr: 0x5A28, symBinAddr: 0x18E74, symSize: 0x44 }
  - { offset: 0xC30A6, size: 0x8, addend: 0x0, symName: '__ZNKSt3__110__function6__funcIZ43-[RCTTurboModuleManager installJSBindings:]E3$_1NS_9allocatorIS2_EEFNS_10shared_ptrIN8facebook5react11TurboModuleEEERKNS_12basic_stringIcNS_11char_traitsIcEENS3_IcEEEEEE7__cloneEPNS0_6__baseISH_EE', symObjAddr: 0x5A6C, symBinAddr: 0x18EB8, symSize: 0x34 }
  - { offset: 0xC3202, size: 0x8, addend: 0x0, symName: '__ZNSt3__110__function6__funcIZ43-[RCTTurboModuleManager installJSBindings:]E3$_1NS_9allocatorIS2_EEFNS_10shared_ptrIN8facebook5react11TurboModuleEEERKNS_12basic_stringIcNS_11char_traitsIcEENS3_IcEEEEEE7destroyEv', symObjAddr: 0x5AA0, symBinAddr: 0x18EEC, symSize: 0x8 }
  - { offset: 0xC322B, size: 0x8, addend: 0x0, symName: '__ZNSt3__110__function6__funcIZ43-[RCTTurboModuleManager installJSBindings:]E3$_1NS_9allocatorIS2_EEFNS_10shared_ptrIN8facebook5react11TurboModuleEEERKNS_12basic_stringIcNS_11char_traitsIcEENS3_IcEEEEEE7destroyEv', symObjAddr: 0x5AA0, symBinAddr: 0x18EEC, symSize: 0x8 }
  - { offset: 0xC3249, size: 0x8, addend: 0x0, symName: '__ZNSt3__110__function6__funcIZ43-[RCTTurboModuleManager installJSBindings:]E3$_1NS_9allocatorIS2_EEFNS_10shared_ptrIN8facebook5react11TurboModuleEEERKNS_12basic_stringIcNS_11char_traitsIcEENS3_IcEEEEEE7destroyEv', symObjAddr: 0x5AA0, symBinAddr: 0x18EEC, symSize: 0x8 }
  - { offset: 0xC3266, size: 0x8, addend: 0x0, symName: '__ZNSt3__110__function6__funcIZ43-[RCTTurboModuleManager installJSBindings:]E3$_1NS_9allocatorIS2_EEFNS_10shared_ptrIN8facebook5react11TurboModuleEEERKNS_12basic_stringIcNS_11char_traitsIcEENS3_IcEEEEEE7destroyEv', symObjAddr: 0x5AA0, symBinAddr: 0x18EEC, symSize: 0x8 }
  - { offset: 0xC32B6, size: 0x8, addend: 0x0, symName: '__ZNSt3__110__function6__funcIZ43-[RCTTurboModuleManager installJSBindings:]E3$_1NS_9allocatorIS2_EEFNS_10shared_ptrIN8facebook5react11TurboModuleEEERKNS_12basic_stringIcNS_11char_traitsIcEENS3_IcEEEEEE18destroy_deallocateEv', symObjAddr: 0x5AA8, symBinAddr: 0x18EF4, symSize: 0x28 }
  - { offset: 0xC3466, size: 0x8, addend: 0x0, symName: '__ZNSt3__110__function6__funcIZ43-[RCTTurboModuleManager installJSBindings:]E3$_1NS_9allocatorIS2_EEFNS_10shared_ptrIN8facebook5react11TurboModuleEEERKNS_12basic_stringIcNS_11char_traitsIcEENS3_IcEEEEEEclESG_', symObjAddr: 0x5AD0, symBinAddr: 0x18F1C, symSize: 0x88 }
  - { offset: 0xC3657, size: 0x8, addend: 0x0, symName: '__ZNKSt3__110__function6__funcIZ43-[RCTTurboModuleManager installJSBindings:]E3$_1NS_9allocatorIS2_EEFNS_10shared_ptrIN8facebook5react11TurboModuleEEERKNS_12basic_stringIcNS_11char_traitsIcEENS3_IcEEEEEE6targetERKSt9type_info', symObjAddr: 0x5B58, symBinAddr: 0x18FA4, symSize: 0x3C }
  - { offset: 0xC36A4, size: 0x8, addend: 0x0, symName: '__ZNKSt3__110__function6__funcIZ43-[RCTTurboModuleManager installJSBindings:]E3$_1NS_9allocatorIS2_EEFNS_10shared_ptrIN8facebook5react11TurboModuleEEERKNS_12basic_stringIcNS_11char_traitsIcEENS3_IcEEEEEE11target_typeEv', symObjAddr: 0x5B94, symBinAddr: 0x18FE0, symSize: 0xC }
...
