---
triple:          'arm64-apple-darwin'
binary-path:     '/Users/uk-aplatts/Development/InjuryIQ/ios/DerivedData/Build/Intermediates.noindex/ArchiveIntermediates/InjuryIQ/IntermediateBuildFilesPath/UninstalledProducts/iphoneos/jsinspector_moderncdp.framework/jsinspector_moderncdp'
relocations:
  - { offset: 0x33, size: 0x8, addend: 0x0, symName: _jsinspector_moderncdpVersionString, symObjAddr: 0x0, symBinAddr: 0x5B40, symSize: 0x0 }
  - { offset: 0x67, size: 0x8, addend: 0x0, symName: _jsinspector_moderncdpVersionNumber, symObjAddr: 0x38, symBinAddr: 0x5B78, symSize: 0x0 }
  - { offset: 0xA2, size: 0x8, addend: 0x0, symName: __ZN8facebook5react18jsinspector_modern3cdp8preparseENSt3__117basic_string_viewIcNS3_11char_traitsIcEEEE, symObjAddr: 0x0, symBinAddr: 0x4000, symSize: 0x1BC }
  - { offset: 0xA370, size: 0x8, addend: 0x0, symName: __ZNSt3__119piecewise_constructE, symObjAddr: 0x1BC7, symBinAddr: 0x5B93, symSize: 0x0 }
  - { offset: 0xD06D, size: 0x8, addend: 0x0, symName: __ZNSt3__120__throw_length_errorB8ne200100EPKc, symObjAddr: 0x10A0, symBinAddr: 0x5004, symSize: 0x50 }
  - { offset: 0xE9B1, size: 0x8, addend: 0x0, symName: __ZSt28__throw_bad_array_new_lengthB8ne200100v, symObjAddr: 0x1114, symBinAddr: 0x5078, symSize: 0x28 }
  - { offset: 0x115E1, size: 0x8, addend: 0x0, symName: __ZN5folly6detail16throw_exception_INS_9TypeErrorEJPKcNS_7dynamic4TypeEEEEvDpT0_, symObjAddr: 0xF10, symBinAddr: 0x58D0, symSize: 0x68 }
  - { offset: 0x12888, size: 0x8, addend: 0x0, symName: __ZN5folly15throw_exceptionINS_9TypeErrorEEEvOT_, symObjAddr: 0xF78, symBinAddr: 0x5938, symSize: 0x34 }
  - { offset: 0x13DFF, size: 0x8, addend: 0x0, symName: __ZN8facebook5react18jsinspector_modern3cdp8preparseENSt3__117basic_string_viewIcNS3_11char_traitsIcEEEE, symObjAddr: 0x0, symBinAddr: 0x4000, symSize: 0x1BC }
  - { offset: 0x14340, size: 0x8, addend: 0x0, symName: __ZN8facebook5react18jsinspector_modern3cdp9jsonErrorENSt3__18optionalIxEENS2_9ErrorCodeENS4_INS3_12basic_stringIcNS3_11char_traitsIcEENS3_9allocatorIcEEEEEE, symObjAddr: 0x388, symBinAddr: 0x4388, symSize: 0x458 }
  - { offset: 0x15965, size: 0x8, addend: 0x0, symName: __ZN8facebook5react18jsinspector_modern3cdp10jsonResultExRKN5folly7dynamicE, symObjAddr: 0x844, symBinAddr: 0x4844, symSize: 0x1CC }
  - { offset: 0x1612D, size: 0x8, addend: 0x0, symName: __ZN8facebook5react18jsinspector_modern3cdp16jsonNotificationENSt3__117basic_string_viewIcNS3_11char_traitsIcEEEENS3_8optionalIN5folly7dynamicEEE, symObjAddr: 0xA10, symBinAddr: 0x4A10, symSize: 0x23C }
  - { offset: 0x16AB0, size: 0x8, addend: 0x0, symName: __ZN8facebook5react18jsinspector_modern3cdp11jsonRequestExNSt3__117basic_string_viewIcNS3_11char_traitsIcEEEENS3_8optionalIN5folly7dynamicEEE, symObjAddr: 0xC4C, symBinAddr: 0x4C4C, symSize: 0x2C4 }
  - { offset: 0x17FD5, size: 0x8, addend: 0x0, symName: __ZNSt3__112basic_stringIcNS_11char_traitsIcEENS_9allocatorIcEEE25__init_copy_ctor_externalEPKcm, symObjAddr: 0x113C, symBinAddr: 0x50A0, symSize: 0x80 }
  - { offset: 0x181C3, size: 0x8, addend: 0x0, symName: __ZN5folly3f146detail11F14BasicMapINS_7dynamicES3_NS_6detail13DynamicHasherENS4_15DynamicKeyEqualENSt3__19allocatorINS7_4pairIKS3_S3_EEEEE9findLocalIKSD_NS_5RangeIPKcEEEENS_8OptionalIDTcldtfp_5beginLi0EEEEERT_RKT0_, symObjAddr: 0x11BC, symBinAddr: 0x5120, symSize: 0xE4 }
  - { offset: 0x181CE, size: 0x8, addend: 0x0, symName: __ZN5folly3f146detail11F14BasicMapINS_7dynamicES3_NS_6detail13DynamicHasherENS4_15DynamicKeyEqualENSt3__19allocatorINS7_4pairIKS3_S3_EEEEE9findLocalIKSD_NS_5RangeIPKcEEEENS_8OptionalIDTcldtfp_5beginLi0EEEEERT_RKT0_, symObjAddr: 0x11BC, symBinAddr: 0x5120, symSize: 0xE4 }
  - { offset: 0x18729, size: 0x8, addend: 0x0, symName: __ZNK8facebook5react18jsinspector_modern3cdp16PreparsedRequest6toJsonEv, symObjAddr: 0x1BC, symBinAddr: 0x41BC, symSize: 0x1CC }
  - { offset: 0x1932D, size: 0x8, addend: 0x0, symName: __ZNSt3__112basic_stringIcNS_11char_traitsIcEENS_9allocatorIcEEEC2B8ne200100ILi0EEEPKc, symObjAddr: 0xFE8, symBinAddr: 0x4F4C, symSize: 0xA4 }
  - { offset: 0x195AF, size: 0x8, addend: 0x0, symName: __ZNSt3__112basic_stringIcNS_11char_traitsIcEENS_9allocatorIcEEE20__throw_length_errorB8ne200100Ev, symObjAddr: 0x108C, symBinAddr: 0x4FF0, symSize: 0x14 }
  - { offset: 0x195C0, size: 0x8, addend: 0x0, symName: __ZN5folly7dynamic11ObjectMakerC2ES0_S0_, symObjAddr: 0x1378, symBinAddr: 0x526C, symSize: 0x84 }
  - { offset: 0x197D7, size: 0x8, addend: 0x0, symName: __ZN5folly7dynamic11ObjectMakerclES0_S0_, symObjAddr: 0x7E0, symBinAddr: 0x47E0, symSize: 0x64 }
  - { offset: 0x198C6, size: 0x8, addend: 0x0, symName: __ZN8facebook5react18jsinspector_modern3cdp10jsonResultExRKN5folly7dynamicE, symObjAddr: 0x844, symBinAddr: 0x4844, symSize: 0x1CC }
  - { offset: 0x198D1, size: 0x8, addend: 0x0, symName: __ZNSt3__112__hash_tableINS_17__hash_value_typeIN5folly7dynamicES3_EENS_22__unordered_map_hasherIS3_S4_NS2_6detail13DynamicHasherENS6_15DynamicKeyEqualELb1EEENS_21__unordered_map_equalIS3_S4_S8_S7_Lb1EEENS_9allocatorIS4_EEEC2EOSE_, symObjAddr: 0x18D0, symBinAddr: 0x57C4, symSize: 0x70 }
  - { offset: 0x1993F, size: 0x8, addend: 0x0, symName: __ZNSt3__112__hash_tableINS_17__hash_value_typeIN5folly7dynamicES3_EENS_22__unordered_map_hasherIS3_S4_NS2_6detail13DynamicHasherENS6_15DynamicKeyEqualELb1EEENS_21__unordered_map_equalIS3_S4_S8_S7_Lb1EEENS_9allocatorIS4_EEEC2EOSE_, symObjAddr: 0x18D0, symBinAddr: 0x57C4, symSize: 0x70 }
  - { offset: 0x19ADC, size: 0x8, addend: 0x0, symName: __ZNSt3__112__hash_tableINS_17__hash_value_typeIN5folly7dynamicES3_EENS_22__unordered_map_hasherIS3_S4_NS2_6detail13DynamicHasherENS6_15DynamicKeyEqualELb1EEENS_21__unordered_map_equalIS3_S4_S8_S7_Lb1EEENS_9allocatorIS4_EEE25__emplace_unique_key_argsIS3_JRKNS_21piecewise_construct_tENS_5tupleIJOS3_EEENSJ_IJEEEEEENS_4pairINS_15__hash_iteratorIPNS_11__hash_nodeIS4_PvEEEEbEERKT_DpOT0_, symObjAddr: 0x13FC, symBinAddr: 0x52F0, symSize: 0x25C }
  - { offset: 0x1A2CA, size: 0x8, addend: 0x0, symName: __ZN5folly7dynamic11ObjectMakerclES0_S0_.cold.1, symObjAddr: 0x19DC, symBinAddr: 0x59DC, symSize: 0x1C }
  - { offset: 0x1A4ED, size: 0x8, addend: 0x0, symName: __ZNSt3__112basic_stringIcNS_11char_traitsIcEENS_9allocatorIcEEEC2B8ne200100EPKcm, symObjAddr: 0x1940, symBinAddr: 0x5834, symSize: 0x9C }
  - { offset: 0x1A738, size: 0x8, addend: 0x0, symName: __ZN5folly7dynamic11ObjectMakerclES0_S0_.cold.1, symObjAddr: 0x19DC, symBinAddr: 0x59DC, symSize: 0x1C }
  - { offset: 0x1A7CB, size: 0x8, addend: 0x0, symName: __ZN5folly9TypeErrorC1EOS0_, symObjAddr: 0xFB0, symBinAddr: 0x4F14, symSize: 0x24 }
  - { offset: 0x1A828, size: 0x8, addend: 0x0, symName: __ZN5folly9TypeErrorD1Ev, symObjAddr: 0xFAC, symBinAddr: 0x4F10, symSize: 0x4 }
  - { offset: 0x1A84C, size: 0x8, addend: 0x0, symName: __ZN5folly9TypeErrorD1Ev, symObjAddr: 0xFAC, symBinAddr: 0x4F10, symSize: 0x4 }
  - { offset: 0x1A888, size: 0x8, addend: 0x0, symName: __ZN5folly9TypeErrorD0Ev, symObjAddr: 0xFD4, symBinAddr: 0x4F38, symSize: 0x14 }
  - { offset: 0x1AA66, size: 0x8, addend: 0x0, symName: __ZNSt3__112basic_stringIcNS_11char_traitsIcEENS_9allocatorIcEEE20__throw_length_errorB8ne200100Ev, symObjAddr: 0x108C, symBinAddr: 0x4FF0, symSize: 0x14 }
  - { offset: 0x1AA7E, size: 0x8, addend: 0x0, symName: __ZNSt3__120__throw_length_errorB8ne200100EPKc, symObjAddr: 0x10A0, symBinAddr: 0x5004, symSize: 0x50 }
  - { offset: 0x1AA89, size: 0x8, addend: 0x0, symName: __ZNSt12length_errorC1B8ne200100EPKc, symObjAddr: 0x10F0, symBinAddr: 0x5054, symSize: 0x24 }
  - { offset: 0x1ADE3, size: 0x8, addend: 0x0, symName: __ZNKSt3__112__hash_tableINS_17__hash_value_typeIN5folly5RangeIPKcEENS2_7dynamicEEENS_22__unordered_map_hasherIS6_S8_NS2_6detail13DynamicHasherENS2_3f146detail11F14BasicMapIS7_S7_SB_NSA_15DynamicKeyEqualENS_9allocatorINS_4pairIKS7_S7_EEEEE14BottomKeyEqualIS6_EELb1EEENS_21__unordered_map_equalIS6_S8_SN_SB_Lb1EEENSG_IS8_EEE6bucketB8ne200100IS6_EEmRKT_, symObjAddr: 0x1310, symBinAddr: 0x5204, symSize: 0x68 }
  - { offset: 0x1AF6A, size: 0x8, addend: 0x0, symName: __ZNK5folly6detail15DynamicKeyEqualclINS_5RangeIPKcEEEENSt3__19enable_ifIXsr3std14is_convertibleIT_S6_EE5valueEbE4typeERKS9_RKNS_7dynamicE, symObjAddr: 0x12A0, symBinAddr: 0x596C, symSize: 0x70 }
  - { offset: 0x1AFB2, size: 0x8, addend: 0x0, symName: __ZNK5folly6detail15DynamicKeyEqualclINS_5RangeIPKcEEEENSt3__19enable_ifIXsr3std14is_convertibleIT_S6_EE5valueEbE4typeERKS9_RKNS_7dynamicE, symObjAddr: 0x12A0, symBinAddr: 0x596C, symSize: 0x70 }
  - { offset: 0x1B94B, size: 0x8, addend: 0x0, symName: __ZNSt3__112__hash_tableINS_17__hash_value_typeIN5folly7dynamicES3_EENS_22__unordered_map_hasherIS3_S4_NS2_6detail13DynamicHasherENS6_15DynamicKeyEqualELb1EEENS_21__unordered_map_equalIS3_S4_S8_S7_Lb1EEENS_9allocatorIS4_EEE8__rehashILb1EEEvm, symObjAddr: 0x1658, symBinAddr: 0x554C, symSize: 0xDC }
  - { offset: 0x1BA4C, size: 0x8, addend: 0x0, symName: __ZNSt3__122__hash_node_destructorINS_9allocatorINS_11__hash_nodeINS_17__hash_value_typeIN5folly7dynamicES5_EEPvEEEEEclB8ne200100EPS8_, symObjAddr: 0x1884, symBinAddr: 0x5778, symSize: 0x4C }
  - { offset: 0x1BBDF, size: 0x8, addend: 0x0, symName: __ZNSt3__112__hash_tableINS_17__hash_value_typeIN5folly7dynamicES3_EENS_22__unordered_map_hasherIS3_S4_NS2_6detail13DynamicHasherENS6_15DynamicKeyEqualELb1EEENS_21__unordered_map_equalIS3_S4_S8_S7_Lb1EEENS_9allocatorIS4_EEE11__do_rehashILb1EEEvm, symObjAddr: 0x1734, symBinAddr: 0x5628, symSize: 0x150 }
  - { offset: 0x1C02A, size: 0x8, addend: 0x0, symName: __ZNSt3__122__hash_node_destructorINS_9allocatorINS_11__hash_nodeINS_17__hash_value_typeIN5folly7dynamicES5_EEPvEEEEEclB8ne200100EPS8_, symObjAddr: 0x1884, symBinAddr: 0x5778, symSize: 0x4C }
...
