---
triple:          'arm64-apple-darwin'
binary-path:     '/Users/uk-aplatts/Development/InjuryIQ/ios/DerivedData/Build/Intermediates.noindex/ArchiveIntermediates/InjuryIQ/IntermediateBuildFilesPath/UninstalledProducts/iphoneos/RNGestureHandler.framework/RNGestureHandler'
relocations:
  - { offset: 0x95AC9, size: 0x8, addend: 0x0, symName: _RNGestureHandlerVersionString, symObjAddr: 0x0, symBinAddr: 0x1BE90, symSize: 0x0 }
  - { offset: 0x95AFE, size: 0x8, addend: 0x0, symName: _RNGestureHandlerVersionNumber, symObjAddr: 0x30, symBinAddr: 0x1BEC0, symSize: 0x0 }
  - { offset: 0x95B3B, size: 0x8, addend: 0x0, symName: '-[RNBetterSwipeGestureRecognizer initWithGestureHandler:]', symObjAddr: 0x0, symBinAddr: 0x4000, symSize: 0x9C }
  - { offset: 0x95D81, size: 0x8, addend: 0x0, symName: '-[RNBetterSwipeGestureRecognizer initWithGestureHandler:]', symObjAddr: 0x0, symBinAddr: 0x4000, symSize: 0x9C }
  - { offset: 0x95DC8, size: 0x8, addend: 0x0, symName: '-[RNBetterSwipeGestureRecognizer touchesBegan:withEvent:]', symObjAddr: 0x9C, symBinAddr: 0x409C, symSize: 0x178 }
  - { offset: 0x95E1B, size: 0x8, addend: 0x0, symName: '-[RNBetterSwipeGestureRecognizer touchesMoved:withEvent:]', symObjAddr: 0x214, symBinAddr: 0x4214, symSize: 0x128 }
  - { offset: 0x95E6E, size: 0x8, addend: 0x0, symName: '-[RNBetterSwipeGestureRecognizer touchesEnded:withEvent:]', symObjAddr: 0x33C, symBinAddr: 0x433C, symSize: 0x128 }
  - { offset: 0x95EC1, size: 0x8, addend: 0x0, symName: '-[RNBetterSwipeGestureRecognizer touchesCancelled:withEvent:]', symObjAddr: 0x464, symBinAddr: 0x4464, symSize: 0x128 }
  - { offset: 0x95F14, size: 0x8, addend: 0x0, symName: '-[RNBetterSwipeGestureRecognizer triggerAction]', symObjAddr: 0x58C, symBinAddr: 0x458C, symSize: 0x44 }
  - { offset: 0x95F47, size: 0x8, addend: 0x0, symName: '-[RNBetterSwipeGestureRecognizer reset]', symObjAddr: 0x5D0, symBinAddr: 0x45D0, symSize: 0x98 }
  - { offset: 0x95F7A, size: 0x8, addend: 0x0, symName: '-[RNBetterSwipeGestureRecognizer getLastLocation]', symObjAddr: 0x668, symBinAddr: 0x4668, symSize: 0x14 }
  - { offset: 0x95FAF, size: 0x8, addend: 0x0, symName: '-[RNBetterSwipeGestureRecognizer .cxx_destruct]', symObjAddr: 0x67C, symBinAddr: 0x467C, symSize: 0x10 }
  - { offset: 0x95FE2, size: 0x8, addend: 0x0, symName: '-[RNFlingGestureHandler initWithTag:]', symObjAddr: 0x68C, symBinAddr: 0x468C, symSize: 0x74 }
  - { offset: 0x96029, size: 0x8, addend: 0x0, symName: '-[RNFlingGestureHandler resetConfig]', symObjAddr: 0x700, symBinAddr: 0x4700, symSize: 0x70 }
  - { offset: 0x9606C, size: 0x8, addend: 0x0, symName: '-[RNFlingGestureHandler configure:]', symObjAddr: 0x770, symBinAddr: 0x4770, symSize: 0xF0 }
  - { offset: 0x960CF, size: 0x8, addend: 0x0, symName: '-[RNFlingGestureHandler gestureRecognizerShouldBegin:]', symObjAddr: 0x860, symBinAddr: 0x4860, symSize: 0x5C }
  - { offset: 0x9613A, size: 0x8, addend: 0x0, symName: '-[RNFlingGestureHandler eventExtraData:]', symObjAddr: 0x8BC, symBinAddr: 0x48BC, symSize: 0x120 }
  - { offset: 0x96331, size: 0x8, addend: 0x0, symName: '-[RNForceTouchGestureRecognizer initWithGestureHandler:]', symObjAddr: 0x0, symBinAddr: 0x49DC, symSize: 0xB8 }
  - { offset: 0x96648, size: 0x8, addend: 0x0, symName: '-[RNForceTouchGestureRecognizer initWithGestureHandler:]', symObjAddr: 0x0, symBinAddr: 0x49DC, symSize: 0xB8 }
  - { offset: 0x9668F, size: 0x8, addend: 0x0, symName: '-[RNForceTouchGestureRecognizer touchesBegan:withEvent:]', symObjAddr: 0xB8, symBinAddr: 0x4A94, symSize: 0x100 }
  - { offset: 0x966E2, size: 0x8, addend: 0x0, symName: '-[RNForceTouchGestureRecognizer touchesMoved:withEvent:]', symObjAddr: 0x1B8, symBinAddr: 0x4B94, symSize: 0x110 }
  - { offset: 0x96735, size: 0x8, addend: 0x0, symName: '-[RNForceTouchGestureRecognizer shouldActivate]', symObjAddr: 0x2C8, symBinAddr: 0x4CA4, symSize: 0x24 }
  - { offset: 0x9676C, size: 0x8, addend: 0x0, symName: '-[RNForceTouchGestureRecognizer shouldFail]', symObjAddr: 0x2EC, symBinAddr: 0x4CC8, symSize: 0x60 }
  - { offset: 0x967A3, size: 0x8, addend: 0x0, symName: '-[RNForceTouchGestureRecognizer performFeedbackIfRequired]', symObjAddr: 0x34C, symBinAddr: 0x4D28, symSize: 0x50 }
  - { offset: 0x967D6, size: 0x8, addend: 0x0, symName: '-[RNForceTouchGestureRecognizer touchesEnded:withEvent:]', symObjAddr: 0x39C, symBinAddr: 0x4D78, symSize: 0xF8 }
  - { offset: 0x96829, size: 0x8, addend: 0x0, symName: '-[RNForceTouchGestureRecognizer touchesCancelled:withEvent:]', symObjAddr: 0x494, symBinAddr: 0x4E70, symSize: 0xA4 }
  - { offset: 0x9687C, size: 0x8, addend: 0x0, symName: '-[RNForceTouchGestureRecognizer handleForceWithTouches:]', symObjAddr: 0x538, symBinAddr: 0x4F14, symSize: 0x50 }
  - { offset: 0x968BB, size: 0x8, addend: 0x0, symName: '-[RNForceTouchGestureRecognizer reset]', symObjAddr: 0x588, symBinAddr: 0x4F64, symSize: 0xA8 }
  - { offset: 0x968EE, size: 0x8, addend: 0x0, symName: '-[RNForceTouchGestureRecognizer maxForce]', symObjAddr: 0x630, symBinAddr: 0x500C, symSize: 0x10 }
  - { offset: 0x96923, size: 0x8, addend: 0x0, symName: '-[RNForceTouchGestureRecognizer setMaxForce:]', symObjAddr: 0x640, symBinAddr: 0x501C, symSize: 0x10 }
  - { offset: 0x96961, size: 0x8, addend: 0x0, symName: '-[RNForceTouchGestureRecognizer minForce]', symObjAddr: 0x650, symBinAddr: 0x502C, symSize: 0x10 }
  - { offset: 0x96996, size: 0x8, addend: 0x0, symName: '-[RNForceTouchGestureRecognizer setMinForce:]', symObjAddr: 0x660, symBinAddr: 0x503C, symSize: 0x10 }
  - { offset: 0x969D4, size: 0x8, addend: 0x0, symName: '-[RNForceTouchGestureRecognizer force]', symObjAddr: 0x670, symBinAddr: 0x504C, symSize: 0x10 }
  - { offset: 0x96A09, size: 0x8, addend: 0x0, symName: '-[RNForceTouchGestureRecognizer setForce:]', symObjAddr: 0x680, symBinAddr: 0x505C, symSize: 0x10 }
  - { offset: 0x96A47, size: 0x8, addend: 0x0, symName: '-[RNForceTouchGestureRecognizer feedbackOnActivation]', symObjAddr: 0x690, symBinAddr: 0x506C, symSize: 0x10 }
  - { offset: 0x96A7E, size: 0x8, addend: 0x0, symName: '-[RNForceTouchGestureRecognizer setFeedbackOnActivation:]', symObjAddr: 0x6A0, symBinAddr: 0x507C, symSize: 0x10 }
  - { offset: 0x96AB9, size: 0x8, addend: 0x0, symName: '-[RNForceTouchGestureRecognizer .cxx_destruct]', symObjAddr: 0x6B0, symBinAddr: 0x508C, symSize: 0x3C }
  - { offset: 0x96AEC, size: 0x8, addend: 0x0, symName: '-[RNForceTouchHandler initWithTag:]', symObjAddr: 0x6EC, symBinAddr: 0x50C8, symSize: 0x74 }
  - { offset: 0x96B33, size: 0x8, addend: 0x0, symName: '-[RNForceTouchHandler resetConfig]', symObjAddr: 0x760, symBinAddr: 0x513C, symSize: 0x84 }
  - { offset: 0x96B76, size: 0x8, addend: 0x0, symName: '-[RNForceTouchHandler configure:]', symObjAddr: 0x7E4, symBinAddr: 0x51C0, symSize: 0x118 }
  - { offset: 0x96C13, size: 0x8, addend: 0x0, symName: '-[RNForceTouchHandler eventExtraData:]', symObjAddr: 0x8FC, symBinAddr: 0x52D8, symSize: 0x110 }
  - { offset: 0x96D77, size: 0x8, addend: 0x0, symName: __ZN8facebook5react17HostPlatformColorL14UndefinedColorE, symObjAddr: 0xF02C0, symBinAddr: 0x2D3C0, symSize: 0x0 }
  - { offset: 0x9C004, size: 0x8, addend: 0x0, symName: __ZL18allGestureHandlers, symObjAddr: 0xF02D8, symBinAddr: 0x2D3D8, symSize: 0x0 }
  - { offset: 0x9C235, size: 0x8, addend: 0x0, symName: '-[RNGestureHandler initWithTag:]', symObjAddr: 0xE4, symBinAddr: 0x54CC, symSize: 0x100 }
  - { offset: 0x9C25F, size: 0x8, addend: 0x0, symName: '__ZZ32-[RNGestureHandler initWithTag:]E9onceToken', symObjAddr: 0xF02E0, symBinAddr: 0x2D3E0, symSize: 0x0 }
  - { offset: 0x9C2CE, size: 0x8, addend: 0x0, symName: '-[RNGestureHandler sendEventsInState:forViewWithTag:withExtraData:]', symObjAddr: 0xFF8, symBinAddr: 0x63E0, symSize: 0x1B0 }
  - { offset: 0x9C2F6, size: 0x8, addend: 0x0, symName: '__ZZ67-[RNGestureHandler sendEventsInState:forViewWithTag:withExtraData:]E22nextEventCoalescingKey', symObjAddr: 0xF02E8, symBinAddr: 0x2D3E8, symSize: 0x0 }
  - { offset: 0x9C3C2, size: 0x8, addend: 0x0, symName: __ZL16RNGHHitSlopEmpty, symObjAddr: 0x45A0, symBinAddr: 0x1BED0, symSize: 0x0 }
  - { offset: 0x9E3A4, size: 0x8, addend: 0x0, symName: '-[UIGestureRecognizer(GestureHandler) gestureHandler]', symObjAddr: 0x0, symBinAddr: 0x53E8, symSize: 0x68 }
  - { offset: 0x9E3EB, size: 0x8, addend: 0x0, symName: __Z20RNGHHitSlopInsetRect6CGRect11RNGHHitSlop, symObjAddr: 0x68, symBinAddr: 0x5450, symSize: 0x7C }
  - { offset: 0x9E4C6, size: 0x8, addend: 0x0, symName: '-[RNGestureHandler initWithTag:].cold.1', symObjAddr: 0x2610, symBinAddr: 0x176CC, symSize: 0x24 }
  - { offset: 0x9E4F4, size: 0x8, addend: 0x0, symName: '___32-[RNGestureHandler initWithTag:]_block_invoke', symObjAddr: 0x1E4, symBinAddr: 0x55CC, symSize: 0x2C }
  - { offset: 0x9E51B, size: 0x8, addend: 0x0, symName: '-[RNGestureHandler resetConfig]', symObjAddr: 0x210, symBinAddr: 0x55F8, symSize: 0x7C }
  - { offset: 0x9E54E, size: 0x8, addend: 0x0, symName: '-[RNGestureHandler configure:]', symObjAddr: 0x28C, symBinAddr: 0x5674, symSize: 0x6FC }
  - { offset: 0x9E63E, size: 0x8, addend: 0x0, symName: '-[RNGestureHandler setEnabled:]', symObjAddr: 0x988, symBinAddr: 0x5D70, symSize: 0x54 }
  - { offset: 0x9E67D, size: 0x8, addend: 0x0, symName: '-[RNGestureHandler setCurrentPointerType:]', symObjAddr: 0x9DC, symBinAddr: 0x5DC4, symSize: 0x8C }
  - { offset: 0x9E6D0, size: 0x8, addend: 0x0, symName: '-[RNGestureHandler getPointerType]', symObjAddr: 0xA68, symBinAddr: 0x5E50, symSize: 0x8 }
  - { offset: 0x9E707, size: 0x8, addend: 0x0, symName: '-[RNGestureHandler isViewParagraphComponent:]', symObjAddr: 0xA70, symBinAddr: 0x5E58, symSize: 0x54 }
  - { offset: 0x9E74A, size: 0x8, addend: 0x0, symName: '-[RNGestureHandler bindToView:]', symObjAddr: 0xAC4, symBinAddr: 0x5EAC, symSize: 0x110 }
  - { offset: 0x9E799, size: 0x8, addend: 0x0, symName: '-[RNGestureHandler unbindFromView]', symObjAddr: 0xBD4, symBinAddr: 0x5FBC, symSize: 0xB0 }
  - { offset: 0x9E7CC, size: 0x8, addend: 0x0, symName: '-[RNGestureHandler eventExtraData:]', symObjAddr: 0xC84, symBinAddr: 0x606C, symSize: 0x114 }
  - { offset: 0x9E813, size: 0x8, addend: 0x0, symName: '-[RNGestureHandler chooseViewForInteraction:]', symObjAddr: 0xD98, symBinAddr: 0x6180, symSize: 0xDC }
  - { offset: 0x9E85C, size: 0x8, addend: 0x0, symName: '-[RNGestureHandler handleGesture:]', symObjAddr: 0xE74, symBinAddr: 0x625C, symSize: 0xA0 }
  - { offset: 0x9E8B2, size: 0x8, addend: 0x0, symName: '-[RNGestureHandler handleGesture:inState:]', symObjAddr: 0xF14, symBinAddr: 0x62FC, symSize: 0xE4 }
  - { offset: 0x9E92A, size: 0x8, addend: 0x0, symName: '-[RNGestureHandler sendEvent:]', symObjAddr: 0x11A8, symBinAddr: 0x6590, symSize: 0x7C }
  - { offset: 0x9E96F, size: 0x8, addend: 0x0, symName: '-[RNGestureHandler sendTouchEventInState:forViewWithTag:]', symObjAddr: 0x1224, symBinAddr: 0x660C, symSize: 0x16C }
  - { offset: 0x9E9E7, size: 0x8, addend: 0x0, symName: '-[RNGestureHandler recognizerState]', symObjAddr: 0x1390, symBinAddr: 0x6778, symSize: 0x34 }
  - { offset: 0x9EA1F, size: 0x8, addend: 0x0, symName: '-[RNGestureHandler state]', symObjAddr: 0x13C4, symBinAddr: 0x67AC, symSize: 0x8 }
  - { offset: 0x9EA57, size: 0x8, addend: 0x0, symName: '-[RNGestureHandler stopActivationBlocker]', symObjAddr: 0x13CC, symBinAddr: 0x67B4, symSize: 0x10 }
  - { offset: 0x9EA8B, size: 0x8, addend: 0x0, symName: '-[RNGestureHandler setManualActivation:]', symObjAddr: 0x13DC, symBinAddr: 0x67C4, symSize: 0xD8 }
  - { offset: 0x9EACC, size: 0x8, addend: 0x0, symName: '-[RNGestureHandler bindManualActivationToView:]', symObjAddr: 0x14B4, symBinAddr: 0x689C, symSize: 0x54 }
  - { offset: 0x9EB11, size: 0x8, addend: 0x0, symName: '-[RNGestureHandler unbindManualActivation]', symObjAddr: 0x1508, symBinAddr: 0x68F0, symSize: 0x68 }
  - { offset: 0x9EB45, size: 0x8, addend: 0x0, symName: '+[RNGestureHandler findGestureHandlerByRecognizer:]', symObjAddr: 0x1570, symBinAddr: 0x6958, symSize: 0x1E4 }
  - { offset: 0x9EBC4, size: 0x8, addend: 0x0, symName: '-[RNGestureHandler gestureRecognizer:shouldBeRequiredToFailByGestureRecognizer:]', symObjAddr: 0x1754, symBinAddr: 0x6B3C, symSize: 0x244 }
  - { offset: 0x9EC5B, size: 0x8, addend: 0x0, symName: '-[RNGestureHandler gestureRecognizer:shouldRequireFailureOfGestureRecognizer:]', symObjAddr: 0x1998, symBinAddr: 0x6D80, symSize: 0x224 }
  - { offset: 0x9ECFA, size: 0x8, addend: 0x0, symName: '-[RNGestureHandler gestureRecognizer:shouldRecognizeSimultaneouslyWithGestureRecognizer:]', symObjAddr: 0x1BBC, symBinAddr: 0x6FA4, symSize: 0x2D0 }
  - { offset: 0x9ED95, size: 0x8, addend: 0x0, symName: '-[RNGestureHandler areScrollViewRecognizersCompatible:otherRecognizer:]', symObjAddr: 0x1E8C, symBinAddr: 0x7274, symSize: 0xFC }
  - { offset: 0x9EE07, size: 0x8, addend: 0x0, symName: '-[RNGestureHandler isUIScrollViewPanGestureRecognizer:]', symObjAddr: 0x1F88, symBinAddr: 0x7370, symSize: 0x70 }
  - { offset: 0x9EE4C, size: 0x8, addend: 0x0, symName: '-[RNGestureHandler retrieveScrollView:]', symObjAddr: 0x1FF8, symBinAddr: 0x73E0, symSize: 0x70 }
  - { offset: 0x9EEAD, size: 0x8, addend: 0x0, symName: '-[RNGestureHandler reset]', symObjAddr: 0x2068, symBinAddr: 0x7450, symSize: 0x40 }
  - { offset: 0x9EEE1, size: 0x8, addend: 0x0, symName: '-[RNGestureHandler containsPointInView]', symObjAddr: 0x20A8, symBinAddr: 0x7490, symSize: 0xDC }
  - { offset: 0x9EF76, size: 0x8, addend: 0x0, symName: '-[RNGestureHandler gestureRecognizerShouldBegin:]', symObjAddr: 0x2184, symBinAddr: 0x756C, symSize: 0x250 }
  - { offset: 0x9EFEB, size: 0x8, addend: 0x0, symName: '-[RNGestureHandler gestureRecognizer:shouldReceiveTouch:]', symObjAddr: 0x23D4, symBinAddr: 0x77BC, symSize: 0x14C }
  - { offset: 0x9F092, size: 0x8, addend: 0x0, symName: '-[RNGestureHandler tag]', symObjAddr: 0x2520, symBinAddr: 0x7908, symSize: 0x8 }
  - { offset: 0x9F0C9, size: 0x8, addend: 0x0, symName: '-[RNGestureHandler emitter]', symObjAddr: 0x2528, symBinAddr: 0x7910, symSize: 0x18 }
  - { offset: 0x9F100, size: 0x8, addend: 0x0, symName: '-[RNGestureHandler setEmitter:]', symObjAddr: 0x2540, symBinAddr: 0x7928, symSize: 0xC }
  - { offset: 0x9F141, size: 0x8, addend: 0x0, symName: '-[RNGestureHandler recognizer]', symObjAddr: 0x254C, symBinAddr: 0x7934, symSize: 0x8 }
  - { offset: 0x9F178, size: 0x8, addend: 0x0, symName: '-[RNGestureHandler pointerTracker]', symObjAddr: 0x2554, symBinAddr: 0x793C, symSize: 0x8 }
  - { offset: 0x9F1AF, size: 0x8, addend: 0x0, symName: '-[RNGestureHandler enabled]', symObjAddr: 0x255C, symBinAddr: 0x7944, symSize: 0x8 }
  - { offset: 0x9F1E6, size: 0x8, addend: 0x0, symName: '-[RNGestureHandler actionType]', symObjAddr: 0x2564, symBinAddr: 0x794C, symSize: 0x8 }
  - { offset: 0x9F21D, size: 0x8, addend: 0x0, symName: '-[RNGestureHandler setActionType:]', symObjAddr: 0x256C, symBinAddr: 0x7954, symSize: 0x8 }
  - { offset: 0x9F25A, size: 0x8, addend: 0x0, symName: '-[RNGestureHandler shouldCancelWhenOutside]', symObjAddr: 0x2574, symBinAddr: 0x795C, symSize: 0x8 }
  - { offset: 0x9F291, size: 0x8, addend: 0x0, symName: '-[RNGestureHandler setShouldCancelWhenOutside:]', symObjAddr: 0x257C, symBinAddr: 0x7964, symSize: 0x8 }
  - { offset: 0x9F2CC, size: 0x8, addend: 0x0, symName: '-[RNGestureHandler needsPointerData]', symObjAddr: 0x2584, symBinAddr: 0x796C, symSize: 0x8 }
  - { offset: 0x9F303, size: 0x8, addend: 0x0, symName: '-[RNGestureHandler setNeedsPointerData:]', symObjAddr: 0x258C, symBinAddr: 0x7974, symSize: 0x8 }
  - { offset: 0x9F33E, size: 0x8, addend: 0x0, symName: '-[RNGestureHandler manualActivation]', symObjAddr: 0x2594, symBinAddr: 0x797C, symSize: 0x8 }
  - { offset: 0x9F375, size: 0x8, addend: 0x0, symName: '-[RNGestureHandler .cxx_destruct]', symObjAddr: 0x259C, symBinAddr: 0x7984, symSize: 0x74 }
  - { offset: 0x9F433, size: 0x8, addend: 0x0, symName: __GLOBAL__sub_I_RNGestureHandler.mm, symObjAddr: 0x2C30, symBinAddr: 0x79F8, symSize: 0x20 }
  - { offset: 0xA2EAA, size: 0x8, addend: 0x0, symName: __ZN8facebook5react17HostPlatformColorL14UndefinedColorE, symObjAddr: 0x1BD08, symBinAddr: 0x2D3F0, symSize: 0x0 }
  - { offset: 0xA3B56, size: 0x8, addend: 0x0, symName: '-[RNGestureHandlerButton init]', symObjAddr: 0x0, symBinAddr: 0x7A18, symSize: 0x98 }
  - { offset: 0xA3B8D, size: 0x8, addend: 0x0, symName: '-[RNGestureHandlerButton shouldHandleTouch:]', symObjAddr: 0x98, symBinAddr: 0x7AB0, symSize: 0x118 }
  - { offset: 0xA3C5F, size: 0x8, addend: 0x0, symName: '-[RNGestureHandlerButton pointInside:withEvent:]', symObjAddr: 0x1B0, symBinAddr: 0x7BC8, symSize: 0x120 }
  - { offset: 0xA3D31, size: 0x8, addend: 0x0, symName: '-[RNGestureHandlerButton hitTest:withEvent:]', symObjAddr: 0x2D0, symBinAddr: 0x7CE8, symSize: 0x94 }
  - { offset: 0xA3D94, size: 0x8, addend: 0x0, symName: '-[RNGestureHandlerButton setBorderRadius:]', symObjAddr: 0x364, symBinAddr: 0x7D7C, symSize: 0x70 }
  - { offset: 0xA3DD7, size: 0x8, addend: 0x0, symName: '-[RNGestureHandlerButton displayLayer:]', symObjAddr: 0x3D4, symBinAddr: 0x7DEC, symSize: 0xB8 }
  - { offset: 0xA3E7A, size: 0x8, addend: 0x0, symName: '-[RNGestureHandlerButton accessibilityLabel]', symObjAddr: 0x48C, symBinAddr: 0x7EA4, symSize: 0x6C }
  - { offset: 0xA3ED7, size: 0x8, addend: 0x0, symName: __ZL31RNGHRecursiveAccessibilityLabelP6UIView, symObjAddr: 0x4F8, symBinAddr: 0x7F10, symSize: 0x1CC }
  - { offset: 0xA3F5A, size: 0x8, addend: 0x0, symName: '-[RNGestureHandlerButton hitTestEdgeInsets]', symObjAddr: 0x6C4, symBinAddr: 0x80DC, symSize: 0x18 }
  - { offset: 0xA3F8F, size: 0x8, addend: 0x0, symName: '-[RNGestureHandlerButton setHitTestEdgeInsets:]', symObjAddr: 0x6DC, symBinAddr: 0x80F4, symSize: 0x18 }
  - { offset: 0xA3FCE, size: 0x8, addend: 0x0, symName: '-[RNGestureHandlerButton borderRadius]', symObjAddr: 0x6F4, symBinAddr: 0x810C, symSize: 0x10 }
  - { offset: 0xA4003, size: 0x8, addend: 0x0, symName: '-[RNGestureHandlerButton userEnabled]', symObjAddr: 0x704, symBinAddr: 0x811C, symSize: 0x10 }
  - { offset: 0xA403A, size: 0x8, addend: 0x0, symName: '-[RNGestureHandlerButton setUserEnabled:]', symObjAddr: 0x714, symBinAddr: 0x812C, symSize: 0x10 }
  - { offset: 0xA4100, size: 0x8, addend: 0x0, symName: __GLOBAL__sub_I_RNGestureHandlerButton.mm, symObjAddr: 0x814, symBinAddr: 0x813C, symSize: 0x20 }
  - { offset: 0xA60EE, size: 0x8, addend: 0x0, symName: __ZN8facebook5react17HostPlatformColorL14UndefinedColorE, symObjAddr: 0x172408, symBinAddr: 0x2D408, symSize: 0x0 }
  - { offset: 0xAC327, size: 0x8, addend: 0x0, symName: __ZN8facebook5reacteqERKNS0_18AccessibilityStateES3_, symObjAddr: 0xF18, symBinAddr: 0x9074, symSize: 0x78 }
  - { offset: 0xAC3D0, size: 0x8, addend: 0x0, symName: __ZN8facebook5reacteqERKNS0_18AccessibilityValueES3_, symObjAddr: 0xF90, symBinAddr: 0x90EC, symSize: 0x80 }
  - { offset: 0xAC412, size: 0x8, addend: 0x0, symName: __ZN8facebook5reacteqERKNS0_18AccessibilityValueES3_, symObjAddr: 0xF90, symBinAddr: 0x90EC, symSize: 0x80 }
  - { offset: 0xAC559, size: 0x8, addend: 0x0, symName: __ZN8facebook5react38concreteComponentDescriptorConstructorINS0_27ConcreteComponentDescriptorINS0_22ConcreteViewShadowNodeIXadL_ZNS0_35RNGestureHandlerButtonComponentNameEEENS0_27RNGestureHandlerButtonPropsENS0_34RNGestureHandlerButtonEventEmitterENS0_9StateDataEEEEEEENSt3__110unique_ptrIKNS0_19ComponentDescriptorENS9_14default_deleteISC_EEEERKNS0_29ComponentDescriptorParametersE, symObjAddr: 0x21AC, symBinAddr: 0xA2B0, symSize: 0x34 }
  - { offset: 0xE2C57, size: 0x8, addend: 0x0, symName: __ZNSt3__115allocate_sharedB8ne200100IKN8facebook5react27RNGestureHandlerButtonPropsENS_9allocatorIS3_EEJELi0EEENS_10shared_ptrIT_EERKT0_DpOT1_, symObjAddr: 0x1098, symBinAddr: 0x91F4, symSize: 0x48 }
  - { offset: 0xE33A1, size: 0x8, addend: 0x0, symName: __ZNSt3__1eqB8ne200100INS_12basic_stringIcNS_11char_traitsIcEENS_9allocatorIcEEEES6_EENS_9enable_ifIX16is_convertible_vIDTeqclsr3stdE7declvalIRKT_EEclsr3stdE7declvalIRKT0_EEEbEEbE4typeERKNS_8optionalIS8_EERKNSH_ISB_EE, symObjAddr: 0x1010, symBinAddr: 0x916C, symSize: 0x88 }
  - { offset: 0xE33E6, size: 0x8, addend: 0x0, symName: __ZNSt3__1eqB8ne200100INS_12basic_stringIcNS_11char_traitsIcEENS_9allocatorIcEEEES6_EENS_9enable_ifIX16is_convertible_vIDTeqclsr3stdE7declvalIRKT_EEclsr3stdE7declvalIRKT0_EEEbEEbE4typeERKNS_8optionalIS8_EERKNSH_ISB_EE, symObjAddr: 0x1010, symBinAddr: 0x916C, symSize: 0x88 }
  - { offset: 0xE3404, size: 0x8, addend: 0x0, symName: __ZNSt3__1eqB8ne200100INS_12basic_stringIcNS_11char_traitsIcEENS_9allocatorIcEEEES6_EENS_9enable_ifIX16is_convertible_vIDTeqclsr3stdE7declvalIRKT_EEclsr3stdE7declvalIRKT0_EEEbEEbE4typeERKNS_8optionalIS8_EERKNSH_ISB_EE, symObjAddr: 0x1010, symBinAddr: 0x916C, symSize: 0x88 }
  - { offset: 0xE3A7E, size: 0x8, addend: 0x0, symName: __ZNSt3__112__destroy_atB8ne200100IN8facebook5react27RNGestureHandlerButtonPropsELi0EEEvPT_, symObjAddr: 0x2108, symBinAddr: 0xA264, symSize: 0x4C }
  - { offset: 0xE43C6, size: 0x8, addend: 0x0, symName: __ZNSt3__112__destroy_atB8ne200100IN8facebook5react19AccessibilityActionELi0EEEvPT_, symObjAddr: 0x1E64, symBinAddr: 0x9FC0, symSize: 0x50 }
  - { offset: 0xE4AD9, size: 0x8, addend: 0x0, symName: __ZNSt3__120__throw_length_errorB8ne200100EPKc, symObjAddr: 0x203C, symBinAddr: 0xA198, symSize: 0x50 }
  - { offset: 0xE4B1A, size: 0x8, addend: 0x0, symName: __ZNSt3__111make_uniqueB8ne200100IKN8facebook5react27ConcreteComponentDescriptorINS2_22ConcreteViewShadowNodeIXadL_ZNS2_35RNGestureHandlerButtonComponentNameEEENS2_27RNGestureHandlerButtonPropsENS2_34RNGestureHandlerButtonEventEmitterENS2_9StateDataEEEEEJRKNS2_29ComponentDescriptorParametersEELi0EEENS_10unique_ptrIT_NS_14default_deleteISF_EEEEDpOT0_, symObjAddr: 0x21E0, symBinAddr: 0xA2E4, symSize: 0xD4 }
  - { offset: 0xE5531, size: 0x8, addend: 0x0, symName: __ZNSt3__115allocate_sharedB8ne200100IN8facebook5react22ConcreteViewShadowNodeIXadL_ZNS2_35RNGestureHandlerButtonComponentNameEEENS2_27RNGestureHandlerButtonPropsENS2_34RNGestureHandlerButtonEventEmitterENS2_9StateDataEEENS_9allocatorIS7_EEJRKNS2_18ShadowNodeFragmentERKNS_10shared_ptrIKNS2_16ShadowNodeFamilyEEENS2_16ShadowNodeTraitsEELi0EEENSD_IT_EERKT0_DpOT1_, symObjAddr: 0x2DE4, symBinAddr: 0xAE30, symSize: 0x70 }
  - { offset: 0xE5870, size: 0x8, addend: 0x0, symName: __ZNSt3__115allocate_sharedB8ne200100IN8facebook5react22ConcreteViewShadowNodeIXadL_ZNS2_35RNGestureHandlerButtonComponentNameEEENS2_27RNGestureHandlerButtonPropsENS2_34RNGestureHandlerButtonEventEmitterENS2_9StateDataEEENS_9allocatorIS7_EEJRKNS2_10ShadowNodeERKNS2_18ShadowNodeFragmentEELi0EEENS_10shared_ptrIT_EERKT0_DpOT1_, symObjAddr: 0x33A0, symBinAddr: 0xB1DC, symSize: 0x60 }
  - { offset: 0xE62A1, size: 0x8, addend: 0x0, symName: __ZNSt3__115allocate_sharedB8ne200100IN8facebook5react11EventTargetENS_9allocatorIS3_EEJRKNS_10shared_ptrIKNS2_14InstanceHandleEEERKiELi0EEENS6_IT_EERKT0_DpOT1_, symObjAddr: 0x3C48, symBinAddr: 0xB888, symSize: 0x60 }
  - { offset: 0xE6567, size: 0x8, addend: 0x0, symName: __ZNSt3__115allocate_sharedB8ne200100IKN8facebook5react34RNGestureHandlerButtonEventEmitterENS_9allocatorIS3_EEJNS_10shared_ptrINS2_11EventTargetEEERKNS_8weak_ptrIKNS2_15EventDispatcherEEEELi0EEENS7_IT_EERKT0_DpOT1_, symObjAddr: 0x37E0, symBinAddr: 0xB4D0, symSize: 0x60 }
  - { offset: 0xE682D, size: 0x8, addend: 0x0, symName: __ZNSt3__115allocate_sharedB8ne200100IN8facebook5react16ShadowNodeFamilyENS_9allocatorIS3_EEJRKNS2_24ShadowNodeFamilyFragmentERNS_10shared_ptrIKNS2_34RNGestureHandlerButtonEventEmitterEEERKNS_8weak_ptrIKNS2_15EventDispatcherEEERKNS2_27ConcreteComponentDescriptorINS2_22ConcreteViewShadowNodeIXadL_ZNS2_35RNGestureHandlerButtonComponentNameEEENS2_27RNGestureHandlerButtonPropsESA_NS2_9StateDataEEEEEELi0EEENS9_IT_EERKT0_DpOT1_, symObjAddr: 0x3EAC, symBinAddr: 0xBA3C, symSize: 0x78 }
  - { offset: 0xE6C8D, size: 0x8, addend: 0x0, symName: __ZNSt3__112__destroy_atB8ne200100INS_4pairIKNS_12basic_stringIcNS_11char_traitsIcEENS_9allocatorIcEEEENS_10shared_ptrIvEEEELi0EEEvPT_, symObjAddr: 0x2BA0, symBinAddr: 0xACA4, symSize: 0x3C }
  - { offset: 0xE77DC, size: 0x8, addend: 0x0, symName: __ZNSt3__115allocate_sharedB8ne200100IN8facebook5react27RNGestureHandlerButtonPropsENS_9allocatorIS3_EEJRKNS2_18PropsParserContextERKS3_RKNS2_8RawPropsEELi0EEENS_10shared_ptrIT_EERKT0_DpOT1_, symObjAddr: 0x35B0, symBinAddr: 0xB394, symSize: 0x70 }
  - { offset: 0xE8393, size: 0x8, addend: 0x0, symName: __ZNSt3__112construct_atB8ne200100IN8facebook5react34RNGestureHandlerButtonEventEmitterEJNS_10shared_ptrINS2_11EventTargetEEERKNS_8weak_ptrIKNS2_15EventDispatcherEEEEPS3_EEPT_SF_DpOT0_, symObjAddr: 0x38D4, symBinAddr: 0xB5C4, symSize: 0x140 }
  - { offset: 0xE9393, size: 0x8, addend: 0x0, symName: __ZNSt3__112construct_atB8ne200100IN8facebook5react11EventTargetEJRKNS_10shared_ptrIKNS2_14InstanceHandleEEERKiEPS3_EEPT_SE_DpOT0_, symObjAddr: 0x3D58, symBinAddr: 0xB998, symSize: 0xA4 }
  - { offset: 0xE9A95, size: 0x8, addend: 0x0, symName: __ZNSt3__112construct_atB8ne200100IN8facebook5react16ShadowNodeFamilyEJRKNS2_24ShadowNodeFamilyFragmentERNS_10shared_ptrIKNS2_34RNGestureHandlerButtonEventEmitterEEERKNS_8weak_ptrIKNS2_15EventDispatcherEEERKNS2_27ConcreteComponentDescriptorINS2_22ConcreteViewShadowNodeIXadL_ZNS2_35RNGestureHandlerButtonComponentNameEEENS2_27RNGestureHandlerButtonPropsES8_NS2_9StateDataEEEEEEPS3_EEPT_SS_DpOT0_, symObjAddr: 0x3FB4, symBinAddr: 0xBB44, symSize: 0xDC }
  - { offset: 0xEB5A5, size: 0x8, addend: 0x0, symName: '-[RNGestureHandlerButtonComponentView initWithFrame:]', symObjAddr: 0x34, symBinAddr: 0x8190, symSize: 0x12C }
  - { offset: 0xEB5CF, size: 0x8, addend: 0x0, symName: '__ZZ53-[RNGestureHandlerButtonComponentView initWithFrame:]E12defaultProps', symObjAddr: 0x172420, symBinAddr: 0x2D420, symSize: 0x0 }
  - { offset: 0xEE866, size: 0x8, addend: 0x0, symName: __ZN5folly6detail16throw_exception_INS_9TypeErrorEJPKcNS_7dynamic4TypeEEEEvDpT0_, symObjAddr: 0x36B0, symBinAddr: 0x176F8, symSize: 0x68 }
  - { offset: 0xEFA09, size: 0x8, addend: 0x0, symName: __ZN5folly15throw_exceptionINS_9TypeErrorEEEvOT_, symObjAddr: 0x3718, symBinAddr: 0x17760, symSize: 0x34 }
  - { offset: 0xF3642, size: 0x8, addend: 0x0, symName: __ZN8facebook5react18ConcreteShadowNodeIXadL_ZNS0_35RNGestureHandlerButtonComponentNameEEENS0_24YogaLayoutableShadowNodeENS0_27RNGestureHandlerButtonPropsENS0_34RNGestureHandlerButtonEventEmitterENS0_9StateDataEE18defaultSharedPropsEv, symObjAddr: 0x34BC, symBinAddr: 0xB2A0, symSize: 0x9C }
  - { offset: 0xF3662, size: 0x8, addend: 0x0, symName: __ZZN8facebook5react18ConcreteShadowNodeIXadL_ZNS0_35RNGestureHandlerButtonComponentNameEEENS0_24YogaLayoutableShadowNodeENS0_27RNGestureHandlerButtonPropsENS0_34RNGestureHandlerButtonEventEmitterENS0_9StateDataEE18defaultSharedPropsEvE18defaultSharedProps, symObjAddr: 0x5050, symBinAddr: 0x2CEC8, symSize: 0x0 }
  - { offset: 0xF3A5B, size: 0x8, addend: 0x0, symName: '+[RNGestureHandlerButtonComponentView load]', symObjAddr: 0x0, symBinAddr: 0x815C, symSize: 0x34 }
  - { offset: 0xF3A8E, size: 0x8, addend: 0x0, symName: __ZNSt3__110shared_ptrIKN8facebook5react13BaseViewPropsEEaSB8ne200100IKNS2_27RNGestureHandlerButtonPropsELi0EEERS5_RKNS0_IT_EE, symObjAddr: 0x164, symBinAddr: 0x82C0, symSize: 0x78 }
  - { offset: 0xF3C69, size: 0x8, addend: 0x0, symName: __ZNSt3__110shared_ptrIKN8facebook5react27RNGestureHandlerButtonPropsEED1B8ne200100Ev, symObjAddr: 0x160, symBinAddr: 0x82BC, symSize: 0x4 }
  - { offset: 0xF3C8D, size: 0x8, addend: 0x0, symName: __ZNSt3__110shared_ptrIKN8facebook5react27RNGestureHandlerButtonPropsEED1B8ne200100Ev, symObjAddr: 0x160, symBinAddr: 0x82BC, symSize: 0x4 }
  - { offset: 0xF3E2F, size: 0x8, addend: 0x0, symName: '-[RNGestureHandlerButtonComponentView mountChildComponentView:index:]', symObjAddr: 0x1DC, symBinAddr: 0x8338, symSize: 0x10 }
  - { offset: 0xF3E7E, size: 0x8, addend: 0x0, symName: '-[RNGestureHandlerButtonComponentView unmountChildComponentView:index:]', symObjAddr: 0x1EC, symBinAddr: 0x8348, symSize: 0x10 }
  - { offset: 0xF3ECD, size: 0x8, addend: 0x0, symName: '-[RNGestureHandlerButtonComponentView buildWrapperMetrics:]', symObjAddr: 0x1FC, symBinAddr: 0x8358, symSize: 0x40 }
  - { offset: 0xF3F1D, size: 0x8, addend: 0x0, symName: '-[RNGestureHandlerButtonComponentView buildButtonMetrics:]', symObjAddr: 0x23C, symBinAddr: 0x8398, symSize: 0x38 }
  - { offset: 0xF3F6D, size: 0x8, addend: 0x0, symName: '-[RNGestureHandlerButtonComponentView updateLayoutMetrics:oldLayoutMetrics:]', symObjAddr: 0x274, symBinAddr: 0x83D0, symSize: 0xA8 }
  - { offset: 0xF409B, size: 0x8, addend: 0x0, symName: '+[RNGestureHandlerButtonComponentView componentDescriptorProvider]', symObjAddr: 0x31C, symBinAddr: 0x8478, symSize: 0x20 }
  - { offset: 0xF40D1, size: 0x8, addend: 0x0, symName: '+[RNGestureHandlerButtonComponentView componentDescriptorProvider]', symObjAddr: 0x31C, symBinAddr: 0x8478, symSize: 0x20 }
  - { offset: 0xF440E, size: 0x8, addend: 0x0, symName: '-[RNGestureHandlerButtonComponentView setAccessibilityProps:oldProps:]', symObjAddr: 0x33C, symBinAddr: 0x8498, symSize: 0xABC }
  - { offset: 0xF5845, size: 0x8, addend: 0x0, symName: '-[RNGestureHandlerButtonComponentView updateProps:oldProps:]', symObjAddr: 0xDF8, symBinAddr: 0x8F54, symSize: 0x100 }
  - { offset: 0xF5A11, size: 0x8, addend: 0x0, symName: '-[RNGestureHandlerButtonComponentView .cxx_destruct]', symObjAddr: 0xEF8, symBinAddr: 0x9054, symSize: 0x14 }
  - { offset: 0xF5A44, size: 0x8, addend: 0x0, symName: __Z25RNGestureHandlerButtonClsv, symObjAddr: 0xF0C, symBinAddr: 0x9068, symSize: 0xC }
  - { offset: 0xF5D10, size: 0x8, addend: 0x0, symName: __ZNSt3__120__shared_ptr_emplaceIKN8facebook5react27RNGestureHandlerButtonPropsENS_9allocatorIS3_EEEC2B8ne200100IJES6_Li0EEES6_DpOT_, symObjAddr: 0x10E0, symBinAddr: 0x923C, symSize: 0x58 }
  - { offset: 0xF5E9E, size: 0x8, addend: 0x0, symName: __ZN8facebook5react27RNGestureHandlerButtonPropsC1Ev, symObjAddr: 0x117C, symBinAddr: 0x92D8, symSize: 0x110 }
  - { offset: 0xF61F7, size: 0x8, addend: 0x0, symName: __ZNSt3__120__shared_ptr_emplaceIKN8facebook5react27RNGestureHandlerButtonPropsENS_9allocatorIS3_EEED1Ev, symObjAddr: 0x1138, symBinAddr: 0x9294, symSize: 0x14 }
  - { offset: 0xF621B, size: 0x8, addend: 0x0, symName: __ZNSt3__120__shared_ptr_emplaceIKN8facebook5react27RNGestureHandlerButtonPropsENS_9allocatorIS3_EEED1Ev, symObjAddr: 0x1138, symBinAddr: 0x9294, symSize: 0x14 }
  - { offset: 0xF6252, size: 0x8, addend: 0x0, symName: __ZNSt3__120__shared_ptr_emplaceIKN8facebook5react27RNGestureHandlerButtonPropsENS_9allocatorIS3_EEED0Ev, symObjAddr: 0x114C, symBinAddr: 0x92A8, symSize: 0x24 }
  - { offset: 0xF6328, size: 0x8, addend: 0x0, symName: __ZNSt3__120__shared_ptr_emplaceIKN8facebook5react27RNGestureHandlerButtonPropsENS_9allocatorIS3_EEE16__on_zero_sharedEv, symObjAddr: 0x1170, symBinAddr: 0x92CC, symSize: 0x8 }
  - { offset: 0xF6352, size: 0x8, addend: 0x0, symName: __ZNSt3__120__shared_ptr_emplaceIKN8facebook5react27RNGestureHandlerButtonPropsENS_9allocatorIS3_EEE16__on_zero_sharedEv, symObjAddr: 0x1170, symBinAddr: 0x92CC, symSize: 0x8 }
  - { offset: 0xF6371, size: 0x8, addend: 0x0, symName: __ZNSt3__120__shared_ptr_emplaceIKN8facebook5react27RNGestureHandlerButtonPropsENS_9allocatorIS3_EEE16__on_zero_sharedEv, symObjAddr: 0x1170, symBinAddr: 0x92CC, symSize: 0x8 }
  - { offset: 0xF63B0, size: 0x8, addend: 0x0, symName: __ZNSt3__120__shared_ptr_emplaceIKN8facebook5react27RNGestureHandlerButtonPropsENS_9allocatorIS3_EEE21__on_zero_shared_weakEv, symObjAddr: 0x1178, symBinAddr: 0x92D4, symSize: 0x4 }
  - { offset: 0xF63E4, size: 0x8, addend: 0x0, symName: __ZNSt3__120__shared_ptr_emplaceIKN8facebook5react27RNGestureHandlerButtonPropsENS_9allocatorIS3_EEE21__on_zero_shared_weakEv, symObjAddr: 0x1178, symBinAddr: 0x92D4, symSize: 0x4 }
  - { offset: 0xF6408, size: 0x8, addend: 0x0, symName: __ZNSt3__120__shared_ptr_emplaceIKN8facebook5react27RNGestureHandlerButtonPropsENS_9allocatorIS3_EEE21__on_zero_shared_weakEv, symObjAddr: 0x1178, symBinAddr: 0x92D4, symSize: 0x4 }
  - { offset: 0xF642D, size: 0x8, addend: 0x0, symName: __ZNSt3__120__shared_ptr_emplaceIKN8facebook5react27RNGestureHandlerButtonPropsENS_9allocatorIS3_EEE21__on_zero_shared_weakEv, symObjAddr: 0x1178, symBinAddr: 0x92D4, symSize: 0x4 }
  - { offset: 0xF6465, size: 0x8, addend: 0x0, symName: __ZNSt3__120__shared_ptr_emplaceIKN8facebook5react27RNGestureHandlerButtonPropsENS_9allocatorIS3_EEE21__on_zero_shared_weakEv, symObjAddr: 0x1178, symBinAddr: 0x92D4, symSize: 0x4 }
  - { offset: 0xF661A, size: 0x8, addend: 0x0, symName: __ZN8facebook5react13BaseViewPropsC2Ev, symObjAddr: 0x128C, symBinAddr: 0x93E8, symSize: 0x2E4 }
  - { offset: 0xF8E4A, size: 0x8, addend: 0x0, symName: __ZNSt3__112basic_stringIcNS_11char_traitsIcEENS_9allocatorIcEEEC2B8ne200100ILi0EEEPKc, symObjAddr: 0x1F84, symBinAddr: 0xA0E0, symSize: 0xA4 }
  - { offset: 0xF90D0, size: 0x8, addend: 0x0, symName: __ZNSt3__112basic_stringIcNS_11char_traitsIcEENS_9allocatorIcEEE20__throw_length_errorB8ne200100Ev, symObjAddr: 0x2028, symBinAddr: 0xA184, symSize: 0x14 }
  - { offset: 0xF90E2, size: 0x8, addend: 0x0, symName: __ZNSt3__110shared_ptrIvED2B8ne200100Ev, symObjAddr: 0x20B0, symBinAddr: 0xA20C, symSize: 0x58 }
  - { offset: 0xF9174, size: 0x8, addend: 0x0, symName: __ZN8facebook5react13BaseViewPropsD2Ev, symObjAddr: 0x1570, symBinAddr: 0x96CC, symSize: 0xD0 }
  - { offset: 0xFA1AB, size: 0x8, addend: 0x0, symName: __ZN8facebook5react17YogaStylablePropsC2Ev, symObjAddr: 0x1844, symBinAddr: 0x99A0, symSize: 0xF0 }
  - { offset: 0xFA1E3, size: 0x8, addend: 0x0, symName: __ZN8facebook5react17YogaStylablePropsC2Ev, symObjAddr: 0x1844, symBinAddr: 0x99A0, symSize: 0xF0 }
  - { offset: 0xFB14E, size: 0x8, addend: 0x0, symName: __ZNSt3__16vectorINS_7variantIJN8facebook5react14LinearGradientENS3_14RadialGradientEEEENS_9allocatorIS6_EEE16__destroy_vectorclB8ne200100Ev, symObjAddr: 0x1A18, symBinAddr: 0x9B74, symSize: 0x70 }
  - { offset: 0xFB415, size: 0x8, addend: 0x0, symName: __ZNSt3__16vectorIN8facebook5react14FilterFunctionENS_9allocatorIS3_EEE16__destroy_vectorclB8ne200100Ev, symObjAddr: 0x1B9C, symBinAddr: 0x9CF8, symSize: 0x74 }
  - { offset: 0xFB72E, size: 0x8, addend: 0x0, symName: __ZNSt3__16vectorIN8facebook5react9BoxShadowENS_9allocatorIS3_EEE16__destroy_vectorclB8ne200100Ev, symObjAddr: 0x1C70, symBinAddr: 0x9DCC, symSize: 0x74 }
  - { offset: 0xFB973, size: 0x8, addend: 0x0, symName: __ZN8facebook5react22CascadedRectangleEdgesINS0_11SharedColorEED2Ev, symObjAddr: 0x1CE4, symBinAddr: 0x9E40, symSize: 0x110 }
  - { offset: 0xFC987, size: 0x8, addend: 0x0, symName: __ZN8facebook5react18AccessibilityPropsD2Ev, symObjAddr: 0x1934, symBinAddr: 0x9A90, symSize: 0xD4 }
  - { offset: 0xFD501, size: 0x8, addend: 0x0, symName: __ZNKSt3__114default_deleteIN8facebook4yoga16SmallValueBufferILm4EE8OverflowEEclB8ne200100EPS5_, symObjAddr: 0x1F40, symBinAddr: 0xA09C, symSize: 0x44 }
  - { offset: 0xFD789, size: 0x8, addend: 0x0, symName: __ZN8facebook5react13BaseViewPropsD1Ev, symObjAddr: 0x1640, symBinAddr: 0x979C, symSize: 0xC }
  - { offset: 0xFD7E2, size: 0x8, addend: 0x0, symName: __ZN8facebook5react13BaseViewPropsD0Ev, symObjAddr: 0x164C, symBinAddr: 0x97A8, symSize: 0x1C }
  - { offset: 0xFD842, size: 0x8, addend: 0x0, symName: __ZN8facebook5react17YogaStylablePropsD1Ev, symObjAddr: 0x1668, symBinAddr: 0x97C4, symSize: 0x60 }
  - { offset: 0xFDB17, size: 0x8, addend: 0x0, symName: __ZN8facebook5react17YogaStylablePropsD0Ev, symObjAddr: 0x16C8, symBinAddr: 0x9824, symSize: 0x60 }
  - { offset: 0xFDDF8, size: 0x8, addend: 0x0, symName: __ZN8facebook5react5PropsD1Ev, symObjAddr: 0x1728, symBinAddr: 0x9884, symSize: 0x40 }
  - { offset: 0xFDF6C, size: 0x8, addend: 0x0, symName: __ZN8facebook5react5PropsD0Ev, symObjAddr: 0x1768, symBinAddr: 0x98C4, symSize: 0x40 }
  - { offset: 0xFE112, size: 0x8, addend: 0x0, symName: __ZN8facebook5react27RNGestureHandlerButtonPropsD1Ev, symObjAddr: 0x17A8, symBinAddr: 0x9904, symSize: 0x4C }
  - { offset: 0xFE3A6, size: 0x8, addend: 0x0, symName: __ZN8facebook5react27RNGestureHandlerButtonPropsD0Ev, symObjAddr: 0x17F4, symBinAddr: 0x9950, symSize: 0x50 }
  - { offset: 0xFEA89, size: 0x8, addend: 0x0, symName: __ZNSt3__16vectorIN8facebook5react19AccessibilityActionENS_9allocatorIS3_EEE16__destroy_vectorclB8ne200100Ev, symObjAddr: 0x1DF4, symBinAddr: 0x9F50, symSize: 0x70 }
  - { offset: 0xFEBDC, size: 0x8, addend: 0x0, symName: __ZNSt3__16vectorINS_12basic_stringIcNS_11char_traitsIcEENS_9allocatorIcEEEENS4_IS6_EEE16__destroy_vectorclB8ne200100Ev, symObjAddr: 0x1EB4, symBinAddr: 0xA010, symSize: 0x40 }
  - { offset: 0xFEEF4, size: 0x8, addend: 0x0, symName: __ZNSt3__116__variant_detail6__dtorINS0_8__traitsIJN8facebook5react14LinearGradientENS4_14RadialGradientEEEELNS0_6_TraitE1EE9__destroyB8ne200100Ev, symObjAddr: 0x1A88, symBinAddr: 0x9BE4, symSize: 0x54 }
  - { offset: 0xFF2AC, size: 0x8, addend: 0x0, symName: __ZNSt3__116__variant_detail12__visitation6__base12__dispatcherIJLm0EEE10__dispatchB8ne200100IOZNS0_6__dtorINS0_8__traitsIJN8facebook5react14LinearGradientENS9_14RadialGradientEEEELNS0_6_TraitE1EE9__destroyB8ne200100EvEUlRT_E_JRNS0_6__baseILSD_1EJSA_SB_EEEEEEDcSF_DpT0_, symObjAddr: 0x1ADC, symBinAddr: 0x9C38, symSize: 0x28 }
  - { offset: 0xFF457, size: 0x8, addend: 0x0, symName: __ZNSt3__16vectorIN8facebook5react9ColorStopENS_9allocatorIS3_EEE16__destroy_vectorclB8ne200100Ev, symObjAddr: 0x1B2C, symBinAddr: 0x9C88, symSize: 0x70 }
  - { offset: 0xFF751, size: 0x8, addend: 0x0, symName: __ZNSt3__116__variant_detail12__visitation6__base12__dispatcherIJLm1EEE10__dispatchB8ne200100IOZNS0_6__dtorINS0_8__traitsIJN8facebook5react14LinearGradientENS9_14RadialGradientEEEELNS0_6_TraitE1EE9__destroyB8ne200100EvEUlRT_E_JRNS0_6__baseILSD_1EJSA_SB_EEEEEEDcSF_DpT0_, symObjAddr: 0x1B04, symBinAddr: 0x9C60, symSize: 0x28 }
  - { offset: 0xFFCE3, size: 0x8, addend: 0x0, symName: __ZNSt3__116__variant_detail6__dtorINS0_8__traitsIJdN8facebook5react16DropShadowParamsEEEELNS0_6_TraitE1EE9__destroyB8ne200100Ev, symObjAddr: 0x1C10, symBinAddr: 0x9D6C, symSize: 0x54 }
  - { offset: 0xFFF25, size: 0x8, addend: 0x0, symName: __ZNSt3__116__variant_detail12__visitation6__base12__dispatcherIJLm0EEE10__dispatchB8ne200100IOZNS0_6__dtorINS0_8__traitsIJdN8facebook5react16DropShadowParamsEEEELNS0_6_TraitE1EE9__destroyB8ne200100EvEUlRT_E_JRNS0_6__baseILSC_1EJdSA_EEEEEEDcSE_DpT0_, symObjAddr: 0x1C64, symBinAddr: 0x9DC0, symSize: 0x4 }
  - { offset: 0x10003B, size: 0x8, addend: 0x0, symName: __ZNSt3__116__variant_detail12__visitation6__base12__dispatcherIJLm1EEE10__dispatchB8ne200100IOZNS0_6__dtorINS0_8__traitsIJdN8facebook5react16DropShadowParamsEEEELNS0_6_TraitE1EE9__destroyB8ne200100EvEUlRT_E_JRNS0_6__baseILSC_1EJdSA_EEEEEEDcSE_DpT0_, symObjAddr: 0x1C68, symBinAddr: 0x9DC4, symSize: 0x8 }
  - { offset: 0x100073, size: 0x8, addend: 0x0, symName: __ZNSt3__116__variant_detail12__visitation6__base12__dispatcherIJLm1EEE10__dispatchB8ne200100IOZNS0_6__dtorINS0_8__traitsIJdN8facebook5react16DropShadowParamsEEEELNS0_6_TraitE1EE9__destroyB8ne200100EvEUlRT_E_JRNS0_6__baseILSC_1EJdSA_EEEEEEDcSE_DpT0_, symObjAddr: 0x1C68, symBinAddr: 0x9DC4, symSize: 0x8 }
  - { offset: 0x10009B, size: 0x8, addend: 0x0, symName: __ZNSt3__116__variant_detail12__visitation6__base12__dispatcherIJLm1EEE10__dispatchB8ne200100IOZNS0_6__dtorINS0_8__traitsIJdN8facebook5react16DropShadowParamsEEEELNS0_6_TraitE1EE9__destroyB8ne200100EvEUlRT_E_JRNS0_6__baseILSC_1EJdSA_EEEEEEDcSE_DpT0_, symObjAddr: 0x1C68, symBinAddr: 0x9DC4, symSize: 0x8 }
  - { offset: 0x1000C3, size: 0x8, addend: 0x0, symName: __ZNSt3__116__variant_detail12__visitation6__base12__dispatcherIJLm1EEE10__dispatchB8ne200100IOZNS0_6__dtorINS0_8__traitsIJdN8facebook5react16DropShadowParamsEEEELNS0_6_TraitE1EE9__destroyB8ne200100EvEUlRT_E_JRNS0_6__baseILSC_1EJdSA_EEEEEEDcSE_DpT0_, symObjAddr: 0x1C68, symBinAddr: 0x9DC4, symSize: 0x8 }
  - { offset: 0x1000E1, size: 0x8, addend: 0x0, symName: __ZNSt3__116__variant_detail12__visitation6__base12__dispatcherIJLm1EEE10__dispatchB8ne200100IOZNS0_6__dtorINS0_8__traitsIJdN8facebook5react16DropShadowParamsEEEELNS0_6_TraitE1EE9__destroyB8ne200100EvEUlRT_E_JRNS0_6__baseILSC_1EJdSA_EEEEEEDcSE_DpT0_, symObjAddr: 0x1C68, symBinAddr: 0x9DC4, symSize: 0x8 }
  - { offset: 0x1000FF, size: 0x8, addend: 0x0, symName: __ZNSt3__116__variant_detail12__visitation6__base12__dispatcherIJLm1EEE10__dispatchB8ne200100IOZNS0_6__dtorINS0_8__traitsIJdN8facebook5react16DropShadowParamsEEEELNS0_6_TraitE1EE9__destroyB8ne200100EvEUlRT_E_JRNS0_6__baseILSC_1EJdSA_EEEEEEDcSE_DpT0_, symObjAddr: 0x1C68, symBinAddr: 0x9DC4, symSize: 0x8 }
  - { offset: 0x10011D, size: 0x8, addend: 0x0, symName: __ZNSt3__116__variant_detail12__visitation6__base12__dispatcherIJLm1EEE10__dispatchB8ne200100IOZNS0_6__dtorINS0_8__traitsIJdN8facebook5react16DropShadowParamsEEEELNS0_6_TraitE1EE9__destroyB8ne200100EvEUlRT_E_JRNS0_6__baseILSC_1EJdSA_EEEEEEDcSE_DpT0_, symObjAddr: 0x1C68, symBinAddr: 0x9DC4, symSize: 0x8 }
  - { offset: 0x1005A1, size: 0x8, addend: 0x0, symName: __ZNSt3__16vectorINS_12basic_stringIcNS_11char_traitsIcEENS_9allocatorIcEEEENS4_IS6_EEE5clearB8ne200100Ev, symObjAddr: 0x1EF4, symBinAddr: 0xA050, symSize: 0x4C }
  - { offset: 0x100B62, size: 0x8, addend: 0x0, symName: __ZNSt3__112basic_stringIcNS_11char_traitsIcEENS_9allocatorIcEEE20__throw_length_errorB8ne200100Ev, symObjAddr: 0x2028, symBinAddr: 0xA184, symSize: 0x14 }
  - { offset: 0x100B7A, size: 0x8, addend: 0x0, symName: __ZNSt3__120__throw_length_errorB8ne200100EPKc, symObjAddr: 0x203C, symBinAddr: 0xA198, symSize: 0x50 }
  - { offset: 0x100B85, size: 0x8, addend: 0x0, symName: __ZNSt12length_errorC1B8ne200100EPKc, symObjAddr: 0x208C, symBinAddr: 0xA1E8, symSize: 0x24 }
  - { offset: 0x101179, size: 0x8, addend: 0x0, symName: __ZN8facebook5react14RawPropsParser7prepareINS0_27RNGestureHandlerButtonPropsEEEvv, symObjAddr: 0x2304, symBinAddr: 0xA408, symSize: 0x2B0 }
  - { offset: 0x101FB3, size: 0x8, addend: 0x0, symName: __ZN8facebook5react14RawPropsParserD1Ev, symObjAddr: 0x22B4, symBinAddr: 0xA3B8, symSize: 0x50 }
  - { offset: 0x1028EB, size: 0x8, addend: 0x0, symName: __ZNSt3__112__hash_tableINS_17__hash_value_typeINS_12basic_stringIcNS_11char_traitsIcEENS_9allocatorIcEEEENS_10shared_ptrIvEEEENS_22__unordered_map_hasherIS7_SA_NS_4hashIS7_EENS_8equal_toIS7_EELb1EEENS_21__unordered_map_equalIS7_SA_SF_SD_Lb1EEENS5_ISA_EEED2Ev, symObjAddr: 0x2B2C, symBinAddr: 0xAC30, symSize: 0x38 }
  - { offset: 0x102A5C, size: 0x8, addend: 0x0, symName: __ZNSt3__16vectorIN8facebook5react8RawValueENS_9allocatorIS3_EEE16__destroy_vectorclB8ne200100Ev, symObjAddr: 0x2BDC, symBinAddr: 0xACE0, symSize: 0x70 }
  - { offset: 0x102D7B, size: 0x8, addend: 0x0, symName: __ZN8facebook5react27ConcreteComponentDescriptorINS0_22ConcreteViewShadowNodeIXadL_ZNS0_35RNGestureHandlerButtonComponentNameEEENS0_27RNGestureHandlerButtonPropsENS0_34RNGestureHandlerButtonEventEmitterENS0_9StateDataEEEED1Ev, symObjAddr: 0x25B4, symBinAddr: 0xA6B8, symSize: 0x4 }
  - { offset: 0x102D9F, size: 0x8, addend: 0x0, symName: __ZN8facebook5react27ConcreteComponentDescriptorINS0_22ConcreteViewShadowNodeIXadL_ZNS0_35RNGestureHandlerButtonComponentNameEEENS0_27RNGestureHandlerButtonPropsENS0_34RNGestureHandlerButtonEventEmitterENS0_9StateDataEEEED1Ev, symObjAddr: 0x25B4, symBinAddr: 0xA6B8, symSize: 0x4 }
  - { offset: 0x102DBD, size: 0x8, addend: 0x0, symName: __ZN8facebook5react27ConcreteComponentDescriptorINS0_22ConcreteViewShadowNodeIXadL_ZNS0_35RNGestureHandlerButtonComponentNameEEENS0_27RNGestureHandlerButtonPropsENS0_34RNGestureHandlerButtonEventEmitterENS0_9StateDataEEEED1Ev, symObjAddr: 0x25B4, symBinAddr: 0xA6B8, symSize: 0x4 }
  - { offset: 0x102DD1, size: 0x8, addend: 0x0, symName: __ZN8facebook5react19ComponentDescriptorD2Ev, symObjAddr: 0x2CB0, symBinAddr: 0xADB4, symSize: 0x7C }
  - { offset: 0x1032E5, size: 0x8, addend: 0x0, symName: __ZN8facebook5react27ConcreteComponentDescriptorINS0_22ConcreteViewShadowNodeIXadL_ZNS0_35RNGestureHandlerButtonComponentNameEEENS0_27RNGestureHandlerButtonPropsENS0_34RNGestureHandlerButtonEventEmitterENS0_9StateDataEEEED0Ev, symObjAddr: 0x25B8, symBinAddr: 0xA6BC, symSize: 0x14 }
  - { offset: 0x103363, size: 0x8, addend: 0x0, symName: __ZNK8facebook5react27ConcreteComponentDescriptorINS0_22ConcreteViewShadowNodeIXadL_ZNS0_35RNGestureHandlerButtonComponentNameEEENS0_27RNGestureHandlerButtonPropsENS0_34RNGestureHandlerButtonEventEmitterENS0_9StateDataEEEE18getComponentHandleEv, symObjAddr: 0x25CC, symBinAddr: 0xA6D0, symSize: 0xC }
  - { offset: 0x10338A, size: 0x8, addend: 0x0, symName: __ZNK8facebook5react27ConcreteComponentDescriptorINS0_22ConcreteViewShadowNodeIXadL_ZNS0_35RNGestureHandlerButtonComponentNameEEENS0_27RNGestureHandlerButtonPropsENS0_34RNGestureHandlerButtonEventEmitterENS0_9StateDataEEEE16getComponentNameEv, symObjAddr: 0x25D8, symBinAddr: 0xA6DC, symSize: 0xC }
  - { offset: 0x1033B1, size: 0x8, addend: 0x0, symName: __ZNK8facebook5react27ConcreteComponentDescriptorINS0_22ConcreteViewShadowNodeIXadL_ZNS0_35RNGestureHandlerButtonComponentNameEEENS0_27RNGestureHandlerButtonPropsENS0_34RNGestureHandlerButtonEventEmitterENS0_9StateDataEEEE9getTraitsEv, symObjAddr: 0x25E4, symBinAddr: 0xA6E8, symSize: 0x8 }
  - { offset: 0x1034B9, size: 0x8, addend: 0x0, symName: __ZNK8facebook5react27ConcreteComponentDescriptorINS0_22ConcreteViewShadowNodeIXadL_ZNS0_35RNGestureHandlerButtonComponentNameEEENS0_27RNGestureHandlerButtonPropsENS0_34RNGestureHandlerButtonEventEmitterENS0_9StateDataEEEE16createShadowNodeERKNS0_18ShadowNodeFragmentERKNSt3__110shared_ptrIKNS0_16ShadowNodeFamilyEEE, symObjAddr: 0x25EC, symBinAddr: 0xA6F0, symSize: 0x90 }
  - { offset: 0x10375C, size: 0x8, addend: 0x0, symName: __ZNK8facebook5react27ConcreteComponentDescriptorINS0_22ConcreteViewShadowNodeIXadL_ZNS0_35RNGestureHandlerButtonComponentNameEEENS0_27RNGestureHandlerButtonPropsENS0_34RNGestureHandlerButtonEventEmitterENS0_9StateDataEEEE15cloneShadowNodeERKNS0_10ShadowNodeERKNS0_18ShadowNodeFragmentE, symObjAddr: 0x267C, symBinAddr: 0xA780, symSize: 0x104 }
  - { offset: 0x103AFA, size: 0x8, addend: 0x0, symName: __ZNK8facebook5react27ConcreteComponentDescriptorINS0_22ConcreteViewShadowNodeIXadL_ZNS0_35RNGestureHandlerButtonComponentNameEEENS0_27RNGestureHandlerButtonPropsENS0_34RNGestureHandlerButtonEventEmitterENS0_9StateDataEEEE11appendChildERKNSt3__110shared_ptrIKNS0_10ShadowNodeEEESE_, symObjAddr: 0x2780, symBinAddr: 0xA884, symSize: 0x14 }
  - { offset: 0x103B54, size: 0x8, addend: 0x0, symName: __ZNK8facebook5react27ConcreteComponentDescriptorINS0_22ConcreteViewShadowNodeIXadL_ZNS0_35RNGestureHandlerButtonComponentNameEEENS0_27RNGestureHandlerButtonPropsENS0_34RNGestureHandlerButtonEventEmitterENS0_9StateDataEEEE11appendChildERKNSt3__110shared_ptrIKNS0_10ShadowNodeEEESE_, symObjAddr: 0x2780, symBinAddr: 0xA884, symSize: 0x14 }
  - { offset: 0x104432, size: 0x8, addend: 0x0, symName: __ZNK8facebook5react27ConcreteComponentDescriptorINS0_22ConcreteViewShadowNodeIXadL_ZNS0_35RNGestureHandlerButtonComponentNameEEENS0_27RNGestureHandlerButtonPropsENS0_34RNGestureHandlerButtonEventEmitterENS0_9StateDataEEEE10clonePropsERKNS0_18PropsParserContextERKNSt3__110shared_ptrIKNS0_5PropsEEENS0_8RawPropsE, symObjAddr: 0x2794, symBinAddr: 0xA898, symSize: 0x21C }
  - { offset: 0x104FE8, size: 0x8, addend: 0x0, symName: __ZN8facebook5react18ConcreteShadowNodeIXadL_ZNS0_35RNGestureHandlerButtonComponentNameEEENS0_24YogaLayoutableShadowNodeENS0_27RNGestureHandlerButtonPropsENS0_34RNGestureHandlerButtonEventEmitterENS0_9StateDataEE5PropsERKNS0_18PropsParserContextERKNS0_8RawPropsERKNSt3__110shared_ptrIKNS0_5PropsEEE, symObjAddr: 0x3558, symBinAddr: 0xB33C, symSize: 0x58 }
  - { offset: 0x1050EF, size: 0x8, addend: 0x0, symName: __ZNSt3__116__variant_detail6__dtorINS0_8__traitsIJN5folly7dynamicENS_4pairIPN8facebook3jsi7RuntimeENS7_5ValueEEEEEELNS0_6_TraitE1EE9__destroyB8ne200100Ev, symObjAddr: 0x2C4C, symBinAddr: 0xAD50, symSize: 0x54 }
  - { offset: 0x1052C5, size: 0x8, addend: 0x0, symName: __ZNK8facebook5react27ConcreteComponentDescriptorINS0_22ConcreteViewShadowNodeIXadL_ZNS0_35RNGestureHandlerButtonComponentNameEEENS0_27RNGestureHandlerButtonPropsENS0_34RNGestureHandlerButtonEventEmitterENS0_9StateDataEEEE18createInitialStateERKNSt3__110shared_ptrIKNS0_5PropsEEERKNS9_IKNS0_16ShadowNodeFamilyEEE, symObjAddr: 0x29B0, symBinAddr: 0xAAB4, symSize: 0x8 }
  - { offset: 0x105309, size: 0x8, addend: 0x0, symName: __ZNK8facebook5react27ConcreteComponentDescriptorINS0_22ConcreteViewShadowNodeIXadL_ZNS0_35RNGestureHandlerButtonComponentNameEEENS0_27RNGestureHandlerButtonPropsENS0_34RNGestureHandlerButtonEventEmitterENS0_9StateDataEEEE18createInitialStateERKNSt3__110shared_ptrIKNS0_5PropsEEERKNS9_IKNS0_16ShadowNodeFamilyEEE, symObjAddr: 0x29B0, symBinAddr: 0xAAB4, symSize: 0x8 }
  - { offset: 0x10532D, size: 0x8, addend: 0x0, symName: __ZNK8facebook5react27ConcreteComponentDescriptorINS0_22ConcreteViewShadowNodeIXadL_ZNS0_35RNGestureHandlerButtonComponentNameEEENS0_27RNGestureHandlerButtonPropsENS0_34RNGestureHandlerButtonEventEmitterENS0_9StateDataEEEE18createInitialStateERKNSt3__110shared_ptrIKNS0_5PropsEEERKNS9_IKNS0_16ShadowNodeFamilyEEE, symObjAddr: 0x29B0, symBinAddr: 0xAAB4, symSize: 0x8 }
  - { offset: 0x105351, size: 0x8, addend: 0x0, symName: __ZNK8facebook5react27ConcreteComponentDescriptorINS0_22ConcreteViewShadowNodeIXadL_ZNS0_35RNGestureHandlerButtonComponentNameEEENS0_27RNGestureHandlerButtonPropsENS0_34RNGestureHandlerButtonEventEmitterENS0_9StateDataEEEE11createStateERKNS0_16ShadowNodeFamilyERKNSt3__110shared_ptrIKvEE, symObjAddr: 0x29B8, symBinAddr: 0xAABC, symSize: 0x8 }
  - { offset: 0x105395, size: 0x8, addend: 0x0, symName: __ZNK8facebook5react27ConcreteComponentDescriptorINS0_22ConcreteViewShadowNodeIXadL_ZNS0_35RNGestureHandlerButtonComponentNameEEENS0_27RNGestureHandlerButtonPropsENS0_34RNGestureHandlerButtonEventEmitterENS0_9StateDataEEEE11createStateERKNS0_16ShadowNodeFamilyERKNSt3__110shared_ptrIKvEE, symObjAddr: 0x29B8, symBinAddr: 0xAABC, symSize: 0x8 }
  - { offset: 0x1053B9, size: 0x8, addend: 0x0, symName: __ZNK8facebook5react27ConcreteComponentDescriptorINS0_22ConcreteViewShadowNodeIXadL_ZNS0_35RNGestureHandlerButtonComponentNameEEENS0_27RNGestureHandlerButtonPropsENS0_34RNGestureHandlerButtonEventEmitterENS0_9StateDataEEEE11createStateERKNS0_16ShadowNodeFamilyERKNSt3__110shared_ptrIKvEE, symObjAddr: 0x29B8, symBinAddr: 0xAABC, symSize: 0x8 }
  - { offset: 0x105645, size: 0x8, addend: 0x0, symName: __ZNK8facebook5react27ConcreteComponentDescriptorINS0_22ConcreteViewShadowNodeIXadL_ZNS0_35RNGestureHandlerButtonComponentNameEEENS0_27RNGestureHandlerButtonPropsENS0_34RNGestureHandlerButtonEventEmitterENS0_9StateDataEEEE12createFamilyERKNS0_24ShadowNodeFamilyFragmentE, symObjAddr: 0x29C0, symBinAddr: 0xAAC4, symSize: 0x168 }
  - { offset: 0x105BF0, size: 0x8, addend: 0x0, symName: __ZNK8facebook5react27ConcreteComponentDescriptorINS0_22ConcreteViewShadowNodeIXadL_ZNS0_35RNGestureHandlerButtonComponentNameEEENS0_27RNGestureHandlerButtonPropsENS0_34RNGestureHandlerButtonEventEmitterENS0_9StateDataEEEE5adoptERNS0_10ShadowNodeE, symObjAddr: 0x2B28, symBinAddr: 0xAC2C, symSize: 0x4 }
  - { offset: 0x105D17, size: 0x8, addend: 0x0, symName: __ZNSt3__112__hash_tableINS_17__hash_value_typeINS_12basic_stringIcNS_11char_traitsIcEENS_9allocatorIcEEEENS_10shared_ptrIvEEEENS_22__unordered_map_hasherIS7_SA_NS_4hashIS7_EENS_8equal_toIS7_EELb1EEENS_21__unordered_map_equalIS7_SA_SF_SD_Lb1EEENS5_ISA_EEE17__deallocate_nodeEPNS_16__hash_node_baseIPNS_11__hash_nodeISA_PvEEEE, symObjAddr: 0x2B64, symBinAddr: 0xAC68, symSize: 0x3C }
  - { offset: 0x1061EC, size: 0x8, addend: 0x0, symName: __ZNSt3__116__variant_detail12__visitation6__base12__dispatcherIJLm0EEE10__dispatchB8ne200100IOZNS0_6__dtorINS0_8__traitsIJN5folly7dynamicENS_4pairIPN8facebook3jsi7RuntimeENSC_5ValueEEEEEELNS0_6_TraitE1EE9__destroyB8ne200100EvEUlRT_E_JRNS0_6__baseILSI_1EJS9_SG_EEEEEEDcSK_DpT0_, symObjAddr: 0x2CA0, symBinAddr: 0xADA4, symSize: 0x8 }
  - { offset: 0x1063AC, size: 0x8, addend: 0x0, symName: __ZNSt3__116__variant_detail12__visitation6__base12__dispatcherIJLm1EEE10__dispatchB8ne200100IOZNS0_6__dtorINS0_8__traitsIJN5folly7dynamicENS_4pairIPN8facebook3jsi7RuntimeENSC_5ValueEEEEEELNS0_6_TraitE1EE9__destroyB8ne200100EvEUlRT_E_JRNS0_6__baseILSI_1EJS9_SG_EEEEEEDcSK_DpT0_, symObjAddr: 0x2CA8, symBinAddr: 0xADAC, symSize: 0x8 }
  - { offset: 0x1063E4, size: 0x8, addend: 0x0, symName: __ZNSt3__116__variant_detail12__visitation6__base12__dispatcherIJLm1EEE10__dispatchB8ne200100IOZNS0_6__dtorINS0_8__traitsIJN5folly7dynamicENS_4pairIPN8facebook3jsi7RuntimeENSC_5ValueEEEEEELNS0_6_TraitE1EE9__destroyB8ne200100EvEUlRT_E_JRNS0_6__baseILSI_1EJS9_SG_EEEEEEDcSK_DpT0_, symObjAddr: 0x2CA8, symBinAddr: 0xADAC, symSize: 0x8 }
  - { offset: 0x10640C, size: 0x8, addend: 0x0, symName: __ZNSt3__116__variant_detail12__visitation6__base12__dispatcherIJLm1EEE10__dispatchB8ne200100IOZNS0_6__dtorINS0_8__traitsIJN5folly7dynamicENS_4pairIPN8facebook3jsi7RuntimeENSC_5ValueEEEEEELNS0_6_TraitE1EE9__destroyB8ne200100EvEUlRT_E_JRNS0_6__baseILSI_1EJS9_SG_EEEEEEDcSK_DpT0_, symObjAddr: 0x2CA8, symBinAddr: 0xADAC, symSize: 0x8 }
  - { offset: 0x106434, size: 0x8, addend: 0x0, symName: __ZNSt3__116__variant_detail12__visitation6__base12__dispatcherIJLm1EEE10__dispatchB8ne200100IOZNS0_6__dtorINS0_8__traitsIJN5folly7dynamicENS_4pairIPN8facebook3jsi7RuntimeENSC_5ValueEEEEEELNS0_6_TraitE1EE9__destroyB8ne200100EvEUlRT_E_JRNS0_6__baseILSI_1EJS9_SG_EEEEEEDcSK_DpT0_, symObjAddr: 0x2CA8, symBinAddr: 0xADAC, symSize: 0x8 }
  - { offset: 0x106452, size: 0x8, addend: 0x0, symName: __ZNSt3__116__variant_detail12__visitation6__base12__dispatcherIJLm1EEE10__dispatchB8ne200100IOZNS0_6__dtorINS0_8__traitsIJN5folly7dynamicENS_4pairIPN8facebook3jsi7RuntimeENSC_5ValueEEEEEELNS0_6_TraitE1EE9__destroyB8ne200100EvEUlRT_E_JRNS0_6__baseILSI_1EJS9_SG_EEEEEEDcSK_DpT0_, symObjAddr: 0x2CA8, symBinAddr: 0xADAC, symSize: 0x8 }
  - { offset: 0x106470, size: 0x8, addend: 0x0, symName: __ZNSt3__116__variant_detail12__visitation6__base12__dispatcherIJLm1EEE10__dispatchB8ne200100IOZNS0_6__dtorINS0_8__traitsIJN5folly7dynamicENS_4pairIPN8facebook3jsi7RuntimeENSC_5ValueEEEEEELNS0_6_TraitE1EE9__destroyB8ne200100EvEUlRT_E_JRNS0_6__baseILSI_1EJS9_SG_EEEEEEDcSK_DpT0_, symObjAddr: 0x2CA8, symBinAddr: 0xADAC, symSize: 0x8 }
  - { offset: 0x10648E, size: 0x8, addend: 0x0, symName: __ZNSt3__116__variant_detail12__visitation6__base12__dispatcherIJLm1EEE10__dispatchB8ne200100IOZNS0_6__dtorINS0_8__traitsIJN5folly7dynamicENS_4pairIPN8facebook3jsi7RuntimeENSC_5ValueEEEEEELNS0_6_TraitE1EE9__destroyB8ne200100EvEUlRT_E_JRNS0_6__baseILSI_1EJS9_SG_EEEEEEDcSK_DpT0_, symObjAddr: 0x2CA8, symBinAddr: 0xADAC, symSize: 0x8 }
  - { offset: 0x1065F3, size: 0x8, addend: 0x0, symName: __ZN8facebook5react19ComponentDescriptorD1Ev, symObjAddr: 0x2D2C, symBinAddr: 0x176F0, symSize: 0x4 }
  - { offset: 0x10661C, size: 0x8, addend: 0x0, symName: __ZN8facebook5react19ComponentDescriptorD0Ev, symObjAddr: 0x2D30, symBinAddr: 0x176F4, symSize: 0x4 }
  - { offset: 0x1068B9, size: 0x8, addend: 0x0, symName: __ZNSt3__120__shared_ptr_emplaceIN8facebook5react22ConcreteViewShadowNodeIXadL_ZNS2_35RNGestureHandlerButtonComponentNameEEENS2_27RNGestureHandlerButtonPropsENS2_34RNGestureHandlerButtonEventEmitterENS2_9StateDataEEENS_9allocatorIS7_EEEC2B8ne200100IJRKNS2_18ShadowNodeFragmentERKNS_10shared_ptrIKNS2_16ShadowNodeFamilyEEENS2_16ShadowNodeTraitsEES9_Li0EEES9_DpOT_, symObjAddr: 0x2E54, symBinAddr: 0xAEA0, symSize: 0x68 }
  - { offset: 0x106C09, size: 0x8, addend: 0x0, symName: __ZN8facebook5react22ConcreteViewShadowNodeIXadL_ZNS0_35RNGestureHandlerButtonComponentNameEEENS0_27RNGestureHandlerButtonPropsENS0_34RNGestureHandlerButtonEventEmitterENS0_9StateDataEE10initializeEv, symObjAddr: 0x2F04, symBinAddr: 0xAF50, symSize: 0x6C }
  - { offset: 0x106C51, size: 0x8, addend: 0x0, symName: __ZN8facebook5react22ConcreteViewShadowNodeIXadL_ZNS0_35RNGestureHandlerButtonComponentNameEEENS0_27RNGestureHandlerButtonPropsENS0_34RNGestureHandlerButtonEventEmitterENS0_9StateDataEE10initializeEv, symObjAddr: 0x2F04, symBinAddr: 0xAF50, symSize: 0x6C }
  - { offset: 0x106C6E, size: 0x8, addend: 0x0, symName: __ZN8facebook5react22ConcreteViewShadowNodeIXadL_ZNS0_35RNGestureHandlerButtonComponentNameEEENS0_27RNGestureHandlerButtonPropsENS0_34RNGestureHandlerButtonEventEmitterENS0_9StateDataEE10initializeEv, symObjAddr: 0x2F04, symBinAddr: 0xAF50, symSize: 0x6C }
  - { offset: 0x106D0B, size: 0x8, addend: 0x0, symName: __ZNSt3__120__shared_ptr_emplaceIN8facebook5react22ConcreteViewShadowNodeIXadL_ZNS2_35RNGestureHandlerButtonComponentNameEEENS2_27RNGestureHandlerButtonPropsENS2_34RNGestureHandlerButtonEventEmitterENS2_9StateDataEEENS_9allocatorIS7_EEED1Ev, symObjAddr: 0x2EBC, symBinAddr: 0xAF08, symSize: 0x14 }
  - { offset: 0x106D2F, size: 0x8, addend: 0x0, symName: __ZNSt3__120__shared_ptr_emplaceIN8facebook5react22ConcreteViewShadowNodeIXadL_ZNS2_35RNGestureHandlerButtonComponentNameEEENS2_27RNGestureHandlerButtonPropsENS2_34RNGestureHandlerButtonEventEmitterENS2_9StateDataEEENS_9allocatorIS7_EEED1Ev, symObjAddr: 0x2EBC, symBinAddr: 0xAF08, symSize: 0x14 }
  - { offset: 0x106D66, size: 0x8, addend: 0x0, symName: __ZNSt3__120__shared_ptr_emplaceIN8facebook5react22ConcreteViewShadowNodeIXadL_ZNS2_35RNGestureHandlerButtonComponentNameEEENS2_27RNGestureHandlerButtonPropsENS2_34RNGestureHandlerButtonEventEmitterENS2_9StateDataEEENS_9allocatorIS7_EEED0Ev, symObjAddr: 0x2ED0, symBinAddr: 0xAF1C, symSize: 0x24 }
  - { offset: 0x106E3C, size: 0x8, addend: 0x0, symName: __ZNSt3__120__shared_ptr_emplaceIN8facebook5react22ConcreteViewShadowNodeIXadL_ZNS2_35RNGestureHandlerButtonComponentNameEEENS2_27RNGestureHandlerButtonPropsENS2_34RNGestureHandlerButtonEventEmitterENS2_9StateDataEEENS_9allocatorIS7_EEE16__on_zero_sharedEv, symObjAddr: 0x2EF4, symBinAddr: 0xAF40, symSize: 0xC }
  - { offset: 0x106E66, size: 0x8, addend: 0x0, symName: __ZNSt3__120__shared_ptr_emplaceIN8facebook5react22ConcreteViewShadowNodeIXadL_ZNS2_35RNGestureHandlerButtonComponentNameEEENS2_27RNGestureHandlerButtonPropsENS2_34RNGestureHandlerButtonEventEmitterENS2_9StateDataEEENS_9allocatorIS7_EEE16__on_zero_sharedEv, symObjAddr: 0x2EF4, symBinAddr: 0xAF40, symSize: 0xC }
  - { offset: 0x106E85, size: 0x8, addend: 0x0, symName: __ZNSt3__120__shared_ptr_emplaceIN8facebook5react22ConcreteViewShadowNodeIXadL_ZNS2_35RNGestureHandlerButtonComponentNameEEENS2_27RNGestureHandlerButtonPropsENS2_34RNGestureHandlerButtonEventEmitterENS2_9StateDataEEENS_9allocatorIS7_EEE16__on_zero_sharedEv, symObjAddr: 0x2EF4, symBinAddr: 0xAF40, symSize: 0xC }
  - { offset: 0x106EA4, size: 0x8, addend: 0x0, symName: __ZNSt3__120__shared_ptr_emplaceIN8facebook5react22ConcreteViewShadowNodeIXadL_ZNS2_35RNGestureHandlerButtonComponentNameEEENS2_27RNGestureHandlerButtonPropsENS2_34RNGestureHandlerButtonEventEmitterENS2_9StateDataEEENS_9allocatorIS7_EEE16__on_zero_sharedEv, symObjAddr: 0x2EF4, symBinAddr: 0xAF40, symSize: 0xC }
  - { offset: 0x106ED0, size: 0x8, addend: 0x0, symName: __ZNSt3__120__shared_ptr_emplaceIN8facebook5react22ConcreteViewShadowNodeIXadL_ZNS2_35RNGestureHandlerButtonComponentNameEEENS2_27RNGestureHandlerButtonPropsENS2_34RNGestureHandlerButtonEventEmitterENS2_9StateDataEEENS_9allocatorIS7_EEE21__on_zero_shared_weakEv, symObjAddr: 0x2F00, symBinAddr: 0xAF4C, symSize: 0x4 }
  - { offset: 0x106F04, size: 0x8, addend: 0x0, symName: __ZNSt3__120__shared_ptr_emplaceIN8facebook5react22ConcreteViewShadowNodeIXadL_ZNS2_35RNGestureHandlerButtonComponentNameEEENS2_27RNGestureHandlerButtonPropsENS2_34RNGestureHandlerButtonEventEmitterENS2_9StateDataEEENS_9allocatorIS7_EEE21__on_zero_shared_weakEv, symObjAddr: 0x2F00, symBinAddr: 0xAF4C, symSize: 0x4 }
  - { offset: 0x106F28, size: 0x8, addend: 0x0, symName: __ZNSt3__120__shared_ptr_emplaceIN8facebook5react22ConcreteViewShadowNodeIXadL_ZNS2_35RNGestureHandlerButtonComponentNameEEENS2_27RNGestureHandlerButtonPropsENS2_34RNGestureHandlerButtonEventEmitterENS2_9StateDataEEENS_9allocatorIS7_EEE21__on_zero_shared_weakEv, symObjAddr: 0x2F00, symBinAddr: 0xAF4C, symSize: 0x4 }
  - { offset: 0x106F4D, size: 0x8, addend: 0x0, symName: __ZNSt3__120__shared_ptr_emplaceIN8facebook5react22ConcreteViewShadowNodeIXadL_ZNS2_35RNGestureHandlerButtonComponentNameEEENS2_27RNGestureHandlerButtonPropsENS2_34RNGestureHandlerButtonEventEmitterENS2_9StateDataEEENS_9allocatorIS7_EEE21__on_zero_shared_weakEv, symObjAddr: 0x2F00, symBinAddr: 0xAF4C, symSize: 0x4 }
  - { offset: 0x106F85, size: 0x8, addend: 0x0, symName: __ZNSt3__120__shared_ptr_emplaceIN8facebook5react22ConcreteViewShadowNodeIXadL_ZNS2_35RNGestureHandlerButtonComponentNameEEENS2_27RNGestureHandlerButtonPropsENS2_34RNGestureHandlerButtonEventEmitterENS2_9StateDataEEENS_9allocatorIS7_EEE21__on_zero_shared_weakEv, symObjAddr: 0x2F00, symBinAddr: 0xAF4C, symSize: 0x4 }
  - { offset: 0x107278, size: 0x8, addend: 0x0, symName: __ZN8facebook5react22ConcreteViewShadowNodeIXadL_ZNS0_35RNGestureHandlerButtonComponentNameEEENS0_27RNGestureHandlerButtonPropsENS0_34RNGestureHandlerButtonEventEmitterENS0_9StateDataEED1Ev, symObjAddr: 0x2F70, symBinAddr: 0xAFBC, symSize: 0x70 }
  - { offset: 0x107665, size: 0x8, addend: 0x0, symName: __ZNSt3__16vectorINS_10shared_ptrIKN8facebook5react24YogaLayoutableShadowNodeEEENS_9allocatorIS6_EEE16__destroy_vectorclB8ne200100Ev, symObjAddr: 0x30C4, symBinAddr: 0xB110, symSize: 0x70 }
  - { offset: 0x1077EE, size: 0x8, addend: 0x0, symName: __ZN8facebook5react10ShadowNodeD2Ev, symObjAddr: 0x318C, symBinAddr: 0xB180, symSize: 0x5C }
  - { offset: 0x107925, size: 0x8, addend: 0x0, symName: __ZN8facebook5react22ConcreteViewShadowNodeIXadL_ZNS0_35RNGestureHandlerButtonComponentNameEEENS0_27RNGestureHandlerButtonPropsENS0_34RNGestureHandlerButtonEventEmitterENS0_9StateDataEED0Ev, symObjAddr: 0x2FE0, symBinAddr: 0xB02C, symSize: 0x74 }
  - { offset: 0x107D3A, size: 0x8, addend: 0x0, symName: __ZNK8facebook5react22ConcreteViewShadowNodeIXadL_ZNS0_35RNGestureHandlerButtonComponentNameEEENS0_27RNGestureHandlerButtonPropsENS0_34RNGestureHandlerButtonEventEmitterENS0_9StateDataEE12getTransformEv, symObjAddr: 0x3054, symBinAddr: 0xB0A0, symSize: 0x40 }
  - { offset: 0x107DAE, size: 0x8, addend: 0x0, symName: __ZNK8facebook5react22ConcreteViewShadowNodeIXadL_ZNS0_35RNGestureHandlerButtonComponentNameEEENS0_27RNGestureHandlerButtonPropsENS0_34RNGestureHandlerButtonEventEmitterENS0_9StateDataEE16canBeTouchTargetEv, symObjAddr: 0x3094, symBinAddr: 0xB0E0, symSize: 0x18 }
  - { offset: 0x107DE8, size: 0x8, addend: 0x0, symName: __ZNK8facebook5react22ConcreteViewShadowNodeIXadL_ZNS0_35RNGestureHandlerButtonComponentNameEEENS0_27RNGestureHandlerButtonPropsENS0_34RNGestureHandlerButtonEventEmitterENS0_9StateDataEE16canBeTouchTargetEv, symObjAddr: 0x3094, symBinAddr: 0xB0E0, symSize: 0x18 }
  - { offset: 0x107E05, size: 0x8, addend: 0x0, symName: __ZNK8facebook5react22ConcreteViewShadowNodeIXadL_ZNS0_35RNGestureHandlerButtonComponentNameEEENS0_27RNGestureHandlerButtonPropsENS0_34RNGestureHandlerButtonEventEmitterENS0_9StateDataEE16canBeTouchTargetEv, symObjAddr: 0x3094, symBinAddr: 0xB0E0, symSize: 0x18 }
  - { offset: 0x107E23, size: 0x8, addend: 0x0, symName: __ZNK8facebook5react22ConcreteViewShadowNodeIXadL_ZNS0_35RNGestureHandlerButtonComponentNameEEENS0_27RNGestureHandlerButtonPropsENS0_34RNGestureHandlerButtonEventEmitterENS0_9StateDataEE24canChildrenBeTouchTargetEv, symObjAddr: 0x30AC, symBinAddr: 0xB0F8, symSize: 0x18 }
  - { offset: 0x107E59, size: 0x8, addend: 0x0, symName: __ZNK8facebook5react22ConcreteViewShadowNodeIXadL_ZNS0_35RNGestureHandlerButtonComponentNameEEENS0_27RNGestureHandlerButtonPropsENS0_34RNGestureHandlerButtonEventEmitterENS0_9StateDataEE24canChildrenBeTouchTargetEv, symObjAddr: 0x30AC, symBinAddr: 0xB0F8, symSize: 0x18 }
  - { offset: 0x107E76, size: 0x8, addend: 0x0, symName: __ZNK8facebook5react22ConcreteViewShadowNodeIXadL_ZNS0_35RNGestureHandlerButtonComponentNameEEENS0_27RNGestureHandlerButtonPropsENS0_34RNGestureHandlerButtonEventEmitterENS0_9StateDataEE24canChildrenBeTouchTargetEv, symObjAddr: 0x30AC, symBinAddr: 0xB0F8, symSize: 0x18 }
  - { offset: 0x10828C, size: 0x8, addend: 0x0, symName: __ZNSt3__120__shared_ptr_emplaceIN8facebook5react22ConcreteViewShadowNodeIXadL_ZNS2_35RNGestureHandlerButtonComponentNameEEENS2_27RNGestureHandlerButtonPropsENS2_34RNGestureHandlerButtonEventEmitterENS2_9StateDataEEENS_9allocatorIS7_EEEC2B8ne200100IJRKNS2_10ShadowNodeERKNS2_18ShadowNodeFragmentEES9_Li0EEES9_DpOT_, symObjAddr: 0x3400, symBinAddr: 0xB23C, symSize: 0x64 }
  - { offset: 0x1087DF, size: 0x8, addend: 0x0, symName: __ZNSt3__120__shared_ptr_emplaceIN8facebook5react27RNGestureHandlerButtonPropsENS_9allocatorIS3_EEEC2B8ne200100IJRKNS2_18PropsParserContextERKS3_RKNS2_8RawPropsEES5_Li0EEES5_DpOT_, symObjAddr: 0x3620, symBinAddr: 0xB404, symSize: 0x4C }
  - { offset: 0x1089E1, size: 0x8, addend: 0x0, symName: __ZNSt3__120__shared_ptr_emplaceIN8facebook5react27RNGestureHandlerButtonPropsENS_9allocatorIS3_EEED1Ev, symObjAddr: 0x366C, symBinAddr: 0xB450, symSize: 0x14 }
  - { offset: 0x108A05, size: 0x8, addend: 0x0, symName: __ZNSt3__120__shared_ptr_emplaceIN8facebook5react27RNGestureHandlerButtonPropsENS_9allocatorIS3_EEED1Ev, symObjAddr: 0x366C, symBinAddr: 0xB450, symSize: 0x14 }
  - { offset: 0x108A3C, size: 0x8, addend: 0x0, symName: __ZNSt3__120__shared_ptr_emplaceIN8facebook5react27RNGestureHandlerButtonPropsENS_9allocatorIS3_EEED0Ev, symObjAddr: 0x3680, symBinAddr: 0xB464, symSize: 0x24 }
  - { offset: 0x108AE1, size: 0x8, addend: 0x0, symName: __ZNSt3__120__shared_ptr_emplaceIN8facebook5react27RNGestureHandlerButtonPropsENS_9allocatorIS3_EEE16__on_zero_sharedEv, symObjAddr: 0x36A4, symBinAddr: 0xB488, symSize: 0x8 }
  - { offset: 0x108B0B, size: 0x8, addend: 0x0, symName: __ZNSt3__120__shared_ptr_emplaceIN8facebook5react27RNGestureHandlerButtonPropsENS_9allocatorIS3_EEE16__on_zero_sharedEv, symObjAddr: 0x36A4, symBinAddr: 0xB488, symSize: 0x8 }
  - { offset: 0x108B2A, size: 0x8, addend: 0x0, symName: __ZNSt3__120__shared_ptr_emplaceIN8facebook5react27RNGestureHandlerButtonPropsENS_9allocatorIS3_EEE16__on_zero_sharedEv, symObjAddr: 0x36A4, symBinAddr: 0xB488, symSize: 0x8 }
  - { offset: 0x108B69, size: 0x8, addend: 0x0, symName: __ZNSt3__120__shared_ptr_emplaceIN8facebook5react27RNGestureHandlerButtonPropsENS_9allocatorIS3_EEE21__on_zero_shared_weakEv, symObjAddr: 0x36AC, symBinAddr: 0xB490, symSize: 0x4 }
  - { offset: 0x108B9D, size: 0x8, addend: 0x0, symName: __ZNSt3__120__shared_ptr_emplaceIN8facebook5react27RNGestureHandlerButtonPropsENS_9allocatorIS3_EEE21__on_zero_shared_weakEv, symObjAddr: 0x36AC, symBinAddr: 0xB490, symSize: 0x4 }
  - { offset: 0x108BC1, size: 0x8, addend: 0x0, symName: __ZNSt3__120__shared_ptr_emplaceIN8facebook5react27RNGestureHandlerButtonPropsENS_9allocatorIS3_EEE21__on_zero_shared_weakEv, symObjAddr: 0x36AC, symBinAddr: 0xB490, symSize: 0x4 }
  - { offset: 0x108BE6, size: 0x8, addend: 0x0, symName: __ZNSt3__120__shared_ptr_emplaceIN8facebook5react27RNGestureHandlerButtonPropsENS_9allocatorIS3_EEE21__on_zero_shared_weakEv, symObjAddr: 0x36AC, symBinAddr: 0xB490, symSize: 0x4 }
  - { offset: 0x108C1E, size: 0x8, addend: 0x0, symName: __ZNSt3__120__shared_ptr_emplaceIN8facebook5react27RNGestureHandlerButtonPropsENS_9allocatorIS3_EEE21__on_zero_shared_weakEv, symObjAddr: 0x36AC, symBinAddr: 0xB490, symSize: 0x4 }
  - { offset: 0x108C8B, size: 0x8, addend: 0x0, symName: __ZN5folly9TypeErrorC1EOS0_, symObjAddr: 0x3750, symBinAddr: 0xB498, symSize: 0x24 }
  - { offset: 0x108CE8, size: 0x8, addend: 0x0, symName: __ZN5folly9TypeErrorD1Ev, symObjAddr: 0x374C, symBinAddr: 0xB494, symSize: 0x4 }
  - { offset: 0x108D0C, size: 0x8, addend: 0x0, symName: __ZN5folly9TypeErrorD1Ev, symObjAddr: 0x374C, symBinAddr: 0xB494, symSize: 0x4 }
  - { offset: 0x108D48, size: 0x8, addend: 0x0, symName: __ZN5folly9TypeErrorD0Ev, symObjAddr: 0x3774, symBinAddr: 0xB4BC, symSize: 0x14 }
  - { offset: 0x109011, size: 0x8, addend: 0x0, symName: __ZNSt3__120__shared_ptr_emplaceIKN8facebook5react34RNGestureHandlerButtonEventEmitterENS_9allocatorIS3_EEEC2B8ne200100IJNS_10shared_ptrINS2_11EventTargetEEERKNS_8weak_ptrIKNS2_15EventDispatcherEEEES6_Li0EEES6_DpOT_, symObjAddr: 0x3840, symBinAddr: 0xB530, symSize: 0x4C }
  - { offset: 0x1091D0, size: 0x8, addend: 0x0, symName: __ZNSt3__120__shared_ptr_emplaceIKN8facebook5react34RNGestureHandlerButtonEventEmitterENS_9allocatorIS3_EEED1Ev, symObjAddr: 0x388C, symBinAddr: 0xB57C, symSize: 0x14 }
  - { offset: 0x1091F4, size: 0x8, addend: 0x0, symName: __ZNSt3__120__shared_ptr_emplaceIKN8facebook5react34RNGestureHandlerButtonEventEmitterENS_9allocatorIS3_EEED1Ev, symObjAddr: 0x388C, symBinAddr: 0xB57C, symSize: 0x14 }
  - { offset: 0x10922B, size: 0x8, addend: 0x0, symName: __ZNSt3__120__shared_ptr_emplaceIKN8facebook5react34RNGestureHandlerButtonEventEmitterENS_9allocatorIS3_EEED0Ev, symObjAddr: 0x38A0, symBinAddr: 0xB590, symSize: 0x24 }
  - { offset: 0x109301, size: 0x8, addend: 0x0, symName: __ZNSt3__120__shared_ptr_emplaceIKN8facebook5react34RNGestureHandlerButtonEventEmitterENS_9allocatorIS3_EEE16__on_zero_sharedEv, symObjAddr: 0x38C4, symBinAddr: 0xB5B4, symSize: 0xC }
  - { offset: 0x10932B, size: 0x8, addend: 0x0, symName: __ZNSt3__120__shared_ptr_emplaceIKN8facebook5react34RNGestureHandlerButtonEventEmitterENS_9allocatorIS3_EEE16__on_zero_sharedEv, symObjAddr: 0x38C4, symBinAddr: 0xB5B4, symSize: 0xC }
  - { offset: 0x10934A, size: 0x8, addend: 0x0, symName: __ZNSt3__120__shared_ptr_emplaceIKN8facebook5react34RNGestureHandlerButtonEventEmitterENS_9allocatorIS3_EEE16__on_zero_sharedEv, symObjAddr: 0x38C4, symBinAddr: 0xB5B4, symSize: 0xC }
  - { offset: 0x109369, size: 0x8, addend: 0x0, symName: __ZNSt3__120__shared_ptr_emplaceIKN8facebook5react34RNGestureHandlerButtonEventEmitterENS_9allocatorIS3_EEE16__on_zero_sharedEv, symObjAddr: 0x38C4, symBinAddr: 0xB5B4, symSize: 0xC }
  - { offset: 0x109395, size: 0x8, addend: 0x0, symName: __ZNSt3__120__shared_ptr_emplaceIKN8facebook5react34RNGestureHandlerButtonEventEmitterENS_9allocatorIS3_EEE21__on_zero_shared_weakEv, symObjAddr: 0x38D0, symBinAddr: 0xB5C0, symSize: 0x4 }
  - { offset: 0x1093C9, size: 0x8, addend: 0x0, symName: __ZNSt3__120__shared_ptr_emplaceIKN8facebook5react34RNGestureHandlerButtonEventEmitterENS_9allocatorIS3_EEE21__on_zero_shared_weakEv, symObjAddr: 0x38D0, symBinAddr: 0xB5C0, symSize: 0x4 }
  - { offset: 0x1093ED, size: 0x8, addend: 0x0, symName: __ZNSt3__120__shared_ptr_emplaceIKN8facebook5react34RNGestureHandlerButtonEventEmitterENS_9allocatorIS3_EEE21__on_zero_shared_weakEv, symObjAddr: 0x38D0, symBinAddr: 0xB5C0, symSize: 0x4 }
  - { offset: 0x109412, size: 0x8, addend: 0x0, symName: __ZNSt3__120__shared_ptr_emplaceIKN8facebook5react34RNGestureHandlerButtonEventEmitterENS_9allocatorIS3_EEE21__on_zero_shared_weakEv, symObjAddr: 0x38D0, symBinAddr: 0xB5C0, symSize: 0x4 }
  - { offset: 0x109449, size: 0x8, addend: 0x0, symName: __ZNSt3__120__shared_ptr_emplaceIKN8facebook5react34RNGestureHandlerButtonEventEmitterENS_9allocatorIS3_EEE21__on_zero_shared_weakEv, symObjAddr: 0x38D0, symBinAddr: 0xB5C0, symSize: 0x4 }
  - { offset: 0x1098D3, size: 0x8, addend: 0x0, symName: __ZN8facebook5react12EventEmitterD2Ev, symObjAddr: 0x3B88, symBinAddr: 0xB820, symSize: 0x50 }
  - { offset: 0x109A56, size: 0x8, addend: 0x0, symName: __ZN8facebook5react34RNGestureHandlerButtonEventEmitterD1Ev, symObjAddr: 0x3A14, symBinAddr: 0xB704, symSize: 0x34 }
  - { offset: 0x109B8B, size: 0x8, addend: 0x0, symName: __ZN8facebook5react34RNGestureHandlerButtonEventEmitterD0Ev, symObjAddr: 0x3A48, symBinAddr: 0xB738, symSize: 0x38 }
  - { offset: 0x109C72, size: 0x8, addend: 0x0, symName: __ZN8facebook5react20BaseViewEventEmitterD1Ev, symObjAddr: 0x3A80, symBinAddr: 0xB770, symSize: 0x34 }
  - { offset: 0x109D2B, size: 0x8, addend: 0x0, symName: __ZN8facebook5react20BaseViewEventEmitterD0Ev, symObjAddr: 0x3AB4, symBinAddr: 0xB7A4, symSize: 0x38 }
  - { offset: 0x109E10, size: 0x8, addend: 0x0, symName: __ZNSt3__120__shared_ptr_emplaceIN8facebook5react20BaseViewEventEmitter16LayoutEventStateENS_9allocatorIS4_EEED1Ev, symObjAddr: 0x3AEC, symBinAddr: 0xB7DC, symSize: 0x14 }
  - { offset: 0x109E34, size: 0x8, addend: 0x0, symName: __ZNSt3__120__shared_ptr_emplaceIN8facebook5react20BaseViewEventEmitter16LayoutEventStateENS_9allocatorIS4_EEED1Ev, symObjAddr: 0x3AEC, symBinAddr: 0xB7DC, symSize: 0x14 }
  - { offset: 0x109E6B, size: 0x8, addend: 0x0, symName: __ZNSt3__120__shared_ptr_emplaceIN8facebook5react20BaseViewEventEmitter16LayoutEventStateENS_9allocatorIS4_EEED0Ev, symObjAddr: 0x3B00, symBinAddr: 0xB7F0, symSize: 0x24 }
  - { offset: 0x109F8F, size: 0x8, addend: 0x0, symName: __ZNSt3__120__shared_ptr_emplaceIN8facebook5react20BaseViewEventEmitter16LayoutEventStateENS_9allocatorIS4_EEE16__on_zero_sharedEv, symObjAddr: 0x3B24, symBinAddr: 0xB814, symSize: 0x8 }
  - { offset: 0x109FB9, size: 0x8, addend: 0x0, symName: __ZNSt3__120__shared_ptr_emplaceIN8facebook5react20BaseViewEventEmitter16LayoutEventStateENS_9allocatorIS4_EEE16__on_zero_sharedEv, symObjAddr: 0x3B24, symBinAddr: 0xB814, symSize: 0x8 }
  - { offset: 0x109FD8, size: 0x8, addend: 0x0, symName: __ZNSt3__120__shared_ptr_emplaceIN8facebook5react20BaseViewEventEmitter16LayoutEventStateENS_9allocatorIS4_EEE16__on_zero_sharedEv, symObjAddr: 0x3B24, symBinAddr: 0xB814, symSize: 0x8 }
  - { offset: 0x10A0AF, size: 0x8, addend: 0x0, symName: __ZNSt3__120__shared_ptr_emplaceIN8facebook5react20BaseViewEventEmitter16LayoutEventStateENS_9allocatorIS4_EEE21__on_zero_shared_weakEv, symObjAddr: 0x3B2C, symBinAddr: 0xB81C, symSize: 0x4 }
  - { offset: 0x10A0E3, size: 0x8, addend: 0x0, symName: __ZNSt3__120__shared_ptr_emplaceIN8facebook5react20BaseViewEventEmitter16LayoutEventStateENS_9allocatorIS4_EEE21__on_zero_shared_weakEv, symObjAddr: 0x3B2C, symBinAddr: 0xB81C, symSize: 0x4 }
  - { offset: 0x10A107, size: 0x8, addend: 0x0, symName: __ZNSt3__120__shared_ptr_emplaceIN8facebook5react20BaseViewEventEmitter16LayoutEventStateENS_9allocatorIS4_EEE21__on_zero_shared_weakEv, symObjAddr: 0x3B2C, symBinAddr: 0xB81C, symSize: 0x4 }
  - { offset: 0x10A12C, size: 0x8, addend: 0x0, symName: __ZNSt3__120__shared_ptr_emplaceIN8facebook5react20BaseViewEventEmitter16LayoutEventStateENS_9allocatorIS4_EEE21__on_zero_shared_weakEv, symObjAddr: 0x3B2C, symBinAddr: 0xB81C, symSize: 0x4 }
  - { offset: 0x10A164, size: 0x8, addend: 0x0, symName: __ZNSt3__120__shared_ptr_emplaceIN8facebook5react20BaseViewEventEmitter16LayoutEventStateENS_9allocatorIS4_EEE21__on_zero_shared_weakEv, symObjAddr: 0x3B2C, symBinAddr: 0xB81C, symSize: 0x4 }
  - { offset: 0x10A18E, size: 0x8, addend: 0x0, symName: __ZN8facebook5react12EventEmitterD1Ev, symObjAddr: 0x3BD8, symBinAddr: 0xB870, symSize: 0x4 }
  - { offset: 0x10A1B2, size: 0x8, addend: 0x0, symName: __ZN8facebook5react12EventEmitterD1Ev, symObjAddr: 0x3BD8, symBinAddr: 0xB870, symSize: 0x4 }
  - { offset: 0x10A1E5, size: 0x8, addend: 0x0, symName: __ZN8facebook5react12EventEmitterD0Ev, symObjAddr: 0x3BDC, symBinAddr: 0xB874, symSize: 0x14 }
  - { offset: 0x10A4A5, size: 0x8, addend: 0x0, symName: __ZNSt3__120__shared_ptr_emplaceIN8facebook5react11EventTargetENS_9allocatorIS3_EEEC2B8ne200100IJRKNS_10shared_ptrIKNS2_14InstanceHandleEEERKiES5_Li0EEES5_DpOT_, symObjAddr: 0x3CA8, symBinAddr: 0xB8E8, symSize: 0x4C }
  - { offset: 0x10A664, size: 0x8, addend: 0x0, symName: __ZNSt3__120__shared_ptr_emplaceIN8facebook5react11EventTargetENS_9allocatorIS3_EEED1Ev, symObjAddr: 0x3CF4, symBinAddr: 0xB934, symSize: 0x14 }
  - { offset: 0x10A688, size: 0x8, addend: 0x0, symName: __ZNSt3__120__shared_ptr_emplaceIN8facebook5react11EventTargetENS_9allocatorIS3_EEED1Ev, symObjAddr: 0x3CF4, symBinAddr: 0xB934, symSize: 0x14 }
  - { offset: 0x10A6BF, size: 0x8, addend: 0x0, symName: __ZNSt3__120__shared_ptr_emplaceIN8facebook5react11EventTargetENS_9allocatorIS3_EEED0Ev, symObjAddr: 0x3D08, symBinAddr: 0xB948, symSize: 0x24 }
  - { offset: 0x10A7EC, size: 0x8, addend: 0x0, symName: __ZNSt3__120__shared_ptr_emplaceIN8facebook5react11EventTargetENS_9allocatorIS3_EEE16__on_zero_sharedEv, symObjAddr: 0x3D2C, symBinAddr: 0xB96C, symSize: 0x28 }
  - { offset: 0x10A902, size: 0x8, addend: 0x0, symName: __ZNSt3__120__shared_ptr_emplaceIN8facebook5react11EventTargetENS_9allocatorIS3_EEE21__on_zero_shared_weakEv, symObjAddr: 0x3D54, symBinAddr: 0xB994, symSize: 0x4 }
  - { offset: 0x10A936, size: 0x8, addend: 0x0, symName: __ZNSt3__120__shared_ptr_emplaceIN8facebook5react11EventTargetENS_9allocatorIS3_EEE21__on_zero_shared_weakEv, symObjAddr: 0x3D54, symBinAddr: 0xB994, symSize: 0x4 }
  - { offset: 0x10A95A, size: 0x8, addend: 0x0, symName: __ZNSt3__120__shared_ptr_emplaceIN8facebook5react11EventTargetENS_9allocatorIS3_EEE21__on_zero_shared_weakEv, symObjAddr: 0x3D54, symBinAddr: 0xB994, symSize: 0x4 }
  - { offset: 0x10A97F, size: 0x8, addend: 0x0, symName: __ZNSt3__120__shared_ptr_emplaceIN8facebook5react11EventTargetENS_9allocatorIS3_EEE21__on_zero_shared_weakEv, symObjAddr: 0x3D54, symBinAddr: 0xB994, symSize: 0x4 }
  - { offset: 0x10A9B6, size: 0x8, addend: 0x0, symName: __ZNSt3__120__shared_ptr_emplaceIN8facebook5react11EventTargetENS_9allocatorIS3_EEE21__on_zero_shared_weakEv, symObjAddr: 0x3D54, symBinAddr: 0xB994, symSize: 0x4 }
  - { offset: 0x10ACCE, size: 0x8, addend: 0x0, symName: __ZNSt3__120__shared_ptr_emplaceIN8facebook5react16ShadowNodeFamilyENS_9allocatorIS3_EEEC2B8ne200100IJRKNS2_24ShadowNodeFamilyFragmentERNS_10shared_ptrIKNS2_34RNGestureHandlerButtonEventEmitterEEERKNS_8weak_ptrIKNS2_15EventDispatcherEEERKNS2_27ConcreteComponentDescriptorINS2_22ConcreteViewShadowNodeIXadL_ZNS2_35RNGestureHandlerButtonComponentNameEEENS2_27RNGestureHandlerButtonPropsESC_NS2_9StateDataEEEEEES5_Li0EEES5_DpOT_, symObjAddr: 0x3F24, symBinAddr: 0xBAB4, symSize: 0x4C }
  - { offset: 0x10AF0F, size: 0x8, addend: 0x0, symName: __ZNSt3__120__shared_ptr_emplaceIN8facebook5react16ShadowNodeFamilyENS_9allocatorIS3_EEED1Ev, symObjAddr: 0x3F70, symBinAddr: 0xBB00, symSize: 0x14 }
  - { offset: 0x10AF33, size: 0x8, addend: 0x0, symName: __ZNSt3__120__shared_ptr_emplaceIN8facebook5react16ShadowNodeFamilyENS_9allocatorIS3_EEED1Ev, symObjAddr: 0x3F70, symBinAddr: 0xBB00, symSize: 0x14 }
  - { offset: 0x10AF6A, size: 0x8, addend: 0x0, symName: __ZNSt3__120__shared_ptr_emplaceIN8facebook5react16ShadowNodeFamilyENS_9allocatorIS3_EEED0Ev, symObjAddr: 0x3F84, symBinAddr: 0xBB14, symSize: 0x24 }
  - { offset: 0x10B040, size: 0x8, addend: 0x0, symName: __ZNSt3__120__shared_ptr_emplaceIN8facebook5react16ShadowNodeFamilyENS_9allocatorIS3_EEE16__on_zero_sharedEv, symObjAddr: 0x3FA8, symBinAddr: 0xBB38, symSize: 0x8 }
  - { offset: 0x10B06A, size: 0x8, addend: 0x0, symName: __ZNSt3__120__shared_ptr_emplaceIN8facebook5react16ShadowNodeFamilyENS_9allocatorIS3_EEE16__on_zero_sharedEv, symObjAddr: 0x3FA8, symBinAddr: 0xBB38, symSize: 0x8 }
  - { offset: 0x10B089, size: 0x8, addend: 0x0, symName: __ZNSt3__120__shared_ptr_emplaceIN8facebook5react16ShadowNodeFamilyENS_9allocatorIS3_EEE16__on_zero_sharedEv, symObjAddr: 0x3FA8, symBinAddr: 0xBB38, symSize: 0x8 }
  - { offset: 0x10B0D1, size: 0x8, addend: 0x0, symName: __ZNSt3__120__shared_ptr_emplaceIN8facebook5react16ShadowNodeFamilyENS_9allocatorIS3_EEE21__on_zero_shared_weakEv, symObjAddr: 0x3FB0, symBinAddr: 0xBB40, symSize: 0x4 }
  - { offset: 0x10B105, size: 0x8, addend: 0x0, symName: __ZNSt3__120__shared_ptr_emplaceIN8facebook5react16ShadowNodeFamilyENS_9allocatorIS3_EEE21__on_zero_shared_weakEv, symObjAddr: 0x3FB0, symBinAddr: 0xBB40, symSize: 0x4 }
  - { offset: 0x10B129, size: 0x8, addend: 0x0, symName: __ZNSt3__120__shared_ptr_emplaceIN8facebook5react16ShadowNodeFamilyENS_9allocatorIS3_EEE21__on_zero_shared_weakEv, symObjAddr: 0x3FB0, symBinAddr: 0xBB40, symSize: 0x4 }
  - { offset: 0x10B14E, size: 0x8, addend: 0x0, symName: __ZNSt3__120__shared_ptr_emplaceIN8facebook5react16ShadowNodeFamilyENS_9allocatorIS3_EEE21__on_zero_shared_weakEv, symObjAddr: 0x3FB0, symBinAddr: 0xBB40, symSize: 0x4 }
  - { offset: 0x10B186, size: 0x8, addend: 0x0, symName: __ZNSt3__120__shared_ptr_emplaceIN8facebook5react16ShadowNodeFamilyENS_9allocatorIS3_EEE21__on_zero_shared_weakEv, symObjAddr: 0x3FB0, symBinAddr: 0xBB40, symSize: 0x4 }
  - { offset: 0x10B32E, size: 0x8, addend: 0x0, symName: __GLOBAL__sub_I_RNGestureHandlerButtonComponentView.mm, symObjAddr: 0x44C0, symBinAddr: 0xBC20, symSize: 0x20 }
  - { offset: 0x10D428, size: 0x8, addend: 0x0, symName: '+[RNGestureHandlerButtonManager moduleName]', symObjAddr: 0x0, symBinAddr: 0xBC40, symSize: 0xC }
  - { offset: 0x10D563, size: 0x8, addend: 0x0, symName: '+[RNGestureHandlerButtonManager moduleName]', symObjAddr: 0x0, symBinAddr: 0xBC40, symSize: 0xC }
  - { offset: 0x10D596, size: 0x8, addend: 0x0, symName: '+[RNGestureHandlerButtonManager load]', symObjAddr: 0xC, symBinAddr: 0xBC4C, symSize: 0x4 }
  - { offset: 0x10D5CA, size: 0x8, addend: 0x0, symName: '+[RNGestureHandlerButtonManager load]', symObjAddr: 0xC, symBinAddr: 0xBC4C, symSize: 0x4 }
  - { offset: 0x10D5EC, size: 0x8, addend: 0x0, symName: '+[RNGestureHandlerButtonManager propConfig_enabled]', symObjAddr: 0x10, symBinAddr: 0xBC50, symSize: 0xC }
  - { offset: 0x10D61F, size: 0x8, addend: 0x0, symName: '-[RNGestureHandlerButtonManager set_enabled:forView:withDefaultView:]', symObjAddr: 0x1C, symBinAddr: 0xBC5C, symSize: 0x98 }
  - { offset: 0x10D67E, size: 0x8, addend: 0x0, symName: '+[RNGestureHandlerButtonManager propConfig_exclusive]', symObjAddr: 0xB4, symBinAddr: 0xBCF4, symSize: 0xC }
  - { offset: 0x10D6B1, size: 0x8, addend: 0x0, symName: '-[RNGestureHandlerButtonManager set_exclusive:forView:withDefaultView:]', symObjAddr: 0xC0, symBinAddr: 0xBD00, symSize: 0x98 }
  - { offset: 0x10D710, size: 0x8, addend: 0x0, symName: '+[RNGestureHandlerButtonManager propConfig_hitSlop]', symObjAddr: 0x158, symBinAddr: 0xBD98, symSize: 0xC }
  - { offset: 0x10D743, size: 0x8, addend: 0x0, symName: '-[RNGestureHandlerButtonManager set_hitSlop:forView:withDefaultView:]', symObjAddr: 0x164, symBinAddr: 0xBDA4, symSize: 0xB4 }
  - { offset: 0x10D7C1, size: 0x8, addend: 0x0, symName: '-[RNGestureHandlerButtonManager view]', symObjAddr: 0x218, symBinAddr: 0xBE58, symSize: 0x1C }
  - { offset: 0x10D9BB, size: 0x8, addend: 0x0, symName: '-[RNGestureHandlerEventExtraData initWithData:]', symObjAddr: 0x0, symBinAddr: 0xBE74, symSize: 0x70 }
  - { offset: 0x10D9C9, size: 0x8, addend: 0x0, symName: '-[RNGestureHandlerStateChange initWithReactTag:handlerTag:state:prevState:extraData:]', symObjAddr: 0x1378, symBinAddr: 0xD1EC, symSize: 0xE0 }
  - { offset: 0x10D9F3, size: 0x8, addend: 0x0, symName: '_initWithReactTag:handlerTag:state:prevState:extraData:.coalescingKey', symObjAddr: 0x89C0, symBinAddr: 0x2D438, symSize: 0x0 }
  - { offset: 0x10DBDF, size: 0x8, addend: 0x0, symName: '-[RNGestureHandlerEventExtraData initWithData:]', symObjAddr: 0x0, symBinAddr: 0xBE74, symSize: 0x70 }
  - { offset: 0x10DC26, size: 0x8, addend: 0x0, symName: '+[RNGestureHandlerEventExtraData forPosition:withAbsolutePosition:withPointerType:]', symObjAddr: 0x70, symBinAddr: 0xBEE4, symSize: 0x19C }
  - { offset: 0x10DC89, size: 0x8, addend: 0x0, symName: '+[RNGestureHandlerEventExtraData forPosition:withAbsolutePosition:withNumberOfTouches:withPointerType:]', symObjAddr: 0x20C, symBinAddr: 0xC080, symSize: 0x1C8 }
  - { offset: 0x10DCFC, size: 0x8, addend: 0x0, symName: '+[RNGestureHandlerEventExtraData forPosition:withAbsolutePosition:withNumberOfTouches:withDuration:withPointerType:]', symObjAddr: 0x3D4, symBinAddr: 0xC248, symSize: 0x1FC }
  - { offset: 0x10DD7F, size: 0x8, addend: 0x0, symName: '+[RNGestureHandlerEventExtraData forPan:withAbsolutePosition:withTranslation:withVelocity:withNumberOfTouches:withPointerType:withStylusData:]', symObjAddr: 0x5D0, symBinAddr: 0xC444, symSize: 0x2D0 }
  - { offset: 0x10DE32, size: 0x8, addend: 0x0, symName: '+[RNGestureHandlerEventExtraData forForce:forPosition:withAbsolutePosition:withNumberOfTouches:withPointerType:]', symObjAddr: 0x8A0, symBinAddr: 0xC714, symSize: 0x204 }
  - { offset: 0x10DEB5, size: 0x8, addend: 0x0, symName: '+[RNGestureHandlerEventExtraData forPinch:withFocalPoint:withVelocity:withNumberOfTouches:withPointerType:]', symObjAddr: 0xAA4, symBinAddr: 0xC918, symSize: 0x1D0 }
  - { offset: 0x10DF38, size: 0x8, addend: 0x0, symName: '+[RNGestureHandlerEventExtraData forRotation:withAnchorPoint:withVelocity:withNumberOfTouches:withPointerType:]', symObjAddr: 0xC74, symBinAddr: 0xCAE8, symSize: 0x1D0 }
  - { offset: 0x10DFBB, size: 0x8, addend: 0x0, symName: '+[RNGestureHandlerEventExtraData forEventType:withChangedPointers:withAllPointers:withNumberOfTouches:withPointerType:]', symObjAddr: 0xE44, symBinAddr: 0xCCB8, symSize: 0x188 }
  - { offset: 0x10E03E, size: 0x8, addend: 0x0, symName: '+[RNGestureHandlerEventExtraData forPointerInside:withPointerType:]', symObjAddr: 0xFCC, symBinAddr: 0xCE40, symSize: 0xFC }
  - { offset: 0x10E091, size: 0x8, addend: 0x0, symName: '-[RNGestureHandlerEventExtraData data]', symObjAddr: 0x10C8, symBinAddr: 0xCF3C, symSize: 0xC }
  - { offset: 0x10E0C8, size: 0x8, addend: 0x0, symName: '-[RNGestureHandlerEventExtraData .cxx_destruct]', symObjAddr: 0x10D4, symBinAddr: 0xCF48, symSize: 0xC }
  - { offset: 0x10E0FB, size: 0x8, addend: 0x0, symName: '-[RNGestureHandlerEvent initWithReactTag:handlerTag:state:extraData:coalescingKey:]', symObjAddr: 0x10E0, symBinAddr: 0xCF54, symSize: 0xD0 }
  - { offset: 0x10E182, size: 0x8, addend: 0x0, symName: '-[RNGestureHandlerEvent init]', symObjAddr: 0x11B0, symBinAddr: 0xD024, symSize: 0x2C }
  - { offset: 0x10E215, size: 0x8, addend: 0x0, symName: '-[RNGestureHandlerEvent eventName]', symObjAddr: 0x11DC, symBinAddr: 0xD050, symSize: 0xC }
  - { offset: 0x10E248, size: 0x8, addend: 0x0, symName: '-[RNGestureHandlerEvent canCoalesce]', symObjAddr: 0x11E8, symBinAddr: 0xD05C, symSize: 0x8 }
  - { offset: 0x10E27B, size: 0x8, addend: 0x0, symName: '-[RNGestureHandlerEvent coalesceWithEvent:]', symObjAddr: 0x11F0, symBinAddr: 0xD064, symSize: 0x8 }
  - { offset: 0x10E295, size: 0x8, addend: 0x0, symName: '+[RNGestureHandlerEvent moduleDotMethod]', symObjAddr: 0x11F8, symBinAddr: 0xD06C, symSize: 0xC }
  - { offset: 0x10E2C8, size: 0x8, addend: 0x0, symName: '-[RNGestureHandlerEvent arguments]', symObjAddr: 0x1204, symBinAddr: 0xD078, symSize: 0x128 }
  - { offset: 0x10E30F, size: 0x8, addend: 0x0, symName: '-[RNGestureHandlerEvent viewTag]', symObjAddr: 0x132C, symBinAddr: 0xD1A0, symSize: 0x8 }
  - { offset: 0x10E346, size: 0x8, addend: 0x0, symName: '-[RNGestureHandlerEvent coalescingKey]', symObjAddr: 0x1334, symBinAddr: 0xD1A8, symSize: 0x8 }
  - { offset: 0x10E37D, size: 0x8, addend: 0x0, symName: '-[RNGestureHandlerEvent .cxx_destruct]', symObjAddr: 0x133C, symBinAddr: 0xD1B0, symSize: 0x3C }
  - { offset: 0x10E3B0, size: 0x8, addend: 0x0, symName: '-[RNGestureHandlerStateChange init]', symObjAddr: 0x1458, symBinAddr: 0xD2CC, symSize: 0x2C }
  - { offset: 0x10E401, size: 0x8, addend: 0x0, symName: '-[RNGestureHandlerStateChange eventName]', symObjAddr: 0x1484, symBinAddr: 0xD2F8, symSize: 0xC }
  - { offset: 0x10E434, size: 0x8, addend: 0x0, symName: '-[RNGestureHandlerStateChange canCoalesce]', symObjAddr: 0x1490, symBinAddr: 0xD304, symSize: 0x8 }
  - { offset: 0x10E468, size: 0x8, addend: 0x0, symName: '-[RNGestureHandlerStateChange coalesceWithEvent:]', symObjAddr: 0x1498, symBinAddr: 0xD30C, symSize: 0x8 }
  - { offset: 0x10E483, size: 0x8, addend: 0x0, symName: '+[RNGestureHandlerStateChange moduleDotMethod]', symObjAddr: 0x14A0, symBinAddr: 0xD314, symSize: 0xC }
  - { offset: 0x10E4B7, size: 0x8, addend: 0x0, symName: '-[RNGestureHandlerStateChange arguments]', symObjAddr: 0x14AC, symBinAddr: 0xD320, symSize: 0x154 }
  - { offset: 0x10E500, size: 0x8, addend: 0x0, symName: '-[RNGestureHandlerStateChange viewTag]', symObjAddr: 0x1600, symBinAddr: 0xD474, symSize: 0x8 }
  - { offset: 0x10E537, size: 0x8, addend: 0x0, symName: '-[RNGestureHandlerStateChange coalescingKey]', symObjAddr: 0x1608, symBinAddr: 0xD47C, symSize: 0x8 }
  - { offset: 0x10E56E, size: 0x8, addend: 0x0, symName: '-[RNGestureHandlerStateChange .cxx_destruct]', symObjAddr: 0x1610, symBinAddr: 0xD484, symSize: 0x3C }
  - { offset: 0x10E66E, size: 0x8, addend: 0x0, symName: __ZN8facebook5react17HostPlatformColorL14UndefinedColorE, symObjAddr: 0xE4598, symBinAddr: 0x2D440, symSize: 0x0 }
  - { offset: 0x10F29B, size: 0x8, addend: 0x0, symName: '-[RNGestureHandlerManager createGestureHandler:tag:config:]', symObjAddr: 0x164, symBinAddr: 0xD624, symSize: 0x1C4 }
  - { offset: 0x10F2C1, size: 0x8, addend: 0x0, symName: '__ZZ59-[RNGestureHandlerManager createGestureHandler:tag:config:]E3map', symObjAddr: 0xE45B0, symBinAddr: 0x2D458, symSize: 0x0 }
  - { offset: 0x10F2D7, size: 0x8, addend: 0x0, symName: '__ZZ59-[RNGestureHandlerManager createGestureHandler:tag:config:]E8mapToken', symObjAddr: 0xE45B8, symBinAddr: 0x2D460, symSize: 0x0 }
  - { offset: 0x10F567, size: 0x8, addend: 0x0, symName: '-[RNGestureHandlerManager initWithModuleRegistry:viewRegistry:]', symObjAddr: 0x0, symBinAddr: 0xD4C0, symSize: 0xE0 }
  - { offset: 0x10F5BE, size: 0x8, addend: 0x0, symName: '-[RNGestureHandlerManager initCommonProps]', symObjAddr: 0xE0, symBinAddr: 0xD5A0, symSize: 0x84 }
  - { offset: 0x10F63F, size: 0x8, addend: 0x0, symName: '-[RNGestureHandlerManager createGestureHandler:tag:config:].cold.1', symObjAddr: 0x10B8, symBinAddr: 0x17794, symSize: 0x14 }
  - { offset: 0x10F65B, size: 0x8, addend: 0x0, symName: '-[RNGestureHandlerManager createGestureHandler:tag:config:].cold.1', symObjAddr: 0x10B8, symBinAddr: 0x17794, symSize: 0x14 }
  - { offset: 0x10F66D, size: 0x8, addend: 0x0, symName: '___59-[RNGestureHandlerManager createGestureHandler:tag:config:]_block_invoke', symObjAddr: 0x328, symBinAddr: 0xD7E8, symSize: 0x188 }
  - { offset: 0x10F694, size: 0x8, addend: 0x0, symName: '-[RNGestureHandlerManager attachGestureHandler:toViewWithTag:withActionType:]', symObjAddr: 0x4B0, symBinAddr: 0xD970, symSize: 0x25C }
  - { offset: 0x10F7BA, size: 0x8, addend: 0x0, symName: '___77-[RNGestureHandlerManager attachGestureHandler:toViewWithTag:withActionType:]_block_invoke', symObjAddr: 0x70C, symBinAddr: 0xDBCC, symSize: 0x40 }
  - { offset: 0x10F829, size: 0x8, addend: 0x0, symName: ___copy_helper_block_ea8_32s40s48s, symObjAddr: 0x74C, symBinAddr: 0xDC0C, symSize: 0x30 }
  - { offset: 0x10F852, size: 0x8, addend: 0x0, symName: ___destroy_helper_block_ea8_32s40s48s, symObjAddr: 0x77C, symBinAddr: 0xDC3C, symSize: 0x30 }
  - { offset: 0x10F871, size: 0x8, addend: 0x0, symName: '-[RNGestureHandlerManager updateGestureHandler:config:]', symObjAddr: 0x7AC, symBinAddr: 0xDC6C, symSize: 0x74 }
  - { offset: 0x10F8D4, size: 0x8, addend: 0x0, symName: '-[RNGestureHandlerManager dropGestureHandler:]', symObjAddr: 0x820, symBinAddr: 0xDCE0, symSize: 0x5C }
  - { offset: 0x10F917, size: 0x8, addend: 0x0, symName: '-[RNGestureHandlerManager dropAllGestureHandlers]', symObjAddr: 0x87C, symBinAddr: 0xDD3C, symSize: 0x8 }
  - { offset: 0x10F94A, size: 0x8, addend: 0x0, symName: '-[RNGestureHandlerManager handleSetJSResponder:blockNativeResponder:]', symObjAddr: 0x884, symBinAddr: 0xDD44, symSize: 0x10C }
  - { offset: 0x10F9B0, size: 0x8, addend: 0x0, symName: '-[RNGestureHandlerManager handleClearJSResponder]', symObjAddr: 0x990, symBinAddr: 0xDE50, symSize: 0x4 }
  - { offset: 0x10F9DF, size: 0x8, addend: 0x0, symName: '-[RNGestureHandlerManager handlerWithTag:]', symObjAddr: 0x994, symBinAddr: 0xDE54, symSize: 0x1C }
  - { offset: 0x10FA26, size: 0x8, addend: 0x0, symName: '-[RNGestureHandlerManager registerViewWithGestureRecognizerAttachedIfNeeded:]', symObjAddr: 0x9B0, symBinAddr: 0xDE70, symSize: 0x2CC }
  - { offset: 0x10FAC9, size: 0x8, addend: 0x0, symName: '-[RNGestureHandlerManager gestureRecognizer:didActivateInViewWithTouchHandler:]', symObjAddr: 0xC7C, symBinAddr: 0xE13C, symSize: 0x1C4 }
  - { offset: 0x10FB44, size: 0x8, addend: 0x0, symName: '-[RNGestureHandlerManager sendEvent:withActionType:]', symObjAddr: 0xE40, symBinAddr: 0xE300, symSize: 0xF0 }
  - { offset: 0x10FB9A, size: 0x8, addend: 0x0, symName: '-[RNGestureHandlerManager sendEventForReanimated:]', symObjAddr: 0xF30, symBinAddr: 0xE3F0, symSize: 0x80 }
  - { offset: 0x10FBDF, size: 0x8, addend: 0x0, symName: '-[RNGestureHandlerManager sendEventForNativeAnimatedEvent:]', symObjAddr: 0xFB0, symBinAddr: 0xE470, symSize: 0x4 }
  - { offset: 0x10FC20, size: 0x8, addend: 0x0, symName: '-[RNGestureHandlerManager sendEventForJSFunctionOldAPI:]', symObjAddr: 0xFB4, symBinAddr: 0xE474, symSize: 0x4 }
  - { offset: 0x10FC61, size: 0x8, addend: 0x0, symName: '-[RNGestureHandlerManager sendEventForJSFunctionNewAPI:]', symObjAddr: 0xFB8, symBinAddr: 0xE478, symSize: 0x4 }
  - { offset: 0x10FCA2, size: 0x8, addend: 0x0, symName: '-[RNGestureHandlerManager sendEventForDirectEvent:]', symObjAddr: 0xFBC, symBinAddr: 0xE47C, symSize: 0x8 }
  - { offset: 0x10FCE5, size: 0x8, addend: 0x0, symName: '-[RNGestureHandlerManager sendEventForDeviceEvent:]', symObjAddr: 0xFC4, symBinAddr: 0xE484, symSize: 0x7C }
  - { offset: 0x10FD3B, size: 0x8, addend: 0x0, symName: '-[RNGestureHandlerManager .cxx_destruct]', symObjAddr: 0x1040, symBinAddr: 0xE500, symSize: 0x78 }
  - { offset: 0x10FDF9, size: 0x8, addend: 0x0, symName: __GLOBAL__sub_I_RNGestureHandlerManager.mm, symObjAddr: 0x1350, symBinAddr: 0xE578, symSize: 0x20 }
  - { offset: 0x111F64, size: 0x8, addend: 0x0, symName: __ZN8facebook5react17HostPlatformColorL14UndefinedColorE, symObjAddr: 0x193440, symBinAddr: 0x2D468, symSize: 0x0 }
  - { offset: 0x144FBC, size: 0x8, addend: 0x0, symName: __ZNSt3__115allocate_sharedB8ne200100IN8facebook5react35NativeRNGestureHandlerModuleSpecJSIENS_9allocatorIS3_EEJRKNS2_15ObjCTurboModule10InitParamsEELi0EEENS_10shared_ptrIT_EERKT0_DpOT1_, symObjAddr: 0x11A8, symBinAddr: 0xF730, symSize: 0x58 }
  - { offset: 0x147007, size: 0x8, addend: 0x0, symName: '+[RNGestureHandlerModule __rct_export__1480]', symObjAddr: 0x420, symBinAddr: 0xE9B8, symSize: 0xC }
  - { offset: 0x147031, size: 0x8, addend: 0x0, symName: '__ZZ44+[RNGestureHandlerModule __rct_export__1480]E6config', symObjAddr: 0x2538, symBinAddr: 0x2D000, symSize: 0x0 }
  - { offset: 0x147094, size: 0x8, addend: 0x0, symName: '+[RNGestureHandlerModule __rct_export__1681]', symObjAddr: 0x554, symBinAddr: 0xEAEC, symSize: 0xC }
  - { offset: 0x1470BE, size: 0x8, addend: 0x0, symName: '__ZZ44+[RNGestureHandlerModule __rct_export__1681]E6config', symObjAddr: 0x2550, symBinAddr: 0x2D018, symSize: 0x0 }
  - { offset: 0x1470DD, size: 0x8, addend: 0x0, symName: '+[RNGestureHandlerModule __rct_export__1752]', symObjAddr: 0x710, symBinAddr: 0xECA8, symSize: 0xC }
  - { offset: 0x147107, size: 0x8, addend: 0x0, symName: '__ZZ44+[RNGestureHandlerModule __rct_export__1752]E6config', symObjAddr: 0x2568, symBinAddr: 0x2D030, symSize: 0x0 }
  - { offset: 0x147126, size: 0x8, addend: 0x0, symName: '+[RNGestureHandlerModule __rct_export__1843]', symObjAddr: 0x848, symBinAddr: 0xEDE0, symSize: 0xC }
  - { offset: 0x147150, size: 0x8, addend: 0x0, symName: '__ZZ44+[RNGestureHandlerModule __rct_export__1843]E6config', symObjAddr: 0x2580, symBinAddr: 0x2D048, symSize: 0x0 }
  - { offset: 0x14716F, size: 0x8, addend: 0x0, symName: '+[RNGestureHandlerModule __rct_export__1914]', symObjAddr: 0x970, symBinAddr: 0xEF08, symSize: 0xC }
  - { offset: 0x147199, size: 0x8, addend: 0x0, symName: '__ZZ44+[RNGestureHandlerModule __rct_export__1914]E6config', symObjAddr: 0x2598, symBinAddr: 0x2D060, symSize: 0x0 }
  - { offset: 0x1471B8, size: 0x8, addend: 0x0, symName: '+[RNGestureHandlerModule __rct_export__1985]', symObjAddr: 0xA44, symBinAddr: 0xEFDC, symSize: 0xC }
  - { offset: 0x1471E2, size: 0x8, addend: 0x0, symName: '__ZZ44+[RNGestureHandlerModule __rct_export__1985]E6config', symObjAddr: 0x25B0, symBinAddr: 0x2D078, symSize: 0x0 }
  - { offset: 0x147201, size: 0x8, addend: 0x0, symName: '+[RNGestureHandlerModule __rct_export__2056]', symObjAddr: 0xB20, symBinAddr: 0xF0B8, symSize: 0xC }
  - { offset: 0x14722B, size: 0x8, addend: 0x0, symName: '__ZZ44+[RNGestureHandlerModule __rct_export__2056]E6config', symObjAddr: 0x25C8, symBinAddr: 0x2D090, symSize: 0x0 }
  - { offset: 0x14724A, size: 0x8, addend: 0x0, symName: '+[RNGestureHandlerModule __rct_export__2127]', symObjAddr: 0xB40, symBinAddr: 0xF0D8, symSize: 0xC }
  - { offset: 0x147274, size: 0x8, addend: 0x0, symName: '__ZZ44+[RNGestureHandlerModule __rct_export__2127]E6config', symObjAddr: 0x25E0, symBinAddr: 0x2D0A8, symSize: 0x0 }
  - { offset: 0x14B03E, size: 0x8, addend: 0x0, symName: __Z15decorateRuntimeRN8facebook3jsi7RuntimeE, symObjAddr: 0xD0, symBinAddr: 0xE668, symSize: 0x1F8 }
  - { offset: 0x14CDB8, size: 0x8, addend: 0x0, symName: '+[RNGestureHandlerModule moduleName]', symObjAddr: 0x0, symBinAddr: 0xE598, symSize: 0xC }
  - { offset: 0x14CDEB, size: 0x8, addend: 0x0, symName: '+[RNGestureHandlerModule load]', symObjAddr: 0xC, symBinAddr: 0xE5A4, symSize: 0x4 }
  - { offset: 0x14CE1F, size: 0x8, addend: 0x0, symName: '+[RNGestureHandlerModule load]', symObjAddr: 0xC, symBinAddr: 0xE5A4, symSize: 0x4 }
  - { offset: 0x14CE41, size: 0x8, addend: 0x0, symName: '+[RNGestureHandlerModule requiresMainQueueSetup]', symObjAddr: 0x10, symBinAddr: 0xE5A8, symSize: 0x8 }
  - { offset: 0x14CE74, size: 0x8, addend: 0x0, symName: '-[RNGestureHandlerModule invalidate]', symObjAddr: 0x18, symBinAddr: 0xE5B0, symSize: 0x9C }
  - { offset: 0x14CEDD, size: 0x8, addend: 0x0, symName: '___36-[RNGestureHandlerModule invalidate]_block_invoke', symObjAddr: 0xB4, symBinAddr: 0xE64C, symSize: 0x8 }
  - { offset: 0x14CF18, size: 0x8, addend: 0x0, symName: ___copy_helper_block_ea8_32s, symObjAddr: 0xBC, symBinAddr: 0xE654, symSize: 0x8 }
  - { offset: 0x14CF3F, size: 0x8, addend: 0x0, symName: ___destroy_helper_block_ea8_32s, symObjAddr: 0xC4, symBinAddr: 0xE65C, symSize: 0x8 }
  - { offset: 0x14CF5E, size: 0x8, addend: 0x0, symName: '-[RNGestureHandlerModule methodQueue]', symObjAddr: 0xCC, symBinAddr: 0xE664, symSize: 0x4 }
  - { offset: 0x14CF94, size: 0x8, addend: 0x0, symName: '-[RNGestureHandlerModule methodQueue]', symObjAddr: 0xCC, symBinAddr: 0xE664, symSize: 0x4 }
  - { offset: 0x14D3C9, size: 0x8, addend: 0x0, symName: __ZNSt3__110__function12__value_funcIFN8facebook3jsi5ValueERNS3_7RuntimeERKS4_PS7_mEEC2B8ne200100EOSB_, symObjAddr: 0x10A4, symBinAddr: 0xF63C, symSize: 0x64 }
  - { offset: 0x14D419, size: 0x8, addend: 0x0, symName: __ZNK8facebook3jsi6Object11setPropertyINS0_8FunctionEEEvRNS0_7RuntimeEPKcOT_, symObjAddr: 0x2C8, symBinAddr: 0xE860, symSize: 0xA4 }
  - { offset: 0x14D615, size: 0x8, addend: 0x0, symName: __Z15decorateRuntimeRN8facebook3jsi7RuntimeE.cold.1, symObjAddr: 0x1A1C, symBinAddr: 0x177A8, symSize: 0x58 }
  - { offset: 0x14D76E, size: 0x8, addend: 0x0, symName: __ZNK8facebook3jsi6Object11setPropertyINS0_8FunctionEEEvRNS0_7RuntimeERKNS0_6StringEOT_, symObjAddr: 0x1118, symBinAddr: 0xF6A0, symSize: 0x90 }
  - { offset: 0x14D949, size: 0x8, addend: 0x0, symName: '-[RNGestureHandlerModule initialize]', symObjAddr: 0x36C, symBinAddr: 0xE904, symSize: 0xB4 }
  - { offset: 0x14D97C, size: 0x8, addend: 0x0, symName: '-[RNGestureHandlerModule install]', symObjAddr: 0x42C, symBinAddr: 0xE9C4, symSize: 0xD8 }
  - { offset: 0x14D9D7, size: 0x8, addend: 0x0, symName: '___33-[RNGestureHandlerModule install]_block_invoke', symObjAddr: 0x504, symBinAddr: 0xEA9C, symSize: 0x50 }
  - { offset: 0x14DA53, size: 0x8, addend: 0x0, symName: '-[RNGestureHandlerModule createGestureHandler:handlerTag:config:]', symObjAddr: 0x560, symBinAddr: 0xEAF8, symSize: 0xD4 }
  - { offset: 0x14DAB6, size: 0x8, addend: 0x0, symName: '___65-[RNGestureHandlerModule createGestureHandler:handlerTag:config:]_block_invoke', symObjAddr: 0x634, symBinAddr: 0xEBCC, symSize: 0x8C }
  - { offset: 0x14DB21, size: 0x8, addend: 0x0, symName: ___copy_helper_block_ea8_32s40s, symObjAddr: 0x6C0, symBinAddr: 0xEC58, symSize: 0x28 }
  - { offset: 0x14DB4A, size: 0x8, addend: 0x0, symName: ___destroy_helper_block_ea8_32s40s, symObjAddr: 0x6E8, symBinAddr: 0xEC80, symSize: 0x28 }
  - { offset: 0x14DB69, size: 0x8, addend: 0x0, symName: '-[RNGestureHandlerModule attachGestureHandler:newView:actionType:]', symObjAddr: 0x71C, symBinAddr: 0xECB4, symSize: 0x54 }
  - { offset: 0x14DBCC, size: 0x8, addend: 0x0, symName: '___66-[RNGestureHandlerModule attachGestureHandler:newView:actionType:]_block_invoke', symObjAddr: 0x770, symBinAddr: 0xED08, symSize: 0xD8 }
  - { offset: 0x14DC37, size: 0x8, addend: 0x0, symName: '-[RNGestureHandlerModule updateGestureHandler:newConfig:]', symObjAddr: 0x854, symBinAddr: 0xEDEC, symSize: 0xA0 }
  - { offset: 0x14DC8A, size: 0x8, addend: 0x0, symName: '___57-[RNGestureHandlerModule updateGestureHandler:newConfig:]_block_invoke', symObjAddr: 0x8F4, symBinAddr: 0xEE8C, symSize: 0x7C }
  - { offset: 0x14DCE5, size: 0x8, addend: 0x0, symName: '-[RNGestureHandlerModule dropGestureHandler:]', symObjAddr: 0x97C, symBinAddr: 0xEF14, symSize: 0x50 }
  - { offset: 0x14DD28, size: 0x8, addend: 0x0, symName: '___45-[RNGestureHandlerModule dropGestureHandler:]_block_invoke', symObjAddr: 0x9CC, symBinAddr: 0xEF64, symSize: 0x78 }
  - { offset: 0x14DD73, size: 0x8, addend: 0x0, symName: '-[RNGestureHandlerModule handleSetJSResponder:blockNativeResponder:]', symObjAddr: 0xA50, symBinAddr: 0xEFE8, symSize: 0x54 }
  - { offset: 0x14DDC2, size: 0x8, addend: 0x0, symName: '___68-[RNGestureHandlerModule handleSetJSResponder:blockNativeResponder:]_block_invoke', symObjAddr: 0xAA4, symBinAddr: 0xF03C, symSize: 0x7C }
  - { offset: 0x14DE1D, size: 0x8, addend: 0x0, symName: '-[RNGestureHandlerModule handleClearJSResponder]', symObjAddr: 0xB2C, symBinAddr: 0xF0C4, symSize: 0xC }
  - { offset: 0x14DE4E, size: 0x8, addend: 0x0, symName: '___48-[RNGestureHandlerModule handleClearJSResponder]_block_invoke', symObjAddr: 0xB38, symBinAddr: 0xF0D0, symSize: 0x8 }
  - { offset: 0x14DE85, size: 0x8, addend: 0x0, symName: '-[RNGestureHandlerModule flushOperations]', symObjAddr: 0xB4C, symBinAddr: 0xF0E4, symSize: 0xEC }
  - { offset: 0x14DEC4, size: 0x8, addend: 0x0, symName: '___41-[RNGestureHandlerModule flushOperations]_block_invoke', symObjAddr: 0xC38, symBinAddr: 0xF1D0, symSize: 0x128 }
  - { offset: 0x14DF42, size: 0x8, addend: 0x0, symName: '-[RNGestureHandlerModule setGestureState:forHandler:]', symObjAddr: 0xD60, symBinAddr: 0xF2F8, symSize: 0x1E0 }
  - { offset: 0x14DFA5, size: 0x8, addend: 0x0, symName: '-[RNGestureHandlerModule addOperationBlock:]', symObjAddr: 0xF40, symBinAddr: 0xF4D8, symSize: 0x5C }
  - { offset: 0x14DFEA, size: 0x8, addend: 0x0, symName: '-[RNGestureHandlerModule supportedEvents]', symObjAddr: 0xF9C, symBinAddr: 0xF534, symSize: 0xC }
  - { offset: 0x14E01E, size: 0x8, addend: 0x0, symName: '-[RNGestureHandlerModule constantsToExport]', symObjAddr: 0xFA8, symBinAddr: 0xF540, symSize: 0xC }
  - { offset: 0x14E119, size: 0x8, addend: 0x0, symName: '-[RNGestureHandlerModule getTurboModule:]', symObjAddr: 0xFB4, symBinAddr: 0xF54C, symSize: 0x3C }
  - { offset: 0x14E1F0, size: 0x8, addend: 0x0, symName: '-[RNGestureHandlerModule viewRegistry_DEPRECATED]', symObjAddr: 0xFF0, symBinAddr: 0xF588, symSize: 0x20 }
  - { offset: 0x14E227, size: 0x8, addend: 0x0, symName: '-[RNGestureHandlerModule setViewRegistry_DEPRECATED:]', symObjAddr: 0x1010, symBinAddr: 0xF5A8, symSize: 0x14 }
  - { offset: 0x14E268, size: 0x8, addend: 0x0, symName: '-[RNGestureHandlerModule dispatchToJSThread]', symObjAddr: 0x1024, symBinAddr: 0xF5BC, symSize: 0x10 }
  - { offset: 0x14E29F, size: 0x8, addend: 0x0, symName: '-[RNGestureHandlerModule setDispatchToJSThread:]', symObjAddr: 0x1034, symBinAddr: 0xF5CC, symSize: 0xC }
  - { offset: 0x14E2DE, size: 0x8, addend: 0x0, symName: '-[RNGestureHandlerModule .cxx_destruct]', symObjAddr: 0x1040, symBinAddr: 0xF5D8, symSize: 0x64 }
  - { offset: 0x14E69C, size: 0x8, addend: 0x0, symName: __ZNSt3__120__shared_ptr_emplaceIN8facebook5react35NativeRNGestureHandlerModuleSpecJSIENS_9allocatorIS3_EEEC2B8ne200100IJRKNS2_15ObjCTurboModule10InitParamsEES5_Li0EEES5_DpOT_, symObjAddr: 0x1200, symBinAddr: 0xF788, symSize: 0x4C }
  - { offset: 0x14E873, size: 0x8, addend: 0x0, symName: __ZNSt3__120__shared_ptr_emplaceIN8facebook5react35NativeRNGestureHandlerModuleSpecJSIENS_9allocatorIS3_EEED1Ev, symObjAddr: 0x124C, symBinAddr: 0xF7D4, symSize: 0x14 }
  - { offset: 0x14E897, size: 0x8, addend: 0x0, symName: __ZNSt3__120__shared_ptr_emplaceIN8facebook5react35NativeRNGestureHandlerModuleSpecJSIENS_9allocatorIS3_EEED1Ev, symObjAddr: 0x124C, symBinAddr: 0xF7D4, symSize: 0x14 }
  - { offset: 0x14E8CE, size: 0x8, addend: 0x0, symName: __ZNSt3__120__shared_ptr_emplaceIN8facebook5react35NativeRNGestureHandlerModuleSpecJSIENS_9allocatorIS3_EEED0Ev, symObjAddr: 0x1260, symBinAddr: 0xF7E8, symSize: 0x24 }
  - { offset: 0x14E9A4, size: 0x8, addend: 0x0, symName: __ZNSt3__120__shared_ptr_emplaceIN8facebook5react35NativeRNGestureHandlerModuleSpecJSIENS_9allocatorIS3_EEE16__on_zero_sharedEv, symObjAddr: 0x1284, symBinAddr: 0xF80C, symSize: 0xC }
  - { offset: 0x14E9CE, size: 0x8, addend: 0x0, symName: __ZNSt3__120__shared_ptr_emplaceIN8facebook5react35NativeRNGestureHandlerModuleSpecJSIENS_9allocatorIS3_EEE16__on_zero_sharedEv, symObjAddr: 0x1284, symBinAddr: 0xF80C, symSize: 0xC }
  - { offset: 0x14E9ED, size: 0x8, addend: 0x0, symName: __ZNSt3__120__shared_ptr_emplaceIN8facebook5react35NativeRNGestureHandlerModuleSpecJSIENS_9allocatorIS3_EEE16__on_zero_sharedEv, symObjAddr: 0x1284, symBinAddr: 0xF80C, symSize: 0xC }
  - { offset: 0x14EA0C, size: 0x8, addend: 0x0, symName: __ZNSt3__120__shared_ptr_emplaceIN8facebook5react35NativeRNGestureHandlerModuleSpecJSIENS_9allocatorIS3_EEE16__on_zero_sharedEv, symObjAddr: 0x1284, symBinAddr: 0xF80C, symSize: 0xC }
  - { offset: 0x14EA38, size: 0x8, addend: 0x0, symName: __ZNSt3__120__shared_ptr_emplaceIN8facebook5react35NativeRNGestureHandlerModuleSpecJSIENS_9allocatorIS3_EEE21__on_zero_shared_weakEv, symObjAddr: 0x1290, symBinAddr: 0xF818, symSize: 0x4 }
  - { offset: 0x14EA6C, size: 0x8, addend: 0x0, symName: __ZNSt3__120__shared_ptr_emplaceIN8facebook5react35NativeRNGestureHandlerModuleSpecJSIENS_9allocatorIS3_EEE21__on_zero_shared_weakEv, symObjAddr: 0x1290, symBinAddr: 0xF818, symSize: 0x4 }
  - { offset: 0x14EA90, size: 0x8, addend: 0x0, symName: __ZNSt3__120__shared_ptr_emplaceIN8facebook5react35NativeRNGestureHandlerModuleSpecJSIENS_9allocatorIS3_EEE21__on_zero_shared_weakEv, symObjAddr: 0x1290, symBinAddr: 0xF818, symSize: 0x4 }
  - { offset: 0x14EAB5, size: 0x8, addend: 0x0, symName: __ZNSt3__120__shared_ptr_emplaceIN8facebook5react35NativeRNGestureHandlerModuleSpecJSIENS_9allocatorIS3_EEE21__on_zero_shared_weakEv, symObjAddr: 0x1290, symBinAddr: 0xF818, symSize: 0x4 }
  - { offset: 0x14EAED, size: 0x8, addend: 0x0, symName: __ZNSt3__120__shared_ptr_emplaceIN8facebook5react35NativeRNGestureHandlerModuleSpecJSIENS_9allocatorIS3_EEE21__on_zero_shared_weakEv, symObjAddr: 0x1290, symBinAddr: 0xF818, symSize: 0x4 }
  - { offset: 0x14EB17, size: 0x8, addend: 0x0, symName: '__ZNSt3__110__function6__funcIZ15decorateRuntimeRN8facebook3jsi7RuntimeEE3$_0NS_9allocatorIS6_EEFNS3_5ValueES5_RKS9_PSA_mEED1Ev', symObjAddr: 0x1294, symBinAddr: 0xF81C, symSize: 0x4 }
  - { offset: 0x14EB43, size: 0x8, addend: 0x0, symName: '__ZNSt3__110__function6__funcIZ15decorateRuntimeRN8facebook3jsi7RuntimeEE3$_0NS_9allocatorIS6_EEFNS3_5ValueES5_RKS9_PSA_mEED0Ev', symObjAddr: 0x1298, symBinAddr: 0xF820, symSize: 0x4 }
  - { offset: 0x14EBFE, size: 0x8, addend: 0x0, symName: '__ZNKSt3__110__function6__funcIZ15decorateRuntimeRN8facebook3jsi7RuntimeEE3$_0NS_9allocatorIS6_EEFNS3_5ValueES5_RKS9_PSA_mEE7__cloneEv', symObjAddr: 0x129C, symBinAddr: 0xF824, symSize: 0x24 }
  - { offset: 0x14ED58, size: 0x8, addend: 0x0, symName: '__ZNKSt3__110__function6__funcIZ15decorateRuntimeRN8facebook3jsi7RuntimeEE3$_0NS_9allocatorIS6_EEFNS3_5ValueES5_RKS9_PSA_mEE7__cloneEPNS0_6__baseISD_EE', symObjAddr: 0x12C0, symBinAddr: 0xF848, symSize: 0x10 }
  - { offset: 0x14ED8D, size: 0x8, addend: 0x0, symName: '__ZNKSt3__110__function6__funcIZ15decorateRuntimeRN8facebook3jsi7RuntimeEE3$_0NS_9allocatorIS6_EEFNS3_5ValueES5_RKS9_PSA_mEE7__cloneEPNS0_6__baseISD_EE', symObjAddr: 0x12C0, symBinAddr: 0xF848, symSize: 0x10 }
  - { offset: 0x14EDAB, size: 0x8, addend: 0x0, symName: '__ZNKSt3__110__function6__funcIZ15decorateRuntimeRN8facebook3jsi7RuntimeEE3$_0NS_9allocatorIS6_EEFNS3_5ValueES5_RKS9_PSA_mEE7__cloneEPNS0_6__baseISD_EE', symObjAddr: 0x12C0, symBinAddr: 0xF848, symSize: 0x10 }
  - { offset: 0x14EDC8, size: 0x8, addend: 0x0, symName: '__ZNSt3__110__function6__funcIZ15decorateRuntimeRN8facebook3jsi7RuntimeEE3$_0NS_9allocatorIS6_EEFNS3_5ValueES5_RKS9_PSA_mEE7destroyEv', symObjAddr: 0x12D0, symBinAddr: 0xF858, symSize: 0x4 }
  - { offset: 0x14EE1E, size: 0x8, addend: 0x0, symName: '__ZNSt3__110__function6__funcIZ15decorateRuntimeRN8facebook3jsi7RuntimeEE3$_0NS_9allocatorIS6_EEFNS3_5ValueES5_RKS9_PSA_mEE18destroy_deallocateEv', symObjAddr: 0x12D4, symBinAddr: 0xF85C, symSize: 0x4 }
  - { offset: 0x14EE53, size: 0x8, addend: 0x0, symName: '__ZNSt3__110__function6__funcIZ15decorateRuntimeRN8facebook3jsi7RuntimeEE3$_0NS_9allocatorIS6_EEFNS3_5ValueES5_RKS9_PSA_mEE18destroy_deallocateEv', symObjAddr: 0x12D4, symBinAddr: 0xF85C, symSize: 0x4 }
  - { offset: 0x14EE78, size: 0x8, addend: 0x0, symName: '__ZNSt3__110__function6__funcIZ15decorateRuntimeRN8facebook3jsi7RuntimeEE3$_0NS_9allocatorIS6_EEFNS3_5ValueES5_RKS9_PSA_mEE18destroy_deallocateEv', symObjAddr: 0x12D4, symBinAddr: 0xF85C, symSize: 0x4 }
  - { offset: 0x14EEAE, size: 0x8, addend: 0x0, symName: '__ZNSt3__110__function6__funcIZ15decorateRuntimeRN8facebook3jsi7RuntimeEE3$_0NS_9allocatorIS6_EEFNS3_5ValueES5_RKS9_PSA_mEE18destroy_deallocateEv', symObjAddr: 0x12D4, symBinAddr: 0xF85C, symSize: 0x4 }
  - { offset: 0x14F28F, size: 0x8, addend: 0x0, symName: '__ZNSt3__110__function6__funcIZ15decorateRuntimeRN8facebook3jsi7RuntimeEE3$_0NS_9allocatorIS6_EEFNS3_5ValueES5_RKS9_PSA_mEEclES5_SB_OSC_Om', symObjAddr: 0x12D8, symBinAddr: 0xF860, symSize: 0x17C }
  - { offset: 0x14F797, size: 0x8, addend: 0x0, symName: __ZN8facebook5react8BridgingINSt3__110shared_ptrIKNS0_10ShadowNodeEEEvE6fromJsERNS_3jsi7RuntimeERKNS8_5ValueE, symObjAddr: 0x149C, symBinAddr: 0xFA24, symSize: 0x300 }
  - { offset: 0x1502FA, size: 0x8, addend: 0x0, symName: '__ZNKSt3__110__function6__funcIZ15decorateRuntimeRN8facebook3jsi7RuntimeEE3$_0NS_9allocatorIS6_EEFNS3_5ValueES5_RKS9_PSA_mEE6targetERKSt9type_info', symObjAddr: 0x1454, symBinAddr: 0xF9DC, symSize: 0x3C }
  - { offset: 0x150349, size: 0x8, addend: 0x0, symName: __ZNKSt9type_infoeqB8ne200100ERKS_, symObjAddr: 0x19D0, symBinAddr: 0xFD24, symSize: 0x4C }
  - { offset: 0x1503EE, size: 0x8, addend: 0x0, symName: '__ZNKSt3__110__function6__funcIZ15decorateRuntimeRN8facebook3jsi7RuntimeEE3$_0NS_9allocatorIS6_EEFNS3_5ValueES5_RKS9_PSA_mEE11target_typeEv', symObjAddr: 0x1490, symBinAddr: 0xFA18, symSize: 0xC }
  - { offset: 0x150D48, size: 0x8, addend: 0x0, symName: __GLOBAL__sub_I_RNGestureHandlerModule.mm, symObjAddr: 0x1D4C, symBinAddr: 0xFD70, symSize: 0x20 }
  - { offset: 0x15341F, size: 0x8, addend: 0x0, symName: '-[RNGestureHandlerPointerTracker initWithGestureHandler:]', symObjAddr: 0x0, symBinAddr: 0xFD90, symSize: 0x64 }
  - { offset: 0x15368C, size: 0x8, addend: 0x0, symName: '-[RNGestureHandlerPointerTracker initWithGestureHandler:]', symObjAddr: 0x0, symBinAddr: 0xFD90, symSize: 0x64 }
  - { offset: 0x1536F2, size: 0x8, addend: 0x0, symName: '-[RNGestureHandlerPointerTracker registerTouch:]', symObjAddr: 0x64, symBinAddr: 0xFDF4, symSize: 0x68 }
  - { offset: 0x153758, size: 0x8, addend: 0x0, symName: '-[RNGestureHandlerPointerTracker unregisterTouch:]', symObjAddr: 0xCC, symBinAddr: 0xFE5C, symSize: 0x4C }
  - { offset: 0x1537BE, size: 0x8, addend: 0x0, symName: '-[RNGestureHandlerPointerTracker findTouchIndex:]', symObjAddr: 0x118, symBinAddr: 0xFEA8, symSize: 0x2C }
  - { offset: 0x153822, size: 0x8, addend: 0x0, symName: '-[RNGestureHandlerPointerTracker registeredTouchesCount]', symObjAddr: 0x144, symBinAddr: 0xFED4, symSize: 0x3C }
  - { offset: 0x153882, size: 0x8, addend: 0x0, symName: '-[RNGestureHandlerPointerTracker extractPointerData:forTouch:]', symObjAddr: 0x180, symBinAddr: 0xFF10, symSize: 0x208 }
  - { offset: 0x1538F9, size: 0x8, addend: 0x0, symName: '-[RNGestureHandlerPointerTracker extractAllTouches]', symObjAddr: 0x388, symBinAddr: 0x10118, symSize: 0x124 }
  - { offset: 0x1539A6, size: 0x8, addend: 0x0, symName: '-[RNGestureHandlerPointerTracker touchesBegan:withEvent:]', symObjAddr: 0x4AC, symBinAddr: 0x1023C, symSize: 0x1BC }
  - { offset: 0x153A61, size: 0x8, addend: 0x0, symName: '-[RNGestureHandlerPointerTracker touchesMoved:withEvent:]', symObjAddr: 0x668, symBinAddr: 0x103F8, symSize: 0x1AC }
  - { offset: 0x153B1C, size: 0x8, addend: 0x0, symName: '-[RNGestureHandlerPointerTracker touchesEnded:withEvent:]', symObjAddr: 0x814, symBinAddr: 0x105A4, symSize: 0x1BC }
  - { offset: 0x153BD7, size: 0x8, addend: 0x0, symName: '-[RNGestureHandlerPointerTracker touchesCancelled:withEvent:]', symObjAddr: 0x9D0, symBinAddr: 0x10760, symSize: 0x54 }
  - { offset: 0x153C22, size: 0x8, addend: 0x0, symName: '-[RNGestureHandlerPointerTracker reset]', symObjAddr: 0xA24, symBinAddr: 0x107B4, symSize: 0x88 }
  - { offset: 0x153C55, size: 0x8, addend: 0x0, symName: '-[RNGestureHandlerPointerTracker cancelPointers]', symObjAddr: 0xAAC, symBinAddr: 0x1083C, symSize: 0x158 }
  - { offset: 0x153D11, size: 0x8, addend: 0x0, symName: '-[RNGestureHandlerPointerTracker sendEvent]', symObjAddr: 0xC04, symBinAddr: 0x10994, symSize: 0x124 }
  - { offset: 0x153D44, size: 0x8, addend: 0x0, symName: '-[RNGestureHandlerPointerTracker eventType]', symObjAddr: 0xD28, symBinAddr: 0x10AB8, symSize: 0x8 }
  - { offset: 0x153D7B, size: 0x8, addend: 0x0, symName: '-[RNGestureHandlerPointerTracker setEventType:]', symObjAddr: 0xD30, symBinAddr: 0x10AC0, symSize: 0x8 }
  - { offset: 0x153DB8, size: 0x8, addend: 0x0, symName: '-[RNGestureHandlerPointerTracker changedPointersData]', symObjAddr: 0xD38, symBinAddr: 0x10AC8, symSize: 0x8 }
  - { offset: 0x153DEF, size: 0x8, addend: 0x0, symName: '-[RNGestureHandlerPointerTracker setChangedPointersData:]', symObjAddr: 0xD40, symBinAddr: 0x10AD0, symSize: 0xC }
  - { offset: 0x153E30, size: 0x8, addend: 0x0, symName: '-[RNGestureHandlerPointerTracker allPointersData]', symObjAddr: 0xD4C, symBinAddr: 0x10ADC, symSize: 0x8 }
  - { offset: 0x153E67, size: 0x8, addend: 0x0, symName: '-[RNGestureHandlerPointerTracker setAllPointersData:]', symObjAddr: 0xD54, symBinAddr: 0x10AE4, symSize: 0xC }
  - { offset: 0x153EA8, size: 0x8, addend: 0x0, symName: '-[RNGestureHandlerPointerTracker trackedPointersCount]', symObjAddr: 0xD60, symBinAddr: 0x10AF0, symSize: 0x8 }
  - { offset: 0x153EDF, size: 0x8, addend: 0x0, symName: '-[RNGestureHandlerPointerTracker setTrackedPointersCount:]', symObjAddr: 0xD68, symBinAddr: 0x10AF8, symSize: 0x8 }
  - { offset: 0x153F1C, size: 0x8, addend: 0x0, symName: '-[RNGestureHandlerPointerTracker .cxx_destruct]', symObjAddr: 0xD70, symBinAddr: 0x10B00, symSize: 0x60 }
  - { offset: 0x154017, size: 0x8, addend: 0x0, symName: '-[RNGestureHandlerRegistry init]', symObjAddr: 0x0, symBinAddr: 0x10B60, symSize: 0x60 }
  - { offset: 0x1540D3, size: 0x8, addend: 0x0, symName: '-[RNGestureHandlerRegistry init]', symObjAddr: 0x0, symBinAddr: 0x10B60, symSize: 0x60 }
  - { offset: 0x15410A, size: 0x8, addend: 0x0, symName: '-[RNGestureHandlerRegistry handlerWithTag:]', symObjAddr: 0x60, symBinAddr: 0x10BC0, symSize: 0x8 }
  - { offset: 0x15414F, size: 0x8, addend: 0x0, symName: '-[RNGestureHandlerRegistry registerGestureHandler:]', symObjAddr: 0x68, symBinAddr: 0x10BC8, symSize: 0x50 }
  - { offset: 0x154192, size: 0x8, addend: 0x0, symName: '-[RNGestureHandlerRegistry attachHandlerWithTag:toView:withActionType:]', symObjAddr: 0xB8, symBinAddr: 0x10C18, symSize: 0x74 }
  - { offset: 0x154205, size: 0x8, addend: 0x0, symName: '-[RNGestureHandlerRegistry dropHandlerWithTag:]', symObjAddr: 0x12C, symBinAddr: 0x10C8C, symSize: 0x64 }
  - { offset: 0x154258, size: 0x8, addend: 0x0, symName: '-[RNGestureHandlerRegistry dropAllHandlers]', symObjAddr: 0x190, symBinAddr: 0x10CF0, symSize: 0x110 }
  - { offset: 0x1542C1, size: 0x8, addend: 0x0, symName: '-[RNGestureHandlerRegistry .cxx_destruct]', symObjAddr: 0x2A0, symBinAddr: 0x10E00, symSize: 0xC }
  - { offset: 0x1544D2, size: 0x8, addend: 0x0, symName: __Z27RNGestureHandlerRootViewClsv, symObjAddr: 0x0, symBinAddr: 0x10E0C, symSize: 0x8 }
  - { offset: 0x1544E0, size: 0x8, addend: 0x0, symName: __Z27RNGestureHandlerRootViewClsv, symObjAddr: 0x0, symBinAddr: 0x10E0C, symSize: 0x8 }
  - { offset: 0x156FEE, size: 0x8, addend: 0x0, symName: '-[RNGHStylusData init]', symObjAddr: 0x0, symBinAddr: 0x10E14, symSize: 0x88 }
  - { offset: 0x157096, size: 0x8, addend: 0x0, symName: '-[RNGHStylusData init]', symObjAddr: 0x0, symBinAddr: 0x10E14, symSize: 0x88 }
  - { offset: 0x1570CD, size: 0x8, addend: 0x0, symName: '-[RNGHStylusData toDictionary]', symObjAddr: 0x88, symBinAddr: 0x10E9C, symSize: 0x150 }
  - { offset: 0x157104, size: 0x8, addend: 0x0, symName: '-[RNGHStylusData tiltX]', symObjAddr: 0x1D8, symBinAddr: 0x10FEC, symSize: 0x8 }
  - { offset: 0x157139, size: 0x8, addend: 0x0, symName: '-[RNGHStylusData setTiltX:]', symObjAddr: 0x1E0, symBinAddr: 0x10FF4, symSize: 0x8 }
  - { offset: 0x157177, size: 0x8, addend: 0x0, symName: '-[RNGHStylusData tiltY]', symObjAddr: 0x1E8, symBinAddr: 0x10FFC, symSize: 0x8 }
  - { offset: 0x1571AC, size: 0x8, addend: 0x0, symName: '-[RNGHStylusData setTiltY:]', symObjAddr: 0x1F0, symBinAddr: 0x11004, symSize: 0x8 }
  - { offset: 0x1571EA, size: 0x8, addend: 0x0, symName: '-[RNGHStylusData altitudeAngle]', symObjAddr: 0x1F8, symBinAddr: 0x1100C, symSize: 0x8 }
  - { offset: 0x15721F, size: 0x8, addend: 0x0, symName: '-[RNGHStylusData setAltitudeAngle:]', symObjAddr: 0x200, symBinAddr: 0x11014, symSize: 0x8 }
  - { offset: 0x15725D, size: 0x8, addend: 0x0, symName: '-[RNGHStylusData azimuthAngle]', symObjAddr: 0x208, symBinAddr: 0x1101C, symSize: 0x8 }
  - { offset: 0x157292, size: 0x8, addend: 0x0, symName: '-[RNGHStylusData setAzimuthAngle:]', symObjAddr: 0x210, symBinAddr: 0x11024, symSize: 0x8 }
  - { offset: 0x1572D0, size: 0x8, addend: 0x0, symName: '-[RNGHStylusData pressure]', symObjAddr: 0x218, symBinAddr: 0x1102C, symSize: 0x8 }
  - { offset: 0x157305, size: 0x8, addend: 0x0, symName: '-[RNGHStylusData setPressure:]', symObjAddr: 0x220, symBinAddr: 0x11034, symSize: 0x8 }
  - { offset: 0x15739A, size: 0x8, addend: 0x0, symName: '-[Vector initWithX:withY:]', symObjAddr: 0x0, symBinAddr: 0x1103C, symSize: 0xC4 }
  - { offset: 0x15749C, size: 0x8, addend: 0x0, symName: '-[Vector initWithX:withY:]', symObjAddr: 0x0, symBinAddr: 0x1103C, symSize: 0xC4 }
  - { offset: 0x157519, size: 0x8, addend: 0x0, symName: '+[Vector fromDirection:]', symObjAddr: 0xC4, symBinAddr: 0x11100, symSize: 0xD4 }
  - { offset: 0x15755C, size: 0x8, addend: 0x0, symName: '+[Vector fromVelocityX:withVelocityY:]', symObjAddr: 0x198, symBinAddr: 0x111D4, symSize: 0x38 }
  - { offset: 0x1575AF, size: 0x8, addend: 0x0, symName: '-[Vector computeSimilarity:]', symObjAddr: 0x1D0, symBinAddr: 0x1120C, symSize: 0x70 }
  - { offset: 0x1575F6, size: 0x8, addend: 0x0, symName: '-[Vector isSimilar:withThreshold:]', symObjAddr: 0x240, symBinAddr: 0x1127C, symSize: 0x28 }
  - { offset: 0x15764D, size: 0x8, addend: 0x0, symName: '-[Vector x]', symObjAddr: 0x268, symBinAddr: 0x112A4, symSize: 0x8 }
  - { offset: 0x157682, size: 0x8, addend: 0x0, symName: '-[Vector y]', symObjAddr: 0x270, symBinAddr: 0x112AC, symSize: 0x8 }
  - { offset: 0x1576B7, size: 0x8, addend: 0x0, symName: '-[Vector unitX]', symObjAddr: 0x278, symBinAddr: 0x112B4, symSize: 0x8 }
  - { offset: 0x1576EC, size: 0x8, addend: 0x0, symName: '-[Vector unitY]', symObjAddr: 0x280, symBinAddr: 0x112BC, symSize: 0x8 }
  - { offset: 0x157721, size: 0x8, addend: 0x0, symName: '-[Vector magnitude]', symObjAddr: 0x288, symBinAddr: 0x112C4, symSize: 0x8 }
  - { offset: 0x1577F1, size: 0x8, addend: 0x0, symName: '-[RNBetterHoverGestureRecognizer initWithGestureHandler:]', symObjAddr: 0x0, symBinAddr: 0x112CC, symSize: 0x84 }
  - { offset: 0x157A73, size: 0x8, addend: 0x0, symName: '-[RNBetterHoverGestureRecognizer initWithGestureHandler:]', symObjAddr: 0x0, symBinAddr: 0x112CC, symSize: 0x84 }
  - { offset: 0x157ABA, size: 0x8, addend: 0x0, symName: '-[RNBetterHoverGestureRecognizer triggerAction]', symObjAddr: 0x84, symBinAddr: 0x11350, symSize: 0x44 }
  - { offset: 0x157AED, size: 0x8, addend: 0x0, symName: '-[RNBetterHoverGestureRecognizer cancel]', symObjAddr: 0xC8, symBinAddr: 0x11394, symSize: 0x8 }
  - { offset: 0x157B1E, size: 0x8, addend: 0x0, symName: '-[RNBetterHoverGestureRecognizer reset]', symObjAddr: 0xD0, symBinAddr: 0x1139C, symSize: 0x5C }
  - { offset: 0x157B51, size: 0x8, addend: 0x0, symName: '-[RNBetterHoverGestureRecognizer pointerInteraction:styleForRegion:]', symObjAddr: 0x12C, symBinAddr: 0x113F8, symSize: 0x100 }
  - { offset: 0x157BCB, size: 0x8, addend: 0x0, symName: '-[RNBetterHoverGestureRecognizer hoverEffect]', symObjAddr: 0x22C, symBinAddr: 0x114F8, symSize: 0x10 }
  - { offset: 0x157C02, size: 0x8, addend: 0x0, symName: '-[RNBetterHoverGestureRecognizer setHoverEffect:]', symObjAddr: 0x23C, symBinAddr: 0x11508, symSize: 0x10 }
  - { offset: 0x157C3F, size: 0x8, addend: 0x0, symName: '-[RNBetterHoverGestureRecognizer .cxx_destruct]', symObjAddr: 0x24C, symBinAddr: 0x11518, symSize: 0x10 }
  - { offset: 0x157C72, size: 0x8, addend: 0x0, symName: '-[RNHoverGestureHandler initWithTag:]', symObjAddr: 0x25C, symBinAddr: 0x11528, symSize: 0x9C }
  - { offset: 0x157CB9, size: 0x8, addend: 0x0, symName: '-[RNHoverGestureHandler bindToView:]', symObjAddr: 0x2F8, symBinAddr: 0x115C4, symSize: 0x70 }
  - { offset: 0x157CFC, size: 0x8, addend: 0x0, symName: '-[RNHoverGestureHandler unbindFromView]', symObjAddr: 0x368, symBinAddr: 0x11634, symSize: 0x7C }
  - { offset: 0x157D2F, size: 0x8, addend: 0x0, symName: '-[RNHoverGestureHandler resetConfig]', symObjAddr: 0x3E4, symBinAddr: 0x116B0, symSize: 0x58 }
  - { offset: 0x157D81, size: 0x8, addend: 0x0, symName: '-[RNHoverGestureHandler configure:]', symObjAddr: 0x43C, symBinAddr: 0x11708, symSize: 0xB4 }
  - { offset: 0x157DFE, size: 0x8, addend: 0x0, symName: '-[RNHoverGestureHandler eventExtraData:]', symObjAddr: 0x4F0, symBinAddr: 0x117BC, symSize: 0xD0 }
  - { offset: 0x157E41, size: 0x8, addend: 0x0, symName: '-[RNHoverGestureHandler .cxx_destruct]', symObjAddr: 0x5C0, symBinAddr: 0x1188C, symSize: 0x14 }
  - { offset: 0x157F7B, size: 0x8, addend: 0x0, symName: '-[RNBetterLongPressGestureRecognizer initWithGestureHandler:]', symObjAddr: 0x0, symBinAddr: 0x118A0, symSize: 0x78 }
  - { offset: 0x1581EA, size: 0x8, addend: 0x0, symName: '-[RNBetterLongPressGestureRecognizer initWithGestureHandler:]', symObjAddr: 0x0, symBinAddr: 0x118A0, symSize: 0x78 }
  - { offset: 0x158231, size: 0x8, addend: 0x0, symName: '-[RNBetterLongPressGestureRecognizer handleGesture:]', symObjAddr: 0x78, symBinAddr: 0x11918, symSize: 0x60 }
  - { offset: 0x15828E, size: 0x8, addend: 0x0, symName: '-[RNBetterLongPressGestureRecognizer triggerAction]', symObjAddr: 0xD8, symBinAddr: 0x11978, symSize: 0x8 }
  - { offset: 0x1582BF, size: 0x8, addend: 0x0, symName: '-[RNBetterLongPressGestureRecognizer translationInView]', symObjAddr: 0xE0, symBinAddr: 0x11980, symSize: 0x60 }
  - { offset: 0x158306, size: 0x8, addend: 0x0, symName: '-[RNBetterLongPressGestureRecognizer touchesBegan:withEvent:]', symObjAddr: 0x140, symBinAddr: 0x119E0, symSize: 0x128 }
  - { offset: 0x158367, size: 0x8, addend: 0x0, symName: '-[RNBetterLongPressGestureRecognizer touchesMoved:withEvent:]', symObjAddr: 0x268, symBinAddr: 0x11B08, symSize: 0xDC }
  - { offset: 0x1583BA, size: 0x8, addend: 0x0, symName: '-[RNBetterLongPressGestureRecognizer touchesEnded:withEvent:]', symObjAddr: 0x344, symBinAddr: 0x11BE4, symSize: 0xA4 }
  - { offset: 0x15840D, size: 0x8, addend: 0x0, symName: '-[RNBetterLongPressGestureRecognizer touchesCancelled:withEvent:]', symObjAddr: 0x3E8, symBinAddr: 0x11C88, symSize: 0xA4 }
  - { offset: 0x158460, size: 0x8, addend: 0x0, symName: '-[RNBetterLongPressGestureRecognizer shouldCancelGesture]', symObjAddr: 0x48C, symBinAddr: 0x11D2C, symSize: 0x150 }
  - { offset: 0x1584C7, size: 0x8, addend: 0x0, symName: '-[RNBetterLongPressGestureRecognizer reset]', symObjAddr: 0x5DC, symBinAddr: 0x11E7C, symSize: 0x9C }
  - { offset: 0x1584FA, size: 0x8, addend: 0x0, symName: '-[RNBetterLongPressGestureRecognizer getDuration]', symObjAddr: 0x678, symBinAddr: 0x11F18, symSize: 0x30 }
  - { offset: 0x158531, size: 0x8, addend: 0x0, symName: '-[RNBetterLongPressGestureRecognizer .cxx_destruct]', symObjAddr: 0x6A8, symBinAddr: 0x11F48, symSize: 0x10 }
  - { offset: 0x158564, size: 0x8, addend: 0x0, symName: '-[RNLongPressGestureHandler initWithTag:]', symObjAddr: 0x6B8, symBinAddr: 0x11F58, symSize: 0x74 }
  - { offset: 0x1585AB, size: 0x8, addend: 0x0, symName: '-[RNLongPressGestureHandler resetConfig]', symObjAddr: 0x72C, symBinAddr: 0x11FCC, symSize: 0x70 }
  - { offset: 0x1585EE, size: 0x8, addend: 0x0, symName: '-[RNLongPressGestureHandler configure:]', symObjAddr: 0x79C, symBinAddr: 0x1203C, symSize: 0x12C }
  - { offset: 0x15864D, size: 0x8, addend: 0x0, symName: '-[RNLongPressGestureHandler state]', symObjAddr: 0x8C8, symBinAddr: 0x12168, symSize: 0x64 }
  - { offset: 0x158684, size: 0x8, addend: 0x0, symName: '-[RNLongPressGestureHandler gestureRecognizerShouldBegin:]', symObjAddr: 0x92C, symBinAddr: 0x121CC, symSize: 0x5C }
  - { offset: 0x1586EF, size: 0x8, addend: 0x0, symName: '-[RNLongPressGestureHandler eventExtraData:]', symObjAddr: 0x988, symBinAddr: 0x12228, symSize: 0x108 }
  - { offset: 0x15882B, size: 0x8, addend: 0x0, symName: '-[RNManualActivationRecognizer initWithGestureHandler:]', symObjAddr: 0x0, symBinAddr: 0x12330, symSize: 0xA8 }
  - { offset: 0x158A51, size: 0x8, addend: 0x0, symName: '-[RNManualActivationRecognizer initWithGestureHandler:]', symObjAddr: 0x0, symBinAddr: 0x12330, symSize: 0xA8 }
  - { offset: 0x158A98, size: 0x8, addend: 0x0, symName: '-[RNManualActivationRecognizer handleGesture:]', symObjAddr: 0xA8, symBinAddr: 0x123D8, symSize: 0x48 }
  - { offset: 0x158ADB, size: 0x8, addend: 0x0, symName: '-[RNManualActivationRecognizer touchesBegan:withEvent:]', symObjAddr: 0xF0, symBinAddr: 0x12420, symSize: 0x84 }
  - { offset: 0x158B2E, size: 0x8, addend: 0x0, symName: '-[RNManualActivationRecognizer touchesEnded:withEvent:]', symObjAddr: 0x174, symBinAddr: 0x124A4, symSize: 0x94 }
  - { offset: 0x158B81, size: 0x8, addend: 0x0, symName: '-[RNManualActivationRecognizer touchesCancelled:withEvent:]', symObjAddr: 0x208, symBinAddr: 0x12538, symSize: 0x60 }
  - { offset: 0x158BD4, size: 0x8, addend: 0x0, symName: '-[RNManualActivationRecognizer reset]', symObjAddr: 0x268, symBinAddr: 0x12598, symSize: 0x48 }
  - { offset: 0x158C07, size: 0x8, addend: 0x0, symName: '-[RNManualActivationRecognizer fail]', symObjAddr: 0x2B0, symBinAddr: 0x125E0, symSize: 0x8 }
  - { offset: 0x158C38, size: 0x8, addend: 0x0, symName: '-[RNManualActivationRecognizer gestureRecognizer:shouldRecognizeSimultaneouslyWithGestureRecognizer:]', symObjAddr: 0x2B8, symBinAddr: 0x125E8, symSize: 0x8 }
  - { offset: 0x158C83, size: 0x8, addend: 0x0, symName: '-[RNManualActivationRecognizer shouldBeRequiredToFailByGestureRecognizer:]', symObjAddr: 0x2C0, symBinAddr: 0x125F0, symSize: 0x88 }
  - { offset: 0x158CDA, size: 0x8, addend: 0x0, symName: '-[RNManualActivationRecognizer .cxx_destruct]', symObjAddr: 0x348, symBinAddr: 0x12678, symSize: 0x14 }
  - { offset: 0x158D7E, size: 0x8, addend: 0x0, symName: '-[RNManualRecognizer initWithGestureHandler:]', symObjAddr: 0x0, symBinAddr: 0x1268C, symSize: 0x88 }
  - { offset: 0x158FB7, size: 0x8, addend: 0x0, symName: '-[RNManualRecognizer initWithGestureHandler:]', symObjAddr: 0x0, symBinAddr: 0x1268C, symSize: 0x88 }
  - { offset: 0x158FFE, size: 0x8, addend: 0x0, symName: '-[RNManualRecognizer interactionsBegan:withEvent:]', symObjAddr: 0x88, symBinAddr: 0x12714, symSize: 0xAC }
  - { offset: 0x159051, size: 0x8, addend: 0x0, symName: '-[RNManualRecognizer interactionsMoved:withEvent:]', symObjAddr: 0x134, symBinAddr: 0x127C0, symSize: 0xD4 }
  - { offset: 0x1590A4, size: 0x8, addend: 0x0, symName: '-[RNManualRecognizer interactionsEnded:withEvent:]', symObjAddr: 0x208, symBinAddr: 0x12894, symSize: 0x9C }
  - { offset: 0x1590F7, size: 0x8, addend: 0x0, symName: '-[RNManualRecognizer touchesBegan:withEvent:]', symObjAddr: 0x2A4, symBinAddr: 0x12930, symSize: 0x9C }
  - { offset: 0x15914A, size: 0x8, addend: 0x0, symName: '-[RNManualRecognizer touchesMoved:withEvent:]', symObjAddr: 0x340, symBinAddr: 0x129CC, symSize: 0x80 }
  - { offset: 0x15919D, size: 0x8, addend: 0x0, symName: '-[RNManualRecognizer touchesEnded:withEvent:]', symObjAddr: 0x3C0, symBinAddr: 0x12A4C, symSize: 0x80 }
  - { offset: 0x1591F0, size: 0x8, addend: 0x0, symName: '-[RNManualRecognizer touchesCancelled:withEvent:]', symObjAddr: 0x440, symBinAddr: 0x12ACC, symSize: 0xA4 }
  - { offset: 0x159243, size: 0x8, addend: 0x0, symName: '-[RNManualRecognizer reset]', symObjAddr: 0x4E4, symBinAddr: 0x12B70, symSize: 0x98 }
  - { offset: 0x159276, size: 0x8, addend: 0x0, symName: '-[RNManualRecognizer shouldFail]', symObjAddr: 0x57C, symBinAddr: 0x12C08, symSize: 0x68 }
  - { offset: 0x1592AD, size: 0x8, addend: 0x0, symName: '-[RNManualRecognizer .cxx_destruct]', symObjAddr: 0x5E4, symBinAddr: 0x12C70, symSize: 0x10 }
  - { offset: 0x1592E0, size: 0x8, addend: 0x0, symName: '-[RNManualGestureHandler initWithTag:]', symObjAddr: 0x5F4, symBinAddr: 0x12C80, symSize: 0x74 }
  - { offset: 0x159411, size: 0x8, addend: 0x0, symName: __ZN8facebook5react17HostPlatformColorL14UndefinedColorE, symObjAddr: 0x240E0, symBinAddr: 0x2D480, symSize: 0x0 }
  - { offset: 0x15A0CD, size: 0x8, addend: 0x0, symName: '-[RNDummyGestureRecognizer initWithGestureHandler:]', symObjAddr: 0x0, symBinAddr: 0x12CF4, symSize: 0x88 }
  - { offset: 0x15A114, size: 0x8, addend: 0x0, symName: '-[RNDummyGestureRecognizer touchesBegan:withEvent:]', symObjAddr: 0x88, symBinAddr: 0x12D7C, symSize: 0xC4 }
  - { offset: 0x15A167, size: 0x8, addend: 0x0, symName: '-[RNDummyGestureRecognizer touchesMoved:withEvent:]', symObjAddr: 0x14C, symBinAddr: 0x12E40, symSize: 0xB8 }
  - { offset: 0x15A1BA, size: 0x8, addend: 0x0, symName: '-[RNDummyGestureRecognizer touchesEnded:withEvent:]', symObjAddr: 0x204, symBinAddr: 0x12EF8, symSize: 0x110 }
  - { offset: 0x15A20D, size: 0x8, addend: 0x0, symName: '-[RNDummyGestureRecognizer touchesCancelled:withEvent:]', symObjAddr: 0x314, symBinAddr: 0x13008, symSize: 0xC0 }
  - { offset: 0x15A260, size: 0x8, addend: 0x0, symName: '-[RNDummyGestureRecognizer reset]', symObjAddr: 0x3D4, symBinAddr: 0x130C8, symSize: 0xA8 }
  - { offset: 0x15A293, size: 0x8, addend: 0x0, symName: '-[RNDummyGestureRecognizer updateStateIfScrollView]', symObjAddr: 0x47C, symBinAddr: 0x13170, symSize: 0x1C8 }
  - { offset: 0x15A2ED, size: 0x8, addend: 0x0, symName: '-[RNDummyGestureRecognizer .cxx_destruct]', symObjAddr: 0x644, symBinAddr: 0x13338, symSize: 0x10 }
  - { offset: 0x15A320, size: 0x8, addend: 0x0, symName: '-[RNNativeViewGestureHandler initWithTag:]', symObjAddr: 0x654, symBinAddr: 0x13348, symSize: 0xB0 }
  - { offset: 0x15A367, size: 0x8, addend: 0x0, symName: '-[RNNativeViewGestureHandler configure:]', symObjAddr: 0x704, symBinAddr: 0x133F8, symSize: 0xF4 }
  - { offset: 0x15A3AA, size: 0x8, addend: 0x0, symName: '-[RNNativeViewGestureHandler bindToView:]', symObjAddr: 0x7F8, symBinAddr: 0x134EC, symSize: 0x154 }
  - { offset: 0x15A410, size: 0x8, addend: 0x0, symName: '-[RNNativeViewGestureHandler handleTouchDown:forEvent:]', symObjAddr: 0x94C, symBinAddr: 0x13640, symSize: 0x2A8 }
  - { offset: 0x15A491, size: 0x8, addend: 0x0, symName: '-[RNNativeViewGestureHandler handleTouchUpOutside:forEvent:]', symObjAddr: 0xBF4, symBinAddr: 0x138E8, symSize: 0x98 }
  - { offset: 0x15A4E0, size: 0x8, addend: 0x0, symName: '-[RNNativeViewGestureHandler handleTouchUpInside:forEvent:]', symObjAddr: 0xC8C, symBinAddr: 0x13980, symSize: 0x98 }
  - { offset: 0x15A52F, size: 0x8, addend: 0x0, symName: '-[RNNativeViewGestureHandler handleDragExit:forEvent:]', symObjAddr: 0xD24, symBinAddr: 0x13A18, symSize: 0x15C }
  - { offset: 0x15A595, size: 0x8, addend: 0x0, symName: '-[RNNativeViewGestureHandler handleDragEnter:forEvent:]', symObjAddr: 0xE80, symBinAddr: 0x13B74, symSize: 0x98 }
  - { offset: 0x15A5E4, size: 0x8, addend: 0x0, symName: '-[RNNativeViewGestureHandler handleTouchCancel:forEvent:]', symObjAddr: 0xF18, symBinAddr: 0x13C0C, symSize: 0x98 }
  - { offset: 0x15A6BE, size: 0x8, addend: 0x0, symName: __GLOBAL__sub_I_RNNativeViewHandler.mm, symObjAddr: 0x1258, symBinAddr: 0x13CA4, symSize: 0x20 }
  - { offset: 0x15C65D, size: 0x8, addend: 0x0, symName: '-[RNBetterPanGestureRecognizer initWithGestureHandler:]', symObjAddr: 0x0, symBinAddr: 0x13CC4, symSize: 0x138 }
  - { offset: 0x15CA8F, size: 0x8, addend: 0x0, symName: '-[RNBetterPanGestureRecognizer initWithGestureHandler:]', symObjAddr: 0x0, symBinAddr: 0x13CC4, symSize: 0x138 }
  - { offset: 0x15CAD6, size: 0x8, addend: 0x0, symName: '-[RNBetterPanGestureRecognizer triggerAction]', symObjAddr: 0x138, symBinAddr: 0x13DFC, symSize: 0x44 }
  - { offset: 0x15CB09, size: 0x8, addend: 0x0, symName: '-[RNBetterPanGestureRecognizer setMinimumNumberOfTouches:]', symObjAddr: 0x17C, symBinAddr: 0x13E40, symSize: 0x10 }
  - { offset: 0x15CBA6, size: 0x8, addend: 0x0, symName: '-[RNBetterPanGestureRecognizer tryUpdateStylusData:]', symObjAddr: 0x18C, symBinAddr: 0x13E50, symSize: 0x23C }
  - { offset: 0x15CC74, size: 0x8, addend: 0x0, symName: '-[RNBetterPanGestureRecognizer activateAfterLongPress]', symObjAddr: 0x3C8, symBinAddr: 0x1408C, symSize: 0x50 }
  - { offset: 0x15CCA7, size: 0x8, addend: 0x0, symName: '-[RNBetterPanGestureRecognizer interactionsBegan:withEvent:]', symObjAddr: 0x418, symBinAddr: 0x140DC, symSize: 0x158 }
  - { offset: 0x15CCFA, size: 0x8, addend: 0x0, symName: '-[RNBetterPanGestureRecognizer interactionsMoved:withEvent:]', symObjAddr: 0x570, symBinAddr: 0x14234, symSize: 0x1D8 }
  - { offset: 0x15CD4D, size: 0x8, addend: 0x0, symName: '-[RNBetterPanGestureRecognizer interactionsEnded:withEvent:]', symObjAddr: 0x748, symBinAddr: 0x1440C, symSize: 0x88 }
  - { offset: 0x15CDA0, size: 0x8, addend: 0x0, symName: '-[RNBetterPanGestureRecognizer interactionsCancelled:withEvent:]', symObjAddr: 0x7D0, symBinAddr: 0x14494, symSize: 0x88 }
  - { offset: 0x15CDF3, size: 0x8, addend: 0x0, symName: '-[RNBetterPanGestureRecognizer touchesBegan:withEvent:]', symObjAddr: 0x858, symBinAddr: 0x1451C, symSize: 0x78 }
  - { offset: 0x15CE46, size: 0x8, addend: 0x0, symName: '-[RNBetterPanGestureRecognizer touchesMoved:withEvent:]', symObjAddr: 0x8D0, symBinAddr: 0x14594, symSize: 0x80 }
  - { offset: 0x15CE99, size: 0x8, addend: 0x0, symName: '-[RNBetterPanGestureRecognizer touchesEnded:withEvent:]', symObjAddr: 0x950, symBinAddr: 0x14614, symSize: 0x80 }
  - { offset: 0x15CEEC, size: 0x8, addend: 0x0, symName: '-[RNBetterPanGestureRecognizer touchesCancelled:withEvent:]', symObjAddr: 0x9D0, symBinAddr: 0x14694, symSize: 0x80 }
  - { offset: 0x15CF3F, size: 0x8, addend: 0x0, symName: '-[RNBetterPanGestureRecognizer reset]', symObjAddr: 0xA50, symBinAddr: 0x14714, symSize: 0xC8 }
  - { offset: 0x15CF8D, size: 0x8, addend: 0x0, symName: '-[RNBetterPanGestureRecognizer updateHasCustomActivationCriteria]', symObjAddr: 0xB18, symBinAddr: 0x147DC, symSize: 0xB8 }
  - { offset: 0x15CFDF, size: 0x8, addend: 0x0, symName: '-[RNBetterPanGestureRecognizer shouldFailUnderCustomCriteria]', symObjAddr: 0xBD0, symBinAddr: 0x14894, symSize: 0x110 }
  - { offset: 0x15D048, size: 0x8, addend: 0x0, symName: '-[RNBetterPanGestureRecognizer shouldActivateUnderCustomCriteria]', symObjAddr: 0xCE0, symBinAddr: 0x149A4, symSize: 0x1BC }
  - { offset: 0x15D0A2, size: 0x8, addend: 0x0, symName: '-[RNBetterPanGestureRecognizer minDistSq]', symObjAddr: 0xE9C, symBinAddr: 0x14B60, symSize: 0x10 }
  - { offset: 0x15D0D7, size: 0x8, addend: 0x0, symName: '-[RNBetterPanGestureRecognizer setMinDistSq:]', symObjAddr: 0xEAC, symBinAddr: 0x14B70, symSize: 0x10 }
  - { offset: 0x15D115, size: 0x8, addend: 0x0, symName: '-[RNBetterPanGestureRecognizer minVelocityX]', symObjAddr: 0xEBC, symBinAddr: 0x14B80, symSize: 0x10 }
  - { offset: 0x15D14A, size: 0x8, addend: 0x0, symName: '-[RNBetterPanGestureRecognizer setMinVelocityX:]', symObjAddr: 0xECC, symBinAddr: 0x14B90, symSize: 0x10 }
  - { offset: 0x15D188, size: 0x8, addend: 0x0, symName: '-[RNBetterPanGestureRecognizer minVelocityY]', symObjAddr: 0xEDC, symBinAddr: 0x14BA0, symSize: 0x10 }
  - { offset: 0x15D1BD, size: 0x8, addend: 0x0, symName: '-[RNBetterPanGestureRecognizer setMinVelocityY:]', symObjAddr: 0xEEC, symBinAddr: 0x14BB0, symSize: 0x10 }
  - { offset: 0x15D1FB, size: 0x8, addend: 0x0, symName: '-[RNBetterPanGestureRecognizer minVelocitySq]', symObjAddr: 0xEFC, symBinAddr: 0x14BC0, symSize: 0x10 }
  - { offset: 0x15D230, size: 0x8, addend: 0x0, symName: '-[RNBetterPanGestureRecognizer setMinVelocitySq:]', symObjAddr: 0xF0C, symBinAddr: 0x14BD0, symSize: 0x10 }
  - { offset: 0x15D26E, size: 0x8, addend: 0x0, symName: '-[RNBetterPanGestureRecognizer activeOffsetXStart]', symObjAddr: 0xF1C, symBinAddr: 0x14BE0, symSize: 0x10 }
  - { offset: 0x15D2A3, size: 0x8, addend: 0x0, symName: '-[RNBetterPanGestureRecognizer setActiveOffsetXStart:]', symObjAddr: 0xF2C, symBinAddr: 0x14BF0, symSize: 0x10 }
  - { offset: 0x15D2E1, size: 0x8, addend: 0x0, symName: '-[RNBetterPanGestureRecognizer activeOffsetXEnd]', symObjAddr: 0xF3C, symBinAddr: 0x14C00, symSize: 0x10 }
  - { offset: 0x15D316, size: 0x8, addend: 0x0, symName: '-[RNBetterPanGestureRecognizer setActiveOffsetXEnd:]', symObjAddr: 0xF4C, symBinAddr: 0x14C10, symSize: 0x10 }
  - { offset: 0x15D354, size: 0x8, addend: 0x0, symName: '-[RNBetterPanGestureRecognizer failOffsetXStart]', symObjAddr: 0xF5C, symBinAddr: 0x14C20, symSize: 0x10 }
  - { offset: 0x15D389, size: 0x8, addend: 0x0, symName: '-[RNBetterPanGestureRecognizer setFailOffsetXStart:]', symObjAddr: 0xF6C, symBinAddr: 0x14C30, symSize: 0x10 }
  - { offset: 0x15D3C7, size: 0x8, addend: 0x0, symName: '-[RNBetterPanGestureRecognizer failOffsetXEnd]', symObjAddr: 0xF7C, symBinAddr: 0x14C40, symSize: 0x10 }
  - { offset: 0x15D3FC, size: 0x8, addend: 0x0, symName: '-[RNBetterPanGestureRecognizer setFailOffsetXEnd:]', symObjAddr: 0xF8C, symBinAddr: 0x14C50, symSize: 0x10 }
  - { offset: 0x15D43A, size: 0x8, addend: 0x0, symName: '-[RNBetterPanGestureRecognizer activeOffsetYStart]', symObjAddr: 0xF9C, symBinAddr: 0x14C60, symSize: 0x10 }
  - { offset: 0x15D46F, size: 0x8, addend: 0x0, symName: '-[RNBetterPanGestureRecognizer setActiveOffsetYStart:]', symObjAddr: 0xFAC, symBinAddr: 0x14C70, symSize: 0x10 }
  - { offset: 0x15D4AD, size: 0x8, addend: 0x0, symName: '-[RNBetterPanGestureRecognizer activeOffsetYEnd]', symObjAddr: 0xFBC, symBinAddr: 0x14C80, symSize: 0x10 }
  - { offset: 0x15D4E2, size: 0x8, addend: 0x0, symName: '-[RNBetterPanGestureRecognizer setActiveOffsetYEnd:]', symObjAddr: 0xFCC, symBinAddr: 0x14C90, symSize: 0x10 }
  - { offset: 0x15D520, size: 0x8, addend: 0x0, symName: '-[RNBetterPanGestureRecognizer failOffsetYStart]', symObjAddr: 0xFDC, symBinAddr: 0x14CA0, symSize: 0x10 }
  - { offset: 0x15D555, size: 0x8, addend: 0x0, symName: '-[RNBetterPanGestureRecognizer setFailOffsetYStart:]', symObjAddr: 0xFEC, symBinAddr: 0x14CB0, symSize: 0x10 }
  - { offset: 0x15D593, size: 0x8, addend: 0x0, symName: '-[RNBetterPanGestureRecognizer failOffsetYEnd]', symObjAddr: 0xFFC, symBinAddr: 0x14CC0, symSize: 0x10 }
  - { offset: 0x15D5C8, size: 0x8, addend: 0x0, symName: '-[RNBetterPanGestureRecognizer setFailOffsetYEnd:]', symObjAddr: 0x100C, symBinAddr: 0x14CD0, symSize: 0x10 }
  - { offset: 0x15D606, size: 0x8, addend: 0x0, symName: '-[RNBetterPanGestureRecognizer setActivateAfterLongPress:]', symObjAddr: 0x101C, symBinAddr: 0x14CE0, symSize: 0x10 }
  - { offset: 0x15D644, size: 0x8, addend: 0x0, symName: '-[RNBetterPanGestureRecognizer stylusData]', symObjAddr: 0x102C, symBinAddr: 0x14CF0, symSize: 0x10 }
  - { offset: 0x15D67B, size: 0x8, addend: 0x0, symName: '-[RNBetterPanGestureRecognizer .cxx_destruct]', symObjAddr: 0x103C, symBinAddr: 0x14D00, symSize: 0x3C }
  - { offset: 0x15D6AE, size: 0x8, addend: 0x0, symName: '-[RNPanGestureHandler initWithTag:]', symObjAddr: 0x1078, symBinAddr: 0x14D3C, symSize: 0x74 }
  - { offset: 0x15D6F7, size: 0x8, addend: 0x0, symName: '-[RNPanGestureHandler resetConfig]', symObjAddr: 0x10EC, symBinAddr: 0x14DB0, symSize: 0x134 }
  - { offset: 0x15D73C, size: 0x8, addend: 0x0, symName: '-[RNPanGestureHandler configure:]', symObjAddr: 0x1220, symBinAddr: 0x14EE4, symSize: 0x40C }
  - { offset: 0x15D9AA, size: 0x8, addend: 0x0, symName: '-[RNPanGestureHandler gestureRecognizerShouldBegin:]', symObjAddr: 0x162C, symBinAddr: 0x152F0, symSize: 0x5C }
  - { offset: 0x15DA15, size: 0x8, addend: 0x0, symName: '-[RNPanGestureHandler eventExtraData:]', symObjAddr: 0x1688, symBinAddr: 0x1534C, symSize: 0x1D0 }
  - { offset: 0x15DB6A, size: 0x8, addend: 0x0, symName: '-[RNBetterPinchRecognizer initWithGestureHandler:]', symObjAddr: 0x0, symBinAddr: 0x1551C, symSize: 0x78 }
  - { offset: 0x15DD95, size: 0x8, addend: 0x0, symName: '-[RNBetterPinchRecognizer initWithGestureHandler:]', symObjAddr: 0x0, symBinAddr: 0x1551C, symSize: 0x78 }
  - { offset: 0x15DDDC, size: 0x8, addend: 0x0, symName: '-[RNBetterPinchRecognizer handleGesture:]', symObjAddr: 0x78, symBinAddr: 0x15594, symSize: 0x6C }
  - { offset: 0x15DE1F, size: 0x8, addend: 0x0, symName: '-[RNBetterPinchRecognizer interactionsBegan:withEvent:]', symObjAddr: 0xE4, symBinAddr: 0x15600, symSize: 0x7C }
  - { offset: 0x15DE72, size: 0x8, addend: 0x0, symName: '-[RNBetterPinchRecognizer interactionsMoved:withEvent:]', symObjAddr: 0x160, symBinAddr: 0x1567C, symSize: 0x7C }
  - { offset: 0x15DEC5, size: 0x8, addend: 0x0, symName: '-[RNBetterPinchRecognizer interactionsEnded:withEvent:]', symObjAddr: 0x1DC, symBinAddr: 0x156F8, symSize: 0x7C }
  - { offset: 0x15DF18, size: 0x8, addend: 0x0, symName: '-[RNBetterPinchRecognizer interactionsCancelled:withEvent:]', symObjAddr: 0x258, symBinAddr: 0x15774, symSize: 0x7C }
  - { offset: 0x15DF6B, size: 0x8, addend: 0x0, symName: '-[RNBetterPinchRecognizer touchesBegan:withEvent:]', symObjAddr: 0x2D4, symBinAddr: 0x157F0, symSize: 0x9C }
  - { offset: 0x15DFBE, size: 0x8, addend: 0x0, symName: '-[RNBetterPinchRecognizer touchesMoved:withEvent:]', symObjAddr: 0x370, symBinAddr: 0x1588C, symSize: 0x80 }
  - { offset: 0x15E011, size: 0x8, addend: 0x0, symName: '-[RNBetterPinchRecognizer touchesEnded:withEvent:]', symObjAddr: 0x3F0, symBinAddr: 0x1590C, symSize: 0x80 }
  - { offset: 0x15E064, size: 0x8, addend: 0x0, symName: '-[RNBetterPinchRecognizer touchesCancelled:withEvent:]', symObjAddr: 0x470, symBinAddr: 0x1598C, symSize: 0x80 }
  - { offset: 0x15E0B7, size: 0x8, addend: 0x0, symName: '-[RNBetterPinchRecognizer reset]', symObjAddr: 0x4F0, symBinAddr: 0x15A0C, symSize: 0x88 }
  - { offset: 0x15E0EA, size: 0x8, addend: 0x0, symName: '-[RNBetterPinchRecognizer .cxx_destruct]', symObjAddr: 0x578, symBinAddr: 0x15A94, symSize: 0x10 }
  - { offset: 0x15E11D, size: 0x8, addend: 0x0, symName: '-[RNPinchGestureHandler initWithTag:]', symObjAddr: 0x588, symBinAddr: 0x15AA4, symSize: 0x74 }
  - { offset: 0x15E164, size: 0x8, addend: 0x0, symName: '-[RNPinchGestureHandler eventExtraData:]', symObjAddr: 0x5FC, symBinAddr: 0x15B18, symSize: 0x120 }
  - { offset: 0x15E2F8, size: 0x8, addend: 0x0, symName: '-[RNRootViewGestureRecognizer init]', symObjAddr: 0x0, symBinAddr: 0x15C38, symSize: 0x60 }
  - { offset: 0x15E3ED, size: 0x8, addend: 0x0, symName: '-[RNRootViewGestureRecognizer init]', symObjAddr: 0x0, symBinAddr: 0x15C38, symSize: 0x60 }
  - { offset: 0x15E424, size: 0x8, addend: 0x0, symName: '-[RNRootViewGestureRecognizer shouldBeRequiredToFailByGestureRecognizer:]', symObjAddr: 0x60, symBinAddr: 0x15C98, symSize: 0x50 }
  - { offset: 0x15E477, size: 0x8, addend: 0x0, symName: '-[RNRootViewGestureRecognizer canPreventGestureRecognizer:]', symObjAddr: 0xB0, symBinAddr: 0x15CE8, symSize: 0x4C }
  - { offset: 0x15E4BA, size: 0x8, addend: 0x0, symName: '-[RNRootViewGestureRecognizer canBePreventedByGestureRecognizer:]', symObjAddr: 0xFC, symBinAddr: 0x15D34, symSize: 0xC0 }
  - { offset: 0x15E511, size: 0x8, addend: 0x0, symName: '-[RNRootViewGestureRecognizer interactionsBegan:withEvent:]', symObjAddr: 0x1BC, symBinAddr: 0x15DF4, symSize: 0x18 }
  - { offset: 0x15E55A, size: 0x8, addend: 0x0, symName: '-[RNRootViewGestureRecognizer interactionsMoved:withEvent:]', symObjAddr: 0x1D4, symBinAddr: 0x15E0C, symSize: 0x8 }
  - { offset: 0x15E5A3, size: 0x8, addend: 0x0, symName: '-[RNRootViewGestureRecognizer interactionsEnded:withEvent:]', symObjAddr: 0x1DC, symBinAddr: 0x15E14, symSize: 0x64 }
  - { offset: 0x15E5EE, size: 0x8, addend: 0x0, symName: '-[RNRootViewGestureRecognizer interactionsCancelled:withEvent:]', symObjAddr: 0x240, symBinAddr: 0x15E78, symSize: 0x38 }
  - { offset: 0x15E639, size: 0x8, addend: 0x0, symName: '-[RNRootViewGestureRecognizer touchesBegan:withEvent:]', symObjAddr: 0x278, symBinAddr: 0x15EB0, symSize: 0x90 }
  - { offset: 0x15E68C, size: 0x8, addend: 0x0, symName: '-[RNRootViewGestureRecognizer touchesMoved:withEvent:]', symObjAddr: 0x308, symBinAddr: 0x15F40, symSize: 0x90 }
  - { offset: 0x15E6DF, size: 0x8, addend: 0x0, symName: '-[RNRootViewGestureRecognizer touchesEnded:withEvent:]', symObjAddr: 0x398, symBinAddr: 0x15FD0, symSize: 0x90 }
  - { offset: 0x15E732, size: 0x8, addend: 0x0, symName: '-[RNRootViewGestureRecognizer touchesCancelled:withEvent:]', symObjAddr: 0x428, symBinAddr: 0x16060, symSize: 0x90 }
  - { offset: 0x15E785, size: 0x8, addend: 0x0, symName: '-[RNRootViewGestureRecognizer blockOtherRecognizers]', symObjAddr: 0x4B8, symBinAddr: 0x160F0, symSize: 0x20 }
  - { offset: 0x15E962, size: 0x8, addend: 0x0, symName: '-[RNBetterRotationRecognizer initWithGestureHandler:]', symObjAddr: 0x0, symBinAddr: 0x16110, symSize: 0x78 }
  - { offset: 0x15EB8D, size: 0x8, addend: 0x0, symName: '-[RNBetterRotationRecognizer initWithGestureHandler:]', symObjAddr: 0x0, symBinAddr: 0x16110, symSize: 0x78 }
  - { offset: 0x15EBD4, size: 0x8, addend: 0x0, symName: '-[RNBetterRotationRecognizer handleGesture:]', symObjAddr: 0x78, symBinAddr: 0x16188, symSize: 0x6C }
  - { offset: 0x15EC17, size: 0x8, addend: 0x0, symName: '-[RNBetterRotationRecognizer interactionsBegan:withEvent:]', symObjAddr: 0xE4, symBinAddr: 0x161F4, symSize: 0x7C }
  - { offset: 0x15EC6A, size: 0x8, addend: 0x0, symName: '-[RNBetterRotationRecognizer interactionsMoved:withEvent:]', symObjAddr: 0x160, symBinAddr: 0x16270, symSize: 0x7C }
  - { offset: 0x15ECBD, size: 0x8, addend: 0x0, symName: '-[RNBetterRotationRecognizer interactionsEnded:withEvent:]', symObjAddr: 0x1DC, symBinAddr: 0x162EC, symSize: 0x7C }
  - { offset: 0x15ED10, size: 0x8, addend: 0x0, symName: '-[RNBetterRotationRecognizer interactionsCancelled:withEvent:]', symObjAddr: 0x258, symBinAddr: 0x16368, symSize: 0x7C }
  - { offset: 0x15ED63, size: 0x8, addend: 0x0, symName: '-[RNBetterRotationRecognizer touchesBegan:withEvent:]', symObjAddr: 0x2D4, symBinAddr: 0x163E4, symSize: 0x9C }
  - { offset: 0x15EDB6, size: 0x8, addend: 0x0, symName: '-[RNBetterRotationRecognizer touchesMoved:withEvent:]', symObjAddr: 0x370, symBinAddr: 0x16480, symSize: 0x80 }
  - { offset: 0x15EE09, size: 0x8, addend: 0x0, symName: '-[RNBetterRotationRecognizer touchesEnded:withEvent:]', symObjAddr: 0x3F0, symBinAddr: 0x16500, symSize: 0x80 }
  - { offset: 0x15EE5C, size: 0x8, addend: 0x0, symName: '-[RNBetterRotationRecognizer touchesCancelled:withEvent:]', symObjAddr: 0x470, symBinAddr: 0x16580, symSize: 0x80 }
  - { offset: 0x15EEAF, size: 0x8, addend: 0x0, symName: '-[RNBetterRotationRecognizer reset]', symObjAddr: 0x4F0, symBinAddr: 0x16600, symSize: 0x88 }
  - { offset: 0x15EEE2, size: 0x8, addend: 0x0, symName: '-[RNBetterRotationRecognizer .cxx_destruct]', symObjAddr: 0x578, symBinAddr: 0x16688, symSize: 0x10 }
  - { offset: 0x15EF15, size: 0x8, addend: 0x0, symName: '-[RNRotationGestureHandler initWithTag:]', symObjAddr: 0x588, symBinAddr: 0x16698, symSize: 0x74 }
  - { offset: 0x15EF5C, size: 0x8, addend: 0x0, symName: '-[RNRotationGestureHandler eventExtraData:]', symObjAddr: 0x5FC, symBinAddr: 0x1670C, symSize: 0xD0 }
  - { offset: 0x15F092, size: 0x8, addend: 0x0, symName: '-[RNBetterTapGestureRecognizer initWithGestureHandler:]', symObjAddr: 0x0, symBinAddr: 0x167DC, symSize: 0xF0 }
  - { offset: 0x15F44E, size: 0x8, addend: 0x0, symName: '-[RNBetterTapGestureRecognizer initWithGestureHandler:]', symObjAddr: 0x0, symBinAddr: 0x167DC, symSize: 0xF0 }
  - { offset: 0x15F495, size: 0x8, addend: 0x0, symName: '-[RNBetterTapGestureRecognizer triggerAction]', symObjAddr: 0xF0, symBinAddr: 0x168CC, symSize: 0x44 }
  - { offset: 0x15F4C8, size: 0x8, addend: 0x0, symName: '-[RNBetterTapGestureRecognizer cancel]', symObjAddr: 0x134, symBinAddr: 0x16910, symSize: 0x8 }
  - { offset: 0x15F4F9, size: 0x8, addend: 0x0, symName: '-[RNBetterTapGestureRecognizer interactionsBegan:withEvent:]', symObjAddr: 0x13C, symBinAddr: 0x16918, symSize: 0x16C }
  - { offset: 0x15F55C, size: 0x8, addend: 0x0, symName: '-[RNBetterTapGestureRecognizer interactionsMoved:withEvent:]', symObjAddr: 0x2A8, symBinAddr: 0x16A84, symSize: 0x108 }
  - { offset: 0x15F5BF, size: 0x8, addend: 0x0, symName: '-[RNBetterTapGestureRecognizer interactionsEnded:withEvent:]', symObjAddr: 0x3B0, symBinAddr: 0x16B8C, symSize: 0xFC }
  - { offset: 0x15F612, size: 0x8, addend: 0x0, symName: '-[RNBetterTapGestureRecognizer interactionsCancelled:withEvent:]', symObjAddr: 0x4AC, symBinAddr: 0x16C88, symSize: 0x8C }
  - { offset: 0x15F665, size: 0x8, addend: 0x0, symName: '-[RNBetterTapGestureRecognizer touchesBegan:withEvent:]', symObjAddr: 0x538, symBinAddr: 0x16D14, symSize: 0x9C }
  - { offset: 0x15F6B8, size: 0x8, addend: 0x0, symName: '-[RNBetterTapGestureRecognizer touchesMoved:withEvent:]', symObjAddr: 0x5D4, symBinAddr: 0x16DB0, symSize: 0x80 }
  - { offset: 0x15F70B, size: 0x8, addend: 0x0, symName: '-[RNBetterTapGestureRecognizer touchesEnded:withEvent:]', symObjAddr: 0x654, symBinAddr: 0x16E30, symSize: 0x80 }
  - { offset: 0x15F75E, size: 0x8, addend: 0x0, symName: '-[RNBetterTapGestureRecognizer touchesCancelled:withEvent:]', symObjAddr: 0x6D4, symBinAddr: 0x16EB0, symSize: 0x80 }
  - { offset: 0x15F7B1, size: 0x8, addend: 0x0, symName: '-[RNBetterTapGestureRecognizer translationInView]', symObjAddr: 0x754, symBinAddr: 0x16F30, symSize: 0x78 }
  - { offset: 0x15F7F8, size: 0x8, addend: 0x0, symName: '-[RNBetterTapGestureRecognizer shouldFailUnderCustomCriteria]', symObjAddr: 0x7CC, symBinAddr: 0x16FA8, symSize: 0x110 }
  - { offset: 0x15F83F, size: 0x8, addend: 0x0, symName: '-[RNBetterTapGestureRecognizer reset]', symObjAddr: 0x8DC, symBinAddr: 0x170B8, symSize: 0xDC }
  - { offset: 0x15F872, size: 0x8, addend: 0x0, symName: '-[RNBetterTapGestureRecognizer numberOfTaps]', symObjAddr: 0x9B8, symBinAddr: 0x17194, symSize: 0x10 }
  - { offset: 0x15F8A9, size: 0x8, addend: 0x0, symName: '-[RNBetterTapGestureRecognizer setNumberOfTaps:]', symObjAddr: 0x9C8, symBinAddr: 0x171A4, symSize: 0x10 }
  - { offset: 0x15F8E6, size: 0x8, addend: 0x0, symName: '-[RNBetterTapGestureRecognizer maxDelay]', symObjAddr: 0x9D8, symBinAddr: 0x171B4, symSize: 0x10 }
  - { offset: 0x15F91B, size: 0x8, addend: 0x0, symName: '-[RNBetterTapGestureRecognizer setMaxDelay:]', symObjAddr: 0x9E8, symBinAddr: 0x171C4, symSize: 0x10 }
  - { offset: 0x15F959, size: 0x8, addend: 0x0, symName: '-[RNBetterTapGestureRecognizer maxDuration]', symObjAddr: 0x9F8, symBinAddr: 0x171D4, symSize: 0x10 }
  - { offset: 0x15F98E, size: 0x8, addend: 0x0, symName: '-[RNBetterTapGestureRecognizer setMaxDuration:]', symObjAddr: 0xA08, symBinAddr: 0x171E4, symSize: 0x10 }
  - { offset: 0x15F9CC, size: 0x8, addend: 0x0, symName: '-[RNBetterTapGestureRecognizer maxDistSq]', symObjAddr: 0xA18, symBinAddr: 0x171F4, symSize: 0x10 }
  - { offset: 0x15FA01, size: 0x8, addend: 0x0, symName: '-[RNBetterTapGestureRecognizer setMaxDistSq:]', symObjAddr: 0xA28, symBinAddr: 0x17204, symSize: 0x10 }
  - { offset: 0x15FA3F, size: 0x8, addend: 0x0, symName: '-[RNBetterTapGestureRecognizer maxDeltaX]', symObjAddr: 0xA38, symBinAddr: 0x17214, symSize: 0x10 }
  - { offset: 0x15FA74, size: 0x8, addend: 0x0, symName: '-[RNBetterTapGestureRecognizer setMaxDeltaX:]', symObjAddr: 0xA48, symBinAddr: 0x17224, symSize: 0x10 }
  - { offset: 0x15FAB2, size: 0x8, addend: 0x0, symName: '-[RNBetterTapGestureRecognizer maxDeltaY]', symObjAddr: 0xA58, symBinAddr: 0x17234, symSize: 0x10 }
  - { offset: 0x15FAE7, size: 0x8, addend: 0x0, symName: '-[RNBetterTapGestureRecognizer setMaxDeltaY:]', symObjAddr: 0xA68, symBinAddr: 0x17244, symSize: 0x10 }
  - { offset: 0x15FB25, size: 0x8, addend: 0x0, symName: '-[RNBetterTapGestureRecognizer minPointers]', symObjAddr: 0xA78, symBinAddr: 0x17254, symSize: 0x10 }
  - { offset: 0x15FB5C, size: 0x8, addend: 0x0, symName: '-[RNBetterTapGestureRecognizer setMinPointers:]', symObjAddr: 0xA88, symBinAddr: 0x17264, symSize: 0x10 }
  - { offset: 0x15FB99, size: 0x8, addend: 0x0, symName: '-[RNBetterTapGestureRecognizer .cxx_destruct]', symObjAddr: 0xA98, symBinAddr: 0x17274, symSize: 0x10 }
  - { offset: 0x15FBCC, size: 0x8, addend: 0x0, symName: '-[RNTapGestureHandler initWithTag:]', symObjAddr: 0xAA8, symBinAddr: 0x17284, symSize: 0x74 }
  - { offset: 0x15FC15, size: 0x8, addend: 0x0, symName: '-[RNTapGestureHandler resetConfig]', symObjAddr: 0xB1C, symBinAddr: 0x172F8, symSize: 0xC0 }
  - { offset: 0x15FC5A, size: 0x8, addend: 0x0, symName: '-[RNTapGestureHandler configure:]', symObjAddr: 0xBDC, symBinAddr: 0x173B8, symSize: 0x20C }
  - { offset: 0x15FD5D, size: 0x8, addend: 0x0, symName: '-[RNTapGestureHandler eventExtraData:]', symObjAddr: 0xDE8, symBinAddr: 0x175C4, symSize: 0x98 }
  - { offset: 0x15FDA6, size: 0x8, addend: 0x0, symName: '-[RNTapGestureHandler gestureRecognizerShouldBegin:]', symObjAddr: 0xE80, symBinAddr: 0x1765C, symSize: 0x5C }
  - { offset: 0x15FE11, size: 0x8, addend: 0x0, symName: '-[RNTapGestureHandler .cxx_destruct]', symObjAddr: 0xEDC, symBinAddr: 0x176B8, symSize: 0x14 }
...
