---
triple:          'arm64-apple-darwin'
binary-path:     '/Users/uk-aplatts/Development/InjuryIQ/ios/DerivedData/Build/Intermediates.noindex/ArchiveIntermediates/InjuryIQ/IntermediateBuildFilesPath/UninstalledProducts/iphoneos/RNReanimated.framework/RNReanimated'
relocations:
  - { offset: 0x6C3CE, size: 0x8, addend: 0x0, symName: _RNReanimatedVersionString, symObjAddr: 0x0, symBinAddr: 0x12E510, symSize: 0x0 }
  - { offset: 0x6C403, size: 0x8, addend: 0x0, symName: _RNReanimatedVersionNumber, symObjAddr: 0x30, symBinAddr: 0x12E540, symSize: 0x0 }
  - { offset: 0x6C43F, size: 0x8, addend: 0x0, symName: __ZN10reanimated3css19firstSmallerOrEqualEdRKNSt3__16vectorIdNS1_9allocatorIdEEEE, symObjAddr: 0x0, symBinAddr: 0x4000, symSize: 0x54 }
  - { offset: 0x6E460, size: 0x8, addend: 0x0, symName: __ZN10reanimated3css19firstSmallerOrEqualEdRKNSt3__16vectorIdNS1_9allocatorIdEEEE, symObjAddr: 0x0, symBinAddr: 0x4000, symSize: 0x54 }
  - { offset: 0x6E4AD, size: 0x8, addend: 0x0, symName: __ZN10reanimated3css19firstSmallerOrEqualEdRKNSt3__16vectorIdNS1_9allocatorIdEEEE, symObjAddr: 0x0, symBinAddr: 0x4000, symSize: 0x54 }
  - { offset: 0x70B0C, size: 0x8, addend: 0x0, symName: __ZN10reanimated21AnimatedPropsRegistry6updateERN8facebook3jsi7RuntimeERKNS2_5ValueE, symObjAddr: 0x0, symBinAddr: 0x4054, symSize: 0x38C }
  - { offset: 0x980D7, size: 0x8, addend: 0x0, symName: __ZNSt3__120__throw_length_errorB8ne200100EPKc, symObjAddr: 0x784, symBinAddr: 0x47D8, symSize: 0x50 }
  - { offset: 0xA06FC, size: 0x8, addend: 0x0, symName: __ZN10reanimated21AnimatedPropsRegistry6updateERN8facebook3jsi7RuntimeERKNS2_5ValueE, symObjAddr: 0x0, symBinAddr: 0x4054, symSize: 0x38C }
  - { offset: 0xA12AD, size: 0x8, addend: 0x0, symName: __ZN8facebook5react8BridgingINSt3__110shared_ptrIKNS0_10ShadowNodeEEEvE6fromJsERNS_3jsi7RuntimeERKNS8_5ValueE, symObjAddr: 0x3CC, symBinAddr: 0x4420, symSize: 0x300 }
  - { offset: 0xA1E35, size: 0x8, addend: 0x0, symName: __ZN10reanimated21AnimatedPropsRegistry6removeEi, symObjAddr: 0x38C, symBinAddr: 0x43E0, symSize: 0x28 }
  - { offset: 0xA1EA4, size: 0x8, addend: 0x0, symName: __ZNSt3__112__hash_tableINS_17__hash_value_typeIiNS_4pairINS_10shared_ptrIKN8facebook5react10ShadowNodeEEEN5folly7dynamicEEEEENS_22__unordered_map_hasherIiSC_NS_4hashIiEENS_8equal_toIiEELb1EEENS_21__unordered_map_equalIiSC_SH_SF_Lb1EEENS_9allocatorISC_EEE14__erase_uniqueIiEEmRKT_, symObjAddr: 0xA70, symBinAddr: 0x4A14, symSize: 0x34 }
  - { offset: 0xA1F4D, size: 0x8, addend: 0x0, symName: __ZN10reanimated21AnimatedPropsRegistryD1Ev, symObjAddr: 0x3B4, symBinAddr: 0x4408, symSize: 0x4 }
  - { offset: 0xA1F71, size: 0x8, addend: 0x0, symName: __ZN10reanimated21AnimatedPropsRegistryD1Ev, symObjAddr: 0x3B4, symBinAddr: 0x4408, symSize: 0x4 }
  - { offset: 0xA1F8F, size: 0x8, addend: 0x0, symName: __ZN10reanimated21AnimatedPropsRegistryD1Ev, symObjAddr: 0x3B4, symBinAddr: 0x4408, symSize: 0x4 }
  - { offset: 0xA1FA3, size: 0x8, addend: 0x0, symName: __ZN10reanimated15UpdatesRegistryD2Ev, symObjAddr: 0x8A8, symBinAddr: 0x48A4, symSize: 0x5C }
  - { offset: 0xA20E8, size: 0x8, addend: 0x0, symName: __ZN10reanimated21AnimatedPropsRegistryD0Ev, symObjAddr: 0x3B8, symBinAddr: 0x440C, symSize: 0x14 }
  - { offset: 0xA25E9, size: 0x8, addend: 0x0, symName: __ZNSt3__112basic_stringIcNS_11char_traitsIcEENS_9allocatorIcEEEC2B8ne200100ILi0EEEPKc, symObjAddr: 0x6CC, symBinAddr: 0x4720, symSize: 0xA4 }
  - { offset: 0xA286D, size: 0x8, addend: 0x0, symName: __ZNSt3__112basic_stringIcNS_11char_traitsIcEENS_9allocatorIcEEE20__throw_length_errorB8ne200100Ev, symObjAddr: 0x770, symBinAddr: 0x47C4, symSize: 0x14 }
  - { offset: 0xA287F, size: 0x8, addend: 0x0, symName: __ZNSt3__110shared_ptrIN8facebook5react17ShadowNodeWrapperEED2B8ne200100Ev, symObjAddr: 0x7F8, symBinAddr: 0x484C, symSize: 0x58 }
  - { offset: 0xA2AE4, size: 0x8, addend: 0x0, symName: __ZNSt3__112basic_stringIcNS_11char_traitsIcEENS_9allocatorIcEEE20__throw_length_errorB8ne200100Ev, symObjAddr: 0x770, symBinAddr: 0x47C4, symSize: 0x14 }
  - { offset: 0xA2AFC, size: 0x8, addend: 0x0, symName: __ZNSt3__120__throw_length_errorB8ne200100EPKc, symObjAddr: 0x784, symBinAddr: 0x47D8, symSize: 0x50 }
  - { offset: 0xA2B07, size: 0x8, addend: 0x0, symName: __ZNSt12length_errorC1B8ne200100EPKc, symObjAddr: 0x7D4, symBinAddr: 0x4828, symSize: 0x24 }
  - { offset: 0xA2C72, size: 0x8, addend: 0x0, symName: __ZNSt3__16vectorINS_4pairINS_10shared_ptrIKN8facebook5react10ShadowNodeEEEN5folly7dynamicEEENS_9allocatorISA_EEE16__destroy_vectorclB8ne200100Ev, symObjAddr: 0x904, symBinAddr: 0x4900, symSize: 0x40 }
  - { offset: 0xA2D45, size: 0x8, addend: 0x0, symName: __ZNSt3__112__hash_tableINS_17__hash_value_typeIiNS_4pairINS_10shared_ptrIKN8facebook5react10ShadowNodeEEEN5folly7dynamicEEEEENS_22__unordered_map_hasherIiSC_NS_4hashIiEENS_8equal_toIiEELb1EEENS_21__unordered_map_equalIiSC_SH_SF_Lb1EEENS_9allocatorISC_EEED2Ev, symObjAddr: 0x99C, symBinAddr: 0x4998, symSize: 0x38 }
  - { offset: 0xA2F3F, size: 0x8, addend: 0x0, symName: __ZNSt3__16vectorINS_4pairINS_10shared_ptrIKN8facebook5react10ShadowNodeEEEN5folly7dynamicEEENS_9allocatorISA_EEE22__base_destruct_at_endB8ne200100EPSA_, symObjAddr: 0x944, symBinAddr: 0x4940, symSize: 0x58 }
  - { offset: 0xA31E2, size: 0x8, addend: 0x0, symName: __ZNSt3__112__hash_tableINS_17__hash_value_typeIiNS_4pairINS_10shared_ptrIKN8facebook5react10ShadowNodeEEEN5folly7dynamicEEEEENS_22__unordered_map_hasherIiSC_NS_4hashIiEENS_8equal_toIiEELb1EEENS_21__unordered_map_equalIiSC_SH_SF_Lb1EEENS_9allocatorISC_EEE17__deallocate_nodeEPNS_16__hash_node_baseIPNS_11__hash_nodeISC_PvEEEE, symObjAddr: 0x9D4, symBinAddr: 0x49D0, symSize: 0x44 }
  - { offset: 0xA34D6, size: 0x8, addend: 0x0, symName: __ZNSt3__112__hash_tableINS_17__hash_value_typeIiNS_4pairINS_10shared_ptrIKN8facebook5react10ShadowNodeEEEN5folly7dynamicEEEEENS_22__unordered_map_hasherIiSC_NS_4hashIiEENS_8equal_toIiEELb1EEENS_21__unordered_map_equalIiSC_SH_SF_Lb1EEENS_9allocatorISC_EEE4findIiEENS_15__hash_iteratorIPNS_11__hash_nodeISC_PvEEEERKT_, symObjAddr: 0xAA4, symBinAddr: 0x4A48, symSize: 0xB4 }
  - { offset: 0xA3531, size: 0x8, addend: 0x0, symName: __ZNSt3__112__hash_tableINS_17__hash_value_typeIiNS_4pairINS_10shared_ptrIKN8facebook5react10ShadowNodeEEEN5folly7dynamicEEEEENS_22__unordered_map_hasherIiSC_NS_4hashIiEENS_8equal_toIiEELb1EEENS_21__unordered_map_equalIiSC_SH_SF_Lb1EEENS_9allocatorISC_EEE4findIiEENS_15__hash_iteratorIPNS_11__hash_nodeISC_PvEEEERKT_, symObjAddr: 0xAA4, symBinAddr: 0x4A48, symSize: 0xB4 }
  - { offset: 0xA354F, size: 0x8, addend: 0x0, symName: __ZNSt3__112__hash_tableINS_17__hash_value_typeIiNS_4pairINS_10shared_ptrIKN8facebook5react10ShadowNodeEEEN5folly7dynamicEEEEENS_22__unordered_map_hasherIiSC_NS_4hashIiEENS_8equal_toIiEELb1EEENS_21__unordered_map_equalIiSC_SH_SF_Lb1EEENS_9allocatorISC_EEE4findIiEENS_15__hash_iteratorIPNS_11__hash_nodeISC_PvEEEERKT_, symObjAddr: 0xAA4, symBinAddr: 0x4A48, symSize: 0xB4 }
  - { offset: 0xA3679, size: 0x8, addend: 0x0, symName: __ZNSt3__112__hash_tableINS_17__hash_value_typeIiNS_4pairINS_10shared_ptrIKN8facebook5react10ShadowNodeEEEN5folly7dynamicEEEEENS_22__unordered_map_hasherIiSC_NS_4hashIiEENS_8equal_toIiEELb1EEENS_21__unordered_map_equalIiSC_SH_SF_Lb1EEENS_9allocatorISC_EEE5eraseENS_21__hash_const_iteratorIPNS_11__hash_nodeISC_PvEEEE, symObjAddr: 0xB58, symBinAddr: 0x4AFC, symSize: 0x48 }
  - { offset: 0xA3902, size: 0x8, addend: 0x0, symName: __ZNSt3__112__hash_tableINS_17__hash_value_typeIiNS_4pairINS_10shared_ptrIKN8facebook5react10ShadowNodeEEEN5folly7dynamicEEEEENS_22__unordered_map_hasherIiSC_NS_4hashIiEENS_8equal_toIiEELb1EEENS_21__unordered_map_equalIiSC_SH_SF_Lb1EEENS_9allocatorISC_EEE6removeENS_21__hash_const_iteratorIPNS_11__hash_nodeISC_PvEEEE, symObjAddr: 0xBA0, symBinAddr: 0x4B44, symSize: 0x13C }
  - { offset: 0xA397D, size: 0x8, addend: 0x0, symName: __ZNSt3__112__hash_tableINS_17__hash_value_typeIiNS_4pairINS_10shared_ptrIKN8facebook5react10ShadowNodeEEEN5folly7dynamicEEEEENS_22__unordered_map_hasherIiSC_NS_4hashIiEENS_8equal_toIiEELb1EEENS_21__unordered_map_equalIiSC_SH_SF_Lb1EEENS_9allocatorISC_EEE6removeENS_21__hash_const_iteratorIPNS_11__hash_nodeISC_PvEEEE, symObjAddr: 0xBA0, symBinAddr: 0x4B44, symSize: 0x13C }
  - { offset: 0xA399B, size: 0x8, addend: 0x0, symName: __ZNSt3__112__hash_tableINS_17__hash_value_typeIiNS_4pairINS_10shared_ptrIKN8facebook5react10ShadowNodeEEEN5folly7dynamicEEEEENS_22__unordered_map_hasherIiSC_NS_4hashIiEENS_8equal_toIiEELb1EEENS_21__unordered_map_equalIiSC_SH_SF_Lb1EEENS_9allocatorISC_EEE6removeENS_21__hash_const_iteratorIPNS_11__hash_nodeISC_PvEEEE, symObjAddr: 0xBA0, symBinAddr: 0x4B44, symSize: 0x13C }
  - { offset: 0xA3BD7, size: 0x8, addend: 0x0, symName: __ZNSt3__122__hash_node_destructorINS_9allocatorINS_11__hash_nodeINS_17__hash_value_typeIiNS_4pairINS_10shared_ptrIKN8facebook5react10ShadowNodeEEEN5folly7dynamicEEEEEPvEEEEEclB8ne200100EPSG_, symObjAddr: 0xCDC, symBinAddr: 0x4C80, symSize: 0x4C }
  - { offset: 0xA5D12, size: 0x8, addend: 0x0, symName: __ZN10reanimated20AnimatedSensorModuleC2ERKNS_24PlatformDepMethodsHolderE, symObjAddr: 0x0, symBinAddr: 0x4CCC, symSize: 0x9C }
  - { offset: 0xB2C38, size: 0x8, addend: 0x0, symName: __ZNSt3__125__throw_bad_function_callB8ne200100Ev, symObjAddr: 0x8B0, symBinAddr: 0x5394, symSize: 0x34 }
  - { offset: 0xB41E2, size: 0x8, addend: 0x0, symName: __ZSt28__throw_bad_array_new_lengthB8ne200100v, symObjAddr: 0x720, symBinAddr: 0x52C0, symSize: 0x28 }
  - { offset: 0xB624C, size: 0x8, addend: 0x0, symName: __ZN8worklets26extractSerializableOrThrowINS_19SerializableWorkletEEENSt3__110shared_ptrIT_EERN8facebook3jsi7RuntimeERKNS7_5ValueERKNS2_12basic_stringIcNS2_11char_traitsIcEENS2_9allocatorIcEEEE, symObjAddr: 0x3AC, symBinAddr: 0x5078, symSize: 0x108 }
  - { offset: 0xB64C1, size: 0x8, addend: 0x0, symName: __ZN8worklets19runOnRuntimeGuardedIJRN8facebook3jsi6ObjectEEEENS2_5ValueERNS2_7RuntimeERKS5_DpOT_, symObjAddr: 0xF64, symBinAddr: 0x5A48, symSize: 0x15C }
  - { offset: 0xB75E5, size: 0x8, addend: 0x0, symName: __ZN10reanimated20AnimatedSensorModule14registerSensorERN8facebook3jsi7RuntimeERKNSt3__110shared_ptrIN8worklets14WorkletRuntimeEEERKNS2_5ValueESE_SE_SE_, symObjAddr: 0x11C, symBinAddr: 0x4DE8, symSize: 0x290 }
  - { offset: 0xB839D, size: 0x8, addend: 0x0, symName: __ZN10reanimated20AnimatedSensorModuleC2ERKNS_24PlatformDepMethodsHolderE, symObjAddr: 0x0, symBinAddr: 0x4CCC, symSize: 0x9C }
  - { offset: 0xB8663, size: 0x8, addend: 0x0, symName: __ZNSt3__110__function12__value_funcIFiiiiNS_8functionIFvPdiEEEEEC2B8ne200100ERKS7_, symObjAddr: 0x748, symBinAddr: 0x52E8, symSize: 0x64 }
  - { offset: 0xB8703, size: 0x8, addend: 0x0, symName: __ZNSt3__112__hash_tableIiNS_4hashIiEENS_8equal_toIiEENS_9allocatorIiEEED2Ev, symObjAddr: 0x810, symBinAddr: 0x534C, symSize: 0x48 }
  - { offset: 0xB8969, size: 0x8, addend: 0x0, symName: __ZN10reanimated20AnimatedSensorModuleC1ERKNS_24PlatformDepMethodsHolderE, symObjAddr: 0x9C, symBinAddr: 0x4D68, symSize: 0x4 }
  - { offset: 0xB89A5, size: 0x8, addend: 0x0, symName: __ZN10reanimated20AnimatedSensorModuleC1ERKNS_24PlatformDepMethodsHolderE, symObjAddr: 0x9C, symBinAddr: 0x4D68, symSize: 0x4 }
  - { offset: 0xB8A2D, size: 0x8, addend: 0x0, symName: __ZN10reanimated20AnimatedSensorModuleD2Ev, symObjAddr: 0xA0, symBinAddr: 0x4D6C, symSize: 0x78 }
  - { offset: 0xB8BE8, size: 0x8, addend: 0x0, symName: __ZN10reanimated20AnimatedSensorModuleD1Ev, symObjAddr: 0x118, symBinAddr: 0x4DE4, symSize: 0x4 }
  - { offset: 0xB8C16, size: 0x8, addend: 0x0, symName: __ZN10reanimated20AnimatedSensorModuleD1Ev, symObjAddr: 0x118, symBinAddr: 0x4DE4, symSize: 0x4 }
  - { offset: 0xB94F0, size: 0x8, addend: 0x0, symName: __ZNKSt3__18functionIFiiiiNS0_IFvPdiEEEEEclEiiiS3_, symObjAddr: 0x4B4, symBinAddr: 0x5180, symSize: 0x44 }
  - { offset: 0xB95B9, size: 0x8, addend: 0x0, symName: '__ZZN10reanimated20AnimatedSensorModule14registerSensorERN8facebook3jsi7RuntimeERKNSt3__110shared_ptrIN8worklets14WorkletRuntimeEEERKNS2_5ValueESE_SE_SE_EN3$_0D1Ev', symObjAddr: 0x4F8, symBinAddr: 0x51C4, symSize: 0x34 }
  - { offset: 0xB95C4, size: 0x8, addend: 0x0, symName: __ZNSt3__112__hash_tableIiNS_4hashIiEENS_8equal_toIiEENS_9allocatorIiEEE25__emplace_unique_key_argsIiJRKiEEENS_4pairINS_15__hash_iteratorIPNS_11__hash_nodeIiPvEEEEbEERKT_DpOT0_, symObjAddr: 0x1164, symBinAddr: 0x5BF0, symSize: 0x218 }
  - { offset: 0xB9C3E, size: 0x8, addend: 0x0, symName: '__ZZN10reanimated20AnimatedSensorModule14registerSensorERN8facebook3jsi7RuntimeERKNSt3__110shared_ptrIN8worklets14WorkletRuntimeEEERKNS2_5ValueESE_SE_SE_EN3$_0D1Ev', symObjAddr: 0x4F8, symBinAddr: 0x51C4, symSize: 0x34 }
  - { offset: 0xB9F6E, size: 0x8, addend: 0x0, symName: __ZN10reanimated20AnimatedSensorModule16unregisterSensorERKN8facebook3jsi5ValueE, symObjAddr: 0x52C, symBinAddr: 0x51F8, symSize: 0x68 }
  - { offset: 0xBA067, size: 0x8, addend: 0x0, symName: __ZN10reanimated20AnimatedSensorModule20unregisterAllSensorsEv, symObjAddr: 0x594, symBinAddr: 0x5260, symSize: 0x60 }
  - { offset: 0xBA072, size: 0x8, addend: 0x0, symName: __ZNSt3__112__hash_tableIiNS_4hashIiEENS_8equal_toIiEENS_9allocatorIiEEE14__erase_uniqueIiEEmRKT_, symObjAddr: 0x15A8, symBinAddr: 0x6034, symSize: 0x34 }
  - { offset: 0xBA110, size: 0x8, addend: 0x0, symName: __ZN10reanimated20AnimatedSensorModule20unregisterAllSensorsEv, symObjAddr: 0x594, symBinAddr: 0x5260, symSize: 0x60 }
  - { offset: 0xBA21C, size: 0x8, addend: 0x0, symName: __ZNSt3__112__hash_tableIiNS_4hashIiEENS_8equal_toIiEENS_9allocatorIiEEE5clearEv, symObjAddr: 0x180C, symBinAddr: 0x60A8, symSize: 0x64 }
  - { offset: 0xBA806, size: 0x8, addend: 0x0, symName: __ZNSt3__117bad_function_callD1Ev, symObjAddr: 0x8E4, symBinAddr: 0x53C8, symSize: 0x4 }
  - { offset: 0xBA82A, size: 0x8, addend: 0x0, symName: __ZNSt3__117bad_function_callD1Ev, symObjAddr: 0x8E4, symBinAddr: 0x53C8, symSize: 0x4 }
  - { offset: 0xBA85F, size: 0x8, addend: 0x0, symName: __ZNSt3__117bad_function_callD0Ev, symObjAddr: 0x8E8, symBinAddr: 0x53CC, symSize: 0x14 }
  - { offset: 0xBA935, size: 0x8, addend: 0x0, symName: '__ZNSt3__110__function6__funcIZN10reanimated20AnimatedSensorModule14registerSensorERN8facebook3jsi7RuntimeERKNS_10shared_ptrIN8worklets14WorkletRuntimeEEERKNS5_5ValueESG_SG_SG_E3$_0NS_9allocatorISH_EEFvPdiEED1Ev', symObjAddr: 0x8FC, symBinAddr: 0x53E0, symSize: 0x40 }
  - { offset: 0xBAA81, size: 0x8, addend: 0x0, symName: '__ZNSt3__110__function6__funcIZN10reanimated20AnimatedSensorModule14registerSensorERN8facebook3jsi7RuntimeERKNS_10shared_ptrIN8worklets14WorkletRuntimeEEERKNS5_5ValueESG_SG_SG_E3$_0NS_9allocatorISH_EEFvPdiEED0Ev', symObjAddr: 0x93C, symBinAddr: 0x5420, symSize: 0x40 }
  - { offset: 0xBAD3A, size: 0x8, addend: 0x0, symName: '__ZNKSt3__110__function6__funcIZN10reanimated20AnimatedSensorModule14registerSensorERN8facebook3jsi7RuntimeERKNS_10shared_ptrIN8worklets14WorkletRuntimeEEERKNS5_5ValueESG_SG_SG_E3$_0NS_9allocatorISH_EEFvPdiEE7__cloneEv', symObjAddr: 0x97C, symBinAddr: 0x5460, symSize: 0x78 }
  - { offset: 0xBB100, size: 0x8, addend: 0x0, symName: '__ZNKSt3__110__function6__funcIZN10reanimated20AnimatedSensorModule14registerSensorERN8facebook3jsi7RuntimeERKNS_10shared_ptrIN8worklets14WorkletRuntimeEEERKNS5_5ValueESG_SG_SG_E3$_0NS_9allocatorISH_EEFvPdiEE7__cloneEPNS0_6__baseISL_EE', symObjAddr: 0x9F4, symBinAddr: 0x54D8, symSize: 0x58 }
  - { offset: 0xBB137, size: 0x8, addend: 0x0, symName: '__ZNKSt3__110__function6__funcIZN10reanimated20AnimatedSensorModule14registerSensorERN8facebook3jsi7RuntimeERKNS_10shared_ptrIN8worklets14WorkletRuntimeEEERKNS5_5ValueESG_SG_SG_E3$_0NS_9allocatorISH_EEFvPdiEE7__cloneEPNS0_6__baseISL_EE', symObjAddr: 0x9F4, symBinAddr: 0x54D8, symSize: 0x58 }
  - { offset: 0xBB169, size: 0x8, addend: 0x0, symName: '__ZNKSt3__110__function6__funcIZN10reanimated20AnimatedSensorModule14registerSensorERN8facebook3jsi7RuntimeERKNS_10shared_ptrIN8worklets14WorkletRuntimeEEERKNS5_5ValueESG_SG_SG_E3$_0NS_9allocatorISH_EEFvPdiEE7__cloneEPNS0_6__baseISL_EE', symObjAddr: 0x9F4, symBinAddr: 0x54D8, symSize: 0x58 }
  - { offset: 0xBB39F, size: 0x8, addend: 0x0, symName: '__ZNSt3__110__function6__funcIZN10reanimated20AnimatedSensorModule14registerSensorERN8facebook3jsi7RuntimeERKNS_10shared_ptrIN8worklets14WorkletRuntimeEEERKNS5_5ValueESG_SG_SG_E3$_0NS_9allocatorISH_EEFvPdiEE7destroyEv', symObjAddr: 0xA4C, symBinAddr: 0x5530, symSize: 0x8 }
  - { offset: 0xBB3D4, size: 0x8, addend: 0x0, symName: '__ZNSt3__110__function12__alloc_funcIZN10reanimated20AnimatedSensorModule14registerSensorERN8facebook3jsi7RuntimeERKNS_10shared_ptrIN8worklets14WorkletRuntimeEEERKNS5_5ValueESG_SG_SG_E3$_0NS_9allocatorISH_EEFvPdiEE7destroyB8ne200100Ev', symObjAddr: 0xD1C, symBinAddr: 0x5800, symSize: 0x2C }
  - { offset: 0xBB4D2, size: 0x8, addend: 0x0, symName: '__ZNSt3__110__function6__funcIZN10reanimated20AnimatedSensorModule14registerSensorERN8facebook3jsi7RuntimeERKNS_10shared_ptrIN8worklets14WorkletRuntimeEEERKNS5_5ValueESG_SG_SG_E3$_0NS_9allocatorISH_EEFvPdiEE18destroy_deallocateEv', symObjAddr: 0xA54, symBinAddr: 0x5538, symSize: 0x28 }
  - { offset: 0xBB86B, size: 0x8, addend: 0x0, symName: '__ZNSt3__110__function6__funcIZN10reanimated20AnimatedSensorModule14registerSensorERN8facebook3jsi7RuntimeERKNS_10shared_ptrIN8worklets14WorkletRuntimeEEERKNS5_5ValueESG_SG_SG_E3$_0NS_9allocatorISH_EEFvPdiEEclEOSK_Oi', symObjAddr: 0xA7C, symBinAddr: 0x5560, symSize: 0x258 }
  - { offset: 0xBBE95, size: 0x8, addend: 0x0, symName: __ZNK8facebook3jsi6Object11setPropertyIRdEEvRNS0_7RuntimeEPKcOT_, symObjAddr: 0xD48, symBinAddr: 0x582C, symSize: 0xA4 }
  - { offset: 0xBC08B, size: 0x8, addend: 0x0, symName: __ZNK8facebook3jsi6Object11setPropertyIRiEEvRNS0_7RuntimeEPKcOT_, symObjAddr: 0xDEC, symBinAddr: 0x58D0, symSize: 0xA4 }
  - { offset: 0xBC2D5, size: 0x8, addend: 0x0, symName: '__ZNKSt3__110__function6__funcIZN10reanimated20AnimatedSensorModule14registerSensorERN8facebook3jsi7RuntimeERKNS_10shared_ptrIN8worklets14WorkletRuntimeEEERKNS5_5ValueESG_SG_SG_E3$_0NS_9allocatorISH_EEFvPdiEE6targetERKSt9type_info', symObjAddr: 0xCD4, symBinAddr: 0x57B8, symSize: 0x3C }
  - { offset: 0xBC324, size: 0x8, addend: 0x0, symName: __ZNKSt9type_infoeqB8ne200100ERKS_, symObjAddr: 0x1118, symBinAddr: 0x5BA4, symSize: 0x4C }
  - { offset: 0xBC3C9, size: 0x8, addend: 0x0, symName: '__ZNKSt3__110__function6__funcIZN10reanimated20AnimatedSensorModule14registerSensorERN8facebook3jsi7RuntimeERKNS_10shared_ptrIN8worklets14WorkletRuntimeEEERKNS5_5ValueESG_SG_SG_E3$_0NS_9allocatorISH_EEFvPdiEE11target_typeEv', symObjAddr: 0xD10, symBinAddr: 0x57F4, symSize: 0xC }
  - { offset: 0xBC47C, size: 0x8, addend: 0x0, symName: __ZNK8facebook3jsi6Object11setPropertyIRdEEvRNS0_7RuntimeERKNS0_6StringEOT_, symObjAddr: 0xE90, symBinAddr: 0x5974, symSize: 0x68 }
  - { offset: 0xBC5DE, size: 0x8, addend: 0x0, symName: __ZNK8facebook3jsi6Object11setPropertyIRiEEvRNS0_7RuntimeERKNS0_6StringEOT_, symObjAddr: 0xEF8, symBinAddr: 0x59DC, symSize: 0x6C }
  - { offset: 0xBCC89, size: 0x8, addend: 0x0, symName: __ZNSt3__112__hash_tableIiNS_4hashIiEENS_8equal_toIiEENS_9allocatorIiEEE8__rehashILb1EEEvm, symObjAddr: 0x137C, symBinAddr: 0x5E08, symSize: 0xDC }
  - { offset: 0xBCD8D, size: 0x8, addend: 0x0, symName: __ZNSt3__112__hash_tableIiNS_4hashIiEENS_8equal_toIiEENS_9allocatorIiEEE11__do_rehashILb1EEEvm, symObjAddr: 0x1458, symBinAddr: 0x5EE4, symSize: 0x150 }
  - { offset: 0xBD1D8, size: 0x8, addend: 0x0, symName: __ZNSt3__112__hash_tableIiNS_4hashIiEENS_8equal_toIiEENS_9allocatorIiEEE14__erase_uniqueIiEEmRKT_, symObjAddr: 0x15A8, symBinAddr: 0x6034, symSize: 0x34 }
  - { offset: 0xBD359, size: 0x8, addend: 0x0, symName: __ZNSt3__112__hash_tableIiNS_4hashIiEENS_8equal_toIiEENS_9allocatorIiEEE5eraseENS_21__hash_const_iteratorIPNS_11__hash_nodeIiPvEEEE, symObjAddr: 0x1690, symBinAddr: 0x6068, symSize: 0x40 }
  - { offset: 0xBF71E, size: 0x8, addend: 0x0, symName: __ZN8facebook5react17HostPlatformColorL14UndefinedColorE, symObjAddr: 0x724C88, symBinAddr: 0x169840, symSize: 0x0 }
  - { offset: 0x1373E2, size: 0x8, addend: 0x0, symName: __ZNSt3__115allocate_sharedB8ne200100IN10reanimated3css24ValueInterpolatorFactoryIJNS2_10CSSKeywordEEEENS_9allocatorIS5_EEJNS2_15CSSValueVariantIJS4_EEEELi0EEENS_10shared_ptrIT_EERKT0_DpOT1_, symObjAddr: 0x1CF0, symBinAddr: 0x7C70, symSize: 0x58 }
  - { offset: 0x1378D7, size: 0x8, addend: 0x0, symName: __ZNSt3__115allocate_sharedB8ne200100IN10reanimated3css24ValueInterpolatorFactoryIJNS2_9CSSDoubleENS2_10CSSKeywordEEEENS_9allocatorIS6_EEJNS2_15CSSValueVariantIJS4_S5_EEEELi0EEENS_10shared_ptrIT_EERKT0_DpOT1_, symObjAddr: 0x511C, symBinAddr: 0xAF68, symSize: 0x58 }
  - { offset: 0x1385E4, size: 0x8, addend: 0x0, symName: __ZNSt3__115allocate_sharedB8ne200100IN10reanimated3css34ResolvableValueInterpolatorFactoryIJNS2_9CSSLengthENS2_10CSSKeywordEEEENS_9allocatorIS6_EEJRNS2_10RelativeToERKNS_12basic_stringIcNS_11char_traitsIcEENS7_IcEEEENS2_15CSSValueVariantIJS4_S5_EEEELi0EEENS_10shared_ptrIT_EERKT0_DpOT1_, symObjAddr: 0x9B00, symBinAddr: 0xF830, symSize: 0x70 }
  - { offset: 0x138BB0, size: 0x8, addend: 0x0, symName: __ZNSt3__115allocate_sharedB8ne200100IN10reanimated3css24ValueInterpolatorFactoryIJNS2_10CSSDisplayEEEENS_9allocatorIS5_EEJNS2_15CSSValueVariantIJS4_EEEELi0EEENS_10shared_ptrIT_EERKT0_DpOT1_, symObjAddr: 0xC98C, symBinAddr: 0x125B4, symSize: 0x58 }
  - { offset: 0x1390CB, size: 0x8, addend: 0x0, symName: __ZNSt3__115allocate_sharedB8ne200100IN10reanimated3css34ResolvableValueInterpolatorFactoryIJNS2_9CSSLengthEEEENS_9allocatorIS5_EEJRNS2_10RelativeToERKNS_12basic_stringIcNS_11char_traitsIcEENS6_IcEEEENS2_15CSSValueVariantIJS4_EEEELi0EEENS_10shared_ptrIT_EERKT0_DpOT1_, symObjAddr: 0xF660, symBinAddr: 0x15124, symSize: 0x70 }
  - { offset: 0x13A62E, size: 0x8, addend: 0x0, symName: __ZNSt3__115allocate_sharedB8ne200100IN10reanimated3css20PerspectiveOperationENS_9allocatorIS3_EEJRKiELi0EEENS_10shared_ptrIT_EERKT0_DpOT1_, symObjAddr: 0x16CD4, symBinAddr: 0x1C0C0, symSize: 0x58 }
  - { offset: 0x13A8CE, size: 0x8, addend: 0x0, symName: __ZNSt3__115allocate_sharedB8ne200100IN10reanimated3css30TransformOperationInterpolatorINS2_20PerspectiveOperationEEENS_9allocatorIS5_EEJNS_10shared_ptrIS4_EEELi0EEENS8_IT_EERKT0_DpOT1_, symObjAddr: 0x167C0, symBinAddr: 0x1BBB4, symSize: 0x58 }
  - { offset: 0x13AE01, size: 0x8, addend: 0x0, symName: __ZNSt3__115allocate_sharedB8ne200100IN10reanimated3css19RotateOperationBaseILNS2_11TransformOpE1EEENS_9allocatorIS5_EEJRA5_KcELi0EEENS_10shared_ptrIT_EERKT0_DpOT1_, symObjAddr: 0x174AC, symBinAddr: 0x1C7E0, symSize: 0x58 }
  - { offset: 0x13B0A1, size: 0x8, addend: 0x0, symName: __ZNSt3__115allocate_sharedB8ne200100IN10reanimated3css30TransformOperationInterpolatorINS2_19RotateOperationBaseILNS2_11TransformOpE1EEEEENS_9allocatorIS7_EEJNS_10shared_ptrIS6_EEELi0EEENSA_IT_EERKT0_DpOT1_, symObjAddr: 0x16E60, symBinAddr: 0x1C19C, symSize: 0x58 }
  - { offset: 0x13B5D4, size: 0x8, addend: 0x0, symName: __ZNSt3__115allocate_sharedB8ne200100IN10reanimated3css19RotateOperationBaseILNS2_11TransformOpE2EEENS_9allocatorIS5_EEJRA5_KcELi0EEENS_10shared_ptrIT_EERKT0_DpOT1_, symObjAddr: 0x17C80, symBinAddr: 0x1CF54, symSize: 0x58 }
  - { offset: 0x13B874, size: 0x8, addend: 0x0, symName: __ZNSt3__115allocate_sharedB8ne200100IN10reanimated3css30TransformOperationInterpolatorINS2_19RotateOperationBaseILNS2_11TransformOpE2EEEEENS_9allocatorIS7_EEJNS_10shared_ptrIS6_EEELi0EEENSA_IT_EERKT0_DpOT1_, symObjAddr: 0x17634, symBinAddr: 0x1C910, symSize: 0x58 }
  - { offset: 0x13BDA7, size: 0x8, addend: 0x0, symName: __ZNSt3__115allocate_sharedB8ne200100IN10reanimated3css19RotateOperationBaseILNS2_11TransformOpE3EEENS_9allocatorIS5_EEJRA5_KcELi0EEENS_10shared_ptrIT_EERKT0_DpOT1_, symObjAddr: 0x18454, symBinAddr: 0x1D6C8, symSize: 0x58 }
  - { offset: 0x13C047, size: 0x8, addend: 0x0, symName: __ZNSt3__115allocate_sharedB8ne200100IN10reanimated3css30TransformOperationInterpolatorINS2_19RotateOperationBaseILNS2_11TransformOpE3EEEEENS_9allocatorIS7_EEJNS_10shared_ptrIS6_EEELi0EEENSA_IT_EERKT0_DpOT1_, symObjAddr: 0x17E08, symBinAddr: 0x1D084, symSize: 0x58 }
  - { offset: 0x13C57A, size: 0x8, addend: 0x0, symName: __ZNSt3__115allocate_sharedB8ne200100IN10reanimated3css16RotateZOperationENS_9allocatorIS3_EEJRA5_KcELi0EEENS_10shared_ptrIT_EERKT0_DpOT1_, symObjAddr: 0x18EF8, symBinAddr: 0x1DFC4, symSize: 0x58 }
  - { offset: 0x13C81A, size: 0x8, addend: 0x0, symName: __ZNSt3__115allocate_sharedB8ne200100IN10reanimated3css30TransformOperationInterpolatorINS2_16RotateZOperationEEENS_9allocatorIS5_EEJNS_10shared_ptrIS4_EEELi0EEENS8_IT_EERKT0_DpOT1_, symObjAddr: 0x185DC, symBinAddr: 0x1D7F8, symSize: 0x58 }
  - { offset: 0x13CD4D, size: 0x8, addend: 0x0, symName: __ZNSt3__115allocate_sharedB8ne200100IN10reanimated3css14ScaleOperationENS_9allocatorIS3_EEJRKiELi0EEENS_10shared_ptrIT_EERKT0_DpOT1_, symObjAddr: 0x19C90, symBinAddr: 0x1EC4C, symSize: 0x58 }
  - { offset: 0x13CFED, size: 0x8, addend: 0x0, symName: __ZNSt3__115allocate_sharedB8ne200100IN10reanimated3css30TransformOperationInterpolatorINS2_14ScaleOperationEEENS_9allocatorIS5_EEJNS_10shared_ptrIS4_EEELi0EEENS8_IT_EERKT0_DpOT1_, symObjAddr: 0x19080, symBinAddr: 0x1E0F4, symSize: 0x58 }
  - { offset: 0x13D520, size: 0x8, addend: 0x0, symName: __ZNSt3__115allocate_sharedB8ne200100IN10reanimated3css18ScaleOperationBaseILNS2_11TransformOpE6EEENS_9allocatorIS5_EEJRKiELi0EEENS_10shared_ptrIT_EERKT0_DpOT1_, symObjAddr: 0x1A33C, symBinAddr: 0x1F298, symSize: 0x58 }
  - { offset: 0x13D7C0, size: 0x8, addend: 0x0, symName: __ZNSt3__115allocate_sharedB8ne200100IN10reanimated3css30TransformOperationInterpolatorINS2_18ScaleOperationBaseILNS2_11TransformOpE6EEEEENS_9allocatorIS7_EEJNS_10shared_ptrIS6_EEELi0EEENSA_IT_EERKT0_DpOT1_, symObjAddr: 0x19DC4, symBinAddr: 0x1ED28, symSize: 0x58 }
  - { offset: 0x13DCF3, size: 0x8, addend: 0x0, symName: __ZNSt3__115allocate_sharedB8ne200100IN10reanimated3css18ScaleOperationBaseILNS2_11TransformOpE7EEENS_9allocatorIS5_EEJRKiELi0EEENS_10shared_ptrIT_EERKT0_DpOT1_, symObjAddr: 0x1A990, symBinAddr: 0x1F8E4, symSize: 0x58 }
  - { offset: 0x13DF93, size: 0x8, addend: 0x0, symName: __ZNSt3__115allocate_sharedB8ne200100IN10reanimated3css30TransformOperationInterpolatorINS2_18ScaleOperationBaseILNS2_11TransformOpE7EEEEENS_9allocatorIS7_EEJNS_10shared_ptrIS6_EEELi0EEENSA_IT_EERKT0_DpOT1_, symObjAddr: 0x1A418, symBinAddr: 0x1F374, symSize: 0x58 }
  - { offset: 0x13E4EC, size: 0x8, addend: 0x0, symName: __ZNSt3__115allocate_sharedB8ne200100IN10reanimated3css22TranslateOperationBaseILNS2_11TransformOpE8EEENS_9allocatorIS5_EEJRKiELi0EEENS_10shared_ptrIT_EERKT0_DpOT1_, symObjAddr: 0x1B278, symBinAddr: 0x201C4, symSize: 0x58 }
  - { offset: 0x13E78C, size: 0x8, addend: 0x0, symName: __ZNSt3__115allocate_sharedB8ne200100IN10reanimated3css30TransformOperationInterpolatorINS2_22TranslateOperationBaseILNS2_11TransformOpE8EEEEENS_9allocatorIS7_EEJNS_10shared_ptrIS6_EERNS2_10RelativeToERKNS_12basic_stringIcNS_11char_traitsIcEENS8_IcEEEEELi0EEENSA_IT_EERKT0_DpOT1_, symObjAddr: 0x1AA6C, symBinAddr: 0x1F9C0, symSize: 0x70 }
  - { offset: 0x13ED31, size: 0x8, addend: 0x0, symName: __ZNSt3__115allocate_sharedB8ne200100IN10reanimated3css22TranslateOperationBaseILNS2_11TransformOpE9EEENS_9allocatorIS5_EEJRKiELi0EEENS_10shared_ptrIT_EERKT0_DpOT1_, symObjAddr: 0x1BB9C, symBinAddr: 0x20A88, symSize: 0x58 }
  - { offset: 0x13EFD1, size: 0x8, addend: 0x0, symName: __ZNSt3__115allocate_sharedB8ne200100IN10reanimated3css30TransformOperationInterpolatorINS2_22TranslateOperationBaseILNS2_11TransformOpE9EEEEENS_9allocatorIS7_EEJNS_10shared_ptrIS6_EERNS2_10RelativeToERKNS_12basic_stringIcNS_11char_traitsIcEENS8_IcEEEEELi0EEENSA_IT_EERKT0_DpOT1_, symObjAddr: 0x1B3B4, symBinAddr: 0x202A8, symSize: 0x70 }
  - { offset: 0x13F550, size: 0x8, addend: 0x0, symName: __ZNSt3__115allocate_sharedB8ne200100IN10reanimated3css17SkewOperationBaseILNS2_11TransformOpE10EEENS_9allocatorIS5_EEJRA5_KcELi0EEENS_10shared_ptrIT_EERKT0_DpOT1_, symObjAddr: 0x1C324, symBinAddr: 0x211B0, symSize: 0x58 }
  - { offset: 0x13F7F0, size: 0x8, addend: 0x0, symName: __ZNSt3__115allocate_sharedB8ne200100IN10reanimated3css30TransformOperationInterpolatorINS2_17SkewOperationBaseILNS2_11TransformOpE10EEEEENS_9allocatorIS7_EEJNS_10shared_ptrIS6_EEELi0EEENSA_IT_EERKT0_DpOT1_, symObjAddr: 0x1BCD8, symBinAddr: 0x20B6C, symSize: 0x58 }
  - { offset: 0x13FD23, size: 0x8, addend: 0x0, symName: __ZNSt3__115allocate_sharedB8ne200100IN10reanimated3css17SkewOperationBaseILNS2_11TransformOpE11EEENS_9allocatorIS5_EEJRA5_KcELi0EEENS_10shared_ptrIT_EERKT0_DpOT1_, symObjAddr: 0x1CAF8, symBinAddr: 0x21924, symSize: 0x58 }
  - { offset: 0x13FFC3, size: 0x8, addend: 0x0, symName: __ZNSt3__115allocate_sharedB8ne200100IN10reanimated3css30TransformOperationInterpolatorINS2_17SkewOperationBaseILNS2_11TransformOpE11EEEEENS_9allocatorIS7_EEJNS_10shared_ptrIS6_EEELi0EEENSA_IT_EERKT0_DpOT1_, symObjAddr: 0x1C4AC, symBinAddr: 0x212E0, symSize: 0x58 }
  - { offset: 0x1404F6, size: 0x8, addend: 0x0, symName: __ZNSt3__115allocate_sharedB8ne200100IN10reanimated3css15MatrixOperationENS_9allocatorIS3_EEJRKNS2_17TransformMatrix3DEELi0EEENS_10shared_ptrIT_EERKT0_DpOT1_, symObjAddr: 0x1DAD8, symBinAddr: 0x226F8, symSize: 0x58 }
  - { offset: 0x140798, size: 0x8, addend: 0x0, symName: __ZNSt3__115allocate_sharedB8ne200100IN10reanimated3css30TransformOperationInterpolatorINS2_15MatrixOperationEEENS_9allocatorIS5_EEJNS_10shared_ptrIS4_EEELi0EEENS8_IT_EERKT0_DpOT1_, symObjAddr: 0x1CC80, symBinAddr: 0x21A54, symSize: 0x58 }
  - { offset: 0x14150A, size: 0x8, addend: 0x0, symName: __ZNSt3__115allocate_sharedB8ne200100IN10reanimated3css24ValueInterpolatorFactoryIJNS2_16CSSDiscreteArrayINS2_10CSSKeywordEEEEEENS_9allocatorIS7_EEJNS2_15CSSValueVariantIJS6_EEEELi0EEENS_10shared_ptrIT_EERKT0_DpOT1_, symObjAddr: 0x20318, symBinAddr: 0x2464C, symSize: 0x58 }
  - { offset: 0x1428C3, size: 0x8, addend: 0x0, symName: __ZNSt3__119__allocate_at_leastB8ne200100INS_9allocatorINS_10shared_ptrIN10reanimated3css27PropertyInterpolatorFactoryEEEEEEENS_19__allocation_resultINS_16allocator_traitsIT_E7pointerEEERSA_m, symObjAddr: 0x1B38, symBinAddr: 0x7AB8, symSize: 0x34 }
  - { offset: 0x142979, size: 0x8, addend: 0x0, symName: __ZNSt3__16vectorINS_10shared_ptrIN10reanimated3css27PropertyInterpolatorFactoryEEENS_9allocatorIS5_EEE16__destroy_vectorclB8ne200100Ev, symObjAddr: 0x1B6C, symBinAddr: 0x7AEC, symSize: 0x70 }
  - { offset: 0x142BB2, size: 0x8, addend: 0x0, symName: __ZNSt3__127__throw_bad_optional_accessB8ne200100Ev, symObjAddr: 0x1C68, symBinAddr: 0x7BE8, symSize: 0x34 }
  - { offset: 0x143373, size: 0x8, addend: 0x0, symName: __ZNSt3__115allocate_sharedB8ne200100IN10reanimated3css17ValueInterpolatorIJNS2_10CSSKeywordEEEENS_9allocatorIS5_EEJRKNS_6vectorINS_12basic_stringIcNS_11char_traitsIcEENS6_IcEEEENS6_ISD_EEEERKNS2_15CSSValueVariantIJS4_EEERKNS_10shared_ptrINS2_20ViewStylesRepositoryEEEELi0EEENSM_IT_EERKT0_DpOT1_, symObjAddr: 0x21AC, symBinAddr: 0x8124, symSize: 0x70 }
  - { offset: 0x1437B8, size: 0x8, addend: 0x0, symName: __ZNSt3__126__throw_bad_variant_accessB8ne200100Ev, symObjAddr: 0x2174, symBinAddr: 0x80EC, symSize: 0x34 }
  - { offset: 0x143FC7, size: 0x8, addend: 0x0, symName: __ZNSt3__15visitB8ne200100IZNK10reanimated3css15CSSValueVariantIJNS2_10CSSKeywordEEEeqERKS5_EUlRKT_RKT0_E_JRKNS_7variantIJS4_EEESI_EvEEDcOS8_DpOT0_, symObjAddr: 0x3514, symBinAddr: 0x9420, symSize: 0x50 }
  - { offset: 0x144197, size: 0x8, addend: 0x0, symName: __ZNSt3__116__variant_detail12__visitation6__base12__dispatcherIJLm0ELm0EEE10__dispatchB8ne200100IONS1_9__variant15__value_visitorIZNK10reanimated3css15CSSValueVariantIJNS9_10CSSKeywordEEEeqERKSC_EUlRKT_RKT0_E_EEJRKNS0_6__baseILNS0_6_TraitE1EJSB_EEESS_EEEDcSF_DpT0_, symObjAddr: 0x3564, symBinAddr: 0x9470, symSize: 0xC }
  - { offset: 0x144358, size: 0x8, addend: 0x0, symName: __ZNSt3__135__uninitialized_allocator_copy_implB8ne200100INS_9allocatorINS_12basic_stringIcNS_11char_traitsIcEENS1_IcEEEEEEPS6_S8_S8_EET2_RT_T0_T1_S9_, symObjAddr: 0x32FC, symBinAddr: 0x9260, symSize: 0xBC }
  - { offset: 0x144610, size: 0x8, addend: 0x0, symName: __ZNSt3__119__allocate_at_leastB8ne200100INS_9allocatorINS_12basic_stringIcNS_11char_traitsIcEENS1_IcEEEEEEEENS_19__allocation_resultINS_16allocator_traitsIT_E7pointerEEERSA_m, symObjAddr: 0x32B8, symBinAddr: 0x921C, symSize: 0x44 }
  - { offset: 0x1446C6, size: 0x8, addend: 0x0, symName: __ZNSt3__135__uninitialized_allocator_copy_implB8ne200100INS_9allocatorINS_12basic_stringIcNS_11char_traitsIcEENS1_IcEEEEEEPS6_S8_S8_EET2_RT_T0_T1_S9_, symObjAddr: 0x32FC, symBinAddr: 0x9260, symSize: 0xBC }
  - { offset: 0x144B2B, size: 0x8, addend: 0x0, symName: __ZNSt3__1plB8ne200100IcNS_11char_traitsIcEENS_9allocatorIcEEEENS_12basic_stringIT_T0_T1_EEPKS6_OS9_, symObjAddr: 0x373C, symBinAddr: 0x9648, symSize: 0x5C }
  - { offset: 0x144DAF, size: 0x8, addend: 0x0, symName: __ZNSt3__119__allocate_at_leastB8ne200100INS_9allocatorIN10reanimated3css13ValueKeyframeIJNS3_10CSSKeywordEEEEEEEENS_19__allocation_resultINS_16allocator_traitsIT_E7pointerEEERSA_m, symObjAddr: 0x39E8, symBinAddr: 0x988C, symSize: 0x34 }
  - { offset: 0x144E65, size: 0x8, addend: 0x0, symName: __ZNSt3__134__uninitialized_allocator_relocateB8ne200100INS_9allocatorIN10reanimated3css13ValueKeyframeIJNS3_10CSSKeywordEEEEEEPS6_EEvRT_T0_SB_SB_, symObjAddr: 0x3A1C, symBinAddr: 0x98C0, symSize: 0xB8 }
  - { offset: 0x144E7A, size: 0x8, addend: 0x0, symName: __ZNSt3__134__uninitialized_allocator_relocateB8ne200100INS_9allocatorIN10reanimated3css13ValueKeyframeIJNS3_10CSSKeywordEEEEEEPS6_EEvRT_T0_SB_SB_, symObjAddr: 0x3A1C, symBinAddr: 0x98C0, symSize: 0xB8 }
  - { offset: 0x144EDE, size: 0x8, addend: 0x0, symName: __ZNSt3__134__uninitialized_allocator_relocateB8ne200100INS_9allocatorIN10reanimated3css13ValueKeyframeIJNS3_10CSSKeywordEEEEEEPS6_EEvRT_T0_SB_SB_, symObjAddr: 0x3A1C, symBinAddr: 0x98C0, symSize: 0xB8 }
  - { offset: 0x146035, size: 0x8, addend: 0x0, symName: __ZNSt3__135__uninitialized_allocator_copy_implB8ne200100INS_9allocatorIN10reanimated3css13ValueKeyframeIJNS3_10CSSKeywordEEEEEEPKS6_S9_PS6_EET2_RT_T0_T1_SB_, symObjAddr: 0x44A4, symBinAddr: 0xA348, symSize: 0x98 }
  - { offset: 0x146C91, size: 0x8, addend: 0x0, symName: __ZNSt3__15visitB8ne200100IZNK10reanimated3css15CSSValueVariantIJNS2_10CSSKeywordEEE11interpolateEdRKS5_EUlRKT_RKT0_E_JRKNS_7variantIJS4_EEESI_EvEEDcOS8_DpOT0_, symObjAddr: 0x4A08, symBinAddr: 0xA8AC, symSize: 0x50 }
  - { offset: 0x146E61, size: 0x8, addend: 0x0, symName: __ZNSt3__116__variant_detail12__visitation6__base12__dispatcherIJLm0ELm0EEE10__dispatchB8ne200100IONS1_9__variant15__value_visitorIZNK10reanimated3css15CSSValueVariantIJNS9_10CSSKeywordEEE11interpolateEdRKSC_EUlRKT_RKT0_E_EEJRKNS0_6__baseILNS0_6_TraitE1EJSB_EEESS_EEEDcSF_DpT0_, symObjAddr: 0x4A58, symBinAddr: 0xA8FC, symSize: 0x4 }
  - { offset: 0x14773F, size: 0x8, addend: 0x0, symName: __ZNSt3__115allocate_sharedB8ne200100IN10reanimated3css17ValueInterpolatorIJNS2_9CSSDoubleENS2_10CSSKeywordEEEENS_9allocatorIS6_EEJRKNS_6vectorINS_12basic_stringIcNS_11char_traitsIcEENS7_IcEEEENS7_ISE_EEEERKNS2_15CSSValueVariantIJS4_S5_EEERKNS_10shared_ptrINS2_20ViewStylesRepositoryEEEELi0EEENSN_IT_EERKT0_DpOT1_, symObjAddr: 0x5598, symBinAddr: 0xB3E4, symSize: 0x70 }
  - { offset: 0x1485CE, size: 0x8, addend: 0x0, symName: __ZNSt3__15visitB8ne200100IZNK10reanimated3css15CSSValueVariantIJNS2_9CSSDoubleENS2_10CSSKeywordEEEeqERKS6_EUlRKT_RKT0_E_JRKNS_7variantIJS4_S5_EEESJ_EvEEDcOS9_DpOT0_, symObjAddr: 0x6180, symBinAddr: 0xBFCC, symSize: 0x4C }
  - { offset: 0x14879D, size: 0x8, addend: 0x0, symName: __ZNSt3__116__variant_detail12__visitation6__base12__dispatcherIJLm0ELm0EEE10__dispatchB8ne200100IONS1_9__variant15__value_visitorIZNK10reanimated3css15CSSValueVariantIJNS9_9CSSDoubleENS9_10CSSKeywordEEEeqERKSD_EUlRKT_RKT0_E_EEJRKNS0_6__baseILNS0_6_TraitE1EJSB_SC_EEEST_EEEDcSG_DpT0_, symObjAddr: 0x61CC, symBinAddr: 0xC018, symSize: 0xC }
  - { offset: 0x148C95, size: 0x8, addend: 0x0, symName: __ZNSt3__134__uninitialized_allocator_relocateB8ne200100INS_9allocatorIN10reanimated3css13ValueKeyframeIJNS3_9CSSDoubleENS3_10CSSKeywordEEEEEEPS7_EEvRT_T0_SC_SC_, symObjAddr: 0x65FC, symBinAddr: 0xC400, symSize: 0x104 }
  - { offset: 0x148CAA, size: 0x8, addend: 0x0, symName: __ZNSt3__134__uninitialized_allocator_relocateB8ne200100INS_9allocatorIN10reanimated3css13ValueKeyframeIJNS3_9CSSDoubleENS3_10CSSKeywordEEEEEEPS7_EEvRT_T0_SC_SC_, symObjAddr: 0x65FC, symBinAddr: 0xC400, symSize: 0x104 }
  - { offset: 0x149EB4, size: 0x8, addend: 0x0, symName: __ZNSt3__135__uninitialized_allocator_copy_implB8ne200100INS_9allocatorIN10reanimated3css13ValueKeyframeIJNS3_9CSSDoubleENS3_10CSSKeywordEEEEEEPKS7_SA_PS7_EET2_RT_T0_T1_SC_, symObjAddr: 0x713C, symBinAddr: 0xCF08, symSize: 0xA8 }
  - { offset: 0x14A5E9, size: 0x8, addend: 0x0, symName: __ZNSt3__15visitB8ne200100IZNK10reanimated3css15CSSValueVariantIJNS2_9CSSDoubleENS2_10CSSKeywordEEE11interpolateEdRKS6_EUlRKT_RKT0_E_JRKNS_7variantIJS4_S5_EEESJ_EvEEDcOS9_DpOT0_, symObjAddr: 0x76C0, symBinAddr: 0xD404, symSize: 0x4C }
  - { offset: 0x14A7B8, size: 0x8, addend: 0x0, symName: __ZNSt3__116__variant_detail12__visitation6__base12__dispatcherIJLm0ELm0EEE10__dispatchB8ne200100IONS1_9__variant15__value_visitorIZNK10reanimated3css15CSSValueVariantIJNS9_9CSSDoubleENS9_10CSSKeywordEEE11interpolateEdRKSD_EUlRKT_RKT0_E_EEJRKNS0_6__baseILNS0_6_TraitE1EJSB_SC_EEEST_EEEDcSG_DpT0_, symObjAddr: 0x770C, symBinAddr: 0xD450, symSize: 0x84 }
  - { offset: 0x14AE86, size: 0x8, addend: 0x0, symName: __ZNSt3__115allocate_sharedB8ne200100IN10reanimated3css17ValueInterpolatorIJNS2_9CSSDoubleEEEENS_9allocatorIS5_EEJRKNS_6vectorINS_12basic_stringIcNS_11char_traitsIcEENS6_IcEEEENS6_ISD_EEEERKNS2_15CSSValueVariantIJS4_EEERKNS_10shared_ptrINS2_20ViewStylesRepositoryEEEELi0EEENSM_IT_EERKT0_DpOT1_, symObjAddr: 0x7D48, symBinAddr: 0xDA8C, symSize: 0x70 }
  - { offset: 0x14B93B, size: 0x8, addend: 0x0, symName: __ZNSt3__15visitB8ne200100IZNK10reanimated3css15CSSValueVariantIJNS2_9CSSDoubleEEEeqERKS5_EUlRKT_RKT0_E_JRKNS_7variantIJS4_EEESI_EvEEDcOS8_DpOT0_, symObjAddr: 0x8890, symBinAddr: 0xE5D4, symSize: 0x50 }
  - { offset: 0x14BB0B, size: 0x8, addend: 0x0, symName: __ZNSt3__116__variant_detail12__visitation6__base12__dispatcherIJLm0ELm0EEE10__dispatchB8ne200100IONS1_9__variant15__value_visitorIZNK10reanimated3css15CSSValueVariantIJNS9_9CSSDoubleEEEeqERKSC_EUlRKT_RKT0_E_EEJRKNS0_6__baseILNS0_6_TraitE1EJSB_EEESS_EEEDcSF_DpT0_, symObjAddr: 0x88E0, symBinAddr: 0xE624, symSize: 0xC }
  - { offset: 0x14C11E, size: 0x8, addend: 0x0, symName: __ZNSt3__119__allocate_at_leastB8ne200100INS_9allocatorIN10reanimated3css13ValueKeyframeIJNS3_9CSSDoubleEEEEEEEENS_19__allocation_resultINS_16allocator_traitsIT_E7pointerEEERSA_m, symObjAddr: 0x8BBC, symBinAddr: 0xE8EC, symSize: 0x44 }
  - { offset: 0x14C1D4, size: 0x8, addend: 0x0, symName: __ZNSt3__134__uninitialized_allocator_relocateB8ne200100INS_9allocatorIN10reanimated3css13ValueKeyframeIJNS3_9CSSDoubleEEEEEEPS6_EEvRT_T0_SB_SB_, symObjAddr: 0x8C00, symBinAddr: 0xE930, symSize: 0xC0 }
  - { offset: 0x14C1E9, size: 0x8, addend: 0x0, symName: __ZNSt3__134__uninitialized_allocator_relocateB8ne200100INS_9allocatorIN10reanimated3css13ValueKeyframeIJNS3_9CSSDoubleEEEEEEPS6_EEvRT_T0_SB_SB_, symObjAddr: 0x8C00, symBinAddr: 0xE930, symSize: 0xC0 }
  - { offset: 0x14C249, size: 0x8, addend: 0x0, symName: __ZNSt3__134__uninitialized_allocator_relocateB8ne200100INS_9allocatorIN10reanimated3css13ValueKeyframeIJNS3_9CSSDoubleEEEEEEPS6_EEvRT_T0_SB_SB_, symObjAddr: 0x8C00, symBinAddr: 0xE930, symSize: 0xC0 }
  - { offset: 0x14D5EA, size: 0x8, addend: 0x0, symName: __ZNSt3__135__uninitialized_allocator_copy_implB8ne200100INS_9allocatorIN10reanimated3css13ValueKeyframeIJNS3_9CSSDoubleEEEEEEPKS6_S9_PS6_EET2_RT_T0_T1_SB_, symObjAddr: 0x93F4, symBinAddr: 0xF124, symSize: 0xA0 }
  - { offset: 0x14E4B6, size: 0x8, addend: 0x0, symName: __ZNSt3__15visitB8ne200100IZNK10reanimated3css15CSSValueVariantIJNS2_9CSSDoubleEEE11interpolateEdRKS5_EUlRKT_RKT0_E_JRKNS_7variantIJS4_EEESI_EvEEDcOS8_DpOT0_, symObjAddr: 0x9868, symBinAddr: 0xF598, symSize: 0x50 }
  - { offset: 0x14E686, size: 0x8, addend: 0x0, symName: __ZNSt3__116__variant_detail12__visitation6__base12__dispatcherIJLm0ELm0EEE10__dispatchB8ne200100IONS1_9__variant15__value_visitorIZNK10reanimated3css15CSSValueVariantIJNS9_9CSSDoubleEEE11interpolateEdRKSC_EUlRKT_RKT0_E_EEJRKNS0_6__baseILNS0_6_TraitE1EJSB_EEESS_EEEDcSF_DpT0_, symObjAddr: 0x98B8, symBinAddr: 0xF5E8, symSize: 0x84 }
  - { offset: 0x14EFEC, size: 0x8, addend: 0x0, symName: __ZNSt3__115allocate_sharedB8ne200100IN10reanimated3css27ResolvableValueInterpolatorIJNS2_9CSSLengthENS2_10CSSKeywordEEEENS_9allocatorIS6_EEJRKNS_6vectorINS_12basic_stringIcNS_11char_traitsIcEENS7_IcEEEENS7_ISE_EEEERKNS2_15CSSValueVariantIJS4_S5_EEERKNS_10shared_ptrINS2_20ViewStylesRepositoryEEERKNS2_10RelativeToERKSE_ELi0EEENSN_IT_EERKT0_DpOT1_, symObjAddr: 0xA02C, symBinAddr: 0xFD5C, symSize: 0x88 }
  - { offset: 0x14FE66, size: 0x8, addend: 0x0, symName: __ZNSt3__112construct_atB8ne200100IN10reanimated3css27ResolvableValueInterpolatorIJNS2_9CSSLengthENS2_10CSSKeywordEEEEJRKNS_6vectorINS_12basic_stringIcNS_11char_traitsIcEENS_9allocatorIcEEEENSB_ISD_EEEERKNS2_15CSSValueVariantIJS4_S5_EEERKNS_10shared_ptrINS2_20ViewStylesRepositoryEEERKNS2_10RelativeToERKSD_EPS6_EEPT_SY_DpOT0_, symObjAddr: 0xA148, symBinAddr: 0xFE78, symSize: 0xC4 }
  - { offset: 0x15020D, size: 0x8, addend: 0x0, symName: __ZNSt3__15visitB8ne200100IZNK10reanimated3css15CSSValueVariantIJNS2_9CSSLengthENS2_10CSSKeywordEEEeqERKS6_EUlRKT_RKT0_E_JRKNS_7variantIJS4_S5_EEESJ_EvEEDcOS9_DpOT0_, symObjAddr: 0xB18C, symBinAddr: 0x10EBC, symSize: 0x4C }
  - { offset: 0x1503DC, size: 0x8, addend: 0x0, symName: __ZNSt3__116__variant_detail12__visitation6__base12__dispatcherIJLm0ELm0EEE10__dispatchB8ne200100IONS1_9__variant15__value_visitorIZNK10reanimated3css15CSSValueVariantIJNS9_9CSSLengthENS9_10CSSKeywordEEEeqERKSD_EUlRKT_RKT0_E_EEJRKNS0_6__baseILNS0_6_TraitE1EJSB_SC_EEEST_EEEDcSG_DpT0_, symObjAddr: 0xB1D8, symBinAddr: 0x10F08, symSize: 0xC }
  - { offset: 0x1504E1, size: 0x8, addend: 0x0, symName: __ZNSt3__15visitB8ne200100IZNK10reanimated3css15CSSValueVariantIJNS2_9CSSLengthENS2_10CSSKeywordEEE11interpolateEdRKS6_EUlRKT_RKT0_E_JRKNS_7variantIJS4_S5_EEESJ_EvEEDcOS9_DpOT0_, symObjAddr: 0xAED8, symBinAddr: 0x10C08, symSize: 0x4C }
  - { offset: 0x1506B0, size: 0x8, addend: 0x0, symName: __ZNSt3__116__variant_detail12__visitation6__base12__dispatcherIJLm0ELm0EEE10__dispatchB8ne200100IONS1_9__variant15__value_visitorIZNK10reanimated3css15CSSValueVariantIJNS9_9CSSLengthENS9_10CSSKeywordEEE11interpolateEdRKSD_EUlRKT_RKT0_E_EEJRKNS0_6__baseILNS0_6_TraitE1EJSB_SC_EEEST_EEEDcSG_DpT0_, symObjAddr: 0xAF24, symBinAddr: 0x10C54, symSize: 0x4 }
  - { offset: 0x150EC9, size: 0x8, addend: 0x0, symName: __ZNSt3__134__uninitialized_allocator_relocateB8ne200100INS_9allocatorIN10reanimated3css13ValueKeyframeIJNS3_9CSSLengthENS3_10CSSKeywordEEEEEEPS7_EEvRT_T0_SC_SC_, symObjAddr: 0xB54C, symBinAddr: 0x11234, symSize: 0x104 }
  - { offset: 0x150EDE, size: 0x8, addend: 0x0, symName: __ZNSt3__134__uninitialized_allocator_relocateB8ne200100INS_9allocatorIN10reanimated3css13ValueKeyframeIJNS3_9CSSLengthENS3_10CSSKeywordEEEEEEPS7_EEvRT_T0_SC_SC_, symObjAddr: 0xB54C, symBinAddr: 0x11234, symSize: 0x104 }
  - { offset: 0x152042, size: 0x8, addend: 0x0, symName: __ZNSt3__135__uninitialized_allocator_copy_implB8ne200100INS_9allocatorIN10reanimated3css13ValueKeyframeIJNS3_9CSSLengthENS3_10CSSKeywordEEEEEEPKS7_SA_PS7_EET2_RT_T0_T1_SC_, symObjAddr: 0xC090, symBinAddr: 0x11D40, symSize: 0xA8 }
  - { offset: 0x152777, size: 0x8, addend: 0x0, symName: __ZNSt3__15visitB8ne200100IZNK10reanimated3css15CSSValueVariantIJNS2_9CSSLengthENS2_10CSSKeywordEEE11interpolateEdRKS6_RKNS2_38CSSResolvableValueInterpolationContextEEUlRKT_RKT0_E_JRKNS_7variantIJS4_S5_EEESM_EvEEDcOSC_DpOT0_, symObjAddr: 0xC55C, symBinAddr: 0x12184, symSize: 0x4C }
  - { offset: 0x152946, size: 0x8, addend: 0x0, symName: __ZNSt3__116__variant_detail12__visitation6__base12__dispatcherIJLm0ELm0EEE10__dispatchB8ne200100IONS1_9__variant15__value_visitorIZNK10reanimated3css15CSSValueVariantIJNS9_9CSSLengthENS9_10CSSKeywordEEE11interpolateEdRKSD_RKNS9_38CSSResolvableValueInterpolationContextEEUlRKT_RKT0_E_EEJRKNS0_6__baseILNS0_6_TraitE1EJSB_SC_EEESW_EEEDcSJ_DpT0_, symObjAddr: 0xC5A8, symBinAddr: 0x121D0, symSize: 0x78 }
  - { offset: 0x15342E, size: 0x8, addend: 0x0, symName: __ZNSt3__115allocate_sharedB8ne200100IN10reanimated3css17ValueInterpolatorIJNS2_10CSSDisplayEEEENS_9allocatorIS5_EEJRKNS_6vectorINS_12basic_stringIcNS_11char_traitsIcEENS6_IcEEEENS6_ISD_EEEERKNS2_15CSSValueVariantIJS4_EEERKNS_10shared_ptrINS2_20ViewStylesRepositoryEEEELi0EEENSM_IT_EERKT0_DpOT1_, symObjAddr: 0xCD90, symBinAddr: 0x129B0, symSize: 0x70 }
  - { offset: 0x154028, size: 0x8, addend: 0x0, symName: __ZNSt3__15visitB8ne200100IZNK10reanimated3css15CSSValueVariantIJNS2_10CSSDisplayEEEeqERKS5_EUlRKT_RKT0_E_JRKNS_7variantIJS4_EEESI_EvEEDcOS8_DpOT0_, symObjAddr: 0xDD6C, symBinAddr: 0x1398C, symSize: 0x50 }
  - { offset: 0x1541F8, size: 0x8, addend: 0x0, symName: __ZNSt3__116__variant_detail12__visitation6__base12__dispatcherIJLm0ELm0EEE10__dispatchB8ne200100IONS1_9__variant15__value_visitorIZNK10reanimated3css15CSSValueVariantIJNS9_10CSSDisplayEEEeqERKSC_EUlRKT_RKT0_E_EEJRKNS0_6__baseILNS0_6_TraitE1EJSB_EEESS_EEEDcSF_DpT0_, symObjAddr: 0xDDBC, symBinAddr: 0x139DC, symSize: 0xC }
  - { offset: 0x154588, size: 0x8, addend: 0x0, symName: __ZNSt3__134__uninitialized_allocator_relocateB8ne200100INS_9allocatorIN10reanimated3css13ValueKeyframeIJNS3_10CSSDisplayEEEEEEPS6_EEvRT_T0_SB_SB_, symObjAddr: 0xE218, symBinAddr: 0x13D9C, symSize: 0xB8 }
  - { offset: 0x15459D, size: 0x8, addend: 0x0, symName: __ZNSt3__134__uninitialized_allocator_relocateB8ne200100INS_9allocatorIN10reanimated3css13ValueKeyframeIJNS3_10CSSDisplayEEEEEEPS6_EEvRT_T0_SB_SB_, symObjAddr: 0xE218, symBinAddr: 0x13D9C, symSize: 0xB8 }
  - { offset: 0x154601, size: 0x8, addend: 0x0, symName: __ZNSt3__134__uninitialized_allocator_relocateB8ne200100INS_9allocatorIN10reanimated3css13ValueKeyframeIJNS3_10CSSDisplayEEEEEEPS6_EEvRT_T0_SB_SB_, symObjAddr: 0xE218, symBinAddr: 0x13D9C, symSize: 0xB8 }
  - { offset: 0x155382, size: 0x8, addend: 0x0, symName: __ZNSt3__135__uninitialized_allocator_copy_implB8ne200100INS_9allocatorIN10reanimated3css13ValueKeyframeIJNS3_10CSSDisplayEEEEEEPKS6_S9_PS6_EET2_RT_T0_T1_SB_, symObjAddr: 0xEC2C, symBinAddr: 0x14778, symSize: 0x98 }
  - { offset: 0x155C9F, size: 0x8, addend: 0x0, symName: __ZNSt3__15visitB8ne200100IZNK10reanimated3css15CSSValueVariantIJNS2_10CSSDisplayEEE11interpolateEdRKS5_EUlRKT_RKT0_E_JRKNS_7variantIJS4_EEESI_EvEEDcOS8_DpOT0_, symObjAddr: 0xF190, symBinAddr: 0x14C54, symSize: 0x50 }
  - { offset: 0x155E6F, size: 0x8, addend: 0x0, symName: __ZNSt3__116__variant_detail12__visitation6__base12__dispatcherIJLm0ELm0EEE10__dispatchB8ne200100IONS1_9__variant15__value_visitorIZNK10reanimated3css15CSSValueVariantIJNS9_10CSSDisplayEEE11interpolateEdRKSC_EUlRKT_RKT0_E_EEJRKNS0_6__baseILNS0_6_TraitE1EJSB_EEESS_EEEDcSF_DpT0_, symObjAddr: 0xF1E0, symBinAddr: 0x14CA4, symSize: 0x4 }
  - { offset: 0x15691A, size: 0x8, addend: 0x0, symName: __ZNSt3__115allocate_sharedB8ne200100IN10reanimated3css27ResolvableValueInterpolatorIJNS2_9CSSLengthEEEENS_9allocatorIS5_EEJRKNS_6vectorINS_12basic_stringIcNS_11char_traitsIcEENS6_IcEEEENS6_ISD_EEEERKNS2_15CSSValueVariantIJS4_EEERKNS_10shared_ptrINS2_20ViewStylesRepositoryEEERKNS2_10RelativeToERKSD_ELi0EEENSM_IT_EERKT0_DpOT1_, symObjAddr: 0xF944, symBinAddr: 0x15408, symSize: 0x88 }
  - { offset: 0x1573BA, size: 0x8, addend: 0x0, symName: __ZNSt3__112construct_atB8ne200100IN10reanimated3css27ResolvableValueInterpolatorIJNS2_9CSSLengthEEEEJRKNS_6vectorINS_12basic_stringIcNS_11char_traitsIcEENS_9allocatorIcEEEENSA_ISC_EEEERKNS2_15CSSValueVariantIJS4_EEERKNS_10shared_ptrINS2_20ViewStylesRepositoryEEERKNS2_10RelativeToERKSC_EPS5_EEPT_SX_DpOT0_, symObjAddr: 0xFA60, symBinAddr: 0x15524, symSize: 0xC4 }
  - { offset: 0x157761, size: 0x8, addend: 0x0, symName: __ZNSt3__15visitB8ne200100IZNK10reanimated3css15CSSValueVariantIJNS2_9CSSLengthEEEeqERKS5_EUlRKT_RKT0_E_JRKNS_7variantIJS4_EEESI_EvEEDcOS8_DpOT0_, symObjAddr: 0x10874, symBinAddr: 0x16338, symSize: 0x50 }
  - { offset: 0x157931, size: 0x8, addend: 0x0, symName: __ZNSt3__116__variant_detail12__visitation6__base12__dispatcherIJLm0ELm0EEE10__dispatchB8ne200100IONS1_9__variant15__value_visitorIZNK10reanimated3css15CSSValueVariantIJNS9_9CSSLengthEEEeqERKSC_EUlRKT_RKT0_E_EEJRKNS0_6__baseILNS0_6_TraitE1EJSB_EEESS_EEEDcSF_DpT0_, symObjAddr: 0x108C4, symBinAddr: 0x16388, symSize: 0xC }
  - { offset: 0x157D41, size: 0x8, addend: 0x0, symName: __ZNSt3__15visitB8ne200100IZNK10reanimated3css15CSSValueVariantIJNS2_9CSSLengthEEE11interpolateEdRKS5_EUlRKT_RKT0_E_JRKNS_7variantIJS4_EEESI_EvEEDcOS8_DpOT0_, symObjAddr: 0x107D0, symBinAddr: 0x16294, symSize: 0x50 }
  - { offset: 0x157F11, size: 0x8, addend: 0x0, symName: __ZNSt3__116__variant_detail12__visitation6__base12__dispatcherIJLm0ELm0EEE10__dispatchB8ne200100IONS1_9__variant15__value_visitorIZNK10reanimated3css15CSSValueVariantIJNS9_9CSSLengthEEE11interpolateEdRKSC_EUlRKT_RKT0_E_EEJRKNS0_6__baseILNS0_6_TraitE1EJSB_EEESS_EEEDcSF_DpT0_, symObjAddr: 0x10820, symBinAddr: 0x162E4, symSize: 0x4 }
  - { offset: 0x15828A, size: 0x8, addend: 0x0, symName: __ZNSt3__119__allocate_at_leastB8ne200100INS_9allocatorIN10reanimated3css13ValueKeyframeIJNS3_9CSSLengthEEEEEEEENS_19__allocation_resultINS_16allocator_traitsIT_E7pointerEEERSA_m, symObjAddr: 0x10BAC, symBinAddr: 0x1665C, symSize: 0x48 }
  - { offset: 0x158340, size: 0x8, addend: 0x0, symName: __ZNSt3__134__uninitialized_allocator_relocateB8ne200100INS_9allocatorIN10reanimated3css13ValueKeyframeIJNS3_9CSSLengthEEEEEEPS6_EEvRT_T0_SB_SB_, symObjAddr: 0x10BF4, symBinAddr: 0x166A4, symSize: 0xC8 }
  - { offset: 0x158355, size: 0x8, addend: 0x0, symName: __ZNSt3__134__uninitialized_allocator_relocateB8ne200100INS_9allocatorIN10reanimated3css13ValueKeyframeIJNS3_9CSSLengthEEEEEEPS6_EEvRT_T0_SB_SB_, symObjAddr: 0x10BF4, symBinAddr: 0x166A4, symSize: 0xC8 }
  - { offset: 0x1583B7, size: 0x8, addend: 0x0, symName: __ZNSt3__134__uninitialized_allocator_relocateB8ne200100INS_9allocatorIN10reanimated3css13ValueKeyframeIJNS3_9CSSLengthEEEEEEPS6_EEvRT_T0_SB_SB_, symObjAddr: 0x10BF4, symBinAddr: 0x166A4, symSize: 0xC8 }
  - { offset: 0x159721, size: 0x8, addend: 0x0, symName: __ZNSt3__135__uninitialized_allocator_copy_implB8ne200100INS_9allocatorIN10reanimated3css13ValueKeyframeIJNS3_9CSSLengthEEEEEEPKS6_S9_PS6_EET2_RT_T0_T1_SB_, symObjAddr: 0x1144C, symBinAddr: 0x16EFC, symSize: 0xA8 }
  - { offset: 0x15A5B6, size: 0x8, addend: 0x0, symName: __ZNSt3__15visitB8ne200100IZNK10reanimated3css15CSSValueVariantIJNS2_9CSSLengthEEE11interpolateEdRKS5_RKNS2_38CSSResolvableValueInterpolationContextEEUlRKT_RKT0_E_JRKNS_7variantIJS4_EEESL_EvEEDcOSB_DpOT0_, symObjAddr: 0x11860, symBinAddr: 0x17310, symSize: 0x50 }
  - { offset: 0x15A786, size: 0x8, addend: 0x0, symName: __ZNSt3__116__variant_detail12__visitation6__base12__dispatcherIJLm0ELm0EEE10__dispatchB8ne200100IONS1_9__variant15__value_visitorIZNK10reanimated3css15CSSValueVariantIJNS9_9CSSLengthEEE11interpolateEdRKSC_RKNS9_38CSSResolvableValueInterpolationContextEEUlRKT_RKT0_E_EEJRKNS0_6__baseILNS0_6_TraitE1EJSB_EEESV_EEEDcSI_DpT0_, symObjAddr: 0x118B0, symBinAddr: 0x17360, symSize: 0x78 }
  - { offset: 0x15AC4A, size: 0x8, addend: 0x0, symName: __ZNSt3__115allocate_sharedB8ne200100IN10reanimated3css17ValueInterpolatorIJNS2_10CSSIntegerEEEENS_9allocatorIS5_EEJRKNS_6vectorINS_12basic_stringIcNS_11char_traitsIcEENS6_IcEEEENS6_ISD_EEEERKNS2_15CSSValueVariantIJS4_EEERKNS_10shared_ptrINS2_20ViewStylesRepositoryEEEELi0EEENSM_IT_EERKT0_DpOT1_, symObjAddr: 0x12074, symBinAddr: 0x17B24, symSize: 0x70 }
  - { offset: 0x15B6FF, size: 0x8, addend: 0x0, symName: __ZNSt3__15visitB8ne200100IZNK10reanimated3css15CSSValueVariantIJNS2_10CSSIntegerEEEeqERKS5_EUlRKT_RKT0_E_JRKNS_7variantIJS4_EEESI_EvEEDcOS8_DpOT0_, symObjAddr: 0x12BB4, symBinAddr: 0x18664, symSize: 0x50 }
  - { offset: 0x15B8CF, size: 0x8, addend: 0x0, symName: __ZNSt3__116__variant_detail12__visitation6__base12__dispatcherIJLm0ELm0EEE10__dispatchB8ne200100IONS1_9__variant15__value_visitorIZNK10reanimated3css15CSSValueVariantIJNS9_10CSSIntegerEEEeqERKSC_EUlRKT_RKT0_E_EEJRKNS0_6__baseILNS0_6_TraitE1EJSB_EEESS_EEEDcSF_DpT0_, symObjAddr: 0x12C04, symBinAddr: 0x186B4, symSize: 0xC }
  - { offset: 0x15BF56, size: 0x8, addend: 0x0, symName: __ZNSt3__134__uninitialized_allocator_relocateB8ne200100INS_9allocatorIN10reanimated3css13ValueKeyframeIJNS3_10CSSIntegerEEEEEEPS6_EEvRT_T0_SB_SB_, symObjAddr: 0x12F24, symBinAddr: 0x1897C, symSize: 0xC0 }
  - { offset: 0x15BF6B, size: 0x8, addend: 0x0, symName: __ZNSt3__134__uninitialized_allocator_relocateB8ne200100INS_9allocatorIN10reanimated3css13ValueKeyframeIJNS3_10CSSIntegerEEEEEEPS6_EEvRT_T0_SB_SB_, symObjAddr: 0x12F24, symBinAddr: 0x1897C, symSize: 0xC0 }
  - { offset: 0x15BFCB, size: 0x8, addend: 0x0, symName: __ZNSt3__134__uninitialized_allocator_relocateB8ne200100INS_9allocatorIN10reanimated3css13ValueKeyframeIJNS3_10CSSIntegerEEEEEEPS6_EEvRT_T0_SB_SB_, symObjAddr: 0x12F24, symBinAddr: 0x1897C, symSize: 0xC0 }
  - { offset: 0x15D36C, size: 0x8, addend: 0x0, symName: __ZNSt3__135__uninitialized_allocator_copy_implB8ne200100INS_9allocatorIN10reanimated3css13ValueKeyframeIJNS3_10CSSIntegerEEEEEEPKS6_S9_PS6_EET2_RT_T0_T1_SB_, symObjAddr: 0x13718, symBinAddr: 0x1906C, symSize: 0xA0 }
  - { offset: 0x15E238, size: 0x8, addend: 0x0, symName: __ZNSt3__15visitB8ne200100IZNK10reanimated3css15CSSValueVariantIJNS2_10CSSIntegerEEE11interpolateEdRKS5_EUlRKT_RKT0_E_JRKNS_7variantIJS4_EEESI_EvEEDcOS8_DpOT0_, symObjAddr: 0x13B8C, symBinAddr: 0x193F4, symSize: 0x50 }
  - { offset: 0x15E408, size: 0x8, addend: 0x0, symName: __ZNSt3__116__variant_detail12__visitation6__base12__dispatcherIJLm0ELm0EEE10__dispatchB8ne200100IONS1_9__variant15__value_visitorIZNK10reanimated3css15CSSValueVariantIJNS9_10CSSIntegerEEE11interpolateEdRKSC_EUlRKT_RKT0_E_EEJRKNS0_6__baseILNS0_6_TraitE1EJSB_EEESS_EEEDcSF_DpT0_, symObjAddr: 0x13BDC, symBinAddr: 0x19444, symSize: 0x84 }
  - { offset: 0x15EAA7, size: 0x8, addend: 0x0, symName: __ZNSt3__112__destroy_atB8ne200100INS_4pairIKNS_12basic_stringIcNS_11char_traitsIcEENS_9allocatorIcEEEENS_10shared_ptrIN10reanimated3css27PropertyInterpolatorFactoryEEEEELi0EEEvPT_, symObjAddr: 0x14924, symBinAddr: 0x19F60, symSize: 0x3C }
  - { offset: 0x15EF78, size: 0x8, addend: 0x0, symName: __ZNSt3__115allocate_sharedB8ne200100IN10reanimated3css17ValueInterpolatorIJNS2_8CSSColorEEEENS_9allocatorIS5_EEJRKNS_6vectorINS_12basic_stringIcNS_11char_traitsIcEENS6_IcEEEENS6_ISD_EEEERKNS2_15CSSValueVariantIJS4_EEERKNS_10shared_ptrINS2_20ViewStylesRepositoryEEEELi0EEENSM_IT_EERKT0_DpOT1_, symObjAddr: 0x14AE8, symBinAddr: 0x1A124, symSize: 0x70 }
  - { offset: 0x15FA2D, size: 0x8, addend: 0x0, symName: __ZNSt3__15visitB8ne200100IZNK10reanimated3css15CSSValueVariantIJNS2_8CSSColorEEEeqERKS5_EUlRKT_RKT0_E_JRKNS_7variantIJS4_EEESI_EvEEDcOS8_DpOT0_, symObjAddr: 0x1560C, symBinAddr: 0x1AC48, symSize: 0x50 }
  - { offset: 0x15FBFD, size: 0x8, addend: 0x0, symName: __ZNSt3__116__variant_detail12__visitation6__base12__dispatcherIJLm0ELm0EEE10__dispatchB8ne200100IONS1_9__variant15__value_visitorIZNK10reanimated3css15CSSValueVariantIJNS9_8CSSColorEEEeqERKSC_EUlRKT_RKT0_E_EEJRKNS0_6__baseILNS0_6_TraitE1EJSB_EEESS_EEEDcSF_DpT0_, symObjAddr: 0x1565C, symBinAddr: 0x1AC98, symSize: 0xC }
  - { offset: 0x160284, size: 0x8, addend: 0x0, symName: __ZNSt3__134__uninitialized_allocator_relocateB8ne200100INS_9allocatorIN10reanimated3css13ValueKeyframeIJNS3_8CSSColorEEEEEEPS6_EEvRT_T0_SB_SB_, symObjAddr: 0x1596C, symBinAddr: 0x1AF50, symSize: 0xC0 }
  - { offset: 0x160299, size: 0x8, addend: 0x0, symName: __ZNSt3__134__uninitialized_allocator_relocateB8ne200100INS_9allocatorIN10reanimated3css13ValueKeyframeIJNS3_8CSSColorEEEEEEPS6_EEvRT_T0_SB_SB_, symObjAddr: 0x1596C, symBinAddr: 0x1AF50, symSize: 0xC0 }
  - { offset: 0x1602F9, size: 0x8, addend: 0x0, symName: __ZNSt3__134__uninitialized_allocator_relocateB8ne200100INS_9allocatorIN10reanimated3css13ValueKeyframeIJNS3_8CSSColorEEEEEEPS6_EEvRT_T0_SB_SB_, symObjAddr: 0x1596C, symBinAddr: 0x1AF50, symSize: 0xC0 }
  - { offset: 0x161662, size: 0x8, addend: 0x0, symName: __ZNSt3__135__uninitialized_allocator_copy_implB8ne200100INS_9allocatorIN10reanimated3css13ValueKeyframeIJNS3_8CSSColorEEEEEEPKS6_S9_PS6_EET2_RT_T0_T1_SB_, symObjAddr: 0x16158, symBinAddr: 0x1B638, symSize: 0xA0 }
  - { offset: 0x1624F6, size: 0x8, addend: 0x0, symName: __ZNSt3__15visitB8ne200100IZNK10reanimated3css15CSSValueVariantIJNS2_8CSSColorEEE11interpolateEdRKS5_EUlRKT_RKT0_E_JRKNS_7variantIJS4_EEESI_EvEEDcOS8_DpOT0_, symObjAddr: 0x165CC, symBinAddr: 0x1B9C0, symSize: 0x50 }
  - { offset: 0x1626C6, size: 0x8, addend: 0x0, symName: __ZNSt3__116__variant_detail12__visitation6__base12__dispatcherIJLm0ELm0EEE10__dispatchB8ne200100IONS1_9__variant15__value_visitorIZNK10reanimated3css15CSSValueVariantIJNS9_8CSSColorEEE11interpolateEdRKSC_EUlRKT_RKT0_E_EEJRKNS0_6__baseILNS0_6_TraitE1EJSB_EEESS_EEEDcSF_DpT0_, symObjAddr: 0x1661C, symBinAddr: 0x1BA10, symSize: 0x6C }
  - { offset: 0x162CB2, size: 0x8, addend: 0x0, symName: __ZNSt3__112construct_atB8ne200100IN10reanimated3css30TransformOperationInterpolatorINS2_20PerspectiveOperationEEEJNS_10shared_ptrIS4_EEEPS5_EEPT_SA_DpOT0_, symObjAddr: 0x168AC, symBinAddr: 0x1BCA0, symSize: 0xA4 }
  - { offset: 0x1639E2, size: 0x8, addend: 0x0, symName: __ZNSt3__112construct_atB8ne200100IN10reanimated3css30TransformOperationInterpolatorINS2_19RotateOperationBaseILNS2_11TransformOpE1EEEEEJNS_10shared_ptrIS6_EEEPS7_EEPT_SC_DpOT0_, symObjAddr: 0x16F4C, symBinAddr: 0x1C288, symSize: 0x88 }
  - { offset: 0x164276, size: 0x8, addend: 0x0, symName: __ZNSt3__112construct_atB8ne200100IN10reanimated3css19RotateOperationBaseILNS2_11TransformOpE1EEEJRA5_KcEPS5_EEPT_SB_DpOT0_, symObjAddr: 0x17550, symBinAddr: 0x1C884, symSize: 0x8C }
  - { offset: 0x164A6F, size: 0x8, addend: 0x0, symName: __ZNSt3__112construct_atB8ne200100IN10reanimated3css30TransformOperationInterpolatorINS2_19RotateOperationBaseILNS2_11TransformOpE2EEEEEJNS_10shared_ptrIS6_EEEPS7_EEPT_SC_DpOT0_, symObjAddr: 0x17720, symBinAddr: 0x1C9FC, symSize: 0x88 }
  - { offset: 0x1652C6, size: 0x8, addend: 0x0, symName: __ZNSt3__112construct_atB8ne200100IN10reanimated3css19RotateOperationBaseILNS2_11TransformOpE2EEEJRA5_KcEPS5_EEPT_SB_DpOT0_, symObjAddr: 0x17D24, symBinAddr: 0x1CFF8, symSize: 0x8C }
  - { offset: 0x165ABF, size: 0x8, addend: 0x0, symName: __ZNSt3__112construct_atB8ne200100IN10reanimated3css30TransformOperationInterpolatorINS2_19RotateOperationBaseILNS2_11TransformOpE3EEEEEJNS_10shared_ptrIS6_EEEPS7_EEPT_SC_DpOT0_, symObjAddr: 0x17EF4, symBinAddr: 0x1D170, symSize: 0x88 }
  - { offset: 0x166316, size: 0x8, addend: 0x0, symName: __ZNSt3__112construct_atB8ne200100IN10reanimated3css19RotateOperationBaseILNS2_11TransformOpE3EEEJRA5_KcEPS5_EEPT_SB_DpOT0_, symObjAddr: 0x184F8, symBinAddr: 0x1D76C, symSize: 0x8C }
  - { offset: 0x166B0F, size: 0x8, addend: 0x0, symName: __ZNSt3__112construct_atB8ne200100IN10reanimated3css30TransformOperationInterpolatorINS2_16RotateZOperationEEEJNS_10shared_ptrIS4_EEEPS5_EEPT_SA_DpOT0_, symObjAddr: 0x186C8, symBinAddr: 0x1D8E4, symSize: 0x88 }
  - { offset: 0x1678AF, size: 0x8, addend: 0x0, symName: __ZNSt3__112construct_atB8ne200100IN10reanimated3css16RotateZOperationEJRA5_KcEPS3_EEPT_S9_DpOT0_, symObjAddr: 0x18F9C, symBinAddr: 0x1E068, symSize: 0x8C }
  - { offset: 0x1680C1, size: 0x8, addend: 0x0, symName: __ZNSt3__112construct_atB8ne200100IN10reanimated3css30TransformOperationInterpolatorINS2_14ScaleOperationEEEJNS_10shared_ptrIS4_EEEPS5_EEPT_SA_DpOT0_, symObjAddr: 0x1916C, symBinAddr: 0x1E1E0, symSize: 0x88 }
  - { offset: 0x1699A8, size: 0x8, addend: 0x0, symName: __ZNSt3__112construct_atB8ne200100IN10reanimated3css30TransformOperationInterpolatorINS2_18ScaleOperationBaseILNS2_11TransformOpE6EEEEEJNS_10shared_ptrIS6_EEEPS7_EEPT_SC_DpOT0_, symObjAddr: 0x19EB0, symBinAddr: 0x1EE14, symSize: 0x88 }
  - { offset: 0x16A229, size: 0x8, addend: 0x0, symName: __ZNSt3__112construct_atB8ne200100IN10reanimated3css30TransformOperationInterpolatorINS2_18ScaleOperationBaseILNS2_11TransformOpE7EEEEEJNS_10shared_ptrIS6_EEEPS7_EEPT_SC_DpOT0_, symObjAddr: 0x1A504, symBinAddr: 0x1F460, symSize: 0x88 }
  - { offset: 0x16C286, size: 0x8, addend: 0x0, symName: __ZNSt3__112construct_atB8ne200100IN10reanimated3css30TransformOperationInterpolatorINS2_17SkewOperationBaseILNS2_11TransformOpE10EEEEEJNS_10shared_ptrIS6_EEEPS7_EEPT_SC_DpOT0_, symObjAddr: 0x1BDC4, symBinAddr: 0x20C58, symSize: 0x88 }
  - { offset: 0x16CADD, size: 0x8, addend: 0x0, symName: __ZNSt3__112construct_atB8ne200100IN10reanimated3css17SkewOperationBaseILNS2_11TransformOpE10EEEJRA5_KcEPS5_EEPT_SB_DpOT0_, symObjAddr: 0x1C3C8, symBinAddr: 0x21254, symSize: 0x8C }
  - { offset: 0x16D2D6, size: 0x8, addend: 0x0, symName: __ZNSt3__112construct_atB8ne200100IN10reanimated3css30TransformOperationInterpolatorINS2_17SkewOperationBaseILNS2_11TransformOpE11EEEEEJNS_10shared_ptrIS6_EEEPS7_EEPT_SC_DpOT0_, symObjAddr: 0x1C598, symBinAddr: 0x213CC, symSize: 0x88 }
  - { offset: 0x16DB2D, size: 0x8, addend: 0x0, symName: __ZNSt3__112construct_atB8ne200100IN10reanimated3css17SkewOperationBaseILNS2_11TransformOpE11EEEJRA5_KcEPS5_EEPT_SB_DpOT0_, symObjAddr: 0x1CB9C, symBinAddr: 0x219C8, symSize: 0x8C }
  - { offset: 0x16E326, size: 0x8, addend: 0x0, symName: __ZNSt3__112construct_atB8ne200100IN10reanimated3css30TransformOperationInterpolatorINS2_15MatrixOperationEEEJNS_10shared_ptrIS4_EEEPS5_EEPT_SA_DpOT0_, symObjAddr: 0x1CD6C, symBinAddr: 0x21B40, symSize: 0xA4 }
  - { offset: 0x16E60B, size: 0x8, addend: 0x0, symName: __ZNSt3__115allocate_sharedB8ne200100IN10reanimated3css15MatrixOperationENS_9allocatorIS3_EEJS3_ELi0EEENS_10shared_ptrIT_EERKT0_DpOT1_, symObjAddr: 0x1D0F0, symBinAddr: 0x21EBC, symSize: 0x58 }
  - { offset: 0x16F27E, size: 0x8, addend: 0x0, symName: __ZNSt3__134__uninitialized_allocator_relocateB8ne200100INS_9allocatorIN5folly7dynamicEEEPS3_EEvRT_T0_S8_S8_, symObjAddr: 0x1D924, symBinAddr: 0x22544, symSize: 0x68 }
  - { offset: 0x16F293, size: 0x8, addend: 0x0, symName: __ZNSt3__134__uninitialized_allocator_relocateB8ne200100INS_9allocatorIN5folly7dynamicEEEPS3_EEvRT_T0_S8_S8_, symObjAddr: 0x1D924, symBinAddr: 0x22544, symSize: 0x68 }
  - { offset: 0x16F2F7, size: 0x8, addend: 0x0, symName: __ZNSt3__134__uninitialized_allocator_relocateB8ne200100INS_9allocatorIN5folly7dynamicEEEPS3_EEvRT_T0_S8_S8_, symObjAddr: 0x1D924, symBinAddr: 0x22544, symSize: 0x68 }
  - { offset: 0x170F20, size: 0x8, addend: 0x0, symName: __ZNSt3__115allocate_sharedB8ne200100IN10reanimated3css17ValueInterpolatorIJNS2_10CSSBooleanEEEENS_9allocatorIS5_EEJRKNS_6vectorINS_12basic_stringIcNS_11char_traitsIcEENS6_IcEEEENS6_ISD_EEEERKNS2_15CSSValueVariantIJS4_EEERKNS_10shared_ptrINS2_20ViewStylesRepositoryEEEELi0EEENSM_IT_EERKT0_DpOT1_, symObjAddr: 0x1E57C, symBinAddr: 0x22AF8, symSize: 0x70 }
  - { offset: 0x1719D5, size: 0x8, addend: 0x0, symName: __ZNSt3__15visitB8ne200100IZNK10reanimated3css15CSSValueVariantIJNS2_10CSSBooleanEEEeqERKS5_EUlRKT_RKT0_E_JRKNS_7variantIJS4_EEESI_EvEEDcOS8_DpOT0_, symObjAddr: 0x1F0BC, symBinAddr: 0x23638, symSize: 0x50 }
  - { offset: 0x171BA5, size: 0x8, addend: 0x0, symName: __ZNSt3__116__variant_detail12__visitation6__base12__dispatcherIJLm0ELm0EEE10__dispatchB8ne200100IONS1_9__variant15__value_visitorIZNK10reanimated3css15CSSValueVariantIJNS9_10CSSBooleanEEEeqERKSC_EUlRKT_RKT0_E_EEJRKNS0_6__baseILNS0_6_TraitE1EJSB_EEESS_EEEDcSF_DpT0_, symObjAddr: 0x1F10C, symBinAddr: 0x23688, symSize: 0xC }
  - { offset: 0x17222C, size: 0x8, addend: 0x0, symName: __ZNSt3__134__uninitialized_allocator_relocateB8ne200100INS_9allocatorIN10reanimated3css13ValueKeyframeIJNS3_10CSSBooleanEEEEEEPS6_EEvRT_T0_SB_SB_, symObjAddr: 0x1F41C, symBinAddr: 0x23940, symSize: 0xC0 }
  - { offset: 0x172241, size: 0x8, addend: 0x0, symName: __ZNSt3__134__uninitialized_allocator_relocateB8ne200100INS_9allocatorIN10reanimated3css13ValueKeyframeIJNS3_10CSSBooleanEEEEEEPS6_EEvRT_T0_SB_SB_, symObjAddr: 0x1F41C, symBinAddr: 0x23940, symSize: 0xC0 }
  - { offset: 0x1722A1, size: 0x8, addend: 0x0, symName: __ZNSt3__134__uninitialized_allocator_relocateB8ne200100INS_9allocatorIN10reanimated3css13ValueKeyframeIJNS3_10CSSBooleanEEEEEEPS6_EEvRT_T0_SB_SB_, symObjAddr: 0x1F41C, symBinAddr: 0x23940, symSize: 0xC0 }
  - { offset: 0x17360B, size: 0x8, addend: 0x0, symName: __ZNSt3__135__uninitialized_allocator_copy_implB8ne200100INS_9allocatorIN10reanimated3css13ValueKeyframeIJNS3_10CSSBooleanEEEEEEPKS6_S9_PS6_EET2_RT_T0_T1_SB_, symObjAddr: 0x1FC00, symBinAddr: 0x24020, symSize: 0xA0 }
  - { offset: 0x1744A0, size: 0x8, addend: 0x0, symName: __ZNSt3__15visitB8ne200100IZNK10reanimated3css15CSSValueVariantIJNS2_10CSSBooleanEEE11interpolateEdRKS5_EUlRKT_RKT0_E_JRKNS_7variantIJS4_EEESI_EvEEDcOS8_DpOT0_, symObjAddr: 0x20074, symBinAddr: 0x243A8, symSize: 0x50 }
  - { offset: 0x174670, size: 0x8, addend: 0x0, symName: __ZNSt3__116__variant_detail12__visitation6__base12__dispatcherIJLm0ELm0EEE10__dispatchB8ne200100IONS1_9__variant15__value_visitorIZNK10reanimated3css15CSSValueVariantIJNS9_10CSSBooleanEEE11interpolateEdRKSC_EUlRKT_RKT0_E_EEJRKNS0_6__baseILNS0_6_TraitE1EJSB_EEESS_EEEDcSF_DpT0_, symObjAddr: 0x200C4, symBinAddr: 0x243F8, symSize: 0x6C }
  - { offset: 0x174F4E, size: 0x8, addend: 0x0, symName: __ZNSt3__115allocate_sharedB8ne200100IN10reanimated3css17ValueInterpolatorIJNS2_16CSSDiscreteArrayINS2_10CSSKeywordEEEEEENS_9allocatorIS7_EEJRKNS_6vectorINS_12basic_stringIcNS_11char_traitsIcEENS8_IcEEEENS8_ISF_EEEERKNS2_15CSSValueVariantIJS6_EEERKNS_10shared_ptrINS2_20ViewStylesRepositoryEEEELi0EEENSO_IT_EERKT0_DpOT1_, symObjAddr: 0x20974, symBinAddr: 0x24C94, symSize: 0x70 }
  - { offset: 0x17575B, size: 0x8, addend: 0x0, symName: __ZNSt3__135__uninitialized_allocator_copy_implB8ne200100INS_9allocatorIN10reanimated3css10CSSKeywordEEEPS4_S6_S6_EET2_RT_T0_T1_S7_, symObjAddr: 0x20898, symBinAddr: 0x24BB8, symSize: 0xDC }
  - { offset: 0x175B26, size: 0x8, addend: 0x0, symName: __ZNSt3__119__allocate_at_leastB8ne200100INS_9allocatorIN10reanimated3css10CSSKeywordEEEEENS_19__allocation_resultINS_16allocator_traitsIT_E7pointerEEERS8_m, symObjAddr: 0x20864, symBinAddr: 0x24B84, symSize: 0x34 }
  - { offset: 0x175BDC, size: 0x8, addend: 0x0, symName: __ZNSt3__135__uninitialized_allocator_copy_implB8ne200100INS_9allocatorIN10reanimated3css10CSSKeywordEEEPS4_S6_S6_EET2_RT_T0_T1_S7_, symObjAddr: 0x20898, symBinAddr: 0x24BB8, symSize: 0xDC }
  - { offset: 0x1762E8, size: 0x8, addend: 0x0, symName: __ZNSt3__15visitB8ne200100IZNK10reanimated3css15CSSValueVariantIJNS2_16CSSDiscreteArrayINS2_10CSSKeywordEEEEEeqERKS7_EUlRKT_RKT0_E_JRKNS_7variantIJS6_EEESK_EvEEDcOSA_DpOT0_, symObjAddr: 0x219D8, symBinAddr: 0x25CF8, symSize: 0x50 }
  - { offset: 0x1764B8, size: 0x8, addend: 0x0, symName: __ZNSt3__116__variant_detail12__visitation6__base12__dispatcherIJLm0ELm0EEE10__dispatchB8ne200100IONS1_9__variant15__value_visitorIZNK10reanimated3css15CSSValueVariantIJNS9_16CSSDiscreteArrayINS9_10CSSKeywordEEEEEeqERKSE_EUlRKT_RKT0_E_EEJRKNS0_6__baseILNS0_6_TraitE1EJSD_EEESU_EEEDcSH_DpT0_, symObjAddr: 0x21A28, symBinAddr: 0x25D48, symSize: 0xC }
  - { offset: 0x17681B, size: 0x8, addend: 0x0, symName: __ZNSt3__134__uninitialized_allocator_relocateB8ne200100INS_9allocatorIN10reanimated3css13ValueKeyframeIJNS3_16CSSDiscreteArrayINS3_10CSSKeywordEEEEEEEEPS8_EEvRT_T0_SD_SD_, symObjAddr: 0x21F9C, symBinAddr: 0x26274, symSize: 0x100 }
  - { offset: 0x176830, size: 0x8, addend: 0x0, symName: __ZNSt3__134__uninitialized_allocator_relocateB8ne200100INS_9allocatorIN10reanimated3css13ValueKeyframeIJNS3_16CSSDiscreteArrayINS3_10CSSKeywordEEEEEEEEPS8_EEvRT_T0_SD_SD_, symObjAddr: 0x21F9C, symBinAddr: 0x26274, symSize: 0x100 }
  - { offset: 0x177042, size: 0x8, addend: 0x0, symName: __ZNSt3__119__allocator_destroyB8ne200100INS_9allocatorIN10reanimated3css13ValueKeyframeIJNS3_16CSSDiscreteArrayINS3_10CSSKeywordEEEEEEEEPS8_SA_EEvRT_T0_T1_, symObjAddr: 0x2209C, symBinAddr: 0x26374, symSize: 0x84 }
  - { offset: 0x177680, size: 0x8, addend: 0x0, symName: __ZNSt3__119__allocator_destroyB8ne200100INS_9allocatorIN10reanimated3css13ValueKeyframeIJNS3_16CSSDiscreteArrayINS3_10CSSKeywordEEEEEEEENS_16reverse_iteratorIPS8_EESC_EEvRT_T0_T1_, symObjAddr: 0x22234, symBinAddr: 0x2650C, symSize: 0x84 }
  - { offset: 0x178181, size: 0x8, addend: 0x0, symName: __ZNSt3__135__uninitialized_allocator_copy_implB8ne200100INS_9allocatorIN10reanimated3css13ValueKeyframeIJNS3_16CSSDiscreteArrayINS3_10CSSKeywordEEEEEEEEPKS8_SB_PS8_EET2_RT_T0_T1_SD_, symObjAddr: 0x22BB4, symBinAddr: 0x26E54, symSize: 0xA8 }
  - { offset: 0x178AD8, size: 0x8, addend: 0x0, symName: __ZNSt3__15visitB8ne200100IZNK10reanimated3css15CSSValueVariantIJNS2_16CSSDiscreteArrayINS2_10CSSKeywordEEEEE11interpolateEdRKS7_EUlRKT_RKT0_E_JRKNS_7variantIJS6_EEESK_EvEEDcOSA_DpOT0_, symObjAddr: 0x232A4, symBinAddr: 0x274BC, symSize: 0x50 }
  - { offset: 0x178CA8, size: 0x8, addend: 0x0, symName: __ZNSt3__116__variant_detail12__visitation6__base12__dispatcherIJLm0ELm0EEE10__dispatchB8ne200100IONS1_9__variant15__value_visitorIZNK10reanimated3css15CSSValueVariantIJNS9_16CSSDiscreteArrayINS9_10CSSKeywordEEEEE11interpolateEdRKSE_EUlRKT_RKT0_E_EEJRKNS0_6__baseILNS0_6_TraitE1EJSD_EEESU_EEEDcSH_DpT0_, symObjAddr: 0x232F4, symBinAddr: 0x2750C, symSize: 0x4 }
  - { offset: 0x17AE69, size: 0x8, addend: 0x0, symName: __ZN10reanimated3cssL5BLACKE, symObjAddr: 0x724CA0, symBinAddr: 0x169858, symSize: 0x0 }
  - { offset: 0x17B1C7, size: 0x8, addend: 0x0, symName: __ZN10reanimated3cssL11TRANSPARENTE, symObjAddr: 0x724CB0, symBinAddr: 0x169868, symSize: 0x0 }
  - { offset: 0x17B1E1, size: 0x8, addend: 0x0, symName: __ZN10reanimated3cssL18FLEX_INTERPOLATORSE, symObjAddr: 0x724CC0, symBinAddr: 0x169878, symSize: 0x0 }
  - { offset: 0x17B72C, size: 0x8, addend: 0x0, symName: __ZN10reanimated3cssL24SHADOW_INTERPOLATORS_IOSE, symObjAddr: 0x724CE8, symBinAddr: 0x1698A0, symSize: 0x0 }
  - { offset: 0x17B746, size: 0x8, addend: 0x0, symName: __ZN10reanimated3cssL24TRANSFORMS_INTERPOLATORSE, symObjAddr: 0x724D10, symBinAddr: 0x1698C8, symSize: 0x0 }
  - { offset: 0x17B760, size: 0x8, addend: 0x0, symName: __ZN10reanimated3cssL18VIEW_INTERPOLATORSE, symObjAddr: 0x724D38, symBinAddr: 0x1698F0, symSize: 0x0 }
  - { offset: 0x17B77A, size: 0x8, addend: 0x0, symName: __ZN10reanimated3cssL19IMAGE_INTERPOLATORSE, symObjAddr: 0x724D60, symBinAddr: 0x169918, symSize: 0x0 }
  - { offset: 0x17B794, size: 0x8, addend: 0x0, symName: __ZN10reanimated3cssL22TEXT_INTERPOLATORS_IOSE, symObjAddr: 0x724D88, symBinAddr: 0x169940, symSize: 0x0 }
  - { offset: 0x17B7AE, size: 0x8, addend: 0x0, symName: __ZN10reanimated3cssL26TEXT_INTERPOLATORS_ANDROIDE, symObjAddr: 0x724DB0, symBinAddr: 0x169968, symSize: 0x0 }
  - { offset: 0x17B7C8, size: 0x8, addend: 0x0, symName: __ZN10reanimated3cssL18TEXT_INTERPOLATORSE, symObjAddr: 0x724DD8, symBinAddr: 0x169990, symSize: 0x0 }
  - { offset: 0x17B7DC, size: 0x8, addend: 0x0, symName: __ZN10reanimated3css8CSSColor11TransparentE, symObjAddr: 0x2CD98, symBinAddr: 0x169430, symSize: 0x0 }
  - { offset: 0x184746, size: 0x8, addend: 0x0, symName: __ZN10reanimated3css5valueIJNS0_10CSSKeywordEEA11_cEENSt3__19enable_ifIXfroosr3stdE18is_constructible_vIT_Dtfp_EEENS4_10shared_ptrINS0_27PropertyInterpolatorFactoryEEEE4typeERKT0_, symObjAddr: 0x0, symBinAddr: 0x610C, symSize: 0x98 }
  - { offset: 0x184E30, size: 0x8, addend: 0x0, symName: __ZN10reanimated3css5valueIJNS0_10CSSKeywordEEA8_cEENSt3__19enable_ifIXfroosr3stdE18is_constructible_vIT_Dtfp_EEENS4_10shared_ptrINS0_27PropertyInterpolatorFactoryEEEE4typeERKT0_, symObjAddr: 0x98, symBinAddr: 0x61A4, symSize: 0x98 }
  - { offset: 0x18551A, size: 0x8, addend: 0x0, symName: __ZN10reanimated3css5valueIJNS0_10CSSKeywordEEA5_cEENSt3__19enable_ifIXfroosr3stdE18is_constructible_vIT_Dtfp_EEENS4_10shared_ptrINS0_27PropertyInterpolatorFactoryEEEE4typeERKT0_, symObjAddr: 0x130, symBinAddr: 0x623C, symSize: 0x98 }
  - { offset: 0x185C04, size: 0x8, addend: 0x0, symName: __ZN10reanimated3css5valueIJNS0_9CSSDoubleENS0_10CSSKeywordEEA5_cEENSt3__19enable_ifIXfroosr3stdE18is_constructible_vIT_Dtfp_EEENS5_10shared_ptrINS0_27PropertyInterpolatorFactoryEEEE4typeERKT0_, symObjAddr: 0x1C8, symBinAddr: 0x62D4, symSize: 0x6C }
  - { offset: 0x185FCC, size: 0x8, addend: 0x0, symName: __ZN10reanimated3css5valueIJNS0_9CSSDoubleEEiEENSt3__19enable_ifIXfroosr3stdE18is_constructible_vIT_Dtfp_EEENS3_10shared_ptrINS0_27PropertyInterpolatorFactoryEEEE4typeERKT0_, symObjAddr: 0x234, symBinAddr: 0x6340, symSize: 0xA8 }
  - { offset: 0x18682D, size: 0x8, addend: 0x0, symName: __ZN10reanimated3css5valueIJNS0_9CSSLengthENS0_10CSSKeywordEEA5_cEENSt3__19enable_ifIXfroosr3stdE18is_constructible_vIT_Dtfp1_EEENS5_10shared_ptrINS0_27PropertyInterpolatorFactoryEEEE4typeENS0_10RelativeToERKNS5_12basic_stringIcNS5_11char_traitsIcEENS5_9allocatorIcEEEERKT0_, symObjAddr: 0x2DC, symBinAddr: 0x63E8, symSize: 0x84 }
  - { offset: 0x186C37, size: 0x8, addend: 0x0, symName: __ZN10reanimated3css5valueIJNS0_10CSSDisplayEEA5_cEENSt3__19enable_ifIXfroosr3stdE18is_constructible_vIT_Dtfp_EEENS4_10shared_ptrINS0_27PropertyInterpolatorFactoryEEEE4typeERKT0_, symObjAddr: 0x360, symBinAddr: 0x646C, symSize: 0x98 }
  - { offset: 0x187321, size: 0x8, addend: 0x0, symName: __ZN10reanimated3css5valueIJNS0_10CSSKeywordEEA7_cEENSt3__19enable_ifIXfroosr3stdE18is_constructible_vIT_Dtfp_EEENS4_10shared_ptrINS0_27PropertyInterpolatorFactoryEEEE4typeERKT0_, symObjAddr: 0x3F8, symBinAddr: 0x6504, symSize: 0x98 }
  - { offset: 0x187A0B, size: 0x8, addend: 0x0, symName: __ZN10reanimated3css5valueIJNS0_9CSSLengthEEiEENSt3__19enable_ifIXfroosr3stdE18is_constructible_vIT_Dtfp1_EEENS3_10shared_ptrINS0_27PropertyInterpolatorFactoryEEEE4typeENS0_10RelativeToERKNS3_12basic_stringIcNS3_11char_traitsIcEENS3_9allocatorIcEEEERKT0_, symObjAddr: 0x490, symBinAddr: 0x659C, symSize: 0x58 }
  - { offset: 0x187B73, size: 0x8, addend: 0x0, symName: __ZN10reanimated3css5valueIJNS0_9CSSLengthENS0_10CSSKeywordEEiEENSt3__19enable_ifIXfroosr3stdE18is_constructible_vIT_Dtfp1_EEENS4_10shared_ptrINS0_27PropertyInterpolatorFactoryEEEE4typeENS0_10RelativeToERKNS4_12basic_stringIcNS4_11char_traitsIcEENS4_9allocatorIcEEEERKT0_, symObjAddr: 0x4E8, symBinAddr: 0x65F4, symSize: 0x84 }
  - { offset: 0x187F7D, size: 0x8, addend: 0x0, symName: __ZN10reanimated3css5valueIJNS0_10CSSKeywordEEA9_cEENSt3__19enable_ifIXfroosr3stdE18is_constructible_vIT_Dtfp_EEENS4_10shared_ptrINS0_27PropertyInterpolatorFactoryEEEE4typeERKT0_, symObjAddr: 0x56C, symBinAddr: 0x6678, symSize: 0x98 }
  - { offset: 0x188667, size: 0x8, addend: 0x0, symName: __ZN10reanimated3css5valueIJNS0_10CSSIntegerEEiEENSt3__19enable_ifIXfroosr3stdE18is_constructible_vIT_Dtfp_EEENS3_10shared_ptrINS0_27PropertyInterpolatorFactoryEEEE4typeERKT0_, symObjAddr: 0x604, symBinAddr: 0x6710, symSize: 0xA8 }
  - { offset: 0x188EC8, size: 0x8, addend: 0x0, symName: __ZN10reanimated3css5valueIJNS0_8CSSColorEES2_EENSt3__19enable_ifIXfroosr3stdE18is_constructible_vIT_Dtfp_EEENS3_10shared_ptrINS0_27PropertyInterpolatorFactoryEEEE4typeERKT0_, symObjAddr: 0x6E8, symBinAddr: 0x67F4, symSize: 0x9C }
  - { offset: 0x189662, size: 0x8, addend: 0x0, symName: __ZN10reanimated3css5valueIJNS0_9CSSLengthEEA4_cEENSt3__19enable_ifIXfroosr3stdE18is_constructible_vIT_Dtfp1_EEENS4_10shared_ptrINS0_27PropertyInterpolatorFactoryEEEE4typeENS0_10RelativeToERKNS4_12basic_stringIcNS4_11char_traitsIcEENS4_9allocatorIcEEEERKT0_, symObjAddr: 0x784, symBinAddr: 0x6890, symSize: 0x58 }
  - { offset: 0x1897CA, size: 0x8, addend: 0x0, symName: __ZN10reanimated3css11transformOpINS0_20PerspectiveOperationEiEENSt3__19enable_ifIXaasr3stdE12is_base_of_vINS0_18TransformOperationET_Esr3stdE18is_constructible_vIS6_Dtfp_EEENS3_10shared_ptrINS0_21TransformInterpolatorEEEE4typeERKT0_, symObjAddr: 0x7DC, symBinAddr: 0x68E8, symSize: 0x9C }
  - { offset: 0x1899CE, size: 0x8, addend: 0x0, symName: __ZN10reanimated3css11transformOpINS0_19RotateOperationBaseILNS0_11TransformOpE1EEEA5_cEENSt3__19enable_ifIXaasr3stdE12is_base_of_vINS0_18TransformOperationET_Esr3stdE18is_constructible_vIS9_Dtfp_EEENS6_10shared_ptrINS0_21TransformInterpolatorEEEE4typeERKT0_, symObjAddr: 0x878, symBinAddr: 0x6984, symSize: 0x9C }
  - { offset: 0x189BD2, size: 0x8, addend: 0x0, symName: __ZN10reanimated3css11transformOpINS0_19RotateOperationBaseILNS0_11TransformOpE2EEEA5_cEENSt3__19enable_ifIXaasr3stdE12is_base_of_vINS0_18TransformOperationET_Esr3stdE18is_constructible_vIS9_Dtfp_EEENS6_10shared_ptrINS0_21TransformInterpolatorEEEE4typeERKT0_, symObjAddr: 0x914, symBinAddr: 0x6A20, symSize: 0x9C }
  - { offset: 0x189DD6, size: 0x8, addend: 0x0, symName: __ZN10reanimated3css11transformOpINS0_19RotateOperationBaseILNS0_11TransformOpE3EEEA5_cEENSt3__19enable_ifIXaasr3stdE12is_base_of_vINS0_18TransformOperationET_Esr3stdE18is_constructible_vIS9_Dtfp_EEENS6_10shared_ptrINS0_21TransformInterpolatorEEEE4typeERKT0_, symObjAddr: 0x9B0, symBinAddr: 0x6ABC, symSize: 0x9C }
  - { offset: 0x189FDA, size: 0x8, addend: 0x0, symName: __ZN10reanimated3css11transformOpINS0_16RotateZOperationEA5_cEENSt3__19enable_ifIXaasr3stdE12is_base_of_vINS0_18TransformOperationET_Esr3stdE18is_constructible_vIS7_Dtfp_EEENS4_10shared_ptrINS0_21TransformInterpolatorEEEE4typeERKT0_, symObjAddr: 0xA4C, symBinAddr: 0x6B58, symSize: 0x9C }
  - { offset: 0x18A1DE, size: 0x8, addend: 0x0, symName: __ZN10reanimated3css11transformOpINS0_14ScaleOperationEiEENSt3__19enable_ifIXaasr3stdE12is_base_of_vINS0_18TransformOperationET_Esr3stdE18is_constructible_vIS6_Dtfp_EEENS3_10shared_ptrINS0_21TransformInterpolatorEEEE4typeERKT0_, symObjAddr: 0xAE8, symBinAddr: 0x6BF4, symSize: 0x9C }
  - { offset: 0x18A3E2, size: 0x8, addend: 0x0, symName: __ZN10reanimated3css11transformOpINS0_18ScaleOperationBaseILNS0_11TransformOpE6EEEiEENSt3__19enable_ifIXaasr3stdE12is_base_of_vINS0_18TransformOperationET_Esr3stdE18is_constructible_vIS8_Dtfp_EEENS5_10shared_ptrINS0_21TransformInterpolatorEEEE4typeERKT0_, symObjAddr: 0xB84, symBinAddr: 0x6C90, symSize: 0x9C }
  - { offset: 0x18A5E6, size: 0x8, addend: 0x0, symName: __ZN10reanimated3css11transformOpINS0_18ScaleOperationBaseILNS0_11TransformOpE7EEEiEENSt3__19enable_ifIXaasr3stdE12is_base_of_vINS0_18TransformOperationET_Esr3stdE18is_constructible_vIS8_Dtfp_EEENS5_10shared_ptrINS0_21TransformInterpolatorEEEE4typeERKT0_, symObjAddr: 0xC20, symBinAddr: 0x6D2C, symSize: 0x9C }
  - { offset: 0x18A7EA, size: 0x8, addend: 0x0, symName: __ZN10reanimated3css11transformOpINS0_22TranslateOperationBaseILNS0_11TransformOpE8EEEiEENSt3__19enable_ifIXaaaasr3stdE12is_base_of_vINS0_18TransformOperationET_Esr3stdE18is_constructible_vIS8_Dtfp1_EEL_ZNS0_19ResolvableOperationIS8_EEEENS5_10shared_ptrINS0_21TransformInterpolatorEEEE4typeENS0_10RelativeToERKNS5_12basic_stringIcNS5_11char_traitsIcEENS5_9allocatorIcEEEERKT0_, symObjAddr: 0xCBC, symBinAddr: 0x6DC8, symSize: 0xAC }
  - { offset: 0x18AA30, size: 0x8, addend: 0x0, symName: __ZN10reanimated3css11transformOpINS0_22TranslateOperationBaseILNS0_11TransformOpE9EEEiEENSt3__19enable_ifIXaaaasr3stdE12is_base_of_vINS0_18TransformOperationET_Esr3stdE18is_constructible_vIS8_Dtfp1_EEL_ZNS0_19ResolvableOperationIS8_EEEENS5_10shared_ptrINS0_21TransformInterpolatorEEEE4typeENS0_10RelativeToERKNS5_12basic_stringIcNS5_11char_traitsIcEENS5_9allocatorIcEEEERKT0_, symObjAddr: 0xD68, symBinAddr: 0x6E74, symSize: 0xAC }
  - { offset: 0x18AC76, size: 0x8, addend: 0x0, symName: __ZN10reanimated3css11transformOpINS0_17SkewOperationBaseILNS0_11TransformOpE10EEEA5_cEENSt3__19enable_ifIXaasr3stdE12is_base_of_vINS0_18TransformOperationET_Esr3stdE18is_constructible_vIS9_Dtfp_EEENS6_10shared_ptrINS0_21TransformInterpolatorEEEE4typeERKT0_, symObjAddr: 0xE14, symBinAddr: 0x6F20, symSize: 0x9C }
  - { offset: 0x18AE7A, size: 0x8, addend: 0x0, symName: __ZN10reanimated3css11transformOpINS0_17SkewOperationBaseILNS0_11TransformOpE11EEEA5_cEENSt3__19enable_ifIXaasr3stdE12is_base_of_vINS0_18TransformOperationET_Esr3stdE18is_constructible_vIS9_Dtfp_EEENS6_10shared_ptrINS0_21TransformInterpolatorEEEE4typeERKT0_, symObjAddr: 0xEB0, symBinAddr: 0x6FBC, symSize: 0x9C }
  - { offset: 0x18B07E, size: 0x8, addend: 0x0, symName: __ZN10reanimated3css11transformOpINS0_15MatrixOperationENS0_17TransformMatrix3DEEENSt3__19enable_ifIXaasr3stdE12is_base_of_vINS0_18TransformOperationET_Esr3stdE18is_constructible_vIS7_Dtfp_EEENS4_10shared_ptrINS0_21TransformInterpolatorEEEE4typeERKT0_, symObjAddr: 0xF4C, symBinAddr: 0x7058, symSize: 0x9C }
  - { offset: 0x18B282, size: 0x8, addend: 0x0, symName: __ZN10reanimated3css18mergeInterpolatorsIJNSt3__113unordered_mapINS2_12basic_stringIcNS2_11char_traitsIcEENS2_9allocatorIcEEEENS2_10shared_ptrINS0_27PropertyInterpolatorFactoryEEENS2_4hashIS9_EENS2_8equal_toIS9_EENS7_INS2_4pairIKS9_SC_EEEEEESL_SL_SL_EEESL_DpRKT_, symObjAddr: 0x1020, symBinAddr: 0x70F4, symSize: 0xE8 }
  - { offset: 0x18B8EA, size: 0x8, addend: 0x0, symName: __ZN10reanimated3css5valueIJNS0_10CSSKeywordEEA6_cEENSt3__19enable_ifIXfroosr3stdE18is_constructible_vIT_Dtfp_EEENS4_10shared_ptrINS0_27PropertyInterpolatorFactoryEEEE4typeERKT0_, symObjAddr: 0x1108, symBinAddr: 0x71DC, symSize: 0x98 }
  - { offset: 0x18BFD4, size: 0x8, addend: 0x0, symName: __ZN10reanimated3css5valueIJNS0_10CSSBooleanEEbEENSt3__19enable_ifIXfroosr3stdE18is_constructible_vIT_Dtfp_EEENS3_10shared_ptrINS0_27PropertyInterpolatorFactoryEEEE4typeERKT0_, symObjAddr: 0x11A0, symBinAddr: 0x7274, symSize: 0xA8 }
  - { offset: 0x18C80A, size: 0x8, addend: 0x0, symName: __ZN10reanimated3css18mergeInterpolatorsIJNSt3__113unordered_mapINS2_12basic_stringIcNS2_11char_traitsIcEENS2_9allocatorIcEEEENS2_10shared_ptrINS0_27PropertyInterpolatorFactoryEEENS2_4hashIS9_EENS2_8equal_toIS9_EENS7_INS2_4pairIKS9_SC_EEEEEESL_EEESL_DpRKT_, symObjAddr: 0x1248, symBinAddr: 0x731C, symSize: 0x90 }
  - { offset: 0x18CBF2, size: 0x8, addend: 0x0, symName: __ZN10reanimated3css5valueIJNS0_16CSSDiscreteArrayINS0_10CSSKeywordEEEENSt3__16vectorIS3_NS5_9allocatorIS3_EEEEEENS5_9enable_ifIXfroosr3stdE18is_constructible_vIT_Dtfp_EEENS5_10shared_ptrINS0_27PropertyInterpolatorFactoryEEEE4typeERKT0_, symObjAddr: 0x12D8, symBinAddr: 0x73AC, symSize: 0xB8 }
  - { offset: 0x18F496, size: 0x8, addend: 0x0, symName: __ZN5folly6detail16throw_exception_INS_9TypeErrorEJPKcNS_7dynamic4TypeEEEEvDpT0_, symObjAddr: 0x1D6CC, symBinAddr: 0x12B908, symSize: 0x68 }
  - { offset: 0x18F85F, size: 0x8, addend: 0x0, symName: __ZN5folly15throw_exceptionINS_9TypeErrorEEEvOT_, symObjAddr: 0x1D734, symBinAddr: 0x12B970, symSize: 0x34 }
  - { offset: 0x194676, size: 0x8, addend: 0x0, symName: __ZNK10reanimated3css15CSSValueVariantIJNS0_10CSSKeywordEEE9toDynamicEv, symObjAddr: 0x1F60, symBinAddr: 0x7EE0, symSize: 0x24 }
  - { offset: 0x1946C8, size: 0x8, addend: 0x0, symName: __ZNK10reanimated3css15CSSValueVariantIJNS0_10CSSKeywordEEE9toDynamicEv, symObjAddr: 0x1F60, symBinAddr: 0x7EE0, symSize: 0x24 }
  - { offset: 0x194700, size: 0x8, addend: 0x0, symName: __ZNK10reanimated3css15CSSValueVariantIJNS0_10CSSKeywordEEE9toDynamicEv, symObjAddr: 0x1F60, symBinAddr: 0x7EE0, symSize: 0x24 }
  - { offset: 0x194720, size: 0x8, addend: 0x0, symName: __ZNK10reanimated3css15CSSValueVariantIJNS0_10CSSKeywordEEE9toDynamicEv, symObjAddr: 0x1F60, symBinAddr: 0x7EE0, symSize: 0x24 }
  - { offset: 0x194740, size: 0x8, addend: 0x0, symName: __ZNK10reanimated3css15CSSValueVariantIJNS0_10CSSKeywordEEE9toDynamicEv, symObjAddr: 0x1F60, symBinAddr: 0x7EE0, symSize: 0x24 }
  - { offset: 0x194879, size: 0x8, addend: 0x0, symName: __ZNK10reanimated3css15CSSValueVariantIJNS0_10CSSKeywordEEE8toStringEv, symObjAddr: 0x1F84, symBinAddr: 0x7F04, symSize: 0x24 }
  - { offset: 0x19488A, size: 0x8, addend: 0x0, symName: __ZNK10reanimated3css15CSSValueVariantIJNS0_10CSSKeywordEEE8toStringEv, symObjAddr: 0x1F84, symBinAddr: 0x7F04, symSize: 0x24 }
  - { offset: 0x1948E0, size: 0x8, addend: 0x0, symName: __ZNK10reanimated3css15CSSValueVariantIJNS0_10CSSKeywordEEE8toStringEv, symObjAddr: 0x1F84, symBinAddr: 0x7F04, symSize: 0x24 }
  - { offset: 0x194918, size: 0x8, addend: 0x0, symName: __ZNK10reanimated3css15CSSValueVariantIJNS0_10CSSKeywordEEE8toStringEv, symObjAddr: 0x1F84, symBinAddr: 0x7F04, symSize: 0x24 }
  - { offset: 0x194938, size: 0x8, addend: 0x0, symName: __ZNK10reanimated3css15CSSValueVariantIJNS0_10CSSKeywordEEE8toStringEv, symObjAddr: 0x1F84, symBinAddr: 0x7F04, symSize: 0x24 }
  - { offset: 0x194958, size: 0x8, addend: 0x0, symName: __ZNK10reanimated3css15CSSValueVariantIJNS0_10CSSKeywordEEE8toStringEv, symObjAddr: 0x1F84, symBinAddr: 0x7F04, symSize: 0x24 }
  - { offset: 0x194A91, size: 0x8, addend: 0x0, symName: __ZNSt3__116__variant_detail18__copy_constructorINS0_8__traitsIJN10reanimated3css10CSSKeywordEEEELNS0_6_TraitE1EEC2B8ne200100ERKS8_, symObjAddr: 0x1FA8, symBinAddr: 0x7F28, symSize: 0x44 }
  - { offset: 0x194E9A, size: 0x8, addend: 0x0, symName: __ZNK10reanimated3css15CSSValueVariantIJNS0_10CSSKeywordEEE11interpolateEdRKS3_, symObjAddr: 0x4988, symBinAddr: 0xA82C, symSize: 0x80 }
  - { offset: 0x1952D0, size: 0x8, addend: 0x0, symName: __ZNK10reanimated3css15CSSValueVariantIJNS0_9CSSDoubleENS0_10CSSKeywordEEE9toDynamicEv, symObjAddr: 0x5310, symBinAddr: 0xB15C, symSize: 0x4C }
  - { offset: 0x195486, size: 0x8, addend: 0x0, symName: __ZNK10reanimated3css15CSSValueVariantIJNS0_9CSSDoubleENS0_10CSSKeywordEEE8toStringEv, symObjAddr: 0x535C, symBinAddr: 0xB1A8, symSize: 0x4C }
  - { offset: 0x195497, size: 0x8, addend: 0x0, symName: __ZNK10reanimated3css15CSSValueVariantIJNS0_9CSSDoubleENS0_10CSSKeywordEEE8toStringEv, symObjAddr: 0x535C, symBinAddr: 0xB1A8, symSize: 0x4C }
  - { offset: 0x19564D, size: 0x8, addend: 0x0, symName: __ZNSt3__116__variant_detail18__copy_constructorINS0_8__traitsIJN10reanimated3css9CSSDoubleENS4_10CSSKeywordEEEELNS0_6_TraitE1EEC2B8ne200100ERKS9_, symObjAddr: 0x53A8, symBinAddr: 0xB1F4, symSize: 0x44 }
  - { offset: 0x195936, size: 0x8, addend: 0x0, symName: __ZNK10reanimated3css15CSSValueVariantIJNS0_9CSSDoubleENS0_10CSSKeywordEEE11interpolateEdRKS4_, symObjAddr: 0x7640, symBinAddr: 0xD384, symSize: 0x80 }
  - { offset: 0x195DBF, size: 0x8, addend: 0x0, symName: __ZNK10reanimated3css15CSSValueVariantIJNS0_9CSSDoubleEEE9toDynamicEv, symObjAddr: 0x7D00, symBinAddr: 0xDA44, symSize: 0x24 }
  - { offset: 0x195E11, size: 0x8, addend: 0x0, symName: __ZNK10reanimated3css15CSSValueVariantIJNS0_9CSSDoubleEEE9toDynamicEv, symObjAddr: 0x7D00, symBinAddr: 0xDA44, symSize: 0x24 }
  - { offset: 0x195E49, size: 0x8, addend: 0x0, symName: __ZNK10reanimated3css15CSSValueVariantIJNS0_9CSSDoubleEEE9toDynamicEv, symObjAddr: 0x7D00, symBinAddr: 0xDA44, symSize: 0x24 }
  - { offset: 0x195E69, size: 0x8, addend: 0x0, symName: __ZNK10reanimated3css15CSSValueVariantIJNS0_9CSSDoubleEEE9toDynamicEv, symObjAddr: 0x7D00, symBinAddr: 0xDA44, symSize: 0x24 }
  - { offset: 0x195E89, size: 0x8, addend: 0x0, symName: __ZNK10reanimated3css15CSSValueVariantIJNS0_9CSSDoubleEEE9toDynamicEv, symObjAddr: 0x7D00, symBinAddr: 0xDA44, symSize: 0x24 }
  - { offset: 0x195FC2, size: 0x8, addend: 0x0, symName: __ZNK10reanimated3css15CSSValueVariantIJNS0_9CSSDoubleEEE8toStringEv, symObjAddr: 0x7D24, symBinAddr: 0xDA68, symSize: 0x24 }
  - { offset: 0x195FD3, size: 0x8, addend: 0x0, symName: __ZNK10reanimated3css15CSSValueVariantIJNS0_9CSSDoubleEEE8toStringEv, symObjAddr: 0x7D24, symBinAddr: 0xDA68, symSize: 0x24 }
  - { offset: 0x196029, size: 0x8, addend: 0x0, symName: __ZNK10reanimated3css15CSSValueVariantIJNS0_9CSSDoubleEEE8toStringEv, symObjAddr: 0x7D24, symBinAddr: 0xDA68, symSize: 0x24 }
  - { offset: 0x196061, size: 0x8, addend: 0x0, symName: __ZNK10reanimated3css15CSSValueVariantIJNS0_9CSSDoubleEEE8toStringEv, symObjAddr: 0x7D24, symBinAddr: 0xDA68, symSize: 0x24 }
  - { offset: 0x196081, size: 0x8, addend: 0x0, symName: __ZNK10reanimated3css15CSSValueVariantIJNS0_9CSSDoubleEEE8toStringEv, symObjAddr: 0x7D24, symBinAddr: 0xDA68, symSize: 0x24 }
  - { offset: 0x1960A1, size: 0x8, addend: 0x0, symName: __ZNK10reanimated3css15CSSValueVariantIJNS0_9CSSDoubleEEE8toStringEv, symObjAddr: 0x7D24, symBinAddr: 0xDA68, symSize: 0x24 }
  - { offset: 0x1961DA, size: 0x8, addend: 0x0, symName: __ZNSt3__115allocate_sharedB8ne200100IN10reanimated3css17ValueInterpolatorIJNS2_9CSSDoubleEEEENS_9allocatorIS5_EEJRKNS_6vectorINS_12basic_stringIcNS_11char_traitsIcEENS6_IcEEEENS6_ISD_EEEERKNS2_15CSSValueVariantIJS4_EEERKNS_10shared_ptrINS2_20ViewStylesRepositoryEEEELi0EEENSM_IT_EERKT0_DpOT1_, symObjAddr: 0x7D48, symBinAddr: 0xDA8C, symSize: 0x70 }
  - { offset: 0x196488, size: 0x8, addend: 0x0, symName: __ZNK10reanimated3css15CSSValueVariantIJNS0_9CSSDoubleEEE11interpolateEdRKS3_, symObjAddr: 0x97C4, symBinAddr: 0xF4F4, symSize: 0xA4 }
  - { offset: 0x196CCF, size: 0x8, addend: 0x0, symName: __ZNK10reanimated3css15CSSValueVariantIJNS0_9CSSLengthENS0_10CSSKeywordEEE9toDynamicEv, symObjAddr: 0x9DA4, symBinAddr: 0xFAD4, symSize: 0x4C }
  - { offset: 0x196E85, size: 0x8, addend: 0x0, symName: __ZNK10reanimated3css15CSSValueVariantIJNS0_9CSSLengthENS0_10CSSKeywordEEE8toStringEv, symObjAddr: 0x9DF0, symBinAddr: 0xFB20, symSize: 0x4C }
  - { offset: 0x196E96, size: 0x8, addend: 0x0, symName: __ZNK10reanimated3css15CSSValueVariantIJNS0_9CSSLengthENS0_10CSSKeywordEEE8toStringEv, symObjAddr: 0x9DF0, symBinAddr: 0xFB20, symSize: 0x4C }
  - { offset: 0x19704C, size: 0x8, addend: 0x0, symName: __ZNSt3__116__variant_detail18__copy_constructorINS0_8__traitsIJN10reanimated3css9CSSLengthENS4_10CSSKeywordEEEELNS0_6_TraitE1EEC2B8ne200100ERKS9_, symObjAddr: 0x9E3C, symBinAddr: 0xFB6C, symSize: 0x44 }
  - { offset: 0x19729F, size: 0x8, addend: 0x0, symName: __ZNK10reanimated3css15CSSValueVariantIJNS0_9CSSLengthENS0_10CSSKeywordEEE11interpolateEdRKS4_, symObjAddr: 0xAE58, symBinAddr: 0x10B88, symSize: 0x80 }
  - { offset: 0x1976A4, size: 0x8, addend: 0x0, symName: __ZNK10reanimated3css15CSSValueVariantIJNS0_9CSSLengthENS0_10CSSKeywordEEE11interpolateEdRKS4_RKNS0_38CSSResolvableValueInterpolationContextE, symObjAddr: 0xC4DC, symBinAddr: 0x12104, symSize: 0x80 }
  - { offset: 0x197B7B, size: 0x8, addend: 0x0, symName: __ZNK10reanimated3css15CSSValueVariantIJNS0_10CSSDisplayEEE9toDynamicEv, symObjAddr: 0xCBFC, symBinAddr: 0x12824, symSize: 0x24 }
  - { offset: 0x197BCD, size: 0x8, addend: 0x0, symName: __ZNK10reanimated3css15CSSValueVariantIJNS0_10CSSDisplayEEE9toDynamicEv, symObjAddr: 0xCBFC, symBinAddr: 0x12824, symSize: 0x24 }
  - { offset: 0x197C05, size: 0x8, addend: 0x0, symName: __ZNK10reanimated3css15CSSValueVariantIJNS0_10CSSDisplayEEE9toDynamicEv, symObjAddr: 0xCBFC, symBinAddr: 0x12824, symSize: 0x24 }
  - { offset: 0x197C25, size: 0x8, addend: 0x0, symName: __ZNK10reanimated3css15CSSValueVariantIJNS0_10CSSDisplayEEE9toDynamicEv, symObjAddr: 0xCBFC, symBinAddr: 0x12824, symSize: 0x24 }
  - { offset: 0x197C45, size: 0x8, addend: 0x0, symName: __ZNK10reanimated3css15CSSValueVariantIJNS0_10CSSDisplayEEE9toDynamicEv, symObjAddr: 0xCBFC, symBinAddr: 0x12824, symSize: 0x24 }
  - { offset: 0x197D7E, size: 0x8, addend: 0x0, symName: __ZNK10reanimated3css15CSSValueVariantIJNS0_10CSSDisplayEEE8toStringEv, symObjAddr: 0xCC20, symBinAddr: 0x12848, symSize: 0x24 }
  - { offset: 0x197D8F, size: 0x8, addend: 0x0, symName: __ZNK10reanimated3css15CSSValueVariantIJNS0_10CSSDisplayEEE8toStringEv, symObjAddr: 0xCC20, symBinAddr: 0x12848, symSize: 0x24 }
  - { offset: 0x197DE5, size: 0x8, addend: 0x0, symName: __ZNK10reanimated3css15CSSValueVariantIJNS0_10CSSDisplayEEE8toStringEv, symObjAddr: 0xCC20, symBinAddr: 0x12848, symSize: 0x24 }
  - { offset: 0x197E1D, size: 0x8, addend: 0x0, symName: __ZNK10reanimated3css15CSSValueVariantIJNS0_10CSSDisplayEEE8toStringEv, symObjAddr: 0xCC20, symBinAddr: 0x12848, symSize: 0x24 }
  - { offset: 0x197E3D, size: 0x8, addend: 0x0, symName: __ZNK10reanimated3css15CSSValueVariantIJNS0_10CSSDisplayEEE8toStringEv, symObjAddr: 0xCC20, symBinAddr: 0x12848, symSize: 0x24 }
  - { offset: 0x197E5D, size: 0x8, addend: 0x0, symName: __ZNK10reanimated3css15CSSValueVariantIJNS0_10CSSDisplayEEE8toStringEv, symObjAddr: 0xCC20, symBinAddr: 0x12848, symSize: 0x24 }
  - { offset: 0x197F96, size: 0x8, addend: 0x0, symName: __ZNSt3__116__variant_detail18__copy_constructorINS0_8__traitsIJN10reanimated3css10CSSDisplayEEEELNS0_6_TraitE1EEC2B8ne200100ERKS8_, symObjAddr: 0xCC44, symBinAddr: 0x1286C, symSize: 0x44 }
  - { offset: 0x19824C, size: 0x8, addend: 0x0, symName: __ZNK10reanimated3css15CSSValueVariantIJNS0_10CSSDisplayEEE11interpolateEdRKS3_, symObjAddr: 0xF110, symBinAddr: 0x14BD4, symSize: 0x80 }
  - { offset: 0x198649, size: 0x8, addend: 0x0, symName: __ZNK10reanimated3css15CSSValueVariantIJNS0_9CSSLengthEEE9toDynamicEv, symObjAddr: 0xF8FC, symBinAddr: 0x153C0, symSize: 0x24 }
  - { offset: 0x19869B, size: 0x8, addend: 0x0, symName: __ZNK10reanimated3css15CSSValueVariantIJNS0_9CSSLengthEEE9toDynamicEv, symObjAddr: 0xF8FC, symBinAddr: 0x153C0, symSize: 0x24 }
  - { offset: 0x1986D3, size: 0x8, addend: 0x0, symName: __ZNK10reanimated3css15CSSValueVariantIJNS0_9CSSLengthEEE9toDynamicEv, symObjAddr: 0xF8FC, symBinAddr: 0x153C0, symSize: 0x24 }
  - { offset: 0x1986F3, size: 0x8, addend: 0x0, symName: __ZNK10reanimated3css15CSSValueVariantIJNS0_9CSSLengthEEE9toDynamicEv, symObjAddr: 0xF8FC, symBinAddr: 0x153C0, symSize: 0x24 }
  - { offset: 0x198713, size: 0x8, addend: 0x0, symName: __ZNK10reanimated3css15CSSValueVariantIJNS0_9CSSLengthEEE9toDynamicEv, symObjAddr: 0xF8FC, symBinAddr: 0x153C0, symSize: 0x24 }
  - { offset: 0x19884C, size: 0x8, addend: 0x0, symName: __ZNK10reanimated3css15CSSValueVariantIJNS0_9CSSLengthEEE8toStringEv, symObjAddr: 0xF920, symBinAddr: 0x153E4, symSize: 0x24 }
  - { offset: 0x19885D, size: 0x8, addend: 0x0, symName: __ZNK10reanimated3css15CSSValueVariantIJNS0_9CSSLengthEEE8toStringEv, symObjAddr: 0xF920, symBinAddr: 0x153E4, symSize: 0x24 }
  - { offset: 0x1988B3, size: 0x8, addend: 0x0, symName: __ZNK10reanimated3css15CSSValueVariantIJNS0_9CSSLengthEEE8toStringEv, symObjAddr: 0xF920, symBinAddr: 0x153E4, symSize: 0x24 }
  - { offset: 0x1988EB, size: 0x8, addend: 0x0, symName: __ZNK10reanimated3css15CSSValueVariantIJNS0_9CSSLengthEEE8toStringEv, symObjAddr: 0xF920, symBinAddr: 0x153E4, symSize: 0x24 }
  - { offset: 0x19890B, size: 0x8, addend: 0x0, symName: __ZNK10reanimated3css15CSSValueVariantIJNS0_9CSSLengthEEE8toStringEv, symObjAddr: 0xF920, symBinAddr: 0x153E4, symSize: 0x24 }
  - { offset: 0x19892B, size: 0x8, addend: 0x0, symName: __ZNK10reanimated3css15CSSValueVariantIJNS0_9CSSLengthEEE8toStringEv, symObjAddr: 0xF920, symBinAddr: 0x153E4, symSize: 0x24 }
  - { offset: 0x198A64, size: 0x8, addend: 0x0, symName: __ZNSt3__115allocate_sharedB8ne200100IN10reanimated3css27ResolvableValueInterpolatorIJNS2_9CSSLengthEEEENS_9allocatorIS5_EEJRKNS_6vectorINS_12basic_stringIcNS_11char_traitsIcEENS6_IcEEEENS6_ISD_EEEERKNS2_15CSSValueVariantIJS4_EEERKNS_10shared_ptrINS2_20ViewStylesRepositoryEEERKNS2_10RelativeToERKSD_ELi0EEENSM_IT_EERKT0_DpOT1_, symObjAddr: 0xF944, symBinAddr: 0x15408, symSize: 0x88 }
  - { offset: 0x198CB7, size: 0x8, addend: 0x0, symName: __ZNK10reanimated3css15CSSValueVariantIJNS0_9CSSLengthEEE11interpolateEdRKS3_, symObjAddr: 0x10728, symBinAddr: 0x161EC, symSize: 0xA8 }
  - { offset: 0x1993DA, size: 0x8, addend: 0x0, symName: __ZNK10reanimated3css15CSSValueVariantIJNS0_9CSSLengthEEE11interpolateEdRKS3_RKNS0_38CSSResolvableValueInterpolationContextE, symObjAddr: 0x117B8, symBinAddr: 0x17268, symSize: 0xA8 }
  - { offset: 0x199C17, size: 0x8, addend: 0x0, symName: __ZNK10reanimated3css15CSSValueVariantIJNS0_10CSSIntegerEEE9toDynamicEv, symObjAddr: 0x1202C, symBinAddr: 0x17ADC, symSize: 0x24 }
  - { offset: 0x199C69, size: 0x8, addend: 0x0, symName: __ZNK10reanimated3css15CSSValueVariantIJNS0_10CSSIntegerEEE9toDynamicEv, symObjAddr: 0x1202C, symBinAddr: 0x17ADC, symSize: 0x24 }
  - { offset: 0x199CA1, size: 0x8, addend: 0x0, symName: __ZNK10reanimated3css15CSSValueVariantIJNS0_10CSSIntegerEEE9toDynamicEv, symObjAddr: 0x1202C, symBinAddr: 0x17ADC, symSize: 0x24 }
  - { offset: 0x199CC1, size: 0x8, addend: 0x0, symName: __ZNK10reanimated3css15CSSValueVariantIJNS0_10CSSIntegerEEE9toDynamicEv, symObjAddr: 0x1202C, symBinAddr: 0x17ADC, symSize: 0x24 }
  - { offset: 0x199CE1, size: 0x8, addend: 0x0, symName: __ZNK10reanimated3css15CSSValueVariantIJNS0_10CSSIntegerEEE9toDynamicEv, symObjAddr: 0x1202C, symBinAddr: 0x17ADC, symSize: 0x24 }
  - { offset: 0x199E1A, size: 0x8, addend: 0x0, symName: __ZNK10reanimated3css15CSSValueVariantIJNS0_10CSSIntegerEEE8toStringEv, symObjAddr: 0x12050, symBinAddr: 0x17B00, symSize: 0x24 }
  - { offset: 0x199E2B, size: 0x8, addend: 0x0, symName: __ZNK10reanimated3css15CSSValueVariantIJNS0_10CSSIntegerEEE8toStringEv, symObjAddr: 0x12050, symBinAddr: 0x17B00, symSize: 0x24 }
  - { offset: 0x199E81, size: 0x8, addend: 0x0, symName: __ZNK10reanimated3css15CSSValueVariantIJNS0_10CSSIntegerEEE8toStringEv, symObjAddr: 0x12050, symBinAddr: 0x17B00, symSize: 0x24 }
  - { offset: 0x199EB9, size: 0x8, addend: 0x0, symName: __ZNK10reanimated3css15CSSValueVariantIJNS0_10CSSIntegerEEE8toStringEv, symObjAddr: 0x12050, symBinAddr: 0x17B00, symSize: 0x24 }
  - { offset: 0x199ED9, size: 0x8, addend: 0x0, symName: __ZNK10reanimated3css15CSSValueVariantIJNS0_10CSSIntegerEEE8toStringEv, symObjAddr: 0x12050, symBinAddr: 0x17B00, symSize: 0x24 }
  - { offset: 0x199EF9, size: 0x8, addend: 0x0, symName: __ZNK10reanimated3css15CSSValueVariantIJNS0_10CSSIntegerEEE8toStringEv, symObjAddr: 0x12050, symBinAddr: 0x17B00, symSize: 0x24 }
  - { offset: 0x19A032, size: 0x8, addend: 0x0, symName: __ZNSt3__115allocate_sharedB8ne200100IN10reanimated3css17ValueInterpolatorIJNS2_10CSSIntegerEEEENS_9allocatorIS5_EEJRKNS_6vectorINS_12basic_stringIcNS_11char_traitsIcEENS6_IcEEEENS6_ISD_EEEERKNS2_15CSSValueVariantIJS4_EEERKNS_10shared_ptrINS2_20ViewStylesRepositoryEEEELi0EEENSM_IT_EERKT0_DpOT1_, symObjAddr: 0x12074, symBinAddr: 0x17B24, symSize: 0x70 }
  - { offset: 0x19A2D3, size: 0x8, addend: 0x0, symName: __ZNK10reanimated3css15CSSValueVariantIJNS0_10CSSIntegerEEE11interpolateEdRKS3_, symObjAddr: 0x13AE8, symBinAddr: 0x19350, symSize: 0xA4 }
  - { offset: 0x19AAED, size: 0x8, addend: 0x0, symName: __ZNK10reanimated3css15CSSValueVariantIJNS0_8CSSColorEEE9toDynamicEv, symObjAddr: 0x14AA0, symBinAddr: 0x1A0DC, symSize: 0x24 }
  - { offset: 0x19AB3F, size: 0x8, addend: 0x0, symName: __ZNK10reanimated3css15CSSValueVariantIJNS0_8CSSColorEEE9toDynamicEv, symObjAddr: 0x14AA0, symBinAddr: 0x1A0DC, symSize: 0x24 }
  - { offset: 0x19AB77, size: 0x8, addend: 0x0, symName: __ZNK10reanimated3css15CSSValueVariantIJNS0_8CSSColorEEE9toDynamicEv, symObjAddr: 0x14AA0, symBinAddr: 0x1A0DC, symSize: 0x24 }
  - { offset: 0x19AB97, size: 0x8, addend: 0x0, symName: __ZNK10reanimated3css15CSSValueVariantIJNS0_8CSSColorEEE9toDynamicEv, symObjAddr: 0x14AA0, symBinAddr: 0x1A0DC, symSize: 0x24 }
  - { offset: 0x19ABB7, size: 0x8, addend: 0x0, symName: __ZNK10reanimated3css15CSSValueVariantIJNS0_8CSSColorEEE9toDynamicEv, symObjAddr: 0x14AA0, symBinAddr: 0x1A0DC, symSize: 0x24 }
  - { offset: 0x19ACF0, size: 0x8, addend: 0x0, symName: __ZNK10reanimated3css15CSSValueVariantIJNS0_8CSSColorEEE8toStringEv, symObjAddr: 0x14AC4, symBinAddr: 0x1A100, symSize: 0x24 }
  - { offset: 0x19AD01, size: 0x8, addend: 0x0, symName: __ZNK10reanimated3css15CSSValueVariantIJNS0_8CSSColorEEE8toStringEv, symObjAddr: 0x14AC4, symBinAddr: 0x1A100, symSize: 0x24 }
  - { offset: 0x19AD57, size: 0x8, addend: 0x0, symName: __ZNK10reanimated3css15CSSValueVariantIJNS0_8CSSColorEEE8toStringEv, symObjAddr: 0x14AC4, symBinAddr: 0x1A100, symSize: 0x24 }
  - { offset: 0x19AD8F, size: 0x8, addend: 0x0, symName: __ZNK10reanimated3css15CSSValueVariantIJNS0_8CSSColorEEE8toStringEv, symObjAddr: 0x14AC4, symBinAddr: 0x1A100, symSize: 0x24 }
  - { offset: 0x19ADAF, size: 0x8, addend: 0x0, symName: __ZNK10reanimated3css15CSSValueVariantIJNS0_8CSSColorEEE8toStringEv, symObjAddr: 0x14AC4, symBinAddr: 0x1A100, symSize: 0x24 }
  - { offset: 0x19ADCF, size: 0x8, addend: 0x0, symName: __ZNK10reanimated3css15CSSValueVariantIJNS0_8CSSColorEEE8toStringEv, symObjAddr: 0x14AC4, symBinAddr: 0x1A100, symSize: 0x24 }
  - { offset: 0x19AF08, size: 0x8, addend: 0x0, symName: __ZNSt3__115allocate_sharedB8ne200100IN10reanimated3css17ValueInterpolatorIJNS2_8CSSColorEEEENS_9allocatorIS5_EEJRKNS_6vectorINS_12basic_stringIcNS_11char_traitsIcEENS6_IcEEEENS6_ISD_EEEERKNS2_15CSSValueVariantIJS4_EEERKNS_10shared_ptrINS2_20ViewStylesRepositoryEEEELi0EEENSM_IT_EERKT0_DpOT1_, symObjAddr: 0x14AE8, symBinAddr: 0x1A124, symSize: 0x70 }
  - { offset: 0x19B1A9, size: 0x8, addend: 0x0, symName: __ZNK10reanimated3css15CSSValueVariantIJNS0_8CSSColorEEE11interpolateEdRKS3_, symObjAddr: 0x1652C, symBinAddr: 0x1B920, symSize: 0xA0 }
  - { offset: 0x19CA7B, size: 0x8, addend: 0x0, symName: __ZNK10reanimated3css15CSSValueVariantIJNS0_10CSSBooleanEEE9toDynamicEv, symObjAddr: 0x1E534, symBinAddr: 0x22AB0, symSize: 0x24 }
  - { offset: 0x19CACD, size: 0x8, addend: 0x0, symName: __ZNK10reanimated3css15CSSValueVariantIJNS0_10CSSBooleanEEE9toDynamicEv, symObjAddr: 0x1E534, symBinAddr: 0x22AB0, symSize: 0x24 }
  - { offset: 0x19CB05, size: 0x8, addend: 0x0, symName: __ZNK10reanimated3css15CSSValueVariantIJNS0_10CSSBooleanEEE9toDynamicEv, symObjAddr: 0x1E534, symBinAddr: 0x22AB0, symSize: 0x24 }
  - { offset: 0x19CB25, size: 0x8, addend: 0x0, symName: __ZNK10reanimated3css15CSSValueVariantIJNS0_10CSSBooleanEEE9toDynamicEv, symObjAddr: 0x1E534, symBinAddr: 0x22AB0, symSize: 0x24 }
  - { offset: 0x19CB45, size: 0x8, addend: 0x0, symName: __ZNK10reanimated3css15CSSValueVariantIJNS0_10CSSBooleanEEE9toDynamicEv, symObjAddr: 0x1E534, symBinAddr: 0x22AB0, symSize: 0x24 }
  - { offset: 0x19CC7E, size: 0x8, addend: 0x0, symName: __ZNK10reanimated3css15CSSValueVariantIJNS0_10CSSBooleanEEE8toStringEv, symObjAddr: 0x1E558, symBinAddr: 0x22AD4, symSize: 0x24 }
  - { offset: 0x19CC8F, size: 0x8, addend: 0x0, symName: __ZNK10reanimated3css15CSSValueVariantIJNS0_10CSSBooleanEEE8toStringEv, symObjAddr: 0x1E558, symBinAddr: 0x22AD4, symSize: 0x24 }
  - { offset: 0x19CCE5, size: 0x8, addend: 0x0, symName: __ZNK10reanimated3css15CSSValueVariantIJNS0_10CSSBooleanEEE8toStringEv, symObjAddr: 0x1E558, symBinAddr: 0x22AD4, symSize: 0x24 }
  - { offset: 0x19CD1D, size: 0x8, addend: 0x0, symName: __ZNK10reanimated3css15CSSValueVariantIJNS0_10CSSBooleanEEE8toStringEv, symObjAddr: 0x1E558, symBinAddr: 0x22AD4, symSize: 0x24 }
  - { offset: 0x19CD3D, size: 0x8, addend: 0x0, symName: __ZNK10reanimated3css15CSSValueVariantIJNS0_10CSSBooleanEEE8toStringEv, symObjAddr: 0x1E558, symBinAddr: 0x22AD4, symSize: 0x24 }
  - { offset: 0x19CD5D, size: 0x8, addend: 0x0, symName: __ZNK10reanimated3css15CSSValueVariantIJNS0_10CSSBooleanEEE8toStringEv, symObjAddr: 0x1E558, symBinAddr: 0x22AD4, symSize: 0x24 }
  - { offset: 0x19CE96, size: 0x8, addend: 0x0, symName: __ZNSt3__115allocate_sharedB8ne200100IN10reanimated3css17ValueInterpolatorIJNS2_10CSSBooleanEEEENS_9allocatorIS5_EEJRKNS_6vectorINS_12basic_stringIcNS_11char_traitsIcEENS6_IcEEEENS6_ISD_EEEERKNS2_15CSSValueVariantIJS4_EEERKNS_10shared_ptrINS2_20ViewStylesRepositoryEEEELi0EEENSM_IT_EERKT0_DpOT1_, symObjAddr: 0x1E57C, symBinAddr: 0x22AF8, symSize: 0x70 }
  - { offset: 0x19D137, size: 0x8, addend: 0x0, symName: __ZNK10reanimated3css15CSSValueVariantIJNS0_10CSSBooleanEEE11interpolateEdRKS3_, symObjAddr: 0x1FFD0, symBinAddr: 0x24304, symSize: 0xA4 }
  - { offset: 0x19D9AD, size: 0x8, addend: 0x0, symName: __ZNK10reanimated3css15CSSValueVariantIJNS0_16CSSDiscreteArrayINS0_10CSSKeywordEEEEE9toDynamicEv, symObjAddr: 0x205A8, symBinAddr: 0x248DC, symSize: 0x24 }
  - { offset: 0x19D9FF, size: 0x8, addend: 0x0, symName: __ZNK10reanimated3css15CSSValueVariantIJNS0_16CSSDiscreteArrayINS0_10CSSKeywordEEEEE9toDynamicEv, symObjAddr: 0x205A8, symBinAddr: 0x248DC, symSize: 0x24 }
  - { offset: 0x19DA37, size: 0x8, addend: 0x0, symName: __ZNK10reanimated3css15CSSValueVariantIJNS0_16CSSDiscreteArrayINS0_10CSSKeywordEEEEE9toDynamicEv, symObjAddr: 0x205A8, symBinAddr: 0x248DC, symSize: 0x24 }
  - { offset: 0x19DA57, size: 0x8, addend: 0x0, symName: __ZNK10reanimated3css15CSSValueVariantIJNS0_16CSSDiscreteArrayINS0_10CSSKeywordEEEEE9toDynamicEv, symObjAddr: 0x205A8, symBinAddr: 0x248DC, symSize: 0x24 }
  - { offset: 0x19DA77, size: 0x8, addend: 0x0, symName: __ZNK10reanimated3css15CSSValueVariantIJNS0_16CSSDiscreteArrayINS0_10CSSKeywordEEEEE9toDynamicEv, symObjAddr: 0x205A8, symBinAddr: 0x248DC, symSize: 0x24 }
  - { offset: 0x19DBB0, size: 0x8, addend: 0x0, symName: __ZNK10reanimated3css15CSSValueVariantIJNS0_16CSSDiscreteArrayINS0_10CSSKeywordEEEEE8toStringEv, symObjAddr: 0x205CC, symBinAddr: 0x24900, symSize: 0x24 }
  - { offset: 0x19DBC1, size: 0x8, addend: 0x0, symName: __ZNK10reanimated3css15CSSValueVariantIJNS0_16CSSDiscreteArrayINS0_10CSSKeywordEEEEE8toStringEv, symObjAddr: 0x205CC, symBinAddr: 0x24900, symSize: 0x24 }
  - { offset: 0x19DC17, size: 0x8, addend: 0x0, symName: __ZNK10reanimated3css15CSSValueVariantIJNS0_16CSSDiscreteArrayINS0_10CSSKeywordEEEEE8toStringEv, symObjAddr: 0x205CC, symBinAddr: 0x24900, symSize: 0x24 }
  - { offset: 0x19DC4F, size: 0x8, addend: 0x0, symName: __ZNK10reanimated3css15CSSValueVariantIJNS0_16CSSDiscreteArrayINS0_10CSSKeywordEEEEE8toStringEv, symObjAddr: 0x205CC, symBinAddr: 0x24900, symSize: 0x24 }
  - { offset: 0x19DC6F, size: 0x8, addend: 0x0, symName: __ZNK10reanimated3css15CSSValueVariantIJNS0_16CSSDiscreteArrayINS0_10CSSKeywordEEEEE8toStringEv, symObjAddr: 0x205CC, symBinAddr: 0x24900, symSize: 0x24 }
  - { offset: 0x19DC8F, size: 0x8, addend: 0x0, symName: __ZNK10reanimated3css15CSSValueVariantIJNS0_16CSSDiscreteArrayINS0_10CSSKeywordEEEEE8toStringEv, symObjAddr: 0x205CC, symBinAddr: 0x24900, symSize: 0x24 }
  - { offset: 0x19DDC8, size: 0x8, addend: 0x0, symName: __ZNSt3__116__variant_detail18__copy_constructorINS0_8__traitsIJN10reanimated3css16CSSDiscreteArrayINS4_10CSSKeywordEEEEEELNS0_6_TraitE1EEC2B8ne200100ERKSA_, symObjAddr: 0x205F0, symBinAddr: 0x24924, symSize: 0x78 }
  - { offset: 0x19E07E, size: 0x8, addend: 0x0, symName: __ZNK10reanimated3css15CSSValueVariantIJNS0_16CSSDiscreteArrayINS0_10CSSKeywordEEEEE11interpolateEdRKS5_, symObjAddr: 0x23224, symBinAddr: 0x2743C, symSize: 0x80 }
  - { offset: 0x19F266, size: 0x8, addend: 0x0, symName: ___cxx_global_var_init.3, symObjAddr: 0x239CC, symBinAddr: 0x279E4, symSize: 0x2784 }
  - { offset: 0x1AB8EC, size: 0x8, addend: 0x0, symName: __ZNSt3__113unordered_mapINS_12basic_stringIcNS_11char_traitsIcEENS_9allocatorIcEEEENS_10shared_ptrIN10reanimated3css27PropertyInterpolatorFactoryEEENS_4hashIS6_EENS_8equal_toIS6_EENS4_INS_4pairIKS6_SB_EEEEEC2ESt16initializer_listISI_E, symObjAddr: 0x13DF8, symBinAddr: 0x19660, symSize: 0x78 }
  - { offset: 0x1ABAB0, size: 0x8, addend: 0x0, symName: __ZNSt3__14pairIKNS_12basic_stringIcNS_11char_traitsIcEENS_9allocatorIcEEEENS_10shared_ptrIN10reanimated3css27PropertyInterpolatorFactoryEEEED1Ev, symObjAddr: 0x6AC, symBinAddr: 0x67B8, symSize: 0x38 }
  - { offset: 0x1AC0B9, size: 0x8, addend: 0x0, symName: __ZN10reanimated3css15CSSValueVariantIJNS0_10CSSKeywordEEEC2IRA11_KcEEOT_, symObjAddr: 0x4B2C, symBinAddr: 0xA9D0, symSize: 0xC8 }
  - { offset: 0x1AC40E, size: 0x8, addend: 0x0, symName: __ZN10reanimated3css5valueIJNS0_10CSSKeywordEEA11_cEENSt3__19enable_ifIXfroosr3stdE18is_constructible_vIT_Dtfp_EEENS4_10shared_ptrINS0_27PropertyInterpolatorFactoryEEEE4typeERKT0_.cold.1, symObjAddr: 0x23874, symBinAddr: 0x12B9A4, symSize: 0x30 }
  - { offset: 0x1AC42A, size: 0x8, addend: 0x0, symName: __ZN10reanimated3css5valueIJNS0_10CSSKeywordEEA11_cEENSt3__19enable_ifIXfroosr3stdE18is_constructible_vIT_Dtfp_EEENS4_10shared_ptrINS0_27PropertyInterpolatorFactoryEEEE4typeERKT0_.cold.1, symObjAddr: 0x23874, symBinAddr: 0x12B9A4, symSize: 0x30 }
  - { offset: 0x1AC440, size: 0x8, addend: 0x0, symName: __ZN10reanimated3css5valueIJNS0_10CSSKeywordEEA11_cEENSt3__19enable_ifIXfroosr3stdE18is_constructible_vIT_Dtfp_EEENS4_10shared_ptrINS0_27PropertyInterpolatorFactoryEEEE4typeERKT0_.cold.1, symObjAddr: 0x23874, symBinAddr: 0x12B9A4, symSize: 0x30 }
  - { offset: 0x1AC456, size: 0x8, addend: 0x0, symName: __ZN10reanimated3css5valueIJNS0_10CSSKeywordEEA11_cEENSt3__19enable_ifIXfroosr3stdE18is_constructible_vIT_Dtfp_EEENS4_10shared_ptrINS0_27PropertyInterpolatorFactoryEEEE4typeERKT0_.cold.1, symObjAddr: 0x23874, symBinAddr: 0x12B9A4, symSize: 0x30 }
  - { offset: 0x1AC476, size: 0x8, addend: 0x0, symName: __ZN10reanimated3css5valueIJNS0_10CSSKeywordEEA11_cEENSt3__19enable_ifIXfroosr3stdE18is_constructible_vIT_Dtfp_EEENS4_10shared_ptrINS0_27PropertyInterpolatorFactoryEEEE4typeERKT0_.cold.1, symObjAddr: 0x23874, symBinAddr: 0x12B9A4, symSize: 0x30 }
  - { offset: 0x1AC496, size: 0x8, addend: 0x0, symName: __ZN10reanimated3css5valueIJNS0_10CSSKeywordEEA11_cEENSt3__19enable_ifIXfroosr3stdE18is_constructible_vIT_Dtfp_EEENS4_10shared_ptrINS0_27PropertyInterpolatorFactoryEEEE4typeERKT0_.cold.1, symObjAddr: 0x23874, symBinAddr: 0x12B9A4, symSize: 0x30 }
  - { offset: 0x1AC4B6, size: 0x8, addend: 0x0, symName: __ZN10reanimated3css5valueIJNS0_10CSSKeywordEEA11_cEENSt3__19enable_ifIXfroosr3stdE18is_constructible_vIT_Dtfp_EEENS4_10shared_ptrINS0_27PropertyInterpolatorFactoryEEEE4typeERKT0_.cold.1, symObjAddr: 0x23874, symBinAddr: 0x12B9A4, symSize: 0x30 }
  - { offset: 0x1AC4D6, size: 0x8, addend: 0x0, symName: __ZN10reanimated3css5valueIJNS0_10CSSKeywordEEA11_cEENSt3__19enable_ifIXfroosr3stdE18is_constructible_vIT_Dtfp_EEENS4_10shared_ptrINS0_27PropertyInterpolatorFactoryEEEE4typeERKT0_.cold.1, symObjAddr: 0x23874, symBinAddr: 0x12B9A4, symSize: 0x30 }
  - { offset: 0x1AC4F6, size: 0x8, addend: 0x0, symName: __ZN10reanimated3css5valueIJNS0_10CSSKeywordEEA11_cEENSt3__19enable_ifIXfroosr3stdE18is_constructible_vIT_Dtfp_EEENS4_10shared_ptrINS0_27PropertyInterpolatorFactoryEEEE4typeERKT0_.cold.1, symObjAddr: 0x23874, symBinAddr: 0x12B9A4, symSize: 0x30 }
  - { offset: 0x1AC516, size: 0x8, addend: 0x0, symName: __ZN10reanimated3css5valueIJNS0_10CSSKeywordEEA11_cEENSt3__19enable_ifIXfroosr3stdE18is_constructible_vIT_Dtfp_EEENS4_10shared_ptrINS0_27PropertyInterpolatorFactoryEEEE4typeERKT0_.cold.1, symObjAddr: 0x23874, symBinAddr: 0x12B9A4, symSize: 0x30 }
  - { offset: 0x1AC536, size: 0x8, addend: 0x0, symName: __ZN10reanimated3css5valueIJNS0_10CSSKeywordEEA11_cEENSt3__19enable_ifIXfroosr3stdE18is_constructible_vIT_Dtfp_EEENS4_10shared_ptrINS0_27PropertyInterpolatorFactoryEEEE4typeERKT0_.cold.1, symObjAddr: 0x23874, symBinAddr: 0x12B9A4, symSize: 0x30 }
  - { offset: 0x1AC556, size: 0x8, addend: 0x0, symName: __ZN10reanimated3css5valueIJNS0_10CSSKeywordEEA11_cEENSt3__19enable_ifIXfroosr3stdE18is_constructible_vIT_Dtfp_EEENS4_10shared_ptrINS0_27PropertyInterpolatorFactoryEEEE4typeERKT0_.cold.1, symObjAddr: 0x23874, symBinAddr: 0x12B9A4, symSize: 0x30 }
  - { offset: 0x1AC576, size: 0x8, addend: 0x0, symName: __ZN10reanimated3css5valueIJNS0_10CSSKeywordEEA11_cEENSt3__19enable_ifIXfroosr3stdE18is_constructible_vIT_Dtfp_EEENS4_10shared_ptrINS0_27PropertyInterpolatorFactoryEEEE4typeERKT0_.cold.1, symObjAddr: 0x23874, symBinAddr: 0x12B9A4, symSize: 0x30 }
  - { offset: 0x1AC596, size: 0x8, addend: 0x0, symName: __ZN10reanimated3css5valueIJNS0_10CSSKeywordEEA11_cEENSt3__19enable_ifIXfroosr3stdE18is_constructible_vIT_Dtfp_EEENS4_10shared_ptrINS0_27PropertyInterpolatorFactoryEEEE4typeERKT0_.cold.1, symObjAddr: 0x23874, symBinAddr: 0x12B9A4, symSize: 0x30 }
  - { offset: 0x1AC5B6, size: 0x8, addend: 0x0, symName: __ZN10reanimated3css5valueIJNS0_10CSSKeywordEEA11_cEENSt3__19enable_ifIXfroosr3stdE18is_constructible_vIT_Dtfp_EEENS4_10shared_ptrINS0_27PropertyInterpolatorFactoryEEEE4typeERKT0_.cold.1, symObjAddr: 0x23874, symBinAddr: 0x12B9A4, symSize: 0x30 }
  - { offset: 0x1AC5D6, size: 0x8, addend: 0x0, symName: __ZN10reanimated3css5valueIJNS0_10CSSKeywordEEA11_cEENSt3__19enable_ifIXfroosr3stdE18is_constructible_vIT_Dtfp_EEENS4_10shared_ptrINS0_27PropertyInterpolatorFactoryEEEE4typeERKT0_.cold.1, symObjAddr: 0x23874, symBinAddr: 0x12B9A4, symSize: 0x30 }
  - { offset: 0x1AC5F6, size: 0x8, addend: 0x0, symName: __ZN10reanimated3css5valueIJNS0_10CSSKeywordEEA11_cEENSt3__19enable_ifIXfroosr3stdE18is_constructible_vIT_Dtfp_EEENS4_10shared_ptrINS0_27PropertyInterpolatorFactoryEEEE4typeERKT0_.cold.1, symObjAddr: 0x23874, symBinAddr: 0x12B9A4, symSize: 0x30 }
  - { offset: 0x1AC616, size: 0x8, addend: 0x0, symName: __ZN10reanimated3css5valueIJNS0_10CSSKeywordEEA11_cEENSt3__19enable_ifIXfroosr3stdE18is_constructible_vIT_Dtfp_EEENS4_10shared_ptrINS0_27PropertyInterpolatorFactoryEEEE4typeERKT0_.cold.1, symObjAddr: 0x23874, symBinAddr: 0x12B9A4, symSize: 0x30 }
  - { offset: 0x1AC636, size: 0x8, addend: 0x0, symName: __ZN10reanimated3css5valueIJNS0_10CSSKeywordEEA11_cEENSt3__19enable_ifIXfroosr3stdE18is_constructible_vIT_Dtfp_EEENS4_10shared_ptrINS0_27PropertyInterpolatorFactoryEEEE4typeERKT0_.cold.1, symObjAddr: 0x23874, symBinAddr: 0x12B9A4, symSize: 0x30 }
  - { offset: 0x1AC656, size: 0x8, addend: 0x0, symName: __ZN10reanimated3css5valueIJNS0_10CSSKeywordEEA11_cEENSt3__19enable_ifIXfroosr3stdE18is_constructible_vIT_Dtfp_EEENS4_10shared_ptrINS0_27PropertyInterpolatorFactoryEEEE4typeERKT0_.cold.1, symObjAddr: 0x23874, symBinAddr: 0x12B9A4, symSize: 0x30 }
  - { offset: 0x1AC676, size: 0x8, addend: 0x0, symName: __ZN10reanimated3css5valueIJNS0_10CSSKeywordEEA11_cEENSt3__19enable_ifIXfroosr3stdE18is_constructible_vIT_Dtfp_EEENS4_10shared_ptrINS0_27PropertyInterpolatorFactoryEEEE4typeERKT0_.cold.1, symObjAddr: 0x23874, symBinAddr: 0x12B9A4, symSize: 0x30 }
  - { offset: 0x1AC696, size: 0x8, addend: 0x0, symName: __ZN10reanimated3css5valueIJNS0_10CSSKeywordEEA11_cEENSt3__19enable_ifIXfroosr3stdE18is_constructible_vIT_Dtfp_EEENS4_10shared_ptrINS0_27PropertyInterpolatorFactoryEEEE4typeERKT0_.cold.1, symObjAddr: 0x23874, symBinAddr: 0x12B9A4, symSize: 0x30 }
  - { offset: 0x1AC6B6, size: 0x8, addend: 0x0, symName: __ZN10reanimated3css5valueIJNS0_10CSSKeywordEEA11_cEENSt3__19enable_ifIXfroosr3stdE18is_constructible_vIT_Dtfp_EEENS4_10shared_ptrINS0_27PropertyInterpolatorFactoryEEEE4typeERKT0_.cold.1, symObjAddr: 0x23874, symBinAddr: 0x12B9A4, symSize: 0x30 }
  - { offset: 0x1AC6D6, size: 0x8, addend: 0x0, symName: __ZN10reanimated3css5valueIJNS0_10CSSKeywordEEA11_cEENSt3__19enable_ifIXfroosr3stdE18is_constructible_vIT_Dtfp_EEENS4_10shared_ptrINS0_27PropertyInterpolatorFactoryEEEE4typeERKT0_.cold.1, symObjAddr: 0x23874, symBinAddr: 0x12B9A4, symSize: 0x30 }
  - { offset: 0x1AC7A4, size: 0x8, addend: 0x0, symName: __ZN10reanimated3css15CSSValueVariantIJNS0_10CSSKeywordEEEC2IRA8_KcEEOT_, symObjAddr: 0x4D54, symBinAddr: 0xABA0, symSize: 0xC8 }
  - { offset: 0x1ACCE3, size: 0x8, addend: 0x0, symName: __ZN10reanimated3css15CSSValueVariantIJNS0_10CSSKeywordEEEC2IRA5_KcEEOT_, symObjAddr: 0x4F24, symBinAddr: 0xAD70, symSize: 0xC8 }
  - { offset: 0x1AD45F, size: 0x8, addend: 0x0, symName: __ZN10reanimated3css15CSSValueVariantIJNS0_9CSSDoubleENS0_10CSSKeywordEEEC2IRA5_KcEEOT_, symObjAddr: 0x7910, symBinAddr: 0xD654, symSize: 0xCC }
  - { offset: 0x1AD87B, size: 0x8, addend: 0x0, symName: __ZNSt3__116__variant_detail6__dtorINS0_8__traitsIJN10reanimated3css9CSSDoubleENS4_10CSSKeywordEEEELNS0_6_TraitE1EE9__destroyB8ne200100Ev, symObjAddr: 0x544C, symBinAddr: 0xB298, symSize: 0x54 }
  - { offset: 0x1AE2FE, size: 0x8, addend: 0x0, symName: __ZN10reanimated3css15CSSValueVariantIJNS0_9CSSDoubleEEEC2IRKiEEOT_, symObjAddr: 0x993C, symBinAddr: 0xF66C, symSize: 0xC4 }
  - { offset: 0x1AE9AF, size: 0x8, addend: 0x0, symName: __ZN10reanimated3css15CSSValueVariantIJNS0_9CSSLengthENS0_10CSSKeywordEEEC2IRA5_KcEEOT_, symObjAddr: 0xC6EC, symBinAddr: 0x12314, symSize: 0xAC }
  - { offset: 0x1AEC93, size: 0x8, addend: 0x0, symName: __ZNSt3__116__variant_detail6__dtorINS0_8__traitsIJN10reanimated3css9CSSLengthENS4_10CSSKeywordEEEELNS0_6_TraitE1EE9__destroyB8ne200100Ev, symObjAddr: 0x9EE0, symBinAddr: 0xFC10, symSize: 0x54 }
  - { offset: 0x1AF23F, size: 0x8, addend: 0x0, symName: __ZN10reanimated3css15CSSValueVariantIJNS0_10CSSDisplayEEEC2IRA5_KcEEOT_, symObjAddr: 0xF2B4, symBinAddr: 0x14D78, symSize: 0xC8 }
  - { offset: 0x1AF594, size: 0x8, addend: 0x0, symName: __ZN10reanimated3css5valueIJNS0_10CSSDisplayEEA5_cEENSt3__19enable_ifIXfroosr3stdE18is_constructible_vIT_Dtfp_EEENS4_10shared_ptrINS0_27PropertyInterpolatorFactoryEEEE4typeERKT0_.cold.1, symObjAddr: 0x23904, symBinAddr: 0x12B9D4, symSize: 0x30 }
  - { offset: 0x1AF5B0, size: 0x8, addend: 0x0, symName: __ZN10reanimated3css5valueIJNS0_10CSSDisplayEEA5_cEENSt3__19enable_ifIXfroosr3stdE18is_constructible_vIT_Dtfp_EEENS4_10shared_ptrINS0_27PropertyInterpolatorFactoryEEEE4typeERKT0_.cold.1, symObjAddr: 0x23904, symBinAddr: 0x12B9D4, symSize: 0x30 }
  - { offset: 0x1AF5C6, size: 0x8, addend: 0x0, symName: __ZN10reanimated3css5valueIJNS0_10CSSDisplayEEA5_cEENSt3__19enable_ifIXfroosr3stdE18is_constructible_vIT_Dtfp_EEENS4_10shared_ptrINS0_27PropertyInterpolatorFactoryEEEE4typeERKT0_.cold.1, symObjAddr: 0x23904, symBinAddr: 0x12B9D4, symSize: 0x30 }
  - { offset: 0x1AF5DC, size: 0x8, addend: 0x0, symName: __ZN10reanimated3css5valueIJNS0_10CSSDisplayEEA5_cEENSt3__19enable_ifIXfroosr3stdE18is_constructible_vIT_Dtfp_EEENS4_10shared_ptrINS0_27PropertyInterpolatorFactoryEEEE4typeERKT0_.cold.1, symObjAddr: 0x23904, symBinAddr: 0x12B9D4, symSize: 0x30 }
  - { offset: 0x1AF5FC, size: 0x8, addend: 0x0, symName: __ZN10reanimated3css5valueIJNS0_10CSSDisplayEEA5_cEENSt3__19enable_ifIXfroosr3stdE18is_constructible_vIT_Dtfp_EEENS4_10shared_ptrINS0_27PropertyInterpolatorFactoryEEEE4typeERKT0_.cold.1, symObjAddr: 0x23904, symBinAddr: 0x12B9D4, symSize: 0x30 }
  - { offset: 0x1AF61C, size: 0x8, addend: 0x0, symName: __ZN10reanimated3css5valueIJNS0_10CSSDisplayEEA5_cEENSt3__19enable_ifIXfroosr3stdE18is_constructible_vIT_Dtfp_EEENS4_10shared_ptrINS0_27PropertyInterpolatorFactoryEEEE4typeERKT0_.cold.1, symObjAddr: 0x23904, symBinAddr: 0x12B9D4, symSize: 0x30 }
  - { offset: 0x1AF63C, size: 0x8, addend: 0x0, symName: __ZN10reanimated3css5valueIJNS0_10CSSDisplayEEA5_cEENSt3__19enable_ifIXfroosr3stdE18is_constructible_vIT_Dtfp_EEENS4_10shared_ptrINS0_27PropertyInterpolatorFactoryEEEE4typeERKT0_.cold.1, symObjAddr: 0x23904, symBinAddr: 0x12B9D4, symSize: 0x30 }
  - { offset: 0x1AF65C, size: 0x8, addend: 0x0, symName: __ZN10reanimated3css5valueIJNS0_10CSSDisplayEEA5_cEENSt3__19enable_ifIXfroosr3stdE18is_constructible_vIT_Dtfp_EEENS4_10shared_ptrINS0_27PropertyInterpolatorFactoryEEEE4typeERKT0_.cold.1, symObjAddr: 0x23904, symBinAddr: 0x12B9D4, symSize: 0x30 }
  - { offset: 0x1AF67C, size: 0x8, addend: 0x0, symName: __ZN10reanimated3css5valueIJNS0_10CSSDisplayEEA5_cEENSt3__19enable_ifIXfroosr3stdE18is_constructible_vIT_Dtfp_EEENS4_10shared_ptrINS0_27PropertyInterpolatorFactoryEEEE4typeERKT0_.cold.1, symObjAddr: 0x23904, symBinAddr: 0x12B9D4, symSize: 0x30 }
  - { offset: 0x1AF69C, size: 0x8, addend: 0x0, symName: __ZN10reanimated3css5valueIJNS0_10CSSDisplayEEA5_cEENSt3__19enable_ifIXfroosr3stdE18is_constructible_vIT_Dtfp_EEENS4_10shared_ptrINS0_27PropertyInterpolatorFactoryEEEE4typeERKT0_.cold.1, symObjAddr: 0x23904, symBinAddr: 0x12B9D4, symSize: 0x30 }
  - { offset: 0x1AF6BC, size: 0x8, addend: 0x0, symName: __ZN10reanimated3css5valueIJNS0_10CSSDisplayEEA5_cEENSt3__19enable_ifIXfroosr3stdE18is_constructible_vIT_Dtfp_EEENS4_10shared_ptrINS0_27PropertyInterpolatorFactoryEEEE4typeERKT0_.cold.1, symObjAddr: 0x23904, symBinAddr: 0x12B9D4, symSize: 0x30 }
  - { offset: 0x1AF6DC, size: 0x8, addend: 0x0, symName: __ZN10reanimated3css5valueIJNS0_10CSSDisplayEEA5_cEENSt3__19enable_ifIXfroosr3stdE18is_constructible_vIT_Dtfp_EEENS4_10shared_ptrINS0_27PropertyInterpolatorFactoryEEEE4typeERKT0_.cold.1, symObjAddr: 0x23904, symBinAddr: 0x12B9D4, symSize: 0x30 }
  - { offset: 0x1AF6FC, size: 0x8, addend: 0x0, symName: __ZN10reanimated3css5valueIJNS0_10CSSDisplayEEA5_cEENSt3__19enable_ifIXfroosr3stdE18is_constructible_vIT_Dtfp_EEENS4_10shared_ptrINS0_27PropertyInterpolatorFactoryEEEE4typeERKT0_.cold.1, symObjAddr: 0x23904, symBinAddr: 0x12B9D4, symSize: 0x30 }
  - { offset: 0x1AF71C, size: 0x8, addend: 0x0, symName: __ZN10reanimated3css5valueIJNS0_10CSSDisplayEEA5_cEENSt3__19enable_ifIXfroosr3stdE18is_constructible_vIT_Dtfp_EEENS4_10shared_ptrINS0_27PropertyInterpolatorFactoryEEEE4typeERKT0_.cold.1, symObjAddr: 0x23904, symBinAddr: 0x12B9D4, symSize: 0x30 }
  - { offset: 0x1AF73C, size: 0x8, addend: 0x0, symName: __ZN10reanimated3css5valueIJNS0_10CSSDisplayEEA5_cEENSt3__19enable_ifIXfroosr3stdE18is_constructible_vIT_Dtfp_EEENS4_10shared_ptrINS0_27PropertyInterpolatorFactoryEEEE4typeERKT0_.cold.1, symObjAddr: 0x23904, symBinAddr: 0x12B9D4, symSize: 0x30 }
  - { offset: 0x1AF75C, size: 0x8, addend: 0x0, symName: __ZN10reanimated3css5valueIJNS0_10CSSDisplayEEA5_cEENSt3__19enable_ifIXfroosr3stdE18is_constructible_vIT_Dtfp_EEENS4_10shared_ptrINS0_27PropertyInterpolatorFactoryEEEE4typeERKT0_.cold.1, symObjAddr: 0x23904, symBinAddr: 0x12B9D4, symSize: 0x30 }
  - { offset: 0x1AF77C, size: 0x8, addend: 0x0, symName: __ZN10reanimated3css5valueIJNS0_10CSSDisplayEEA5_cEENSt3__19enable_ifIXfroosr3stdE18is_constructible_vIT_Dtfp_EEENS4_10shared_ptrINS0_27PropertyInterpolatorFactoryEEEE4typeERKT0_.cold.1, symObjAddr: 0x23904, symBinAddr: 0x12B9D4, symSize: 0x30 }
  - { offset: 0x1AF79C, size: 0x8, addend: 0x0, symName: __ZN10reanimated3css5valueIJNS0_10CSSDisplayEEA5_cEENSt3__19enable_ifIXfroosr3stdE18is_constructible_vIT_Dtfp_EEENS4_10shared_ptrINS0_27PropertyInterpolatorFactoryEEEE4typeERKT0_.cold.1, symObjAddr: 0x23904, symBinAddr: 0x12B9D4, symSize: 0x30 }
  - { offset: 0x1AF7BC, size: 0x8, addend: 0x0, symName: __ZN10reanimated3css5valueIJNS0_10CSSDisplayEEA5_cEENSt3__19enable_ifIXfroosr3stdE18is_constructible_vIT_Dtfp_EEENS4_10shared_ptrINS0_27PropertyInterpolatorFactoryEEEE4typeERKT0_.cold.1, symObjAddr: 0x23904, symBinAddr: 0x12B9D4, symSize: 0x30 }
  - { offset: 0x1AF7DC, size: 0x8, addend: 0x0, symName: __ZN10reanimated3css5valueIJNS0_10CSSDisplayEEA5_cEENSt3__19enable_ifIXfroosr3stdE18is_constructible_vIT_Dtfp_EEENS4_10shared_ptrINS0_27PropertyInterpolatorFactoryEEEE4typeERKT0_.cold.1, symObjAddr: 0x23904, symBinAddr: 0x12B9D4, symSize: 0x30 }
  - { offset: 0x1AF7FC, size: 0x8, addend: 0x0, symName: __ZN10reanimated3css5valueIJNS0_10CSSDisplayEEA5_cEENSt3__19enable_ifIXfroosr3stdE18is_constructible_vIT_Dtfp_EEENS4_10shared_ptrINS0_27PropertyInterpolatorFactoryEEEE4typeERKT0_.cold.1, symObjAddr: 0x23904, symBinAddr: 0x12B9D4, symSize: 0x30 }
  - { offset: 0x1AF81C, size: 0x8, addend: 0x0, symName: __ZN10reanimated3css5valueIJNS0_10CSSDisplayEEA5_cEENSt3__19enable_ifIXfroosr3stdE18is_constructible_vIT_Dtfp_EEENS4_10shared_ptrINS0_27PropertyInterpolatorFactoryEEEE4typeERKT0_.cold.1, symObjAddr: 0x23904, symBinAddr: 0x12B9D4, symSize: 0x30 }
  - { offset: 0x1AF83C, size: 0x8, addend: 0x0, symName: __ZN10reanimated3css5valueIJNS0_10CSSDisplayEEA5_cEENSt3__19enable_ifIXfroosr3stdE18is_constructible_vIT_Dtfp_EEENS4_10shared_ptrINS0_27PropertyInterpolatorFactoryEEEE4typeERKT0_.cold.1, symObjAddr: 0x23904, symBinAddr: 0x12B9D4, symSize: 0x30 }
  - { offset: 0x1AF85C, size: 0x8, addend: 0x0, symName: __ZN10reanimated3css5valueIJNS0_10CSSDisplayEEA5_cEENSt3__19enable_ifIXfroosr3stdE18is_constructible_vIT_Dtfp_EEENS4_10shared_ptrINS0_27PropertyInterpolatorFactoryEEEE4typeERKT0_.cold.1, symObjAddr: 0x23904, symBinAddr: 0x12B9D4, symSize: 0x30 }
  - { offset: 0x1AF92A, size: 0x8, addend: 0x0, symName: __ZN10reanimated3css15CSSValueVariantIJNS0_10CSSKeywordEEEC2IRA7_KcEEOT_, symObjAddr: 0xF484, symBinAddr: 0x14F48, symSize: 0xC8 }
  - { offset: 0x1AFF0B, size: 0x8, addend: 0x0, symName: __ZN10reanimated3css15CSSValueVariantIJNS0_9CSSLengthEEEC2IRKiEEOT_, symObjAddr: 0x11928, symBinAddr: 0x173D8, symSize: 0xAC }
  - { offset: 0x1B029A, size: 0x8, addend: 0x0, symName: __ZN10reanimated3css15CSSValueVariantIJNS0_9CSSLengthENS0_10CSSKeywordEEEC2IRKiEEOT_, symObjAddr: 0x11AC4, symBinAddr: 0x17574, symSize: 0xAC }
  - { offset: 0x1B05AF, size: 0x8, addend: 0x0, symName: __ZN10reanimated3css15CSSValueVariantIJNS0_10CSSKeywordEEEC2IRA9_KcEEOT_, symObjAddr: 0x11D90, symBinAddr: 0x17840, symSize: 0xC8 }
  - { offset: 0x1B1405, size: 0x8, addend: 0x0, symName: __ZN10reanimated3css15CSSValueVariantIJNS0_10CSSIntegerEEEC2IRKiEEOT_, symObjAddr: 0x13C60, symBinAddr: 0x194C8, symSize: 0xC4 }
  - { offset: 0x1B187D, size: 0x8, addend: 0x0, symName: __ZNSt3__113unordered_mapINS_12basic_stringIcNS_11char_traitsIcEENS_9allocatorIcEEEENS_10shared_ptrIN10reanimated3css27PropertyInterpolatorFactoryEEENS_4hashIS6_EENS_8equal_toIS6_EENS4_INS_4pairIKS6_SB_EEEEED1B8ne200100Ev, symObjAddr: 0x6E4, symBinAddr: 0x67F0, symSize: 0x4 }
  - { offset: 0x1B18A1, size: 0x8, addend: 0x0, symName: __ZNSt3__113unordered_mapINS_12basic_stringIcNS_11char_traitsIcEENS_9allocatorIcEEEENS_10shared_ptrIN10reanimated3css27PropertyInterpolatorFactoryEEENS_4hashIS6_EENS_8equal_toIS6_EENS4_INS_4pairIKS6_SB_EEEEED1B8ne200100Ev, symObjAddr: 0x6E4, symBinAddr: 0x67F0, symSize: 0x4 }
  - { offset: 0x1B18BF, size: 0x8, addend: 0x0, symName: __ZNSt3__113unordered_mapINS_12basic_stringIcNS_11char_traitsIcEENS_9allocatorIcEEEENS_10shared_ptrIN10reanimated3css27PropertyInterpolatorFactoryEEENS_4hashIS6_EENS_8equal_toIS6_EENS4_INS_4pairIKS6_SB_EEEEED1B8ne200100Ev, symObjAddr: 0x6E4, symBinAddr: 0x67F0, symSize: 0x4 }
  - { offset: 0x1B18DF, size: 0x8, addend: 0x0, symName: __ZNSt3__113unordered_mapINS_12basic_stringIcNS_11char_traitsIcEENS_9allocatorIcEEEENS_10shared_ptrIN10reanimated3css27PropertyInterpolatorFactoryEEENS_4hashIS6_EENS_8equal_toIS6_EENS4_INS_4pairIKS6_SB_EEEEED1B8ne200100Ev, symObjAddr: 0x6E4, symBinAddr: 0x67F0, symSize: 0x4 }
  - { offset: 0x1B18F3, size: 0x8, addend: 0x0, symName: __ZNSt3__112__hash_tableINS_17__hash_value_typeINS_12basic_stringIcNS_11char_traitsIcEENS_9allocatorIcEEEENS_10shared_ptrIN10reanimated3css27PropertyInterpolatorFactoryEEEEENS_22__unordered_map_hasherIS7_SD_NS_4hashIS7_EENS_8equal_toIS7_EELb1EEENS_21__unordered_map_equalIS7_SD_SI_SG_Lb1EEENS5_ISD_EEED2Ev, symObjAddr: 0x14960, symBinAddr: 0x19F9C, symSize: 0x38 }
  - { offset: 0x1B25C1, size: 0x8, addend: 0x0, symName: __ZN10reanimated3css15CSSValueVariantIJNS0_9CSSLengthEEEC2IRA4_KcEEOT_, symObjAddr: 0x16688, symBinAddr: 0x1BA7C, symSize: 0xAC }
  - { offset: 0x1B3B6A, size: 0x8, addend: 0x0, symName: __ZNSt3__112__hash_tableINS_17__hash_value_typeINS_12basic_stringIcNS_11char_traitsIcEENS_9allocatorIcEEEENS_10shared_ptrIN10reanimated3css27PropertyInterpolatorFactoryEEEEENS_22__unordered_map_hasherIS7_SD_NS_4hashIS7_EENS_8equal_toIS7_EELb1EEENS_21__unordered_map_equalIS7_SD_SI_SG_Lb1EEENS5_ISD_EEE25__emplace_unique_key_argsIS7_JRKNS_4pairIKS7_SC_EEEEENSP_INS_15__hash_iteratorIPNS_11__hash_nodeISD_PvEEEEbEERKT_DpOT0_, symObjAddr: 0x13E70, symBinAddr: 0x196D8, symSize: 0x250 }
  - { offset: 0x1B4076, size: 0x8, addend: 0x0, symName: __ZN10reanimated3css15CSSValueVariantIJNS0_10CSSKeywordEEEC2IRA6_KcEEOT_, symObjAddr: 0x1E298, symBinAddr: 0x22814, symSize: 0xC8 }
  - { offset: 0x1B4EA6, size: 0x8, addend: 0x0, symName: __ZN10reanimated3css15CSSValueVariantIJNS0_10CSSBooleanEEEC2IRKbEEOT_, symObjAddr: 0x20130, symBinAddr: 0x24464, symSize: 0xAC }
  - { offset: 0x1B5704, size: 0x8, addend: 0x0, symName: __ZN10reanimated3css15CSSValueVariantIJNS0_16CSSDiscreteArrayINS0_10CSSKeywordEEEEEC2IRKNSt3__16vectorIS3_NS7_9allocatorIS3_EEEEEEOT_, symObjAddr: 0x233EC, symBinAddr: 0x27604, symSize: 0xE0 }
  - { offset: 0x1B5C51, size: 0x8, addend: 0x0, symName: __ZNSt3__16vectorIN10reanimated3css10CSSKeywordENS_9allocatorIS3_EEE16__destroy_vectorclB8ne200100Ev, symObjAddr: 0x1BDC, symBinAddr: 0x7B5C, symSize: 0x8C }
  - { offset: 0x1B5FD9, size: 0x8, addend: 0x0, symName: __ZN10reanimated3css25AnimationProgressProviderC2EddddNS0_18AnimationDirectionENSt3__18functionIFddEEERKNS3_10shared_ptrINS3_13unordered_mapIdS6_NS3_4hashIdEENS3_8equal_toIdEENS3_9allocatorINS3_4pairIKdS6_EEEEEEEE, symObjAddr: 0x1390, symBinAddr: 0x7464, symSize: 0xA8 }
  - { offset: 0x1B61CB, size: 0x8, addend: 0x0, symName: __ZNSt3__110__function12__value_funcIFddEEC2B8ne200100EOS3_, symObjAddr: 0x23534, symBinAddr: 0x2774C, symSize: 0x64 }
  - { offset: 0x1B621B, size: 0x8, addend: 0x0, symName: __ZN10reanimated3css25AnimationProgressProviderC1EddddNS0_18AnimationDirectionENSt3__18functionIFddEEERKNS3_10shared_ptrINS3_13unordered_mapIdS6_NS3_4hashIdEENS3_8equal_toIdEENS3_9allocatorINS3_4pairIKdS6_EEEEEEEE, symObjAddr: 0x1438, symBinAddr: 0x750C, symSize: 0x4 }
  - { offset: 0x1B62B8, size: 0x8, addend: 0x0, symName: __ZN10reanimated3css25AnimationProgressProviderC1EddddNS0_18AnimationDirectionENSt3__18functionIFddEEERKNS3_10shared_ptrINS3_13unordered_mapIdS6_NS3_4hashIdEENS3_8equal_toIdEENS3_9allocatorINS3_4pairIKdS6_EEEEEEEE, symObjAddr: 0x1438, symBinAddr: 0x750C, symSize: 0x4 }
  - { offset: 0x1B630C, size: 0x8, addend: 0x0, symName: __ZN10reanimated3css25AnimationProgressProvider17setIterationCountEd, symObjAddr: 0x143C, symBinAddr: 0x7510, symSize: 0x8 }
  - { offset: 0x1B6344, size: 0x8, addend: 0x0, symName: __ZN10reanimated3css25AnimationProgressProvider12setDirectionENS0_18AnimationDirectionE, symObjAddr: 0x1444, symBinAddr: 0x7518, symSize: 0x8 }
  - { offset: 0x1B637B, size: 0x8, addend: 0x0, symName: __ZN10reanimated3css25AnimationProgressProvider17setEasingFunctionERKNSt3__18functionIFddEEE, symObjAddr: 0x144C, symBinAddr: 0x7520, symSize: 0x8 }
  - { offset: 0x1B63CB, size: 0x8, addend: 0x0, symName: __ZNSt3__18functionIFddEEaSERKS2_, symObjAddr: 0x1454, symBinAddr: 0x7528, symSize: 0x94 }
  - { offset: 0x1B66C2, size: 0x8, addend: 0x0, symName: __ZNSt3__110__function12__value_funcIFddEE4swapB8ne200100ERS3_, symObjAddr: 0x235FC, symBinAddr: 0x277B0, symSize: 0x16C }
  - { offset: 0x1B6804, size: 0x8, addend: 0x0, symName: __ZNK10reanimated3css25AnimationProgressProvider12getDirectionEv, symObjAddr: 0x14E8, symBinAddr: 0x75BC, symSize: 0x8 }
  - { offset: 0x1B6881, size: 0x8, addend: 0x0, symName: __ZNK10reanimated3css25AnimationProgressProvider17getGlobalProgressEv, symObjAddr: 0x14F0, symBinAddr: 0x75C4, symSize: 0x18 }
  - { offset: 0x1B68A5, size: 0x8, addend: 0x0, symName: __ZNK10reanimated3css25AnimationProgressProvider17getGlobalProgressEv, symObjAddr: 0x14F0, symBinAddr: 0x75C4, symSize: 0x18 }
  - { offset: 0x1B68C5, size: 0x8, addend: 0x0, symName: __ZNK10reanimated3css25AnimationProgressProvider17getGlobalProgressEv, symObjAddr: 0x14F0, symBinAddr: 0x75C4, symSize: 0x18 }
  - { offset: 0x1B68F2, size: 0x8, addend: 0x0, symName: __ZNK10reanimated3css25AnimationProgressProvider23applyAnimationDirectionEd, symObjAddr: 0x1508, symBinAddr: 0x75DC, symSize: 0x58 }
  - { offset: 0x1B697C, size: 0x8, addend: 0x0, symName: __ZNK10reanimated3css25AnimationProgressProvider8getStateEd, symObjAddr: 0x1560, symBinAddr: 0x7634, symSize: 0x8C }
  - { offset: 0x1B6A59, size: 0x8, addend: 0x0, symName: __ZNK10reanimated3css25AnimationProgressProvider12shouldFinishEd, symObjAddr: 0x15EC, symBinAddr: 0x76C0, symSize: 0x60 }
  - { offset: 0x1B6AED, size: 0x8, addend: 0x0, symName: __ZNK10reanimated3css25AnimationProgressProvider17getStartTimestampEd, symObjAddr: 0x164C, symBinAddr: 0x7720, symSize: 0x24 }
  - { offset: 0x1B6B41, size: 0x8, addend: 0x0, symName: __ZNK10reanimated3css25AnimationProgressProvider17getPauseTimestampEv, symObjAddr: 0x1670, symBinAddr: 0x7744, symSize: 0x8 }
  - { offset: 0x1B6B69, size: 0x8, addend: 0x0, symName: __ZNK10reanimated3css25AnimationProgressProvider18getTotalPausedTimeEd, symObjAddr: 0x1678, symBinAddr: 0x774C, symSize: 0x18 }
  - { offset: 0x1B6C42, size: 0x8, addend: 0x0, symName: __ZNK10reanimated3css25AnimationProgressProvider19getKeyframeProgressEdd, symObjAddr: 0x1690, symBinAddr: 0x7764, symSize: 0xA8 }
  - { offset: 0x1B6E65, size: 0x8, addend: 0x0, symName: __ZN10reanimated3css25AnimationProgressProvider5pauseEd, symObjAddr: 0x1738, symBinAddr: 0x780C, symSize: 0x8 }
  - { offset: 0x1B6E70, size: 0x8, addend: 0x0, symName: __ZNSt3__112__hash_tableINS_17__hash_value_typeIdNS_8functionIFddEEEEENS_22__unordered_map_hasherIdS5_NS_4hashIdEENS_8equal_toIdEELb1EEENS_21__unordered_map_equalIdS5_SA_S8_Lb1EEENS_9allocatorIS5_EEE4findIdEENS_15__hash_iteratorIPNS_11__hash_nodeIS5_PvEEEERKT_, symObjAddr: 0x23768, symBinAddr: 0x2791C, symSize: 0xC0 }
  - { offset: 0x1B6ECB, size: 0x8, addend: 0x0, symName: __ZNSt3__112__hash_tableINS_17__hash_value_typeIdNS_8functionIFddEEEEENS_22__unordered_map_hasherIdS5_NS_4hashIdEENS_8equal_toIdEELb1EEENS_21__unordered_map_equalIdS5_SA_S8_Lb1EEENS_9allocatorIS5_EEE4findIdEENS_15__hash_iteratorIPNS_11__hash_nodeIS5_PvEEEERKT_, symObjAddr: 0x23768, symBinAddr: 0x2791C, symSize: 0xC0 }
  - { offset: 0x1B7062, size: 0x8, addend: 0x0, symName: __ZN10reanimated3css25AnimationProgressProvider5pauseEd, symObjAddr: 0x1738, symBinAddr: 0x780C, symSize: 0x8 }
  - { offset: 0x1B709A, size: 0x8, addend: 0x0, symName: __ZN10reanimated3css25AnimationProgressProvider4playEd, symObjAddr: 0x1740, symBinAddr: 0x7814, symSize: 0x24 }
  - { offset: 0x1B70D3, size: 0x8, addend: 0x0, symName: __ZN10reanimated3css25AnimationProgressProvider13resetProgressEv, symObjAddr: 0x1764, symBinAddr: 0x7838, symSize: 0x30 }
  - { offset: 0x1B7114, size: 0x8, addend: 0x0, symName: __ZThn8_N10reanimated3css25AnimationProgressProvider13resetProgressEv, symObjAddr: 0x1794, symBinAddr: 0x7868, symSize: 0x2C }
  - { offset: 0x1B714C, size: 0x8, addend: 0x0, symName: __ZN10reanimated3css25AnimationProgressProvider20calculateRawProgressEd, symObjAddr: 0x17C0, symBinAddr: 0x7894, symSize: 0xA0 }
  - { offset: 0x1B7215, size: 0x8, addend: 0x0, symName: __ZN10reanimated3css25AnimationProgressProvider23updateIterationProgressEd, symObjAddr: 0x1860, symBinAddr: 0x7934, symSize: 0x74 }
  - { offset: 0x1B7270, size: 0x8, addend: 0x0, symName: __ZThn8_N10reanimated3css25AnimationProgressProvider20calculateRawProgressEd, symObjAddr: 0x18D4, symBinAddr: 0x79A8, symSize: 0x1C }
  - { offset: 0x1B72A1, size: 0x8, addend: 0x0, symName: ___cxx_global_var_init.168, symObjAddr: 0x26150, symBinAddr: 0x2A168, symSize: 0x74 }
  - { offset: 0x1B770E, size: 0x8, addend: 0x0, symName: __ZNSt3__16vectorINS_10shared_ptrIN10reanimated3css27PropertyInterpolatorFactoryEEENS_9allocatorIS5_EEE16__init_with_sizeB8ne200100IPKS5_SB_EEvT_T0_m, symObjAddr: 0x1A54, symBinAddr: 0x79D4, symSize: 0x98 }
  - { offset: 0x1B7A9F, size: 0x8, addend: 0x0, symName: __ZNSt3__16vectorINS_10shared_ptrIN10reanimated3css27PropertyInterpolatorFactoryEEENS_9allocatorIS5_EEE11__vallocateB8ne200100Em, symObjAddr: 0x1AEC, symBinAddr: 0x7A6C, symSize: 0x38 }
  - { offset: 0x1B7AF9, size: 0x8, addend: 0x0, symName: __ZNSt3__16vectorINS_10shared_ptrIN10reanimated3css27PropertyInterpolatorFactoryEEENS_9allocatorIS5_EEE20__throw_length_errorB8ne200100Ev, symObjAddr: 0x1B24, symBinAddr: 0x7AA4, symSize: 0x14 }
  - { offset: 0x1B7B04, size: 0x8, addend: 0x0, symName: __ZNSt3__16vectorINS_10shared_ptrIN10reanimated3css27PropertyInterpolatorFactoryEEENS_9allocatorIS5_EEE16__destroy_vectorclB8ne200100Ev, symObjAddr: 0x1B6C, symBinAddr: 0x7AEC, symSize: 0x70 }
  - { offset: 0x1B7C8D, size: 0x8, addend: 0x0, symName: __ZNSt3__16vectorINS_10shared_ptrIN10reanimated3css27PropertyInterpolatorFactoryEEENS_9allocatorIS5_EEE20__throw_length_errorB8ne200100Ev, symObjAddr: 0x1B24, symBinAddr: 0x7AA4, symSize: 0x14 }
  - { offset: 0x1B7CA5, size: 0x8, addend: 0x0, symName: __ZNSt3__119__allocate_at_leastB8ne200100INS_9allocatorINS_10shared_ptrIN10reanimated3css27PropertyInterpolatorFactoryEEEEEEENS_19__allocation_resultINS_16allocator_traitsIT_E7pointerEEERSA_m, symObjAddr: 0x1B38, symBinAddr: 0x7AB8, symSize: 0x34 }
  - { offset: 0x1B7F32, size: 0x8, addend: 0x0, symName: __ZN10reanimated3css15CSSValueVariantIJNS0_10CSSKeywordEEED1Ev, symObjAddr: 0x1C9C, symBinAddr: 0x7C1C, symSize: 0x54 }
  - { offset: 0x1B85D7, size: 0x8, addend: 0x0, symName: __ZNSt3__120__shared_ptr_emplaceIN10reanimated3css24ValueInterpolatorFactoryIJNS2_10CSSKeywordEEEENS_9allocatorIS5_EEEC2B8ne200100IJNS2_15CSSValueVariantIJS4_EEEES7_Li0EEES7_DpOT_, symObjAddr: 0x1D48, symBinAddr: 0x7CC8, symSize: 0x70 }
  - { offset: 0x1B8A67, size: 0x8, addend: 0x0, symName: __ZNSt3__116__variant_detail18__copy_constructorINS0_8__traitsIJN10reanimated3css10CSSKeywordEEEELNS0_6_TraitE1EEC2B8ne200100ERKS8_, symObjAddr: 0x1FA8, symBinAddr: 0x7F28, symSize: 0x44 }
  - { offset: 0x1B8BCD, size: 0x8, addend: 0x0, symName: __ZNSt3__120__shared_ptr_emplaceIN10reanimated3css24ValueInterpolatorFactoryIJNS2_10CSSKeywordEEEENS_9allocatorIS5_EEED1Ev, symObjAddr: 0x1DB8, symBinAddr: 0x7D38, symSize: 0x14 }
  - { offset: 0x1B8BF1, size: 0x8, addend: 0x0, symName: __ZNSt3__120__shared_ptr_emplaceIN10reanimated3css24ValueInterpolatorFactoryIJNS2_10CSSKeywordEEEENS_9allocatorIS5_EEED1Ev, symObjAddr: 0x1DB8, symBinAddr: 0x7D38, symSize: 0x14 }
  - { offset: 0x1B8C28, size: 0x8, addend: 0x0, symName: __ZNSt3__120__shared_ptr_emplaceIN10reanimated3css24ValueInterpolatorFactoryIJNS2_10CSSKeywordEEEENS_9allocatorIS5_EEED0Ev, symObjAddr: 0x1DCC, symBinAddr: 0x7D4C, symSize: 0x24 }
  - { offset: 0x1B8CFE, size: 0x8, addend: 0x0, symName: __ZNSt3__120__shared_ptr_emplaceIN10reanimated3css24ValueInterpolatorFactoryIJNS2_10CSSKeywordEEEENS_9allocatorIS5_EEE16__on_zero_sharedEv, symObjAddr: 0x1DF0, symBinAddr: 0x7D70, symSize: 0xC }
  - { offset: 0x1B8D28, size: 0x8, addend: 0x0, symName: __ZNSt3__120__shared_ptr_emplaceIN10reanimated3css24ValueInterpolatorFactoryIJNS2_10CSSKeywordEEEENS_9allocatorIS5_EEE16__on_zero_sharedEv, symObjAddr: 0x1DF0, symBinAddr: 0x7D70, symSize: 0xC }
  - { offset: 0x1B8D47, size: 0x8, addend: 0x0, symName: __ZNSt3__120__shared_ptr_emplaceIN10reanimated3css24ValueInterpolatorFactoryIJNS2_10CSSKeywordEEEENS_9allocatorIS5_EEE16__on_zero_sharedEv, symObjAddr: 0x1DF0, symBinAddr: 0x7D70, symSize: 0xC }
  - { offset: 0x1B8D66, size: 0x8, addend: 0x0, symName: __ZNSt3__120__shared_ptr_emplaceIN10reanimated3css24ValueInterpolatorFactoryIJNS2_10CSSKeywordEEEENS_9allocatorIS5_EEE16__on_zero_sharedEv, symObjAddr: 0x1DF0, symBinAddr: 0x7D70, symSize: 0xC }
  - { offset: 0x1B8D92, size: 0x8, addend: 0x0, symName: __ZNSt3__120__shared_ptr_emplaceIN10reanimated3css24ValueInterpolatorFactoryIJNS2_10CSSKeywordEEEENS_9allocatorIS5_EEE21__on_zero_shared_weakEv, symObjAddr: 0x1DFC, symBinAddr: 0x7D7C, symSize: 0x4 }
  - { offset: 0x1B8DC6, size: 0x8, addend: 0x0, symName: __ZNSt3__120__shared_ptr_emplaceIN10reanimated3css24ValueInterpolatorFactoryIJNS2_10CSSKeywordEEEENS_9allocatorIS5_EEE21__on_zero_shared_weakEv, symObjAddr: 0x1DFC, symBinAddr: 0x7D7C, symSize: 0x4 }
  - { offset: 0x1B8DEA, size: 0x8, addend: 0x0, symName: __ZNSt3__120__shared_ptr_emplaceIN10reanimated3css24ValueInterpolatorFactoryIJNS2_10CSSKeywordEEEENS_9allocatorIS5_EEE21__on_zero_shared_weakEv, symObjAddr: 0x1DFC, symBinAddr: 0x7D7C, symSize: 0x4 }
  - { offset: 0x1B8E0F, size: 0x8, addend: 0x0, symName: __ZNSt3__120__shared_ptr_emplaceIN10reanimated3css24ValueInterpolatorFactoryIJNS2_10CSSKeywordEEEENS_9allocatorIS5_EEE21__on_zero_shared_weakEv, symObjAddr: 0x1DFC, symBinAddr: 0x7D7C, symSize: 0x4 }
  - { offset: 0x1B8E46, size: 0x8, addend: 0x0, symName: __ZNSt3__120__shared_ptr_emplaceIN10reanimated3css24ValueInterpolatorFactoryIJNS2_10CSSKeywordEEEENS_9allocatorIS5_EEE21__on_zero_shared_weakEv, symObjAddr: 0x1DFC, symBinAddr: 0x7D7C, symSize: 0x4 }
  - { offset: 0x1B8E8D, size: 0x8, addend: 0x0, symName: __ZN10reanimated3css24ValueInterpolatorFactoryIJNS0_10CSSKeywordEEED1Ev, symObjAddr: 0x1E00, symBinAddr: 0x7D80, symSize: 0x64 }
  - { offset: 0x1B9341, size: 0x8, addend: 0x0, symName: __ZN10reanimated3css24ValueInterpolatorFactoryIJNS0_10CSSKeywordEEED0Ev, symObjAddr: 0x1E64, symBinAddr: 0x7DE4, symSize: 0x5C }
  - { offset: 0x1B9802, size: 0x8, addend: 0x0, symName: __ZNK10reanimated3css24ValueInterpolatorFactoryIJNS0_10CSSKeywordEEE18isDiscretePropertyEv, symObjAddr: 0x1EC0, symBinAddr: 0x7E40, symSize: 0x8 }
  - { offset: 0x1B9829, size: 0x8, addend: 0x0, symName: __ZNK10reanimated3css24ValueInterpolatorFactoryIJNS0_10CSSKeywordEEE15getDefaultValueEv, symObjAddr: 0x1EC8, symBinAddr: 0x7E48, symSize: 0x8 }
  - { offset: 0x1B98F1, size: 0x8, addend: 0x0, symName: __ZNK10reanimated3css24ValueInterpolatorFactoryIJNS0_10CSSKeywordEEE6createERKNSt3__16vectorINS4_12basic_stringIcNS4_11char_traitsIcEENS4_9allocatorIcEEEENS9_ISB_EEEERKNS4_10shared_ptrINS0_20ViewStylesRepositoryEEE, symObjAddr: 0x1ED0, symBinAddr: 0x7E50, symSize: 0x44 }
  - { offset: 0x1B99D4, size: 0x8, addend: 0x0, symName: __ZN10reanimated3css15CSSValueVariantIJNS0_10CSSKeywordEEED0Ev, symObjAddr: 0x1F14, symBinAddr: 0x7E94, symSize: 0x4C }
  - { offset: 0x1BA306, size: 0x8, addend: 0x0, symName: __ZNSt3__116__variant_detail6__ctorINS0_8__traitsIJN10reanimated3css10CSSKeywordEEEEE19__generic_constructB8ne200100IRKNS0_18__copy_constructorIS6_LNS0_6_TraitE1EEEEEvRS7_OT_, symObjAddr: 0x1FEC, symBinAddr: 0x7F6C, symSize: 0xAC }
  - { offset: 0x1BA8D3, size: 0x8, addend: 0x0, symName: __ZNSt3__116__variant_detail18__copy_constructorINS0_8__traitsIJN10reanimated3css10CSSKeywordEEEELNS0_6_TraitE1EED2B8ne200100Ev, symObjAddr: 0x2098, symBinAddr: 0x8018, symSize: 0x54 }
  - { offset: 0x1BAEB6, size: 0x8, addend: 0x0, symName: __ZNSt3__112basic_stringIcNS_11char_traitsIcEENS_9allocatorIcEEE25__init_copy_ctor_externalEPKcm, symObjAddr: 0x20F4, symBinAddr: 0x806C, symSize: 0x80 }
  - { offset: 0x1BB0A6, size: 0x8, addend: 0x0, symName: __ZNSt3__126__throw_bad_variant_accessB8ne200100Ev, symObjAddr: 0x2174, symBinAddr: 0x80EC, symSize: 0x34 }
  - { offset: 0x1BB0B1, size: 0x8, addend: 0x0, symName: __ZN10reanimated3css14CSSKeywordBaseINS0_10CSSKeywordEED1Ev, symObjAddr: 0x20EC, symBinAddr: 0x12B880, symSize: 0x4 }
  - { offset: 0x1BB0DD, size: 0x8, addend: 0x0, symName: __ZN10reanimated3css14CSSKeywordBaseINS0_10CSSKeywordEED0Ev, symObjAddr: 0x20F0, symBinAddr: 0x12B884, symSize: 0x4 }
  - { offset: 0x1BB174, size: 0x8, addend: 0x0, symName: __ZNSt18bad_variant_accessD1Ev, symObjAddr: 0x21A8, symBinAddr: 0x8120, symSize: 0x4 }
  - { offset: 0x1BB1A3, size: 0x8, addend: 0x0, symName: __ZNSt18bad_variant_accessD1Ev, symObjAddr: 0x21A8, symBinAddr: 0x8120, symSize: 0x4 }
  - { offset: 0x1BB433, size: 0x8, addend: 0x0, symName: __ZNSt3__120__shared_ptr_emplaceIN10reanimated3css17ValueInterpolatorIJNS2_10CSSKeywordEEEENS_9allocatorIS5_EEEC2B8ne200100IJRKNS_6vectorINS_12basic_stringIcNS_11char_traitsIcEENS6_IcEEEENS6_ISF_EEEERKNS2_15CSSValueVariantIJS4_EEERKNS_10shared_ptrINS2_20ViewStylesRepositoryEEEES7_Li0EEES7_DpOT_, symObjAddr: 0x221C, symBinAddr: 0x8194, symSize: 0x4C }
  - { offset: 0x1BB6B6, size: 0x8, addend: 0x0, symName: __ZN10reanimated3css17ValueInterpolatorIJNS0_10CSSKeywordEEEC2ERKNSt3__16vectorINS4_12basic_stringIcNS4_11char_traitsIcEENS4_9allocatorIcEEEENS9_ISB_EEEERKNS0_15CSSValueVariantIJS2_EEERKNS4_10shared_ptrINS0_20ViewStylesRepositoryEEE, symObjAddr: 0x22B0, symBinAddr: 0x8228, symSize: 0xE8 }
  - { offset: 0x1BBB2D, size: 0x8, addend: 0x0, symName: __ZNSt3__120__shared_ptr_emplaceIN10reanimated3css17ValueInterpolatorIJNS2_10CSSKeywordEEEENS_9allocatorIS5_EEED1Ev, symObjAddr: 0x2268, symBinAddr: 0x81E0, symSize: 0x14 }
  - { offset: 0x1BBB51, size: 0x8, addend: 0x0, symName: __ZNSt3__120__shared_ptr_emplaceIN10reanimated3css17ValueInterpolatorIJNS2_10CSSKeywordEEEENS_9allocatorIS5_EEED1Ev, symObjAddr: 0x2268, symBinAddr: 0x81E0, symSize: 0x14 }
  - { offset: 0x1BBB88, size: 0x8, addend: 0x0, symName: __ZNSt3__120__shared_ptr_emplaceIN10reanimated3css17ValueInterpolatorIJNS2_10CSSKeywordEEEENS_9allocatorIS5_EEED0Ev, symObjAddr: 0x227C, symBinAddr: 0x81F4, symSize: 0x24 }
  - { offset: 0x1BBC5E, size: 0x8, addend: 0x0, symName: __ZNSt3__120__shared_ptr_emplaceIN10reanimated3css17ValueInterpolatorIJNS2_10CSSKeywordEEEENS_9allocatorIS5_EEE16__on_zero_sharedEv, symObjAddr: 0x22A0, symBinAddr: 0x8218, symSize: 0xC }
  - { offset: 0x1BBC88, size: 0x8, addend: 0x0, symName: __ZNSt3__120__shared_ptr_emplaceIN10reanimated3css17ValueInterpolatorIJNS2_10CSSKeywordEEEENS_9allocatorIS5_EEE16__on_zero_sharedEv, symObjAddr: 0x22A0, symBinAddr: 0x8218, symSize: 0xC }
  - { offset: 0x1BBCA7, size: 0x8, addend: 0x0, symName: __ZNSt3__120__shared_ptr_emplaceIN10reanimated3css17ValueInterpolatorIJNS2_10CSSKeywordEEEENS_9allocatorIS5_EEE16__on_zero_sharedEv, symObjAddr: 0x22A0, symBinAddr: 0x8218, symSize: 0xC }
  - { offset: 0x1BBCC6, size: 0x8, addend: 0x0, symName: __ZNSt3__120__shared_ptr_emplaceIN10reanimated3css17ValueInterpolatorIJNS2_10CSSKeywordEEEENS_9allocatorIS5_EEE16__on_zero_sharedEv, symObjAddr: 0x22A0, symBinAddr: 0x8218, symSize: 0xC }
  - { offset: 0x1BBCF2, size: 0x8, addend: 0x0, symName: __ZNSt3__120__shared_ptr_emplaceIN10reanimated3css17ValueInterpolatorIJNS2_10CSSKeywordEEEENS_9allocatorIS5_EEE21__on_zero_shared_weakEv, symObjAddr: 0x22AC, symBinAddr: 0x8224, symSize: 0x4 }
  - { offset: 0x1BBD26, size: 0x8, addend: 0x0, symName: __ZNSt3__120__shared_ptr_emplaceIN10reanimated3css17ValueInterpolatorIJNS2_10CSSKeywordEEEENS_9allocatorIS5_EEE21__on_zero_shared_weakEv, symObjAddr: 0x22AC, symBinAddr: 0x8224, symSize: 0x4 }
  - { offset: 0x1BBD4A, size: 0x8, addend: 0x0, symName: __ZNSt3__120__shared_ptr_emplaceIN10reanimated3css17ValueInterpolatorIJNS2_10CSSKeywordEEEENS_9allocatorIS5_EEE21__on_zero_shared_weakEv, symObjAddr: 0x22AC, symBinAddr: 0x8224, symSize: 0x4 }
  - { offset: 0x1BBD6F, size: 0x8, addend: 0x0, symName: __ZNSt3__120__shared_ptr_emplaceIN10reanimated3css17ValueInterpolatorIJNS2_10CSSKeywordEEEENS_9allocatorIS5_EEE21__on_zero_shared_weakEv, symObjAddr: 0x22AC, symBinAddr: 0x8224, symSize: 0x4 }
  - { offset: 0x1BBDA7, size: 0x8, addend: 0x0, symName: __ZNSt3__120__shared_ptr_emplaceIN10reanimated3css17ValueInterpolatorIJNS2_10CSSKeywordEEEENS_9allocatorIS5_EEE21__on_zero_shared_weakEv, symObjAddr: 0x22AC, symBinAddr: 0x8224, symSize: 0x4 }
  - { offset: 0x1BBFBA, size: 0x8, addend: 0x0, symName: __ZNSt3__16vectorINS_12basic_stringIcNS_11char_traitsIcEENS_9allocatorIcEEEENS4_IS6_EEE16__init_with_sizeB8ne200100IPS6_SA_EEvT_T0_m, symObjAddr: 0x31D8, symBinAddr: 0x9150, symSize: 0x84 }
  - { offset: 0x1BC242, size: 0x8, addend: 0x0, symName: __ZNSt3__16vectorINS_12basic_stringIcNS_11char_traitsIcEENS_9allocatorIcEEEENS4_IS6_EEE16__destroy_vectorclB8ne200100Ev, symObjAddr: 0x3430, symBinAddr: 0x9394, symSize: 0x40 }
  - { offset: 0x1BC2F8, size: 0x8, addend: 0x0, symName: __ZN10reanimated3css20PropertyInterpolatorD2Ev, symObjAddr: 0x2398, symBinAddr: 0x8310, symSize: 0x50 }
  - { offset: 0x1BC48E, size: 0x8, addend: 0x0, symName: __ZNK10reanimated3css17ValueInterpolatorIJNS0_10CSSKeywordEEE13getStyleValueERKNSt3__110shared_ptrIKN8facebook5react10ShadowNodeEEE, symObjAddr: 0x23E8, symBinAddr: 0x8360, symSize: 0x44 }
  - { offset: 0x1BC5BE, size: 0x8, addend: 0x0, symName: __ZNK10reanimated3css17ValueInterpolatorIJNS0_10CSSKeywordEEE13getResetStyleERKNSt3__110shared_ptrIKN8facebook5react10ShadowNodeEEE, symObjAddr: 0x242C, symBinAddr: 0x83A4, symSize: 0xC8 }
  - { offset: 0x1BCA0B, size: 0x8, addend: 0x0, symName: __ZNK10reanimated3css17ValueInterpolatorIJNS0_10CSSKeywordEEE21getFirstKeyframeValueEv, symObjAddr: 0x24F4, symBinAddr: 0x846C, symSize: 0x40 }
  - { offset: 0x1BCA35, size: 0x8, addend: 0x0, symName: __ZNK10reanimated3css17ValueInterpolatorIJNS0_10CSSKeywordEEE21getFirstKeyframeValueEv, symObjAddr: 0x24F4, symBinAddr: 0x846C, symSize: 0x40 }
  - { offset: 0x1BCD21, size: 0x8, addend: 0x0, symName: __ZNK10reanimated3css17ValueInterpolatorIJNS0_10CSSKeywordEEE20getLastKeyframeValueEv, symObjAddr: 0x2534, symBinAddr: 0x84AC, symSize: 0x40 }
  - { offset: 0x1BCD42, size: 0x8, addend: 0x0, symName: __ZNK10reanimated3css17ValueInterpolatorIJNS0_10CSSKeywordEEE20getLastKeyframeValueEv, symObjAddr: 0x2534, symBinAddr: 0x84AC, symSize: 0x40 }
  - { offset: 0x1BCD6C, size: 0x8, addend: 0x0, symName: __ZNK10reanimated3css17ValueInterpolatorIJNS0_10CSSKeywordEEE20getLastKeyframeValueEv, symObjAddr: 0x2534, symBinAddr: 0x84AC, symSize: 0x40 }
  - { offset: 0x1BD05E, size: 0x8, addend: 0x0, symName: __ZNK10reanimated3css17ValueInterpolatorIJNS0_10CSSKeywordEEE33equalsReversingAdjustedStartValueERKN5folly7dynamicE, symObjAddr: 0x2574, symBinAddr: 0x84EC, symSize: 0xDC }
  - { offset: 0x1BD0C9, size: 0x8, addend: 0x0, symName: __ZNK10reanimated3css17ValueInterpolatorIJNS0_10CSSKeywordEEE33equalsReversingAdjustedStartValueERKN5folly7dynamicE, symObjAddr: 0x2574, symBinAddr: 0x84EC, symSize: 0xDC }
  - { offset: 0x1BDA13, size: 0x8, addend: 0x0, symName: __ZN10reanimated3css15CSSValueVariantIJNS0_10CSSKeywordEEEC2ERKN5folly7dynamicE, symObjAddr: 0x3570, symBinAddr: 0x947C, symSize: 0x138 }
  - { offset: 0x1BE574, size: 0x8, addend: 0x0, symName: __ZN10reanimated3css17ValueInterpolatorIJNS0_10CSSKeywordEEE15updateKeyframesERN8facebook3jsi7RuntimeERKNS5_5ValueE, symObjAddr: 0x2650, symBinAddr: 0x85C8, symSize: 0x284 }
  - { offset: 0x1C0ABD, size: 0x8, addend: 0x0, symName: __ZNSt3__124__optional_destruct_baseIN10reanimated3css15CSSValueVariantIJNS2_10CSSKeywordEEEELb0EED2B8ne200100Ev, symObjAddr: 0x3D98, symBinAddr: 0x9C3C, symSize: 0x60 }
  - { offset: 0x1C0F31, size: 0x8, addend: 0x0, symName: __ZNSt3__16vectorIN10reanimated3css13ValueKeyframeIJNS2_10CSSKeywordEEEENS_9allocatorIS5_EEE7reserveEm, symObjAddr: 0x38E0, symBinAddr: 0x9798, symSize: 0xB8 }
  - { offset: 0x1C1176, size: 0x8, addend: 0x0, symName: __ZN10reanimated3css15CSSValueVariantIJNS0_10CSSKeywordEEEC2ERN8facebook3jsi7RuntimeERKNS5_5ValueE, symObjAddr: 0x3DF8, symBinAddr: 0x9C9C, symSize: 0x144 }
  - { offset: 0x1C16EC, size: 0x8, addend: 0x0, symName: __ZNSt3__116__variant_detail18__move_constructorINS0_8__traitsIJN10reanimated3css10CSSKeywordEEEELNS0_6_TraitE1EEC2B8ne200100EOS8_, symObjAddr: 0x3AD4, symBinAddr: 0x9978, symSize: 0x34 }
  - { offset: 0x1C1801, size: 0x8, addend: 0x0, symName: __ZNSt3__16vectorIN10reanimated3css13ValueKeyframeIJNS2_10CSSKeywordEEEENS_9allocatorIS5_EEE9push_backB8ne200100EOS5_, symObjAddr: 0x3998, symBinAddr: 0x9850, symSize: 0x3C }
  - { offset: 0x1C1888, size: 0x8, addend: 0x0, symName: __ZNSt3__16vectorINS_4pairIdN8facebook3jsi5ValueEEENS_9allocatorIS5_EEE16__destroy_vectorclB8ne200100Ev, symObjAddr: 0x3FDC, symBinAddr: 0x9E80, symSize: 0x74 }
  - { offset: 0x1C1DDE, size: 0x8, addend: 0x0, symName: __ZN10reanimated3css17ValueInterpolatorIJNS0_10CSSKeywordEEE30updateKeyframesFromStyleChangeERKN5folly7dynamicES7_S7_, symObjAddr: 0x28D4, symBinAddr: 0x884C, symSize: 0x56C }
  - { offset: 0x1C665D, size: 0x8, addend: 0x0, symName: __ZNSt3__18optionalIN10reanimated3css15CSSValueVariantIJNS2_10CSSKeywordEEEEEaSB8ne200100IS5_vEERS6_OT_, symObjAddr: 0x4050, symBinAddr: 0x9EF4, symSize: 0x64 }
  - { offset: 0x1C68CE, size: 0x8, addend: 0x0, symName: __ZNSt3__124__optional_destruct_baseIN10reanimated3css15CSSValueVariantIJNS2_10CSSKeywordEEEELb0EE5resetB8ne200100Ev, symObjAddr: 0x40B4, symBinAddr: 0x9F58, symSize: 0x60 }
  - { offset: 0x1C6D46, size: 0x8, addend: 0x0, symName: __ZNSt3__123__optional_storage_baseIN10reanimated3css15CSSValueVariantIJNS2_10CSSKeywordEEEELb0EE13__assign_fromB8ne200100INS_27__optional_move_assign_baseIS5_Lb0EEEEEvOT_, symObjAddr: 0x4194, symBinAddr: 0xA038, symSize: 0x7C }
  - { offset: 0x1C6FC3, size: 0x8, addend: 0x0, symName: __ZNSt3__120__optional_copy_baseIN10reanimated3css15CSSValueVariantIJNS2_10CSSKeywordEEEELb0EEC2B8ne200100ERKS6_, symObjAddr: 0x4210, symBinAddr: 0xA0B4, symSize: 0x6C }
  - { offset: 0x1C726E, size: 0x8, addend: 0x0, symName: __ZNSt3__16vectorIN10reanimated3css13ValueKeyframeIJNS2_10CSSKeywordEEEENS_9allocatorIS5_EEE18__assign_with_sizeB8ne200100IPKS5_SB_EEvT_T0_l, symObjAddr: 0x427C, symBinAddr: 0xA120, symSize: 0x188 }
  - { offset: 0x1C7B14, size: 0x8, addend: 0x0, symName: __ZNK10reanimated3css17ValueInterpolatorIJNS0_10CSSKeywordEEE11interpolateERKNSt3__110shared_ptrIKN8facebook5react10ShadowNodeEEERKNS5_INS0_24KeyframeProgressProviderEEE, symObjAddr: 0x2E40, symBinAddr: 0x8DB8, symSize: 0x374 }
  - { offset: 0x1CA2E7, size: 0x8, addend: 0x0, symName: __ZNK10reanimated3css17ValueInterpolatorIJNS0_10CSSKeywordEEE18getToKeyframeIndexERKNSt3__110shared_ptrINS0_24KeyframeProgressProviderEEE, symObjAddr: 0x4728, symBinAddr: 0xA5CC, symSize: 0x88 }
  - { offset: 0x1CA5EF, size: 0x8, addend: 0x0, symName: __ZNK10reanimated3css17ValueInterpolatorIJNS0_10CSSKeywordEEE16getFallbackValueERKNSt3__110shared_ptrIKN8facebook5react10ShadowNodeEEE, symObjAddr: 0x47B0, symBinAddr: 0xA654, symSize: 0xBC }
  - { offset: 0x1CA8D4, size: 0x8, addend: 0x0, symName: __ZN10reanimated3css17ValueInterpolatorIJNS0_10CSSKeywordEEED1Ev, symObjAddr: 0x31B4, symBinAddr: 0x912C, symSize: 0x4 }
  - { offset: 0x1CA8F8, size: 0x8, addend: 0x0, symName: __ZN10reanimated3css17ValueInterpolatorIJNS0_10CSSKeywordEEED1Ev, symObjAddr: 0x31B4, symBinAddr: 0x912C, symSize: 0x4 }
  - { offset: 0x1CA90C, size: 0x8, addend: 0x0, symName: __ZN10reanimated3css17ValueInterpolatorIJNS0_10CSSKeywordEEED2Ev, symObjAddr: 0x486C, symBinAddr: 0xA710, symSize: 0xA8 }
  - { offset: 0x1CAFEA, size: 0x8, addend: 0x0, symName: __ZN10reanimated3css17ValueInterpolatorIJNS0_10CSSKeywordEEED0Ev, symObjAddr: 0x31B8, symBinAddr: 0x9130, symSize: 0x14 }
  - { offset: 0x1CB049, size: 0x8, addend: 0x0, symName: __ZNK10reanimated3css17ValueInterpolatorIJNS0_10CSSKeywordEEE16interpolateValueEdRKNS0_15CSSValueVariantIJS2_EEES7_RKNS0_30ValueInterpolatorUpdateContextE, symObjAddr: 0x31CC, symBinAddr: 0x9144, symSize: 0xC }
  - { offset: 0x1CB29F, size: 0x8, addend: 0x0, symName: __ZNSt3__16vectorINS_12basic_stringIcNS_11char_traitsIcEENS_9allocatorIcEEEENS4_IS6_EEE11__vallocateB8ne200100Em, symObjAddr: 0x325C, symBinAddr: 0x91D4, symSize: 0x48 }
  - { offset: 0x1CB30E, size: 0x8, addend: 0x0, symName: __ZNSt3__119__allocate_at_leastB8ne200100INS_9allocatorINS_12basic_stringIcNS_11char_traitsIcEENS1_IcEEEEEEEENS_19__allocation_resultINS_16allocator_traitsIT_E7pointerEEERSA_m, symObjAddr: 0x32B8, symBinAddr: 0x921C, symSize: 0x44 }
  - { offset: 0x1CB40E, size: 0x8, addend: 0x0, symName: __ZNSt3__128__exception_guard_exceptionsINS_29_AllocatorDestroyRangeReverseINS_9allocatorINS_12basic_stringIcNS_11char_traitsIcEENS2_IcEEEEEEPS7_EEED2B8ne200100Ev, symObjAddr: 0x33B8, symBinAddr: 0x931C, symSize: 0x34 }
  - { offset: 0x1CB44F, size: 0x8, addend: 0x0, symName: __ZNKSt3__129_AllocatorDestroyRangeReverseINS_9allocatorINS_12basic_stringIcNS_11char_traitsIcEENS1_IcEEEEEEPS6_EclB8ne200100Ev, symObjAddr: 0x33EC, symBinAddr: 0x9350, symSize: 0x44 }
  - { offset: 0x1CB6F6, size: 0x8, addend: 0x0, symName: __ZNSt3__16vectorINS_12basic_stringIcNS_11char_traitsIcEENS_9allocatorIcEEEENS4_IS6_EEE5clearB8ne200100Ev, symObjAddr: 0x3470, symBinAddr: 0x93D4, symSize: 0x4C }
  - { offset: 0x1CBB6F, size: 0x8, addend: 0x0, symName: __ZNSt3__116__variant_detail12__visitation6__base12__dispatcherIJLm0ELm0EEE10__dispatchB8ne200100IONS1_9__variant15__value_visitorIZNK10reanimated3css15CSSValueVariantIJNS9_10CSSKeywordEEEeqERKSC_EUlRKT_RKT0_E_EEJRKNS0_6__baseILNS0_6_TraitE1EJSB_EEESS_EEEDcSF_DpT0_, symObjAddr: 0x3564, symBinAddr: 0x9470, symSize: 0xC }
  - { offset: 0x1CBF6B, size: 0x8, addend: 0x0, symName: __ZN10reanimated3css15CSSValueVariantIJNS0_10CSSKeywordEEE12tryConstructERKN5folly7dynamicE, symObjAddr: 0x36A8, symBinAddr: 0x95B4, symSize: 0x94 }
  - { offset: 0x1CC53A, size: 0x8, addend: 0x0, symName: __ZNSt3__116__variant_detail12__assignmentINS0_8__traitsIJN10reanimated3css10CSSKeywordEEEEE12__assign_altB8ne200100ILm0ES5_S5_EEvRNS0_5__altIXT_ET0_EEOT1_, symObjAddr: 0x37EC, symBinAddr: 0x96A4, symSize: 0x60 }
  - { offset: 0x1CC93B, size: 0x8, addend: 0x0, symName: __ZNSt3__116__variant_detail12__assignmentINS0_8__traitsIJN10reanimated3css10CSSKeywordEEEEE9__emplaceB8ne200100ILm0EJS5_EEERDaDpOT0_, symObjAddr: 0x384C, symBinAddr: 0x9704, symSize: 0x94 }
  - { offset: 0x1CD019, size: 0x8, addend: 0x0, symName: __ZNSt3__114__split_bufferIN10reanimated3css13ValueKeyframeIJNS2_10CSSKeywordEEEERNS_9allocatorIS5_EEED2Ev, symObjAddr: 0x3BA4, symBinAddr: 0x9A48, symSize: 0x50 }
  - { offset: 0x1CD27E, size: 0x8, addend: 0x0, symName: __ZNSt3__119__allocate_at_leastB8ne200100INS_9allocatorIN10reanimated3css13ValueKeyframeIJNS3_10CSSKeywordEEEEEEEENS_19__allocation_resultINS_16allocator_traitsIT_E7pointerEEERSA_m, symObjAddr: 0x39E8, symBinAddr: 0x988C, symSize: 0x34 }
  - { offset: 0x1CD2C6, size: 0x8, addend: 0x0, symName: __ZNSt3__16vectorIN10reanimated3css13ValueKeyframeIJNS2_10CSSKeywordEEEENS_9allocatorIS5_EEE22__construct_one_at_endB8ne200100IJS5_EEEvDpOT_, symObjAddr: 0x3BF4, symBinAddr: 0x9A98, symSize: 0x68 }
  - { offset: 0x1CD794, size: 0x8, addend: 0x0, symName: __ZNSt3__16vectorIN10reanimated3css13ValueKeyframeIJNS2_10CSSKeywordEEEENS_9allocatorIS5_EEE24__emplace_back_slow_pathIJS5_EEEPS5_DpOT_, symObjAddr: 0x3C5C, symBinAddr: 0x9B00, symSize: 0x13C }
  - { offset: 0x1CDFEA, size: 0x8, addend: 0x0, symName: __ZNSt3__116__variant_detail6__ctorINS0_8__traitsIJN10reanimated3css10CSSKeywordEEEEE19__generic_constructB8ne200100INS0_18__move_constructorIS6_LNS0_6_TraitE1EEEEEvRS7_OT_, symObjAddr: 0x3B08, symBinAddr: 0x99AC, symSize: 0x9C }
  - { offset: 0x1CE87A, size: 0x8, addend: 0x0, symName: __ZN10reanimated3css15CSSValueVariantIJNS0_10CSSKeywordEEE12tryConstructERN8facebook3jsi7RuntimeERKNS5_5ValueE, symObjAddr: 0x3F3C, symBinAddr: 0x9DE0, symSize: 0xA0 }
  - { offset: 0x1CEDAF, size: 0x8, addend: 0x0, symName: __ZNSt3__116__variant_detail12__assignmentINS0_8__traitsIJN10reanimated3css10CSSKeywordEEEEE16__generic_assignB8ne200100INS0_17__move_assignmentIS6_LNS0_6_TraitE1EEEEEvOT_, symObjAddr: 0x4114, symBinAddr: 0x9FB8, symSize: 0x80 }
  - { offset: 0x1CF511, size: 0x8, addend: 0x0, symName: __ZNSt3__16vectorIN10reanimated3css13ValueKeyframeIJNS2_10CSSKeywordEEEENS_9allocatorIS5_EEE13__vdeallocateEv, symObjAddr: 0x4404, symBinAddr: 0xA2A8, symSize: 0x68 }
  - { offset: 0x1CF7AC, size: 0x8, addend: 0x0, symName: __ZNSt3__16vectorIN10reanimated3css13ValueKeyframeIJNS2_10CSSKeywordEEEENS_9allocatorIS5_EEE11__vallocateB8ne200100Em, symObjAddr: 0x446C, symBinAddr: 0xA310, symSize: 0x38 }
  - { offset: 0x1CF806, size: 0x8, addend: 0x0, symName: __ZNSt3__135__uninitialized_allocator_copy_implB8ne200100INS_9allocatorIN10reanimated3css13ValueKeyframeIJNS3_10CSSKeywordEEEEEEPKS6_S9_PS6_EET2_RT_T0_T1_SB_, symObjAddr: 0x44A4, symBinAddr: 0xA348, symSize: 0x98 }
  - { offset: 0x1CF811, size: 0x8, addend: 0x0, symName: __ZNSt3__123__optional_storage_baseIN10reanimated3css15CSSValueVariantIJNS2_10CSSKeywordEEEELb0EE13__assign_fromB8ne200100IRKNS_27__optional_copy_assign_baseIS5_Lb0EEEEEvOT_, symObjAddr: 0x453C, symBinAddr: 0xA3E0, symSize: 0x7C }
  - { offset: 0x1CFBA4, size: 0x8, addend: 0x0, symName: __ZNSt3__116__variant_detail12__assignmentINS0_8__traitsIJN10reanimated3css10CSSKeywordEEEEE16__generic_assignB8ne200100IRKNS0_17__copy_assignmentIS6_LNS0_6_TraitE1EEEEEvOT_, symObjAddr: 0x45B8, symBinAddr: 0xA45C, symSize: 0x80 }
  - { offset: 0x1D00EE, size: 0x8, addend: 0x0, symName: __ZNSt3__116__variant_detail12__assignmentINS0_8__traitsIJN10reanimated3css10CSSKeywordEEEEE12__assign_altB8ne200100ILm0ES5_RKS5_EEvRNS0_5__altIXT_ET0_EEOT1_, symObjAddr: 0x4638, symBinAddr: 0xA4DC, symSize: 0x38 }
  - { offset: 0x1D013A, size: 0x8, addend: 0x0, symName: __ZNSt3__116__variant_detail12__assignmentINS0_8__traitsIJN10reanimated3css10CSSKeywordEEEEE12__assign_altB8ne200100ILm0ES5_RKS5_EEvRNS0_5__altIXT_ET0_EEOT1_, symObjAddr: 0x4638, symBinAddr: 0xA4DC, symSize: 0x38 }
  - { offset: 0x1D028E, size: 0x8, addend: 0x0, symName: __ZZNSt3__116__variant_detail12__assignmentINS0_8__traitsIJN10reanimated3css10CSSKeywordEEEEE12__assign_altB8ne200100ILm0ES5_RKS5_EEvRNS0_5__altIXT_ET0_EEOT1_ENKUt_clENS_17integral_constantIbLb0EEE, symObjAddr: 0x4670, symBinAddr: 0xA514, symSize: 0xB8 }
  - { offset: 0x1D07DC, size: 0x8, addend: 0x0, symName: __ZNSt3__16vectorIN10reanimated3css13ValueKeyframeIJNS2_10CSSKeywordEEEENS_9allocatorIS5_EEE16__destroy_vectorclB8ne200100Ev, symObjAddr: 0x4914, symBinAddr: 0xA7B8, symSize: 0x74 }
  - { offset: 0x1D0C76, size: 0x8, addend: 0x0, symName: __ZNSt3__116__variant_detail12__visitation6__base12__dispatcherIJLm0ELm0EEE10__dispatchB8ne200100IONS1_9__variant15__value_visitorIZNK10reanimated3css15CSSValueVariantIJNS9_10CSSKeywordEEE11interpolateEdRKSC_EUlRKT_RKT0_E_EEJRKNS0_6__baseILNS0_6_TraitE1EJSB_EEESS_EEEDcSF_DpT0_, symObjAddr: 0x4A58, symBinAddr: 0xA8FC, symSize: 0x4 }
  - { offset: 0x1D0CBB, size: 0x8, addend: 0x0, symName: __ZNSt3__116__variant_detail12__visitation6__base12__dispatcherIJLm0ELm0EEE10__dispatchB8ne200100IONS1_9__variant15__value_visitorIZNK10reanimated3css15CSSValueVariantIJNS9_10CSSKeywordEEE11interpolateEdRKSC_EUlRKT_RKT0_E_EEJRKNS0_6__baseILNS0_6_TraitE1EJSB_EEESS_EEEDcSF_DpT0_, symObjAddr: 0x4A58, symBinAddr: 0xA8FC, symSize: 0x4 }
  - { offset: 0x1D0CEA, size: 0x8, addend: 0x0, symName: __ZNSt3__116__variant_detail12__visitation6__base12__dispatcherIJLm0ELm0EEE10__dispatchB8ne200100IONS1_9__variant15__value_visitorIZNK10reanimated3css15CSSValueVariantIJNS9_10CSSKeywordEEE11interpolateEdRKSC_EUlRKT_RKT0_E_EEJRKNS0_6__baseILNS0_6_TraitE1EJSB_EEESS_EEEDcSF_DpT0_, symObjAddr: 0x4A58, symBinAddr: 0xA8FC, symSize: 0x4 }
  - { offset: 0x1D0D3D, size: 0x8, addend: 0x0, symName: __ZNKSt3__116__variant_detail12__visitation9__variant15__value_visitorIZNK10reanimated3css15CSSValueVariantIJNS5_10CSSKeywordEEE11interpolateEdRKS8_EUlRKT_RKT0_E_EclB8ne200100IJRKNS0_5__altILm0ES7_EESN_EEEDcDpOT_, symObjAddr: 0x4A5C, symBinAddr: 0xA900, symSize: 0x74 }
  - { offset: 0x1D104B, size: 0x8, addend: 0x0, symName: __ZN10reanimated3css15CSSValueVariantIJNS0_10CSSKeywordEEEC2IS2_EEOT_, symObjAddr: 0x4AD0, symBinAddr: 0xA974, symSize: 0x5C }
  - { offset: 0x1D13BB, size: 0x8, addend: 0x0, symName: __ZZN10reanimated3css15CSSValueVariantIJNS0_10CSSKeywordEEE12tryConstructIRA11_KcEEbOT_ENKUlTyvE_clIS2_EEbv, symObjAddr: 0x4BF4, symBinAddr: 0xAA98, symSize: 0x108 }
  - { offset: 0x1D185D, size: 0x8, addend: 0x0, symName: __ZZN10reanimated3css15CSSValueVariantIJNS0_10CSSKeywordEEE12tryConstructIRA8_KcEEbOT_ENKUlTyvE_clIS2_EEbv, symObjAddr: 0x4E1C, symBinAddr: 0xAC68, symSize: 0x108 }
  - { offset: 0x1D1C65, size: 0x8, addend: 0x0, symName: __ZZN10reanimated3css15CSSValueVariantIJNS0_10CSSKeywordEEE12tryConstructIRA5_KcEEbOT_ENKUlTyvE_clIS2_EEbv, symObjAddr: 0x4FEC, symBinAddr: 0xAE38, symSize: 0x108 }
  - { offset: 0x1D1FE6, size: 0x8, addend: 0x0, symName: __ZN10reanimated3css15CSSValueVariantIJNS0_9CSSDoubleENS0_10CSSKeywordEEED1Ev, symObjAddr: 0x50F4, symBinAddr: 0xAF40, symSize: 0x28 }
  - { offset: 0x1D2382, size: 0x8, addend: 0x0, symName: __ZNSt3__120__shared_ptr_emplaceIN10reanimated3css24ValueInterpolatorFactoryIJNS2_9CSSDoubleENS2_10CSSKeywordEEEENS_9allocatorIS6_EEEC2B8ne200100IJNS2_15CSSValueVariantIJS4_S5_EEEES8_Li0EEES8_DpOT_, symObjAddr: 0x5174, symBinAddr: 0xAFC0, symSize: 0x70 }
  - { offset: 0x1D27EC, size: 0x8, addend: 0x0, symName: __ZNSt3__116__variant_detail18__copy_constructorINS0_8__traitsIJN10reanimated3css9CSSDoubleENS4_10CSSKeywordEEEELNS0_6_TraitE1EEC2B8ne200100ERKS9_, symObjAddr: 0x53A8, symBinAddr: 0xB1F4, symSize: 0x44 }
  - { offset: 0x1D29CE, size: 0x8, addend: 0x0, symName: __ZNSt3__120__shared_ptr_emplaceIN10reanimated3css24ValueInterpolatorFactoryIJNS2_9CSSDoubleENS2_10CSSKeywordEEEENS_9allocatorIS6_EEED1Ev, symObjAddr: 0x51E4, symBinAddr: 0xB030, symSize: 0x14 }
  - { offset: 0x1D29F2, size: 0x8, addend: 0x0, symName: __ZNSt3__120__shared_ptr_emplaceIN10reanimated3css24ValueInterpolatorFactoryIJNS2_9CSSDoubleENS2_10CSSKeywordEEEENS_9allocatorIS6_EEED1Ev, symObjAddr: 0x51E4, symBinAddr: 0xB030, symSize: 0x14 }
  - { offset: 0x1D2A29, size: 0x8, addend: 0x0, symName: __ZNSt3__120__shared_ptr_emplaceIN10reanimated3css24ValueInterpolatorFactoryIJNS2_9CSSDoubleENS2_10CSSKeywordEEEENS_9allocatorIS6_EEED0Ev, symObjAddr: 0x51F8, symBinAddr: 0xB044, symSize: 0x24 }
  - { offset: 0x1D2AFF, size: 0x8, addend: 0x0, symName: __ZNSt3__120__shared_ptr_emplaceIN10reanimated3css24ValueInterpolatorFactoryIJNS2_9CSSDoubleENS2_10CSSKeywordEEEENS_9allocatorIS6_EEE16__on_zero_sharedEv, symObjAddr: 0x521C, symBinAddr: 0xB068, symSize: 0xC }
  - { offset: 0x1D2B29, size: 0x8, addend: 0x0, symName: __ZNSt3__120__shared_ptr_emplaceIN10reanimated3css24ValueInterpolatorFactoryIJNS2_9CSSDoubleENS2_10CSSKeywordEEEENS_9allocatorIS6_EEE16__on_zero_sharedEv, symObjAddr: 0x521C, symBinAddr: 0xB068, symSize: 0xC }
  - { offset: 0x1D2B48, size: 0x8, addend: 0x0, symName: __ZNSt3__120__shared_ptr_emplaceIN10reanimated3css24ValueInterpolatorFactoryIJNS2_9CSSDoubleENS2_10CSSKeywordEEEENS_9allocatorIS6_EEE16__on_zero_sharedEv, symObjAddr: 0x521C, symBinAddr: 0xB068, symSize: 0xC }
  - { offset: 0x1D2B67, size: 0x8, addend: 0x0, symName: __ZNSt3__120__shared_ptr_emplaceIN10reanimated3css24ValueInterpolatorFactoryIJNS2_9CSSDoubleENS2_10CSSKeywordEEEENS_9allocatorIS6_EEE16__on_zero_sharedEv, symObjAddr: 0x521C, symBinAddr: 0xB068, symSize: 0xC }
  - { offset: 0x1D2B93, size: 0x8, addend: 0x0, symName: __ZNSt3__120__shared_ptr_emplaceIN10reanimated3css24ValueInterpolatorFactoryIJNS2_9CSSDoubleENS2_10CSSKeywordEEEENS_9allocatorIS6_EEE21__on_zero_shared_weakEv, symObjAddr: 0x5228, symBinAddr: 0xB074, symSize: 0x4 }
  - { offset: 0x1D2BC7, size: 0x8, addend: 0x0, symName: __ZNSt3__120__shared_ptr_emplaceIN10reanimated3css24ValueInterpolatorFactoryIJNS2_9CSSDoubleENS2_10CSSKeywordEEEENS_9allocatorIS6_EEE21__on_zero_shared_weakEv, symObjAddr: 0x5228, symBinAddr: 0xB074, symSize: 0x4 }
  - { offset: 0x1D2BEB, size: 0x8, addend: 0x0, symName: __ZNSt3__120__shared_ptr_emplaceIN10reanimated3css24ValueInterpolatorFactoryIJNS2_9CSSDoubleENS2_10CSSKeywordEEEENS_9allocatorIS6_EEE21__on_zero_shared_weakEv, symObjAddr: 0x5228, symBinAddr: 0xB074, symSize: 0x4 }
  - { offset: 0x1D2C10, size: 0x8, addend: 0x0, symName: __ZNSt3__120__shared_ptr_emplaceIN10reanimated3css24ValueInterpolatorFactoryIJNS2_9CSSDoubleENS2_10CSSKeywordEEEENS_9allocatorIS6_EEE21__on_zero_shared_weakEv, symObjAddr: 0x5228, symBinAddr: 0xB074, symSize: 0x4 }
  - { offset: 0x1D2C47, size: 0x8, addend: 0x0, symName: __ZNSt3__120__shared_ptr_emplaceIN10reanimated3css24ValueInterpolatorFactoryIJNS2_9CSSDoubleENS2_10CSSKeywordEEEENS_9allocatorIS6_EEE21__on_zero_shared_weakEv, symObjAddr: 0x5228, symBinAddr: 0xB074, symSize: 0x4 }
  - { offset: 0x1D2C8E, size: 0x8, addend: 0x0, symName: __ZN10reanimated3css24ValueInterpolatorFactoryIJNS0_9CSSDoubleENS0_10CSSKeywordEEED1Ev, symObjAddr: 0x522C, symBinAddr: 0xB078, symSize: 0x34 }
  - { offset: 0x1D2E92, size: 0x8, addend: 0x0, symName: __ZN10reanimated3css24ValueInterpolatorFactoryIJNS0_9CSSDoubleENS0_10CSSKeywordEEED0Ev, symObjAddr: 0x5260, symBinAddr: 0xB0AC, symSize: 0x34 }
  - { offset: 0x1D30A3, size: 0x8, addend: 0x0, symName: __ZNK10reanimated3css24ValueInterpolatorFactoryIJNS0_9CSSDoubleENS0_10CSSKeywordEEE18isDiscretePropertyEv, symObjAddr: 0x5294, symBinAddr: 0xB0E0, symSize: 0x8 }
  - { offset: 0x1D30CA, size: 0x8, addend: 0x0, symName: __ZNK10reanimated3css24ValueInterpolatorFactoryIJNS0_9CSSDoubleENS0_10CSSKeywordEEE15getDefaultValueEv, symObjAddr: 0x529C, symBinAddr: 0xB0E8, symSize: 0x8 }
  - { offset: 0x1D318D, size: 0x8, addend: 0x0, symName: __ZNK10reanimated3css24ValueInterpolatorFactoryIJNS0_9CSSDoubleENS0_10CSSKeywordEEE6createERKNSt3__16vectorINS5_12basic_stringIcNS5_11char_traitsIcEENS5_9allocatorIcEEEENSA_ISC_EEEERKNS5_10shared_ptrINS0_20ViewStylesRepositoryEEE, symObjAddr: 0x52A4, symBinAddr: 0xB0F0, symSize: 0x44 }
  - { offset: 0x1D3270, size: 0x8, addend: 0x0, symName: __ZN10reanimated3css15CSSValueVariantIJNS0_9CSSDoubleENS0_10CSSKeywordEEED0Ev, symObjAddr: 0x52E8, symBinAddr: 0xB134, symSize: 0x28 }
  - { offset: 0x1D3825, size: 0x8, addend: 0x0, symName: __ZNSt3__116__variant_detail6__ctorINS0_8__traitsIJN10reanimated3css9CSSDoubleENS4_10CSSKeywordEEEEE19__generic_constructB8ne200100IRKNS0_18__copy_constructorIS7_LNS0_6_TraitE1EEEEEvRS8_OT_, symObjAddr: 0x53EC, symBinAddr: 0xB238, symSize: 0x60 }
  - { offset: 0x1D3B4E, size: 0x8, addend: 0x0, symName: __ZNSt3__116__variant_detail12__visitation6__base12__dispatcherIJLm0EEE10__dispatchB8ne200100IOZNS0_6__dtorINS0_8__traitsIJN10reanimated3css9CSSDoubleENS9_10CSSKeywordEEEELNS0_6_TraitE1EE9__destroyB8ne200100EvEUlRT_E_JRNS0_6__baseILSD_1EJSA_SB_EEEEEEDcSF_DpT0_, symObjAddr: 0x54A0, symBinAddr: 0xB2EC, symSize: 0x4 }
  - { offset: 0x1D3C22, size: 0x8, addend: 0x0, symName: __ZNSt3__116__variant_detail12__visitation6__base12__dispatcherIJLm1EEE10__dispatchB8ne200100IOZNS0_6__dtorINS0_8__traitsIJN10reanimated3css9CSSDoubleENS9_10CSSKeywordEEEELNS0_6_TraitE1EE9__destroyB8ne200100EvEUlRT_E_JRNS0_6__baseILSD_1EJSA_SB_EEEEEEDcSF_DpT0_, symObjAddr: 0x54A4, symBinAddr: 0xB2F0, symSize: 0x24 }
  - { offset: 0x1D3E27, size: 0x8, addend: 0x0, symName: __ZN10reanimated3css9CSSDoubleD1Ev, symObjAddr: 0x54C8, symBinAddr: 0xB314, symSize: 0x4 }
  - { offset: 0x1D3F0D, size: 0x8, addend: 0x0, symName: __ZNSt3__116__variant_detail12__visitation6__base12__dispatcherIJLm0EEE10__dispatchB8ne200100IOZNS0_6__ctorINS0_8__traitsIJN10reanimated3css9CSSDoubleENS9_10CSSKeywordEEEEE19__generic_constructB8ne200100IRKNS0_18__copy_constructorISC_LNS0_6_TraitE1EEEEEvRSD_OT_EUlSM_E_JRKNS0_6__baseILSG_1EJSA_SB_EEEEEEDcSL_DpT0_, symObjAddr: 0x54CC, symBinAddr: 0xB318, symSize: 0x20 }
  - { offset: 0x1D3F43, size: 0x8, addend: 0x0, symName: __ZNSt3__116__variant_detail12__visitation6__base12__dispatcherIJLm0EEE10__dispatchB8ne200100IOZNS0_6__ctorINS0_8__traitsIJN10reanimated3css9CSSDoubleENS9_10CSSKeywordEEEEE19__generic_constructB8ne200100IRKNS0_18__copy_constructorISC_LNS0_6_TraitE1EEEEEvRSD_OT_EUlSM_E_JRKNS0_6__baseILSG_1EJSA_SB_EEEEEEDcSL_DpT0_, symObjAddr: 0x54CC, symBinAddr: 0xB318, symSize: 0x20 }
  - { offset: 0x1D3F69, size: 0x8, addend: 0x0, symName: __ZNSt3__116__variant_detail12__visitation6__base12__dispatcherIJLm0EEE10__dispatchB8ne200100IOZNS0_6__ctorINS0_8__traitsIJN10reanimated3css9CSSDoubleENS9_10CSSKeywordEEEEE19__generic_constructB8ne200100IRKNS0_18__copy_constructorISC_LNS0_6_TraitE1EEEEEvRSD_OT_EUlSM_E_JRKNS0_6__baseILSG_1EJSA_SB_EEEEEEDcSL_DpT0_, symObjAddr: 0x54CC, symBinAddr: 0xB318, symSize: 0x20 }
  - { offset: 0x1D42CF, size: 0x8, addend: 0x0, symName: __ZNSt3__116__variant_detail12__visitation6__base12__dispatcherIJLm1EEE10__dispatchB8ne200100IOZNS0_6__ctorINS0_8__traitsIJN10reanimated3css9CSSDoubleENS9_10CSSKeywordEEEEE19__generic_constructB8ne200100IRKNS0_18__copy_constructorISC_LNS0_6_TraitE1EEEEEvRSD_OT_EUlSM_E_JRKNS0_6__baseILSG_1EJSA_SB_EEEEEEDcSL_DpT0_, symObjAddr: 0x54EC, symBinAddr: 0xB338, symSize: 0x68 }
  - { offset: 0x1D456C, size: 0x8, addend: 0x0, symName: __ZN10reanimated3css9CSSDoubleD0Ev, symObjAddr: 0x5554, symBinAddr: 0xB3A0, symSize: 0x4 }
  - { offset: 0x1D4617, size: 0x8, addend: 0x0, symName: __ZNSt3__116__variant_detail12__visitation6__base12__dispatcherIJLm0EEE10__dispatchB8ne200100IONS1_9__variant15__value_visitorIZNK10reanimated3css15CSSValueVariantIJNS9_9CSSDoubleENS9_10CSSKeywordEEE9toDynamicEvEUlRKT_E_EEJRKNS0_6__baseILNS0_6_TraitE1EJSB_SC_EEEEEEDcSE_DpT0_, symObjAddr: 0x5558, symBinAddr: 0xB3A4, symSize: 0x10 }
  - { offset: 0x1D475F, size: 0x8, addend: 0x0, symName: __ZNSt3__116__variant_detail12__visitation6__base12__dispatcherIJLm1EEE10__dispatchB8ne200100IONS1_9__variant15__value_visitorIZNK10reanimated3css15CSSValueVariantIJNS9_9CSSDoubleENS9_10CSSKeywordEEE9toDynamicEvEUlRKT_E_EEJRKNS0_6__baseILNS0_6_TraitE1EJSB_SC_EEEEEEDcSE_DpT0_, symObjAddr: 0x5568, symBinAddr: 0xB3B4, symSize: 0x10 }
  - { offset: 0x1D48C5, size: 0x8, addend: 0x0, symName: __ZNSt3__116__variant_detail12__visitation6__base12__dispatcherIJLm0EEE10__dispatchB8ne200100IONS1_9__variant15__value_visitorIZNK10reanimated3css15CSSValueVariantIJNS9_9CSSDoubleENS9_10CSSKeywordEEE8toStringEvEUlRKT_E_EEJRKNS0_6__baseILNS0_6_TraitE1EJSB_SC_EEEEEEDcSE_DpT0_, symObjAddr: 0x5578, symBinAddr: 0xB3C4, symSize: 0x10 }
  - { offset: 0x1D4A0D, size: 0x8, addend: 0x0, symName: __ZNSt3__116__variant_detail12__visitation6__base12__dispatcherIJLm1EEE10__dispatchB8ne200100IONS1_9__variant15__value_visitorIZNK10reanimated3css15CSSValueVariantIJNS9_9CSSDoubleENS9_10CSSKeywordEEE8toStringEvEUlRKT_E_EEJRKNS0_6__baseILNS0_6_TraitE1EJSB_SC_EEEEEEDcSE_DpT0_, symObjAddr: 0x5588, symBinAddr: 0xB3D4, symSize: 0x10 }
  - { offset: 0x1D4D68, size: 0x8, addend: 0x0, symName: __ZNSt3__120__shared_ptr_emplaceIN10reanimated3css17ValueInterpolatorIJNS2_9CSSDoubleENS2_10CSSKeywordEEEENS_9allocatorIS6_EEEC2B8ne200100IJRKNS_6vectorINS_12basic_stringIcNS_11char_traitsIcEENS7_IcEEEENS7_ISG_EEEERKNS2_15CSSValueVariantIJS4_S5_EEERKNS_10shared_ptrINS2_20ViewStylesRepositoryEEEES8_Li0EEES8_DpOT_, symObjAddr: 0x5608, symBinAddr: 0xB454, symSize: 0x4C }
  - { offset: 0x1D4FEB, size: 0x8, addend: 0x0, symName: __ZN10reanimated3css17ValueInterpolatorIJNS0_9CSSDoubleENS0_10CSSKeywordEEEC2ERKNSt3__16vectorINS5_12basic_stringIcNS5_11char_traitsIcEENS5_9allocatorIcEEEENSA_ISC_EEEERKNS0_15CSSValueVariantIJS2_S3_EEERKNS5_10shared_ptrINS0_20ViewStylesRepositoryEEE, symObjAddr: 0x569C, symBinAddr: 0xB4E8, symSize: 0xE8 }
  - { offset: 0x1D5462, size: 0x8, addend: 0x0, symName: __ZNSt3__120__shared_ptr_emplaceIN10reanimated3css17ValueInterpolatorIJNS2_9CSSDoubleENS2_10CSSKeywordEEEENS_9allocatorIS6_EEED1Ev, symObjAddr: 0x5654, symBinAddr: 0xB4A0, symSize: 0x14 }
  - { offset: 0x1D5486, size: 0x8, addend: 0x0, symName: __ZNSt3__120__shared_ptr_emplaceIN10reanimated3css17ValueInterpolatorIJNS2_9CSSDoubleENS2_10CSSKeywordEEEENS_9allocatorIS6_EEED1Ev, symObjAddr: 0x5654, symBinAddr: 0xB4A0, symSize: 0x14 }
  - { offset: 0x1D54BD, size: 0x8, addend: 0x0, symName: __ZNSt3__120__shared_ptr_emplaceIN10reanimated3css17ValueInterpolatorIJNS2_9CSSDoubleENS2_10CSSKeywordEEEENS_9allocatorIS6_EEED0Ev, symObjAddr: 0x5668, symBinAddr: 0xB4B4, symSize: 0x24 }
  - { offset: 0x1D5593, size: 0x8, addend: 0x0, symName: __ZNSt3__120__shared_ptr_emplaceIN10reanimated3css17ValueInterpolatorIJNS2_9CSSDoubleENS2_10CSSKeywordEEEENS_9allocatorIS6_EEE16__on_zero_sharedEv, symObjAddr: 0x568C, symBinAddr: 0xB4D8, symSize: 0xC }
  - { offset: 0x1D55BD, size: 0x8, addend: 0x0, symName: __ZNSt3__120__shared_ptr_emplaceIN10reanimated3css17ValueInterpolatorIJNS2_9CSSDoubleENS2_10CSSKeywordEEEENS_9allocatorIS6_EEE16__on_zero_sharedEv, symObjAddr: 0x568C, symBinAddr: 0xB4D8, symSize: 0xC }
  - { offset: 0x1D55DC, size: 0x8, addend: 0x0, symName: __ZNSt3__120__shared_ptr_emplaceIN10reanimated3css17ValueInterpolatorIJNS2_9CSSDoubleENS2_10CSSKeywordEEEENS_9allocatorIS6_EEE16__on_zero_sharedEv, symObjAddr: 0x568C, symBinAddr: 0xB4D8, symSize: 0xC }
  - { offset: 0x1D55FB, size: 0x8, addend: 0x0, symName: __ZNSt3__120__shared_ptr_emplaceIN10reanimated3css17ValueInterpolatorIJNS2_9CSSDoubleENS2_10CSSKeywordEEEENS_9allocatorIS6_EEE16__on_zero_sharedEv, symObjAddr: 0x568C, symBinAddr: 0xB4D8, symSize: 0xC }
  - { offset: 0x1D5627, size: 0x8, addend: 0x0, symName: __ZNSt3__120__shared_ptr_emplaceIN10reanimated3css17ValueInterpolatorIJNS2_9CSSDoubleENS2_10CSSKeywordEEEENS_9allocatorIS6_EEE21__on_zero_shared_weakEv, symObjAddr: 0x5698, symBinAddr: 0xB4E4, symSize: 0x4 }
  - { offset: 0x1D565B, size: 0x8, addend: 0x0, symName: __ZNSt3__120__shared_ptr_emplaceIN10reanimated3css17ValueInterpolatorIJNS2_9CSSDoubleENS2_10CSSKeywordEEEENS_9allocatorIS6_EEE21__on_zero_shared_weakEv, symObjAddr: 0x5698, symBinAddr: 0xB4E4, symSize: 0x4 }
  - { offset: 0x1D567F, size: 0x8, addend: 0x0, symName: __ZNSt3__120__shared_ptr_emplaceIN10reanimated3css17ValueInterpolatorIJNS2_9CSSDoubleENS2_10CSSKeywordEEEENS_9allocatorIS6_EEE21__on_zero_shared_weakEv, symObjAddr: 0x5698, symBinAddr: 0xB4E4, symSize: 0x4 }
  - { offset: 0x1D56A4, size: 0x8, addend: 0x0, symName: __ZNSt3__120__shared_ptr_emplaceIN10reanimated3css17ValueInterpolatorIJNS2_9CSSDoubleENS2_10CSSKeywordEEEENS_9allocatorIS6_EEE21__on_zero_shared_weakEv, symObjAddr: 0x5698, symBinAddr: 0xB4E4, symSize: 0x4 }
  - { offset: 0x1D56DC, size: 0x8, addend: 0x0, symName: __ZNSt3__120__shared_ptr_emplaceIN10reanimated3css17ValueInterpolatorIJNS2_9CSSDoubleENS2_10CSSKeywordEEEENS_9allocatorIS6_EEE21__on_zero_shared_weakEv, symObjAddr: 0x5698, symBinAddr: 0xB4E4, symSize: 0x4 }
  - { offset: 0x1D57FC, size: 0x8, addend: 0x0, symName: __ZNK10reanimated3css17ValueInterpolatorIJNS0_9CSSDoubleENS0_10CSSKeywordEEE13getStyleValueERKNSt3__110shared_ptrIKN8facebook5react10ShadowNodeEEE, symObjAddr: 0x5784, symBinAddr: 0xB5D0, symSize: 0x44 }
  - { offset: 0x1D5874, size: 0x8, addend: 0x0, symName: __ZNK10reanimated3css17ValueInterpolatorIJNS0_9CSSDoubleENS0_10CSSKeywordEEE13getResetStyleERKNSt3__110shared_ptrIKN8facebook5react10ShadowNodeEEE, symObjAddr: 0x57C8, symBinAddr: 0xB614, symSize: 0xAC }
  - { offset: 0x1D5A5D, size: 0x8, addend: 0x0, symName: __ZNK10reanimated3css17ValueInterpolatorIJNS0_9CSSDoubleENS0_10CSSKeywordEEE21getFirstKeyframeValueEv, symObjAddr: 0x5874, symBinAddr: 0xB6C0, symSize: 0x24 }
  - { offset: 0x1D5A87, size: 0x8, addend: 0x0, symName: __ZNK10reanimated3css17ValueInterpolatorIJNS0_9CSSDoubleENS0_10CSSKeywordEEE21getFirstKeyframeValueEv, symObjAddr: 0x5874, symBinAddr: 0xB6C0, symSize: 0x24 }
  - { offset: 0x1D5BD2, size: 0x8, addend: 0x0, symName: __ZNK10reanimated3css17ValueInterpolatorIJNS0_9CSSDoubleENS0_10CSSKeywordEEE20getLastKeyframeValueEv, symObjAddr: 0x5898, symBinAddr: 0xB6E4, symSize: 0x24 }
  - { offset: 0x1D5BFC, size: 0x8, addend: 0x0, symName: __ZNK10reanimated3css17ValueInterpolatorIJNS0_9CSSDoubleENS0_10CSSKeywordEEE20getLastKeyframeValueEv, symObjAddr: 0x5898, symBinAddr: 0xB6E4, symSize: 0x24 }
  - { offset: 0x1D5D91, size: 0x8, addend: 0x0, symName: __ZNK10reanimated3css17ValueInterpolatorIJNS0_9CSSDoubleENS0_10CSSKeywordEEE33equalsReversingAdjustedStartValueERKN5folly7dynamicE, symObjAddr: 0x58BC, symBinAddr: 0xB708, symSize: 0x94 }
  - { offset: 0x1D6201, size: 0x8, addend: 0x0, symName: __ZN10reanimated3css15CSSValueVariantIJNS0_9CSSDoubleENS0_10CSSKeywordEEEC2ERKN5folly7dynamicE, symObjAddr: 0x61F4, symBinAddr: 0xC040, symSize: 0x148 }
  - { offset: 0x1D6D64, size: 0x8, addend: 0x0, symName: __ZN10reanimated3css17ValueInterpolatorIJNS0_9CSSDoubleENS0_10CSSKeywordEEE15updateKeyframesERN8facebook3jsi7RuntimeERKNS6_5ValueE, symObjAddr: 0x5950, symBinAddr: 0xB79C, symSize: 0x1C8 }
  - { offset: 0x1D8519, size: 0x8, addend: 0x0, symName: __ZNSt3__16vectorIN10reanimated3css13ValueKeyframeIJNS2_9CSSDoubleENS2_10CSSKeywordEEEENS_9allocatorIS6_EEE7reserveEm, symObjAddr: 0x64C0, symBinAddr: 0xC30C, symSize: 0xB8 }
  - { offset: 0x1D875E, size: 0x8, addend: 0x0, symName: __ZN10reanimated3css15CSSValueVariantIJNS0_9CSSDoubleENS0_10CSSKeywordEEEC2ERN8facebook3jsi7RuntimeERKNS6_5ValueE, symObjAddr: 0x6A98, symBinAddr: 0xC89C, symSize: 0x158 }
  - { offset: 0x1D8DC1, size: 0x8, addend: 0x0, symName: __ZNSt3__116__variant_detail18__move_constructorINS0_8__traitsIJN10reanimated3css9CSSDoubleENS4_10CSSKeywordEEEELNS0_6_TraitE1EEC2B8ne200100EOS9_, symObjAddr: 0x6700, symBinAddr: 0xC504, symSize: 0x34 }
  - { offset: 0x1D8ED6, size: 0x8, addend: 0x0, symName: __ZNSt3__16vectorIN10reanimated3css13ValueKeyframeIJNS2_9CSSDoubleENS2_10CSSKeywordEEEENS_9allocatorIS6_EEE9push_backB8ne200100EOS6_, symObjAddr: 0x6578, symBinAddr: 0xC3C4, symSize: 0x3C }
  - { offset: 0x1D9328, size: 0x8, addend: 0x0, symName: __ZN10reanimated3css17ValueInterpolatorIJNS0_9CSSDoubleENS0_10CSSKeywordEEE30updateKeyframesFromStyleChangeERKN5folly7dynamicES8_S8_, symObjAddr: 0x5B18, symBinAddr: 0xB964, symSize: 0x424 }
  - { offset: 0x1DC820, size: 0x8, addend: 0x0, symName: __ZNSt3__18optionalIN10reanimated3css15CSSValueVariantIJNS2_9CSSDoubleENS2_10CSSKeywordEEEEEaSB8ne200100IS6_vEERS7_OT_, symObjAddr: 0x6CE8, symBinAddr: 0xCAEC, symSize: 0x64 }
  - { offset: 0x1DCA91, size: 0x8, addend: 0x0, symName: __ZNSt3__123__optional_storage_baseIN10reanimated3css15CSSValueVariantIJNS2_9CSSDoubleENS2_10CSSKeywordEEEELb0EE13__assign_fromB8ne200100INS_27__optional_move_assign_baseIS6_Lb0EEEEEvOT_, symObjAddr: 0x6E08, symBinAddr: 0xCC0C, symSize: 0x7C }
  - { offset: 0x1DCEA8, size: 0x8, addend: 0x0, symName: __ZNSt3__120__optional_copy_baseIN10reanimated3css15CSSValueVariantIJNS2_9CSSDoubleENS2_10CSSKeywordEEEELb0EEC2B8ne200100ERKS7_, symObjAddr: 0x6E84, symBinAddr: 0xCC88, symSize: 0x84 }
  - { offset: 0x1DD2FD, size: 0x8, addend: 0x0, symName: __ZNSt3__16vectorIN10reanimated3css13ValueKeyframeIJNS2_9CSSDoubleENS2_10CSSKeywordEEEENS_9allocatorIS6_EEE18__assign_with_sizeB8ne200100IPKS6_SC_EEvT_T0_l, symObjAddr: 0x6F08, symBinAddr: 0xCD0C, symSize: 0x18C }
  - { offset: 0x1DDD26, size: 0x8, addend: 0x0, symName: __ZNK10reanimated3css17ValueInterpolatorIJNS0_9CSSDoubleENS0_10CSSKeywordEEE11interpolateERKNSt3__110shared_ptrIKN8facebook5react10ShadowNodeEEERKNS6_INS0_24KeyframeProgressProviderEEE, symObjAddr: 0x5F3C, symBinAddr: 0xBD88, symSize: 0x220 }
  - { offset: 0x1DF431, size: 0x8, addend: 0x0, symName: __ZNK10reanimated3css17ValueInterpolatorIJNS0_9CSSDoubleENS0_10CSSKeywordEEE16getFallbackValueERKNSt3__110shared_ptrIKN8facebook5react10ShadowNodeEEE, symObjAddr: 0x747C, symBinAddr: 0xD1C0, symSize: 0xBC }
  - { offset: 0x1DF716, size: 0x8, addend: 0x0, symName: __ZN10reanimated3css17ValueInterpolatorIJNS0_9CSSDoubleENS0_10CSSKeywordEEED1Ev, symObjAddr: 0x615C, symBinAddr: 0xBFA8, symSize: 0x4 }
  - { offset: 0x1DF73A, size: 0x8, addend: 0x0, symName: __ZN10reanimated3css17ValueInterpolatorIJNS0_9CSSDoubleENS0_10CSSKeywordEEED1Ev, symObjAddr: 0x615C, symBinAddr: 0xBFA8, symSize: 0x4 }
  - { offset: 0x1DF74E, size: 0x8, addend: 0x0, symName: __ZN10reanimated3css17ValueInterpolatorIJNS0_9CSSDoubleENS0_10CSSKeywordEEED2Ev, symObjAddr: 0x7538, symBinAddr: 0xD27C, symSize: 0x8C }
  - { offset: 0x1DFCE1, size: 0x8, addend: 0x0, symName: __ZN10reanimated3css17ValueInterpolatorIJNS0_9CSSDoubleENS0_10CSSKeywordEEED0Ev, symObjAddr: 0x6160, symBinAddr: 0xBFAC, symSize: 0x14 }
  - { offset: 0x1DFD40, size: 0x8, addend: 0x0, symName: __ZNK10reanimated3css17ValueInterpolatorIJNS0_9CSSDoubleENS0_10CSSKeywordEEE16interpolateValueEdRKNS0_15CSSValueVariantIJS2_S3_EEES8_RKNS0_30ValueInterpolatorUpdateContextE, symObjAddr: 0x6174, symBinAddr: 0xBFC0, symSize: 0xC }
  - { offset: 0x1E0063, size: 0x8, addend: 0x0, symName: __ZNSt3__116__variant_detail12__visitation6__base12__dispatcherIJLm0ELm0EEE10__dispatchB8ne200100IONS1_9__variant15__value_visitorIZNK10reanimated3css15CSSValueVariantIJNS9_9CSSDoubleENS9_10CSSKeywordEEEeqERKSD_EUlRKT_RKT0_E_EEJRKNS0_6__baseILNS0_6_TraitE1EJSB_SC_EEEST_EEEDcSG_DpT0_, symObjAddr: 0x61CC, symBinAddr: 0xC018, symSize: 0xC }
  - { offset: 0x1E016C, size: 0x8, addend: 0x0, symName: __ZNSt3__116__variant_detail12__visitation6__base12__dispatcherIJLm0ELm1EEE10__dispatchB8ne200100IONS1_9__variant15__value_visitorIZNK10reanimated3css15CSSValueVariantIJNS9_9CSSDoubleENS9_10CSSKeywordEEEeqERKSD_EUlRKT_RKT0_E_EEJRKNS0_6__baseILNS0_6_TraitE1EJSB_SC_EEEST_EEEDcSG_DpT0_, symObjAddr: 0x61D8, symBinAddr: 0xC024, symSize: 0x8 }
  - { offset: 0x1E01CD, size: 0x8, addend: 0x0, symName: __ZNSt3__116__variant_detail12__visitation6__base12__dispatcherIJLm1ELm0EEE10__dispatchB8ne200100IONS1_9__variant15__value_visitorIZNK10reanimated3css15CSSValueVariantIJNS9_9CSSDoubleENS9_10CSSKeywordEEEeqERKSD_EUlRKT_RKT0_E_EEJRKNS0_6__baseILNS0_6_TraitE1EJSB_SC_EEEST_EEEDcSG_DpT0_, symObjAddr: 0x61E0, symBinAddr: 0xC02C, symSize: 0x8 }
  - { offset: 0x1E02B9, size: 0x8, addend: 0x0, symName: __ZNSt3__116__variant_detail12__visitation6__base12__dispatcherIJLm1ELm1EEE10__dispatchB8ne200100IONS1_9__variant15__value_visitorIZNK10reanimated3css15CSSValueVariantIJNS9_9CSSDoubleENS9_10CSSKeywordEEEeqERKSD_EUlRKT_RKT0_E_EEJRKNS0_6__baseILNS0_6_TraitE1EJSB_SC_EEEST_EEEDcSG_DpT0_, symObjAddr: 0x61E8, symBinAddr: 0xC034, symSize: 0xC }
  - { offset: 0x1E0667, size: 0x8, addend: 0x0, symName: __ZN10reanimated3css15CSSValueVariantIJNS0_9CSSDoubleENS0_10CSSKeywordEEE12tryConstructERKN5folly7dynamicE, symObjAddr: 0x633C, symBinAddr: 0xC188, symSize: 0xDC }
  - { offset: 0x1E1075, size: 0x8, addend: 0x0, symName: __ZNSt3__116__variant_detail12__assignmentINS0_8__traitsIJN10reanimated3css9CSSDoubleENS4_10CSSKeywordEEEEE12__assign_altB8ne200100ILm1ES6_S6_EEvRNS0_5__altIXT_ET0_EEOT1_, symObjAddr: 0x6418, symBinAddr: 0xC264, symSize: 0xA8 }
  - { offset: 0x1E1820, size: 0x8, addend: 0x0, symName: __ZNSt3__114__split_bufferIN10reanimated3css13ValueKeyframeIJNS2_9CSSDoubleENS2_10CSSKeywordEEEERNS_9allocatorIS6_EEED2Ev, symObjAddr: 0x6870, symBinAddr: 0xC674, symSize: 0x30 }
  - { offset: 0x1E1936, size: 0x8, addend: 0x0, symName: __ZNSt3__16vectorIN10reanimated3css13ValueKeyframeIJNS2_9CSSDoubleENS2_10CSSKeywordEEEENS_9allocatorIS6_EEE22__construct_one_at_endB8ne200100IJS6_EEEvDpOT_, symObjAddr: 0x68F4, symBinAddr: 0xC6F8, symSize: 0x68 }
  - { offset: 0x1E1E04, size: 0x8, addend: 0x0, symName: __ZNSt3__16vectorIN10reanimated3css13ValueKeyframeIJNS2_9CSSDoubleENS2_10CSSKeywordEEEENS_9allocatorIS6_EEE24__emplace_back_slow_pathIJS6_EEEPS6_DpOT_, symObjAddr: 0x695C, symBinAddr: 0xC760, symSize: 0x13C }
  - { offset: 0x1E26DD, size: 0x8, addend: 0x0, symName: __ZNSt3__128__exception_guard_exceptionsINS_29_AllocatorDestroyRangeReverseINS_9allocatorIN10reanimated3css13ValueKeyframeIJNS4_9CSSDoubleENS4_10CSSKeywordEEEEEEPS8_EEED2B8ne200100Ev, symObjAddr: 0x67F4, symBinAddr: 0xC5F8, symSize: 0x34 }
  - { offset: 0x1E271E, size: 0x8, addend: 0x0, symName: __ZNSt3__116__variant_detail6__ctorINS0_8__traitsIJN10reanimated3css9CSSDoubleENS4_10CSSKeywordEEEEE19__generic_constructB8ne200100INS0_18__move_constructorIS7_LNS0_6_TraitE1EEEEEvRS8_OT_, symObjAddr: 0x6734, symBinAddr: 0xC538, symSize: 0x60 }
  - { offset: 0x1E2991, size: 0x8, addend: 0x0, symName: __ZNSt3__116__variant_detail12__visitation6__base12__dispatcherIJLm0EEE10__dispatchB8ne200100IOZNS0_6__ctorINS0_8__traitsIJN10reanimated3css9CSSDoubleENS9_10CSSKeywordEEEEE19__generic_constructB8ne200100INS0_18__move_constructorISC_LNS0_6_TraitE1EEEEEvRSD_OT_EUlSK_E_JONS0_6__baseILSG_1EJSA_SB_EEEEEEDcSJ_DpT0_, symObjAddr: 0x6794, symBinAddr: 0xC598, symSize: 0x20 }
  - { offset: 0x1E29C7, size: 0x8, addend: 0x0, symName: __ZNSt3__116__variant_detail12__visitation6__base12__dispatcherIJLm0EEE10__dispatchB8ne200100IOZNS0_6__ctorINS0_8__traitsIJN10reanimated3css9CSSDoubleENS9_10CSSKeywordEEEEE19__generic_constructB8ne200100INS0_18__move_constructorISC_LNS0_6_TraitE1EEEEEvRSD_OT_EUlSK_E_JONS0_6__baseILSG_1EJSA_SB_EEEEEEDcSJ_DpT0_, symObjAddr: 0x6794, symBinAddr: 0xC598, symSize: 0x20 }
  - { offset: 0x1E29ED, size: 0x8, addend: 0x0, symName: __ZNSt3__116__variant_detail12__visitation6__base12__dispatcherIJLm0EEE10__dispatchB8ne200100IOZNS0_6__ctorINS0_8__traitsIJN10reanimated3css9CSSDoubleENS9_10CSSKeywordEEEEE19__generic_constructB8ne200100INS0_18__move_constructorISC_LNS0_6_TraitE1EEEEEvRSD_OT_EUlSK_E_JONS0_6__baseILSG_1EJSA_SB_EEEEEEDcSJ_DpT0_, symObjAddr: 0x6794, symBinAddr: 0xC598, symSize: 0x20 }
  - { offset: 0x1E2BBF, size: 0x8, addend: 0x0, symName: __ZNSt3__116__variant_detail12__visitation6__base12__dispatcherIJLm1EEE10__dispatchB8ne200100IOZNS0_6__ctorINS0_8__traitsIJN10reanimated3css9CSSDoubleENS9_10CSSKeywordEEEEE19__generic_constructB8ne200100INS0_18__move_constructorISC_LNS0_6_TraitE1EEEEEvRSD_OT_EUlSK_E_JONS0_6__baseILSG_1EJSA_SB_EEEEEEDcSJ_DpT0_, symObjAddr: 0x67B4, symBinAddr: 0xC5B8, symSize: 0x40 }
  - { offset: 0x1E2BF5, size: 0x8, addend: 0x0, symName: __ZNSt3__116__variant_detail12__visitation6__base12__dispatcherIJLm1EEE10__dispatchB8ne200100IOZNS0_6__ctorINS0_8__traitsIJN10reanimated3css9CSSDoubleENS9_10CSSKeywordEEEEE19__generic_constructB8ne200100INS0_18__move_constructorISC_LNS0_6_TraitE1EEEEEvRSD_OT_EUlSK_E_JONS0_6__baseILSG_1EJSA_SB_EEEEEEDcSJ_DpT0_, symObjAddr: 0x67B4, symBinAddr: 0xC5B8, symSize: 0x40 }
  - { offset: 0x1E2C1B, size: 0x8, addend: 0x0, symName: __ZNSt3__116__variant_detail12__visitation6__base12__dispatcherIJLm1EEE10__dispatchB8ne200100IOZNS0_6__ctorINS0_8__traitsIJN10reanimated3css9CSSDoubleENS9_10CSSKeywordEEEEE19__generic_constructB8ne200100INS0_18__move_constructorISC_LNS0_6_TraitE1EEEEEvRSD_OT_EUlSK_E_JONS0_6__baseILSG_1EJSA_SB_EEEEEEDcSJ_DpT0_, symObjAddr: 0x67B4, symBinAddr: 0xC5B8, symSize: 0x40 }
  - { offset: 0x1E2E5A, size: 0x8, addend: 0x0, symName: __ZNKSt3__129_AllocatorDestroyRangeReverseINS_9allocatorIN10reanimated3css13ValueKeyframeIJNS3_9CSSDoubleENS3_10CSSKeywordEEEEEEPS7_EclB8ne200100Ev, symObjAddr: 0x6828, symBinAddr: 0xC62C, symSize: 0x48 }
  - { offset: 0x1E3221, size: 0x8, addend: 0x0, symName: __ZNSt3__114__split_bufferIN10reanimated3css13ValueKeyframeIJNS2_9CSSDoubleENS2_10CSSKeywordEEEERNS_9allocatorIS6_EEE5clearB8ne200100Ev, symObjAddr: 0x68A0, symBinAddr: 0xC6A4, symSize: 0x54 }
  - { offset: 0x1E3687, size: 0x8, addend: 0x0, symName: __ZN10reanimated3css15CSSValueVariantIJNS0_9CSSDoubleENS0_10CSSKeywordEEE12tryConstructERN8facebook3jsi7RuntimeERKNS6_5ValueE, symObjAddr: 0x6BF0, symBinAddr: 0xC9F4, symSize: 0xF8 }
  - { offset: 0x1E3D94, size: 0x8, addend: 0x0, symName: __ZNSt3__116__variant_detail12__assignmentINS0_8__traitsIJN10reanimated3css9CSSDoubleENS4_10CSSKeywordEEEEE16__generic_assignB8ne200100INS0_17__move_assignmentIS7_LNS0_6_TraitE1EEEEEvOT_, symObjAddr: 0x6D4C, symBinAddr: 0xCB50, symSize: 0x5C }
  - { offset: 0x1E4042, size: 0x8, addend: 0x0, symName: __ZNSt3__116__variant_detail12__visitation6__base12__dispatcherIJLm0ELm0EEE10__dispatchB8ne200100IOZNS0_12__assignmentINS0_8__traitsIJN10reanimated3css9CSSDoubleENS9_10CSSKeywordEEEEE16__generic_assignB8ne200100INS0_17__move_assignmentISC_LNS0_6_TraitE1EEEEEvOT_EUlRSI_OT0_E_JRNS0_6__baseILSG_1EJSA_SB_EEEOSQ_EEEDcSI_DpT0_, symObjAddr: 0x6DA8, symBinAddr: 0xCBAC, symSize: 0x58 }
  - { offset: 0x1E43AD, size: 0x8, addend: 0x0, symName: __ZNSt3__116__variant_detail12__visitation6__base12__dispatcherIJLm1ELm1EEE10__dispatchB8ne200100IOZNS0_12__assignmentINS0_8__traitsIJN10reanimated3css9CSSDoubleENS9_10CSSKeywordEEEEE16__generic_assignB8ne200100INS0_17__move_assignmentISC_LNS0_6_TraitE1EEEEEvOT_EUlRSI_OT0_E_JRNS0_6__baseILSG_1EJSA_SB_EEEOSQ_EEEDcSI_DpT0_, symObjAddr: 0x6E00, symBinAddr: 0xCC04, symSize: 0x8 }
  - { offset: 0x1E467E, size: 0x8, addend: 0x0, symName: __ZNSt3__16vectorIN10reanimated3css13ValueKeyframeIJNS2_9CSSDoubleENS2_10CSSKeywordEEEENS_9allocatorIS6_EEE13__vdeallocateEv, symObjAddr: 0x7094, symBinAddr: 0xCE98, symSize: 0x70 }
  - { offset: 0x1E4AFF, size: 0x8, addend: 0x0, symName: __ZNSt3__135__uninitialized_allocator_copy_implB8ne200100INS_9allocatorIN10reanimated3css13ValueKeyframeIJNS3_9CSSDoubleENS3_10CSSKeywordEEEEEEPKS7_SA_PS7_EET2_RT_T0_T1_SC_, symObjAddr: 0x713C, symBinAddr: 0xCF08, symSize: 0xA8 }
  - { offset: 0x1E4B0A, size: 0x8, addend: 0x0, symName: __ZNSt3__123__optional_storage_baseIN10reanimated3css15CSSValueVariantIJNS2_9CSSDoubleENS2_10CSSKeywordEEEELb0EE13__assign_fromB8ne200100IRKNS_27__optional_copy_assign_baseIS6_Lb0EEEEEvOT_, symObjAddr: 0x71E4, symBinAddr: 0xCFB0, symSize: 0x7C }
  - { offset: 0x1E4FA4, size: 0x8, addend: 0x0, symName: __ZNSt3__116__variant_detail12__assignmentINS0_8__traitsIJN10reanimated3css9CSSDoubleENS4_10CSSKeywordEEEEE16__generic_assignB8ne200100IRKNS0_17__copy_assignmentIS7_LNS0_6_TraitE1EEEEEvOT_, symObjAddr: 0x7260, symBinAddr: 0xD02C, symSize: 0x5C }
  - { offset: 0x1E53A0, size: 0x8, addend: 0x0, symName: __ZNSt3__116__variant_detail12__visitation6__base12__dispatcherIJLm0ELm0EEE10__dispatchB8ne200100IOZNS0_12__assignmentINS0_8__traitsIJN10reanimated3css9CSSDoubleENS9_10CSSKeywordEEEEE16__generic_assignB8ne200100IRKNS0_17__copy_assignmentISC_LNS0_6_TraitE1EEEEEvOT_EUlRSK_OT0_E_JRNS0_6__baseILSG_1EJSA_SB_EEERKSS_EEEDcSK_DpT0_, symObjAddr: 0x72BC, symBinAddr: 0xD088, symSize: 0x58 }
  - { offset: 0x1E570B, size: 0x8, addend: 0x0, symName: __ZNSt3__116__variant_detail12__visitation6__base12__dispatcherIJLm1ELm1EEE10__dispatchB8ne200100IOZNS0_12__assignmentINS0_8__traitsIJN10reanimated3css9CSSDoubleENS9_10CSSKeywordEEEEE16__generic_assignB8ne200100IRKNS0_17__copy_assignmentISC_LNS0_6_TraitE1EEEEEvOT_EUlRSK_OT0_E_JRNS0_6__baseILSG_1EJSA_SB_EEERKSS_EEEDcSK_DpT0_, symObjAddr: 0x7314, symBinAddr: 0xD0E0, symSize: 0x8 }
  - { offset: 0x1E57D9, size: 0x8, addend: 0x0, symName: __ZNSt3__116__variant_detail12__assignmentINS0_8__traitsIJN10reanimated3css9CSSDoubleENS4_10CSSKeywordEEEEE12__assign_altB8ne200100ILm1ES6_RKS6_EEvRNS0_5__altIXT_ET0_EEOT1_, symObjAddr: 0x731C, symBinAddr: 0xD0E8, symSize: 0x3C }
  - { offset: 0x1E5825, size: 0x8, addend: 0x0, symName: __ZNSt3__116__variant_detail12__assignmentINS0_8__traitsIJN10reanimated3css9CSSDoubleENS4_10CSSKeywordEEEEE12__assign_altB8ne200100ILm1ES6_RKS6_EEvRNS0_5__altIXT_ET0_EEOT1_, symObjAddr: 0x731C, symBinAddr: 0xD0E8, symSize: 0x3C }
  - { offset: 0x1E593D, size: 0x8, addend: 0x0, symName: __ZZNSt3__116__variant_detail12__assignmentINS0_8__traitsIJN10reanimated3css9CSSDoubleENS4_10CSSKeywordEEEEE12__assign_altB8ne200100ILm1ES6_RKS6_EEvRNS0_5__altIXT_ET0_EEOT1_ENKUt_clENS_17integral_constantIbLb0EEE, symObjAddr: 0x7358, symBinAddr: 0xD124, symSize: 0x9C }
  - { offset: 0x1E5DCB, size: 0x8, addend: 0x0, symName: __ZNSt3__16vectorIN10reanimated3css13ValueKeyframeIJNS2_9CSSDoubleENS2_10CSSKeywordEEEENS_9allocatorIS6_EEE16__destroy_vectorclB8ne200100Ev, symObjAddr: 0x75C4, symBinAddr: 0xD308, symSize: 0x7C }
  - { offset: 0x1E6516, size: 0x8, addend: 0x0, symName: __ZNSt3__116__variant_detail12__visitation6__base12__dispatcherIJLm0ELm0EEE10__dispatchB8ne200100IONS1_9__variant15__value_visitorIZNK10reanimated3css15CSSValueVariantIJNS9_9CSSDoubleENS9_10CSSKeywordEEE11interpolateEdRKSD_EUlRKT_RKT0_E_EEJRKNS0_6__baseILNS0_6_TraitE1EJSB_SC_EEEST_EEEDcSG_DpT0_, symObjAddr: 0x770C, symBinAddr: 0xD450, symSize: 0x84 }
  - { offset: 0x1E6A65, size: 0x8, addend: 0x0, symName: __ZNSt3__116__variant_detail12__visitation6__base12__dispatcherIJLm0ELm1EEE10__dispatchB8ne200100IONS1_9__variant15__value_visitorIZNK10reanimated3css15CSSValueVariantIJNS9_9CSSDoubleENS9_10CSSKeywordEEE11interpolateEdRKSD_EUlRKT_RKT0_E_EEJRKNS0_6__baseILNS0_6_TraitE1EJSB_SC_EEEST_EEEDcSG_DpT0_, symObjAddr: 0x7790, symBinAddr: 0xD4D4, symSize: 0x3C }
  - { offset: 0x1E6AAE, size: 0x8, addend: 0x0, symName: __ZNSt3__116__variant_detail12__visitation6__base12__dispatcherIJLm0ELm1EEE10__dispatchB8ne200100IONS1_9__variant15__value_visitorIZNK10reanimated3css15CSSValueVariantIJNS9_9CSSDoubleENS9_10CSSKeywordEEE11interpolateEdRKSD_EUlRKT_RKT0_E_EEJRKNS0_6__baseILNS0_6_TraitE1EJSB_SC_EEEST_EEEDcSG_DpT0_, symObjAddr: 0x7790, symBinAddr: 0xD4D4, symSize: 0x3C }
  - { offset: 0x1E6ACE, size: 0x8, addend: 0x0, symName: __ZNSt3__116__variant_detail12__visitation6__base12__dispatcherIJLm0ELm1EEE10__dispatchB8ne200100IONS1_9__variant15__value_visitorIZNK10reanimated3css15CSSValueVariantIJNS9_9CSSDoubleENS9_10CSSKeywordEEE11interpolateEdRKSD_EUlRKT_RKT0_E_EEJRKNS0_6__baseILNS0_6_TraitE1EJSB_SC_EEEST_EEEDcSG_DpT0_, symObjAddr: 0x7790, symBinAddr: 0xD4D4, symSize: 0x3C }
  - { offset: 0x1E6D38, size: 0x8, addend: 0x0, symName: __ZNSt3__116__variant_detail12__visitation6__base12__dispatcherIJLm1ELm0EEE10__dispatchB8ne200100IONS1_9__variant15__value_visitorIZNK10reanimated3css15CSSValueVariantIJNS9_9CSSDoubleENS9_10CSSKeywordEEE11interpolateEdRKSD_EUlRKT_RKT0_E_EEJRKNS0_6__baseILNS0_6_TraitE1EJSB_SC_EEEST_EEEDcSG_DpT0_, symObjAddr: 0x77CC, symBinAddr: 0xD510, symSize: 0x3C }
  - { offset: 0x1E6D81, size: 0x8, addend: 0x0, symName: __ZNSt3__116__variant_detail12__visitation6__base12__dispatcherIJLm1ELm0EEE10__dispatchB8ne200100IONS1_9__variant15__value_visitorIZNK10reanimated3css15CSSValueVariantIJNS9_9CSSDoubleENS9_10CSSKeywordEEE11interpolateEdRKSD_EUlRKT_RKT0_E_EEJRKNS0_6__baseILNS0_6_TraitE1EJSB_SC_EEEST_EEEDcSG_DpT0_, symObjAddr: 0x77CC, symBinAddr: 0xD510, symSize: 0x3C }
  - { offset: 0x1E6DA1, size: 0x8, addend: 0x0, symName: __ZNSt3__116__variant_detail12__visitation6__base12__dispatcherIJLm1ELm0EEE10__dispatchB8ne200100IONS1_9__variant15__value_visitorIZNK10reanimated3css15CSSValueVariantIJNS9_9CSSDoubleENS9_10CSSKeywordEEE11interpolateEdRKSD_EUlRKT_RKT0_E_EEJRKNS0_6__baseILNS0_6_TraitE1EJSB_SC_EEEST_EEEDcSG_DpT0_, symObjAddr: 0x77CC, symBinAddr: 0xD510, symSize: 0x3C }
  - { offset: 0x1E6F80, size: 0x8, addend: 0x0, symName: __ZNSt3__116__variant_detail12__visitation6__base12__dispatcherIJLm1ELm1EEE10__dispatchB8ne200100IONS1_9__variant15__value_visitorIZNK10reanimated3css15CSSValueVariantIJNS9_9CSSDoubleENS9_10CSSKeywordEEE11interpolateEdRKSD_EUlRKT_RKT0_E_EEJRKNS0_6__baseILNS0_6_TraitE1EJSB_SC_EEEST_EEEDcSG_DpT0_, symObjAddr: 0x7808, symBinAddr: 0xD54C, symSize: 0x4 }
  - { offset: 0x1E6FC5, size: 0x8, addend: 0x0, symName: __ZNSt3__116__variant_detail12__visitation6__base12__dispatcherIJLm1ELm1EEE10__dispatchB8ne200100IONS1_9__variant15__value_visitorIZNK10reanimated3css15CSSValueVariantIJNS9_9CSSDoubleENS9_10CSSKeywordEEE11interpolateEdRKSD_EUlRKT_RKT0_E_EEJRKNS0_6__baseILNS0_6_TraitE1EJSB_SC_EEEST_EEEDcSG_DpT0_, symObjAddr: 0x7808, symBinAddr: 0xD54C, symSize: 0x4 }
  - { offset: 0x1E6FF4, size: 0x8, addend: 0x0, symName: __ZNSt3__116__variant_detail12__visitation6__base12__dispatcherIJLm1ELm1EEE10__dispatchB8ne200100IONS1_9__variant15__value_visitorIZNK10reanimated3css15CSSValueVariantIJNS9_9CSSDoubleENS9_10CSSKeywordEEE11interpolateEdRKSD_EUlRKT_RKT0_E_EEJRKNS0_6__baseILNS0_6_TraitE1EJSB_SC_EEEST_EEEDcSG_DpT0_, symObjAddr: 0x7808, symBinAddr: 0xD54C, symSize: 0x4 }
  - { offset: 0x1E703D, size: 0x8, addend: 0x0, symName: __ZNKSt3__116__variant_detail12__visitation9__variant15__value_visitorIZNK10reanimated3css15CSSValueVariantIJNS5_9CSSDoubleENS5_10CSSKeywordEEE11interpolateEdRKS9_EUlRKT_RKT0_E_EclB8ne200100IJRKNS0_5__altILm1ES8_EESO_EEEDcDpOT_, symObjAddr: 0x780C, symBinAddr: 0xD550, symSize: 0xA0 }
  - { offset: 0x1E7484, size: 0x8, addend: 0x0, symName: __ZN10reanimated3css15CSSValueVariantIJNS0_9CSSDoubleENS0_10CSSKeywordEEEC2IS3_EEOT_, symObjAddr: 0x78AC, symBinAddr: 0xD5F0, symSize: 0x64 }
  - { offset: 0x1E7778, size: 0x8, addend: 0x0, symName: __ZN10reanimated3css15CSSValueVariantIJNS0_9CSSDoubleENS0_10CSSKeywordEEE12tryConstructIRA5_KcEEbOT_, symObjAddr: 0x79DC, symBinAddr: 0xD720, symSize: 0x38 }
  - { offset: 0x1E7862, size: 0x8, addend: 0x0, symName: __ZZN10reanimated3css15CSSValueVariantIJNS0_9CSSDoubleENS0_10CSSKeywordEEE12tryConstructIRA5_KcEEbOT_ENKUlTyvE_clIS2_EEbv, symObjAddr: 0x7A14, symBinAddr: 0xD758, symSize: 0x118 }
  - { offset: 0x1E7D7F, size: 0x8, addend: 0x0, symName: __ZZN10reanimated3css15CSSValueVariantIJNS0_9CSSDoubleENS0_10CSSKeywordEEE12tryConstructIRA5_KcEEbOT_ENKUlTyvE_clIS3_EEbv, symObjAddr: 0x7B2C, symBinAddr: 0xD870, symSize: 0x108 }
  - { offset: 0x1E8247, size: 0x8, addend: 0x0, symName: __ZN10reanimated3css15CSSValueVariantIJNS0_9CSSDoubleEEED1Ev, symObjAddr: 0x7C34, symBinAddr: 0xD978, symSize: 0xC }
  - { offset: 0x1E842F, size: 0x8, addend: 0x0, symName: __ZNSt3__120__shared_ptr_emplaceIN10reanimated3css24ValueInterpolatorFactoryIJNS2_9CSSDoubleEEEENS_9allocatorIS5_EEED1Ev, symObjAddr: 0x7C40, symBinAddr: 0xD984, symSize: 0x14 }
  - { offset: 0x1E8453, size: 0x8, addend: 0x0, symName: __ZNSt3__120__shared_ptr_emplaceIN10reanimated3css24ValueInterpolatorFactoryIJNS2_9CSSDoubleEEEENS_9allocatorIS5_EEED1Ev, symObjAddr: 0x7C40, symBinAddr: 0xD984, symSize: 0x14 }
  - { offset: 0x1E848A, size: 0x8, addend: 0x0, symName: __ZNSt3__120__shared_ptr_emplaceIN10reanimated3css24ValueInterpolatorFactoryIJNS2_9CSSDoubleEEEENS_9allocatorIS5_EEED0Ev, symObjAddr: 0x7C54, symBinAddr: 0xD998, symSize: 0x24 }
  - { offset: 0x1E8560, size: 0x8, addend: 0x0, symName: __ZNSt3__120__shared_ptr_emplaceIN10reanimated3css24ValueInterpolatorFactoryIJNS2_9CSSDoubleEEEENS_9allocatorIS5_EEE16__on_zero_sharedEv, symObjAddr: 0x7C78, symBinAddr: 0xD9BC, symSize: 0xC }
  - { offset: 0x1E858A, size: 0x8, addend: 0x0, symName: __ZNSt3__120__shared_ptr_emplaceIN10reanimated3css24ValueInterpolatorFactoryIJNS2_9CSSDoubleEEEENS_9allocatorIS5_EEE16__on_zero_sharedEv, symObjAddr: 0x7C78, symBinAddr: 0xD9BC, symSize: 0xC }
  - { offset: 0x1E85A9, size: 0x8, addend: 0x0, symName: __ZNSt3__120__shared_ptr_emplaceIN10reanimated3css24ValueInterpolatorFactoryIJNS2_9CSSDoubleEEEENS_9allocatorIS5_EEE16__on_zero_sharedEv, symObjAddr: 0x7C78, symBinAddr: 0xD9BC, symSize: 0xC }
  - { offset: 0x1E85C8, size: 0x8, addend: 0x0, symName: __ZNSt3__120__shared_ptr_emplaceIN10reanimated3css24ValueInterpolatorFactoryIJNS2_9CSSDoubleEEEENS_9allocatorIS5_EEE16__on_zero_sharedEv, symObjAddr: 0x7C78, symBinAddr: 0xD9BC, symSize: 0xC }
  - { offset: 0x1E8656, size: 0x8, addend: 0x0, symName: __ZNSt3__120__shared_ptr_emplaceIN10reanimated3css24ValueInterpolatorFactoryIJNS2_9CSSDoubleEEEENS_9allocatorIS5_EEE21__on_zero_shared_weakEv, symObjAddr: 0x7C84, symBinAddr: 0xD9C8, symSize: 0x4 }
  - { offset: 0x1E868A, size: 0x8, addend: 0x0, symName: __ZNSt3__120__shared_ptr_emplaceIN10reanimated3css24ValueInterpolatorFactoryIJNS2_9CSSDoubleEEEENS_9allocatorIS5_EEE21__on_zero_shared_weakEv, symObjAddr: 0x7C84, symBinAddr: 0xD9C8, symSize: 0x4 }
  - { offset: 0x1E86AE, size: 0x8, addend: 0x0, symName: __ZNSt3__120__shared_ptr_emplaceIN10reanimated3css24ValueInterpolatorFactoryIJNS2_9CSSDoubleEEEENS_9allocatorIS5_EEE21__on_zero_shared_weakEv, symObjAddr: 0x7C84, symBinAddr: 0xD9C8, symSize: 0x4 }
  - { offset: 0x1E86D3, size: 0x8, addend: 0x0, symName: __ZNSt3__120__shared_ptr_emplaceIN10reanimated3css24ValueInterpolatorFactoryIJNS2_9CSSDoubleEEEENS_9allocatorIS5_EEE21__on_zero_shared_weakEv, symObjAddr: 0x7C84, symBinAddr: 0xD9C8, symSize: 0x4 }
  - { offset: 0x1E870A, size: 0x8, addend: 0x0, symName: __ZNSt3__120__shared_ptr_emplaceIN10reanimated3css24ValueInterpolatorFactoryIJNS2_9CSSDoubleEEEENS_9allocatorIS5_EEE21__on_zero_shared_weakEv, symObjAddr: 0x7C84, symBinAddr: 0xD9C8, symSize: 0x4 }
  - { offset: 0x1E876E, size: 0x8, addend: 0x0, symName: __ZN10reanimated3css24ValueInterpolatorFactoryIJNS0_9CSSDoubleEEED1Ev, symObjAddr: 0x7C88, symBinAddr: 0xD9CC, symSize: 0x1C }
  - { offset: 0x1E879D, size: 0x8, addend: 0x0, symName: __ZN10reanimated3css24ValueInterpolatorFactoryIJNS0_9CSSDoubleEEED1Ev, symObjAddr: 0x7C88, symBinAddr: 0xD9CC, symSize: 0x1C }
  - { offset: 0x1E8987, size: 0x8, addend: 0x0, symName: __ZN10reanimated3css24ValueInterpolatorFactoryIJNS0_9CSSDoubleEEED0Ev, symObjAddr: 0x7CA4, symBinAddr: 0xD9E8, symSize: 0x4 }
  - { offset: 0x1E89B3, size: 0x8, addend: 0x0, symName: __ZNK10reanimated3css24ValueInterpolatorFactoryIJNS0_9CSSDoubleEEE18isDiscretePropertyEv, symObjAddr: 0x7CA8, symBinAddr: 0xD9EC, symSize: 0x8 }
  - { offset: 0x1E89DA, size: 0x8, addend: 0x0, symName: __ZNK10reanimated3css24ValueInterpolatorFactoryIJNS0_9CSSDoubleEEE15getDefaultValueEv, symObjAddr: 0x7CB0, symBinAddr: 0xD9F4, symSize: 0x8 }
  - { offset: 0x1E8A9D, size: 0x8, addend: 0x0, symName: __ZNK10reanimated3css24ValueInterpolatorFactoryIJNS0_9CSSDoubleEEE6createERKNSt3__16vectorINS4_12basic_stringIcNS4_11char_traitsIcEENS4_9allocatorIcEEEENS9_ISB_EEEERKNS4_10shared_ptrINS0_20ViewStylesRepositoryEEE, symObjAddr: 0x7CB8, symBinAddr: 0xD9FC, symSize: 0x44 }
  - { offset: 0x1E8B80, size: 0x8, addend: 0x0, symName: __ZN10reanimated3css15CSSValueVariantIJNS0_9CSSDoubleEEED0Ev, symObjAddr: 0x7CFC, symBinAddr: 0xDA40, symSize: 0x4 }
  - { offset: 0x1E91B9, size: 0x8, addend: 0x0, symName: __ZNSt3__120__shared_ptr_emplaceIN10reanimated3css17ValueInterpolatorIJNS2_9CSSDoubleEEEENS_9allocatorIS5_EEEC2B8ne200100IJRKNS_6vectorINS_12basic_stringIcNS_11char_traitsIcEENS6_IcEEEENS6_ISF_EEEERKNS2_15CSSValueVariantIJS4_EEERKNS_10shared_ptrINS2_20ViewStylesRepositoryEEEES7_Li0EEES7_DpOT_, symObjAddr: 0x7DB8, symBinAddr: 0xDAFC, symSize: 0x4C }
  - { offset: 0x1E943C, size: 0x8, addend: 0x0, symName: __ZN10reanimated3css17ValueInterpolatorIJNS0_9CSSDoubleEEEC2ERKNSt3__16vectorINS4_12basic_stringIcNS4_11char_traitsIcEENS4_9allocatorIcEEEENS9_ISB_EEEERKNS0_15CSSValueVariantIJS2_EEERKNS4_10shared_ptrINS0_20ViewStylesRepositoryEEE, symObjAddr: 0x7E4C, symBinAddr: 0xDB90, symSize: 0x100 }
  - { offset: 0x1E9CE5, size: 0x8, addend: 0x0, symName: __ZNSt3__120__shared_ptr_emplaceIN10reanimated3css17ValueInterpolatorIJNS2_9CSSDoubleEEEENS_9allocatorIS5_EEED1Ev, symObjAddr: 0x7E04, symBinAddr: 0xDB48, symSize: 0x14 }
  - { offset: 0x1E9D09, size: 0x8, addend: 0x0, symName: __ZNSt3__120__shared_ptr_emplaceIN10reanimated3css17ValueInterpolatorIJNS2_9CSSDoubleEEEENS_9allocatorIS5_EEED1Ev, symObjAddr: 0x7E04, symBinAddr: 0xDB48, symSize: 0x14 }
  - { offset: 0x1E9D40, size: 0x8, addend: 0x0, symName: __ZNSt3__120__shared_ptr_emplaceIN10reanimated3css17ValueInterpolatorIJNS2_9CSSDoubleEEEENS_9allocatorIS5_EEED0Ev, symObjAddr: 0x7E18, symBinAddr: 0xDB5C, symSize: 0x24 }
  - { offset: 0x1E9E16, size: 0x8, addend: 0x0, symName: __ZNSt3__120__shared_ptr_emplaceIN10reanimated3css17ValueInterpolatorIJNS2_9CSSDoubleEEEENS_9allocatorIS5_EEE16__on_zero_sharedEv, symObjAddr: 0x7E3C, symBinAddr: 0xDB80, symSize: 0xC }
  - { offset: 0x1E9E40, size: 0x8, addend: 0x0, symName: __ZNSt3__120__shared_ptr_emplaceIN10reanimated3css17ValueInterpolatorIJNS2_9CSSDoubleEEEENS_9allocatorIS5_EEE16__on_zero_sharedEv, symObjAddr: 0x7E3C, symBinAddr: 0xDB80, symSize: 0xC }
  - { offset: 0x1E9E5F, size: 0x8, addend: 0x0, symName: __ZNSt3__120__shared_ptr_emplaceIN10reanimated3css17ValueInterpolatorIJNS2_9CSSDoubleEEEENS_9allocatorIS5_EEE16__on_zero_sharedEv, symObjAddr: 0x7E3C, symBinAddr: 0xDB80, symSize: 0xC }
  - { offset: 0x1E9E7E, size: 0x8, addend: 0x0, symName: __ZNSt3__120__shared_ptr_emplaceIN10reanimated3css17ValueInterpolatorIJNS2_9CSSDoubleEEEENS_9allocatorIS5_EEE16__on_zero_sharedEv, symObjAddr: 0x7E3C, symBinAddr: 0xDB80, symSize: 0xC }
  - { offset: 0x1E9EAA, size: 0x8, addend: 0x0, symName: __ZNSt3__120__shared_ptr_emplaceIN10reanimated3css17ValueInterpolatorIJNS2_9CSSDoubleEEEENS_9allocatorIS5_EEE21__on_zero_shared_weakEv, symObjAddr: 0x7E48, symBinAddr: 0xDB8C, symSize: 0x4 }
  - { offset: 0x1E9EDE, size: 0x8, addend: 0x0, symName: __ZNSt3__120__shared_ptr_emplaceIN10reanimated3css17ValueInterpolatorIJNS2_9CSSDoubleEEEENS_9allocatorIS5_EEE21__on_zero_shared_weakEv, symObjAddr: 0x7E48, symBinAddr: 0xDB8C, symSize: 0x4 }
  - { offset: 0x1E9F02, size: 0x8, addend: 0x0, symName: __ZNSt3__120__shared_ptr_emplaceIN10reanimated3css17ValueInterpolatorIJNS2_9CSSDoubleEEEENS_9allocatorIS5_EEE21__on_zero_shared_weakEv, symObjAddr: 0x7E48, symBinAddr: 0xDB8C, symSize: 0x4 }
  - { offset: 0x1E9F27, size: 0x8, addend: 0x0, symName: __ZNSt3__120__shared_ptr_emplaceIN10reanimated3css17ValueInterpolatorIJNS2_9CSSDoubleEEEENS_9allocatorIS5_EEE21__on_zero_shared_weakEv, symObjAddr: 0x7E48, symBinAddr: 0xDB8C, symSize: 0x4 }
  - { offset: 0x1E9F5F, size: 0x8, addend: 0x0, symName: __ZNSt3__120__shared_ptr_emplaceIN10reanimated3css17ValueInterpolatorIJNS2_9CSSDoubleEEEENS_9allocatorIS5_EEE21__on_zero_shared_weakEv, symObjAddr: 0x7E48, symBinAddr: 0xDB8C, symSize: 0x4 }
  - { offset: 0x1EA07F, size: 0x8, addend: 0x0, symName: __ZNK10reanimated3css17ValueInterpolatorIJNS0_9CSSDoubleEEE13getStyleValueERKNSt3__110shared_ptrIKN8facebook5react10ShadowNodeEEE, symObjAddr: 0x7F4C, symBinAddr: 0xDC90, symSize: 0x44 }
  - { offset: 0x1EA10D, size: 0x8, addend: 0x0, symName: __ZNK10reanimated3css17ValueInterpolatorIJNS0_9CSSDoubleEEE13getResetStyleERKNSt3__110shared_ptrIKN8facebook5react10ShadowNodeEEE, symObjAddr: 0x7F90, symBinAddr: 0xDCD4, symSize: 0xC8 }
  - { offset: 0x1EA4B8, size: 0x8, addend: 0x0, symName: __ZNK10reanimated3css17ValueInterpolatorIJNS0_9CSSDoubleEEE21getFirstKeyframeValueEv, symObjAddr: 0x8058, symBinAddr: 0xDD9C, symSize: 0x40 }
  - { offset: 0x1EA4E2, size: 0x8, addend: 0x0, symName: __ZNK10reanimated3css17ValueInterpolatorIJNS0_9CSSDoubleEEE21getFirstKeyframeValueEv, symObjAddr: 0x8058, symBinAddr: 0xDD9C, symSize: 0x40 }
  - { offset: 0x1EA7CE, size: 0x8, addend: 0x0, symName: __ZNK10reanimated3css17ValueInterpolatorIJNS0_9CSSDoubleEEE20getLastKeyframeValueEv, symObjAddr: 0x8098, symBinAddr: 0xDDDC, symSize: 0x40 }
  - { offset: 0x1EA7EF, size: 0x8, addend: 0x0, symName: __ZNK10reanimated3css17ValueInterpolatorIJNS0_9CSSDoubleEEE20getLastKeyframeValueEv, symObjAddr: 0x8098, symBinAddr: 0xDDDC, symSize: 0x40 }
  - { offset: 0x1EA819, size: 0x8, addend: 0x0, symName: __ZNK10reanimated3css17ValueInterpolatorIJNS0_9CSSDoubleEEE20getLastKeyframeValueEv, symObjAddr: 0x8098, symBinAddr: 0xDDDC, symSize: 0x40 }
  - { offset: 0x1EAB0B, size: 0x8, addend: 0x0, symName: __ZNK10reanimated3css17ValueInterpolatorIJNS0_9CSSDoubleEEE33equalsReversingAdjustedStartValueERKN5folly7dynamicE, symObjAddr: 0x80D8, symBinAddr: 0xDE1C, symSize: 0x70 }
  - { offset: 0x1EAB76, size: 0x8, addend: 0x0, symName: __ZNK10reanimated3css17ValueInterpolatorIJNS0_9CSSDoubleEEE33equalsReversingAdjustedStartValueERKN5folly7dynamicE, symObjAddr: 0x80D8, symBinAddr: 0xDE1C, symSize: 0x70 }
  - { offset: 0x1EABB1, size: 0x8, addend: 0x0, symName: __ZNK10reanimated3css17ValueInterpolatorIJNS0_9CSSDoubleEEE33equalsReversingAdjustedStartValueERKN5folly7dynamicE, symObjAddr: 0x80D8, symBinAddr: 0xDE1C, symSize: 0x70 }
  - { offset: 0x1EAD47, size: 0x8, addend: 0x0, symName: __ZN10reanimated3css15CSSValueVariantIJNS0_9CSSDoubleEEEC2ERKN5folly7dynamicE, symObjAddr: 0x88EC, symBinAddr: 0xE630, symSize: 0x140 }
  - { offset: 0x1EBAFA, size: 0x8, addend: 0x0, symName: __ZN10reanimated3css17ValueInterpolatorIJNS0_9CSSDoubleEEE15updateKeyframesERN8facebook3jsi7RuntimeERKNS5_5ValueE, symObjAddr: 0x8148, symBinAddr: 0xDE8C, symSize: 0x18C }
  - { offset: 0x1ECA30, size: 0x8, addend: 0x0, symName: __ZNSt3__16vectorIN10reanimated3css13ValueKeyframeIJNS2_9CSSDoubleEEEENS_9allocatorIS5_EEE7reserveEm, symObjAddr: 0x8AA0, symBinAddr: 0xE7E4, symSize: 0xCC }
  - { offset: 0x1ECD02, size: 0x8, addend: 0x0, symName: __ZN10reanimated3css15CSSValueVariantIJNS0_9CSSDoubleEEEC2ERN8facebook3jsi7RuntimeERKNS5_5ValueE, symObjAddr: 0x8F0C, symBinAddr: 0xEC3C, symSize: 0x150 }
  - { offset: 0x1ED386, size: 0x8, addend: 0x0, symName: __ZNSt3__16vectorIN10reanimated3css13ValueKeyframeIJNS2_9CSSDoubleEEEENS_9allocatorIS5_EEE9push_backB8ne200100EOS5_, symObjAddr: 0x8B6C, symBinAddr: 0xE8B0, symSize: 0x3C }
  - { offset: 0x1ED87F, size: 0x8, addend: 0x0, symName: __ZN10reanimated3css17ValueInterpolatorIJNS0_9CSSDoubleEEE30updateKeyframesFromStyleChangeERKN5folly7dynamicES7_S7_, symObjAddr: 0x82D4, symBinAddr: 0xE018, symSize: 0x210 }
  - { offset: 0x1EFCBC, size: 0x8, addend: 0x0, symName: __ZNSt3__18optionalIN10reanimated3css15CSSValueVariantIJNS2_9CSSDoubleEEEEEaSB8ne200100IS5_vEERS6_OT_, symObjAddr: 0x90DC, symBinAddr: 0xEE0C, symSize: 0xB8 }
  - { offset: 0x1EFCE8, size: 0x8, addend: 0x0, symName: __ZNSt3__18optionalIN10reanimated3css15CSSValueVariantIJNS2_9CSSDoubleEEEEEaSB8ne200100IS5_vEERS6_OT_, symObjAddr: 0x90DC, symBinAddr: 0xEE0C, symSize: 0xB8 }
  - { offset: 0x1F0723, size: 0x8, addend: 0x0, symName: __ZNSt3__16vectorIN10reanimated3css13ValueKeyframeIJNS2_9CSSDoubleEEEENS_9allocatorIS5_EEE18__assign_with_sizeB8ne200100IPKS5_SB_EEvT_T0_l, symObjAddr: 0x9194, symBinAddr: 0xEEC4, symSize: 0x1B8 }
  - { offset: 0x1F151E, size: 0x8, addend: 0x0, symName: __ZNK10reanimated3css17ValueInterpolatorIJNS0_9CSSDoubleEEE11interpolateERKNSt3__110shared_ptrIKN8facebook5react10ShadowNodeEEERKNS5_INS0_24KeyframeProgressProviderEEE, symObjAddr: 0x84E4, symBinAddr: 0xE228, symSize: 0x388 }
  - { offset: 0x1F3EE1, size: 0x8, addend: 0x0, symName: __ZN10reanimated3css17ValueInterpolatorIJNS0_9CSSDoubleEEED1Ev, symObjAddr: 0x886C, symBinAddr: 0xE5B0, symSize: 0x4 }
  - { offset: 0x1F3EEC, size: 0x8, addend: 0x0, symName: __ZNK10reanimated3css17ValueInterpolatorIJNS0_9CSSDoubleEEE18getToKeyframeIndexERKNSt3__110shared_ptrINS0_24KeyframeProgressProviderEEE, symObjAddr: 0x9568, symBinAddr: 0xF298, symSize: 0xA8 }
  - { offset: 0x1F41F4, size: 0x8, addend: 0x0, symName: __ZNK10reanimated3css17ValueInterpolatorIJNS0_9CSSDoubleEEE16getFallbackValueERKNSt3__110shared_ptrIKN8facebook5react10ShadowNodeEEE, symObjAddr: 0x9610, symBinAddr: 0xF340, symSize: 0xE4 }
  - { offset: 0x1F48E4, size: 0x8, addend: 0x0, symName: __ZN10reanimated3css17ValueInterpolatorIJNS0_9CSSDoubleEEED1Ev, symObjAddr: 0x886C, symBinAddr: 0xE5B0, symSize: 0x4 }
  - { offset: 0x1F4908, size: 0x8, addend: 0x0, symName: __ZN10reanimated3css17ValueInterpolatorIJNS0_9CSSDoubleEEED1Ev, symObjAddr: 0x886C, symBinAddr: 0xE5B0, symSize: 0x4 }
  - { offset: 0x1F491C, size: 0x8, addend: 0x0, symName: __ZN10reanimated3css17ValueInterpolatorIJNS0_9CSSDoubleEEED2Ev, symObjAddr: 0x96F4, symBinAddr: 0xF424, symSize: 0x8C }
  - { offset: 0x1F4FB2, size: 0x8, addend: 0x0, symName: __ZN10reanimated3css17ValueInterpolatorIJNS0_9CSSDoubleEEED0Ev, symObjAddr: 0x8870, symBinAddr: 0xE5B4, symSize: 0x14 }
  - { offset: 0x1F5011, size: 0x8, addend: 0x0, symName: __ZNK10reanimated3css17ValueInterpolatorIJNS0_9CSSDoubleEEE16interpolateValueEdRKNS0_15CSSValueVariantIJS2_EEES7_RKNS0_30ValueInterpolatorUpdateContextE, symObjAddr: 0x8884, symBinAddr: 0xE5C8, symSize: 0xC }
  - { offset: 0x1F5334, size: 0x8, addend: 0x0, symName: __ZNSt3__116__variant_detail12__visitation6__base12__dispatcherIJLm0ELm0EEE10__dispatchB8ne200100IONS1_9__variant15__value_visitorIZNK10reanimated3css15CSSValueVariantIJNS9_9CSSDoubleEEEeqERKSC_EUlRKT_RKT0_E_EEJRKNS0_6__baseILNS0_6_TraitE1EJSB_EEESS_EEEDcSF_DpT0_, symObjAddr: 0x88E0, symBinAddr: 0xE624, symSize: 0xC }
  - { offset: 0x1F5656, size: 0x8, addend: 0x0, symName: __ZN10reanimated3css15CSSValueVariantIJNS0_9CSSDoubleEEE12tryConstructERKN5folly7dynamicE, symObjAddr: 0x8A2C, symBinAddr: 0xE770, symSize: 0x74 }
  - { offset: 0x1F5BCE, size: 0x8, addend: 0x0, symName: __ZNSt3__119__allocate_at_leastB8ne200100INS_9allocatorIN10reanimated3css13ValueKeyframeIJNS3_9CSSDoubleEEEEEEEENS_19__allocation_resultINS_16allocator_traitsIT_E7pointerEEERSA_m, symObjAddr: 0x8BBC, symBinAddr: 0xE8EC, symSize: 0x44 }
  - { offset: 0x1F5BD9, size: 0x8, addend: 0x0, symName: __ZNSt3__114__split_bufferIN10reanimated3css13ValueKeyframeIJNS2_9CSSDoubleEEEERNS_9allocatorIS5_EEED2Ev, symObjAddr: 0x8CC0, symBinAddr: 0xE9F0, symSize: 0x5C }
  - { offset: 0x1F6058, size: 0x8, addend: 0x0, symName: __ZNSt3__16vectorIN10reanimated3css13ValueKeyframeIJNS2_9CSSDoubleEEEENS_9allocatorIS5_EEE22__construct_one_at_endB8ne200100IJS5_EEEvDpOT_, symObjAddr: 0x8D1C, symBinAddr: 0xEA4C, symSize: 0x78 }
  - { offset: 0x1F60A0, size: 0x8, addend: 0x0, symName: __ZNSt3__16vectorIN10reanimated3css13ValueKeyframeIJNS2_9CSSDoubleEEEENS_9allocatorIS5_EEE22__construct_one_at_endB8ne200100IJS5_EEEvDpOT_, symObjAddr: 0x8D1C, symBinAddr: 0xEA4C, symSize: 0x78 }
  - { offset: 0x1F60C5, size: 0x8, addend: 0x0, symName: __ZNSt3__16vectorIN10reanimated3css13ValueKeyframeIJNS2_9CSSDoubleEEEENS_9allocatorIS5_EEE22__construct_one_at_endB8ne200100IJS5_EEEvDpOT_, symObjAddr: 0x8D1C, symBinAddr: 0xEA4C, symSize: 0x78 }
  - { offset: 0x1F695A, size: 0x8, addend: 0x0, symName: __ZNSt3__16vectorIN10reanimated3css13ValueKeyframeIJNS2_9CSSDoubleEEEENS_9allocatorIS5_EEE24__emplace_back_slow_pathIJS5_EEEPS5_DpOT_, symObjAddr: 0x8D94, symBinAddr: 0xEAC4, symSize: 0x178 }
  - { offset: 0x1F77B8, size: 0x8, addend: 0x0, symName: __ZN10reanimated3css15CSSValueVariantIJNS0_9CSSDoubleEEE12tryConstructERN8facebook3jsi7RuntimeERKNS5_5ValueE, symObjAddr: 0x905C, symBinAddr: 0xED8C, symSize: 0x80 }
  - { offset: 0x1F7CF8, size: 0x8, addend: 0x0, symName: __ZNSt3__16vectorIN10reanimated3css13ValueKeyframeIJNS2_9CSSDoubleEEEENS_9allocatorIS5_EEE13__vdeallocateEv, symObjAddr: 0x934C, symBinAddr: 0xF07C, symSize: 0x60 }
  - { offset: 0x1F8164, size: 0x8, addend: 0x0, symName: __ZNSt3__16vectorIN10reanimated3css13ValueKeyframeIJNS2_9CSSDoubleEEEENS_9allocatorIS5_EEE11__vallocateB8ne200100Em, symObjAddr: 0x93AC, symBinAddr: 0xF0DC, symSize: 0x48 }
  - { offset: 0x1F81BE, size: 0x8, addend: 0x0, symName: __ZNSt3__135__uninitialized_allocator_copy_implB8ne200100INS_9allocatorIN10reanimated3css13ValueKeyframeIJNS3_9CSSDoubleEEEEEEPKS6_S9_PS6_EET2_RT_T0_T1_SB_, symObjAddr: 0x93F4, symBinAddr: 0xF124, symSize: 0xA0 }
  - { offset: 0x1F81C9, size: 0x8, addend: 0x0, symName: __ZNSt3__123__optional_storage_baseIN10reanimated3css15CSSValueVariantIJNS2_9CSSDoubleEEEELb0EE13__assign_fromB8ne200100IRKNS_27__optional_copy_assign_baseIS5_Lb0EEEEEvOT_, symObjAddr: 0x9494, symBinAddr: 0xF1C4, symSize: 0xD4 }
  - { offset: 0x1F9300, size: 0x8, addend: 0x0, symName: __ZNSt3__16vectorIN10reanimated3css13ValueKeyframeIJNS2_9CSSDoubleEEEENS_9allocatorIS5_EEE16__destroy_vectorclB8ne200100Ev, symObjAddr: 0x9780, symBinAddr: 0xF4B0, symSize: 0x44 }
  - { offset: 0x1F9A76, size: 0x8, addend: 0x0, symName: __ZNSt3__116__variant_detail12__visitation6__base12__dispatcherIJLm0ELm0EEE10__dispatchB8ne200100IONS1_9__variant15__value_visitorIZNK10reanimated3css15CSSValueVariantIJNS9_9CSSDoubleEEE11interpolateEdRKSC_EUlRKT_RKT0_E_EEJRKNS0_6__baseILNS0_6_TraitE1EJSB_EEESS_EEEDcSF_DpT0_, symObjAddr: 0x98B8, symBinAddr: 0xF5E8, symSize: 0x84 }
  - { offset: 0x1F9EEC, size: 0x8, addend: 0x0, symName: __ZN10reanimated3css15CSSValueVariantIJNS0_9CSSDoubleEEE12tryConstructIRKiEEbOT_, symObjAddr: 0x9A00, symBinAddr: 0xF730, symSize: 0xD8 }
  - { offset: 0x1FA3F9, size: 0x8, addend: 0x0, symName: __ZN10reanimated3css15CSSValueVariantIJNS0_9CSSLengthENS0_10CSSKeywordEEED1Ev, symObjAddr: 0x9AD8, symBinAddr: 0xF808, symSize: 0x28 }
  - { offset: 0x1FA7B9, size: 0x8, addend: 0x0, symName: __ZNSt3__120__shared_ptr_emplaceIN10reanimated3css34ResolvableValueInterpolatorFactoryIJNS2_9CSSLengthENS2_10CSSKeywordEEEENS_9allocatorIS6_EEEC2B8ne200100IJRNS2_10RelativeToERKNS_12basic_stringIcNS_11char_traitsIcEENS7_IcEEEENS2_15CSSValueVariantIJS4_S5_EEEES8_Li0EEES8_DpOT_, symObjAddr: 0x9B70, symBinAddr: 0xF8A0, symSize: 0x50 }
  - { offset: 0x1FAA49, size: 0x8, addend: 0x0, symName: __ZN10reanimated3css34ResolvableValueInterpolatorFactoryIJNS0_9CSSLengthENS0_10CSSKeywordEEEC2INS0_15CSSValueVariantIJS2_S3_EEEEENS0_10RelativeToERKNSt3__112basic_stringIcNS9_11char_traitsIcEENS9_9allocatorIcEEEERKT_, symObjAddr: 0x9C08, symBinAddr: 0xF938, symSize: 0x98 }
  - { offset: 0x1FAD3E, size: 0x8, addend: 0x0, symName: __ZNSt3__120__shared_ptr_emplaceIN10reanimated3css34ResolvableValueInterpolatorFactoryIJNS2_9CSSLengthENS2_10CSSKeywordEEEENS_9allocatorIS6_EEED1Ev, symObjAddr: 0x9BC0, symBinAddr: 0xF8F0, symSize: 0x14 }
  - { offset: 0x1FAD62, size: 0x8, addend: 0x0, symName: __ZNSt3__120__shared_ptr_emplaceIN10reanimated3css34ResolvableValueInterpolatorFactoryIJNS2_9CSSLengthENS2_10CSSKeywordEEEENS_9allocatorIS6_EEED1Ev, symObjAddr: 0x9BC0, symBinAddr: 0xF8F0, symSize: 0x14 }
  - { offset: 0x1FAD99, size: 0x8, addend: 0x0, symName: __ZNSt3__120__shared_ptr_emplaceIN10reanimated3css34ResolvableValueInterpolatorFactoryIJNS2_9CSSLengthENS2_10CSSKeywordEEEENS_9allocatorIS6_EEED0Ev, symObjAddr: 0x9BD4, symBinAddr: 0xF904, symSize: 0x24 }
  - { offset: 0x1FAE6F, size: 0x8, addend: 0x0, symName: __ZNSt3__120__shared_ptr_emplaceIN10reanimated3css34ResolvableValueInterpolatorFactoryIJNS2_9CSSLengthENS2_10CSSKeywordEEEENS_9allocatorIS6_EEE16__on_zero_sharedEv, symObjAddr: 0x9BF8, symBinAddr: 0xF928, symSize: 0xC }
  - { offset: 0x1FAE99, size: 0x8, addend: 0x0, symName: __ZNSt3__120__shared_ptr_emplaceIN10reanimated3css34ResolvableValueInterpolatorFactoryIJNS2_9CSSLengthENS2_10CSSKeywordEEEENS_9allocatorIS6_EEE16__on_zero_sharedEv, symObjAddr: 0x9BF8, symBinAddr: 0xF928, symSize: 0xC }
  - { offset: 0x1FAEB8, size: 0x8, addend: 0x0, symName: __ZNSt3__120__shared_ptr_emplaceIN10reanimated3css34ResolvableValueInterpolatorFactoryIJNS2_9CSSLengthENS2_10CSSKeywordEEEENS_9allocatorIS6_EEE16__on_zero_sharedEv, symObjAddr: 0x9BF8, symBinAddr: 0xF928, symSize: 0xC }
  - { offset: 0x1FAED7, size: 0x8, addend: 0x0, symName: __ZNSt3__120__shared_ptr_emplaceIN10reanimated3css34ResolvableValueInterpolatorFactoryIJNS2_9CSSLengthENS2_10CSSKeywordEEEENS_9allocatorIS6_EEE16__on_zero_sharedEv, symObjAddr: 0x9BF8, symBinAddr: 0xF928, symSize: 0xC }
  - { offset: 0x1FAF03, size: 0x8, addend: 0x0, symName: __ZNSt3__120__shared_ptr_emplaceIN10reanimated3css34ResolvableValueInterpolatorFactoryIJNS2_9CSSLengthENS2_10CSSKeywordEEEENS_9allocatorIS6_EEE21__on_zero_shared_weakEv, symObjAddr: 0x9C04, symBinAddr: 0xF934, symSize: 0x4 }
  - { offset: 0x1FAF37, size: 0x8, addend: 0x0, symName: __ZNSt3__120__shared_ptr_emplaceIN10reanimated3css34ResolvableValueInterpolatorFactoryIJNS2_9CSSLengthENS2_10CSSKeywordEEEENS_9allocatorIS6_EEE21__on_zero_shared_weakEv, symObjAddr: 0x9C04, symBinAddr: 0xF934, symSize: 0x4 }
  - { offset: 0x1FAF5B, size: 0x8, addend: 0x0, symName: __ZNSt3__120__shared_ptr_emplaceIN10reanimated3css34ResolvableValueInterpolatorFactoryIJNS2_9CSSLengthENS2_10CSSKeywordEEEENS_9allocatorIS6_EEE21__on_zero_shared_weakEv, symObjAddr: 0x9C04, symBinAddr: 0xF934, symSize: 0x4 }
  - { offset: 0x1FAF80, size: 0x8, addend: 0x0, symName: __ZNSt3__120__shared_ptr_emplaceIN10reanimated3css34ResolvableValueInterpolatorFactoryIJNS2_9CSSLengthENS2_10CSSKeywordEEEENS_9allocatorIS6_EEE21__on_zero_shared_weakEv, symObjAddr: 0x9C04, symBinAddr: 0xF934, symSize: 0x4 }
  - { offset: 0x1FAFB7, size: 0x8, addend: 0x0, symName: __ZNSt3__120__shared_ptr_emplaceIN10reanimated3css34ResolvableValueInterpolatorFactoryIJNS2_9CSSLengthENS2_10CSSKeywordEEEENS_9allocatorIS6_EEE21__on_zero_shared_weakEv, symObjAddr: 0x9C04, symBinAddr: 0xF934, symSize: 0x4 }
  - { offset: 0x1FB124, size: 0x8, addend: 0x0, symName: __ZNSt3__116__variant_detail18__copy_constructorINS0_8__traitsIJN10reanimated3css9CSSLengthENS4_10CSSKeywordEEEELNS0_6_TraitE1EEC2B8ne200100ERKS9_, symObjAddr: 0x9E3C, symBinAddr: 0xFB6C, symSize: 0x44 }
  - { offset: 0x1FB307, size: 0x8, addend: 0x0, symName: __ZN10reanimated3css34ResolvableValueInterpolatorFactoryIJNS0_9CSSLengthENS0_10CSSKeywordEEED1Ev, symObjAddr: 0x9CA0, symBinAddr: 0xF9D0, symSize: 0x44 }
  - { offset: 0x1FB5CC, size: 0x8, addend: 0x0, symName: __ZN10reanimated3css34ResolvableValueInterpolatorFactoryIJNS0_9CSSLengthENS0_10CSSKeywordEEED0Ev, symObjAddr: 0x9CE4, symBinAddr: 0xFA14, symSize: 0x44 }
  - { offset: 0x1FB89E, size: 0x8, addend: 0x0, symName: __ZNK10reanimated3css34ResolvableValueInterpolatorFactoryIJNS0_9CSSLengthENS0_10CSSKeywordEEE15getDefaultValueEv, symObjAddr: 0x9D28, symBinAddr: 0xFA58, symSize: 0x8 }
  - { offset: 0x1FB967, size: 0x8, addend: 0x0, symName: __ZNK10reanimated3css34ResolvableValueInterpolatorFactoryIJNS0_9CSSLengthENS0_10CSSKeywordEEE6createERKNSt3__16vectorINS5_12basic_stringIcNS5_11char_traitsIcEENS5_9allocatorIcEEEENSA_ISC_EEEERKNS5_10shared_ptrINS0_20ViewStylesRepositoryEEE, symObjAddr: 0x9D30, symBinAddr: 0xFA60, symSize: 0x4C }
  - { offset: 0x1FBA4A, size: 0x8, addend: 0x0, symName: __ZN10reanimated3css15CSSValueVariantIJNS0_9CSSLengthENS0_10CSSKeywordEEED0Ev, symObjAddr: 0x9D7C, symBinAddr: 0xFAAC, symSize: 0x28 }
  - { offset: 0x1FBFFF, size: 0x8, addend: 0x0, symName: __ZNSt3__116__variant_detail6__ctorINS0_8__traitsIJN10reanimated3css9CSSLengthENS4_10CSSKeywordEEEEE19__generic_constructB8ne200100IRKNS0_18__copy_constructorIS7_LNS0_6_TraitE1EEEEEvRS8_OT_, symObjAddr: 0x9E80, symBinAddr: 0xFBB0, symSize: 0x60 }
  - { offset: 0x1FC328, size: 0x8, addend: 0x0, symName: __ZNSt3__116__variant_detail12__visitation6__base12__dispatcherIJLm0EEE10__dispatchB8ne200100IOZNS0_6__dtorINS0_8__traitsIJN10reanimated3css9CSSLengthENS9_10CSSKeywordEEEELNS0_6_TraitE1EE9__destroyB8ne200100EvEUlRT_E_JRNS0_6__baseILSD_1EJSA_SB_EEEEEEDcSF_DpT0_, symObjAddr: 0x9F34, symBinAddr: 0xFC64, symSize: 0x4 }
  - { offset: 0x1FC3B2, size: 0x8, addend: 0x0, symName: __ZNSt3__116__variant_detail12__visitation6__base12__dispatcherIJLm1EEE10__dispatchB8ne200100IOZNS0_6__dtorINS0_8__traitsIJN10reanimated3css9CSSLengthENS9_10CSSKeywordEEEELNS0_6_TraitE1EE9__destroyB8ne200100EvEUlRT_E_JRNS0_6__baseILSD_1EJSA_SB_EEEEEEDcSF_DpT0_, symObjAddr: 0x9F38, symBinAddr: 0xFC68, symSize: 0x24 }
  - { offset: 0x1FC749, size: 0x8, addend: 0x0, symName: __ZNSt3__116__variant_detail12__visitation6__base12__dispatcherIJLm0EEE10__dispatchB8ne200100IOZNS0_6__ctorINS0_8__traitsIJN10reanimated3css9CSSLengthENS9_10CSSKeywordEEEEE19__generic_constructB8ne200100IRKNS0_18__copy_constructorISC_LNS0_6_TraitE1EEEEEvRSD_OT_EUlSM_E_JRKNS0_6__baseILSG_1EJSA_SB_EEEEEEDcSL_DpT0_, symObjAddr: 0x9F5C, symBinAddr: 0xFC8C, symSize: 0x28 }
  - { offset: 0x1FC77F, size: 0x8, addend: 0x0, symName: __ZNSt3__116__variant_detail12__visitation6__base12__dispatcherIJLm0EEE10__dispatchB8ne200100IOZNS0_6__ctorINS0_8__traitsIJN10reanimated3css9CSSLengthENS9_10CSSKeywordEEEEE19__generic_constructB8ne200100IRKNS0_18__copy_constructorISC_LNS0_6_TraitE1EEEEEvRSD_OT_EUlSM_E_JRKNS0_6__baseILSG_1EJSA_SB_EEEEEEDcSL_DpT0_, symObjAddr: 0x9F5C, symBinAddr: 0xFC8C, symSize: 0x28 }
  - { offset: 0x1FC7A5, size: 0x8, addend: 0x0, symName: __ZNSt3__116__variant_detail12__visitation6__base12__dispatcherIJLm0EEE10__dispatchB8ne200100IOZNS0_6__ctorINS0_8__traitsIJN10reanimated3css9CSSLengthENS9_10CSSKeywordEEEEE19__generic_constructB8ne200100IRKNS0_18__copy_constructorISC_LNS0_6_TraitE1EEEEEvRSD_OT_EUlSM_E_JRKNS0_6__baseILSG_1EJSA_SB_EEEEEEDcSL_DpT0_, symObjAddr: 0x9F5C, symBinAddr: 0xFC8C, symSize: 0x28 }
  - { offset: 0x1FC9DA, size: 0x8, addend: 0x0, symName: __ZNSt3__116__variant_detail12__visitation6__base12__dispatcherIJLm1EEE10__dispatchB8ne200100IOZNS0_6__ctorINS0_8__traitsIJN10reanimated3css9CSSLengthENS9_10CSSKeywordEEEEE19__generic_constructB8ne200100IRKNS0_18__copy_constructorISC_LNS0_6_TraitE1EEEEEvRSD_OT_EUlSM_E_JRKNS0_6__baseILSG_1EJSA_SB_EEEEEEDcSL_DpT0_, symObjAddr: 0x9F84, symBinAddr: 0xFCB4, symSize: 0x68 }
  - { offset: 0x1FCCF6, size: 0x8, addend: 0x0, symName: __ZNSt3__116__variant_detail12__visitation6__base12__dispatcherIJLm0EEE10__dispatchB8ne200100IONS1_9__variant15__value_visitorIZNK10reanimated3css15CSSValueVariantIJNS9_9CSSLengthENS9_10CSSKeywordEEE9toDynamicEvEUlRKT_E_EEJRKNS0_6__baseILNS0_6_TraitE1EJSB_SC_EEEEEEDcSE_DpT0_, symObjAddr: 0x9FEC, symBinAddr: 0xFD1C, symSize: 0x10 }
  - { offset: 0x1FCE3E, size: 0x8, addend: 0x0, symName: __ZNSt3__116__variant_detail12__visitation6__base12__dispatcherIJLm1EEE10__dispatchB8ne200100IONS1_9__variant15__value_visitorIZNK10reanimated3css15CSSValueVariantIJNS9_9CSSLengthENS9_10CSSKeywordEEE9toDynamicEvEUlRKT_E_EEJRKNS0_6__baseILNS0_6_TraitE1EJSB_SC_EEEEEEDcSE_DpT0_, symObjAddr: 0x9FFC, symBinAddr: 0xFD2C, symSize: 0x10 }
  - { offset: 0x1FCFA4, size: 0x8, addend: 0x0, symName: __ZNSt3__116__variant_detail12__visitation6__base12__dispatcherIJLm0EEE10__dispatchB8ne200100IONS1_9__variant15__value_visitorIZNK10reanimated3css15CSSValueVariantIJNS9_9CSSLengthENS9_10CSSKeywordEEE8toStringEvEUlRKT_E_EEJRKNS0_6__baseILNS0_6_TraitE1EJSB_SC_EEEEEEDcSE_DpT0_, symObjAddr: 0xA00C, symBinAddr: 0xFD3C, symSize: 0x10 }
  - { offset: 0x1FD0EC, size: 0x8, addend: 0x0, symName: __ZNSt3__116__variant_detail12__visitation6__base12__dispatcherIJLm1EEE10__dispatchB8ne200100IONS1_9__variant15__value_visitorIZNK10reanimated3css15CSSValueVariantIJNS9_9CSSLengthENS9_10CSSKeywordEEE8toStringEvEUlRKT_E_EEJRKNS0_6__baseILNS0_6_TraitE1EJSB_SC_EEEEEEDcSE_DpT0_, symObjAddr: 0xA01C, symBinAddr: 0xFD4C, symSize: 0x10 }
  - { offset: 0x1FD46B, size: 0x8, addend: 0x0, symName: __ZNSt3__120__shared_ptr_emplaceIN10reanimated3css27ResolvableValueInterpolatorIJNS2_9CSSLengthENS2_10CSSKeywordEEEENS_9allocatorIS6_EEEC2B8ne200100IJRKNS_6vectorINS_12basic_stringIcNS_11char_traitsIcEENS7_IcEEEENS7_ISG_EEEERKNS2_15CSSValueVariantIJS4_S5_EEERKNS_10shared_ptrINS2_20ViewStylesRepositoryEEERKNS2_10RelativeToERKSG_ES8_Li0EEES8_DpOT_, symObjAddr: 0xA0B4, symBinAddr: 0xFDE4, symSize: 0x4C }
  - { offset: 0x1FD6ED, size: 0x8, addend: 0x0, symName: __ZNSt3__120__shared_ptr_emplaceIN10reanimated3css27ResolvableValueInterpolatorIJNS2_9CSSLengthENS2_10CSSKeywordEEEENS_9allocatorIS6_EEED1Ev, symObjAddr: 0xA100, symBinAddr: 0xFE30, symSize: 0x14 }
  - { offset: 0x1FD711, size: 0x8, addend: 0x0, symName: __ZNSt3__120__shared_ptr_emplaceIN10reanimated3css27ResolvableValueInterpolatorIJNS2_9CSSLengthENS2_10CSSKeywordEEEENS_9allocatorIS6_EEED1Ev, symObjAddr: 0xA100, symBinAddr: 0xFE30, symSize: 0x14 }
  - { offset: 0x1FD748, size: 0x8, addend: 0x0, symName: __ZNSt3__120__shared_ptr_emplaceIN10reanimated3css27ResolvableValueInterpolatorIJNS2_9CSSLengthENS2_10CSSKeywordEEEENS_9allocatorIS6_EEED0Ev, symObjAddr: 0xA114, symBinAddr: 0xFE44, symSize: 0x24 }
  - { offset: 0x1FD81E, size: 0x8, addend: 0x0, symName: __ZNSt3__120__shared_ptr_emplaceIN10reanimated3css27ResolvableValueInterpolatorIJNS2_9CSSLengthENS2_10CSSKeywordEEEENS_9allocatorIS6_EEE16__on_zero_sharedEv, symObjAddr: 0xA138, symBinAddr: 0xFE68, symSize: 0xC }
  - { offset: 0x1FD848, size: 0x8, addend: 0x0, symName: __ZNSt3__120__shared_ptr_emplaceIN10reanimated3css27ResolvableValueInterpolatorIJNS2_9CSSLengthENS2_10CSSKeywordEEEENS_9allocatorIS6_EEE16__on_zero_sharedEv, symObjAddr: 0xA138, symBinAddr: 0xFE68, symSize: 0xC }
  - { offset: 0x1FD867, size: 0x8, addend: 0x0, symName: __ZNSt3__120__shared_ptr_emplaceIN10reanimated3css27ResolvableValueInterpolatorIJNS2_9CSSLengthENS2_10CSSKeywordEEEENS_9allocatorIS6_EEE16__on_zero_sharedEv, symObjAddr: 0xA138, symBinAddr: 0xFE68, symSize: 0xC }
  - { offset: 0x1FD886, size: 0x8, addend: 0x0, symName: __ZNSt3__120__shared_ptr_emplaceIN10reanimated3css27ResolvableValueInterpolatorIJNS2_9CSSLengthENS2_10CSSKeywordEEEENS_9allocatorIS6_EEE16__on_zero_sharedEv, symObjAddr: 0xA138, symBinAddr: 0xFE68, symSize: 0xC }
  - { offset: 0x1FD8B2, size: 0x8, addend: 0x0, symName: __ZNSt3__120__shared_ptr_emplaceIN10reanimated3css27ResolvableValueInterpolatorIJNS2_9CSSLengthENS2_10CSSKeywordEEEENS_9allocatorIS6_EEE21__on_zero_shared_weakEv, symObjAddr: 0xA144, symBinAddr: 0xFE74, symSize: 0x4 }
  - { offset: 0x1FD8E6, size: 0x8, addend: 0x0, symName: __ZNSt3__120__shared_ptr_emplaceIN10reanimated3css27ResolvableValueInterpolatorIJNS2_9CSSLengthENS2_10CSSKeywordEEEENS_9allocatorIS6_EEE21__on_zero_shared_weakEv, symObjAddr: 0xA144, symBinAddr: 0xFE74, symSize: 0x4 }
  - { offset: 0x1FD90A, size: 0x8, addend: 0x0, symName: __ZNSt3__120__shared_ptr_emplaceIN10reanimated3css27ResolvableValueInterpolatorIJNS2_9CSSLengthENS2_10CSSKeywordEEEENS_9allocatorIS6_EEE21__on_zero_shared_weakEv, symObjAddr: 0xA144, symBinAddr: 0xFE74, symSize: 0x4 }
  - { offset: 0x1FD92F, size: 0x8, addend: 0x0, symName: __ZNSt3__120__shared_ptr_emplaceIN10reanimated3css27ResolvableValueInterpolatorIJNS2_9CSSLengthENS2_10CSSKeywordEEEENS_9allocatorIS6_EEE21__on_zero_shared_weakEv, symObjAddr: 0xA144, symBinAddr: 0xFE74, symSize: 0x4 }
  - { offset: 0x1FD967, size: 0x8, addend: 0x0, symName: __ZNSt3__120__shared_ptr_emplaceIN10reanimated3css27ResolvableValueInterpolatorIJNS2_9CSSLengthENS2_10CSSKeywordEEEENS_9allocatorIS6_EEE21__on_zero_shared_weakEv, symObjAddr: 0xA144, symBinAddr: 0xFE74, symSize: 0x4 }
  - { offset: 0x1FDA47, size: 0x8, addend: 0x0, symName: __ZN10reanimated3css17ValueInterpolatorIJNS0_9CSSLengthENS0_10CSSKeywordEEEC2ERKNSt3__16vectorINS5_12basic_stringIcNS5_11char_traitsIcEENS5_9allocatorIcEEEENSA_ISC_EEEERKNS0_15CSSValueVariantIJS2_S3_EEERKNS5_10shared_ptrINS0_20ViewStylesRepositoryEEE, symObjAddr: 0xA20C, symBinAddr: 0xFF3C, symSize: 0xE8 }
  - { offset: 0x1FDF98, size: 0x8, addend: 0x0, symName: __ZNK10reanimated3css17ValueInterpolatorIJNS0_9CSSLengthENS0_10CSSKeywordEEE13getStyleValueERKNSt3__110shared_ptrIKN8facebook5react10ShadowNodeEEE, symObjAddr: 0xA2F4, symBinAddr: 0x10024, symSize: 0x44 }
  - { offset: 0x1FE010, size: 0x8, addend: 0x0, symName: __ZNK10reanimated3css17ValueInterpolatorIJNS0_9CSSLengthENS0_10CSSKeywordEEE13getResetStyleERKNSt3__110shared_ptrIKN8facebook5react10ShadowNodeEEE, symObjAddr: 0xA338, symBinAddr: 0x10068, symSize: 0xAC }
  - { offset: 0x1FE1F9, size: 0x8, addend: 0x0, symName: __ZNK10reanimated3css17ValueInterpolatorIJNS0_9CSSLengthENS0_10CSSKeywordEEE21getFirstKeyframeValueEv, symObjAddr: 0xA3E4, symBinAddr: 0x10114, symSize: 0x24 }
  - { offset: 0x1FE223, size: 0x8, addend: 0x0, symName: __ZNK10reanimated3css17ValueInterpolatorIJNS0_9CSSLengthENS0_10CSSKeywordEEE21getFirstKeyframeValueEv, symObjAddr: 0xA3E4, symBinAddr: 0x10114, symSize: 0x24 }
  - { offset: 0x1FE36E, size: 0x8, addend: 0x0, symName: __ZNK10reanimated3css17ValueInterpolatorIJNS0_9CSSLengthENS0_10CSSKeywordEEE20getLastKeyframeValueEv, symObjAddr: 0xA408, symBinAddr: 0x10138, symSize: 0x24 }
  - { offset: 0x1FE398, size: 0x8, addend: 0x0, symName: __ZNK10reanimated3css17ValueInterpolatorIJNS0_9CSSLengthENS0_10CSSKeywordEEE20getLastKeyframeValueEv, symObjAddr: 0xA408, symBinAddr: 0x10138, symSize: 0x24 }
  - { offset: 0x1FE52D, size: 0x8, addend: 0x0, symName: __ZNK10reanimated3css17ValueInterpolatorIJNS0_9CSSLengthENS0_10CSSKeywordEEE33equalsReversingAdjustedStartValueERKN5folly7dynamicE, symObjAddr: 0xA42C, symBinAddr: 0x1015C, symSize: 0x94 }
  - { offset: 0x1FE99D, size: 0x8, addend: 0x0, symName: __ZN10reanimated3css15CSSValueVariantIJNS0_9CSSLengthENS0_10CSSKeywordEEEC2ERKN5folly7dynamicE, symObjAddr: 0xB200, symBinAddr: 0x10F30, symSize: 0x128 }
  - { offset: 0x1FF3C8, size: 0x8, addend: 0x0, symName: __ZN10reanimated3css17ValueInterpolatorIJNS0_9CSSLengthENS0_10CSSKeywordEEE15updateKeyframesERN8facebook3jsi7RuntimeERKNS6_5ValueE, symObjAddr: 0xA4C0, symBinAddr: 0x101F0, symSize: 0x1C8 }
  - { offset: 0x200B7D, size: 0x8, addend: 0x0, symName: __ZNSt3__16vectorIN10reanimated3css13ValueKeyframeIJNS2_9CSSLengthENS2_10CSSKeywordEEEENS_9allocatorIS6_EEE7reserveEm, symObjAddr: 0xB410, symBinAddr: 0x11140, symSize: 0xB8 }
  - { offset: 0x200DC2, size: 0x8, addend: 0x0, symName: __ZN10reanimated3css15CSSValueVariantIJNS0_9CSSLengthENS0_10CSSKeywordEEEC2ERN8facebook3jsi7RuntimeERKNS6_5ValueE, symObjAddr: 0xB9F0, symBinAddr: 0x116D8, symSize: 0x138 }
  - { offset: 0x2012ED, size: 0x8, addend: 0x0, symName: __ZNSt3__116__variant_detail18__move_constructorINS0_8__traitsIJN10reanimated3css9CSSLengthENS4_10CSSKeywordEEEELNS0_6_TraitE1EEC2B8ne200100EOS9_, symObjAddr: 0xB650, symBinAddr: 0x11338, symSize: 0x34 }
  - { offset: 0x201402, size: 0x8, addend: 0x0, symName: __ZNSt3__16vectorIN10reanimated3css13ValueKeyframeIJNS2_9CSSLengthENS2_10CSSKeywordEEEENS_9allocatorIS6_EEE9push_backB8ne200100EOS6_, symObjAddr: 0xB4C8, symBinAddr: 0x111F8, symSize: 0x3C }
  - { offset: 0x201854, size: 0x8, addend: 0x0, symName: __ZN10reanimated3css17ValueInterpolatorIJNS0_9CSSLengthENS0_10CSSKeywordEEE30updateKeyframesFromStyleChangeERKN5folly7dynamicES8_S8_, symObjAddr: 0xA688, symBinAddr: 0x103B8, symSize: 0x424 }
  - { offset: 0x204D4C, size: 0x8, addend: 0x0, symName: __ZNSt3__18optionalIN10reanimated3css15CSSValueVariantIJNS2_9CSSLengthENS2_10CSSKeywordEEEEEaSB8ne200100IS6_vEERS7_OT_, symObjAddr: 0xBC2C, symBinAddr: 0x11914, symSize: 0x64 }
  - { offset: 0x204FBD, size: 0x8, addend: 0x0, symName: __ZNSt3__123__optional_storage_baseIN10reanimated3css15CSSValueVariantIJNS2_9CSSLengthENS2_10CSSKeywordEEEELb0EE13__assign_fromB8ne200100INS_27__optional_move_assign_baseIS6_Lb0EEEEEvOT_, symObjAddr: 0xBD5C, symBinAddr: 0x11A44, symSize: 0x7C }
  - { offset: 0x2053D4, size: 0x8, addend: 0x0, symName: __ZNSt3__120__optional_copy_baseIN10reanimated3css15CSSValueVariantIJNS2_9CSSLengthENS2_10CSSKeywordEEEELb0EEC2B8ne200100ERKS7_, symObjAddr: 0xBDD8, symBinAddr: 0x11AC0, symSize: 0x84 }
  - { offset: 0x205829, size: 0x8, addend: 0x0, symName: __ZNSt3__16vectorIN10reanimated3css13ValueKeyframeIJNS2_9CSSLengthENS2_10CSSKeywordEEEENS_9allocatorIS6_EEE18__assign_with_sizeB8ne200100IPKS6_SC_EEvT_T0_l, symObjAddr: 0xBE5C, symBinAddr: 0x11B44, symSize: 0x18C }
  - { offset: 0x206252, size: 0x8, addend: 0x0, symName: __ZNK10reanimated3css17ValueInterpolatorIJNS0_9CSSLengthENS0_10CSSKeywordEEE11interpolateERKNSt3__110shared_ptrIKN8facebook5react10ShadowNodeEEERKNS6_INS0_24KeyframeProgressProviderEEE, symObjAddr: 0xAAAC, symBinAddr: 0x107DC, symSize: 0x220 }
  - { offset: 0x20795D, size: 0x8, addend: 0x0, symName: __ZNK10reanimated3css17ValueInterpolatorIJNS0_9CSSLengthENS0_10CSSKeywordEEE16getFallbackValueERKNSt3__110shared_ptrIKN8facebook5react10ShadowNodeEEE, symObjAddr: 0xC3E0, symBinAddr: 0x12008, symSize: 0xBC }
  - { offset: 0x207C42, size: 0x8, addend: 0x0, symName: __ZN10reanimated3css27ResolvableValueInterpolatorIJNS0_9CSSLengthENS0_10CSSKeywordEEED1Ev, symObjAddr: 0xACCC, symBinAddr: 0x109FC, symSize: 0x4 }
  - { offset: 0x207C66, size: 0x8, addend: 0x0, symName: __ZN10reanimated3css27ResolvableValueInterpolatorIJNS0_9CSSLengthENS0_10CSSKeywordEEED1Ev, symObjAddr: 0xACCC, symBinAddr: 0x109FC, symSize: 0x4 }
  - { offset: 0x207C7A, size: 0x8, addend: 0x0, symName: __ZN10reanimated3css27ResolvableValueInterpolatorIJNS0_9CSSLengthENS0_10CSSKeywordEEED2Ev, symObjAddr: 0xC49C, symBinAddr: 0x120C4, symSize: 0x40 }
  - { offset: 0x207DED, size: 0x8, addend: 0x0, symName: __ZN10reanimated3css27ResolvableValueInterpolatorIJNS0_9CSSLengthENS0_10CSSKeywordEEED0Ev, symObjAddr: 0xACD0, symBinAddr: 0x10A00, symSize: 0x14 }
  - { offset: 0x207E4C, size: 0x8, addend: 0x0, symName: __ZNK10reanimated3css27ResolvableValueInterpolatorIJNS0_9CSSLengthENS0_10CSSKeywordEEE16interpolateValueEdRKNS0_15CSSValueVariantIJS2_S3_EEES8_RKNS0_30ValueInterpolatorUpdateContextE, symObjAddr: 0xACE4, symBinAddr: 0x10A14, symSize: 0x48 }
  - { offset: 0x207EEF, size: 0x8, addend: 0x0, symName: __ZN10reanimated3css17ValueInterpolatorIJNS0_9CSSLengthENS0_10CSSKeywordEEED1Ev, symObjAddr: 0xAD2C, symBinAddr: 0x10A5C, symSize: 0x4 }
  - { offset: 0x207F13, size: 0x8, addend: 0x0, symName: __ZN10reanimated3css17ValueInterpolatorIJNS0_9CSSLengthENS0_10CSSKeywordEEED1Ev, symObjAddr: 0xAD2C, symBinAddr: 0x10A5C, symSize: 0x4 }
  - { offset: 0x207F27, size: 0x8, addend: 0x0, symName: __ZN10reanimated3css17ValueInterpolatorIJNS0_9CSSLengthENS0_10CSSKeywordEEED2Ev, symObjAddr: 0xAD50, symBinAddr: 0x10A80, symSize: 0x8C }
  - { offset: 0x2084BF, size: 0x8, addend: 0x0, symName: __ZN10reanimated3css17ValueInterpolatorIJNS0_9CSSLengthENS0_10CSSKeywordEEED0Ev, symObjAddr: 0xAD30, symBinAddr: 0x10A60, symSize: 0x14 }
  - { offset: 0x20851E, size: 0x8, addend: 0x0, symName: __ZNK10reanimated3css17ValueInterpolatorIJNS0_9CSSLengthENS0_10CSSKeywordEEE16interpolateValueEdRKNS0_15CSSValueVariantIJS2_S3_EEES8_RKNS0_30ValueInterpolatorUpdateContextE, symObjAddr: 0xAD44, symBinAddr: 0x10A74, symSize: 0xC }
  - { offset: 0x20863C, size: 0x8, addend: 0x0, symName: __ZNSt3__16vectorIN10reanimated3css13ValueKeyframeIJNS2_9CSSLengthENS2_10CSSKeywordEEEENS_9allocatorIS6_EEE16__destroy_vectorclB8ne200100Ev, symObjAddr: 0xADDC, symBinAddr: 0x10B0C, symSize: 0x7C }
  - { offset: 0x208CE3, size: 0x8, addend: 0x0, symName: __ZNSt3__116__variant_detail12__visitation6__base12__dispatcherIJLm0ELm0EEE10__dispatchB8ne200100IONS1_9__variant15__value_visitorIZNK10reanimated3css15CSSValueVariantIJNS9_9CSSLengthENS9_10CSSKeywordEEE11interpolateEdRKSD_EUlRKT_RKT0_E_EEJRKNS0_6__baseILNS0_6_TraitE1EJSB_SC_EEEST_EEEDcSG_DpT0_, symObjAddr: 0xAF24, symBinAddr: 0x10C54, symSize: 0x4 }
  - { offset: 0x208D28, size: 0x8, addend: 0x0, symName: __ZNSt3__116__variant_detail12__visitation6__base12__dispatcherIJLm0ELm0EEE10__dispatchB8ne200100IONS1_9__variant15__value_visitorIZNK10reanimated3css15CSSValueVariantIJNS9_9CSSLengthENS9_10CSSKeywordEEE11interpolateEdRKSD_EUlRKT_RKT0_E_EEJRKNS0_6__baseILNS0_6_TraitE1EJSB_SC_EEEST_EEEDcSG_DpT0_, symObjAddr: 0xAF24, symBinAddr: 0x10C54, symSize: 0x4 }
  - { offset: 0x208D57, size: 0x8, addend: 0x0, symName: __ZNSt3__116__variant_detail12__visitation6__base12__dispatcherIJLm0ELm0EEE10__dispatchB8ne200100IONS1_9__variant15__value_visitorIZNK10reanimated3css15CSSValueVariantIJNS9_9CSSLengthENS9_10CSSKeywordEEE11interpolateEdRKSD_EUlRKT_RKT0_E_EEJRKNS0_6__baseILNS0_6_TraitE1EJSB_SC_EEEST_EEEDcSG_DpT0_, symObjAddr: 0xAF24, symBinAddr: 0x10C54, symSize: 0x4 }
  - { offset: 0x208DAA, size: 0x8, addend: 0x0, symName: __ZNKSt3__116__variant_detail12__visitation9__variant15__value_visitorIZNK10reanimated3css15CSSValueVariantIJNS5_9CSSLengthENS5_10CSSKeywordEEE11interpolateEdRKS9_EUlRKT_RKT0_E_EclB8ne200100IJRKNS0_5__altILm0ES7_EESO_EEEDcDpOT_, symObjAddr: 0xAFA4, symBinAddr: 0x10CD4, symSize: 0x50 }
  - { offset: 0x208EFB, size: 0x8, addend: 0x0, symName: __ZNSt3__116__variant_detail12__visitation6__base12__dispatcherIJLm0ELm1EEE10__dispatchB8ne200100IONS1_9__variant15__value_visitorIZNK10reanimated3css15CSSValueVariantIJNS9_9CSSLengthENS9_10CSSKeywordEEE11interpolateEdRKSD_EUlRKT_RKT0_E_EEJRKNS0_6__baseILNS0_6_TraitE1EJSB_SC_EEEST_EEEDcSG_DpT0_, symObjAddr: 0xAF28, symBinAddr: 0x10C58, symSize: 0x3C }
  - { offset: 0x208F44, size: 0x8, addend: 0x0, symName: __ZNSt3__116__variant_detail12__visitation6__base12__dispatcherIJLm0ELm1EEE10__dispatchB8ne200100IONS1_9__variant15__value_visitorIZNK10reanimated3css15CSSValueVariantIJNS9_9CSSLengthENS9_10CSSKeywordEEE11interpolateEdRKSD_EUlRKT_RKT0_E_EEJRKNS0_6__baseILNS0_6_TraitE1EJSB_SC_EEEST_EEEDcSG_DpT0_, symObjAddr: 0xAF28, symBinAddr: 0x10C58, symSize: 0x3C }
  - { offset: 0x208F64, size: 0x8, addend: 0x0, symName: __ZNSt3__116__variant_detail12__visitation6__base12__dispatcherIJLm0ELm1EEE10__dispatchB8ne200100IONS1_9__variant15__value_visitorIZNK10reanimated3css15CSSValueVariantIJNS9_9CSSLengthENS9_10CSSKeywordEEE11interpolateEdRKSD_EUlRKT_RKT0_E_EEJRKNS0_6__baseILNS0_6_TraitE1EJSB_SC_EEEST_EEEDcSG_DpT0_, symObjAddr: 0xAF28, symBinAddr: 0x10C58, symSize: 0x3C }
  - { offset: 0x2091CE, size: 0x8, addend: 0x0, symName: __ZNSt3__116__variant_detail12__visitation6__base12__dispatcherIJLm1ELm0EEE10__dispatchB8ne200100IONS1_9__variant15__value_visitorIZNK10reanimated3css15CSSValueVariantIJNS9_9CSSLengthENS9_10CSSKeywordEEE11interpolateEdRKSD_EUlRKT_RKT0_E_EEJRKNS0_6__baseILNS0_6_TraitE1EJSB_SC_EEEST_EEEDcSG_DpT0_, symObjAddr: 0xAF64, symBinAddr: 0x10C94, symSize: 0x3C }
  - { offset: 0x209217, size: 0x8, addend: 0x0, symName: __ZNSt3__116__variant_detail12__visitation6__base12__dispatcherIJLm1ELm0EEE10__dispatchB8ne200100IONS1_9__variant15__value_visitorIZNK10reanimated3css15CSSValueVariantIJNS9_9CSSLengthENS9_10CSSKeywordEEE11interpolateEdRKSD_EUlRKT_RKT0_E_EEJRKNS0_6__baseILNS0_6_TraitE1EJSB_SC_EEEST_EEEDcSG_DpT0_, symObjAddr: 0xAF64, symBinAddr: 0x10C94, symSize: 0x3C }
  - { offset: 0x209237, size: 0x8, addend: 0x0, symName: __ZNSt3__116__variant_detail12__visitation6__base12__dispatcherIJLm1ELm0EEE10__dispatchB8ne200100IONS1_9__variant15__value_visitorIZNK10reanimated3css15CSSValueVariantIJNS9_9CSSLengthENS9_10CSSKeywordEEE11interpolateEdRKSD_EUlRKT_RKT0_E_EEJRKNS0_6__baseILNS0_6_TraitE1EJSB_SC_EEEST_EEEDcSG_DpT0_, symObjAddr: 0xAF64, symBinAddr: 0x10C94, symSize: 0x3C }
  - { offset: 0x209416, size: 0x8, addend: 0x0, symName: __ZNSt3__116__variant_detail12__visitation6__base12__dispatcherIJLm1ELm1EEE10__dispatchB8ne200100IONS1_9__variant15__value_visitorIZNK10reanimated3css15CSSValueVariantIJNS9_9CSSLengthENS9_10CSSKeywordEEE11interpolateEdRKSD_EUlRKT_RKT0_E_EEJRKNS0_6__baseILNS0_6_TraitE1EJSB_SC_EEEST_EEEDcSG_DpT0_, symObjAddr: 0xAFA0, symBinAddr: 0x10CD0, symSize: 0x4 }
  - { offset: 0x20945B, size: 0x8, addend: 0x0, symName: __ZNSt3__116__variant_detail12__visitation6__base12__dispatcherIJLm1ELm1EEE10__dispatchB8ne200100IONS1_9__variant15__value_visitorIZNK10reanimated3css15CSSValueVariantIJNS9_9CSSLengthENS9_10CSSKeywordEEE11interpolateEdRKSD_EUlRKT_RKT0_E_EEJRKNS0_6__baseILNS0_6_TraitE1EJSB_SC_EEEST_EEEDcSG_DpT0_, symObjAddr: 0xAFA0, symBinAddr: 0x10CD0, symSize: 0x4 }
  - { offset: 0x20948A, size: 0x8, addend: 0x0, symName: __ZNSt3__116__variant_detail12__visitation6__base12__dispatcherIJLm1ELm1EEE10__dispatchB8ne200100IONS1_9__variant15__value_visitorIZNK10reanimated3css15CSSValueVariantIJNS9_9CSSLengthENS9_10CSSKeywordEEE11interpolateEdRKSD_EUlRKT_RKT0_E_EEJRKNS0_6__baseILNS0_6_TraitE1EJSB_SC_EEEST_EEEDcSG_DpT0_, symObjAddr: 0xAFA0, symBinAddr: 0x10CD0, symSize: 0x4 }
  - { offset: 0x2094D3, size: 0x8, addend: 0x0, symName: __ZNKSt3__116__variant_detail12__visitation9__variant15__value_visitorIZNK10reanimated3css15CSSValueVariantIJNS5_9CSSLengthENS5_10CSSKeywordEEE11interpolateEdRKS9_EUlRKT_RKT0_E_EclB8ne200100IJRKNS0_5__altILm1ES8_EESO_EEEDcDpOT_, symObjAddr: 0xAFF4, symBinAddr: 0x10D24, symSize: 0xA0 }
  - { offset: 0x209962, size: 0x8, addend: 0x0, symName: __ZN10reanimated3css15CSSValueVariantIJNS0_9CSSLengthENS0_10CSSKeywordEEEC2IS3_EEOT_, symObjAddr: 0xB094, symBinAddr: 0x10DC4, symSize: 0x50 }
  - { offset: 0x209E66, size: 0x8, addend: 0x0, symName: __ZNSt3__116__variant_detail12__assignmentINS0_8__traitsIJN10reanimated3css9CSSLengthENS4_10CSSKeywordEEEEE12__assign_altB8ne200100ILm1ES6_S6_EEvRNS0_5__altIXT_ET0_EEOT1_, symObjAddr: 0xB0E4, symBinAddr: 0x10E14, symSize: 0xA8 }
  - { offset: 0x20A6B6, size: 0x8, addend: 0x0, symName: __ZNSt3__116__variant_detail12__visitation6__base12__dispatcherIJLm0ELm0EEE10__dispatchB8ne200100IONS1_9__variant15__value_visitorIZNK10reanimated3css15CSSValueVariantIJNS9_9CSSLengthENS9_10CSSKeywordEEEeqERKSD_EUlRKT_RKT0_E_EEJRKNS0_6__baseILNS0_6_TraitE1EJSB_SC_EEEST_EEEDcSG_DpT0_, symObjAddr: 0xB1D8, symBinAddr: 0x10F08, symSize: 0xC }
  - { offset: 0x20A7BF, size: 0x8, addend: 0x0, symName: __ZNSt3__116__variant_detail12__visitation6__base12__dispatcherIJLm0ELm1EEE10__dispatchB8ne200100IONS1_9__variant15__value_visitorIZNK10reanimated3css15CSSValueVariantIJNS9_9CSSLengthENS9_10CSSKeywordEEEeqERKSD_EUlRKT_RKT0_E_EEJRKNS0_6__baseILNS0_6_TraitE1EJSB_SC_EEEST_EEEDcSG_DpT0_, symObjAddr: 0xB1E4, symBinAddr: 0x10F14, symSize: 0x8 }
  - { offset: 0x20A820, size: 0x8, addend: 0x0, symName: __ZNSt3__116__variant_detail12__visitation6__base12__dispatcherIJLm1ELm0EEE10__dispatchB8ne200100IONS1_9__variant15__value_visitorIZNK10reanimated3css15CSSValueVariantIJNS9_9CSSLengthENS9_10CSSKeywordEEEeqERKSD_EUlRKT_RKT0_E_EEJRKNS0_6__baseILNS0_6_TraitE1EJSB_SC_EEEST_EEEDcSG_DpT0_, symObjAddr: 0xB1EC, symBinAddr: 0x10F1C, symSize: 0x8 }
  - { offset: 0x20A90C, size: 0x8, addend: 0x0, symName: __ZNSt3__116__variant_detail12__visitation6__base12__dispatcherIJLm1ELm1EEE10__dispatchB8ne200100IONS1_9__variant15__value_visitorIZNK10reanimated3css15CSSValueVariantIJNS9_9CSSLengthENS9_10CSSKeywordEEEeqERKSD_EUlRKT_RKT0_E_EEJRKNS0_6__baseILNS0_6_TraitE1EJSB_SC_EEEST_EEEDcSG_DpT0_, symObjAddr: 0xB1F4, symBinAddr: 0x10F24, symSize: 0xC }
  - { offset: 0x20AA15, size: 0x8, addend: 0x0, symName: __ZN10reanimated3css15CSSValueVariantIJNS0_9CSSLengthENS0_10CSSKeywordEEE12tryConstructERKN5folly7dynamicE, symObjAddr: 0xB328, symBinAddr: 0x11058, symSize: 0xE8 }
  - { offset: 0x20B35F, size: 0x8, addend: 0x0, symName: __ZNSt3__114__split_bufferIN10reanimated3css13ValueKeyframeIJNS2_9CSSLengthENS2_10CSSKeywordEEEERNS_9allocatorIS6_EEED2Ev, symObjAddr: 0xB7C8, symBinAddr: 0x114B0, symSize: 0x30 }
  - { offset: 0x20B475, size: 0x8, addend: 0x0, symName: __ZNSt3__16vectorIN10reanimated3css13ValueKeyframeIJNS2_9CSSLengthENS2_10CSSKeywordEEEENS_9allocatorIS6_EEE22__construct_one_at_endB8ne200100IJS6_EEEvDpOT_, symObjAddr: 0xB84C, symBinAddr: 0x11534, symSize: 0x68 }
  - { offset: 0x20B943, size: 0x8, addend: 0x0, symName: __ZNSt3__16vectorIN10reanimated3css13ValueKeyframeIJNS2_9CSSLengthENS2_10CSSKeywordEEEENS_9allocatorIS6_EEE24__emplace_back_slow_pathIJS6_EEEPS6_DpOT_, symObjAddr: 0xB8B4, symBinAddr: 0x1159C, symSize: 0x13C }
  - { offset: 0x20C217, size: 0x8, addend: 0x0, symName: __ZNSt3__128__exception_guard_exceptionsINS_29_AllocatorDestroyRangeReverseINS_9allocatorIN10reanimated3css13ValueKeyframeIJNS4_9CSSLengthENS4_10CSSKeywordEEEEEEPS8_EEED2B8ne200100Ev, symObjAddr: 0xB74C, symBinAddr: 0x11434, symSize: 0x34 }
  - { offset: 0x20C258, size: 0x8, addend: 0x0, symName: __ZNSt3__116__variant_detail6__ctorINS0_8__traitsIJN10reanimated3css9CSSLengthENS4_10CSSKeywordEEEEE19__generic_constructB8ne200100INS0_18__move_constructorIS7_LNS0_6_TraitE1EEEEEvRS8_OT_, symObjAddr: 0xB684, symBinAddr: 0x1136C, symSize: 0x60 }
  - { offset: 0x20C4CB, size: 0x8, addend: 0x0, symName: __ZNSt3__116__variant_detail12__visitation6__base12__dispatcherIJLm0EEE10__dispatchB8ne200100IOZNS0_6__ctorINS0_8__traitsIJN10reanimated3css9CSSLengthENS9_10CSSKeywordEEEEE19__generic_constructB8ne200100INS0_18__move_constructorISC_LNS0_6_TraitE1EEEEEvRSD_OT_EUlSK_E_JONS0_6__baseILSG_1EJSA_SB_EEEEEEDcSJ_DpT0_, symObjAddr: 0xB6E4, symBinAddr: 0x113CC, symSize: 0x28 }
  - { offset: 0x20C501, size: 0x8, addend: 0x0, symName: __ZNSt3__116__variant_detail12__visitation6__base12__dispatcherIJLm0EEE10__dispatchB8ne200100IOZNS0_6__ctorINS0_8__traitsIJN10reanimated3css9CSSLengthENS9_10CSSKeywordEEEEE19__generic_constructB8ne200100INS0_18__move_constructorISC_LNS0_6_TraitE1EEEEEvRSD_OT_EUlSK_E_JONS0_6__baseILSG_1EJSA_SB_EEEEEEDcSJ_DpT0_, symObjAddr: 0xB6E4, symBinAddr: 0x113CC, symSize: 0x28 }
  - { offset: 0x20C527, size: 0x8, addend: 0x0, symName: __ZNSt3__116__variant_detail12__visitation6__base12__dispatcherIJLm0EEE10__dispatchB8ne200100IOZNS0_6__ctorINS0_8__traitsIJN10reanimated3css9CSSLengthENS9_10CSSKeywordEEEEE19__generic_constructB8ne200100INS0_18__move_constructorISC_LNS0_6_TraitE1EEEEEvRSD_OT_EUlSK_E_JONS0_6__baseILSG_1EJSA_SB_EEEEEEDcSJ_DpT0_, symObjAddr: 0xB6E4, symBinAddr: 0x113CC, symSize: 0x28 }
  - { offset: 0x20C6CC, size: 0x8, addend: 0x0, symName: __ZNSt3__116__variant_detail12__visitation6__base12__dispatcherIJLm1EEE10__dispatchB8ne200100IOZNS0_6__ctorINS0_8__traitsIJN10reanimated3css9CSSLengthENS9_10CSSKeywordEEEEE19__generic_constructB8ne200100INS0_18__move_constructorISC_LNS0_6_TraitE1EEEEEvRSD_OT_EUlSK_E_JONS0_6__baseILSG_1EJSA_SB_EEEEEEDcSJ_DpT0_, symObjAddr: 0xB70C, symBinAddr: 0x113F4, symSize: 0x40 }
  - { offset: 0x20C702, size: 0x8, addend: 0x0, symName: __ZNSt3__116__variant_detail12__visitation6__base12__dispatcherIJLm1EEE10__dispatchB8ne200100IOZNS0_6__ctorINS0_8__traitsIJN10reanimated3css9CSSLengthENS9_10CSSKeywordEEEEE19__generic_constructB8ne200100INS0_18__move_constructorISC_LNS0_6_TraitE1EEEEEvRSD_OT_EUlSK_E_JONS0_6__baseILSG_1EJSA_SB_EEEEEEDcSJ_DpT0_, symObjAddr: 0xB70C, symBinAddr: 0x113F4, symSize: 0x40 }
  - { offset: 0x20C728, size: 0x8, addend: 0x0, symName: __ZNSt3__116__variant_detail12__visitation6__base12__dispatcherIJLm1EEE10__dispatchB8ne200100IOZNS0_6__ctorINS0_8__traitsIJN10reanimated3css9CSSLengthENS9_10CSSKeywordEEEEE19__generic_constructB8ne200100INS0_18__move_constructorISC_LNS0_6_TraitE1EEEEEvRSD_OT_EUlSK_E_JONS0_6__baseILSG_1EJSA_SB_EEEEEEDcSJ_DpT0_, symObjAddr: 0xB70C, symBinAddr: 0x113F4, symSize: 0x40 }
  - { offset: 0x20C967, size: 0x8, addend: 0x0, symName: __ZNKSt3__129_AllocatorDestroyRangeReverseINS_9allocatorIN10reanimated3css13ValueKeyframeIJNS3_9CSSLengthENS3_10CSSKeywordEEEEEEPS7_EclB8ne200100Ev, symObjAddr: 0xB780, symBinAddr: 0x11468, symSize: 0x48 }
  - { offset: 0x20CCCC, size: 0x8, addend: 0x0, symName: __ZNSt3__114__split_bufferIN10reanimated3css13ValueKeyframeIJNS2_9CSSLengthENS2_10CSSKeywordEEEERNS_9allocatorIS6_EEE5clearB8ne200100Ev, symObjAddr: 0xB7F8, symBinAddr: 0x114E0, symSize: 0x54 }
  - { offset: 0x20D132, size: 0x8, addend: 0x0, symName: __ZN10reanimated3css15CSSValueVariantIJNS0_9CSSLengthENS0_10CSSKeywordEEE12tryConstructERN8facebook3jsi7RuntimeERKNS6_5ValueE, symObjAddr: 0xBB28, symBinAddr: 0x11810, symSize: 0x104 }
  - { offset: 0x20D743, size: 0x8, addend: 0x0, symName: __ZNSt3__116__variant_detail12__assignmentINS0_8__traitsIJN10reanimated3css9CSSLengthENS4_10CSSKeywordEEEEE16__generic_assignB8ne200100INS0_17__move_assignmentIS7_LNS0_6_TraitE1EEEEEvOT_, symObjAddr: 0xBC90, symBinAddr: 0x11978, symSize: 0x5C }
  - { offset: 0x20D9F1, size: 0x8, addend: 0x0, symName: __ZNSt3__116__variant_detail12__visitation6__base12__dispatcherIJLm0ELm0EEE10__dispatchB8ne200100IOZNS0_12__assignmentINS0_8__traitsIJN10reanimated3css9CSSLengthENS9_10CSSKeywordEEEEE16__generic_assignB8ne200100INS0_17__move_assignmentISC_LNS0_6_TraitE1EEEEEvOT_EUlRSI_OT0_E_JRNS0_6__baseILSG_1EJSA_SB_EEEOSQ_EEEDcSI_DpT0_, symObjAddr: 0xBCEC, symBinAddr: 0x119D4, symSize: 0x68 }
  - { offset: 0x20DCF6, size: 0x8, addend: 0x0, symName: __ZNSt3__116__variant_detail12__visitation6__base12__dispatcherIJLm1ELm1EEE10__dispatchB8ne200100IOZNS0_12__assignmentINS0_8__traitsIJN10reanimated3css9CSSLengthENS9_10CSSKeywordEEEEE16__generic_assignB8ne200100INS0_17__move_assignmentISC_LNS0_6_TraitE1EEEEEvOT_EUlRSI_OT0_E_JRNS0_6__baseILSG_1EJSA_SB_EEEOSQ_EEEDcSI_DpT0_, symObjAddr: 0xBD54, symBinAddr: 0x11A3C, symSize: 0x8 }
  - { offset: 0x20DFC7, size: 0x8, addend: 0x0, symName: __ZNSt3__16vectorIN10reanimated3css13ValueKeyframeIJNS2_9CSSLengthENS2_10CSSKeywordEEEENS_9allocatorIS6_EEE13__vdeallocateEv, symObjAddr: 0xBFE8, symBinAddr: 0x11CD0, symSize: 0x70 }
  - { offset: 0x20E448, size: 0x8, addend: 0x0, symName: __ZNSt3__135__uninitialized_allocator_copy_implB8ne200100INS_9allocatorIN10reanimated3css13ValueKeyframeIJNS3_9CSSLengthENS3_10CSSKeywordEEEEEEPKS7_SA_PS7_EET2_RT_T0_T1_SC_, symObjAddr: 0xC090, symBinAddr: 0x11D40, symSize: 0xA8 }
  - { offset: 0x20E453, size: 0x8, addend: 0x0, symName: __ZNSt3__123__optional_storage_baseIN10reanimated3css15CSSValueVariantIJNS2_9CSSLengthENS2_10CSSKeywordEEEELb0EE13__assign_fromB8ne200100IRKNS_27__optional_copy_assign_baseIS6_Lb0EEEEEvOT_, symObjAddr: 0xC138, symBinAddr: 0x11DE8, symSize: 0x7C }
  - { offset: 0x20E8ED, size: 0x8, addend: 0x0, symName: __ZNSt3__116__variant_detail12__assignmentINS0_8__traitsIJN10reanimated3css9CSSLengthENS4_10CSSKeywordEEEEE16__generic_assignB8ne200100IRKNS0_17__copy_assignmentIS7_LNS0_6_TraitE1EEEEEvOT_, symObjAddr: 0xC1B4, symBinAddr: 0x11E64, symSize: 0x5C }
  - { offset: 0x20ECCB, size: 0x8, addend: 0x0, symName: __ZNSt3__116__variant_detail12__visitation6__base12__dispatcherIJLm0ELm0EEE10__dispatchB8ne200100IOZNS0_12__assignmentINS0_8__traitsIJN10reanimated3css9CSSLengthENS9_10CSSKeywordEEEEE16__generic_assignB8ne200100IRKNS0_17__copy_assignmentISC_LNS0_6_TraitE1EEEEEvOT_EUlRSK_OT0_E_JRNS0_6__baseILSG_1EJSA_SB_EEERKSS_EEEDcSK_DpT0_, symObjAddr: 0xC210, symBinAddr: 0x11EC0, symSize: 0x68 }
  - { offset: 0x20EFD0, size: 0x8, addend: 0x0, symName: __ZNSt3__116__variant_detail12__visitation6__base12__dispatcherIJLm1ELm1EEE10__dispatchB8ne200100IOZNS0_12__assignmentINS0_8__traitsIJN10reanimated3css9CSSLengthENS9_10CSSKeywordEEEEE16__generic_assignB8ne200100IRKNS0_17__copy_assignmentISC_LNS0_6_TraitE1EEEEEvOT_EUlRSK_OT0_E_JRNS0_6__baseILSG_1EJSA_SB_EEERKSS_EEEDcSK_DpT0_, symObjAddr: 0xC278, symBinAddr: 0x11F28, symSize: 0x8 }
  - { offset: 0x20F09E, size: 0x8, addend: 0x0, symName: __ZNSt3__116__variant_detail12__assignmentINS0_8__traitsIJN10reanimated3css9CSSLengthENS4_10CSSKeywordEEEEE12__assign_altB8ne200100ILm1ES6_RKS6_EEvRNS0_5__altIXT_ET0_EEOT1_, symObjAddr: 0xC280, symBinAddr: 0x11F30, symSize: 0x3C }
  - { offset: 0x20F0EA, size: 0x8, addend: 0x0, symName: __ZNSt3__116__variant_detail12__assignmentINS0_8__traitsIJN10reanimated3css9CSSLengthENS4_10CSSKeywordEEEEE12__assign_altB8ne200100ILm1ES6_RKS6_EEvRNS0_5__altIXT_ET0_EEOT1_, symObjAddr: 0xC280, symBinAddr: 0x11F30, symSize: 0x3C }
  - { offset: 0x20F202, size: 0x8, addend: 0x0, symName: __ZZNSt3__116__variant_detail12__assignmentINS0_8__traitsIJN10reanimated3css9CSSLengthENS4_10CSSKeywordEEEEE12__assign_altB8ne200100ILm1ES6_RKS6_EEvRNS0_5__altIXT_ET0_EEOT1_ENKUt_clENS_17integral_constantIbLb0EEE, symObjAddr: 0xC2BC, symBinAddr: 0x11F6C, symSize: 0x9C }
  - { offset: 0x20F8F7, size: 0x8, addend: 0x0, symName: __ZNSt3__116__variant_detail12__visitation6__base12__dispatcherIJLm0ELm0EEE10__dispatchB8ne200100IONS1_9__variant15__value_visitorIZNK10reanimated3css15CSSValueVariantIJNS9_9CSSLengthENS9_10CSSKeywordEEE11interpolateEdRKSD_RKNS9_38CSSResolvableValueInterpolationContextEEUlRKT_RKT0_E_EEJRKNS0_6__baseILNS0_6_TraitE1EJSB_SC_EEESW_EEEDcSJ_DpT0_, symObjAddr: 0xC5A8, symBinAddr: 0x121D0, symSize: 0x78 }
  - { offset: 0x20FD24, size: 0x8, addend: 0x0, symName: __ZNSt3__116__variant_detail12__visitation6__base12__dispatcherIJLm0ELm1EEE10__dispatchB8ne200100IONS1_9__variant15__value_visitorIZNK10reanimated3css15CSSValueVariantIJNS9_9CSSLengthENS9_10CSSKeywordEEE11interpolateEdRKSD_RKNS9_38CSSResolvableValueInterpolationContextEEUlRKT_RKT0_E_EEJRKNS0_6__baseILNS0_6_TraitE1EJSB_SC_EEESW_EEEDcSJ_DpT0_, symObjAddr: 0xC620, symBinAddr: 0x12248, symSize: 0x3C }
  - { offset: 0x20FD6D, size: 0x8, addend: 0x0, symName: __ZNSt3__116__variant_detail12__visitation6__base12__dispatcherIJLm0ELm1EEE10__dispatchB8ne200100IONS1_9__variant15__value_visitorIZNK10reanimated3css15CSSValueVariantIJNS9_9CSSLengthENS9_10CSSKeywordEEE11interpolateEdRKSD_RKNS9_38CSSResolvableValueInterpolationContextEEUlRKT_RKT0_E_EEJRKNS0_6__baseILNS0_6_TraitE1EJSB_SC_EEESW_EEEDcSJ_DpT0_, symObjAddr: 0xC620, symBinAddr: 0x12248, symSize: 0x3C }
  - { offset: 0x20FD8D, size: 0x8, addend: 0x0, symName: __ZNSt3__116__variant_detail12__visitation6__base12__dispatcherIJLm0ELm1EEE10__dispatchB8ne200100IONS1_9__variant15__value_visitorIZNK10reanimated3css15CSSValueVariantIJNS9_9CSSLengthENS9_10CSSKeywordEEE11interpolateEdRKSD_RKNS9_38CSSResolvableValueInterpolationContextEEUlRKT_RKT0_E_EEJRKNS0_6__baseILNS0_6_TraitE1EJSB_SC_EEESW_EEEDcSJ_DpT0_, symObjAddr: 0xC620, symBinAddr: 0x12248, symSize: 0x3C }
  - { offset: 0x20FFF7, size: 0x8, addend: 0x0, symName: __ZNSt3__116__variant_detail12__visitation6__base12__dispatcherIJLm1ELm0EEE10__dispatchB8ne200100IONS1_9__variant15__value_visitorIZNK10reanimated3css15CSSValueVariantIJNS9_9CSSLengthENS9_10CSSKeywordEEE11interpolateEdRKSD_RKNS9_38CSSResolvableValueInterpolationContextEEUlRKT_RKT0_E_EEJRKNS0_6__baseILNS0_6_TraitE1EJSB_SC_EEESW_EEEDcSJ_DpT0_, symObjAddr: 0xC65C, symBinAddr: 0x12284, symSize: 0x3C }
  - { offset: 0x210040, size: 0x8, addend: 0x0, symName: __ZNSt3__116__variant_detail12__visitation6__base12__dispatcherIJLm1ELm0EEE10__dispatchB8ne200100IONS1_9__variant15__value_visitorIZNK10reanimated3css15CSSValueVariantIJNS9_9CSSLengthENS9_10CSSKeywordEEE11interpolateEdRKSD_RKNS9_38CSSResolvableValueInterpolationContextEEUlRKT_RKT0_E_EEJRKNS0_6__baseILNS0_6_TraitE1EJSB_SC_EEESW_EEEDcSJ_DpT0_, symObjAddr: 0xC65C, symBinAddr: 0x12284, symSize: 0x3C }
  - { offset: 0x210060, size: 0x8, addend: 0x0, symName: __ZNSt3__116__variant_detail12__visitation6__base12__dispatcherIJLm1ELm0EEE10__dispatchB8ne200100IONS1_9__variant15__value_visitorIZNK10reanimated3css15CSSValueVariantIJNS9_9CSSLengthENS9_10CSSKeywordEEE11interpolateEdRKSD_RKNS9_38CSSResolvableValueInterpolationContextEEUlRKT_RKT0_E_EEJRKNS0_6__baseILNS0_6_TraitE1EJSB_SC_EEESW_EEEDcSJ_DpT0_, symObjAddr: 0xC65C, symBinAddr: 0x12284, symSize: 0x3C }
  - { offset: 0x21023F, size: 0x8, addend: 0x0, symName: __ZNSt3__116__variant_detail12__visitation6__base12__dispatcherIJLm1ELm1EEE10__dispatchB8ne200100IONS1_9__variant15__value_visitorIZNK10reanimated3css15CSSValueVariantIJNS9_9CSSLengthENS9_10CSSKeywordEEE11interpolateEdRKSD_RKNS9_38CSSResolvableValueInterpolationContextEEUlRKT_RKT0_E_EEJRKNS0_6__baseILNS0_6_TraitE1EJSB_SC_EEESW_EEEDcSJ_DpT0_, symObjAddr: 0xC698, symBinAddr: 0x122C0, symSize: 0x4 }
  - { offset: 0x210284, size: 0x8, addend: 0x0, symName: __ZNSt3__116__variant_detail12__visitation6__base12__dispatcherIJLm1ELm1EEE10__dispatchB8ne200100IONS1_9__variant15__value_visitorIZNK10reanimated3css15CSSValueVariantIJNS9_9CSSLengthENS9_10CSSKeywordEEE11interpolateEdRKSD_RKNS9_38CSSResolvableValueInterpolationContextEEUlRKT_RKT0_E_EEJRKNS0_6__baseILNS0_6_TraitE1EJSB_SC_EEESW_EEEDcSJ_DpT0_, symObjAddr: 0xC698, symBinAddr: 0x122C0, symSize: 0x4 }
  - { offset: 0x2102B3, size: 0x8, addend: 0x0, symName: __ZNSt3__116__variant_detail12__visitation6__base12__dispatcherIJLm1ELm1EEE10__dispatchB8ne200100IONS1_9__variant15__value_visitorIZNK10reanimated3css15CSSValueVariantIJNS9_9CSSLengthENS9_10CSSKeywordEEE11interpolateEdRKSD_RKNS9_38CSSResolvableValueInterpolationContextEEUlRKT_RKT0_E_EEJRKNS0_6__baseILNS0_6_TraitE1EJSB_SC_EEESW_EEEDcSJ_DpT0_, symObjAddr: 0xC698, symBinAddr: 0x122C0, symSize: 0x4 }
  - { offset: 0x2102FC, size: 0x8, addend: 0x0, symName: __ZNKSt3__116__variant_detail12__visitation9__variant15__value_visitorIZNK10reanimated3css15CSSValueVariantIJNS5_9CSSLengthENS5_10CSSKeywordEEE11interpolateEdRKS9_RKNS5_38CSSResolvableValueInterpolationContextEEUlRKT_RKT0_E_EclB8ne200100IJRKNS0_5__altILm1ES8_EESR_EEEDcDpOT_, symObjAddr: 0xC69C, symBinAddr: 0x122C4, symSize: 0x50 }
  - { offset: 0x2103F6, size: 0x8, addend: 0x0, symName: __ZN10reanimated3css15CSSValueVariantIJNS0_9CSSLengthENS0_10CSSKeywordEEE12tryConstructIRA5_KcEEbOT_, symObjAddr: 0xC798, symBinAddr: 0x123C0, symSize: 0x98 }
  - { offset: 0x21073A, size: 0x8, addend: 0x0, symName: __ZZN10reanimated3css15CSSValueVariantIJNS0_9CSSLengthENS0_10CSSKeywordEEE12tryConstructIRA5_KcEEbOT_ENKUlTyvE_clIS3_EEbv, symObjAddr: 0xC830, symBinAddr: 0x12458, symSize: 0x108 }
  - { offset: 0x210ABB, size: 0x8, addend: 0x0, symName: __ZN10reanimated3css15CSSValueVariantIJNS0_10CSSDisplayEEED1Ev, symObjAddr: 0xC938, symBinAddr: 0x12560, symSize: 0x54 }
  - { offset: 0x211160, size: 0x8, addend: 0x0, symName: __ZNSt3__120__shared_ptr_emplaceIN10reanimated3css24ValueInterpolatorFactoryIJNS2_10CSSDisplayEEEENS_9allocatorIS5_EEEC2B8ne200100IJNS2_15CSSValueVariantIJS4_EEEES7_Li0EEES7_DpOT_, symObjAddr: 0xC9E4, symBinAddr: 0x1260C, symSize: 0x70 }
  - { offset: 0x2115CA, size: 0x8, addend: 0x0, symName: __ZNSt3__116__variant_detail18__copy_constructorINS0_8__traitsIJN10reanimated3css10CSSDisplayEEEELNS0_6_TraitE1EEC2B8ne200100ERKS8_, symObjAddr: 0xCC44, symBinAddr: 0x1286C, symSize: 0x44 }
  - { offset: 0x211730, size: 0x8, addend: 0x0, symName: __ZNSt3__120__shared_ptr_emplaceIN10reanimated3css24ValueInterpolatorFactoryIJNS2_10CSSDisplayEEEENS_9allocatorIS5_EEED1Ev, symObjAddr: 0xCA54, symBinAddr: 0x1267C, symSize: 0x14 }
  - { offset: 0x211754, size: 0x8, addend: 0x0, symName: __ZNSt3__120__shared_ptr_emplaceIN10reanimated3css24ValueInterpolatorFactoryIJNS2_10CSSDisplayEEEENS_9allocatorIS5_EEED1Ev, symObjAddr: 0xCA54, symBinAddr: 0x1267C, symSize: 0x14 }
  - { offset: 0x21178B, size: 0x8, addend: 0x0, symName: __ZNSt3__120__shared_ptr_emplaceIN10reanimated3css24ValueInterpolatorFactoryIJNS2_10CSSDisplayEEEENS_9allocatorIS5_EEED0Ev, symObjAddr: 0xCA68, symBinAddr: 0x12690, symSize: 0x24 }
  - { offset: 0x211861, size: 0x8, addend: 0x0, symName: __ZNSt3__120__shared_ptr_emplaceIN10reanimated3css24ValueInterpolatorFactoryIJNS2_10CSSDisplayEEEENS_9allocatorIS5_EEE16__on_zero_sharedEv, symObjAddr: 0xCA8C, symBinAddr: 0x126B4, symSize: 0xC }
  - { offset: 0x21188B, size: 0x8, addend: 0x0, symName: __ZNSt3__120__shared_ptr_emplaceIN10reanimated3css24ValueInterpolatorFactoryIJNS2_10CSSDisplayEEEENS_9allocatorIS5_EEE16__on_zero_sharedEv, symObjAddr: 0xCA8C, symBinAddr: 0x126B4, symSize: 0xC }
  - { offset: 0x2118AA, size: 0x8, addend: 0x0, symName: __ZNSt3__120__shared_ptr_emplaceIN10reanimated3css24ValueInterpolatorFactoryIJNS2_10CSSDisplayEEEENS_9allocatorIS5_EEE16__on_zero_sharedEv, symObjAddr: 0xCA8C, symBinAddr: 0x126B4, symSize: 0xC }
  - { offset: 0x2118C9, size: 0x8, addend: 0x0, symName: __ZNSt3__120__shared_ptr_emplaceIN10reanimated3css24ValueInterpolatorFactoryIJNS2_10CSSDisplayEEEENS_9allocatorIS5_EEE16__on_zero_sharedEv, symObjAddr: 0xCA8C, symBinAddr: 0x126B4, symSize: 0xC }
  - { offset: 0x2118F5, size: 0x8, addend: 0x0, symName: __ZNSt3__120__shared_ptr_emplaceIN10reanimated3css24ValueInterpolatorFactoryIJNS2_10CSSDisplayEEEENS_9allocatorIS5_EEE21__on_zero_shared_weakEv, symObjAddr: 0xCA98, symBinAddr: 0x126C0, symSize: 0x4 }
  - { offset: 0x211929, size: 0x8, addend: 0x0, symName: __ZNSt3__120__shared_ptr_emplaceIN10reanimated3css24ValueInterpolatorFactoryIJNS2_10CSSDisplayEEEENS_9allocatorIS5_EEE21__on_zero_shared_weakEv, symObjAddr: 0xCA98, symBinAddr: 0x126C0, symSize: 0x4 }
  - { offset: 0x21194D, size: 0x8, addend: 0x0, symName: __ZNSt3__120__shared_ptr_emplaceIN10reanimated3css24ValueInterpolatorFactoryIJNS2_10CSSDisplayEEEENS_9allocatorIS5_EEE21__on_zero_shared_weakEv, symObjAddr: 0xCA98, symBinAddr: 0x126C0, symSize: 0x4 }
  - { offset: 0x211972, size: 0x8, addend: 0x0, symName: __ZNSt3__120__shared_ptr_emplaceIN10reanimated3css24ValueInterpolatorFactoryIJNS2_10CSSDisplayEEEENS_9allocatorIS5_EEE21__on_zero_shared_weakEv, symObjAddr: 0xCA98, symBinAddr: 0x126C0, symSize: 0x4 }
  - { offset: 0x2119A9, size: 0x8, addend: 0x0, symName: __ZNSt3__120__shared_ptr_emplaceIN10reanimated3css24ValueInterpolatorFactoryIJNS2_10CSSDisplayEEEENS_9allocatorIS5_EEE21__on_zero_shared_weakEv, symObjAddr: 0xCA98, symBinAddr: 0x126C0, symSize: 0x4 }
  - { offset: 0x2119F0, size: 0x8, addend: 0x0, symName: __ZN10reanimated3css24ValueInterpolatorFactoryIJNS0_10CSSDisplayEEED1Ev, symObjAddr: 0xCA9C, symBinAddr: 0x126C4, symSize: 0x64 }
  - { offset: 0x211EA4, size: 0x8, addend: 0x0, symName: __ZN10reanimated3css24ValueInterpolatorFactoryIJNS0_10CSSDisplayEEED0Ev, symObjAddr: 0xCB00, symBinAddr: 0x12728, symSize: 0x5C }
  - { offset: 0x212365, size: 0x8, addend: 0x0, symName: __ZNK10reanimated3css24ValueInterpolatorFactoryIJNS0_10CSSDisplayEEE18isDiscretePropertyEv, symObjAddr: 0xCB5C, symBinAddr: 0x12784, symSize: 0x8 }
  - { offset: 0x21238C, size: 0x8, addend: 0x0, symName: __ZNK10reanimated3css24ValueInterpolatorFactoryIJNS0_10CSSDisplayEEE15getDefaultValueEv, symObjAddr: 0xCB64, symBinAddr: 0x1278C, symSize: 0x8 }
  - { offset: 0x21244F, size: 0x8, addend: 0x0, symName: __ZNK10reanimated3css24ValueInterpolatorFactoryIJNS0_10CSSDisplayEEE6createERKNSt3__16vectorINS4_12basic_stringIcNS4_11char_traitsIcEENS4_9allocatorIcEEEENS9_ISB_EEEERKNS4_10shared_ptrINS0_20ViewStylesRepositoryEEE, symObjAddr: 0xCB6C, symBinAddr: 0x12794, symSize: 0x44 }
  - { offset: 0x212532, size: 0x8, addend: 0x0, symName: __ZN10reanimated3css15CSSValueVariantIJNS0_10CSSDisplayEEED0Ev, symObjAddr: 0xCBB0, symBinAddr: 0x127D8, symSize: 0x4C }
  - { offset: 0x212E64, size: 0x8, addend: 0x0, symName: __ZNSt3__116__variant_detail6__ctorINS0_8__traitsIJN10reanimated3css10CSSDisplayEEEEE19__generic_constructB8ne200100IRKNS0_18__copy_constructorIS6_LNS0_6_TraitE1EEEEEvRS7_OT_, symObjAddr: 0xCC88, symBinAddr: 0x128B0, symSize: 0xAC }
  - { offset: 0x213431, size: 0x8, addend: 0x0, symName: __ZNSt3__116__variant_detail18__copy_constructorINS0_8__traitsIJN10reanimated3css10CSSDisplayEEEELNS0_6_TraitE1EED2B8ne200100Ev, symObjAddr: 0xCD34, symBinAddr: 0x1295C, symSize: 0x54 }
  - { offset: 0x2139B0, size: 0x8, addend: 0x0, symName: __ZN10reanimated3css14CSSKeywordBaseINS0_10CSSDisplayEED1Ev, symObjAddr: 0xCD88, symBinAddr: 0x12B888, symSize: 0x4 }
  - { offset: 0x2139DC, size: 0x8, addend: 0x0, symName: __ZN10reanimated3css14CSSKeywordBaseINS0_10CSSDisplayEED0Ev, symObjAddr: 0xCD8C, symBinAddr: 0x12B88C, symSize: 0x4 }
  - { offset: 0x213C7C, size: 0x8, addend: 0x0, symName: __ZNSt3__120__shared_ptr_emplaceIN10reanimated3css17ValueInterpolatorIJNS2_10CSSDisplayEEEENS_9allocatorIS5_EEEC2B8ne200100IJRKNS_6vectorINS_12basic_stringIcNS_11char_traitsIcEENS6_IcEEEENS6_ISF_EEEERKNS2_15CSSValueVariantIJS4_EEERKNS_10shared_ptrINS2_20ViewStylesRepositoryEEEES7_Li0EEES7_DpOT_, symObjAddr: 0xCE00, symBinAddr: 0x12A20, symSize: 0x4C }
  - { offset: 0x213EFF, size: 0x8, addend: 0x0, symName: __ZN10reanimated3css17ValueInterpolatorIJNS0_10CSSDisplayEEEC2ERKNSt3__16vectorINS4_12basic_stringIcNS4_11char_traitsIcEENS4_9allocatorIcEEEENS9_ISB_EEEERKNS0_15CSSValueVariantIJS2_EEERKNS4_10shared_ptrINS0_20ViewStylesRepositoryEEE, symObjAddr: 0xCE94, symBinAddr: 0x12AB4, symSize: 0xE8 }
  - { offset: 0x214376, size: 0x8, addend: 0x0, symName: __ZNSt3__120__shared_ptr_emplaceIN10reanimated3css17ValueInterpolatorIJNS2_10CSSDisplayEEEENS_9allocatorIS5_EEED1Ev, symObjAddr: 0xCE4C, symBinAddr: 0x12A6C, symSize: 0x14 }
  - { offset: 0x21439A, size: 0x8, addend: 0x0, symName: __ZNSt3__120__shared_ptr_emplaceIN10reanimated3css17ValueInterpolatorIJNS2_10CSSDisplayEEEENS_9allocatorIS5_EEED1Ev, symObjAddr: 0xCE4C, symBinAddr: 0x12A6C, symSize: 0x14 }
  - { offset: 0x2143D1, size: 0x8, addend: 0x0, symName: __ZNSt3__120__shared_ptr_emplaceIN10reanimated3css17ValueInterpolatorIJNS2_10CSSDisplayEEEENS_9allocatorIS5_EEED0Ev, symObjAddr: 0xCE60, symBinAddr: 0x12A80, symSize: 0x24 }
  - { offset: 0x2144A7, size: 0x8, addend: 0x0, symName: __ZNSt3__120__shared_ptr_emplaceIN10reanimated3css17ValueInterpolatorIJNS2_10CSSDisplayEEEENS_9allocatorIS5_EEE16__on_zero_sharedEv, symObjAddr: 0xCE84, symBinAddr: 0x12AA4, symSize: 0xC }
  - { offset: 0x2144D1, size: 0x8, addend: 0x0, symName: __ZNSt3__120__shared_ptr_emplaceIN10reanimated3css17ValueInterpolatorIJNS2_10CSSDisplayEEEENS_9allocatorIS5_EEE16__on_zero_sharedEv, symObjAddr: 0xCE84, symBinAddr: 0x12AA4, symSize: 0xC }
  - { offset: 0x2144F0, size: 0x8, addend: 0x0, symName: __ZNSt3__120__shared_ptr_emplaceIN10reanimated3css17ValueInterpolatorIJNS2_10CSSDisplayEEEENS_9allocatorIS5_EEE16__on_zero_sharedEv, symObjAddr: 0xCE84, symBinAddr: 0x12AA4, symSize: 0xC }
  - { offset: 0x21450F, size: 0x8, addend: 0x0, symName: __ZNSt3__120__shared_ptr_emplaceIN10reanimated3css17ValueInterpolatorIJNS2_10CSSDisplayEEEENS_9allocatorIS5_EEE16__on_zero_sharedEv, symObjAddr: 0xCE84, symBinAddr: 0x12AA4, symSize: 0xC }
  - { offset: 0x21453B, size: 0x8, addend: 0x0, symName: __ZNSt3__120__shared_ptr_emplaceIN10reanimated3css17ValueInterpolatorIJNS2_10CSSDisplayEEEENS_9allocatorIS5_EEE21__on_zero_shared_weakEv, symObjAddr: 0xCE90, symBinAddr: 0x12AB0, symSize: 0x4 }
  - { offset: 0x21456F, size: 0x8, addend: 0x0, symName: __ZNSt3__120__shared_ptr_emplaceIN10reanimated3css17ValueInterpolatorIJNS2_10CSSDisplayEEEENS_9allocatorIS5_EEE21__on_zero_shared_weakEv, symObjAddr: 0xCE90, symBinAddr: 0x12AB0, symSize: 0x4 }
  - { offset: 0x214593, size: 0x8, addend: 0x0, symName: __ZNSt3__120__shared_ptr_emplaceIN10reanimated3css17ValueInterpolatorIJNS2_10CSSDisplayEEEENS_9allocatorIS5_EEE21__on_zero_shared_weakEv, symObjAddr: 0xCE90, symBinAddr: 0x12AB0, symSize: 0x4 }
  - { offset: 0x2145B8, size: 0x8, addend: 0x0, symName: __ZNSt3__120__shared_ptr_emplaceIN10reanimated3css17ValueInterpolatorIJNS2_10CSSDisplayEEEENS_9allocatorIS5_EEE21__on_zero_shared_weakEv, symObjAddr: 0xCE90, symBinAddr: 0x12AB0, symSize: 0x4 }
  - { offset: 0x2145F0, size: 0x8, addend: 0x0, symName: __ZNSt3__120__shared_ptr_emplaceIN10reanimated3css17ValueInterpolatorIJNS2_10CSSDisplayEEEENS_9allocatorIS5_EEE21__on_zero_shared_weakEv, symObjAddr: 0xCE90, symBinAddr: 0x12AB0, symSize: 0x4 }
  - { offset: 0x214710, size: 0x8, addend: 0x0, symName: __ZNK10reanimated3css17ValueInterpolatorIJNS0_10CSSDisplayEEE13getStyleValueERKNSt3__110shared_ptrIKN8facebook5react10ShadowNodeEEE, symObjAddr: 0xCF7C, symBinAddr: 0x12B9C, symSize: 0x44 }
  - { offset: 0x21479E, size: 0x8, addend: 0x0, symName: __ZNK10reanimated3css17ValueInterpolatorIJNS0_10CSSDisplayEEE13getResetStyleERKNSt3__110shared_ptrIKN8facebook5react10ShadowNodeEEE, symObjAddr: 0xCFC0, symBinAddr: 0x12BE0, symSize: 0xC8 }
  - { offset: 0x214B49, size: 0x8, addend: 0x0, symName: __ZNK10reanimated3css17ValueInterpolatorIJNS0_10CSSDisplayEEE21getFirstKeyframeValueEv, symObjAddr: 0xD088, symBinAddr: 0x12CA8, symSize: 0x40 }
  - { offset: 0x214B73, size: 0x8, addend: 0x0, symName: __ZNK10reanimated3css17ValueInterpolatorIJNS0_10CSSDisplayEEE21getFirstKeyframeValueEv, symObjAddr: 0xD088, symBinAddr: 0x12CA8, symSize: 0x40 }
  - { offset: 0x214E5F, size: 0x8, addend: 0x0, symName: __ZNK10reanimated3css17ValueInterpolatorIJNS0_10CSSDisplayEEE20getLastKeyframeValueEv, symObjAddr: 0xD0C8, symBinAddr: 0x12CE8, symSize: 0x40 }
  - { offset: 0x214E80, size: 0x8, addend: 0x0, symName: __ZNK10reanimated3css17ValueInterpolatorIJNS0_10CSSDisplayEEE20getLastKeyframeValueEv, symObjAddr: 0xD0C8, symBinAddr: 0x12CE8, symSize: 0x40 }
  - { offset: 0x214EAA, size: 0x8, addend: 0x0, symName: __ZNK10reanimated3css17ValueInterpolatorIJNS0_10CSSDisplayEEE20getLastKeyframeValueEv, symObjAddr: 0xD0C8, symBinAddr: 0x12CE8, symSize: 0x40 }
  - { offset: 0x21519C, size: 0x8, addend: 0x0, symName: __ZNK10reanimated3css17ValueInterpolatorIJNS0_10CSSDisplayEEE33equalsReversingAdjustedStartValueERKN5folly7dynamicE, symObjAddr: 0xD108, symBinAddr: 0x12D28, symSize: 0xDC }
  - { offset: 0x215207, size: 0x8, addend: 0x0, symName: __ZNK10reanimated3css17ValueInterpolatorIJNS0_10CSSDisplayEEE33equalsReversingAdjustedStartValueERKN5folly7dynamicE, symObjAddr: 0xD108, symBinAddr: 0x12D28, symSize: 0xDC }
  - { offset: 0x215B51, size: 0x8, addend: 0x0, symName: __ZN10reanimated3css15CSSValueVariantIJNS0_10CSSDisplayEEEC2ERKN5folly7dynamicE, symObjAddr: 0xDDC8, symBinAddr: 0x139E8, symSize: 0x138 }
  - { offset: 0x2165C6, size: 0x8, addend: 0x0, symName: __ZN10reanimated3css17ValueInterpolatorIJNS0_10CSSDisplayEEE15updateKeyframesERN8facebook3jsi7RuntimeERKNS5_5ValueE, symObjAddr: 0xD1E4, symBinAddr: 0x12E04, symSize: 0x284 }
  - { offset: 0x218B0F, size: 0x8, addend: 0x0, symName: __ZNSt3__124__optional_destruct_baseIN10reanimated3css15CSSValueVariantIJNS2_10CSSDisplayEEEELb0EED2B8ne200100Ev, symObjAddr: 0xE594, symBinAddr: 0x14118, symSize: 0x60 }
  - { offset: 0x218F83, size: 0x8, addend: 0x0, symName: __ZNSt3__16vectorIN10reanimated3css13ValueKeyframeIJNS2_10CSSDisplayEEEENS_9allocatorIS5_EEE7reserveEm, symObjAddr: 0xE0DC, symBinAddr: 0x13CA8, symSize: 0xB8 }
  - { offset: 0x2191C8, size: 0x8, addend: 0x0, symName: __ZN10reanimated3css15CSSValueVariantIJNS0_10CSSDisplayEEEC2ERN8facebook3jsi7RuntimeERKNS5_5ValueE, symObjAddr: 0xE5F4, symBinAddr: 0x14178, symSize: 0x144 }
  - { offset: 0x21973E, size: 0x8, addend: 0x0, symName: __ZNSt3__116__variant_detail18__move_constructorINS0_8__traitsIJN10reanimated3css10CSSDisplayEEEELNS0_6_TraitE1EEC2B8ne200100EOS8_, symObjAddr: 0xE2D0, symBinAddr: 0x13E54, symSize: 0x34 }
  - { offset: 0x219853, size: 0x8, addend: 0x0, symName: __ZNSt3__16vectorIN10reanimated3css13ValueKeyframeIJNS2_10CSSDisplayEEEENS_9allocatorIS5_EEE9push_backB8ne200100EOS5_, symObjAddr: 0xE194, symBinAddr: 0x13D60, symSize: 0x3C }
  - { offset: 0x219C8F, size: 0x8, addend: 0x0, symName: __ZN10reanimated3css17ValueInterpolatorIJNS0_10CSSDisplayEEE30updateKeyframesFromStyleChangeERKN5folly7dynamicES7_S7_, symObjAddr: 0xD468, symBinAddr: 0x13088, symSize: 0x56C }
  - { offset: 0x21E50E, size: 0x8, addend: 0x0, symName: __ZNSt3__18optionalIN10reanimated3css15CSSValueVariantIJNS2_10CSSDisplayEEEEEaSB8ne200100IS5_vEERS6_OT_, symObjAddr: 0xE7D8, symBinAddr: 0x1435C, symSize: 0x64 }
  - { offset: 0x21E77F, size: 0x8, addend: 0x0, symName: __ZNSt3__124__optional_destruct_baseIN10reanimated3css15CSSValueVariantIJNS2_10CSSDisplayEEEELb0EE5resetB8ne200100Ev, symObjAddr: 0xE83C, symBinAddr: 0x143C0, symSize: 0x60 }
  - { offset: 0x21EBF7, size: 0x8, addend: 0x0, symName: __ZNSt3__123__optional_storage_baseIN10reanimated3css15CSSValueVariantIJNS2_10CSSDisplayEEEELb0EE13__assign_fromB8ne200100INS_27__optional_move_assign_baseIS5_Lb0EEEEEvOT_, symObjAddr: 0xE91C, symBinAddr: 0x144A0, symSize: 0x7C }
  - { offset: 0x21EE74, size: 0x8, addend: 0x0, symName: __ZNSt3__120__optional_copy_baseIN10reanimated3css15CSSValueVariantIJNS2_10CSSDisplayEEEELb0EEC2B8ne200100ERKS6_, symObjAddr: 0xE998, symBinAddr: 0x1451C, symSize: 0x6C }
  - { offset: 0x21F11F, size: 0x8, addend: 0x0, symName: __ZNSt3__16vectorIN10reanimated3css13ValueKeyframeIJNS2_10CSSDisplayEEEENS_9allocatorIS5_EEE18__assign_with_sizeB8ne200100IPKS5_SB_EEvT_T0_l, symObjAddr: 0xEA04, symBinAddr: 0x14588, symSize: 0x188 }
  - { offset: 0x21F9AA, size: 0x8, addend: 0x0, symName: __ZNK10reanimated3css17ValueInterpolatorIJNS0_10CSSDisplayEEE11interpolateERKNSt3__110shared_ptrIKN8facebook5react10ShadowNodeEEERKNS5_INS0_24KeyframeProgressProviderEEE, symObjAddr: 0xD9D4, symBinAddr: 0x135F4, symSize: 0x374 }
  - { offset: 0x222343, size: 0x8, addend: 0x0, symName: __ZNK10reanimated3css17ValueInterpolatorIJNS0_10CSSDisplayEEE16getFallbackValueERKNSt3__110shared_ptrIKN8facebook5react10ShadowNodeEEE, symObjAddr: 0xEF38, symBinAddr: 0x149FC, symSize: 0xBC }
  - { offset: 0x222628, size: 0x8, addend: 0x0, symName: __ZN10reanimated3css17ValueInterpolatorIJNS0_10CSSDisplayEEED1Ev, symObjAddr: 0xDD48, symBinAddr: 0x13968, symSize: 0x4 }
  - { offset: 0x22264C, size: 0x8, addend: 0x0, symName: __ZN10reanimated3css17ValueInterpolatorIJNS0_10CSSDisplayEEED1Ev, symObjAddr: 0xDD48, symBinAddr: 0x13968, symSize: 0x4 }
  - { offset: 0x222660, size: 0x8, addend: 0x0, symName: __ZN10reanimated3css17ValueInterpolatorIJNS0_10CSSDisplayEEED2Ev, symObjAddr: 0xEFF4, symBinAddr: 0x14AB8, symSize: 0xA8 }
  - { offset: 0x222D3E, size: 0x8, addend: 0x0, symName: __ZN10reanimated3css17ValueInterpolatorIJNS0_10CSSDisplayEEED0Ev, symObjAddr: 0xDD4C, symBinAddr: 0x1396C, symSize: 0x14 }
  - { offset: 0x222D9D, size: 0x8, addend: 0x0, symName: __ZNK10reanimated3css17ValueInterpolatorIJNS0_10CSSDisplayEEE16interpolateValueEdRKNS0_15CSSValueVariantIJS2_EEES7_RKNS0_30ValueInterpolatorUpdateContextE, symObjAddr: 0xDD60, symBinAddr: 0x13980, symSize: 0xC }
  - { offset: 0x2230C0, size: 0x8, addend: 0x0, symName: __ZNSt3__116__variant_detail12__visitation6__base12__dispatcherIJLm0ELm0EEE10__dispatchB8ne200100IONS1_9__variant15__value_visitorIZNK10reanimated3css15CSSValueVariantIJNS9_10CSSDisplayEEEeqERKSC_EUlRKT_RKT0_E_EEJRKNS0_6__baseILNS0_6_TraitE1EJSB_EEESS_EEEDcSF_DpT0_, symObjAddr: 0xDDBC, symBinAddr: 0x139DC, symSize: 0xC }
  - { offset: 0x223488, size: 0x8, addend: 0x0, symName: __ZN10reanimated3css15CSSValueVariantIJNS0_10CSSDisplayEEE12tryConstructERKN5folly7dynamicE, symObjAddr: 0xDF00, symBinAddr: 0x13B20, symSize: 0x94 }
  - { offset: 0x223A57, size: 0x8, addend: 0x0, symName: __ZNSt3__116__variant_detail12__assignmentINS0_8__traitsIJN10reanimated3css10CSSDisplayEEEEE12__assign_altB8ne200100ILm0ES5_S5_EEvRNS0_5__altIXT_ET0_EEOT1_, symObjAddr: 0xDFE8, symBinAddr: 0x13BB4, symSize: 0x60 }
  - { offset: 0x223D75, size: 0x8, addend: 0x0, symName: __ZNSt3__116__variant_detail12__assignmentINS0_8__traitsIJN10reanimated3css10CSSDisplayEEEEE9__emplaceB8ne200100ILm0EJS5_EEERDaDpOT0_, symObjAddr: 0xE048, symBinAddr: 0x13C14, symSize: 0x94 }
  - { offset: 0x224453, size: 0x8, addend: 0x0, symName: __ZNSt3__114__split_bufferIN10reanimated3css13ValueKeyframeIJNS2_10CSSDisplayEEEERNS_9allocatorIS5_EEED2Ev, symObjAddr: 0xE3A0, symBinAddr: 0x13F24, symSize: 0x50 }
  - { offset: 0x224700, size: 0x8, addend: 0x0, symName: __ZNSt3__16vectorIN10reanimated3css13ValueKeyframeIJNS2_10CSSDisplayEEEENS_9allocatorIS5_EEE22__construct_one_at_endB8ne200100IJS5_EEEvDpOT_, symObjAddr: 0xE3F0, symBinAddr: 0x13F74, symSize: 0x68 }
  - { offset: 0x224BCE, size: 0x8, addend: 0x0, symName: __ZNSt3__16vectorIN10reanimated3css13ValueKeyframeIJNS2_10CSSDisplayEEEENS_9allocatorIS5_EEE24__emplace_back_slow_pathIJS5_EEEPS5_DpOT_, symObjAddr: 0xE458, symBinAddr: 0x13FDC, symSize: 0x13C }
  - { offset: 0x225424, size: 0x8, addend: 0x0, symName: __ZNSt3__116__variant_detail6__ctorINS0_8__traitsIJN10reanimated3css10CSSDisplayEEEEE19__generic_constructB8ne200100INS0_18__move_constructorIS6_LNS0_6_TraitE1EEEEEvRS7_OT_, symObjAddr: 0xE304, symBinAddr: 0x13E88, symSize: 0x9C }
  - { offset: 0x225CB4, size: 0x8, addend: 0x0, symName: __ZN10reanimated3css15CSSValueVariantIJNS0_10CSSDisplayEEE12tryConstructERN8facebook3jsi7RuntimeERKNS5_5ValueE, symObjAddr: 0xE738, symBinAddr: 0x142BC, symSize: 0xA0 }
  - { offset: 0x2260A3, size: 0x8, addend: 0x0, symName: __ZNSt3__116__variant_detail12__assignmentINS0_8__traitsIJN10reanimated3css10CSSDisplayEEEEE16__generic_assignB8ne200100INS0_17__move_assignmentIS6_LNS0_6_TraitE1EEEEEvOT_, symObjAddr: 0xE89C, symBinAddr: 0x14420, symSize: 0x80 }
  - { offset: 0x2267F6, size: 0x8, addend: 0x0, symName: __ZNSt3__16vectorIN10reanimated3css13ValueKeyframeIJNS2_10CSSDisplayEEEENS_9allocatorIS5_EEE13__vdeallocateEv, symObjAddr: 0xEB8C, symBinAddr: 0x14710, symSize: 0x68 }
  - { offset: 0x226AD1, size: 0x8, addend: 0x0, symName: __ZNSt3__135__uninitialized_allocator_copy_implB8ne200100INS_9allocatorIN10reanimated3css13ValueKeyframeIJNS3_10CSSDisplayEEEEEEPKS6_S9_PS6_EET2_RT_T0_T1_SB_, symObjAddr: 0xEC2C, symBinAddr: 0x14778, symSize: 0x98 }
  - { offset: 0x226ADC, size: 0x8, addend: 0x0, symName: __ZNSt3__123__optional_storage_baseIN10reanimated3css15CSSValueVariantIJNS2_10CSSDisplayEEEELb0EE13__assign_fromB8ne200100IRKNS_27__optional_copy_assign_baseIS5_Lb0EEEEEvOT_, symObjAddr: 0xECC4, symBinAddr: 0x14810, symSize: 0x7C }
  - { offset: 0x226E6F, size: 0x8, addend: 0x0, symName: __ZNSt3__116__variant_detail12__assignmentINS0_8__traitsIJN10reanimated3css10CSSDisplayEEEEE16__generic_assignB8ne200100IRKNS0_17__copy_assignmentIS6_LNS0_6_TraitE1EEEEEvOT_, symObjAddr: 0xED40, symBinAddr: 0x1488C, symSize: 0x80 }
  - { offset: 0x2273B9, size: 0x8, addend: 0x0, symName: __ZNSt3__116__variant_detail12__assignmentINS0_8__traitsIJN10reanimated3css10CSSDisplayEEEEE12__assign_altB8ne200100ILm0ES5_RKS5_EEvRNS0_5__altIXT_ET0_EEOT1_, symObjAddr: 0xEDC0, symBinAddr: 0x1490C, symSize: 0x38 }
  - { offset: 0x227405, size: 0x8, addend: 0x0, symName: __ZNSt3__116__variant_detail12__assignmentINS0_8__traitsIJN10reanimated3css10CSSDisplayEEEEE12__assign_altB8ne200100ILm0ES5_RKS5_EEvRNS0_5__altIXT_ET0_EEOT1_, symObjAddr: 0xEDC0, symBinAddr: 0x1490C, symSize: 0x38 }
  - { offset: 0x227559, size: 0x8, addend: 0x0, symName: __ZZNSt3__116__variant_detail12__assignmentINS0_8__traitsIJN10reanimated3css10CSSDisplayEEEEE12__assign_altB8ne200100ILm0ES5_RKS5_EEvRNS0_5__altIXT_ET0_EEOT1_ENKUt_clENS_17integral_constantIbLb0EEE, symObjAddr: 0xEDF8, symBinAddr: 0x14944, symSize: 0xB8 }
  - { offset: 0x227A80, size: 0x8, addend: 0x0, symName: __ZNSt3__16vectorIN10reanimated3css13ValueKeyframeIJNS2_10CSSDisplayEEEENS_9allocatorIS5_EEE16__destroy_vectorclB8ne200100Ev, symObjAddr: 0xF09C, symBinAddr: 0x14B60, symSize: 0x74 }
  - { offset: 0x227F1A, size: 0x8, addend: 0x0, symName: __ZNSt3__116__variant_detail12__visitation6__base12__dispatcherIJLm0ELm0EEE10__dispatchB8ne200100IONS1_9__variant15__value_visitorIZNK10reanimated3css15CSSValueVariantIJNS9_10CSSDisplayEEE11interpolateEdRKSC_EUlRKT_RKT0_E_EEJRKNS0_6__baseILNS0_6_TraitE1EJSB_EEESS_EEEDcSF_DpT0_, symObjAddr: 0xF1E0, symBinAddr: 0x14CA4, symSize: 0x4 }
  - { offset: 0x227F5F, size: 0x8, addend: 0x0, symName: __ZNSt3__116__variant_detail12__visitation6__base12__dispatcherIJLm0ELm0EEE10__dispatchB8ne200100IONS1_9__variant15__value_visitorIZNK10reanimated3css15CSSValueVariantIJNS9_10CSSDisplayEEE11interpolateEdRKSC_EUlRKT_RKT0_E_EEJRKNS0_6__baseILNS0_6_TraitE1EJSB_EEESS_EEEDcSF_DpT0_, symObjAddr: 0xF1E0, symBinAddr: 0x14CA4, symSize: 0x4 }
  - { offset: 0x227F8E, size: 0x8, addend: 0x0, symName: __ZNSt3__116__variant_detail12__visitation6__base12__dispatcherIJLm0ELm0EEE10__dispatchB8ne200100IONS1_9__variant15__value_visitorIZNK10reanimated3css15CSSValueVariantIJNS9_10CSSDisplayEEE11interpolateEdRKSC_EUlRKT_RKT0_E_EEJRKNS0_6__baseILNS0_6_TraitE1EJSB_EEESS_EEEDcSF_DpT0_, symObjAddr: 0xF1E0, symBinAddr: 0x14CA4, symSize: 0x4 }
  - { offset: 0x227FE1, size: 0x8, addend: 0x0, symName: __ZNKSt3__116__variant_detail12__visitation9__variant15__value_visitorIZNK10reanimated3css15CSSValueVariantIJNS5_10CSSDisplayEEE11interpolateEdRKS8_EUlRKT_RKT0_E_EclB8ne200100IJRKNS0_5__altILm0ES7_EESN_EEEDcDpOT_, symObjAddr: 0xF1E4, symBinAddr: 0x14CA8, symSize: 0x74 }
  - { offset: 0x2282EF, size: 0x8, addend: 0x0, symName: __ZN10reanimated3css15CSSValueVariantIJNS0_10CSSDisplayEEEC2IS2_EEOT_, symObjAddr: 0xF258, symBinAddr: 0x14D1C, symSize: 0x5C }
  - { offset: 0x22865F, size: 0x8, addend: 0x0, symName: __ZZN10reanimated3css15CSSValueVariantIJNS0_10CSSDisplayEEE12tryConstructIRA5_KcEEbOT_ENKUlTyvE_clIS2_EEbv, symObjAddr: 0xF37C, symBinAddr: 0x14E40, symSize: 0x108 }
  - { offset: 0x228AAD, size: 0x8, addend: 0x0, symName: __ZZN10reanimated3css15CSSValueVariantIJNS0_10CSSKeywordEEE12tryConstructIRA7_KcEEbOT_ENKUlTyvE_clIS2_EEbv, symObjAddr: 0xF54C, symBinAddr: 0x15010, symSize: 0x108 }
  - { offset: 0x228FC2, size: 0x8, addend: 0x0, symName: __ZN10reanimated3css15CSSValueVariantIJNS0_9CSSLengthEEED1Ev, symObjAddr: 0xF654, symBinAddr: 0x15118, symSize: 0xC }
  - { offset: 0x229402, size: 0x8, addend: 0x0, symName: __ZNSt3__120__shared_ptr_emplaceIN10reanimated3css34ResolvableValueInterpolatorFactoryIJNS2_9CSSLengthEEEENS_9allocatorIS5_EEEC2B8ne200100IJRNS2_10RelativeToERKNS_12basic_stringIcNS_11char_traitsIcEENS6_IcEEEENS2_15CSSValueVariantIJS4_EEEES7_Li0EEES7_DpOT_, symObjAddr: 0xF6D0, symBinAddr: 0x15194, symSize: 0x50 }
  - { offset: 0x229692, size: 0x8, addend: 0x0, symName: __ZN10reanimated3css34ResolvableValueInterpolatorFactoryIJNS0_9CSSLengthEEEC2INS0_15CSSValueVariantIJS2_EEEEENS0_10RelativeToERKNSt3__112basic_stringIcNS8_11char_traitsIcEENS8_9allocatorIcEEEERKT_, symObjAddr: 0xF768, symBinAddr: 0x1522C, symSize: 0xAC }
  - { offset: 0x229CC8, size: 0x8, addend: 0x0, symName: __ZNSt3__120__shared_ptr_emplaceIN10reanimated3css34ResolvableValueInterpolatorFactoryIJNS2_9CSSLengthEEEENS_9allocatorIS5_EEED1Ev, symObjAddr: 0xF720, symBinAddr: 0x151E4, symSize: 0x14 }
  - { offset: 0x229CEC, size: 0x8, addend: 0x0, symName: __ZNSt3__120__shared_ptr_emplaceIN10reanimated3css34ResolvableValueInterpolatorFactoryIJNS2_9CSSLengthEEEENS_9allocatorIS5_EEED1Ev, symObjAddr: 0xF720, symBinAddr: 0x151E4, symSize: 0x14 }
  - { offset: 0x229D23, size: 0x8, addend: 0x0, symName: __ZNSt3__120__shared_ptr_emplaceIN10reanimated3css34ResolvableValueInterpolatorFactoryIJNS2_9CSSLengthEEEENS_9allocatorIS5_EEED0Ev, symObjAddr: 0xF734, symBinAddr: 0x151F8, symSize: 0x24 }
  - { offset: 0x229DF9, size: 0x8, addend: 0x0, symName: __ZNSt3__120__shared_ptr_emplaceIN10reanimated3css34ResolvableValueInterpolatorFactoryIJNS2_9CSSLengthEEEENS_9allocatorIS5_EEE16__on_zero_sharedEv, symObjAddr: 0xF758, symBinAddr: 0x1521C, symSize: 0xC }
  - { offset: 0x229E23, size: 0x8, addend: 0x0, symName: __ZNSt3__120__shared_ptr_emplaceIN10reanimated3css34ResolvableValueInterpolatorFactoryIJNS2_9CSSLengthEEEENS_9allocatorIS5_EEE16__on_zero_sharedEv, symObjAddr: 0xF758, symBinAddr: 0x1521C, symSize: 0xC }
  - { offset: 0x229E42, size: 0x8, addend: 0x0, symName: __ZNSt3__120__shared_ptr_emplaceIN10reanimated3css34ResolvableValueInterpolatorFactoryIJNS2_9CSSLengthEEEENS_9allocatorIS5_EEE16__on_zero_sharedEv, symObjAddr: 0xF758, symBinAddr: 0x1521C, symSize: 0xC }
  - { offset: 0x229E61, size: 0x8, addend: 0x0, symName: __ZNSt3__120__shared_ptr_emplaceIN10reanimated3css34ResolvableValueInterpolatorFactoryIJNS2_9CSSLengthEEEENS_9allocatorIS5_EEE16__on_zero_sharedEv, symObjAddr: 0xF758, symBinAddr: 0x1521C, symSize: 0xC }
  - { offset: 0x229E8D, size: 0x8, addend: 0x0, symName: __ZNSt3__120__shared_ptr_emplaceIN10reanimated3css34ResolvableValueInterpolatorFactoryIJNS2_9CSSLengthEEEENS_9allocatorIS5_EEE21__on_zero_shared_weakEv, symObjAddr: 0xF764, symBinAddr: 0x15228, symSize: 0x4 }
  - { offset: 0x229EC1, size: 0x8, addend: 0x0, symName: __ZNSt3__120__shared_ptr_emplaceIN10reanimated3css34ResolvableValueInterpolatorFactoryIJNS2_9CSSLengthEEEENS_9allocatorIS5_EEE21__on_zero_shared_weakEv, symObjAddr: 0xF764, symBinAddr: 0x15228, symSize: 0x4 }
  - { offset: 0x229EE5, size: 0x8, addend: 0x0, symName: __ZNSt3__120__shared_ptr_emplaceIN10reanimated3css34ResolvableValueInterpolatorFactoryIJNS2_9CSSLengthEEEENS_9allocatorIS5_EEE21__on_zero_shared_weakEv, symObjAddr: 0xF764, symBinAddr: 0x15228, symSize: 0x4 }
  - { offset: 0x229F0A, size: 0x8, addend: 0x0, symName: __ZNSt3__120__shared_ptr_emplaceIN10reanimated3css34ResolvableValueInterpolatorFactoryIJNS2_9CSSLengthEEEENS_9allocatorIS5_EEE21__on_zero_shared_weakEv, symObjAddr: 0xF764, symBinAddr: 0x15228, symSize: 0x4 }
  - { offset: 0x229F41, size: 0x8, addend: 0x0, symName: __ZNSt3__120__shared_ptr_emplaceIN10reanimated3css34ResolvableValueInterpolatorFactoryIJNS2_9CSSLengthEEEENS_9allocatorIS5_EEE21__on_zero_shared_weakEv, symObjAddr: 0xF764, symBinAddr: 0x15228, symSize: 0x4 }
  - { offset: 0x22A451, size: 0x8, addend: 0x0, symName: __ZN10reanimated3css34ResolvableValueInterpolatorFactoryIJNS0_9CSSLengthEEED1Ev, symObjAddr: 0xF814, symBinAddr: 0x152D8, symSize: 0x48 }
  - { offset: 0x22A798, size: 0x8, addend: 0x0, symName: __ZN10reanimated3css34ResolvableValueInterpolatorFactoryIJNS0_9CSSLengthEEED0Ev, symObjAddr: 0xF85C, symBinAddr: 0x15320, symSize: 0x48 }
  - { offset: 0x22AAEC, size: 0x8, addend: 0x0, symName: __ZNK10reanimated3css34ResolvableValueInterpolatorFactoryIJNS0_9CSSLengthEEE15getDefaultValueEv, symObjAddr: 0xF8A4, symBinAddr: 0x15368, symSize: 0x8 }
  - { offset: 0x22ABAF, size: 0x8, addend: 0x0, symName: __ZNK10reanimated3css34ResolvableValueInterpolatorFactoryIJNS0_9CSSLengthEEE6createERKNSt3__16vectorINS4_12basic_stringIcNS4_11char_traitsIcEENS4_9allocatorIcEEEENS9_ISB_EEEERKNS4_10shared_ptrINS0_20ViewStylesRepositoryEEE, symObjAddr: 0xF8AC, symBinAddr: 0x15370, symSize: 0x4C }
  - { offset: 0x22AC92, size: 0x8, addend: 0x0, symName: __ZN10reanimated3css15CSSValueVariantIJNS0_9CSSLengthEEED0Ev, symObjAddr: 0xF8F8, symBinAddr: 0x153BC, symSize: 0x4 }
  - { offset: 0x22B2EF, size: 0x8, addend: 0x0, symName: __ZNSt3__120__shared_ptr_emplaceIN10reanimated3css27ResolvableValueInterpolatorIJNS2_9CSSLengthEEEENS_9allocatorIS5_EEEC2B8ne200100IJRKNS_6vectorINS_12basic_stringIcNS_11char_traitsIcEENS6_IcEEEENS6_ISF_EEEERKNS2_15CSSValueVariantIJS4_EEERKNS_10shared_ptrINS2_20ViewStylesRepositoryEEERKNS2_10RelativeToERKSF_ES7_Li0EEES7_DpOT_, symObjAddr: 0xF9CC, symBinAddr: 0x15490, symSize: 0x4C }
  - { offset: 0x22B571, size: 0x8, addend: 0x0, symName: __ZNSt3__120__shared_ptr_emplaceIN10reanimated3css27ResolvableValueInterpolatorIJNS2_9CSSLengthEEEENS_9allocatorIS5_EEED1Ev, symObjAddr: 0xFA18, symBinAddr: 0x154DC, symSize: 0x14 }
  - { offset: 0x22B595, size: 0x8, addend: 0x0, symName: __ZNSt3__120__shared_ptr_emplaceIN10reanimated3css27ResolvableValueInterpolatorIJNS2_9CSSLengthEEEENS_9allocatorIS5_EEED1Ev, symObjAddr: 0xFA18, symBinAddr: 0x154DC, symSize: 0x14 }
  - { offset: 0x22B5CC, size: 0x8, addend: 0x0, symName: __ZNSt3__120__shared_ptr_emplaceIN10reanimated3css27ResolvableValueInterpolatorIJNS2_9CSSLengthEEEENS_9allocatorIS5_EEED0Ev, symObjAddr: 0xFA2C, symBinAddr: 0x154F0, symSize: 0x24 }
  - { offset: 0x22B6A2, size: 0x8, addend: 0x0, symName: __ZNSt3__120__shared_ptr_emplaceIN10reanimated3css27ResolvableValueInterpolatorIJNS2_9CSSLengthEEEENS_9allocatorIS5_EEE16__on_zero_sharedEv, symObjAddr: 0xFA50, symBinAddr: 0x15514, symSize: 0xC }
  - { offset: 0x22B6CC, size: 0x8, addend: 0x0, symName: __ZNSt3__120__shared_ptr_emplaceIN10reanimated3css27ResolvableValueInterpolatorIJNS2_9CSSLengthEEEENS_9allocatorIS5_EEE16__on_zero_sharedEv, symObjAddr: 0xFA50, symBinAddr: 0x15514, symSize: 0xC }
  - { offset: 0x22B6EB, size: 0x8, addend: 0x0, symName: __ZNSt3__120__shared_ptr_emplaceIN10reanimated3css27ResolvableValueInterpolatorIJNS2_9CSSLengthEEEENS_9allocatorIS5_EEE16__on_zero_sharedEv, symObjAddr: 0xFA50, symBinAddr: 0x15514, symSize: 0xC }
  - { offset: 0x22B70A, size: 0x8, addend: 0x0, symName: __ZNSt3__120__shared_ptr_emplaceIN10reanimated3css27ResolvableValueInterpolatorIJNS2_9CSSLengthEEEENS_9allocatorIS5_EEE16__on_zero_sharedEv, symObjAddr: 0xFA50, symBinAddr: 0x15514, symSize: 0xC }
  - { offset: 0x22B736, size: 0x8, addend: 0x0, symName: __ZNSt3__120__shared_ptr_emplaceIN10reanimated3css27ResolvableValueInterpolatorIJNS2_9CSSLengthEEEENS_9allocatorIS5_EEE21__on_zero_shared_weakEv, symObjAddr: 0xFA5C, symBinAddr: 0x15520, symSize: 0x4 }
  - { offset: 0x22B76A, size: 0x8, addend: 0x0, symName: __ZNSt3__120__shared_ptr_emplaceIN10reanimated3css27ResolvableValueInterpolatorIJNS2_9CSSLengthEEEENS_9allocatorIS5_EEE21__on_zero_shared_weakEv, symObjAddr: 0xFA5C, symBinAddr: 0x15520, symSize: 0x4 }
  - { offset: 0x22B78E, size: 0x8, addend: 0x0, symName: __ZNSt3__120__shared_ptr_emplaceIN10reanimated3css27ResolvableValueInterpolatorIJNS2_9CSSLengthEEEENS_9allocatorIS5_EEE21__on_zero_shared_weakEv, symObjAddr: 0xFA5C, symBinAddr: 0x15520, symSize: 0x4 }
  - { offset: 0x22B7B3, size: 0x8, addend: 0x0, symName: __ZNSt3__120__shared_ptr_emplaceIN10reanimated3css27ResolvableValueInterpolatorIJNS2_9CSSLengthEEEENS_9allocatorIS5_EEE21__on_zero_shared_weakEv, symObjAddr: 0xFA5C, symBinAddr: 0x15520, symSize: 0x4 }
  - { offset: 0x22B7EB, size: 0x8, addend: 0x0, symName: __ZNSt3__120__shared_ptr_emplaceIN10reanimated3css27ResolvableValueInterpolatorIJNS2_9CSSLengthEEEENS_9allocatorIS5_EEE21__on_zero_shared_weakEv, symObjAddr: 0xFA5C, symBinAddr: 0x15520, symSize: 0x4 }
  - { offset: 0x22B8CB, size: 0x8, addend: 0x0, symName: __ZN10reanimated3css17ValueInterpolatorIJNS0_9CSSLengthEEEC2ERKNSt3__16vectorINS4_12basic_stringIcNS4_11char_traitsIcEENS4_9allocatorIcEEEENS9_ISB_EEEERKNS0_15CSSValueVariantIJS2_EEERKNS4_10shared_ptrINS0_20ViewStylesRepositoryEEE, symObjAddr: 0xFB24, symBinAddr: 0x155E8, symSize: 0x108 }
  - { offset: 0x22C223, size: 0x8, addend: 0x0, symName: __ZNK10reanimated3css17ValueInterpolatorIJNS0_9CSSLengthEEE13getStyleValueERKNSt3__110shared_ptrIKN8facebook5react10ShadowNodeEEE, symObjAddr: 0xFC2C, symBinAddr: 0x156F0, symSize: 0x44 }
  - { offset: 0x22C2B1, size: 0x8, addend: 0x0, symName: __ZNK10reanimated3css17ValueInterpolatorIJNS0_9CSSLengthEEE13getResetStyleERKNSt3__110shared_ptrIKN8facebook5react10ShadowNodeEEE, symObjAddr: 0xFC70, symBinAddr: 0x15734, symSize: 0xC8 }
  - { offset: 0x22C65C, size: 0x8, addend: 0x0, symName: __ZNK10reanimated3css17ValueInterpolatorIJNS0_9CSSLengthEEE21getFirstKeyframeValueEv, symObjAddr: 0xFD38, symBinAddr: 0x157FC, symSize: 0x40 }
  - { offset: 0x22C686, size: 0x8, addend: 0x0, symName: __ZNK10reanimated3css17ValueInterpolatorIJNS0_9CSSLengthEEE21getFirstKeyframeValueEv, symObjAddr: 0xFD38, symBinAddr: 0x157FC, symSize: 0x40 }
  - { offset: 0x22C972, size: 0x8, addend: 0x0, symName: __ZNK10reanimated3css17ValueInterpolatorIJNS0_9CSSLengthEEE20getLastKeyframeValueEv, symObjAddr: 0xFD78, symBinAddr: 0x1583C, symSize: 0x40 }
  - { offset: 0x22C993, size: 0x8, addend: 0x0, symName: __ZNK10reanimated3css17ValueInterpolatorIJNS0_9CSSLengthEEE20getLastKeyframeValueEv, symObjAddr: 0xFD78, symBinAddr: 0x1583C, symSize: 0x40 }
  - { offset: 0x22C9BD, size: 0x8, addend: 0x0, symName: __ZNK10reanimated3css17ValueInterpolatorIJNS0_9CSSLengthEEE20getLastKeyframeValueEv, symObjAddr: 0xFD78, symBinAddr: 0x1583C, symSize: 0x40 }
  - { offset: 0x22CCAF, size: 0x8, addend: 0x0, symName: __ZNK10reanimated3css17ValueInterpolatorIJNS0_9CSSLengthEEE33equalsReversingAdjustedStartValueERKN5folly7dynamicE, symObjAddr: 0xFDB8, symBinAddr: 0x1587C, symSize: 0x70 }
  - { offset: 0x22CD1A, size: 0x8, addend: 0x0, symName: __ZNK10reanimated3css17ValueInterpolatorIJNS0_9CSSLengthEEE33equalsReversingAdjustedStartValueERKN5folly7dynamicE, symObjAddr: 0xFDB8, symBinAddr: 0x1587C, symSize: 0x70 }
  - { offset: 0x22CD55, size: 0x8, addend: 0x0, symName: __ZNK10reanimated3css17ValueInterpolatorIJNS0_9CSSLengthEEE33equalsReversingAdjustedStartValueERKN5folly7dynamicE, symObjAddr: 0xFDB8, symBinAddr: 0x1587C, symSize: 0x70 }
  - { offset: 0x22CEE3, size: 0x8, addend: 0x0, symName: __ZN10reanimated3css15CSSValueVariantIJNS0_9CSSLengthEEEC2ERKN5folly7dynamicE, symObjAddr: 0x108D0, symBinAddr: 0x16394, symSize: 0x128 }
  - { offset: 0x22DBB7, size: 0x8, addend: 0x0, symName: __ZN10reanimated3css17ValueInterpolatorIJNS0_9CSSLengthEEE15updateKeyframesERN8facebook3jsi7RuntimeERKNS5_5ValueE, symObjAddr: 0xFE28, symBinAddr: 0x158EC, symSize: 0x1A4 }
  - { offset: 0x22EABE, size: 0x8, addend: 0x0, symName: __ZNSt3__16vectorIN10reanimated3css13ValueKeyframeIJNS2_9CSSLengthEEEENS_9allocatorIS5_EEE7reserveEm, symObjAddr: 0x10A84, symBinAddr: 0x16548, symSize: 0xD8 }
  - { offset: 0x22ED90, size: 0x8, addend: 0x0, symName: __ZN10reanimated3css15CSSValueVariantIJNS0_9CSSLengthEEEC2ERN8facebook3jsi7RuntimeERKNS5_5ValueE, symObjAddr: 0x10F30, symBinAddr: 0x169E0, symSize: 0x138 }
  - { offset: 0x22F335, size: 0x8, addend: 0x0, symName: __ZNSt3__16vectorIN10reanimated3css13ValueKeyframeIJNS2_9CSSLengthEEEENS_9allocatorIS5_EEE9push_backB8ne200100EOS5_, symObjAddr: 0x10B5C, symBinAddr: 0x16620, symSize: 0x3C }
  - { offset: 0x22F76B, size: 0x8, addend: 0x0, symName: __ZN10reanimated3css17ValueInterpolatorIJNS0_9CSSLengthEEE30updateKeyframesFromStyleChangeERKN5folly7dynamicES7_S7_, symObjAddr: 0xFFCC, symBinAddr: 0x15A90, symSize: 0x250 }
  - { offset: 0x231CD1, size: 0x8, addend: 0x0, symName: __ZNSt3__18optionalIN10reanimated3css15CSSValueVariantIJNS2_9CSSLengthEEEEEaSB8ne200100IS5_vEERS6_OT_, symObjAddr: 0x11100, symBinAddr: 0x16BB0, symSize: 0xD8 }
  - { offset: 0x231CFD, size: 0x8, addend: 0x0, symName: __ZNSt3__18optionalIN10reanimated3css15CSSValueVariantIJNS2_9CSSLengthEEEEEaSB8ne200100IS5_vEERS6_OT_, symObjAddr: 0x11100, symBinAddr: 0x16BB0, symSize: 0xD8 }
  - { offset: 0x2326D8, size: 0x8, addend: 0x0, symName: __ZNSt3__16vectorIN10reanimated3css13ValueKeyframeIJNS2_9CSSLengthEEEENS_9allocatorIS5_EEE18__assign_with_sizeB8ne200100IPKS5_SB_EEvT_T0_l, symObjAddr: 0x111D8, symBinAddr: 0x16C88, symSize: 0x1C8 }
  - { offset: 0x233503, size: 0x8, addend: 0x0, symName: __ZNK10reanimated3css17ValueInterpolatorIJNS0_9CSSLengthEEE11interpolateERKNSt3__110shared_ptrIKN8facebook5react10ShadowNodeEEERKNS5_INS0_24KeyframeProgressProviderEEE, symObjAddr: 0x1021C, symBinAddr: 0x15CE0, symSize: 0x3B8 }
  - { offset: 0x235D4C, size: 0x8, addend: 0x0, symName: __ZN10reanimated3css27ResolvableValueInterpolatorIJNS0_9CSSLengthEEED1Ev, symObjAddr: 0x105D4, symBinAddr: 0x16098, symSize: 0x4 }
  - { offset: 0x235D57, size: 0x8, addend: 0x0, symName: __ZNK10reanimated3css17ValueInterpolatorIJNS0_9CSSLengthEEE18getToKeyframeIndexERKNSt3__110shared_ptrINS0_24KeyframeProgressProviderEEE, symObjAddr: 0x115E8, symBinAddr: 0x17098, symSize: 0xA8 }
  - { offset: 0x23605F, size: 0x8, addend: 0x0, symName: __ZNK10reanimated3css17ValueInterpolatorIJNS0_9CSSLengthEEE16getFallbackValueERKNSt3__110shared_ptrIKN8facebook5react10ShadowNodeEEE, symObjAddr: 0x11690, symBinAddr: 0x17140, symSize: 0xE8 }
  - { offset: 0x236724, size: 0x8, addend: 0x0, symName: __ZN10reanimated3css27ResolvableValueInterpolatorIJNS0_9CSSLengthEEED1Ev, symObjAddr: 0x105D4, symBinAddr: 0x16098, symSize: 0x4 }
  - { offset: 0x236748, size: 0x8, addend: 0x0, symName: __ZN10reanimated3css27ResolvableValueInterpolatorIJNS0_9CSSLengthEEED1Ev, symObjAddr: 0x105D4, symBinAddr: 0x16098, symSize: 0x4 }
  - { offset: 0x23675C, size: 0x8, addend: 0x0, symName: __ZN10reanimated3css27ResolvableValueInterpolatorIJNS0_9CSSLengthEEED2Ev, symObjAddr: 0x11778, symBinAddr: 0x17228, symSize: 0x40 }
  - { offset: 0x2368CF, size: 0x8, addend: 0x0, symName: __ZN10reanimated3css27ResolvableValueInterpolatorIJNS0_9CSSLengthEEED0Ev, symObjAddr: 0x105D8, symBinAddr: 0x1609C, symSize: 0x14 }
  - { offset: 0x23692E, size: 0x8, addend: 0x0, symName: __ZNK10reanimated3css27ResolvableValueInterpolatorIJNS0_9CSSLengthEEE16interpolateValueEdRKNS0_15CSSValueVariantIJS2_EEES7_RKNS0_30ValueInterpolatorUpdateContextE, symObjAddr: 0x105EC, symBinAddr: 0x160B0, symSize: 0x48 }
  - { offset: 0x2369D1, size: 0x8, addend: 0x0, symName: __ZN10reanimated3css17ValueInterpolatorIJNS0_9CSSLengthEEED1Ev, symObjAddr: 0x10634, symBinAddr: 0x160F8, symSize: 0x4 }
  - { offset: 0x2369F5, size: 0x8, addend: 0x0, symName: __ZN10reanimated3css17ValueInterpolatorIJNS0_9CSSLengthEEED1Ev, symObjAddr: 0x10634, symBinAddr: 0x160F8, symSize: 0x4 }
  - { offset: 0x236A09, size: 0x8, addend: 0x0, symName: __ZN10reanimated3css17ValueInterpolatorIJNS0_9CSSLengthEEED2Ev, symObjAddr: 0x10658, symBinAddr: 0x1611C, symSize: 0x8C }
  - { offset: 0x2370A4, size: 0x8, addend: 0x0, symName: __ZN10reanimated3css17ValueInterpolatorIJNS0_9CSSLengthEEED0Ev, symObjAddr: 0x10638, symBinAddr: 0x160FC, symSize: 0x14 }
  - { offset: 0x237103, size: 0x8, addend: 0x0, symName: __ZNK10reanimated3css17ValueInterpolatorIJNS0_9CSSLengthEEE16interpolateValueEdRKNS0_15CSSValueVariantIJS2_EEES7_RKNS0_30ValueInterpolatorUpdateContextE, symObjAddr: 0x1064C, symBinAddr: 0x16110, symSize: 0xC }
  - { offset: 0x237221, size: 0x8, addend: 0x0, symName: __ZNSt3__16vectorIN10reanimated3css13ValueKeyframeIJNS2_9CSSLengthEEEENS_9allocatorIS5_EEE16__destroy_vectorclB8ne200100Ev, symObjAddr: 0x106E4, symBinAddr: 0x161A8, symSize: 0x44 }
  - { offset: 0x2378F3, size: 0x8, addend: 0x0, symName: __ZNSt3__116__variant_detail12__visitation6__base12__dispatcherIJLm0ELm0EEE10__dispatchB8ne200100IONS1_9__variant15__value_visitorIZNK10reanimated3css15CSSValueVariantIJNS9_9CSSLengthEEE11interpolateEdRKSC_EUlRKT_RKT0_E_EEJRKNS0_6__baseILNS0_6_TraitE1EJSB_EEESS_EEEDcSF_DpT0_, symObjAddr: 0x10820, symBinAddr: 0x162E4, symSize: 0x4 }
  - { offset: 0x237938, size: 0x8, addend: 0x0, symName: __ZNSt3__116__variant_detail12__visitation6__base12__dispatcherIJLm0ELm0EEE10__dispatchB8ne200100IONS1_9__variant15__value_visitorIZNK10reanimated3css15CSSValueVariantIJNS9_9CSSLengthEEE11interpolateEdRKSC_EUlRKT_RKT0_E_EEJRKNS0_6__baseILNS0_6_TraitE1EJSB_EEESS_EEEDcSF_DpT0_, symObjAddr: 0x10820, symBinAddr: 0x162E4, symSize: 0x4 }
  - { offset: 0x237967, size: 0x8, addend: 0x0, symName: __ZNSt3__116__variant_detail12__visitation6__base12__dispatcherIJLm0ELm0EEE10__dispatchB8ne200100IONS1_9__variant15__value_visitorIZNK10reanimated3css15CSSValueVariantIJNS9_9CSSLengthEEE11interpolateEdRKSC_EUlRKT_RKT0_E_EEJRKNS0_6__baseILNS0_6_TraitE1EJSB_EEESS_EEEDcSF_DpT0_, symObjAddr: 0x10820, symBinAddr: 0x162E4, symSize: 0x4 }
  - { offset: 0x2379BA, size: 0x8, addend: 0x0, symName: __ZNKSt3__116__variant_detail12__visitation9__variant15__value_visitorIZNK10reanimated3css15CSSValueVariantIJNS5_9CSSLengthEEE11interpolateEdRKS8_EUlRKT_RKT0_E_EclB8ne200100IJRKNS0_5__altILm0ES7_EESN_EEEDcDpOT_, symObjAddr: 0x10824, symBinAddr: 0x162E8, symSize: 0x50 }
  - { offset: 0x237D4D, size: 0x8, addend: 0x0, symName: __ZNSt3__116__variant_detail12__visitation6__base12__dispatcherIJLm0ELm0EEE10__dispatchB8ne200100IONS1_9__variant15__value_visitorIZNK10reanimated3css15CSSValueVariantIJNS9_9CSSLengthEEEeqERKSC_EUlRKT_RKT0_E_EEJRKNS0_6__baseILNS0_6_TraitE1EJSB_EEESS_EEEDcSF_DpT0_, symObjAddr: 0x108C4, symBinAddr: 0x16388, symSize: 0xC }
  - { offset: 0x23806F, size: 0x8, addend: 0x0, symName: __ZN10reanimated3css15CSSValueVariantIJNS0_9CSSLengthEEE12tryConstructERKN5folly7dynamicE, symObjAddr: 0x109F8, symBinAddr: 0x164BC, symSize: 0x8C }
  - { offset: 0x238574, size: 0x8, addend: 0x0, symName: __ZNSt3__119__allocate_at_leastB8ne200100INS_9allocatorIN10reanimated3css13ValueKeyframeIJNS3_9CSSLengthEEEEEEEENS_19__allocation_resultINS_16allocator_traitsIT_E7pointerEEERSA_m, symObjAddr: 0x10BAC, symBinAddr: 0x1665C, symSize: 0x48 }
  - { offset: 0x23857F, size: 0x8, addend: 0x0, symName: __ZNSt3__114__split_bufferIN10reanimated3css13ValueKeyframeIJNS2_9CSSLengthEEEERNS_9allocatorIS5_EEED2Ev, symObjAddr: 0x10CBC, symBinAddr: 0x1676C, symSize: 0x5C }
  - { offset: 0x238A04, size: 0x8, addend: 0x0, symName: __ZNSt3__16vectorIN10reanimated3css13ValueKeyframeIJNS2_9CSSLengthEEEENS_9allocatorIS5_EEE22__construct_one_at_endB8ne200100IJS5_EEEvDpOT_, symObjAddr: 0x10D18, symBinAddr: 0x167C8, symSize: 0x80 }
  - { offset: 0x238A4C, size: 0x8, addend: 0x0, symName: __ZNSt3__16vectorIN10reanimated3css13ValueKeyframeIJNS2_9CSSLengthEEEENS_9allocatorIS5_EEE22__construct_one_at_endB8ne200100IJS5_EEEvDpOT_, symObjAddr: 0x10D18, symBinAddr: 0x167C8, symSize: 0x80 }
  - { offset: 0x238A71, size: 0x8, addend: 0x0, symName: __ZNSt3__16vectorIN10reanimated3css13ValueKeyframeIJNS2_9CSSLengthEEEENS_9allocatorIS5_EEE22__construct_one_at_endB8ne200100IJS5_EEEvDpOT_, symObjAddr: 0x10D18, symBinAddr: 0x167C8, symSize: 0x80 }
  - { offset: 0x2392DB, size: 0x8, addend: 0x0, symName: __ZNSt3__16vectorIN10reanimated3css13ValueKeyframeIJNS2_9CSSLengthEEEENS_9allocatorIS5_EEE24__emplace_back_slow_pathIJS5_EEEPS5_DpOT_, symObjAddr: 0x10D98, symBinAddr: 0x16848, symSize: 0x198 }
  - { offset: 0x23A10E, size: 0x8, addend: 0x0, symName: __ZN10reanimated3css15CSSValueVariantIJNS0_9CSSLengthEEE12tryConstructERN8facebook3jsi7RuntimeERKNS5_5ValueE, symObjAddr: 0x11068, symBinAddr: 0x16B18, symSize: 0x98 }
  - { offset: 0x23A633, size: 0x8, addend: 0x0, symName: __ZNSt3__16vectorIN10reanimated3css13ValueKeyframeIJNS2_9CSSLengthEEEENS_9allocatorIS5_EEE13__vdeallocateEv, symObjAddr: 0x113A0, symBinAddr: 0x16E50, symSize: 0x60 }
  - { offset: 0x23AA9F, size: 0x8, addend: 0x0, symName: __ZNSt3__16vectorIN10reanimated3css13ValueKeyframeIJNS2_9CSSLengthEEEENS_9allocatorIS5_EEE11__vallocateB8ne200100Em, symObjAddr: 0x11400, symBinAddr: 0x16EB0, symSize: 0x4C }
  - { offset: 0x23AAF9, size: 0x8, addend: 0x0, symName: __ZNSt3__135__uninitialized_allocator_copy_implB8ne200100INS_9allocatorIN10reanimated3css13ValueKeyframeIJNS3_9CSSLengthEEEEEEPKS6_S9_PS6_EET2_RT_T0_T1_SB_, symObjAddr: 0x1144C, symBinAddr: 0x16EFC, symSize: 0xA8 }
  - { offset: 0x23AB04, size: 0x8, addend: 0x0, symName: __ZNSt3__123__optional_storage_baseIN10reanimated3css15CSSValueVariantIJNS2_9CSSLengthEEEELb0EE13__assign_fromB8ne200100IRKNS_27__optional_copy_assign_baseIS5_Lb0EEEEEvOT_, symObjAddr: 0x114F4, symBinAddr: 0x16FA4, symSize: 0xF4 }
  - { offset: 0x23BE42, size: 0x8, addend: 0x0, symName: __ZNSt3__116__variant_detail12__visitation6__base12__dispatcherIJLm0ELm0EEE10__dispatchB8ne200100IONS1_9__variant15__value_visitorIZNK10reanimated3css15CSSValueVariantIJNS9_9CSSLengthEEE11interpolateEdRKSC_RKNS9_38CSSResolvableValueInterpolationContextEEUlRKT_RKT0_E_EEJRKNS0_6__baseILNS0_6_TraitE1EJSB_EEESV_EEEDcSI_DpT0_, symObjAddr: 0x118B0, symBinAddr: 0x17360, symSize: 0x78 }
  - { offset: 0x23C1E4, size: 0x8, addend: 0x0, symName: __ZN10reanimated3css15CSSValueVariantIJNS0_9CSSLengthEEE12tryConstructIRKiEEbOT_, symObjAddr: 0x119D4, symBinAddr: 0x17484, symSize: 0xF0 }
  - { offset: 0x23C60C, size: 0x8, addend: 0x0, symName: __ZN10reanimated3css15CSSValueVariantIJNS0_9CSSLengthENS0_10CSSKeywordEEE12tryConstructIRKiEEbOT_, symObjAddr: 0x11B70, symBinAddr: 0x17620, symSize: 0x108 }
  - { offset: 0x23CA16, size: 0x8, addend: 0x0, symName: __ZZN10reanimated3css15CSSValueVariantIJNS0_9CSSLengthENS0_10CSSKeywordEEE12tryConstructIRKiEEbOT_ENKUlTyvE_clIS3_EEbv, symObjAddr: 0x11C78, symBinAddr: 0x17728, symSize: 0x118 }
  - { offset: 0x23CE1A, size: 0x8, addend: 0x0, symName: __ZZN10reanimated3css15CSSValueVariantIJNS0_10CSSKeywordEEE12tryConstructIRA9_KcEEbOT_ENKUlTyvE_clIS2_EEbv, symObjAddr: 0x11E58, symBinAddr: 0x17908, symSize: 0x108 }
  - { offset: 0x23D2E2, size: 0x8, addend: 0x0, symName: __ZN10reanimated3css15CSSValueVariantIJNS0_10CSSIntegerEEED1Ev, symObjAddr: 0x11F60, symBinAddr: 0x17A10, symSize: 0xC }
  - { offset: 0x23D4CA, size: 0x8, addend: 0x0, symName: __ZNSt3__120__shared_ptr_emplaceIN10reanimated3css24ValueInterpolatorFactoryIJNS2_10CSSIntegerEEEENS_9allocatorIS5_EEED1Ev, symObjAddr: 0x11F6C, symBinAddr: 0x17A1C, symSize: 0x14 }
  - { offset: 0x23D4EE, size: 0x8, addend: 0x0, symName: __ZNSt3__120__shared_ptr_emplaceIN10reanimated3css24ValueInterpolatorFactoryIJNS2_10CSSIntegerEEEENS_9allocatorIS5_EEED1Ev, symObjAddr: 0x11F6C, symBinAddr: 0x17A1C, symSize: 0x14 }
  - { offset: 0x23D525, size: 0x8, addend: 0x0, symName: __ZNSt3__120__shared_ptr_emplaceIN10reanimated3css24ValueInterpolatorFactoryIJNS2_10CSSIntegerEEEENS_9allocatorIS5_EEED0Ev, symObjAddr: 0x11F80, symBinAddr: 0x17A30, symSize: 0x24 }
  - { offset: 0x23D5FB, size: 0x8, addend: 0x0, symName: __ZNSt3__120__shared_ptr_emplaceIN10reanimated3css24ValueInterpolatorFactoryIJNS2_10CSSIntegerEEEENS_9allocatorIS5_EEE16__on_zero_sharedEv, symObjAddr: 0x11FA4, symBinAddr: 0x17A54, symSize: 0xC }
  - { offset: 0x23D625, size: 0x8, addend: 0x0, symName: __ZNSt3__120__shared_ptr_emplaceIN10reanimated3css24ValueInterpolatorFactoryIJNS2_10CSSIntegerEEEENS_9allocatorIS5_EEE16__on_zero_sharedEv, symObjAddr: 0x11FA4, symBinAddr: 0x17A54, symSize: 0xC }
  - { offset: 0x23D644, size: 0x8, addend: 0x0, symName: __ZNSt3__120__shared_ptr_emplaceIN10reanimated3css24ValueInterpolatorFactoryIJNS2_10CSSIntegerEEEENS_9allocatorIS5_EEE16__on_zero_sharedEv, symObjAddr: 0x11FA4, symBinAddr: 0x17A54, symSize: 0xC }
  - { offset: 0x23D663, size: 0x8, addend: 0x0, symName: __ZNSt3__120__shared_ptr_emplaceIN10reanimated3css24ValueInterpolatorFactoryIJNS2_10CSSIntegerEEEENS_9allocatorIS5_EEE16__on_zero_sharedEv, symObjAddr: 0x11FA4, symBinAddr: 0x17A54, symSize: 0xC }
  - { offset: 0x23D6F1, size: 0x8, addend: 0x0, symName: __ZNSt3__120__shared_ptr_emplaceIN10reanimated3css24ValueInterpolatorFactoryIJNS2_10CSSIntegerEEEENS_9allocatorIS5_EEE21__on_zero_shared_weakEv, symObjAddr: 0x11FB0, symBinAddr: 0x17A60, symSize: 0x4 }
  - { offset: 0x23D725, size: 0x8, addend: 0x0, symName: __ZNSt3__120__shared_ptr_emplaceIN10reanimated3css24ValueInterpolatorFactoryIJNS2_10CSSIntegerEEEENS_9allocatorIS5_EEE21__on_zero_shared_weakEv, symObjAddr: 0x11FB0, symBinAddr: 0x17A60, symSize: 0x4 }
  - { offset: 0x23D749, size: 0x8, addend: 0x0, symName: __ZNSt3__120__shared_ptr_emplaceIN10reanimated3css24ValueInterpolatorFactoryIJNS2_10CSSIntegerEEEENS_9allocatorIS5_EEE21__on_zero_shared_weakEv, symObjAddr: 0x11FB0, symBinAddr: 0x17A60, symSize: 0x4 }
  - { offset: 0x23D76E, size: 0x8, addend: 0x0, symName: __ZNSt3__120__shared_ptr_emplaceIN10reanimated3css24ValueInterpolatorFactoryIJNS2_10CSSIntegerEEEENS_9allocatorIS5_EEE21__on_zero_shared_weakEv, symObjAddr: 0x11FB0, symBinAddr: 0x17A60, symSize: 0x4 }
  - { offset: 0x23D7A5, size: 0x8, addend: 0x0, symName: __ZNSt3__120__shared_ptr_emplaceIN10reanimated3css24ValueInterpolatorFactoryIJNS2_10CSSIntegerEEEENS_9allocatorIS5_EEE21__on_zero_shared_weakEv, symObjAddr: 0x11FB0, symBinAddr: 0x17A60, symSize: 0x4 }
  - { offset: 0x23D809, size: 0x8, addend: 0x0, symName: __ZN10reanimated3css24ValueInterpolatorFactoryIJNS0_10CSSIntegerEEED1Ev, symObjAddr: 0x11FB4, symBinAddr: 0x17A64, symSize: 0x1C }
  - { offset: 0x23D838, size: 0x8, addend: 0x0, symName: __ZN10reanimated3css24ValueInterpolatorFactoryIJNS0_10CSSIntegerEEED1Ev, symObjAddr: 0x11FB4, symBinAddr: 0x17A64, symSize: 0x1C }
  - { offset: 0x23DA22, size: 0x8, addend: 0x0, symName: __ZN10reanimated3css24ValueInterpolatorFactoryIJNS0_10CSSIntegerEEED0Ev, symObjAddr: 0x11FD0, symBinAddr: 0x17A80, symSize: 0x4 }
  - { offset: 0x23DA4E, size: 0x8, addend: 0x0, symName: __ZNK10reanimated3css24ValueInterpolatorFactoryIJNS0_10CSSIntegerEEE18isDiscretePropertyEv, symObjAddr: 0x11FD4, symBinAddr: 0x17A84, symSize: 0x8 }
  - { offset: 0x23DA75, size: 0x8, addend: 0x0, symName: __ZNK10reanimated3css24ValueInterpolatorFactoryIJNS0_10CSSIntegerEEE15getDefaultValueEv, symObjAddr: 0x11FDC, symBinAddr: 0x17A8C, symSize: 0x8 }
  - { offset: 0x23DB38, size: 0x8, addend: 0x0, symName: __ZNK10reanimated3css24ValueInterpolatorFactoryIJNS0_10CSSIntegerEEE6createERKNSt3__16vectorINS4_12basic_stringIcNS4_11char_traitsIcEENS4_9allocatorIcEEEENS9_ISB_EEEERKNS4_10shared_ptrINS0_20ViewStylesRepositoryEEE, symObjAddr: 0x11FE4, symBinAddr: 0x17A94, symSize: 0x44 }
  - { offset: 0x23DC1B, size: 0x8, addend: 0x0, symName: __ZN10reanimated3css15CSSValueVariantIJNS0_10CSSIntegerEEED0Ev, symObjAddr: 0x12028, symBinAddr: 0x17AD8, symSize: 0x4 }
  - { offset: 0x23E254, size: 0x8, addend: 0x0, symName: __ZNSt3__120__shared_ptr_emplaceIN10reanimated3css17ValueInterpolatorIJNS2_10CSSIntegerEEEENS_9allocatorIS5_EEEC2B8ne200100IJRKNS_6vectorINS_12basic_stringIcNS_11char_traitsIcEENS6_IcEEEENS6_ISF_EEEERKNS2_15CSSValueVariantIJS4_EEERKNS_10shared_ptrINS2_20ViewStylesRepositoryEEEES7_Li0EEES7_DpOT_, symObjAddr: 0x120E4, symBinAddr: 0x17B94, symSize: 0x4C }
  - { offset: 0x23E4D7, size: 0x8, addend: 0x0, symName: __ZN10reanimated3css17ValueInterpolatorIJNS0_10CSSIntegerEEEC2ERKNSt3__16vectorINS4_12basic_stringIcNS4_11char_traitsIcEENS4_9allocatorIcEEEENS9_ISB_EEEERKNS0_15CSSValueVariantIJS2_EEERKNS4_10shared_ptrINS0_20ViewStylesRepositoryEEE, symObjAddr: 0x12178, symBinAddr: 0x17C28, symSize: 0x100 }
  - { offset: 0x23ED80, size: 0x8, addend: 0x0, symName: __ZNSt3__120__shared_ptr_emplaceIN10reanimated3css17ValueInterpolatorIJNS2_10CSSIntegerEEEENS_9allocatorIS5_EEED1Ev, symObjAddr: 0x12130, symBinAddr: 0x17BE0, symSize: 0x14 }
  - { offset: 0x23EDA4, size: 0x8, addend: 0x0, symName: __ZNSt3__120__shared_ptr_emplaceIN10reanimated3css17ValueInterpolatorIJNS2_10CSSIntegerEEEENS_9allocatorIS5_EEED1Ev, symObjAddr: 0x12130, symBinAddr: 0x17BE0, symSize: 0x14 }
  - { offset: 0x23EDDB, size: 0x8, addend: 0x0, symName: __ZNSt3__120__shared_ptr_emplaceIN10reanimated3css17ValueInterpolatorIJNS2_10CSSIntegerEEEENS_9allocatorIS5_EEED0Ev, symObjAddr: 0x12144, symBinAddr: 0x17BF4, symSize: 0x24 }
  - { offset: 0x23EEB1, size: 0x8, addend: 0x0, symName: __ZNSt3__120__shared_ptr_emplaceIN10reanimated3css17ValueInterpolatorIJNS2_10CSSIntegerEEEENS_9allocatorIS5_EEE16__on_zero_sharedEv, symObjAddr: 0x12168, symBinAddr: 0x17C18, symSize: 0xC }
  - { offset: 0x23EEDB, size: 0x8, addend: 0x0, symName: __ZNSt3__120__shared_ptr_emplaceIN10reanimated3css17ValueInterpolatorIJNS2_10CSSIntegerEEEENS_9allocatorIS5_EEE16__on_zero_sharedEv, symObjAddr: 0x12168, symBinAddr: 0x17C18, symSize: 0xC }
  - { offset: 0x23EEFA, size: 0x8, addend: 0x0, symName: __ZNSt3__120__shared_ptr_emplaceIN10reanimated3css17ValueInterpolatorIJNS2_10CSSIntegerEEEENS_9allocatorIS5_EEE16__on_zero_sharedEv, symObjAddr: 0x12168, symBinAddr: 0x17C18, symSize: 0xC }
  - { offset: 0x23EF19, size: 0x8, addend: 0x0, symName: __ZNSt3__120__shared_ptr_emplaceIN10reanimated3css17ValueInterpolatorIJNS2_10CSSIntegerEEEENS_9allocatorIS5_EEE16__on_zero_sharedEv, symObjAddr: 0x12168, symBinAddr: 0x17C18, symSize: 0xC }
  - { offset: 0x23EF45, size: 0x8, addend: 0x0, symName: __ZNSt3__120__shared_ptr_emplaceIN10reanimated3css17ValueInterpolatorIJNS2_10CSSIntegerEEEENS_9allocatorIS5_EEE21__on_zero_shared_weakEv, symObjAddr: 0x12174, symBinAddr: 0x17C24, symSize: 0x4 }
  - { offset: 0x23EF79, size: 0x8, addend: 0x0, symName: __ZNSt3__120__shared_ptr_emplaceIN10reanimated3css17ValueInterpolatorIJNS2_10CSSIntegerEEEENS_9allocatorIS5_EEE21__on_zero_shared_weakEv, symObjAddr: 0x12174, symBinAddr: 0x17C24, symSize: 0x4 }
  - { offset: 0x23EF9D, size: 0x8, addend: 0x0, symName: __ZNSt3__120__shared_ptr_emplaceIN10reanimated3css17ValueInterpolatorIJNS2_10CSSIntegerEEEENS_9allocatorIS5_EEE21__on_zero_shared_weakEv, symObjAddr: 0x12174, symBinAddr: 0x17C24, symSize: 0x4 }
  - { offset: 0x23EFC2, size: 0x8, addend: 0x0, symName: __ZNSt3__120__shared_ptr_emplaceIN10reanimated3css17ValueInterpolatorIJNS2_10CSSIntegerEEEENS_9allocatorIS5_EEE21__on_zero_shared_weakEv, symObjAddr: 0x12174, symBinAddr: 0x17C24, symSize: 0x4 }
  - { offset: 0x23EFFA, size: 0x8, addend: 0x0, symName: __ZNSt3__120__shared_ptr_emplaceIN10reanimated3css17ValueInterpolatorIJNS2_10CSSIntegerEEEENS_9allocatorIS5_EEE21__on_zero_shared_weakEv, symObjAddr: 0x12174, symBinAddr: 0x17C24, symSize: 0x4 }
  - { offset: 0x23F11A, size: 0x8, addend: 0x0, symName: __ZNK10reanimated3css17ValueInterpolatorIJNS0_10CSSIntegerEEE13getStyleValueERKNSt3__110shared_ptrIKN8facebook5react10ShadowNodeEEE, symObjAddr: 0x12278, symBinAddr: 0x17D28, symSize: 0x44 }
  - { offset: 0x23F1A8, size: 0x8, addend: 0x0, symName: __ZNK10reanimated3css17ValueInterpolatorIJNS0_10CSSIntegerEEE13getResetStyleERKNSt3__110shared_ptrIKN8facebook5react10ShadowNodeEEE, symObjAddr: 0x122BC, symBinAddr: 0x17D6C, symSize: 0xC8 }
  - { offset: 0x23F553, size: 0x8, addend: 0x0, symName: __ZNK10reanimated3css17ValueInterpolatorIJNS0_10CSSIntegerEEE21getFirstKeyframeValueEv, symObjAddr: 0x12384, symBinAddr: 0x17E34, symSize: 0x40 }
  - { offset: 0x23F57D, size: 0x8, addend: 0x0, symName: __ZNK10reanimated3css17ValueInterpolatorIJNS0_10CSSIntegerEEE21getFirstKeyframeValueEv, symObjAddr: 0x12384, symBinAddr: 0x17E34, symSize: 0x40 }
  - { offset: 0x23F869, size: 0x8, addend: 0x0, symName: __ZNK10reanimated3css17ValueInterpolatorIJNS0_10CSSIntegerEEE20getLastKeyframeValueEv, symObjAddr: 0x123C4, symBinAddr: 0x17E74, symSize: 0x40 }
  - { offset: 0x23F88A, size: 0x8, addend: 0x0, symName: __ZNK10reanimated3css17ValueInterpolatorIJNS0_10CSSIntegerEEE20getLastKeyframeValueEv, symObjAddr: 0x123C4, symBinAddr: 0x17E74, symSize: 0x40 }
  - { offset: 0x23F8B4, size: 0x8, addend: 0x0, symName: __ZNK10reanimated3css17ValueInterpolatorIJNS0_10CSSIntegerEEE20getLastKeyframeValueEv, symObjAddr: 0x123C4, symBinAddr: 0x17E74, symSize: 0x40 }
  - { offset: 0x23FBA6, size: 0x8, addend: 0x0, symName: __ZNK10reanimated3css17ValueInterpolatorIJNS0_10CSSIntegerEEE33equalsReversingAdjustedStartValueERKN5folly7dynamicE, symObjAddr: 0x12404, symBinAddr: 0x17EB4, symSize: 0x70 }
  - { offset: 0x23FC11, size: 0x8, addend: 0x0, symName: __ZNK10reanimated3css17ValueInterpolatorIJNS0_10CSSIntegerEEE33equalsReversingAdjustedStartValueERKN5folly7dynamicE, symObjAddr: 0x12404, symBinAddr: 0x17EB4, symSize: 0x70 }
  - { offset: 0x23FC4C, size: 0x8, addend: 0x0, symName: __ZNK10reanimated3css17ValueInterpolatorIJNS0_10CSSIntegerEEE33equalsReversingAdjustedStartValueERKN5folly7dynamicE, symObjAddr: 0x12404, symBinAddr: 0x17EB4, symSize: 0x70 }
  - { offset: 0x23FDE2, size: 0x8, addend: 0x0, symName: __ZN10reanimated3css15CSSValueVariantIJNS0_10CSSIntegerEEEC2ERKN5folly7dynamicE, symObjAddr: 0x12C10, symBinAddr: 0x186C0, symSize: 0x140 }
  - { offset: 0x240C87, size: 0x8, addend: 0x0, symName: __ZN10reanimated3css17ValueInterpolatorIJNS0_10CSSIntegerEEE15updateKeyframesERN8facebook3jsi7RuntimeERKNS5_5ValueE, symObjAddr: 0x12474, symBinAddr: 0x17F24, symSize: 0x18C }
  - { offset: 0x241BB5, size: 0x8, addend: 0x0, symName: __ZNSt3__16vectorIN10reanimated3css13ValueKeyframeIJNS2_10CSSIntegerEEEENS_9allocatorIS5_EEE7reserveEm, symObjAddr: 0x12DC4, symBinAddr: 0x18874, symSize: 0xCC }
  - { offset: 0x241E87, size: 0x8, addend: 0x0, symName: __ZN10reanimated3css15CSSValueVariantIJNS0_10CSSIntegerEEEC2ERN8facebook3jsi7RuntimeERKNS5_5ValueE, symObjAddr: 0x13230, symBinAddr: 0x18C2C, symSize: 0x150 }
  - { offset: 0x24250B, size: 0x8, addend: 0x0, symName: __ZNSt3__16vectorIN10reanimated3css13ValueKeyframeIJNS2_10CSSIntegerEEEENS_9allocatorIS5_EEE9push_backB8ne200100EOS5_, symObjAddr: 0x12E90, symBinAddr: 0x18940, symSize: 0x3C }
  - { offset: 0x242A04, size: 0x8, addend: 0x0, symName: __ZN10reanimated3css17ValueInterpolatorIJNS0_10CSSIntegerEEE30updateKeyframesFromStyleChangeERKN5folly7dynamicES7_S7_, symObjAddr: 0x12600, symBinAddr: 0x180B0, symSize: 0x208 }
  - { offset: 0x244E41, size: 0x8, addend: 0x0, symName: __ZNSt3__18optionalIN10reanimated3css15CSSValueVariantIJNS2_10CSSIntegerEEEEEaSB8ne200100IS5_vEERS6_OT_, symObjAddr: 0x13400, symBinAddr: 0x18DFC, symSize: 0xB8 }
  - { offset: 0x244E6D, size: 0x8, addend: 0x0, symName: __ZNSt3__18optionalIN10reanimated3css15CSSValueVariantIJNS2_10CSSIntegerEEEEEaSB8ne200100IS5_vEERS6_OT_, symObjAddr: 0x13400, symBinAddr: 0x18DFC, symSize: 0xB8 }
  - { offset: 0x2458A8, size: 0x8, addend: 0x0, symName: __ZNSt3__16vectorIN10reanimated3css13ValueKeyframeIJNS2_10CSSIntegerEEEENS_9allocatorIS5_EEE18__assign_with_sizeB8ne200100IPKS5_SB_EEvT_T0_l, symObjAddr: 0x134B8, symBinAddr: 0x18EB4, symSize: 0x1B8 }
  - { offset: 0x2466F1, size: 0x8, addend: 0x0, symName: __ZNK10reanimated3css17ValueInterpolatorIJNS0_10CSSIntegerEEE11interpolateERKNSt3__110shared_ptrIKN8facebook5react10ShadowNodeEEERKNS5_INS0_24KeyframeProgressProviderEEE, symObjAddr: 0x12808, symBinAddr: 0x182B8, symSize: 0x388 }
  - { offset: 0x249084, size: 0x8, addend: 0x0, symName: __ZN10reanimated3css17ValueInterpolatorIJNS0_10CSSIntegerEEED1Ev, symObjAddr: 0x12B90, symBinAddr: 0x18640, symSize: 0x4 }
  - { offset: 0x249255, size: 0x8, addend: 0x0, symName: __ZNK10reanimated3css17ValueInterpolatorIJNS0_10CSSIntegerEEE16getFallbackValueERKNSt3__110shared_ptrIKN8facebook5react10ShadowNodeEEE, symObjAddr: 0x13934, symBinAddr: 0x191E0, symSize: 0xE4 }
  - { offset: 0x249945, size: 0x8, addend: 0x0, symName: __ZN10reanimated3css17ValueInterpolatorIJNS0_10CSSIntegerEEED1Ev, symObjAddr: 0x12B90, symBinAddr: 0x18640, symSize: 0x4 }
  - { offset: 0x249969, size: 0x8, addend: 0x0, symName: __ZN10reanimated3css17ValueInterpolatorIJNS0_10CSSIntegerEEED1Ev, symObjAddr: 0x12B90, symBinAddr: 0x18640, symSize: 0x4 }
  - { offset: 0x24997D, size: 0x8, addend: 0x0, symName: __ZN10reanimated3css17ValueInterpolatorIJNS0_10CSSIntegerEEED2Ev, symObjAddr: 0x13A18, symBinAddr: 0x192C4, symSize: 0x8C }
  - { offset: 0x24A013, size: 0x8, addend: 0x0, symName: __ZN10reanimated3css17ValueInterpolatorIJNS0_10CSSIntegerEEED0Ev, symObjAddr: 0x12B94, symBinAddr: 0x18644, symSize: 0x14 }
  - { offset: 0x24A072, size: 0x8, addend: 0x0, symName: __ZNK10reanimated3css17ValueInterpolatorIJNS0_10CSSIntegerEEE16interpolateValueEdRKNS0_15CSSValueVariantIJS2_EEES7_RKNS0_30ValueInterpolatorUpdateContextE, symObjAddr: 0x12BA8, symBinAddr: 0x18658, symSize: 0xC }
  - { offset: 0x24A395, size: 0x8, addend: 0x0, symName: __ZNSt3__116__variant_detail12__visitation6__base12__dispatcherIJLm0ELm0EEE10__dispatchB8ne200100IONS1_9__variant15__value_visitorIZNK10reanimated3css15CSSValueVariantIJNS9_10CSSIntegerEEEeqERKSC_EUlRKT_RKT0_E_EEJRKNS0_6__baseILNS0_6_TraitE1EJSB_EEESS_EEEDcSF_DpT0_, symObjAddr: 0x12C04, symBinAddr: 0x186B4, symSize: 0xC }
  - { offset: 0x24A743, size: 0x8, addend: 0x0, symName: __ZN10reanimated3css15CSSValueVariantIJNS0_10CSSIntegerEEE12tryConstructERKN5folly7dynamicE, symObjAddr: 0x12D50, symBinAddr: 0x18800, symSize: 0x74 }
  - { offset: 0x24AF83, size: 0x8, addend: 0x0, symName: __ZNSt3__16vectorIN10reanimated3css13ValueKeyframeIJNS2_10CSSIntegerEEEENS_9allocatorIS5_EEE22__construct_one_at_endB8ne200100IJS5_EEEvDpOT_, symObjAddr: 0x13040, symBinAddr: 0x18A3C, symSize: 0x78 }
  - { offset: 0x24AFCB, size: 0x8, addend: 0x0, symName: __ZNSt3__16vectorIN10reanimated3css13ValueKeyframeIJNS2_10CSSIntegerEEEENS_9allocatorIS5_EEE22__construct_one_at_endB8ne200100IJS5_EEEvDpOT_, symObjAddr: 0x13040, symBinAddr: 0x18A3C, symSize: 0x78 }
  - { offset: 0x24AFF0, size: 0x8, addend: 0x0, symName: __ZNSt3__16vectorIN10reanimated3css13ValueKeyframeIJNS2_10CSSIntegerEEEENS_9allocatorIS5_EEE22__construct_one_at_endB8ne200100IJS5_EEEvDpOT_, symObjAddr: 0x13040, symBinAddr: 0x18A3C, symSize: 0x78 }
  - { offset: 0x24B885, size: 0x8, addend: 0x0, symName: __ZNSt3__16vectorIN10reanimated3css13ValueKeyframeIJNS2_10CSSIntegerEEEENS_9allocatorIS5_EEE24__emplace_back_slow_pathIJS5_EEEPS5_DpOT_, symObjAddr: 0x130B8, symBinAddr: 0x18AB4, symSize: 0x178 }
  - { offset: 0x24C6E3, size: 0x8, addend: 0x0, symName: __ZN10reanimated3css15CSSValueVariantIJNS0_10CSSIntegerEEE12tryConstructERN8facebook3jsi7RuntimeERKNS5_5ValueE, symObjAddr: 0x13380, symBinAddr: 0x18D7C, symSize: 0x80 }
  - { offset: 0x24CF0D, size: 0x8, addend: 0x0, symName: __ZNSt3__135__uninitialized_allocator_copy_implB8ne200100INS_9allocatorIN10reanimated3css13ValueKeyframeIJNS3_10CSSIntegerEEEEEEPKS6_S9_PS6_EET2_RT_T0_T1_SB_, symObjAddr: 0x13718, symBinAddr: 0x1906C, symSize: 0xA0 }
  - { offset: 0x24CF18, size: 0x8, addend: 0x0, symName: __ZNSt3__123__optional_storage_baseIN10reanimated3css15CSSValueVariantIJNS2_10CSSIntegerEEEELb0EE13__assign_fromB8ne200100IRKNS_27__optional_copy_assign_baseIS5_Lb0EEEEEvOT_, symObjAddr: 0x137B8, symBinAddr: 0x1910C, symSize: 0xD4 }
  - { offset: 0x24E5F1, size: 0x8, addend: 0x0, symName: __ZNSt3__116__variant_detail12__visitation6__base12__dispatcherIJLm0ELm0EEE10__dispatchB8ne200100IONS1_9__variant15__value_visitorIZNK10reanimated3css15CSSValueVariantIJNS9_10CSSIntegerEEE11interpolateEdRKSC_EUlRKT_RKT0_E_EEJRKNS0_6__baseILNS0_6_TraitE1EJSB_EEESS_EEEDcSF_DpT0_, symObjAddr: 0x13BDC, symBinAddr: 0x19444, symSize: 0x84 }
  - { offset: 0x24EA67, size: 0x8, addend: 0x0, symName: __ZN10reanimated3css15CSSValueVariantIJNS0_10CSSIntegerEEE12tryConstructIRKiEEbOT_, symObjAddr: 0x13D24, symBinAddr: 0x1958C, symSize: 0xD4 }
  - { offset: 0x24F0A1, size: 0x8, addend: 0x0, symName: __ZNKSt3__113__string_hashIcNS_9allocatorIcEEEclB8ne200100ERKNS_12basic_stringIcNS_11char_traitsIcEES2_EE, symObjAddr: 0x1412C, symBinAddr: 0x19994, symSize: 0x3C }
  - { offset: 0x24F17C, size: 0x8, addend: 0x0, symName: __ZNKSt3__18equal_toINS_12basic_stringIcNS_11char_traitsIcEENS_9allocatorIcEEEEEclB8ne200100ERKS6_S9_, symObjAddr: 0x145D4, symBinAddr: 0x19E3C, symSize: 0x70 }
  - { offset: 0x24F1C8, size: 0x8, addend: 0x0, symName: __ZNKSt3__18equal_toINS_12basic_stringIcNS_11char_traitsIcEENS_9allocatorIcEEEEEclB8ne200100ERKS6_S9_, symObjAddr: 0x145D4, symBinAddr: 0x19E3C, symSize: 0x70 }
  - { offset: 0x24F1FC, size: 0x8, addend: 0x0, symName: __ZNKSt3__18equal_toINS_12basic_stringIcNS_11char_traitsIcEENS_9allocatorIcEEEEEclB8ne200100ERKS6_S9_, symObjAddr: 0x145D4, symBinAddr: 0x19E3C, symSize: 0x70 }
  - { offset: 0x24F21A, size: 0x8, addend: 0x0, symName: __ZNKSt3__18equal_toINS_12basic_stringIcNS_11char_traitsIcEENS_9allocatorIcEEEEEclB8ne200100ERKS6_S9_, symObjAddr: 0x145D4, symBinAddr: 0x19E3C, symSize: 0x70 }
  - { offset: 0x24F32F, size: 0x8, addend: 0x0, symName: __ZNSt3__112__hash_tableINS_17__hash_value_typeINS_12basic_stringIcNS_11char_traitsIcEENS_9allocatorIcEEEENS_10shared_ptrIN10reanimated3css27PropertyInterpolatorFactoryEEEEENS_22__unordered_map_hasherIS7_SD_NS_4hashIS7_EENS_8equal_toIS7_EELb1EEENS_21__unordered_map_equalIS7_SD_SI_SG_Lb1EEENS5_ISD_EEE21__construct_node_hashIRKNS_4pairIKS7_SC_EEJEEENS_10unique_ptrINS_11__hash_nodeISD_PvEENS_22__hash_node_destructorINS5_ISX_EEEEEEmOT_DpOT0_, symObjAddr: 0x140C0, symBinAddr: 0x19928, symSize: 0x6C }
  - { offset: 0x24F724, size: 0x8, addend: 0x0, symName: __ZNSt3__110unique_ptrINS_11__hash_nodeINS_17__hash_value_typeINS_12basic_stringIcNS_11char_traitsIcEENS_9allocatorIcEEEENS_10shared_ptrIN10reanimated3css27PropertyInterpolatorFactoryEEEEEPvEENS_22__hash_node_destructorINS6_ISG_EEEEE5resetB8ne200100EPSG_, symObjAddr: 0x148DC, symBinAddr: 0x19F18, symSize: 0x48 }
  - { offset: 0x24FA9A, size: 0x8, addend: 0x0, symName: __ZNSt3__14pairIKNS_12basic_stringIcNS_11char_traitsIcEENS_9allocatorIcEEEENS_10shared_ptrIN10reanimated3css27PropertyInterpolatorFactoryEEEEC2B8ne200100ERKSD_, symObjAddr: 0x14644, symBinAddr: 0x19EAC, symSize: 0x6C }
  - { offset: 0x24FC52, size: 0x8, addend: 0x0, symName: __ZNKSt3__121__murmur2_or_cityhashImLm64EEclB8ne200100EPKvm, symObjAddr: 0x14168, symBinAddr: 0x199D0, symSize: 0x208 }
  - { offset: 0x250318, size: 0x8, addend: 0x0, symName: __ZNSt3__121__murmur2_or_cityhashImLm64EE18__hash_len_0_to_16B8ne200100EPKcm, symObjAddr: 0x14370, symBinAddr: 0x19BD8, symSize: 0xF8 }
  - { offset: 0x25053E, size: 0x8, addend: 0x0, symName: __ZNSt3__121__murmur2_or_cityhashImLm64EE19__hash_len_33_to_64B8ne200100EPKcm, symObjAddr: 0x14514, symBinAddr: 0x19D7C, symSize: 0xC0 }
  - { offset: 0x2507C7, size: 0x8, addend: 0x0, symName: __ZNSt3__121__murmur2_or_cityhashImLm64EE19__hash_len_17_to_32B8ne200100EPKcm, symObjAddr: 0x14468, symBinAddr: 0x19CD0, symSize: 0xAC }
  - { offset: 0x250C38, size: 0x8, addend: 0x0, symName: __ZNSt3__110unique_ptrINS_11__hash_nodeINS_17__hash_value_typeINS_12basic_stringIcNS_11char_traitsIcEENS_9allocatorIcEEEENS_10shared_ptrIN10reanimated3css27PropertyInterpolatorFactoryEEEEEPvEENS_22__hash_node_destructorINS6_ISG_EEEEE5resetB8ne200100EPSG_, symObjAddr: 0x148DC, symBinAddr: 0x19F18, symSize: 0x48 }
  - { offset: 0x250E82, size: 0x8, addend: 0x0, symName: __ZNSt3__112__hash_tableINS_17__hash_value_typeINS_12basic_stringIcNS_11char_traitsIcEENS_9allocatorIcEEEENS_10shared_ptrIN10reanimated3css27PropertyInterpolatorFactoryEEEEENS_22__unordered_map_hasherIS7_SD_NS_4hashIS7_EENS_8equal_toIS7_EELb1EEENS_21__unordered_map_equalIS7_SD_SI_SG_Lb1EEENS5_ISD_EEE17__deallocate_nodeEPNS_16__hash_node_baseIPNS_11__hash_nodeISD_PvEEEE, symObjAddr: 0x14998, symBinAddr: 0x19FD4, symSize: 0x3C }
  - { offset: 0x25112B, size: 0x8, addend: 0x0, symName: __ZN10reanimated3css15CSSValueVariantIJNS0_8CSSColorEEED1Ev, symObjAddr: 0x149D4, symBinAddr: 0x1A010, symSize: 0xC }
  - { offset: 0x251313, size: 0x8, addend: 0x0, symName: __ZNSt3__120__shared_ptr_emplaceIN10reanimated3css24ValueInterpolatorFactoryIJNS2_8CSSColorEEEENS_9allocatorIS5_EEED1Ev, symObjAddr: 0x149E0, symBinAddr: 0x1A01C, symSize: 0x14 }
  - { offset: 0x251337, size: 0x8, addend: 0x0, symName: __ZNSt3__120__shared_ptr_emplaceIN10reanimated3css24ValueInterpolatorFactoryIJNS2_8CSSColorEEEENS_9allocatorIS5_EEED1Ev, symObjAddr: 0x149E0, symBinAddr: 0x1A01C, symSize: 0x14 }
  - { offset: 0x25136E, size: 0x8, addend: 0x0, symName: __ZNSt3__120__shared_ptr_emplaceIN10reanimated3css24ValueInterpolatorFactoryIJNS2_8CSSColorEEEENS_9allocatorIS5_EEED0Ev, symObjAddr: 0x149F4, symBinAddr: 0x1A030, symSize: 0x24 }
  - { offset: 0x251444, size: 0x8, addend: 0x0, symName: __ZNSt3__120__shared_ptr_emplaceIN10reanimated3css24ValueInterpolatorFactoryIJNS2_8CSSColorEEEENS_9allocatorIS5_EEE16__on_zero_sharedEv, symObjAddr: 0x14A18, symBinAddr: 0x1A054, symSize: 0xC }
  - { offset: 0x25146E, size: 0x8, addend: 0x0, symName: __ZNSt3__120__shared_ptr_emplaceIN10reanimated3css24ValueInterpolatorFactoryIJNS2_8CSSColorEEEENS_9allocatorIS5_EEE16__on_zero_sharedEv, symObjAddr: 0x14A18, symBinAddr: 0x1A054, symSize: 0xC }
  - { offset: 0x25148D, size: 0x8, addend: 0x0, symName: __ZNSt3__120__shared_ptr_emplaceIN10reanimated3css24ValueInterpolatorFactoryIJNS2_8CSSColorEEEENS_9allocatorIS5_EEE16__on_zero_sharedEv, symObjAddr: 0x14A18, symBinAddr: 0x1A054, symSize: 0xC }
  - { offset: 0x2514AC, size: 0x8, addend: 0x0, symName: __ZNSt3__120__shared_ptr_emplaceIN10reanimated3css24ValueInterpolatorFactoryIJNS2_8CSSColorEEEENS_9allocatorIS5_EEE16__on_zero_sharedEv, symObjAddr: 0x14A18, symBinAddr: 0x1A054, symSize: 0xC }
  - { offset: 0x25153A, size: 0x8, addend: 0x0, symName: __ZNSt3__120__shared_ptr_emplaceIN10reanimated3css24ValueInterpolatorFactoryIJNS2_8CSSColorEEEENS_9allocatorIS5_EEE21__on_zero_shared_weakEv, symObjAddr: 0x14A24, symBinAddr: 0x1A060, symSize: 0x4 }
  - { offset: 0x25156E, size: 0x8, addend: 0x0, symName: __ZNSt3__120__shared_ptr_emplaceIN10reanimated3css24ValueInterpolatorFactoryIJNS2_8CSSColorEEEENS_9allocatorIS5_EEE21__on_zero_shared_weakEv, symObjAddr: 0x14A24, symBinAddr: 0x1A060, symSize: 0x4 }
  - { offset: 0x251592, size: 0x8, addend: 0x0, symName: __ZNSt3__120__shared_ptr_emplaceIN10reanimated3css24ValueInterpolatorFactoryIJNS2_8CSSColorEEEENS_9allocatorIS5_EEE21__on_zero_shared_weakEv, symObjAddr: 0x14A24, symBinAddr: 0x1A060, symSize: 0x4 }
  - { offset: 0x2515B7, size: 0x8, addend: 0x0, symName: __ZNSt3__120__shared_ptr_emplaceIN10reanimated3css24ValueInterpolatorFactoryIJNS2_8CSSColorEEEENS_9allocatorIS5_EEE21__on_zero_shared_weakEv, symObjAddr: 0x14A24, symBinAddr: 0x1A060, symSize: 0x4 }
  - { offset: 0x2515EE, size: 0x8, addend: 0x0, symName: __ZNSt3__120__shared_ptr_emplaceIN10reanimated3css24ValueInterpolatorFactoryIJNS2_8CSSColorEEEENS_9allocatorIS5_EEE21__on_zero_shared_weakEv, symObjAddr: 0x14A24, symBinAddr: 0x1A060, symSize: 0x4 }
  - { offset: 0x251652, size: 0x8, addend: 0x0, symName: __ZN10reanimated3css24ValueInterpolatorFactoryIJNS0_8CSSColorEEED1Ev, symObjAddr: 0x14A28, symBinAddr: 0x1A064, symSize: 0x1C }
  - { offset: 0x251681, size: 0x8, addend: 0x0, symName: __ZN10reanimated3css24ValueInterpolatorFactoryIJNS0_8CSSColorEEED1Ev, symObjAddr: 0x14A28, symBinAddr: 0x1A064, symSize: 0x1C }
  - { offset: 0x25186B, size: 0x8, addend: 0x0, symName: __ZN10reanimated3css24ValueInterpolatorFactoryIJNS0_8CSSColorEEED0Ev, symObjAddr: 0x14A44, symBinAddr: 0x1A080, symSize: 0x4 }
  - { offset: 0x251897, size: 0x8, addend: 0x0, symName: __ZNK10reanimated3css24ValueInterpolatorFactoryIJNS0_8CSSColorEEE18isDiscretePropertyEv, symObjAddr: 0x14A48, symBinAddr: 0x1A084, symSize: 0x8 }
  - { offset: 0x2518BE, size: 0x8, addend: 0x0, symName: __ZNK10reanimated3css24ValueInterpolatorFactoryIJNS0_8CSSColorEEE15getDefaultValueEv, symObjAddr: 0x14A50, symBinAddr: 0x1A08C, symSize: 0x8 }
  - { offset: 0x251981, size: 0x8, addend: 0x0, symName: __ZNK10reanimated3css24ValueInterpolatorFactoryIJNS0_8CSSColorEEE6createERKNSt3__16vectorINS4_12basic_stringIcNS4_11char_traitsIcEENS4_9allocatorIcEEEENS9_ISB_EEEERKNS4_10shared_ptrINS0_20ViewStylesRepositoryEEE, symObjAddr: 0x14A58, symBinAddr: 0x1A094, symSize: 0x44 }
  - { offset: 0x251A64, size: 0x8, addend: 0x0, symName: __ZN10reanimated3css15CSSValueVariantIJNS0_8CSSColorEEED0Ev, symObjAddr: 0x14A9C, symBinAddr: 0x1A0D8, symSize: 0x4 }
  - { offset: 0x2520CE, size: 0x8, addend: 0x0, symName: __ZNSt3__120__shared_ptr_emplaceIN10reanimated3css17ValueInterpolatorIJNS2_8CSSColorEEEENS_9allocatorIS5_EEEC2B8ne200100IJRKNS_6vectorINS_12basic_stringIcNS_11char_traitsIcEENS6_IcEEEENS6_ISF_EEEERKNS2_15CSSValueVariantIJS4_EEERKNS_10shared_ptrINS2_20ViewStylesRepositoryEEEES7_Li0EEES7_DpOT_, symObjAddr: 0x14B58, symBinAddr: 0x1A194, symSize: 0x4C }
  - { offset: 0x252351, size: 0x8, addend: 0x0, symName: __ZN10reanimated3css17ValueInterpolatorIJNS0_8CSSColorEEEC2ERKNSt3__16vectorINS4_12basic_stringIcNS4_11char_traitsIcEENS4_9allocatorIcEEEENS9_ISB_EEEERKNS0_15CSSValueVariantIJS2_EEERKNS4_10shared_ptrINS0_20ViewStylesRepositoryEEE, symObjAddr: 0x14BEC, symBinAddr: 0x1A228, symSize: 0x100 }
  - { offset: 0x252BCE, size: 0x8, addend: 0x0, symName: __ZNSt3__120__shared_ptr_emplaceIN10reanimated3css17ValueInterpolatorIJNS2_8CSSColorEEEENS_9allocatorIS5_EEED1Ev, symObjAddr: 0x14BA4, symBinAddr: 0x1A1E0, symSize: 0x14 }
  - { offset: 0x252BF2, size: 0x8, addend: 0x0, symName: __ZNSt3__120__shared_ptr_emplaceIN10reanimated3css17ValueInterpolatorIJNS2_8CSSColorEEEENS_9allocatorIS5_EEED1Ev, symObjAddr: 0x14BA4, symBinAddr: 0x1A1E0, symSize: 0x14 }
  - { offset: 0x252C29, size: 0x8, addend: 0x0, symName: __ZNSt3__120__shared_ptr_emplaceIN10reanimated3css17ValueInterpolatorIJNS2_8CSSColorEEEENS_9allocatorIS5_EEED0Ev, symObjAddr: 0x14BB8, symBinAddr: 0x1A1F4, symSize: 0x24 }
  - { offset: 0x252CFF, size: 0x8, addend: 0x0, symName: __ZNSt3__120__shared_ptr_emplaceIN10reanimated3css17ValueInterpolatorIJNS2_8CSSColorEEEENS_9allocatorIS5_EEE16__on_zero_sharedEv, symObjAddr: 0x14BDC, symBinAddr: 0x1A218, symSize: 0xC }
  - { offset: 0x252D29, size: 0x8, addend: 0x0, symName: __ZNSt3__120__shared_ptr_emplaceIN10reanimated3css17ValueInterpolatorIJNS2_8CSSColorEEEENS_9allocatorIS5_EEE16__on_zero_sharedEv, symObjAddr: 0x14BDC, symBinAddr: 0x1A218, symSize: 0xC }
  - { offset: 0x252D48, size: 0x8, addend: 0x0, symName: __ZNSt3__120__shared_ptr_emplaceIN10reanimated3css17ValueInterpolatorIJNS2_8CSSColorEEEENS_9allocatorIS5_EEE16__on_zero_sharedEv, symObjAddr: 0x14BDC, symBinAddr: 0x1A218, symSize: 0xC }
  - { offset: 0x252D67, size: 0x8, addend: 0x0, symName: __ZNSt3__120__shared_ptr_emplaceIN10reanimated3css17ValueInterpolatorIJNS2_8CSSColorEEEENS_9allocatorIS5_EEE16__on_zero_sharedEv, symObjAddr: 0x14BDC, symBinAddr: 0x1A218, symSize: 0xC }
  - { offset: 0x252D93, size: 0x8, addend: 0x0, symName: __ZNSt3__120__shared_ptr_emplaceIN10reanimated3css17ValueInterpolatorIJNS2_8CSSColorEEEENS_9allocatorIS5_EEE21__on_zero_shared_weakEv, symObjAddr: 0x14BE8, symBinAddr: 0x1A224, symSize: 0x4 }
  - { offset: 0x252DC7, size: 0x8, addend: 0x0, symName: __ZNSt3__120__shared_ptr_emplaceIN10reanimated3css17ValueInterpolatorIJNS2_8CSSColorEEEENS_9allocatorIS5_EEE21__on_zero_shared_weakEv, symObjAddr: 0x14BE8, symBinAddr: 0x1A224, symSize: 0x4 }
  - { offset: 0x252DEB, size: 0x8, addend: 0x0, symName: __ZNSt3__120__shared_ptr_emplaceIN10reanimated3css17ValueInterpolatorIJNS2_8CSSColorEEEENS_9allocatorIS5_EEE21__on_zero_shared_weakEv, symObjAddr: 0x14BE8, symBinAddr: 0x1A224, symSize: 0x4 }
  - { offset: 0x252E10, size: 0x8, addend: 0x0, symName: __ZNSt3__120__shared_ptr_emplaceIN10reanimated3css17ValueInterpolatorIJNS2_8CSSColorEEEENS_9allocatorIS5_EEE21__on_zero_shared_weakEv, symObjAddr: 0x14BE8, symBinAddr: 0x1A224, symSize: 0x4 }
  - { offset: 0x252E48, size: 0x8, addend: 0x0, symName: __ZNSt3__120__shared_ptr_emplaceIN10reanimated3css17ValueInterpolatorIJNS2_8CSSColorEEEENS_9allocatorIS5_EEE21__on_zero_shared_weakEv, symObjAddr: 0x14BE8, symBinAddr: 0x1A224, symSize: 0x4 }
  - { offset: 0x253061, size: 0x8, addend: 0x0, symName: __ZNK10reanimated3css17ValueInterpolatorIJNS0_8CSSColorEEE13getStyleValueERKNSt3__110shared_ptrIKN8facebook5react10ShadowNodeEEE, symObjAddr: 0x14CEC, symBinAddr: 0x1A328, symSize: 0x44 }
  - { offset: 0x2530EF, size: 0x8, addend: 0x0, symName: __ZNK10reanimated3css17ValueInterpolatorIJNS0_8CSSColorEEE13getResetStyleERKNSt3__110shared_ptrIKN8facebook5react10ShadowNodeEEE, symObjAddr: 0x14D30, symBinAddr: 0x1A36C, symSize: 0xC8 }
  - { offset: 0x25349A, size: 0x8, addend: 0x0, symName: __ZNK10reanimated3css17ValueInterpolatorIJNS0_8CSSColorEEE21getFirstKeyframeValueEv, symObjAddr: 0x14DF8, symBinAddr: 0x1A434, symSize: 0x40 }
  - { offset: 0x2534C4, size: 0x8, addend: 0x0, symName: __ZNK10reanimated3css17ValueInterpolatorIJNS0_8CSSColorEEE21getFirstKeyframeValueEv, symObjAddr: 0x14DF8, symBinAddr: 0x1A434, symSize: 0x40 }
  - { offset: 0x2537B0, size: 0x8, addend: 0x0, symName: __ZNK10reanimated3css17ValueInterpolatorIJNS0_8CSSColorEEE20getLastKeyframeValueEv, symObjAddr: 0x14E38, symBinAddr: 0x1A474, symSize: 0x40 }
  - { offset: 0x2537D1, size: 0x8, addend: 0x0, symName: __ZNK10reanimated3css17ValueInterpolatorIJNS0_8CSSColorEEE20getLastKeyframeValueEv, symObjAddr: 0x14E38, symBinAddr: 0x1A474, symSize: 0x40 }
  - { offset: 0x2537FB, size: 0x8, addend: 0x0, symName: __ZNK10reanimated3css17ValueInterpolatorIJNS0_8CSSColorEEE20getLastKeyframeValueEv, symObjAddr: 0x14E38, symBinAddr: 0x1A474, symSize: 0x40 }
  - { offset: 0x253AED, size: 0x8, addend: 0x0, symName: __ZNK10reanimated3css17ValueInterpolatorIJNS0_8CSSColorEEE33equalsReversingAdjustedStartValueERKN5folly7dynamicE, symObjAddr: 0x14E78, symBinAddr: 0x1A4B4, symSize: 0x70 }
  - { offset: 0x253B58, size: 0x8, addend: 0x0, symName: __ZNK10reanimated3css17ValueInterpolatorIJNS0_8CSSColorEEE33equalsReversingAdjustedStartValueERKN5folly7dynamicE, symObjAddr: 0x14E78, symBinAddr: 0x1A4B4, symSize: 0x70 }
  - { offset: 0x253B93, size: 0x8, addend: 0x0, symName: __ZNK10reanimated3css17ValueInterpolatorIJNS0_8CSSColorEEE33equalsReversingAdjustedStartValueERKN5folly7dynamicE, symObjAddr: 0x14E78, symBinAddr: 0x1A4B4, symSize: 0x70 }
  - { offset: 0x253D29, size: 0x8, addend: 0x0, symName: __ZN10reanimated3css15CSSValueVariantIJNS0_8CSSColorEEEC2ERKN5folly7dynamicE, symObjAddr: 0x15668, symBinAddr: 0x1ACA4, symSize: 0x128 }
  - { offset: 0x254AC5, size: 0x8, addend: 0x0, symName: __ZN10reanimated3css17ValueInterpolatorIJNS0_8CSSColorEEE15updateKeyframesERN8facebook3jsi7RuntimeERKNS5_5ValueE, symObjAddr: 0x14EE8, symBinAddr: 0x1A524, symSize: 0x188 }
  - { offset: 0x2559CB, size: 0x8, addend: 0x0, symName: __ZNSt3__16vectorIN10reanimated3css13ValueKeyframeIJNS2_8CSSColorEEEENS_9allocatorIS5_EEE7reserveEm, symObjAddr: 0x1580C, symBinAddr: 0x1AE48, symSize: 0xCC }
  - { offset: 0x255C9D, size: 0x8, addend: 0x0, symName: __ZN10reanimated3css15CSSValueVariantIJNS0_8CSSColorEEEC2ERN8facebook3jsi7RuntimeERKNS5_5ValueE, symObjAddr: 0x15C78, symBinAddr: 0x1B200, symSize: 0x138 }
  - { offset: 0x256242, size: 0x8, addend: 0x0, symName: __ZNSt3__16vectorIN10reanimated3css13ValueKeyframeIJNS2_8CSSColorEEEENS_9allocatorIS5_EEE9push_backB8ne200100EOS5_, symObjAddr: 0x158D8, symBinAddr: 0x1AF14, symSize: 0x3C }
  - { offset: 0x25673B, size: 0x8, addend: 0x0, symName: __ZN10reanimated3css17ValueInterpolatorIJNS0_8CSSColorEEE30updateKeyframesFromStyleChangeERKN5folly7dynamicES7_S7_, symObjAddr: 0x15070, symBinAddr: 0x1A6AC, symSize: 0x200 }
  - { offset: 0x258AEC, size: 0x8, addend: 0x0, symName: __ZNSt3__18optionalIN10reanimated3css15CSSValueVariantIJNS2_8CSSColorEEEEEaSB8ne200100IS5_vEERS6_OT_, symObjAddr: 0x15E38, symBinAddr: 0x1B3C0, symSize: 0xC0 }
  - { offset: 0x258B18, size: 0x8, addend: 0x0, symName: __ZNSt3__18optionalIN10reanimated3css15CSSValueVariantIJNS2_8CSSColorEEEEEaSB8ne200100IS5_vEERS6_OT_, symObjAddr: 0x15E38, symBinAddr: 0x1B3C0, symSize: 0xC0 }
  - { offset: 0x2594B1, size: 0x8, addend: 0x0, symName: __ZNSt3__16vectorIN10reanimated3css13ValueKeyframeIJNS2_8CSSColorEEEENS_9allocatorIS5_EEE18__assign_with_sizeB8ne200100IPKS5_SB_EEvT_T0_l, symObjAddr: 0x15EF8, symBinAddr: 0x1B480, symSize: 0x1B8 }
  - { offset: 0x25A2D5, size: 0x8, addend: 0x0, symName: __ZNK10reanimated3css17ValueInterpolatorIJNS0_8CSSColorEEE11interpolateERKNSt3__110shared_ptrIKN8facebook5react10ShadowNodeEEERKNS5_INS0_24KeyframeProgressProviderEEE, symObjAddr: 0x15270, symBinAddr: 0x1A8AC, symSize: 0x378 }
  - { offset: 0x25CB18, size: 0x8, addend: 0x0, symName: __ZN10reanimated3css17ValueInterpolatorIJNS0_8CSSColorEEED1Ev, symObjAddr: 0x155E8, symBinAddr: 0x1AC24, symSize: 0x4 }
  - { offset: 0x25CCE9, size: 0x8, addend: 0x0, symName: __ZNK10reanimated3css17ValueInterpolatorIJNS0_8CSSColorEEE16getFallbackValueERKNSt3__110shared_ptrIKN8facebook5react10ShadowNodeEEE, symObjAddr: 0x1637C, symBinAddr: 0x1B7B4, symSize: 0xE0 }
  - { offset: 0x25D3AD, size: 0x8, addend: 0x0, symName: __ZN10reanimated3css17ValueInterpolatorIJNS0_8CSSColorEEED1Ev, symObjAddr: 0x155E8, symBinAddr: 0x1AC24, symSize: 0x4 }
  - { offset: 0x25D3D1, size: 0x8, addend: 0x0, symName: __ZN10reanimated3css17ValueInterpolatorIJNS0_8CSSColorEEED1Ev, symObjAddr: 0x155E8, symBinAddr: 0x1AC24, symSize: 0x4 }
  - { offset: 0x25D3E5, size: 0x8, addend: 0x0, symName: __ZN10reanimated3css17ValueInterpolatorIJNS0_8CSSColorEEED2Ev, symObjAddr: 0x1645C, symBinAddr: 0x1B894, symSize: 0x8C }
  - { offset: 0x25DA7B, size: 0x8, addend: 0x0, symName: __ZN10reanimated3css17ValueInterpolatorIJNS0_8CSSColorEEED0Ev, symObjAddr: 0x155EC, symBinAddr: 0x1AC28, symSize: 0x14 }
  - { offset: 0x25DADA, size: 0x8, addend: 0x0, symName: __ZNK10reanimated3css17ValueInterpolatorIJNS0_8CSSColorEEE16interpolateValueEdRKNS0_15CSSValueVariantIJS2_EEES7_RKNS0_30ValueInterpolatorUpdateContextE, symObjAddr: 0x15600, symBinAddr: 0x1AC3C, symSize: 0xC }
  - { offset: 0x25DDFD, size: 0x8, addend: 0x0, symName: __ZNSt3__116__variant_detail12__visitation6__base12__dispatcherIJLm0ELm0EEE10__dispatchB8ne200100IONS1_9__variant15__value_visitorIZNK10reanimated3css15CSSValueVariantIJNS9_8CSSColorEEEeqERKSC_EUlRKT_RKT0_E_EEJRKNS0_6__baseILNS0_6_TraitE1EJSB_EEESS_EEEDcSF_DpT0_, symObjAddr: 0x1565C, symBinAddr: 0x1AC98, symSize: 0xC }
  - { offset: 0x25DF06, size: 0x8, addend: 0x0, symName: __ZN10reanimated3css15CSSValueVariantIJNS0_8CSSColorEEE12tryConstructERKN5folly7dynamicE, symObjAddr: 0x15790, symBinAddr: 0x1ADCC, symSize: 0x7C }
  - { offset: 0x25E6D9, size: 0x8, addend: 0x0, symName: __ZNSt3__16vectorIN10reanimated3css13ValueKeyframeIJNS2_8CSSColorEEEENS_9allocatorIS5_EEE22__construct_one_at_endB8ne200100IJS5_EEEvDpOT_, symObjAddr: 0x15A88, symBinAddr: 0x1B010, symSize: 0x78 }
  - { offset: 0x25E721, size: 0x8, addend: 0x0, symName: __ZNSt3__16vectorIN10reanimated3css13ValueKeyframeIJNS2_8CSSColorEEEENS_9allocatorIS5_EEE22__construct_one_at_endB8ne200100IJS5_EEEvDpOT_, symObjAddr: 0x15A88, symBinAddr: 0x1B010, symSize: 0x78 }
  - { offset: 0x25E746, size: 0x8, addend: 0x0, symName: __ZNSt3__16vectorIN10reanimated3css13ValueKeyframeIJNS2_8CSSColorEEEENS_9allocatorIS5_EEE22__construct_one_at_endB8ne200100IJS5_EEEvDpOT_, symObjAddr: 0x15A88, symBinAddr: 0x1B010, symSize: 0x78 }
  - { offset: 0x25EFAF, size: 0x8, addend: 0x0, symName: __ZNSt3__16vectorIN10reanimated3css13ValueKeyframeIJNS2_8CSSColorEEEENS_9allocatorIS5_EEE24__emplace_back_slow_pathIJS5_EEEPS5_DpOT_, symObjAddr: 0x15B00, symBinAddr: 0x1B088, symSize: 0x178 }
  - { offset: 0x25FDE1, size: 0x8, addend: 0x0, symName: __ZN10reanimated3css15CSSValueVariantIJNS0_8CSSColorEEE12tryConstructERN8facebook3jsi7RuntimeERKNS5_5ValueE, symObjAddr: 0x15DB0, symBinAddr: 0x1B338, symSize: 0x88 }
  - { offset: 0x260583, size: 0x8, addend: 0x0, symName: __ZNSt3__135__uninitialized_allocator_copy_implB8ne200100INS_9allocatorIN10reanimated3css13ValueKeyframeIJNS3_8CSSColorEEEEEEPKS6_S9_PS6_EET2_RT_T0_T1_SB_, symObjAddr: 0x16158, symBinAddr: 0x1B638, symSize: 0xA0 }
  - { offset: 0x26058E, size: 0x8, addend: 0x0, symName: __ZNSt3__123__optional_storage_baseIN10reanimated3css15CSSValueVariantIJNS2_8CSSColorEEEELb0EE13__assign_fromB8ne200100IRKNS_27__optional_copy_assign_baseIS5_Lb0EEEEEvOT_, symObjAddr: 0x161F8, symBinAddr: 0x1B6D8, symSize: 0xDC }
  - { offset: 0x261BA6, size: 0x8, addend: 0x0, symName: __ZNSt3__116__variant_detail12__visitation6__base12__dispatcherIJLm0ELm0EEE10__dispatchB8ne200100IONS1_9__variant15__value_visitorIZNK10reanimated3css15CSSValueVariantIJNS9_8CSSColorEEE11interpolateEdRKSC_EUlRKT_RKT0_E_EEJRKNS0_6__baseILNS0_6_TraitE1EJSB_EEESS_EEEDcSF_DpT0_, symObjAddr: 0x1661C, symBinAddr: 0x1BA10, symSize: 0x6C }
  - { offset: 0x261F3C, size: 0x8, addend: 0x0, symName: __ZN10reanimated3css15CSSValueVariantIJNS0_9CSSLengthEEE12tryConstructIRA4_KcEEbOT_, symObjAddr: 0x16734, symBinAddr: 0x1BB28, symSize: 0x8C }
  - { offset: 0x2624F6, size: 0x8, addend: 0x0, symName: __ZNSt3__120__shared_ptr_emplaceIN10reanimated3css30TransformOperationInterpolatorINS2_20PerspectiveOperationEEENS_9allocatorIS5_EEEC2B8ne200100IJNS_10shared_ptrIS4_EEES7_Li0EEES7_DpOT_, symObjAddr: 0x16818, symBinAddr: 0x1BC0C, symSize: 0x4C }
  - { offset: 0x262674, size: 0x8, addend: 0x0, symName: __ZNSt3__120__shared_ptr_emplaceIN10reanimated3css30TransformOperationInterpolatorINS2_20PerspectiveOperationEEENS_9allocatorIS5_EEED1Ev, symObjAddr: 0x16864, symBinAddr: 0x1BC58, symSize: 0x14 }
  - { offset: 0x262698, size: 0x8, addend: 0x0, symName: __ZNSt3__120__shared_ptr_emplaceIN10reanimated3css30TransformOperationInterpolatorINS2_20PerspectiveOperationEEENS_9allocatorIS5_EEED1Ev, symObjAddr: 0x16864, symBinAddr: 0x1BC58, symSize: 0x14 }
  - { offset: 0x2626CF, size: 0x8, addend: 0x0, symName: __ZNSt3__120__shared_ptr_emplaceIN10reanimated3css30TransformOperationInterpolatorINS2_20PerspectiveOperationEEENS_9allocatorIS5_EEED0Ev, symObjAddr: 0x16878, symBinAddr: 0x1BC6C, symSize: 0x24 }
  - { offset: 0x2627A5, size: 0x8, addend: 0x0, symName: __ZNSt3__120__shared_ptr_emplaceIN10reanimated3css30TransformOperationInterpolatorINS2_20PerspectiveOperationEEENS_9allocatorIS5_EEE16__on_zero_sharedEv, symObjAddr: 0x1689C, symBinAddr: 0x1BC90, symSize: 0xC }
  - { offset: 0x2627CF, size: 0x8, addend: 0x0, symName: __ZNSt3__120__shared_ptr_emplaceIN10reanimated3css30TransformOperationInterpolatorINS2_20PerspectiveOperationEEENS_9allocatorIS5_EEE16__on_zero_sharedEv, symObjAddr: 0x1689C, symBinAddr: 0x1BC90, symSize: 0xC }
  - { offset: 0x2627EE, size: 0x8, addend: 0x0, symName: __ZNSt3__120__shared_ptr_emplaceIN10reanimated3css30TransformOperationInterpolatorINS2_20PerspectiveOperationEEENS_9allocatorIS5_EEE16__on_zero_sharedEv, symObjAddr: 0x1689C, symBinAddr: 0x1BC90, symSize: 0xC }
  - { offset: 0x26280D, size: 0x8, addend: 0x0, symName: __ZNSt3__120__shared_ptr_emplaceIN10reanimated3css30TransformOperationInterpolatorINS2_20PerspectiveOperationEEENS_9allocatorIS5_EEE16__on_zero_sharedEv, symObjAddr: 0x1689C, symBinAddr: 0x1BC90, symSize: 0xC }
  - { offset: 0x262839, size: 0x8, addend: 0x0, symName: __ZNSt3__120__shared_ptr_emplaceIN10reanimated3css30TransformOperationInterpolatorINS2_20PerspectiveOperationEEENS_9allocatorIS5_EEE21__on_zero_shared_weakEv, symObjAddr: 0x168A8, symBinAddr: 0x1BC9C, symSize: 0x4 }
  - { offset: 0x26286D, size: 0x8, addend: 0x0, symName: __ZNSt3__120__shared_ptr_emplaceIN10reanimated3css30TransformOperationInterpolatorINS2_20PerspectiveOperationEEENS_9allocatorIS5_EEE21__on_zero_shared_weakEv, symObjAddr: 0x168A8, symBinAddr: 0x1BC9C, symSize: 0x4 }
  - { offset: 0x262891, size: 0x8, addend: 0x0, symName: __ZNSt3__120__shared_ptr_emplaceIN10reanimated3css30TransformOperationInterpolatorINS2_20PerspectiveOperationEEENS_9allocatorIS5_EEE21__on_zero_shared_weakEv, symObjAddr: 0x168A8, symBinAddr: 0x1BC9C, symSize: 0x4 }
  - { offset: 0x2628B6, size: 0x8, addend: 0x0, symName: __ZNSt3__120__shared_ptr_emplaceIN10reanimated3css30TransformOperationInterpolatorINS2_20PerspectiveOperationEEENS_9allocatorIS5_EEE21__on_zero_shared_weakEv, symObjAddr: 0x168A8, symBinAddr: 0x1BC9C, symSize: 0x4 }
  - { offset: 0x2628ED, size: 0x8, addend: 0x0, symName: __ZNSt3__120__shared_ptr_emplaceIN10reanimated3css30TransformOperationInterpolatorINS2_20PerspectiveOperationEEENS_9allocatorIS5_EEE21__on_zero_shared_weakEv, symObjAddr: 0x168A8, symBinAddr: 0x1BC9C, symSize: 0x4 }
  - { offset: 0x262A2A, size: 0x8, addend: 0x0, symName: __ZN10reanimated3css25TransformInterpolatorBaseINS0_20PerspectiveOperationEED1Ev, symObjAddr: 0x16950, symBinAddr: 0x12B890, symSize: 0x4 }
  - { offset: 0x262A56, size: 0x8, addend: 0x0, symName: __ZN10reanimated3css25TransformInterpolatorBaseINS0_20PerspectiveOperationEED0Ev, symObjAddr: 0x16954, symBinAddr: 0x12B894, symSize: 0x4 }
  - { offset: 0x262AF2, size: 0x8, addend: 0x0, symName: __ZNK10reanimated3css25TransformInterpolatorBaseINS0_20PerspectiveOperationEE19getDefaultOperationEv, symObjAddr: 0x16958, symBinAddr: 0x1BD44, symSize: 0x24 }
  - { offset: 0x262B1A, size: 0x8, addend: 0x0, symName: __ZNK10reanimated3css25TransformInterpolatorBaseINS0_20PerspectiveOperationEE19getDefaultOperationEv, symObjAddr: 0x16958, symBinAddr: 0x1BD44, symSize: 0x24 }
  - { offset: 0x262B44, size: 0x8, addend: 0x0, symName: __ZNK10reanimated3css25TransformInterpolatorBaseINS0_20PerspectiveOperationEE19getDefaultOperationEv, symObjAddr: 0x16958, symBinAddr: 0x1BD44, symSize: 0x24 }
  - { offset: 0x262F56, size: 0x8, addend: 0x0, symName: __ZNK10reanimated3css25TransformInterpolatorBaseINS0_20PerspectiveOperationEE11interpolateEdRKNSt3__110shared_ptrINS0_18TransformOperationEEES9_RKNS0_21TransformInterpolator13UpdateContextE, symObjAddr: 0x1697C, symBinAddr: 0x1BD68, symSize: 0x158 }
  - { offset: 0x2636B8, size: 0x8, addend: 0x0, symName: __ZNK10reanimated3css25TransformInterpolatorBaseINS0_20PerspectiveOperationEE16resolveOperationERKNSt3__110shared_ptrINS0_18TransformOperationEEERKNS0_21TransformInterpolator13UpdateContextE, symObjAddr: 0x16AD4, symBinAddr: 0x1BEC0, symSize: 0xF4 }
  - { offset: 0x263C4F, size: 0x8, addend: 0x0, symName: __ZNK10reanimated3css25TransformInterpolatorBaseINS0_20PerspectiveOperationEE16resolveOperationERKS2_RKNS0_21TransformInterpolator13UpdateContextE, symObjAddr: 0x16BC8, symBinAddr: 0x1BFB4, symSize: 0x28 }
  - { offset: 0x263C95, size: 0x8, addend: 0x0, symName: __ZNK10reanimated3css25TransformInterpolatorBaseINS0_20PerspectiveOperationEE16resolveOperationERKS2_RKNS0_21TransformInterpolator13UpdateContextE, symObjAddr: 0x16BC8, symBinAddr: 0x1BFB4, symSize: 0x28 }
  - { offset: 0x263CBB, size: 0x8, addend: 0x0, symName: __ZNK10reanimated3css25TransformInterpolatorBaseINS0_20PerspectiveOperationEE16resolveOperationERKS2_RKNS0_21TransformInterpolator13UpdateContextE, symObjAddr: 0x16BC8, symBinAddr: 0x1BFB4, symSize: 0x28 }
  - { offset: 0x263D43, size: 0x8, addend: 0x0, symName: __ZNK10reanimated3css25TransformInterpolatorBaseINS0_20PerspectiveOperationEE16resolveOperationERKS2_RKNS0_21TransformInterpolator13UpdateContextE, symObjAddr: 0x16BC8, symBinAddr: 0x1BFB4, symSize: 0x28 }
  - { offset: 0x263D70, size: 0x8, addend: 0x0, symName: __ZN10reanimated3css20PerspectiveOperationD1Ev, symObjAddr: 0x16BF0, symBinAddr: 0x1BFDC, symSize: 0x4 }
  - { offset: 0x263DB8, size: 0x8, addend: 0x0, symName: __ZNSt3__120__shared_ptr_emplaceIN10reanimated3css20PerspectiveOperationENS_9allocatorIS3_EEED1Ev, symObjAddr: 0x16BF4, symBinAddr: 0x1BFE0, symSize: 0x14 }
  - { offset: 0x263DDC, size: 0x8, addend: 0x0, symName: __ZNSt3__120__shared_ptr_emplaceIN10reanimated3css20PerspectiveOperationENS_9allocatorIS3_EEED1Ev, symObjAddr: 0x16BF4, symBinAddr: 0x1BFE0, symSize: 0x14 }
  - { offset: 0x263E13, size: 0x8, addend: 0x0, symName: __ZNSt3__120__shared_ptr_emplaceIN10reanimated3css20PerspectiveOperationENS_9allocatorIS3_EEED0Ev, symObjAddr: 0x16C08, symBinAddr: 0x1BFF4, symSize: 0x24 }
  - { offset: 0x263E7A, size: 0x8, addend: 0x0, symName: __ZNSt3__120__shared_ptr_emplaceIN10reanimated3css20PerspectiveOperationENS_9allocatorIS3_EEE16__on_zero_sharedEv, symObjAddr: 0x16C2C, symBinAddr: 0x1C018, symSize: 0x4 }
  - { offset: 0x263F01, size: 0x8, addend: 0x0, symName: __ZNSt3__120__shared_ptr_emplaceIN10reanimated3css20PerspectiveOperationENS_9allocatorIS3_EEE21__on_zero_shared_weakEv, symObjAddr: 0x16C30, symBinAddr: 0x1C01C, symSize: 0x4 }
  - { offset: 0x263F35, size: 0x8, addend: 0x0, symName: __ZNSt3__120__shared_ptr_emplaceIN10reanimated3css20PerspectiveOperationENS_9allocatorIS3_EEE21__on_zero_shared_weakEv, symObjAddr: 0x16C30, symBinAddr: 0x1C01C, symSize: 0x4 }
  - { offset: 0x263F59, size: 0x8, addend: 0x0, symName: __ZNSt3__120__shared_ptr_emplaceIN10reanimated3css20PerspectiveOperationENS_9allocatorIS3_EEE21__on_zero_shared_weakEv, symObjAddr: 0x16C30, symBinAddr: 0x1C01C, symSize: 0x4 }
  - { offset: 0x263F7E, size: 0x8, addend: 0x0, symName: __ZNSt3__120__shared_ptr_emplaceIN10reanimated3css20PerspectiveOperationENS_9allocatorIS3_EEE21__on_zero_shared_weakEv, symObjAddr: 0x16C30, symBinAddr: 0x1C01C, symSize: 0x4 }
  - { offset: 0x263FB5, size: 0x8, addend: 0x0, symName: __ZNSt3__120__shared_ptr_emplaceIN10reanimated3css20PerspectiveOperationENS_9allocatorIS3_EEE21__on_zero_shared_weakEv, symObjAddr: 0x16C30, symBinAddr: 0x1C01C, symSize: 0x4 }
  - { offset: 0x263FDF, size: 0x8, addend: 0x0, symName: __ZNK10reanimated3css22TransformOperationBaseILNS0_11TransformOpE0ENS0_9CSSDoubleEEeqERKNS0_18TransformOperationE, symObjAddr: 0x16C34, symBinAddr: 0x1C020, symSize: 0x6C }
  - { offset: 0x264051, size: 0x8, addend: 0x0, symName: __ZNK10reanimated3css22TransformOperationBaseILNS0_11TransformOpE0ENS0_9CSSDoubleEE4typeEv, symObjAddr: 0x16CA0, symBinAddr: 0x1C08C, symSize: 0x8 }
  - { offset: 0x264078, size: 0x8, addend: 0x0, symName: __ZNK10reanimated3css20PerspectiveOperation14valueToDynamicEv, symObjAddr: 0x16CA8, symBinAddr: 0x1C094, symSize: 0x20 }
  - { offset: 0x26414C, size: 0x8, addend: 0x0, symName: __ZNK10reanimated3css20PerspectiveOperation8toMatrixEv, symObjAddr: 0x16CC8, symBinAddr: 0x1C0B4, symSize: 0x8 }
  - { offset: 0x264171, size: 0x8, addend: 0x0, symName: __ZN10reanimated3css20PerspectiveOperationD0Ev, symObjAddr: 0x16CD0, symBinAddr: 0x1C0BC, symSize: 0x4 }
  - { offset: 0x264290, size: 0x8, addend: 0x0, symName: __ZNSt3__120__shared_ptr_emplaceIN10reanimated3css20PerspectiveOperationENS_9allocatorIS3_EEEC2B8ne200100IJRKiES5_Li0EEES5_DpOT_, symObjAddr: 0x16D2C, symBinAddr: 0x1C118, symSize: 0x84 }
  - { offset: 0x26480F, size: 0x8, addend: 0x0, symName: __ZNSt3__120__shared_ptr_emplaceIN10reanimated3css30TransformOperationInterpolatorINS2_19RotateOperationBaseILNS2_11TransformOpE1EEEEENS_9allocatorIS7_EEEC2B8ne200100IJNS_10shared_ptrIS6_EEES9_Li0EEES9_DpOT_, symObjAddr: 0x16EB8, symBinAddr: 0x1C1F4, symSize: 0x4C }
  - { offset: 0x26498D, size: 0x8, addend: 0x0, symName: __ZNSt3__120__shared_ptr_emplaceIN10reanimated3css30TransformOperationInterpolatorINS2_19RotateOperationBaseILNS2_11TransformOpE1EEEEENS_9allocatorIS7_EEED1Ev, symObjAddr: 0x16F04, symBinAddr: 0x1C240, symSize: 0x14 }
  - { offset: 0x2649B1, size: 0x8, addend: 0x0, symName: __ZNSt3__120__shared_ptr_emplaceIN10reanimated3css30TransformOperationInterpolatorINS2_19RotateOperationBaseILNS2_11TransformOpE1EEEEENS_9allocatorIS7_EEED1Ev, symObjAddr: 0x16F04, symBinAddr: 0x1C240, symSize: 0x14 }
  - { offset: 0x2649E8, size: 0x8, addend: 0x0, symName: __ZNSt3__120__shared_ptr_emplaceIN10reanimated3css30TransformOperationInterpolatorINS2_19RotateOperationBaseILNS2_11TransformOpE1EEEEENS_9allocatorIS7_EEED0Ev, symObjAddr: 0x16F18, symBinAddr: 0x1C254, symSize: 0x24 }
  - { offset: 0x264ABE, size: 0x8, addend: 0x0, symName: __ZNSt3__120__shared_ptr_emplaceIN10reanimated3css30TransformOperationInterpolatorINS2_19RotateOperationBaseILNS2_11TransformOpE1EEEEENS_9allocatorIS7_EEE16__on_zero_sharedEv, symObjAddr: 0x16F3C, symBinAddr: 0x1C278, symSize: 0xC }
  - { offset: 0x264AE8, size: 0x8, addend: 0x0, symName: __ZNSt3__120__shared_ptr_emplaceIN10reanimated3css30TransformOperationInterpolatorINS2_19RotateOperationBaseILNS2_11TransformOpE1EEEEENS_9allocatorIS7_EEE16__on_zero_sharedEv, symObjAddr: 0x16F3C, symBinAddr: 0x1C278, symSize: 0xC }
  - { offset: 0x264B07, size: 0x8, addend: 0x0, symName: __ZNSt3__120__shared_ptr_emplaceIN10reanimated3css30TransformOperationInterpolatorINS2_19RotateOperationBaseILNS2_11TransformOpE1EEEEENS_9allocatorIS7_EEE16__on_zero_sharedEv, symObjAddr: 0x16F3C, symBinAddr: 0x1C278, symSize: 0xC }
  - { offset: 0x264B26, size: 0x8, addend: 0x0, symName: __ZNSt3__120__shared_ptr_emplaceIN10reanimated3css30TransformOperationInterpolatorINS2_19RotateOperationBaseILNS2_11TransformOpE1EEEEENS_9allocatorIS7_EEE16__on_zero_sharedEv, symObjAddr: 0x16F3C, symBinAddr: 0x1C278, symSize: 0xC }
  - { offset: 0x264B52, size: 0x8, addend: 0x0, symName: __ZNSt3__120__shared_ptr_emplaceIN10reanimated3css30TransformOperationInterpolatorINS2_19RotateOperationBaseILNS2_11TransformOpE1EEEEENS_9allocatorIS7_EEE21__on_zero_shared_weakEv, symObjAddr: 0x16F48, symBinAddr: 0x1C284, symSize: 0x4 }
  - { offset: 0x264B86, size: 0x8, addend: 0x0, symName: __ZNSt3__120__shared_ptr_emplaceIN10reanimated3css30TransformOperationInterpolatorINS2_19RotateOperationBaseILNS2_11TransformOpE1EEEEENS_9allocatorIS7_EEE21__on_zero_shared_weakEv, symObjAddr: 0x16F48, symBinAddr: 0x1C284, symSize: 0x4 }
  - { offset: 0x264BAA, size: 0x8, addend: 0x0, symName: __ZNSt3__120__shared_ptr_emplaceIN10reanimated3css30TransformOperationInterpolatorINS2_19RotateOperationBaseILNS2_11TransformOpE1EEEEENS_9allocatorIS7_EEE21__on_zero_shared_weakEv, symObjAddr: 0x16F48, symBinAddr: 0x1C284, symSize: 0x4 }
  - { offset: 0x264BCF, size: 0x8, addend: 0x0, symName: __ZNSt3__120__shared_ptr_emplaceIN10reanimated3css30TransformOperationInterpolatorINS2_19RotateOperationBaseILNS2_11TransformOpE1EEEEENS_9allocatorIS7_EEE21__on_zero_shared_weakEv, symObjAddr: 0x16F48, symBinAddr: 0x1C284, symSize: 0x4 }
  - { offset: 0x264C06, size: 0x8, addend: 0x0, symName: __ZNSt3__120__shared_ptr_emplaceIN10reanimated3css30TransformOperationInterpolatorINS2_19RotateOperationBaseILNS2_11TransformOpE1EEEEENS_9allocatorIS7_EEE21__on_zero_shared_weakEv, symObjAddr: 0x16F48, symBinAddr: 0x1C284, symSize: 0x4 }
  - { offset: 0x264CA5, size: 0x8, addend: 0x0, symName: __ZN10reanimated3css30TransformOperationInterpolatorINS0_19RotateOperationBaseILNS0_11TransformOpE1EEEEC2ENSt3__110shared_ptrIS4_EE, symObjAddr: 0x16FD4, symBinAddr: 0x1C310, symSize: 0xA4 }
  - { offset: 0x264F58, size: 0x8, addend: 0x0, symName: __ZN10reanimated3css30TransformOperationInterpolatorINS0_19RotateOperationBaseILNS0_11TransformOpE1EEEED1Ev, symObjAddr: 0x17078, symBinAddr: 0x1C3B4, symSize: 0x34 }
  - { offset: 0x265003, size: 0x8, addend: 0x0, symName: __ZN10reanimated3css30TransformOperationInterpolatorINS0_19RotateOperationBaseILNS0_11TransformOpE1EEEED0Ev, symObjAddr: 0x170AC, symBinAddr: 0x1C3E8, symSize: 0x34 }
  - { offset: 0x26512B, size: 0x8, addend: 0x0, symName: __ZNK10reanimated3css25TransformInterpolatorBaseINS0_19RotateOperationBaseILNS0_11TransformOpE1EEEE19getDefaultOperationEv, symObjAddr: 0x170E0, symBinAddr: 0x1C41C, symSize: 0x24 }
  - { offset: 0x265153, size: 0x8, addend: 0x0, symName: __ZNK10reanimated3css25TransformInterpolatorBaseINS0_19RotateOperationBaseILNS0_11TransformOpE1EEEE19getDefaultOperationEv, symObjAddr: 0x170E0, symBinAddr: 0x1C41C, symSize: 0x24 }
  - { offset: 0x26517D, size: 0x8, addend: 0x0, symName: __ZNK10reanimated3css25TransformInterpolatorBaseINS0_19RotateOperationBaseILNS0_11TransformOpE1EEEE19getDefaultOperationEv, symObjAddr: 0x170E0, symBinAddr: 0x1C41C, symSize: 0x24 }
  - { offset: 0x2655C2, size: 0x8, addend: 0x0, symName: __ZNK10reanimated3css25TransformInterpolatorBaseINS0_19RotateOperationBaseILNS0_11TransformOpE1EEEE11interpolateEdRKNSt3__110shared_ptrINS0_18TransformOperationEEESB_RKNS0_21TransformInterpolator13UpdateContextE, symObjAddr: 0x17104, symBinAddr: 0x1C440, symSize: 0x158 }
  - { offset: 0x265CF7, size: 0x8, addend: 0x0, symName: __ZNK10reanimated3css25TransformInterpolatorBaseINS0_19RotateOperationBaseILNS0_11TransformOpE1EEEE16resolveOperationERKNSt3__110shared_ptrINS0_18TransformOperationEEERKNS0_21TransformInterpolator13UpdateContextE, symObjAddr: 0x1725C, symBinAddr: 0x1C598, symSize: 0xF4 }
  - { offset: 0x26628A, size: 0x8, addend: 0x0, symName: __ZNK10reanimated3css30TransformOperationInterpolatorINS0_19RotateOperationBaseILNS0_11TransformOpE1EEEE11interpolateEdRKS4_S7_RKNS0_21TransformInterpolator13UpdateContextE, symObjAddr: 0x17350, symBinAddr: 0x1C68C, symSize: 0x58 }
  - { offset: 0x2663E8, size: 0x8, addend: 0x0, symName: __ZNK10reanimated3css25TransformInterpolatorBaseINS0_19RotateOperationBaseILNS0_11TransformOpE1EEEE16resolveOperationERKS4_RKNS0_21TransformInterpolator13UpdateContextE, symObjAddr: 0x173A8, symBinAddr: 0x1C6E4, symSize: 0x28 }
  - { offset: 0x26642E, size: 0x8, addend: 0x0, symName: __ZNK10reanimated3css25TransformInterpolatorBaseINS0_19RotateOperationBaseILNS0_11TransformOpE1EEEE16resolveOperationERKS4_RKNS0_21TransformInterpolator13UpdateContextE, symObjAddr: 0x173A8, symBinAddr: 0x1C6E4, symSize: 0x28 }
  - { offset: 0x266454, size: 0x8, addend: 0x0, symName: __ZNK10reanimated3css25TransformInterpolatorBaseINS0_19RotateOperationBaseILNS0_11TransformOpE1EEEE16resolveOperationERKS4_RKNS0_21TransformInterpolator13UpdateContextE, symObjAddr: 0x173A8, symBinAddr: 0x1C6E4, symSize: 0x28 }
  - { offset: 0x2664DE, size: 0x8, addend: 0x0, symName: __ZN10reanimated3css25TransformInterpolatorBaseINS0_19RotateOperationBaseILNS0_11TransformOpE1EEEED1Ev, symObjAddr: 0x173D0, symBinAddr: 0x12B898, symSize: 0x4 }
  - { offset: 0x26650A, size: 0x8, addend: 0x0, symName: __ZN10reanimated3css25TransformInterpolatorBaseINS0_19RotateOperationBaseILNS0_11TransformOpE1EEEED0Ev, symObjAddr: 0x173D4, symBinAddr: 0x12B89C, symSize: 0x4 }
  - { offset: 0x266536, size: 0x8, addend: 0x0, symName: __ZN10reanimated3css19RotateOperationBaseILNS0_11TransformOpE1EED1Ev, symObjAddr: 0x173D8, symBinAddr: 0x1C70C, symSize: 0x4 }
  - { offset: 0x26657E, size: 0x8, addend: 0x0, symName: __ZNSt3__120__shared_ptr_emplaceIN10reanimated3css19RotateOperationBaseILNS2_11TransformOpE1EEENS_9allocatorIS5_EEED1Ev, symObjAddr: 0x173DC, symBinAddr: 0x1C710, symSize: 0x14 }
  - { offset: 0x2665A2, size: 0x8, addend: 0x0, symName: __ZNSt3__120__shared_ptr_emplaceIN10reanimated3css19RotateOperationBaseILNS2_11TransformOpE1EEENS_9allocatorIS5_EEED1Ev, symObjAddr: 0x173DC, symBinAddr: 0x1C710, symSize: 0x14 }
  - { offset: 0x2665D9, size: 0x8, addend: 0x0, symName: __ZNSt3__120__shared_ptr_emplaceIN10reanimated3css19RotateOperationBaseILNS2_11TransformOpE1EEENS_9allocatorIS5_EEED0Ev, symObjAddr: 0x173F0, symBinAddr: 0x1C724, symSize: 0x24 }
  - { offset: 0x2666AF, size: 0x8, addend: 0x0, symName: __ZNSt3__120__shared_ptr_emplaceIN10reanimated3css19RotateOperationBaseILNS2_11TransformOpE1EEENS_9allocatorIS5_EEE16__on_zero_sharedEv, symObjAddr: 0x17414, symBinAddr: 0x1C748, symSize: 0xC }
  - { offset: 0x2666D9, size: 0x8, addend: 0x0, symName: __ZNSt3__120__shared_ptr_emplaceIN10reanimated3css19RotateOperationBaseILNS2_11TransformOpE1EEENS_9allocatorIS5_EEE16__on_zero_sharedEv, symObjAddr: 0x17414, symBinAddr: 0x1C748, symSize: 0xC }
  - { offset: 0x2666F8, size: 0x8, addend: 0x0, symName: __ZNSt3__120__shared_ptr_emplaceIN10reanimated3css19RotateOperationBaseILNS2_11TransformOpE1EEENS_9allocatorIS5_EEE16__on_zero_sharedEv, symObjAddr: 0x17414, symBinAddr: 0x1C748, symSize: 0xC }
  - { offset: 0x266717, size: 0x8, addend: 0x0, symName: __ZNSt3__120__shared_ptr_emplaceIN10reanimated3css19RotateOperationBaseILNS2_11TransformOpE1EEENS_9allocatorIS5_EEE16__on_zero_sharedEv, symObjAddr: 0x17414, symBinAddr: 0x1C748, symSize: 0xC }
  - { offset: 0x2667A5, size: 0x8, addend: 0x0, symName: __ZNSt3__120__shared_ptr_emplaceIN10reanimated3css19RotateOperationBaseILNS2_11TransformOpE1EEENS_9allocatorIS5_EEE21__on_zero_shared_weakEv, symObjAddr: 0x17420, symBinAddr: 0x1C754, symSize: 0x4 }
  - { offset: 0x2667D9, size: 0x8, addend: 0x0, symName: __ZNSt3__120__shared_ptr_emplaceIN10reanimated3css19RotateOperationBaseILNS2_11TransformOpE1EEENS_9allocatorIS5_EEE21__on_zero_shared_weakEv, symObjAddr: 0x17420, symBinAddr: 0x1C754, symSize: 0x4 }
  - { offset: 0x2667FD, size: 0x8, addend: 0x0, symName: __ZNSt3__120__shared_ptr_emplaceIN10reanimated3css19RotateOperationBaseILNS2_11TransformOpE1EEENS_9allocatorIS5_EEE21__on_zero_shared_weakEv, symObjAddr: 0x17420, symBinAddr: 0x1C754, symSize: 0x4 }
  - { offset: 0x266822, size: 0x8, addend: 0x0, symName: __ZNSt3__120__shared_ptr_emplaceIN10reanimated3css19RotateOperationBaseILNS2_11TransformOpE1EEENS_9allocatorIS5_EEE21__on_zero_shared_weakEv, symObjAddr: 0x17420, symBinAddr: 0x1C754, symSize: 0x4 }
  - { offset: 0x266859, size: 0x8, addend: 0x0, symName: __ZNSt3__120__shared_ptr_emplaceIN10reanimated3css19RotateOperationBaseILNS2_11TransformOpE1EEENS_9allocatorIS5_EEE21__on_zero_shared_weakEv, symObjAddr: 0x17420, symBinAddr: 0x1C754, symSize: 0x4 }
  - { offset: 0x266883, size: 0x8, addend: 0x0, symName: __ZNK10reanimated3css22TransformOperationBaseILNS0_11TransformOpE1ENS0_8CSSAngleEEeqERKNS0_18TransformOperationE, symObjAddr: 0x17424, symBinAddr: 0x1C758, symSize: 0x6C }
  - { offset: 0x2668F5, size: 0x8, addend: 0x0, symName: __ZNK10reanimated3css22TransformOperationBaseILNS0_11TransformOpE1ENS0_8CSSAngleEE4typeEv, symObjAddr: 0x17490, symBinAddr: 0x1C7C4, symSize: 0x8 }
  - { offset: 0x26691C, size: 0x8, addend: 0x0, symName: __ZNK10reanimated3css19RotateOperationBaseILNS0_11TransformOpE1EE14valueToDynamicEv, symObjAddr: 0x17498, symBinAddr: 0x1C7CC, symSize: 0x8 }
  - { offset: 0x266943, size: 0x8, addend: 0x0, symName: __ZNK10reanimated3css19RotateOperationBaseILNS0_11TransformOpE1EE8toMatrixEv, symObjAddr: 0x174A0, symBinAddr: 0x1C7D4, symSize: 0x8 }
  - { offset: 0x266968, size: 0x8, addend: 0x0, symName: __ZN10reanimated3css19RotateOperationBaseILNS0_11TransformOpE1EED0Ev, symObjAddr: 0x174A8, symBinAddr: 0x1C7DC, symSize: 0x4 }
  - { offset: 0x266A87, size: 0x8, addend: 0x0, symName: __ZNSt3__120__shared_ptr_emplaceIN10reanimated3css19RotateOperationBaseILNS2_11TransformOpE1EEENS_9allocatorIS5_EEEC2B8ne200100IJRA5_KcES7_Li0EEES7_DpOT_, symObjAddr: 0x17504, symBinAddr: 0x1C838, symSize: 0x4C }
  - { offset: 0x266E81, size: 0x8, addend: 0x0, symName: __ZNSt3__120__shared_ptr_emplaceIN10reanimated3css30TransformOperationInterpolatorINS2_19RotateOperationBaseILNS2_11TransformOpE2EEEEENS_9allocatorIS7_EEEC2B8ne200100IJNS_10shared_ptrIS6_EEES9_Li0EEES9_DpOT_, symObjAddr: 0x1768C, symBinAddr: 0x1C968, symSize: 0x4C }
  - { offset: 0x266FFF, size: 0x8, addend: 0x0, symName: __ZNSt3__120__shared_ptr_emplaceIN10reanimated3css30TransformOperationInterpolatorINS2_19RotateOperationBaseILNS2_11TransformOpE2EEEEENS_9allocatorIS7_EEED1Ev, symObjAddr: 0x176D8, symBinAddr: 0x1C9B4, symSize: 0x14 }
  - { offset: 0x267023, size: 0x8, addend: 0x0, symName: __ZNSt3__120__shared_ptr_emplaceIN10reanimated3css30TransformOperationInterpolatorINS2_19RotateOperationBaseILNS2_11TransformOpE2EEEEENS_9allocatorIS7_EEED1Ev, symObjAddr: 0x176D8, symBinAddr: 0x1C9B4, symSize: 0x14 }
  - { offset: 0x26705A, size: 0x8, addend: 0x0, symName: __ZNSt3__120__shared_ptr_emplaceIN10reanimated3css30TransformOperationInterpolatorINS2_19RotateOperationBaseILNS2_11TransformOpE2EEEEENS_9allocatorIS7_EEED0Ev, symObjAddr: 0x176EC, symBinAddr: 0x1C9C8, symSize: 0x24 }
  - { offset: 0x267130, size: 0x8, addend: 0x0, symName: __ZNSt3__120__shared_ptr_emplaceIN10reanimated3css30TransformOperationInterpolatorINS2_19RotateOperationBaseILNS2_11TransformOpE2EEEEENS_9allocatorIS7_EEE16__on_zero_sharedEv, symObjAddr: 0x17710, symBinAddr: 0x1C9EC, symSize: 0xC }
  - { offset: 0x26715A, size: 0x8, addend: 0x0, symName: __ZNSt3__120__shared_ptr_emplaceIN10reanimated3css30TransformOperationInterpolatorINS2_19RotateOperationBaseILNS2_11TransformOpE2EEEEENS_9allocatorIS7_EEE16__on_zero_sharedEv, symObjAddr: 0x17710, symBinAddr: 0x1C9EC, symSize: 0xC }
  - { offset: 0x267179, size: 0x8, addend: 0x0, symName: __ZNSt3__120__shared_ptr_emplaceIN10reanimated3css30TransformOperationInterpolatorINS2_19RotateOperationBaseILNS2_11TransformOpE2EEEEENS_9allocatorIS7_EEE16__on_zero_sharedEv, symObjAddr: 0x17710, symBinAddr: 0x1C9EC, symSize: 0xC }
  - { offset: 0x267198, size: 0x8, addend: 0x0, symName: __ZNSt3__120__shared_ptr_emplaceIN10reanimated3css30TransformOperationInterpolatorINS2_19RotateOperationBaseILNS2_11TransformOpE2EEEEENS_9allocatorIS7_EEE16__on_zero_sharedEv, symObjAddr: 0x17710, symBinAddr: 0x1C9EC, symSize: 0xC }
  - { offset: 0x2671C4, size: 0x8, addend: 0x0, symName: __ZNSt3__120__shared_ptr_emplaceIN10reanimated3css30TransformOperationInterpolatorINS2_19RotateOperationBaseILNS2_11TransformOpE2EEEEENS_9allocatorIS7_EEE21__on_zero_shared_weakEv, symObjAddr: 0x1771C, symBinAddr: 0x1C9F8, symSize: 0x4 }
  - { offset: 0x2671F8, size: 0x8, addend: 0x0, symName: __ZNSt3__120__shared_ptr_emplaceIN10reanimated3css30TransformOperationInterpolatorINS2_19RotateOperationBaseILNS2_11TransformOpE2EEEEENS_9allocatorIS7_EEE21__on_zero_shared_weakEv, symObjAddr: 0x1771C, symBinAddr: 0x1C9F8, symSize: 0x4 }
  - { offset: 0x26721C, size: 0x8, addend: 0x0, symName: __ZNSt3__120__shared_ptr_emplaceIN10reanimated3css30TransformOperationInterpolatorINS2_19RotateOperationBaseILNS2_11TransformOpE2EEEEENS_9allocatorIS7_EEE21__on_zero_shared_weakEv, symObjAddr: 0x1771C, symBinAddr: 0x1C9F8, symSize: 0x4 }
  - { offset: 0x267241, size: 0x8, addend: 0x0, symName: __ZNSt3__120__shared_ptr_emplaceIN10reanimated3css30TransformOperationInterpolatorINS2_19RotateOperationBaseILNS2_11TransformOpE2EEEEENS_9allocatorIS7_EEE21__on_zero_shared_weakEv, symObjAddr: 0x1771C, symBinAddr: 0x1C9F8, symSize: 0x4 }
  - { offset: 0x267278, size: 0x8, addend: 0x0, symName: __ZNSt3__120__shared_ptr_emplaceIN10reanimated3css30TransformOperationInterpolatorINS2_19RotateOperationBaseILNS2_11TransformOpE2EEEEENS_9allocatorIS7_EEE21__on_zero_shared_weakEv, symObjAddr: 0x1771C, symBinAddr: 0x1C9F8, symSize: 0x4 }
  - { offset: 0x267317, size: 0x8, addend: 0x0, symName: __ZN10reanimated3css30TransformOperationInterpolatorINS0_19RotateOperationBaseILNS0_11TransformOpE2EEEEC2ENSt3__110shared_ptrIS4_EE, symObjAddr: 0x177A8, symBinAddr: 0x1CA84, symSize: 0xA4 }
  - { offset: 0x2675CA, size: 0x8, addend: 0x0, symName: __ZN10reanimated3css30TransformOperationInterpolatorINS0_19RotateOperationBaseILNS0_11TransformOpE2EEEED1Ev, symObjAddr: 0x1784C, symBinAddr: 0x1CB28, symSize: 0x34 }
  - { offset: 0x267675, size: 0x8, addend: 0x0, symName: __ZN10reanimated3css30TransformOperationInterpolatorINS0_19RotateOperationBaseILNS0_11TransformOpE2EEEED0Ev, symObjAddr: 0x17880, symBinAddr: 0x1CB5C, symSize: 0x34 }
  - { offset: 0x26779D, size: 0x8, addend: 0x0, symName: __ZNK10reanimated3css25TransformInterpolatorBaseINS0_19RotateOperationBaseILNS0_11TransformOpE2EEEE19getDefaultOperationEv, symObjAddr: 0x178B4, symBinAddr: 0x1CB90, symSize: 0x24 }
  - { offset: 0x2677C5, size: 0x8, addend: 0x0, symName: __ZNK10reanimated3css25TransformInterpolatorBaseINS0_19RotateOperationBaseILNS0_11TransformOpE2EEEE19getDefaultOperationEv, symObjAddr: 0x178B4, symBinAddr: 0x1CB90, symSize: 0x24 }
  - { offset: 0x2677EF, size: 0x8, addend: 0x0, symName: __ZNK10reanimated3css25TransformInterpolatorBaseINS0_19RotateOperationBaseILNS0_11TransformOpE2EEEE19getDefaultOperationEv, symObjAddr: 0x178B4, symBinAddr: 0x1CB90, symSize: 0x24 }
  - { offset: 0x267BEB, size: 0x8, addend: 0x0, symName: __ZNK10reanimated3css25TransformInterpolatorBaseINS0_19RotateOperationBaseILNS0_11TransformOpE2EEEE11interpolateEdRKNSt3__110shared_ptrINS0_18TransformOperationEEESB_RKNS0_21TransformInterpolator13UpdateContextE, symObjAddr: 0x178D8, symBinAddr: 0x1CBB4, symSize: 0x158 }
  - { offset: 0x268320, size: 0x8, addend: 0x0, symName: __ZNK10reanimated3css25TransformInterpolatorBaseINS0_19RotateOperationBaseILNS0_11TransformOpE2EEEE16resolveOperationERKNSt3__110shared_ptrINS0_18TransformOperationEEERKNS0_21TransformInterpolator13UpdateContextE, symObjAddr: 0x17A30, symBinAddr: 0x1CD0C, symSize: 0xF4 }
  - { offset: 0x2688B3, size: 0x8, addend: 0x0, symName: __ZNK10reanimated3css30TransformOperationInterpolatorINS0_19RotateOperationBaseILNS0_11TransformOpE2EEEE11interpolateEdRKS4_S7_RKNS0_21TransformInterpolator13UpdateContextE, symObjAddr: 0x17B24, symBinAddr: 0x1CE00, symSize: 0x58 }
  - { offset: 0x268A11, size: 0x8, addend: 0x0, symName: __ZNK10reanimated3css25TransformInterpolatorBaseINS0_19RotateOperationBaseILNS0_11TransformOpE2EEEE16resolveOperationERKS4_RKNS0_21TransformInterpolator13UpdateContextE, symObjAddr: 0x17B7C, symBinAddr: 0x1CE58, symSize: 0x28 }
  - { offset: 0x268A57, size: 0x8, addend: 0x0, symName: __ZNK10reanimated3css25TransformInterpolatorBaseINS0_19RotateOperationBaseILNS0_11TransformOpE2EEEE16resolveOperationERKS4_RKNS0_21TransformInterpolator13UpdateContextE, symObjAddr: 0x17B7C, symBinAddr: 0x1CE58, symSize: 0x28 }
  - { offset: 0x268A7D, size: 0x8, addend: 0x0, symName: __ZNK10reanimated3css25TransformInterpolatorBaseINS0_19RotateOperationBaseILNS0_11TransformOpE2EEEE16resolveOperationERKS4_RKNS0_21TransformInterpolator13UpdateContextE, symObjAddr: 0x17B7C, symBinAddr: 0x1CE58, symSize: 0x28 }
  - { offset: 0x268B07, size: 0x8, addend: 0x0, symName: __ZN10reanimated3css25TransformInterpolatorBaseINS0_19RotateOperationBaseILNS0_11TransformOpE2EEEED1Ev, symObjAddr: 0x17BA4, symBinAddr: 0x12B8A0, symSize: 0x4 }
  - { offset: 0x268B33, size: 0x8, addend: 0x0, symName: __ZN10reanimated3css25TransformInterpolatorBaseINS0_19RotateOperationBaseILNS0_11TransformOpE2EEEED0Ev, symObjAddr: 0x17BA8, symBinAddr: 0x12B8A4, symSize: 0x4 }
  - { offset: 0x268B5F, size: 0x8, addend: 0x0, symName: __ZN10reanimated3css19RotateOperationBaseILNS0_11TransformOpE2EED1Ev, symObjAddr: 0x17BAC, symBinAddr: 0x1CE80, symSize: 0x4 }
  - { offset: 0x268BA7, size: 0x8, addend: 0x0, symName: __ZNSt3__120__shared_ptr_emplaceIN10reanimated3css19RotateOperationBaseILNS2_11TransformOpE2EEENS_9allocatorIS5_EEED1Ev, symObjAddr: 0x17BB0, symBinAddr: 0x1CE84, symSize: 0x14 }
  - { offset: 0x268BCB, size: 0x8, addend: 0x0, symName: __ZNSt3__120__shared_ptr_emplaceIN10reanimated3css19RotateOperationBaseILNS2_11TransformOpE2EEENS_9allocatorIS5_EEED1Ev, symObjAddr: 0x17BB0, symBinAddr: 0x1CE84, symSize: 0x14 }
  - { offset: 0x268C02, size: 0x8, addend: 0x0, symName: __ZNSt3__120__shared_ptr_emplaceIN10reanimated3css19RotateOperationBaseILNS2_11TransformOpE2EEENS_9allocatorIS5_EEED0Ev, symObjAddr: 0x17BC4, symBinAddr: 0x1CE98, symSize: 0x24 }
  - { offset: 0x268CD8, size: 0x8, addend: 0x0, symName: __ZNSt3__120__shared_ptr_emplaceIN10reanimated3css19RotateOperationBaseILNS2_11TransformOpE2EEENS_9allocatorIS5_EEE16__on_zero_sharedEv, symObjAddr: 0x17BE8, symBinAddr: 0x1CEBC, symSize: 0xC }
  - { offset: 0x268D02, size: 0x8, addend: 0x0, symName: __ZNSt3__120__shared_ptr_emplaceIN10reanimated3css19RotateOperationBaseILNS2_11TransformOpE2EEENS_9allocatorIS5_EEE16__on_zero_sharedEv, symObjAddr: 0x17BE8, symBinAddr: 0x1CEBC, symSize: 0xC }
  - { offset: 0x268D21, size: 0x8, addend: 0x0, symName: __ZNSt3__120__shared_ptr_emplaceIN10reanimated3css19RotateOperationBaseILNS2_11TransformOpE2EEENS_9allocatorIS5_EEE16__on_zero_sharedEv, symObjAddr: 0x17BE8, symBinAddr: 0x1CEBC, symSize: 0xC }
  - { offset: 0x268D40, size: 0x8, addend: 0x0, symName: __ZNSt3__120__shared_ptr_emplaceIN10reanimated3css19RotateOperationBaseILNS2_11TransformOpE2EEENS_9allocatorIS5_EEE16__on_zero_sharedEv, symObjAddr: 0x17BE8, symBinAddr: 0x1CEBC, symSize: 0xC }
  - { offset: 0x268DCE, size: 0x8, addend: 0x0, symName: __ZNSt3__120__shared_ptr_emplaceIN10reanimated3css19RotateOperationBaseILNS2_11TransformOpE2EEENS_9allocatorIS5_EEE21__on_zero_shared_weakEv, symObjAddr: 0x17BF4, symBinAddr: 0x1CEC8, symSize: 0x4 }
  - { offset: 0x268E02, size: 0x8, addend: 0x0, symName: __ZNSt3__120__shared_ptr_emplaceIN10reanimated3css19RotateOperationBaseILNS2_11TransformOpE2EEENS_9allocatorIS5_EEE21__on_zero_shared_weakEv, symObjAddr: 0x17BF4, symBinAddr: 0x1CEC8, symSize: 0x4 }
  - { offset: 0x268E26, size: 0x8, addend: 0x0, symName: __ZNSt3__120__shared_ptr_emplaceIN10reanimated3css19RotateOperationBaseILNS2_11TransformOpE2EEENS_9allocatorIS5_EEE21__on_zero_shared_weakEv, symObjAddr: 0x17BF4, symBinAddr: 0x1CEC8, symSize: 0x4 }
  - { offset: 0x268E4B, size: 0x8, addend: 0x0, symName: __ZNSt3__120__shared_ptr_emplaceIN10reanimated3css19RotateOperationBaseILNS2_11TransformOpE2EEENS_9allocatorIS5_EEE21__on_zero_shared_weakEv, symObjAddr: 0x17BF4, symBinAddr: 0x1CEC8, symSize: 0x4 }
  - { offset: 0x268E82, size: 0x8, addend: 0x0, symName: __ZNSt3__120__shared_ptr_emplaceIN10reanimated3css19RotateOperationBaseILNS2_11TransformOpE2EEENS_9allocatorIS5_EEE21__on_zero_shared_weakEv, symObjAddr: 0x17BF4, symBinAddr: 0x1CEC8, symSize: 0x4 }
  - { offset: 0x268EAC, size: 0x8, addend: 0x0, symName: __ZNK10reanimated3css22TransformOperationBaseILNS0_11TransformOpE2ENS0_8CSSAngleEEeqERKNS0_18TransformOperationE, symObjAddr: 0x17BF8, symBinAddr: 0x1CECC, symSize: 0x6C }
  - { offset: 0x268F1E, size: 0x8, addend: 0x0, symName: __ZNK10reanimated3css22TransformOperationBaseILNS0_11TransformOpE2ENS0_8CSSAngleEE4typeEv, symObjAddr: 0x17C64, symBinAddr: 0x1CF38, symSize: 0x8 }
  - { offset: 0x268F45, size: 0x8, addend: 0x0, symName: __ZNK10reanimated3css19RotateOperationBaseILNS0_11TransformOpE2EE14valueToDynamicEv, symObjAddr: 0x17C6C, symBinAddr: 0x1CF40, symSize: 0x8 }
  - { offset: 0x268F6C, size: 0x8, addend: 0x0, symName: __ZNK10reanimated3css19RotateOperationBaseILNS0_11TransformOpE2EE8toMatrixEv, symObjAddr: 0x17C74, symBinAddr: 0x1CF48, symSize: 0x8 }
  - { offset: 0x268F91, size: 0x8, addend: 0x0, symName: __ZN10reanimated3css19RotateOperationBaseILNS0_11TransformOpE2EED0Ev, symObjAddr: 0x17C7C, symBinAddr: 0x1CF50, symSize: 0x4 }
  - { offset: 0x2690B0, size: 0x8, addend: 0x0, symName: __ZNSt3__120__shared_ptr_emplaceIN10reanimated3css19RotateOperationBaseILNS2_11TransformOpE2EEENS_9allocatorIS5_EEEC2B8ne200100IJRA5_KcES7_Li0EEES7_DpOT_, symObjAddr: 0x17CD8, symBinAddr: 0x1CFAC, symSize: 0x4C }
  - { offset: 0x2694AA, size: 0x8, addend: 0x0, symName: __ZNSt3__120__shared_ptr_emplaceIN10reanimated3css30TransformOperationInterpolatorINS2_19RotateOperationBaseILNS2_11TransformOpE3EEEEENS_9allocatorIS7_EEEC2B8ne200100IJNS_10shared_ptrIS6_EEES9_Li0EEES9_DpOT_, symObjAddr: 0x17E60, symBinAddr: 0x1D0DC, symSize: 0x4C }
  - { offset: 0x269628, size: 0x8, addend: 0x0, symName: __ZNSt3__120__shared_ptr_emplaceIN10reanimated3css30TransformOperationInterpolatorINS2_19RotateOperationBaseILNS2_11TransformOpE3EEEEENS_9allocatorIS7_EEED1Ev, symObjAddr: 0x17EAC, symBinAddr: 0x1D128, symSize: 0x14 }
  - { offset: 0x26964C, size: 0x8, addend: 0x0, symName: __ZNSt3__120__shared_ptr_emplaceIN10reanimated3css30TransformOperationInterpolatorINS2_19RotateOperationBaseILNS2_11TransformOpE3EEEEENS_9allocatorIS7_EEED1Ev, symObjAddr: 0x17EAC, symBinAddr: 0x1D128, symSize: 0x14 }
  - { offset: 0x269683, size: 0x8, addend: 0x0, symName: __ZNSt3__120__shared_ptr_emplaceIN10reanimated3css30TransformOperationInterpolatorINS2_19RotateOperationBaseILNS2_11TransformOpE3EEEEENS_9allocatorIS7_EEED0Ev, symObjAddr: 0x17EC0, symBinAddr: 0x1D13C, symSize: 0x24 }
  - { offset: 0x269759, size: 0x8, addend: 0x0, symName: __ZNSt3__120__shared_ptr_emplaceIN10reanimated3css30TransformOperationInterpolatorINS2_19RotateOperationBaseILNS2_11TransformOpE3EEEEENS_9allocatorIS7_EEE16__on_zero_sharedEv, symObjAddr: 0x17EE4, symBinAddr: 0x1D160, symSize: 0xC }
  - { offset: 0x269783, size: 0x8, addend: 0x0, symName: __ZNSt3__120__shared_ptr_emplaceIN10reanimated3css30TransformOperationInterpolatorINS2_19RotateOperationBaseILNS2_11TransformOpE3EEEEENS_9allocatorIS7_EEE16__on_zero_sharedEv, symObjAddr: 0x17EE4, symBinAddr: 0x1D160, symSize: 0xC }
  - { offset: 0x2697A2, size: 0x8, addend: 0x0, symName: __ZNSt3__120__shared_ptr_emplaceIN10reanimated3css30TransformOperationInterpolatorINS2_19RotateOperationBaseILNS2_11TransformOpE3EEEEENS_9allocatorIS7_EEE16__on_zero_sharedEv, symObjAddr: 0x17EE4, symBinAddr: 0x1D160, symSize: 0xC }
  - { offset: 0x2697C1, size: 0x8, addend: 0x0, symName: __ZNSt3__120__shared_ptr_emplaceIN10reanimated3css30TransformOperationInterpolatorINS2_19RotateOperationBaseILNS2_11TransformOpE3EEEEENS_9allocatorIS7_EEE16__on_zero_sharedEv, symObjAddr: 0x17EE4, symBinAddr: 0x1D160, symSize: 0xC }
  - { offset: 0x2697ED, size: 0x8, addend: 0x0, symName: __ZNSt3__120__shared_ptr_emplaceIN10reanimated3css30TransformOperationInterpolatorINS2_19RotateOperationBaseILNS2_11TransformOpE3EEEEENS_9allocatorIS7_EEE21__on_zero_shared_weakEv, symObjAddr: 0x17EF0, symBinAddr: 0x1D16C, symSize: 0x4 }
  - { offset: 0x269821, size: 0x8, addend: 0x0, symName: __ZNSt3__120__shared_ptr_emplaceIN10reanimated3css30TransformOperationInterpolatorINS2_19RotateOperationBaseILNS2_11TransformOpE3EEEEENS_9allocatorIS7_EEE21__on_zero_shared_weakEv, symObjAddr: 0x17EF0, symBinAddr: 0x1D16C, symSize: 0x4 }
  - { offset: 0x269845, size: 0x8, addend: 0x0, symName: __ZNSt3__120__shared_ptr_emplaceIN10reanimated3css30TransformOperationInterpolatorINS2_19RotateOperationBaseILNS2_11TransformOpE3EEEEENS_9allocatorIS7_EEE21__on_zero_shared_weakEv, symObjAddr: 0x17EF0, symBinAddr: 0x1D16C, symSize: 0x4 }
  - { offset: 0x26986A, size: 0x8, addend: 0x0, symName: __ZNSt3__120__shared_ptr_emplaceIN10reanimated3css30TransformOperationInterpolatorINS2_19RotateOperationBaseILNS2_11TransformOpE3EEEEENS_9allocatorIS7_EEE21__on_zero_shared_weakEv, symObjAddr: 0x17EF0, symBinAddr: 0x1D16C, symSize: 0x4 }
  - { offset: 0x2698A1, size: 0x8, addend: 0x0, symName: __ZNSt3__120__shared_ptr_emplaceIN10reanimated3css30TransformOperationInterpolatorINS2_19RotateOperationBaseILNS2_11TransformOpE3EEEEENS_9allocatorIS7_EEE21__on_zero_shared_weakEv, symObjAddr: 0x17EF0, symBinAddr: 0x1D16C, symSize: 0x4 }
  - { offset: 0x269940, size: 0x8, addend: 0x0, symName: __ZN10reanimated3css30TransformOperationInterpolatorINS0_19RotateOperationBaseILNS0_11TransformOpE3EEEEC2ENSt3__110shared_ptrIS4_EE, symObjAddr: 0x17F7C, symBinAddr: 0x1D1F8, symSize: 0xA4 }
  - { offset: 0x269BF3, size: 0x8, addend: 0x0, symName: __ZN10reanimated3css30TransformOperationInterpolatorINS0_19RotateOperationBaseILNS0_11TransformOpE3EEEED1Ev, symObjAddr: 0x18020, symBinAddr: 0x1D29C, symSize: 0x34 }
  - { offset: 0x269C9E, size: 0x8, addend: 0x0, symName: __ZN10reanimated3css30TransformOperationInterpolatorINS0_19RotateOperationBaseILNS0_11TransformOpE3EEEED0Ev, symObjAddr: 0x18054, symBinAddr: 0x1D2D0, symSize: 0x34 }
  - { offset: 0x269DC6, size: 0x8, addend: 0x0, symName: __ZNK10reanimated3css25TransformInterpolatorBaseINS0_19RotateOperationBaseILNS0_11TransformOpE3EEEE19getDefaultOperationEv, symObjAddr: 0x18088, symBinAddr: 0x1D304, symSize: 0x24 }
  - { offset: 0x269DEE, size: 0x8, addend: 0x0, symName: __ZNK10reanimated3css25TransformInterpolatorBaseINS0_19RotateOperationBaseILNS0_11TransformOpE3EEEE19getDefaultOperationEv, symObjAddr: 0x18088, symBinAddr: 0x1D304, symSize: 0x24 }
  - { offset: 0x269E18, size: 0x8, addend: 0x0, symName: __ZNK10reanimated3css25TransformInterpolatorBaseINS0_19RotateOperationBaseILNS0_11TransformOpE3EEEE19getDefaultOperationEv, symObjAddr: 0x18088, symBinAddr: 0x1D304, symSize: 0x24 }
  - { offset: 0x26A214, size: 0x8, addend: 0x0, symName: __ZNK10reanimated3css25TransformInterpolatorBaseINS0_19RotateOperationBaseILNS0_11TransformOpE3EEEE11interpolateEdRKNSt3__110shared_ptrINS0_18TransformOperationEEESB_RKNS0_21TransformInterpolator13UpdateContextE, symObjAddr: 0x180AC, symBinAddr: 0x1D328, symSize: 0x158 }
  - { offset: 0x26A949, size: 0x8, addend: 0x0, symName: __ZNK10reanimated3css25TransformInterpolatorBaseINS0_19RotateOperationBaseILNS0_11TransformOpE3EEEE16resolveOperationERKNSt3__110shared_ptrINS0_18TransformOperationEEERKNS0_21TransformInterpolator13UpdateContextE, symObjAddr: 0x18204, symBinAddr: 0x1D480, symSize: 0xF4 }
  - { offset: 0x26AEDC, size: 0x8, addend: 0x0, symName: __ZNK10reanimated3css30TransformOperationInterpolatorINS0_19RotateOperationBaseILNS0_11TransformOpE3EEEE11interpolateEdRKS4_S7_RKNS0_21TransformInterpolator13UpdateContextE, symObjAddr: 0x182F8, symBinAddr: 0x1D574, symSize: 0x58 }
  - { offset: 0x26B03A, size: 0x8, addend: 0x0, symName: __ZNK10reanimated3css25TransformInterpolatorBaseINS0_19RotateOperationBaseILNS0_11TransformOpE3EEEE16resolveOperationERKS4_RKNS0_21TransformInterpolator13UpdateContextE, symObjAddr: 0x18350, symBinAddr: 0x1D5CC, symSize: 0x28 }
  - { offset: 0x26B080, size: 0x8, addend: 0x0, symName: __ZNK10reanimated3css25TransformInterpolatorBaseINS0_19RotateOperationBaseILNS0_11TransformOpE3EEEE16resolveOperationERKS4_RKNS0_21TransformInterpolator13UpdateContextE, symObjAddr: 0x18350, symBinAddr: 0x1D5CC, symSize: 0x28 }
  - { offset: 0x26B0A6, size: 0x8, addend: 0x0, symName: __ZNK10reanimated3css25TransformInterpolatorBaseINS0_19RotateOperationBaseILNS0_11TransformOpE3EEEE16resolveOperationERKS4_RKNS0_21TransformInterpolator13UpdateContextE, symObjAddr: 0x18350, symBinAddr: 0x1D5CC, symSize: 0x28 }
  - { offset: 0x26B130, size: 0x8, addend: 0x0, symName: __ZN10reanimated3css25TransformInterpolatorBaseINS0_19RotateOperationBaseILNS0_11TransformOpE3EEEED1Ev, symObjAddr: 0x18378, symBinAddr: 0x12B8A8, symSize: 0x4 }
  - { offset: 0x26B15C, size: 0x8, addend: 0x0, symName: __ZN10reanimated3css25TransformInterpolatorBaseINS0_19RotateOperationBaseILNS0_11TransformOpE3EEEED0Ev, symObjAddr: 0x1837C, symBinAddr: 0x12B8AC, symSize: 0x4 }
  - { offset: 0x26B188, size: 0x8, addend: 0x0, symName: __ZN10reanimated3css19RotateOperationBaseILNS0_11TransformOpE3EED1Ev, symObjAddr: 0x18380, symBinAddr: 0x1D5F4, symSize: 0x4 }
  - { offset: 0x26B1D0, size: 0x8, addend: 0x0, symName: __ZNSt3__120__shared_ptr_emplaceIN10reanimated3css19RotateOperationBaseILNS2_11TransformOpE3EEENS_9allocatorIS5_EEED1Ev, symObjAddr: 0x18384, symBinAddr: 0x1D5F8, symSize: 0x14 }
  - { offset: 0x26B1F4, size: 0x8, addend: 0x0, symName: __ZNSt3__120__shared_ptr_emplaceIN10reanimated3css19RotateOperationBaseILNS2_11TransformOpE3EEENS_9allocatorIS5_EEED1Ev, symObjAddr: 0x18384, symBinAddr: 0x1D5F8, symSize: 0x14 }
  - { offset: 0x26B22B, size: 0x8, addend: 0x0, symName: __ZNSt3__120__shared_ptr_emplaceIN10reanimated3css19RotateOperationBaseILNS2_11TransformOpE3EEENS_9allocatorIS5_EEED0Ev, symObjAddr: 0x18398, symBinAddr: 0x1D60C, symSize: 0x24 }
  - { offset: 0x26B301, size: 0x8, addend: 0x0, symName: __ZNSt3__120__shared_ptr_emplaceIN10reanimated3css19RotateOperationBaseILNS2_11TransformOpE3EEENS_9allocatorIS5_EEE16__on_zero_sharedEv, symObjAddr: 0x183BC, symBinAddr: 0x1D630, symSize: 0xC }
  - { offset: 0x26B32B, size: 0x8, addend: 0x0, symName: __ZNSt3__120__shared_ptr_emplaceIN10reanimated3css19RotateOperationBaseILNS2_11TransformOpE3EEENS_9allocatorIS5_EEE16__on_zero_sharedEv, symObjAddr: 0x183BC, symBinAddr: 0x1D630, symSize: 0xC }
  - { offset: 0x26B34A, size: 0x8, addend: 0x0, symName: __ZNSt3__120__shared_ptr_emplaceIN10reanimated3css19RotateOperationBaseILNS2_11TransformOpE3EEENS_9allocatorIS5_EEE16__on_zero_sharedEv, symObjAddr: 0x183BC, symBinAddr: 0x1D630, symSize: 0xC }
  - { offset: 0x26B369, size: 0x8, addend: 0x0, symName: __ZNSt3__120__shared_ptr_emplaceIN10reanimated3css19RotateOperationBaseILNS2_11TransformOpE3EEENS_9allocatorIS5_EEE16__on_zero_sharedEv, symObjAddr: 0x183BC, symBinAddr: 0x1D630, symSize: 0xC }
  - { offset: 0x26B3F7, size: 0x8, addend: 0x0, symName: __ZNSt3__120__shared_ptr_emplaceIN10reanimated3css19RotateOperationBaseILNS2_11TransformOpE3EEENS_9allocatorIS5_EEE21__on_zero_shared_weakEv, symObjAddr: 0x183C8, symBinAddr: 0x1D63C, symSize: 0x4 }
  - { offset: 0x26B42B, size: 0x8, addend: 0x0, symName: __ZNSt3__120__shared_ptr_emplaceIN10reanimated3css19RotateOperationBaseILNS2_11TransformOpE3EEENS_9allocatorIS5_EEE21__on_zero_shared_weakEv, symObjAddr: 0x183C8, symBinAddr: 0x1D63C, symSize: 0x4 }
  - { offset: 0x26B44F, size: 0x8, addend: 0x0, symName: __ZNSt3__120__shared_ptr_emplaceIN10reanimated3css19RotateOperationBaseILNS2_11TransformOpE3EEENS_9allocatorIS5_EEE21__on_zero_shared_weakEv, symObjAddr: 0x183C8, symBinAddr: 0x1D63C, symSize: 0x4 }
  - { offset: 0x26B474, size: 0x8, addend: 0x0, symName: __ZNSt3__120__shared_ptr_emplaceIN10reanimated3css19RotateOperationBaseILNS2_11TransformOpE3EEENS_9allocatorIS5_EEE21__on_zero_shared_weakEv, symObjAddr: 0x183C8, symBinAddr: 0x1D63C, symSize: 0x4 }
  - { offset: 0x26B4AB, size: 0x8, addend: 0x0, symName: __ZNSt3__120__shared_ptr_emplaceIN10reanimated3css19RotateOperationBaseILNS2_11TransformOpE3EEENS_9allocatorIS5_EEE21__on_zero_shared_weakEv, symObjAddr: 0x183C8, symBinAddr: 0x1D63C, symSize: 0x4 }
  - { offset: 0x26B4D5, size: 0x8, addend: 0x0, symName: __ZNK10reanimated3css22TransformOperationBaseILNS0_11TransformOpE3ENS0_8CSSAngleEEeqERKNS0_18TransformOperationE, symObjAddr: 0x183CC, symBinAddr: 0x1D640, symSize: 0x6C }
  - { offset: 0x26B547, size: 0x8, addend: 0x0, symName: __ZNK10reanimated3css22TransformOperationBaseILNS0_11TransformOpE3ENS0_8CSSAngleEE4typeEv, symObjAddr: 0x18438, symBinAddr: 0x1D6AC, symSize: 0x8 }
  - { offset: 0x26B56E, size: 0x8, addend: 0x0, symName: __ZNK10reanimated3css19RotateOperationBaseILNS0_11TransformOpE3EE14valueToDynamicEv, symObjAddr: 0x18440, symBinAddr: 0x1D6B4, symSize: 0x8 }
  - { offset: 0x26B595, size: 0x8, addend: 0x0, symName: __ZNK10reanimated3css19RotateOperationBaseILNS0_11TransformOpE3EE8toMatrixEv, symObjAddr: 0x18448, symBinAddr: 0x1D6BC, symSize: 0x8 }
  - { offset: 0x26B5BA, size: 0x8, addend: 0x0, symName: __ZN10reanimated3css19RotateOperationBaseILNS0_11TransformOpE3EED0Ev, symObjAddr: 0x18450, symBinAddr: 0x1D6C4, symSize: 0x4 }
  - { offset: 0x26B6D9, size: 0x8, addend: 0x0, symName: __ZNSt3__120__shared_ptr_emplaceIN10reanimated3css19RotateOperationBaseILNS2_11TransformOpE3EEENS_9allocatorIS5_EEEC2B8ne200100IJRA5_KcES7_Li0EEES7_DpOT_, symObjAddr: 0x184AC, symBinAddr: 0x1D720, symSize: 0x4C }
  - { offset: 0x26BAD3, size: 0x8, addend: 0x0, symName: __ZNSt3__120__shared_ptr_emplaceIN10reanimated3css30TransformOperationInterpolatorINS2_16RotateZOperationEEENS_9allocatorIS5_EEEC2B8ne200100IJNS_10shared_ptrIS4_EEES7_Li0EEES7_DpOT_, symObjAddr: 0x18634, symBinAddr: 0x1D850, symSize: 0x4C }
  - { offset: 0x26BC51, size: 0x8, addend: 0x0, symName: __ZNSt3__120__shared_ptr_emplaceIN10reanimated3css30TransformOperationInterpolatorINS2_16RotateZOperationEEENS_9allocatorIS5_EEED1Ev, symObjAddr: 0x18680, symBinAddr: 0x1D89C, symSize: 0x14 }
  - { offset: 0x26BC75, size: 0x8, addend: 0x0, symName: __ZNSt3__120__shared_ptr_emplaceIN10reanimated3css30TransformOperationInterpolatorINS2_16RotateZOperationEEENS_9allocatorIS5_EEED1Ev, symObjAddr: 0x18680, symBinAddr: 0x1D89C, symSize: 0x14 }
  - { offset: 0x26BCAC, size: 0x8, addend: 0x0, symName: __ZNSt3__120__shared_ptr_emplaceIN10reanimated3css30TransformOperationInterpolatorINS2_16RotateZOperationEEENS_9allocatorIS5_EEED0Ev, symObjAddr: 0x18694, symBinAddr: 0x1D8B0, symSize: 0x24 }
  - { offset: 0x26BD82, size: 0x8, addend: 0x0, symName: __ZNSt3__120__shared_ptr_emplaceIN10reanimated3css30TransformOperationInterpolatorINS2_16RotateZOperationEEENS_9allocatorIS5_EEE16__on_zero_sharedEv, symObjAddr: 0x186B8, symBinAddr: 0x1D8D4, symSize: 0xC }
  - { offset: 0x26BDAC, size: 0x8, addend: 0x0, symName: __ZNSt3__120__shared_ptr_emplaceIN10reanimated3css30TransformOperationInterpolatorINS2_16RotateZOperationEEENS_9allocatorIS5_EEE16__on_zero_sharedEv, symObjAddr: 0x186B8, symBinAddr: 0x1D8D4, symSize: 0xC }
  - { offset: 0x26BDCB, size: 0x8, addend: 0x0, symName: __ZNSt3__120__shared_ptr_emplaceIN10reanimated3css30TransformOperationInterpolatorINS2_16RotateZOperationEEENS_9allocatorIS5_EEE16__on_zero_sharedEv, symObjAddr: 0x186B8, symBinAddr: 0x1D8D4, symSize: 0xC }
  - { offset: 0x26BDEA, size: 0x8, addend: 0x0, symName: __ZNSt3__120__shared_ptr_emplaceIN10reanimated3css30TransformOperationInterpolatorINS2_16RotateZOperationEEENS_9allocatorIS5_EEE16__on_zero_sharedEv, symObjAddr: 0x186B8, symBinAddr: 0x1D8D4, symSize: 0xC }
  - { offset: 0x26BE16, size: 0x8, addend: 0x0, symName: __ZNSt3__120__shared_ptr_emplaceIN10reanimated3css30TransformOperationInterpolatorINS2_16RotateZOperationEEENS_9allocatorIS5_EEE21__on_zero_shared_weakEv, symObjAddr: 0x186C4, symBinAddr: 0x1D8E0, symSize: 0x4 }
  - { offset: 0x26BE4A, size: 0x8, addend: 0x0, symName: __ZNSt3__120__shared_ptr_emplaceIN10reanimated3css30TransformOperationInterpolatorINS2_16RotateZOperationEEENS_9allocatorIS5_EEE21__on_zero_shared_weakEv, symObjAddr: 0x186C4, symBinAddr: 0x1D8E0, symSize: 0x4 }
  - { offset: 0x26BE6E, size: 0x8, addend: 0x0, symName: __ZNSt3__120__shared_ptr_emplaceIN10reanimated3css30TransformOperationInterpolatorINS2_16RotateZOperationEEENS_9allocatorIS5_EEE21__on_zero_shared_weakEv, symObjAddr: 0x186C4, symBinAddr: 0x1D8E0, symSize: 0x4 }
  - { offset: 0x26BE93, size: 0x8, addend: 0x0, symName: __ZNSt3__120__shared_ptr_emplaceIN10reanimated3css30TransformOperationInterpolatorINS2_16RotateZOperationEEENS_9allocatorIS5_EEE21__on_zero_shared_weakEv, symObjAddr: 0x186C4, symBinAddr: 0x1D8E0, symSize: 0x4 }
  - { offset: 0x26BECA, size: 0x8, addend: 0x0, symName: __ZNSt3__120__shared_ptr_emplaceIN10reanimated3css30TransformOperationInterpolatorINS2_16RotateZOperationEEENS_9allocatorIS5_EEE21__on_zero_shared_weakEv, symObjAddr: 0x186C4, symBinAddr: 0x1D8E0, symSize: 0x4 }
  - { offset: 0x26BF69, size: 0x8, addend: 0x0, symName: __ZN10reanimated3css30TransformOperationInterpolatorINS0_16RotateZOperationEEC2ENSt3__110shared_ptrIS2_EE, symObjAddr: 0x18750, symBinAddr: 0x1D96C, symSize: 0xA4 }
  - { offset: 0x26C21C, size: 0x8, addend: 0x0, symName: __ZN10reanimated3css30TransformOperationInterpolatorINS0_16RotateZOperationEED1Ev, symObjAddr: 0x187F4, symBinAddr: 0x1DA10, symSize: 0x34 }
  - { offset: 0x26C2C7, size: 0x8, addend: 0x0, symName: __ZN10reanimated3css30TransformOperationInterpolatorINS0_16RotateZOperationEED0Ev, symObjAddr: 0x18828, symBinAddr: 0x1DA44, symSize: 0x34 }
  - { offset: 0x26C3EF, size: 0x8, addend: 0x0, symName: __ZNK10reanimated3css25TransformInterpolatorBaseINS0_16RotateZOperationEE19getDefaultOperationEv, symObjAddr: 0x1885C, symBinAddr: 0x1DA78, symSize: 0x24 }
  - { offset: 0x26C417, size: 0x8, addend: 0x0, symName: __ZNK10reanimated3css25TransformInterpolatorBaseINS0_16RotateZOperationEE19getDefaultOperationEv, symObjAddr: 0x1885C, symBinAddr: 0x1DA78, symSize: 0x24 }
  - { offset: 0x26C441, size: 0x8, addend: 0x0, symName: __ZNK10reanimated3css25TransformInterpolatorBaseINS0_16RotateZOperationEE19getDefaultOperationEv, symObjAddr: 0x1885C, symBinAddr: 0x1DA78, symSize: 0x24 }
  - { offset: 0x26C86F, size: 0x8, addend: 0x0, symName: __ZNK10reanimated3css25TransformInterpolatorBaseINS0_16RotateZOperationEE11interpolateEdRKNSt3__110shared_ptrINS0_18TransformOperationEEES9_RKNS0_21TransformInterpolator13UpdateContextE, symObjAddr: 0x18880, symBinAddr: 0x1DA9C, symSize: 0x158 }
  - { offset: 0x26CFC5, size: 0x8, addend: 0x0, symName: __ZNK10reanimated3css25TransformInterpolatorBaseINS0_16RotateZOperationEE16resolveOperationERKNSt3__110shared_ptrINS0_18TransformOperationEEERKNS0_21TransformInterpolator13UpdateContextE, symObjAddr: 0x189D8, symBinAddr: 0x1DBF4, symSize: 0xF4 }
  - { offset: 0x26D59C, size: 0x8, addend: 0x0, symName: __ZNK10reanimated3css30TransformOperationInterpolatorINS0_16RotateZOperationEE11interpolateEdRKS2_S5_RKNS0_21TransformInterpolator13UpdateContextE, symObjAddr: 0x18ACC, symBinAddr: 0x1DCE8, symSize: 0x58 }
  - { offset: 0x26D741, size: 0x8, addend: 0x0, symName: __ZNK10reanimated3css25TransformInterpolatorBaseINS0_16RotateZOperationEE16resolveOperationERKS2_RKNS0_21TransformInterpolator13UpdateContextE, symObjAddr: 0x18B24, symBinAddr: 0x1DD40, symSize: 0x28 }
  - { offset: 0x26D787, size: 0x8, addend: 0x0, symName: __ZNK10reanimated3css25TransformInterpolatorBaseINS0_16RotateZOperationEE16resolveOperationERKS2_RKNS0_21TransformInterpolator13UpdateContextE, symObjAddr: 0x18B24, symBinAddr: 0x1DD40, symSize: 0x28 }
  - { offset: 0x26D7AD, size: 0x8, addend: 0x0, symName: __ZNK10reanimated3css25TransformInterpolatorBaseINS0_16RotateZOperationEE16resolveOperationERKS2_RKNS0_21TransformInterpolator13UpdateContextE, symObjAddr: 0x18B24, symBinAddr: 0x1DD40, symSize: 0x28 }
  - { offset: 0x26D856, size: 0x8, addend: 0x0, symName: __ZN10reanimated3css25TransformInterpolatorBaseINS0_16RotateZOperationEED1Ev, symObjAddr: 0x18B4C, symBinAddr: 0x12B8B0, symSize: 0x4 }
  - { offset: 0x26D882, size: 0x8, addend: 0x0, symName: __ZN10reanimated3css25TransformInterpolatorBaseINS0_16RotateZOperationEED0Ev, symObjAddr: 0x18B50, symBinAddr: 0x12B8B4, symSize: 0x4 }
  - { offset: 0x26D8AE, size: 0x8, addend: 0x0, symName: __ZN10reanimated3css16RotateZOperationD1Ev, symObjAddr: 0x18B54, symBinAddr: 0x1DD68, symSize: 0x4 }
  - { offset: 0x26D8F6, size: 0x8, addend: 0x0, symName: __ZNSt3__120__shared_ptr_emplaceIN10reanimated3css16RotateZOperationENS_9allocatorIS3_EEED1Ev, symObjAddr: 0x18B58, symBinAddr: 0x1DD6C, symSize: 0x14 }
  - { offset: 0x26D91A, size: 0x8, addend: 0x0, symName: __ZNSt3__120__shared_ptr_emplaceIN10reanimated3css16RotateZOperationENS_9allocatorIS3_EEED1Ev, symObjAddr: 0x18B58, symBinAddr: 0x1DD6C, symSize: 0x14 }
  - { offset: 0x26D951, size: 0x8, addend: 0x0, symName: __ZNSt3__120__shared_ptr_emplaceIN10reanimated3css16RotateZOperationENS_9allocatorIS3_EEED0Ev, symObjAddr: 0x18B6C, symBinAddr: 0x1DD80, symSize: 0x24 }
  - { offset: 0x26D9B8, size: 0x8, addend: 0x0, symName: __ZNSt3__120__shared_ptr_emplaceIN10reanimated3css16RotateZOperationENS_9allocatorIS3_EEE16__on_zero_sharedEv, symObjAddr: 0x18B90, symBinAddr: 0x1DDA4, symSize: 0x4 }
  - { offset: 0x26DA3F, size: 0x8, addend: 0x0, symName: __ZNSt3__120__shared_ptr_emplaceIN10reanimated3css16RotateZOperationENS_9allocatorIS3_EEE21__on_zero_shared_weakEv, symObjAddr: 0x18B94, symBinAddr: 0x1DDA8, symSize: 0x4 }
  - { offset: 0x26DA73, size: 0x8, addend: 0x0, symName: __ZNSt3__120__shared_ptr_emplaceIN10reanimated3css16RotateZOperationENS_9allocatorIS3_EEE21__on_zero_shared_weakEv, symObjAddr: 0x18B94, symBinAddr: 0x1DDA8, symSize: 0x4 }
  - { offset: 0x26DA97, size: 0x8, addend: 0x0, symName: __ZNSt3__120__shared_ptr_emplaceIN10reanimated3css16RotateZOperationENS_9allocatorIS3_EEE21__on_zero_shared_weakEv, symObjAddr: 0x18B94, symBinAddr: 0x1DDA8, symSize: 0x4 }
  - { offset: 0x26DABC, size: 0x8, addend: 0x0, symName: __ZNSt3__120__shared_ptr_emplaceIN10reanimated3css16RotateZOperationENS_9allocatorIS3_EEE21__on_zero_shared_weakEv, symObjAddr: 0x18B94, symBinAddr: 0x1DDA8, symSize: 0x4 }
  - { offset: 0x26DAF3, size: 0x8, addend: 0x0, symName: __ZNSt3__120__shared_ptr_emplaceIN10reanimated3css16RotateZOperationENS_9allocatorIS3_EEE21__on_zero_shared_weakEv, symObjAddr: 0x18B94, symBinAddr: 0x1DDA8, symSize: 0x4 }
  - { offset: 0x26DB1D, size: 0x8, addend: 0x0, symName: __ZNK10reanimated3css22TransformOperationBaseILNS0_11TransformOpE4ENS0_8CSSAngleEEeqERKNS0_18TransformOperationE, symObjAddr: 0x18B98, symBinAddr: 0x1DDAC, symSize: 0x6C }
  - { offset: 0x26DB8F, size: 0x8, addend: 0x0, symName: __ZNK10reanimated3css22TransformOperationBaseILNS0_11TransformOpE4ENS0_8CSSAngleEE4typeEv, symObjAddr: 0x18C04, symBinAddr: 0x1DE18, symSize: 0x8 }
  - { offset: 0x26DBB6, size: 0x8, addend: 0x0, symName: __ZNK10reanimated3css19RotateOperationBaseILNS0_11TransformOpE4EE14valueToDynamicEv, symObjAddr: 0x18C0C, symBinAddr: 0x1DE20, symSize: 0x8 }
  - { offset: 0x26DBDD, size: 0x8, addend: 0x0, symName: __ZNK10reanimated3css16RotateZOperation12canConvertToENS0_11TransformOpE, symObjAddr: 0x18C14, symBinAddr: 0x1DE28, symSize: 0xC }
  - { offset: 0x26DDA0, size: 0x8, addend: 0x0, symName: __ZNK10reanimated3css16RotateZOperation9convertToENS0_11TransformOpE, symObjAddr: 0x18C20, symBinAddr: 0x1DE34, symSize: 0xEC }
  - { offset: 0x26E1AB, size: 0x8, addend: 0x0, symName: __ZNSt3__16vectorINS_10shared_ptrIN10reanimated3css18TransformOperationEEENS_9allocatorIS5_EEE16__init_with_sizeB8ne200100IPKS5_SB_EEvT_T0_m, symObjAddr: 0x18D18, symBinAddr: 0x1DF2C, symSize: 0x98 }
  - { offset: 0x26E598, size: 0x8, addend: 0x0, symName: __ZNK10reanimated3css19RotateOperationBaseILNS0_11TransformOpE4EE8toMatrixEv, symObjAddr: 0x18D0C, symBinAddr: 0x1DF20, symSize: 0x8 }
  - { offset: 0x26E5BD, size: 0x8, addend: 0x0, symName: __ZN10reanimated3css16RotateZOperationD0Ev, symObjAddr: 0x18D14, symBinAddr: 0x1DF28, symSize: 0x4 }
  - { offset: 0x26EBA3, size: 0x8, addend: 0x0, symName: __ZNSt3__120__shared_ptr_emplaceIN10reanimated3css16RotateZOperationENS_9allocatorIS3_EEEC2B8ne200100IJRA5_KcES5_Li0EEES5_DpOT_, symObjAddr: 0x18F50, symBinAddr: 0x1E01C, symSize: 0x4C }
  - { offset: 0x26EFBC, size: 0x8, addend: 0x0, symName: __ZNSt3__120__shared_ptr_emplaceIN10reanimated3css30TransformOperationInterpolatorINS2_14ScaleOperationEEENS_9allocatorIS5_EEEC2B8ne200100IJNS_10shared_ptrIS4_EEES7_Li0EEES7_DpOT_, symObjAddr: 0x190D8, symBinAddr: 0x1E14C, symSize: 0x4C }
  - { offset: 0x26F13A, size: 0x8, addend: 0x0, symName: __ZNSt3__120__shared_ptr_emplaceIN10reanimated3css30TransformOperationInterpolatorINS2_14ScaleOperationEEENS_9allocatorIS5_EEED1Ev, symObjAddr: 0x19124, symBinAddr: 0x1E198, symSize: 0x14 }
  - { offset: 0x26F15E, size: 0x8, addend: 0x0, symName: __ZNSt3__120__shared_ptr_emplaceIN10reanimated3css30TransformOperationInterpolatorINS2_14ScaleOperationEEENS_9allocatorIS5_EEED1Ev, symObjAddr: 0x19124, symBinAddr: 0x1E198, symSize: 0x14 }
  - { offset: 0x26F195, size: 0x8, addend: 0x0, symName: __ZNSt3__120__shared_ptr_emplaceIN10reanimated3css30TransformOperationInterpolatorINS2_14ScaleOperationEEENS_9allocatorIS5_EEED0Ev, symObjAddr: 0x19138, symBinAddr: 0x1E1AC, symSize: 0x24 }
  - { offset: 0x26F26B, size: 0x8, addend: 0x0, symName: __ZNSt3__120__shared_ptr_emplaceIN10reanimated3css30TransformOperationInterpolatorINS2_14ScaleOperationEEENS_9allocatorIS5_EEE16__on_zero_sharedEv, symObjAddr: 0x1915C, symBinAddr: 0x1E1D0, symSize: 0xC }
  - { offset: 0x26F295, size: 0x8, addend: 0x0, symName: __ZNSt3__120__shared_ptr_emplaceIN10reanimated3css30TransformOperationInterpolatorINS2_14ScaleOperationEEENS_9allocatorIS5_EEE16__on_zero_sharedEv, symObjAddr: 0x1915C, symBinAddr: 0x1E1D0, symSize: 0xC }
  - { offset: 0x26F2B4, size: 0x8, addend: 0x0, symName: __ZNSt3__120__shared_ptr_emplaceIN10reanimated3css30TransformOperationInterpolatorINS2_14ScaleOperationEEENS_9allocatorIS5_EEE16__on_zero_sharedEv, symObjAddr: 0x1915C, symBinAddr: 0x1E1D0, symSize: 0xC }
  - { offset: 0x26F2D3, size: 0x8, addend: 0x0, symName: __ZNSt3__120__shared_ptr_emplaceIN10reanimated3css30TransformOperationInterpolatorINS2_14ScaleOperationEEENS_9allocatorIS5_EEE16__on_zero_sharedEv, symObjAddr: 0x1915C, symBinAddr: 0x1E1D0, symSize: 0xC }
  - { offset: 0x26F2FF, size: 0x8, addend: 0x0, symName: __ZNSt3__120__shared_ptr_emplaceIN10reanimated3css30TransformOperationInterpolatorINS2_14ScaleOperationEEENS_9allocatorIS5_EEE21__on_zero_shared_weakEv, symObjAddr: 0x19168, symBinAddr: 0x1E1DC, symSize: 0x4 }
  - { offset: 0x26F333, size: 0x8, addend: 0x0, symName: __ZNSt3__120__shared_ptr_emplaceIN10reanimated3css30TransformOperationInterpolatorINS2_14ScaleOperationEEENS_9allocatorIS5_EEE21__on_zero_shared_weakEv, symObjAddr: 0x19168, symBinAddr: 0x1E1DC, symSize: 0x4 }
  - { offset: 0x26F357, size: 0x8, addend: 0x0, symName: __ZNSt3__120__shared_ptr_emplaceIN10reanimated3css30TransformOperationInterpolatorINS2_14ScaleOperationEEENS_9allocatorIS5_EEE21__on_zero_shared_weakEv, symObjAddr: 0x19168, symBinAddr: 0x1E1DC, symSize: 0x4 }
  - { offset: 0x26F37C, size: 0x8, addend: 0x0, symName: __ZNSt3__120__shared_ptr_emplaceIN10reanimated3css30TransformOperationInterpolatorINS2_14ScaleOperationEEENS_9allocatorIS5_EEE21__on_zero_shared_weakEv, symObjAddr: 0x19168, symBinAddr: 0x1E1DC, symSize: 0x4 }
  - { offset: 0x26F3B3, size: 0x8, addend: 0x0, symName: __ZNSt3__120__shared_ptr_emplaceIN10reanimated3css30TransformOperationInterpolatorINS2_14ScaleOperationEEENS_9allocatorIS5_EEE21__on_zero_shared_weakEv, symObjAddr: 0x19168, symBinAddr: 0x1E1DC, symSize: 0x4 }
  - { offset: 0x26F452, size: 0x8, addend: 0x0, symName: __ZN10reanimated3css30TransformOperationInterpolatorINS0_14ScaleOperationEEC2ENSt3__110shared_ptrIS2_EE, symObjAddr: 0x191F4, symBinAddr: 0x1E268, symSize: 0xA4 }
  - { offset: 0x26F705, size: 0x8, addend: 0x0, symName: __ZN10reanimated3css30TransformOperationInterpolatorINS0_14ScaleOperationEED1Ev, symObjAddr: 0x19298, symBinAddr: 0x1E30C, symSize: 0x34 }
  - { offset: 0x26F7B0, size: 0x8, addend: 0x0, symName: __ZN10reanimated3css30TransformOperationInterpolatorINS0_14ScaleOperationEED0Ev, symObjAddr: 0x192CC, symBinAddr: 0x1E340, symSize: 0x34 }
  - { offset: 0x26F8D8, size: 0x8, addend: 0x0, symName: __ZNK10reanimated3css25TransformInterpolatorBaseINS0_14ScaleOperationEE19getDefaultOperationEv, symObjAddr: 0x19300, symBinAddr: 0x1E374, symSize: 0x24 }
  - { offset: 0x26F900, size: 0x8, addend: 0x0, symName: __ZNK10reanimated3css25TransformInterpolatorBaseINS0_14ScaleOperationEE19getDefaultOperationEv, symObjAddr: 0x19300, symBinAddr: 0x1E374, symSize: 0x24 }
  - { offset: 0x26F92A, size: 0x8, addend: 0x0, symName: __ZNK10reanimated3css25TransformInterpolatorBaseINS0_14ScaleOperationEE19getDefaultOperationEv, symObjAddr: 0x19300, symBinAddr: 0x1E374, symSize: 0x24 }
  - { offset: 0x26FD58, size: 0x8, addend: 0x0, symName: __ZNK10reanimated3css25TransformInterpolatorBaseINS0_14ScaleOperationEE11interpolateEdRKNSt3__110shared_ptrINS0_18TransformOperationEEES9_RKNS0_21TransformInterpolator13UpdateContextE, symObjAddr: 0x19324, symBinAddr: 0x1E398, symSize: 0x158 }
  - { offset: 0x2704DB, size: 0x8, addend: 0x0, symName: __ZNK10reanimated3css25TransformInterpolatorBaseINS0_14ScaleOperationEE16resolveOperationERKNSt3__110shared_ptrINS0_18TransformOperationEEERKNS0_21TransformInterpolator13UpdateContextE, symObjAddr: 0x1947C, symBinAddr: 0x1E4F0, symSize: 0xF4 }
  - { offset: 0x270ADF, size: 0x8, addend: 0x0, symName: __ZNK10reanimated3css30TransformOperationInterpolatorINS0_14ScaleOperationEE11interpolateEdRKS2_S5_RKNS0_21TransformInterpolator13UpdateContextE, symObjAddr: 0x19570, symBinAddr: 0x1E5E4, symSize: 0x58 }
  - { offset: 0x270CAD, size: 0x8, addend: 0x0, symName: __ZNK10reanimated3css25TransformInterpolatorBaseINS0_14ScaleOperationEE16resolveOperationERKS2_RKNS0_21TransformInterpolator13UpdateContextE, symObjAddr: 0x195C8, symBinAddr: 0x1E63C, symSize: 0x28 }
  - { offset: 0x270CF3, size: 0x8, addend: 0x0, symName: __ZNK10reanimated3css25TransformInterpolatorBaseINS0_14ScaleOperationEE16resolveOperationERKS2_RKNS0_21TransformInterpolator13UpdateContextE, symObjAddr: 0x195C8, symBinAddr: 0x1E63C, symSize: 0x28 }
  - { offset: 0x270D19, size: 0x8, addend: 0x0, symName: __ZNK10reanimated3css25TransformInterpolatorBaseINS0_14ScaleOperationEE16resolveOperationERKS2_RKNS0_21TransformInterpolator13UpdateContextE, symObjAddr: 0x195C8, symBinAddr: 0x1E63C, symSize: 0x28 }
  - { offset: 0x270DBF, size: 0x8, addend: 0x0, symName: __ZNK10reanimated3css25TransformInterpolatorBaseINS0_14ScaleOperationEE16resolveOperationERKS2_RKNS0_21TransformInterpolator13UpdateContextE, symObjAddr: 0x195C8, symBinAddr: 0x1E63C, symSize: 0x28 }
  - { offset: 0x270DED, size: 0x8, addend: 0x0, symName: __ZN10reanimated3css25TransformInterpolatorBaseINS0_14ScaleOperationEED1Ev, symObjAddr: 0x195F0, symBinAddr: 0x12B8B8, symSize: 0x4 }
  - { offset: 0x270E19, size: 0x8, addend: 0x0, symName: __ZN10reanimated3css25TransformInterpolatorBaseINS0_14ScaleOperationEED0Ev, symObjAddr: 0x195F4, symBinAddr: 0x12B8BC, symSize: 0x4 }
  - { offset: 0x270E45, size: 0x8, addend: 0x0, symName: __ZN10reanimated3css14ScaleOperationD1Ev, symObjAddr: 0x195F8, symBinAddr: 0x1E664, symSize: 0x4 }
  - { offset: 0x270E8D, size: 0x8, addend: 0x0, symName: __ZNSt3__120__shared_ptr_emplaceIN10reanimated3css14ScaleOperationENS_9allocatorIS3_EEED1Ev, symObjAddr: 0x195FC, symBinAddr: 0x1E668, symSize: 0x14 }
  - { offset: 0x270EB1, size: 0x8, addend: 0x0, symName: __ZNSt3__120__shared_ptr_emplaceIN10reanimated3css14ScaleOperationENS_9allocatorIS3_EEED1Ev, symObjAddr: 0x195FC, symBinAddr: 0x1E668, symSize: 0x14 }
  - { offset: 0x270EE8, size: 0x8, addend: 0x0, symName: __ZNSt3__120__shared_ptr_emplaceIN10reanimated3css14ScaleOperationENS_9allocatorIS3_EEED0Ev, symObjAddr: 0x19610, symBinAddr: 0x1E67C, symSize: 0x24 }
  - { offset: 0x270F4F, size: 0x8, addend: 0x0, symName: __ZNSt3__120__shared_ptr_emplaceIN10reanimated3css14ScaleOperationENS_9allocatorIS3_EEE16__on_zero_sharedEv, symObjAddr: 0x19634, symBinAddr: 0x1E6A0, symSize: 0x4 }
  - { offset: 0x270FD6, size: 0x8, addend: 0x0, symName: __ZNSt3__120__shared_ptr_emplaceIN10reanimated3css14ScaleOperationENS_9allocatorIS3_EEE21__on_zero_shared_weakEv, symObjAddr: 0x19638, symBinAddr: 0x1E6A4, symSize: 0x4 }
  - { offset: 0x27100A, size: 0x8, addend: 0x0, symName: __ZNSt3__120__shared_ptr_emplaceIN10reanimated3css14ScaleOperationENS_9allocatorIS3_EEE21__on_zero_shared_weakEv, symObjAddr: 0x19638, symBinAddr: 0x1E6A4, symSize: 0x4 }
  - { offset: 0x27102E, size: 0x8, addend: 0x0, symName: __ZNSt3__120__shared_ptr_emplaceIN10reanimated3css14ScaleOperationENS_9allocatorIS3_EEE21__on_zero_shared_weakEv, symObjAddr: 0x19638, symBinAddr: 0x1E6A4, symSize: 0x4 }
  - { offset: 0x271053, size: 0x8, addend: 0x0, symName: __ZNSt3__120__shared_ptr_emplaceIN10reanimated3css14ScaleOperationENS_9allocatorIS3_EEE21__on_zero_shared_weakEv, symObjAddr: 0x19638, symBinAddr: 0x1E6A4, symSize: 0x4 }
  - { offset: 0x27108A, size: 0x8, addend: 0x0, symName: __ZNSt3__120__shared_ptr_emplaceIN10reanimated3css14ScaleOperationENS_9allocatorIS3_EEE21__on_zero_shared_weakEv, symObjAddr: 0x19638, symBinAddr: 0x1E6A4, symSize: 0x4 }
  - { offset: 0x2710B4, size: 0x8, addend: 0x0, symName: __ZNK10reanimated3css22TransformOperationBaseILNS0_11TransformOpE5ENS0_9CSSDoubleEEeqERKNS0_18TransformOperationE, symObjAddr: 0x1963C, symBinAddr: 0x1E6A8, symSize: 0x6C }
  - { offset: 0x271126, size: 0x8, addend: 0x0, symName: __ZNK10reanimated3css22TransformOperationBaseILNS0_11TransformOpE5ENS0_9CSSDoubleEE4typeEv, symObjAddr: 0x196A8, symBinAddr: 0x1E714, symSize: 0x8 }
  - { offset: 0x27114D, size: 0x8, addend: 0x0, symName: __ZNK10reanimated3css18ScaleOperationBaseILNS0_11TransformOpE5EE14valueToDynamicEv, symObjAddr: 0x196B0, symBinAddr: 0x1E71C, symSize: 0x8 }
  - { offset: 0x271174, size: 0x8, addend: 0x0, symName: __ZNK10reanimated3css14ScaleOperation12canConvertToENS0_11TransformOpE, symObjAddr: 0x196B8, symBinAddr: 0x1E724, symSize: 0x10 }
  - { offset: 0x271790, size: 0x8, addend: 0x0, symName: __ZNK10reanimated3css14ScaleOperation9convertToENS0_11TransformOpE, symObjAddr: 0x196C8, symBinAddr: 0x1E734, symSize: 0x364 }
  - { offset: 0x2728D2, size: 0x8, addend: 0x0, symName: __ZNK10reanimated3css18ScaleOperationBaseILNS0_11TransformOpE5EE8toMatrixEv, symObjAddr: 0x19A2C, symBinAddr: 0x1EA98, symSize: 0x8 }
  - { offset: 0x2728F7, size: 0x8, addend: 0x0, symName: __ZN10reanimated3css14ScaleOperationD0Ev, symObjAddr: 0x19A34, symBinAddr: 0x1EAA0, symSize: 0x4 }
  - { offset: 0x27293F, size: 0x8, addend: 0x0, symName: __ZNSt3__120__shared_ptr_emplaceIN10reanimated3css18ScaleOperationBaseILNS2_11TransformOpE6EEENS_9allocatorIS5_EEED1Ev, symObjAddr: 0x19A38, symBinAddr: 0x1EAA4, symSize: 0x14 }
  - { offset: 0x272963, size: 0x8, addend: 0x0, symName: __ZNSt3__120__shared_ptr_emplaceIN10reanimated3css18ScaleOperationBaseILNS2_11TransformOpE6EEENS_9allocatorIS5_EEED1Ev, symObjAddr: 0x19A38, symBinAddr: 0x1EAA4, symSize: 0x14 }
  - { offset: 0x27299A, size: 0x8, addend: 0x0, symName: __ZNSt3__120__shared_ptr_emplaceIN10reanimated3css18ScaleOperationBaseILNS2_11TransformOpE6EEENS_9allocatorIS5_EEED0Ev, symObjAddr: 0x19A4C, symBinAddr: 0x1EAB8, symSize: 0x24 }
  - { offset: 0x272A70, size: 0x8, addend: 0x0, symName: __ZNSt3__120__shared_ptr_emplaceIN10reanimated3css18ScaleOperationBaseILNS2_11TransformOpE6EEENS_9allocatorIS5_EEE16__on_zero_sharedEv, symObjAddr: 0x19A70, symBinAddr: 0x1EADC, symSize: 0xC }
  - { offset: 0x272A9A, size: 0x8, addend: 0x0, symName: __ZNSt3__120__shared_ptr_emplaceIN10reanimated3css18ScaleOperationBaseILNS2_11TransformOpE6EEENS_9allocatorIS5_EEE16__on_zero_sharedEv, symObjAddr: 0x19A70, symBinAddr: 0x1EADC, symSize: 0xC }
  - { offset: 0x272AB9, size: 0x8, addend: 0x0, symName: __ZNSt3__120__shared_ptr_emplaceIN10reanimated3css18ScaleOperationBaseILNS2_11TransformOpE6EEENS_9allocatorIS5_EEE16__on_zero_sharedEv, symObjAddr: 0x19A70, symBinAddr: 0x1EADC, symSize: 0xC }
  - { offset: 0x272AD8, size: 0x8, addend: 0x0, symName: __ZNSt3__120__shared_ptr_emplaceIN10reanimated3css18ScaleOperationBaseILNS2_11TransformOpE6EEENS_9allocatorIS5_EEE16__on_zero_sharedEv, symObjAddr: 0x19A70, symBinAddr: 0x1EADC, symSize: 0xC }
  - { offset: 0x272B66, size: 0x8, addend: 0x0, symName: __ZNSt3__120__shared_ptr_emplaceIN10reanimated3css18ScaleOperationBaseILNS2_11TransformOpE6EEENS_9allocatorIS5_EEE21__on_zero_shared_weakEv, symObjAddr: 0x19A7C, symBinAddr: 0x1EAE8, symSize: 0x4 }
  - { offset: 0x272B9A, size: 0x8, addend: 0x0, symName: __ZNSt3__120__shared_ptr_emplaceIN10reanimated3css18ScaleOperationBaseILNS2_11TransformOpE6EEENS_9allocatorIS5_EEE21__on_zero_shared_weakEv, symObjAddr: 0x19A7C, symBinAddr: 0x1EAE8, symSize: 0x4 }
  - { offset: 0x272BBE, size: 0x8, addend: 0x0, symName: __ZNSt3__120__shared_ptr_emplaceIN10reanimated3css18ScaleOperationBaseILNS2_11TransformOpE6EEENS_9allocatorIS5_EEE21__on_zero_shared_weakEv, symObjAddr: 0x19A7C, symBinAddr: 0x1EAE8, symSize: 0x4 }
  - { offset: 0x272BE3, size: 0x8, addend: 0x0, symName: __ZNSt3__120__shared_ptr_emplaceIN10reanimated3css18ScaleOperationBaseILNS2_11TransformOpE6EEENS_9allocatorIS5_EEE21__on_zero_shared_weakEv, symObjAddr: 0x19A7C, symBinAddr: 0x1EAE8, symSize: 0x4 }
  - { offset: 0x272C1A, size: 0x8, addend: 0x0, symName: __ZNSt3__120__shared_ptr_emplaceIN10reanimated3css18ScaleOperationBaseILNS2_11TransformOpE6EEENS_9allocatorIS5_EEE21__on_zero_shared_weakEv, symObjAddr: 0x19A7C, symBinAddr: 0x1EAE8, symSize: 0x4 }
  - { offset: 0x272C44, size: 0x8, addend: 0x0, symName: __ZNK10reanimated3css22TransformOperationBaseILNS0_11TransformOpE6ENS0_9CSSDoubleEEeqERKNS0_18TransformOperationE, symObjAddr: 0x19A80, symBinAddr: 0x1EAEC, symSize: 0x6C }
  - { offset: 0x272CB6, size: 0x8, addend: 0x0, symName: __ZNK10reanimated3css22TransformOperationBaseILNS0_11TransformOpE6ENS0_9CSSDoubleEE4typeEv, symObjAddr: 0x19AEC, symBinAddr: 0x1EB58, symSize: 0x8 }
  - { offset: 0x272CDD, size: 0x8, addend: 0x0, symName: __ZNK10reanimated3css18ScaleOperationBaseILNS0_11TransformOpE6EE14valueToDynamicEv, symObjAddr: 0x19AF4, symBinAddr: 0x1EB60, symSize: 0x8 }
  - { offset: 0x272D04, size: 0x8, addend: 0x0, symName: __ZNK10reanimated3css18ScaleOperationBaseILNS0_11TransformOpE6EE8toMatrixEv, symObjAddr: 0x19AFC, symBinAddr: 0x1EB68, symSize: 0x8 }
  - { offset: 0x272D29, size: 0x8, addend: 0x0, symName: __ZN10reanimated3css18ScaleOperationBaseILNS0_11TransformOpE6EED1Ev, symObjAddr: 0x19B04, symBinAddr: 0x1EB70, symSize: 0x4 }
  - { offset: 0x272D55, size: 0x8, addend: 0x0, symName: __ZN10reanimated3css18ScaleOperationBaseILNS0_11TransformOpE6EED0Ev, symObjAddr: 0x19B08, symBinAddr: 0x1EB74, symSize: 0x4 }
  - { offset: 0x272D9D, size: 0x8, addend: 0x0, symName: __ZNSt3__120__shared_ptr_emplaceIN10reanimated3css18ScaleOperationBaseILNS2_11TransformOpE7EEENS_9allocatorIS5_EEED1Ev, symObjAddr: 0x19B0C, symBinAddr: 0x1EB78, symSize: 0x14 }
  - { offset: 0x272DC1, size: 0x8, addend: 0x0, symName: __ZNSt3__120__shared_ptr_emplaceIN10reanimated3css18ScaleOperationBaseILNS2_11TransformOpE7EEENS_9allocatorIS5_EEED1Ev, symObjAddr: 0x19B0C, symBinAddr: 0x1EB78, symSize: 0x14 }
  - { offset: 0x272DF8, size: 0x8, addend: 0x0, symName: __ZNSt3__120__shared_ptr_emplaceIN10reanimated3css18ScaleOperationBaseILNS2_11TransformOpE7EEENS_9allocatorIS5_EEED0Ev, symObjAddr: 0x19B20, symBinAddr: 0x1EB8C, symSize: 0x24 }
  - { offset: 0x272ECE, size: 0x8, addend: 0x0, symName: __ZNSt3__120__shared_ptr_emplaceIN10reanimated3css18ScaleOperationBaseILNS2_11TransformOpE7EEENS_9allocatorIS5_EEE16__on_zero_sharedEv, symObjAddr: 0x19B44, symBinAddr: 0x1EBB0, symSize: 0xC }
  - { offset: 0x272EF8, size: 0x8, addend: 0x0, symName: __ZNSt3__120__shared_ptr_emplaceIN10reanimated3css18ScaleOperationBaseILNS2_11TransformOpE7EEENS_9allocatorIS5_EEE16__on_zero_sharedEv, symObjAddr: 0x19B44, symBinAddr: 0x1EBB0, symSize: 0xC }
  - { offset: 0x272F17, size: 0x8, addend: 0x0, symName: __ZNSt3__120__shared_ptr_emplaceIN10reanimated3css18ScaleOperationBaseILNS2_11TransformOpE7EEENS_9allocatorIS5_EEE16__on_zero_sharedEv, symObjAddr: 0x19B44, symBinAddr: 0x1EBB0, symSize: 0xC }
  - { offset: 0x272F36, size: 0x8, addend: 0x0, symName: __ZNSt3__120__shared_ptr_emplaceIN10reanimated3css18ScaleOperationBaseILNS2_11TransformOpE7EEENS_9allocatorIS5_EEE16__on_zero_sharedEv, symObjAddr: 0x19B44, symBinAddr: 0x1EBB0, symSize: 0xC }
  - { offset: 0x272FC4, size: 0x8, addend: 0x0, symName: __ZNSt3__120__shared_ptr_emplaceIN10reanimated3css18ScaleOperationBaseILNS2_11TransformOpE7EEENS_9allocatorIS5_EEE21__on_zero_shared_weakEv, symObjAddr: 0x19B50, symBinAddr: 0x1EBBC, symSize: 0x4 }
  - { offset: 0x272FF8, size: 0x8, addend: 0x0, symName: __ZNSt3__120__shared_ptr_emplaceIN10reanimated3css18ScaleOperationBaseILNS2_11TransformOpE7EEENS_9allocatorIS5_EEE21__on_zero_shared_weakEv, symObjAddr: 0x19B50, symBinAddr: 0x1EBBC, symSize: 0x4 }
  - { offset: 0x27301C, size: 0x8, addend: 0x0, symName: __ZNSt3__120__shared_ptr_emplaceIN10reanimated3css18ScaleOperationBaseILNS2_11TransformOpE7EEENS_9allocatorIS5_EEE21__on_zero_shared_weakEv, symObjAddr: 0x19B50, symBinAddr: 0x1EBBC, symSize: 0x4 }
  - { offset: 0x273041, size: 0x8, addend: 0x0, symName: __ZNSt3__120__shared_ptr_emplaceIN10reanimated3css18ScaleOperationBaseILNS2_11TransformOpE7EEENS_9allocatorIS5_EEE21__on_zero_shared_weakEv, symObjAddr: 0x19B50, symBinAddr: 0x1EBBC, symSize: 0x4 }
  - { offset: 0x273078, size: 0x8, addend: 0x0, symName: __ZNSt3__120__shared_ptr_emplaceIN10reanimated3css18ScaleOperationBaseILNS2_11TransformOpE7EEENS_9allocatorIS5_EEE21__on_zero_shared_weakEv, symObjAddr: 0x19B50, symBinAddr: 0x1EBBC, symSize: 0x4 }
  - { offset: 0x2730A2, size: 0x8, addend: 0x0, symName: __ZNK10reanimated3css22TransformOperationBaseILNS0_11TransformOpE7ENS0_9CSSDoubleEEeqERKNS0_18TransformOperationE, symObjAddr: 0x19B54, symBinAddr: 0x1EBC0, symSize: 0x6C }
  - { offset: 0x273114, size: 0x8, addend: 0x0, symName: __ZNK10reanimated3css22TransformOperationBaseILNS0_11TransformOpE7ENS0_9CSSDoubleEE4typeEv, symObjAddr: 0x19BC0, symBinAddr: 0x1EC2C, symSize: 0x8 }
  - { offset: 0x27313B, size: 0x8, addend: 0x0, symName: __ZNK10reanimated3css18ScaleOperationBaseILNS0_11TransformOpE7EE14valueToDynamicEv, symObjAddr: 0x19BC8, symBinAddr: 0x1EC34, symSize: 0x8 }
  - { offset: 0x273162, size: 0x8, addend: 0x0, symName: __ZNK10reanimated3css18ScaleOperationBaseILNS0_11TransformOpE7EE8toMatrixEv, symObjAddr: 0x19BD0, symBinAddr: 0x1EC3C, symSize: 0x8 }
  - { offset: 0x273187, size: 0x8, addend: 0x0, symName: __ZN10reanimated3css18ScaleOperationBaseILNS0_11TransformOpE7EED1Ev, symObjAddr: 0x19BD8, symBinAddr: 0x1EC44, symSize: 0x4 }
  - { offset: 0x2731B3, size: 0x8, addend: 0x0, symName: __ZN10reanimated3css18ScaleOperationBaseILNS0_11TransformOpE7EED0Ev, symObjAddr: 0x19BDC, symBinAddr: 0x1EC48, symSize: 0x4 }
  - { offset: 0x2732D2, size: 0x8, addend: 0x0, symName: __ZNSt3__120__shared_ptr_emplaceIN10reanimated3css14ScaleOperationENS_9allocatorIS3_EEEC2B8ne200100IJRKiES5_Li0EEES5_DpOT_, symObjAddr: 0x19CE8, symBinAddr: 0x1ECA4, symSize: 0x84 }
  - { offset: 0x27386C, size: 0x8, addend: 0x0, symName: __ZNSt3__120__shared_ptr_emplaceIN10reanimated3css30TransformOperationInterpolatorINS2_18ScaleOperationBaseILNS2_11TransformOpE6EEEEENS_9allocatorIS7_EEEC2B8ne200100IJNS_10shared_ptrIS6_EEES9_Li0EEES9_DpOT_, symObjAddr: 0x19E1C, symBinAddr: 0x1ED80, symSize: 0x4C }
  - { offset: 0x2739EA, size: 0x8, addend: 0x0, symName: __ZNSt3__120__shared_ptr_emplaceIN10reanimated3css30TransformOperationInterpolatorINS2_18ScaleOperationBaseILNS2_11TransformOpE6EEEEENS_9allocatorIS7_EEED1Ev, symObjAddr: 0x19E68, symBinAddr: 0x1EDCC, symSize: 0x14 }
  - { offset: 0x273A0E, size: 0x8, addend: 0x0, symName: __ZNSt3__120__shared_ptr_emplaceIN10reanimated3css30TransformOperationInterpolatorINS2_18ScaleOperationBaseILNS2_11TransformOpE6EEEEENS_9allocatorIS7_EEED1Ev, symObjAddr: 0x19E68, symBinAddr: 0x1EDCC, symSize: 0x14 }
  - { offset: 0x273A45, size: 0x8, addend: 0x0, symName: __ZNSt3__120__shared_ptr_emplaceIN10reanimated3css30TransformOperationInterpolatorINS2_18ScaleOperationBaseILNS2_11TransformOpE6EEEEENS_9allocatorIS7_EEED0Ev, symObjAddr: 0x19E7C, symBinAddr: 0x1EDE0, symSize: 0x24 }
  - { offset: 0x273B1B, size: 0x8, addend: 0x0, symName: __ZNSt3__120__shared_ptr_emplaceIN10reanimated3css30TransformOperationInterpolatorINS2_18ScaleOperationBaseILNS2_11TransformOpE6EEEEENS_9allocatorIS7_EEE16__on_zero_sharedEv, symObjAddr: 0x19EA0, symBinAddr: 0x1EE04, symSize: 0xC }
  - { offset: 0x273B45, size: 0x8, addend: 0x0, symName: __ZNSt3__120__shared_ptr_emplaceIN10reanimated3css30TransformOperationInterpolatorINS2_18ScaleOperationBaseILNS2_11TransformOpE6EEEEENS_9allocatorIS7_EEE16__on_zero_sharedEv, symObjAddr: 0x19EA0, symBinAddr: 0x1EE04, symSize: 0xC }
  - { offset: 0x273B64, size: 0x8, addend: 0x0, symName: __ZNSt3__120__shared_ptr_emplaceIN10reanimated3css30TransformOperationInterpolatorINS2_18ScaleOperationBaseILNS2_11TransformOpE6EEEEENS_9allocatorIS7_EEE16__on_zero_sharedEv, symObjAddr: 0x19EA0, symBinAddr: 0x1EE04, symSize: 0xC }
  - { offset: 0x273B83, size: 0x8, addend: 0x0, symName: __ZNSt3__120__shared_ptr_emplaceIN10reanimated3css30TransformOperationInterpolatorINS2_18ScaleOperationBaseILNS2_11TransformOpE6EEEEENS_9allocatorIS7_EEE16__on_zero_sharedEv, symObjAddr: 0x19EA0, symBinAddr: 0x1EE04, symSize: 0xC }
  - { offset: 0x273BAF, size: 0x8, addend: 0x0, symName: __ZNSt3__120__shared_ptr_emplaceIN10reanimated3css30TransformOperationInterpolatorINS2_18ScaleOperationBaseILNS2_11TransformOpE6EEEEENS_9allocatorIS7_EEE21__on_zero_shared_weakEv, symObjAddr: 0x19EAC, symBinAddr: 0x1EE10, symSize: 0x4 }
  - { offset: 0x273BE3, size: 0x8, addend: 0x0, symName: __ZNSt3__120__shared_ptr_emplaceIN10reanimated3css30TransformOperationInterpolatorINS2_18ScaleOperationBaseILNS2_11TransformOpE6EEEEENS_9allocatorIS7_EEE21__on_zero_shared_weakEv, symObjAddr: 0x19EAC, symBinAddr: 0x1EE10, symSize: 0x4 }
  - { offset: 0x273C07, size: 0x8, addend: 0x0, symName: __ZNSt3__120__shared_ptr_emplaceIN10reanimated3css30TransformOperationInterpolatorINS2_18ScaleOperationBaseILNS2_11TransformOpE6EEEEENS_9allocatorIS7_EEE21__on_zero_shared_weakEv, symObjAddr: 0x19EAC, symBinAddr: 0x1EE10, symSize: 0x4 }
  - { offset: 0x273C2C, size: 0x8, addend: 0x0, symName: __ZNSt3__120__shared_ptr_emplaceIN10reanimated3css30TransformOperationInterpolatorINS2_18ScaleOperationBaseILNS2_11TransformOpE6EEEEENS_9allocatorIS7_EEE21__on_zero_shared_weakEv, symObjAddr: 0x19EAC, symBinAddr: 0x1EE10, symSize: 0x4 }
  - { offset: 0x273C63, size: 0x8, addend: 0x0, symName: __ZNSt3__120__shared_ptr_emplaceIN10reanimated3css30TransformOperationInterpolatorINS2_18ScaleOperationBaseILNS2_11TransformOpE6EEEEENS_9allocatorIS7_EEE21__on_zero_shared_weakEv, symObjAddr: 0x19EAC, symBinAddr: 0x1EE10, symSize: 0x4 }
  - { offset: 0x273D02, size: 0x8, addend: 0x0, symName: __ZN10reanimated3css30TransformOperationInterpolatorINS0_18ScaleOperationBaseILNS0_11TransformOpE6EEEEC2ENSt3__110shared_ptrIS4_EE, symObjAddr: 0x19F38, symBinAddr: 0x1EE9C, symSize: 0xA4 }
  - { offset: 0x273FB5, size: 0x8, addend: 0x0, symName: __ZN10reanimated3css30TransformOperationInterpolatorINS0_18ScaleOperationBaseILNS0_11TransformOpE6EEEED1Ev, symObjAddr: 0x19FDC, symBinAddr: 0x1EF40, symSize: 0x34 }
  - { offset: 0x274060, size: 0x8, addend: 0x0, symName: __ZN10reanimated3css30TransformOperationInterpolatorINS0_18ScaleOperationBaseILNS0_11TransformOpE6EEEED0Ev, symObjAddr: 0x1A010, symBinAddr: 0x1EF74, symSize: 0x34 }
  - { offset: 0x274188, size: 0x8, addend: 0x0, symName: __ZNK10reanimated3css25TransformInterpolatorBaseINS0_18ScaleOperationBaseILNS0_11TransformOpE6EEEE19getDefaultOperationEv, symObjAddr: 0x1A044, symBinAddr: 0x1EFA8, symSize: 0x24 }
  - { offset: 0x2741B0, size: 0x8, addend: 0x0, symName: __ZNK10reanimated3css25TransformInterpolatorBaseINS0_18ScaleOperationBaseILNS0_11TransformOpE6EEEE19getDefaultOperationEv, symObjAddr: 0x1A044, symBinAddr: 0x1EFA8, symSize: 0x24 }
  - { offset: 0x2741DA, size: 0x8, addend: 0x0, symName: __ZNK10reanimated3css25TransformInterpolatorBaseINS0_18ScaleOperationBaseILNS0_11TransformOpE6EEEE19getDefaultOperationEv, symObjAddr: 0x1A044, symBinAddr: 0x1EFA8, symSize: 0x24 }
  - { offset: 0x274455, size: 0x8, addend: 0x0, symName: __ZNK10reanimated3css25TransformInterpolatorBaseINS0_18ScaleOperationBaseILNS0_11TransformOpE6EEEE11interpolateEdRKNSt3__110shared_ptrINS0_18TransformOperationEEESB_RKNS0_21TransformInterpolator13UpdateContextE, symObjAddr: 0x1A068, symBinAddr: 0x1EFCC, symSize: 0x158 }
  - { offset: 0x274BB7, size: 0x8, addend: 0x0, symName: __ZNK10reanimated3css25TransformInterpolatorBaseINS0_18ScaleOperationBaseILNS0_11TransformOpE6EEEE16resolveOperationERKNSt3__110shared_ptrINS0_18TransformOperationEEERKNS0_21TransformInterpolator13UpdateContextE, symObjAddr: 0x1A1C0, symBinAddr: 0x1F124, symSize: 0xF4 }
  - { offset: 0x27510A, size: 0x8, addend: 0x0, symName: __ZNK10reanimated3css30TransformOperationInterpolatorINS0_18ScaleOperationBaseILNS0_11TransformOpE6EEEE11interpolateEdRKS4_S7_RKNS0_21TransformInterpolator13UpdateContextE, symObjAddr: 0x1A2B4, symBinAddr: 0x1F218, symSize: 0x58 }
  - { offset: 0x275291, size: 0x8, addend: 0x0, symName: __ZNK10reanimated3css25TransformInterpolatorBaseINS0_18ScaleOperationBaseILNS0_11TransformOpE6EEEE16resolveOperationERKS4_RKNS0_21TransformInterpolator13UpdateContextE, symObjAddr: 0x1A30C, symBinAddr: 0x1F270, symSize: 0x28 }
  - { offset: 0x2752D7, size: 0x8, addend: 0x0, symName: __ZNK10reanimated3css25TransformInterpolatorBaseINS0_18ScaleOperationBaseILNS0_11TransformOpE6EEEE16resolveOperationERKS4_RKNS0_21TransformInterpolator13UpdateContextE, symObjAddr: 0x1A30C, symBinAddr: 0x1F270, symSize: 0x28 }
  - { offset: 0x2752FD, size: 0x8, addend: 0x0, symName: __ZNK10reanimated3css25TransformInterpolatorBaseINS0_18ScaleOperationBaseILNS0_11TransformOpE6EEEE16resolveOperationERKS4_RKNS0_21TransformInterpolator13UpdateContextE, symObjAddr: 0x1A30C, symBinAddr: 0x1F270, symSize: 0x28 }
  - { offset: 0x275385, size: 0x8, addend: 0x0, symName: __ZNK10reanimated3css25TransformInterpolatorBaseINS0_18ScaleOperationBaseILNS0_11TransformOpE6EEEE16resolveOperationERKS4_RKNS0_21TransformInterpolator13UpdateContextE, symObjAddr: 0x1A30C, symBinAddr: 0x1F270, symSize: 0x28 }
  - { offset: 0x2753B2, size: 0x8, addend: 0x0, symName: __ZN10reanimated3css25TransformInterpolatorBaseINS0_18ScaleOperationBaseILNS0_11TransformOpE6EEEED1Ev, symObjAddr: 0x1A334, symBinAddr: 0x12B8C0, symSize: 0x4 }
  - { offset: 0x2753DE, size: 0x8, addend: 0x0, symName: __ZN10reanimated3css25TransformInterpolatorBaseINS0_18ScaleOperationBaseILNS0_11TransformOpE6EEEED0Ev, symObjAddr: 0x1A338, symBinAddr: 0x12B8C4, symSize: 0x4 }
  - { offset: 0x2754FD, size: 0x8, addend: 0x0, symName: __ZNSt3__120__shared_ptr_emplaceIN10reanimated3css18ScaleOperationBaseILNS2_11TransformOpE6EEENS_9allocatorIS5_EEEC2B8ne200100IJRKiES7_Li0EEES7_DpOT_, symObjAddr: 0x1A394, symBinAddr: 0x1F2F0, symSize: 0x84 }
  - { offset: 0x275A55, size: 0x8, addend: 0x0, symName: __ZNSt3__120__shared_ptr_emplaceIN10reanimated3css30TransformOperationInterpolatorINS2_18ScaleOperationBaseILNS2_11TransformOpE7EEEEENS_9allocatorIS7_EEEC2B8ne200100IJNS_10shared_ptrIS6_EEES9_Li0EEES9_DpOT_, symObjAddr: 0x1A470, symBinAddr: 0x1F3CC, symSize: 0x4C }
  - { offset: 0x275BD3, size: 0x8, addend: 0x0, symName: __ZNSt3__120__shared_ptr_emplaceIN10reanimated3css30TransformOperationInterpolatorINS2_18ScaleOperationBaseILNS2_11TransformOpE7EEEEENS_9allocatorIS7_EEED1Ev, symObjAddr: 0x1A4BC, symBinAddr: 0x1F418, symSize: 0x14 }
  - { offset: 0x275BF7, size: 0x8, addend: 0x0, symName: __ZNSt3__120__shared_ptr_emplaceIN10reanimated3css30TransformOperationInterpolatorINS2_18ScaleOperationBaseILNS2_11TransformOpE7EEEEENS_9allocatorIS7_EEED1Ev, symObjAddr: 0x1A4BC, symBinAddr: 0x1F418, symSize: 0x14 }
  - { offset: 0x275C2E, size: 0x8, addend: 0x0, symName: __ZNSt3__120__shared_ptr_emplaceIN10reanimated3css30TransformOperationInterpolatorINS2_18ScaleOperationBaseILNS2_11TransformOpE7EEEEENS_9allocatorIS7_EEED0Ev, symObjAddr: 0x1A4D0, symBinAddr: 0x1F42C, symSize: 0x24 }
  - { offset: 0x275D04, size: 0x8, addend: 0x0, symName: __ZNSt3__120__shared_ptr_emplaceIN10reanimated3css30TransformOperationInterpolatorINS2_18ScaleOperationBaseILNS2_11TransformOpE7EEEEENS_9allocatorIS7_EEE16__on_zero_sharedEv, symObjAddr: 0x1A4F4, symBinAddr: 0x1F450, symSize: 0xC }
  - { offset: 0x275D2E, size: 0x8, addend: 0x0, symName: __ZNSt3__120__shared_ptr_emplaceIN10reanimated3css30TransformOperationInterpolatorINS2_18ScaleOperationBaseILNS2_11TransformOpE7EEEEENS_9allocatorIS7_EEE16__on_zero_sharedEv, symObjAddr: 0x1A4F4, symBinAddr: 0x1F450, symSize: 0xC }
  - { offset: 0x275D4D, size: 0x8, addend: 0x0, symName: __ZNSt3__120__shared_ptr_emplaceIN10reanimated3css30TransformOperationInterpolatorINS2_18ScaleOperationBaseILNS2_11TransformOpE7EEEEENS_9allocatorIS7_EEE16__on_zero_sharedEv, symObjAddr: 0x1A4F4, symBinAddr: 0x1F450, symSize: 0xC }
  - { offset: 0x275D6C, size: 0x8, addend: 0x0, symName: __ZNSt3__120__shared_ptr_emplaceIN10reanimated3css30TransformOperationInterpolatorINS2_18ScaleOperationBaseILNS2_11TransformOpE7EEEEENS_9allocatorIS7_EEE16__on_zero_sharedEv, symObjAddr: 0x1A4F4, symBinAddr: 0x1F450, symSize: 0xC }
  - { offset: 0x275D98, size: 0x8, addend: 0x0, symName: __ZNSt3__120__shared_ptr_emplaceIN10reanimated3css30TransformOperationInterpolatorINS2_18ScaleOperationBaseILNS2_11TransformOpE7EEEEENS_9allocatorIS7_EEE21__on_zero_shared_weakEv, symObjAddr: 0x1A500, symBinAddr: 0x1F45C, symSize: 0x4 }
  - { offset: 0x275DCC, size: 0x8, addend: 0x0, symName: __ZNSt3__120__shared_ptr_emplaceIN10reanimated3css30TransformOperationInterpolatorINS2_18ScaleOperationBaseILNS2_11TransformOpE7EEEEENS_9allocatorIS7_EEE21__on_zero_shared_weakEv, symObjAddr: 0x1A500, symBinAddr: 0x1F45C, symSize: 0x4 }
  - { offset: 0x275DF0, size: 0x8, addend: 0x0, symName: __ZNSt3__120__shared_ptr_emplaceIN10reanimated3css30TransformOperationInterpolatorINS2_18ScaleOperationBaseILNS2_11TransformOpE7EEEEENS_9allocatorIS7_EEE21__on_zero_shared_weakEv, symObjAddr: 0x1A500, symBinAddr: 0x1F45C, symSize: 0x4 }
  - { offset: 0x275E15, size: 0x8, addend: 0x0, symName: __ZNSt3__120__shared_ptr_emplaceIN10reanimated3css30TransformOperationInterpolatorINS2_18ScaleOperationBaseILNS2_11TransformOpE7EEEEENS_9allocatorIS7_EEE21__on_zero_shared_weakEv, symObjAddr: 0x1A500, symBinAddr: 0x1F45C, symSize: 0x4 }
  - { offset: 0x275E4C, size: 0x8, addend: 0x0, symName: __ZNSt3__120__shared_ptr_emplaceIN10reanimated3css30TransformOperationInterpolatorINS2_18ScaleOperationBaseILNS2_11TransformOpE7EEEEENS_9allocatorIS7_EEE21__on_zero_shared_weakEv, symObjAddr: 0x1A500, symBinAddr: 0x1F45C, symSize: 0x4 }
  - { offset: 0x275EEB, size: 0x8, addend: 0x0, symName: __ZN10reanimated3css30TransformOperationInterpolatorINS0_18ScaleOperationBaseILNS0_11TransformOpE7EEEEC2ENSt3__110shared_ptrIS4_EE, symObjAddr: 0x1A58C, symBinAddr: 0x1F4E8, symSize: 0xA4 }
  - { offset: 0x27619E, size: 0x8, addend: 0x0, symName: __ZN10reanimated3css30TransformOperationInterpolatorINS0_18ScaleOperationBaseILNS0_11TransformOpE7EEEED1Ev, symObjAddr: 0x1A630, symBinAddr: 0x1F58C, symSize: 0x34 }
  - { offset: 0x276249, size: 0x8, addend: 0x0, symName: __ZN10reanimated3css30TransformOperationInterpolatorINS0_18ScaleOperationBaseILNS0_11TransformOpE7EEEED0Ev, symObjAddr: 0x1A664, symBinAddr: 0x1F5C0, symSize: 0x34 }
  - { offset: 0x276371, size: 0x8, addend: 0x0, symName: __ZNK10reanimated3css25TransformInterpolatorBaseINS0_18ScaleOperationBaseILNS0_11TransformOpE7EEEE19getDefaultOperationEv, symObjAddr: 0x1A698, symBinAddr: 0x1F5F4, symSize: 0x24 }
  - { offset: 0x276399, size: 0x8, addend: 0x0, symName: __ZNK10reanimated3css25TransformInterpolatorBaseINS0_18ScaleOperationBaseILNS0_11TransformOpE7EEEE19getDefaultOperationEv, symObjAddr: 0x1A698, symBinAddr: 0x1F5F4, symSize: 0x24 }
  - { offset: 0x2763C3, size: 0x8, addend: 0x0, symName: __ZNK10reanimated3css25TransformInterpolatorBaseINS0_18ScaleOperationBaseILNS0_11TransformOpE7EEEE19getDefaultOperationEv, symObjAddr: 0x1A698, symBinAddr: 0x1F5F4, symSize: 0x24 }
  - { offset: 0x27663E, size: 0x8, addend: 0x0, symName: __ZNK10reanimated3css25TransformInterpolatorBaseINS0_18ScaleOperationBaseILNS0_11TransformOpE7EEEE11interpolateEdRKNSt3__110shared_ptrINS0_18TransformOperationEEESB_RKNS0_21TransformInterpolator13UpdateContextE, symObjAddr: 0x1A6BC, symBinAddr: 0x1F618, symSize: 0x158 }
  - { offset: 0x276DA0, size: 0x8, addend: 0x0, symName: __ZNK10reanimated3css25TransformInterpolatorBaseINS0_18ScaleOperationBaseILNS0_11TransformOpE7EEEE16resolveOperationERKNSt3__110shared_ptrINS0_18TransformOperationEEERKNS0_21TransformInterpolator13UpdateContextE, symObjAddr: 0x1A814, symBinAddr: 0x1F770, symSize: 0xF4 }
  - { offset: 0x2772F3, size: 0x8, addend: 0x0, symName: __ZNK10reanimated3css30TransformOperationInterpolatorINS0_18ScaleOperationBaseILNS0_11TransformOpE7EEEE11interpolateEdRKS4_S7_RKNS0_21TransformInterpolator13UpdateContextE, symObjAddr: 0x1A908, symBinAddr: 0x1F864, symSize: 0x58 }
  - { offset: 0x27747A, size: 0x8, addend: 0x0, symName: __ZNK10reanimated3css25TransformInterpolatorBaseINS0_18ScaleOperationBaseILNS0_11TransformOpE7EEEE16resolveOperationERKS4_RKNS0_21TransformInterpolator13UpdateContextE, symObjAddr: 0x1A960, symBinAddr: 0x1F8BC, symSize: 0x28 }
  - { offset: 0x2774C0, size: 0x8, addend: 0x0, symName: __ZNK10reanimated3css25TransformInterpolatorBaseINS0_18ScaleOperationBaseILNS0_11TransformOpE7EEEE16resolveOperationERKS4_RKNS0_21TransformInterpolator13UpdateContextE, symObjAddr: 0x1A960, symBinAddr: 0x1F8BC, symSize: 0x28 }
  - { offset: 0x2774E6, size: 0x8, addend: 0x0, symName: __ZNK10reanimated3css25TransformInterpolatorBaseINS0_18ScaleOperationBaseILNS0_11TransformOpE7EEEE16resolveOperationERKS4_RKNS0_21TransformInterpolator13UpdateContextE, symObjAddr: 0x1A960, symBinAddr: 0x1F8BC, symSize: 0x28 }
  - { offset: 0x27756E, size: 0x8, addend: 0x0, symName: __ZNK10reanimated3css25TransformInterpolatorBaseINS0_18ScaleOperationBaseILNS0_11TransformOpE7EEEE16resolveOperationERKS4_RKNS0_21TransformInterpolator13UpdateContextE, symObjAddr: 0x1A960, symBinAddr: 0x1F8BC, symSize: 0x28 }
  - { offset: 0x27759B, size: 0x8, addend: 0x0, symName: __ZN10reanimated3css25TransformInterpolatorBaseINS0_18ScaleOperationBaseILNS0_11TransformOpE7EEEED1Ev, symObjAddr: 0x1A988, symBinAddr: 0x12B8C8, symSize: 0x4 }
  - { offset: 0x2775C7, size: 0x8, addend: 0x0, symName: __ZN10reanimated3css25TransformInterpolatorBaseINS0_18ScaleOperationBaseILNS0_11TransformOpE7EEEED0Ev, symObjAddr: 0x1A98C, symBinAddr: 0x12B8CC, symSize: 0x4 }
  - { offset: 0x2776E6, size: 0x8, addend: 0x0, symName: __ZNSt3__120__shared_ptr_emplaceIN10reanimated3css18ScaleOperationBaseILNS2_11TransformOpE7EEENS_9allocatorIS5_EEEC2B8ne200100IJRKiES7_Li0EEES7_DpOT_, symObjAddr: 0x1A9E8, symBinAddr: 0x1F93C, symSize: 0x84 }
  - { offset: 0x277C62, size: 0x8, addend: 0x0, symName: __ZNSt3__120__shared_ptr_emplaceIN10reanimated3css30TransformOperationInterpolatorINS2_22TranslateOperationBaseILNS2_11TransformOpE8EEEEENS_9allocatorIS7_EEEC2B8ne200100IJNS_10shared_ptrIS6_EERNS2_10RelativeToERKNS_12basic_stringIcNS_11char_traitsIcEENS8_IcEEEEES9_Li0EEES9_DpOT_, symObjAddr: 0x1AADC, symBinAddr: 0x1FA30, symSize: 0x50 }
  - { offset: 0x277EE3, size: 0x8, addend: 0x0, symName: __ZN10reanimated3css30TransformOperationInterpolatorINS0_22TranslateOperationBaseILNS0_11TransformOpE8EEEEC2ERKNSt3__110shared_ptrIS4_EENS0_10RelativeToERKNS6_12basic_stringIcNS6_11char_traitsIcEENS6_9allocatorIcEEEE, symObjAddr: 0x1AB74, symBinAddr: 0x1FAC8, symSize: 0x12C }
  - { offset: 0x2781F6, size: 0x8, addend: 0x0, symName: __ZNSt3__120__shared_ptr_emplaceIN10reanimated3css30TransformOperationInterpolatorINS2_22TranslateOperationBaseILNS2_11TransformOpE8EEEEENS_9allocatorIS7_EEED1Ev, symObjAddr: 0x1AB2C, symBinAddr: 0x1FA80, symSize: 0x14 }
  - { offset: 0x27821A, size: 0x8, addend: 0x0, symName: __ZNSt3__120__shared_ptr_emplaceIN10reanimated3css30TransformOperationInterpolatorINS2_22TranslateOperationBaseILNS2_11TransformOpE8EEEEENS_9allocatorIS7_EEED1Ev, symObjAddr: 0x1AB2C, symBinAddr: 0x1FA80, symSize: 0x14 }
  - { offset: 0x278251, size: 0x8, addend: 0x0, symName: __ZNSt3__120__shared_ptr_emplaceIN10reanimated3css30TransformOperationInterpolatorINS2_22TranslateOperationBaseILNS2_11TransformOpE8EEEEENS_9allocatorIS7_EEED0Ev, symObjAddr: 0x1AB40, symBinAddr: 0x1FA94, symSize: 0x24 }
  - { offset: 0x278327, size: 0x8, addend: 0x0, symName: __ZNSt3__120__shared_ptr_emplaceIN10reanimated3css30TransformOperationInterpolatorINS2_22TranslateOperationBaseILNS2_11TransformOpE8EEEEENS_9allocatorIS7_EEE16__on_zero_sharedEv, symObjAddr: 0x1AB64, symBinAddr: 0x1FAB8, symSize: 0xC }
  - { offset: 0x278351, size: 0x8, addend: 0x0, symName: __ZNSt3__120__shared_ptr_emplaceIN10reanimated3css30TransformOperationInterpolatorINS2_22TranslateOperationBaseILNS2_11TransformOpE8EEEEENS_9allocatorIS7_EEE16__on_zero_sharedEv, symObjAddr: 0x1AB64, symBinAddr: 0x1FAB8, symSize: 0xC }
  - { offset: 0x278370, size: 0x8, addend: 0x0, symName: __ZNSt3__120__shared_ptr_emplaceIN10reanimated3css30TransformOperationInterpolatorINS2_22TranslateOperationBaseILNS2_11TransformOpE8EEEEENS_9allocatorIS7_EEE16__on_zero_sharedEv, symObjAddr: 0x1AB64, symBinAddr: 0x1FAB8, symSize: 0xC }
  - { offset: 0x27838F, size: 0x8, addend: 0x0, symName: __ZNSt3__120__shared_ptr_emplaceIN10reanimated3css30TransformOperationInterpolatorINS2_22TranslateOperationBaseILNS2_11TransformOpE8EEEEENS_9allocatorIS7_EEE16__on_zero_sharedEv, symObjAddr: 0x1AB64, symBinAddr: 0x1FAB8, symSize: 0xC }
  - { offset: 0x2783BB, size: 0x8, addend: 0x0, symName: __ZNSt3__120__shared_ptr_emplaceIN10reanimated3css30TransformOperationInterpolatorINS2_22TranslateOperationBaseILNS2_11TransformOpE8EEEEENS_9allocatorIS7_EEE21__on_zero_shared_weakEv, symObjAddr: 0x1AB70, symBinAddr: 0x1FAC4, symSize: 0x4 }
  - { offset: 0x2783EF, size: 0x8, addend: 0x0, symName: __ZNSt3__120__shared_ptr_emplaceIN10reanimated3css30TransformOperationInterpolatorINS2_22TranslateOperationBaseILNS2_11TransformOpE8EEEEENS_9allocatorIS7_EEE21__on_zero_shared_weakEv, symObjAddr: 0x1AB70, symBinAddr: 0x1FAC4, symSize: 0x4 }
  - { offset: 0x278413, size: 0x8, addend: 0x0, symName: __ZNSt3__120__shared_ptr_emplaceIN10reanimated3css30TransformOperationInterpolatorINS2_22TranslateOperationBaseILNS2_11TransformOpE8EEEEENS_9allocatorIS7_EEE21__on_zero_shared_weakEv, symObjAddr: 0x1AB70, symBinAddr: 0x1FAC4, symSize: 0x4 }
  - { offset: 0x278438, size: 0x8, addend: 0x0, symName: __ZNSt3__120__shared_ptr_emplaceIN10reanimated3css30TransformOperationInterpolatorINS2_22TranslateOperationBaseILNS2_11TransformOpE8EEEEENS_9allocatorIS7_EEE21__on_zero_shared_weakEv, symObjAddr: 0x1AB70, symBinAddr: 0x1FAC4, symSize: 0x4 }
  - { offset: 0x27846F, size: 0x8, addend: 0x0, symName: __ZNSt3__120__shared_ptr_emplaceIN10reanimated3css30TransformOperationInterpolatorINS2_22TranslateOperationBaseILNS2_11TransformOpE8EEEEENS_9allocatorIS7_EEE21__on_zero_shared_weakEv, symObjAddr: 0x1AB70, symBinAddr: 0x1FAC4, symSize: 0x4 }
  - { offset: 0x27854D, size: 0x8, addend: 0x0, symName: __ZN10reanimated3css30TransformOperationInterpolatorINS0_22TranslateOperationBaseILNS0_11TransformOpE8EEEED1Ev, symObjAddr: 0x1ACA0, symBinAddr: 0x1FBF4, symSize: 0x58 }
  - { offset: 0x278712, size: 0x8, addend: 0x0, symName: __ZN10reanimated3css30TransformOperationInterpolatorINS0_22TranslateOperationBaseILNS0_11TransformOpE8EEEED0Ev, symObjAddr: 0x1ACF8, symBinAddr: 0x1FC4C, symSize: 0x58 }
  - { offset: 0x278954, size: 0x8, addend: 0x0, symName: __ZNK10reanimated3css25TransformInterpolatorBaseINS0_22TranslateOperationBaseILNS0_11TransformOpE8EEEE19getDefaultOperationEv, symObjAddr: 0x1AD50, symBinAddr: 0x1FCA4, symSize: 0x24 }
  - { offset: 0x27897C, size: 0x8, addend: 0x0, symName: __ZNK10reanimated3css25TransformInterpolatorBaseINS0_22TranslateOperationBaseILNS0_11TransformOpE8EEEE19getDefaultOperationEv, symObjAddr: 0x1AD50, symBinAddr: 0x1FCA4, symSize: 0x24 }
  - { offset: 0x2789A6, size: 0x8, addend: 0x0, symName: __ZNK10reanimated3css25TransformInterpolatorBaseINS0_22TranslateOperationBaseILNS0_11TransformOpE8EEEE19getDefaultOperationEv, symObjAddr: 0x1AD50, symBinAddr: 0x1FCA4, symSize: 0x24 }
  - { offset: 0x278DA2, size: 0x8, addend: 0x0, symName: __ZNK10reanimated3css25TransformInterpolatorBaseINS0_22TranslateOperationBaseILNS0_11TransformOpE8EEEE11interpolateEdRKNSt3__110shared_ptrINS0_18TransformOperationEEESB_RKNS0_21TransformInterpolator13UpdateContextE, symObjAddr: 0x1AD74, symBinAddr: 0x1FCC8, symSize: 0x15C }
  - { offset: 0x2794C5, size: 0x8, addend: 0x0, symName: __ZNK10reanimated3css25TransformInterpolatorBaseINS0_22TranslateOperationBaseILNS0_11TransformOpE8EEEE16resolveOperationERKNSt3__110shared_ptrINS0_18TransformOperationEEERKNS0_21TransformInterpolator13UpdateContextE, symObjAddr: 0x1AED0, symBinAddr: 0x1FE24, symSize: 0xF8 }
  - { offset: 0x279A6E, size: 0x8, addend: 0x0, symName: __ZNK10reanimated3css30TransformOperationInterpolatorINS0_22TranslateOperationBaseILNS0_11TransformOpE8EEEE11interpolateEdRKS4_S7_RKNS0_21TransformInterpolator13UpdateContextE, symObjAddr: 0x1AFC8, symBinAddr: 0x1FF1C, symSize: 0x7C }
  - { offset: 0x279C07, size: 0x8, addend: 0x0, symName: __ZNK10reanimated3css30TransformOperationInterpolatorINS0_22TranslateOperationBaseILNS0_11TransformOpE8EEEE16resolveOperationERKS4_RKNS0_21TransformInterpolator13UpdateContextE, symObjAddr: 0x1B044, symBinAddr: 0x1FF98, symSize: 0x98 }
  - { offset: 0x279DF8, size: 0x8, addend: 0x0, symName: __ZN10reanimated3css25TransformInterpolatorBaseINS0_22TranslateOperationBaseILNS0_11TransformOpE8EEEED1Ev, symObjAddr: 0x1B0DC, symBinAddr: 0x12B8D0, symSize: 0x4 }
  - { offset: 0x279E24, size: 0x8, addend: 0x0, symName: __ZN10reanimated3css25TransformInterpolatorBaseINS0_22TranslateOperationBaseILNS0_11TransformOpE8EEEED0Ev, symObjAddr: 0x1B0E0, symBinAddr: 0x12B8D4, symSize: 0x4 }
  - { offset: 0x279E94, size: 0x8, addend: 0x0, symName: __ZNK10reanimated3css25TransformInterpolatorBaseINS0_22TranslateOperationBaseILNS0_11TransformOpE8EEEE16resolveOperationERKS4_RKNS0_21TransformInterpolator13UpdateContextE, symObjAddr: 0x1B0E4, symBinAddr: 0x20030, symSize: 0x30 }
  - { offset: 0x279EDA, size: 0x8, addend: 0x0, symName: __ZNK10reanimated3css25TransformInterpolatorBaseINS0_22TranslateOperationBaseILNS0_11TransformOpE8EEEE16resolveOperationERKS4_RKNS0_21TransformInterpolator13UpdateContextE, symObjAddr: 0x1B0E4, symBinAddr: 0x20030, symSize: 0x30 }
  - { offset: 0x279F00, size: 0x8, addend: 0x0, symName: __ZNK10reanimated3css25TransformInterpolatorBaseINS0_22TranslateOperationBaseILNS0_11TransformOpE8EEEE16resolveOperationERKS4_RKNS0_21TransformInterpolator13UpdateContextE, symObjAddr: 0x1B0E4, symBinAddr: 0x20030, symSize: 0x30 }
  - { offset: 0x279F8A, size: 0x8, addend: 0x0, symName: __ZNK10reanimated3css22TransformOperationBaseILNS0_11TransformOpE8ENS0_9CSSLengthEEeqERKNS0_18TransformOperationE, symObjAddr: 0x1B114, symBinAddr: 0x20060, symSize: 0x6C }
  - { offset: 0x279FFC, size: 0x8, addend: 0x0, symName: __ZNK10reanimated3css22TransformOperationBaseILNS0_11TransformOpE8ENS0_9CSSLengthEE4typeEv, symObjAddr: 0x1B180, symBinAddr: 0x200CC, symSize: 0x8 }
  - { offset: 0x27A023, size: 0x8, addend: 0x0, symName: __ZNK10reanimated3css22TranslateOperationBaseILNS0_11TransformOpE8EE10isRelativeEv, symObjAddr: 0x1B188, symBinAddr: 0x200D4, symSize: 0x8 }
  - { offset: 0x27A04A, size: 0x8, addend: 0x0, symName: __ZNK10reanimated3css22TranslateOperationBaseILNS0_11TransformOpE8EE14valueToDynamicEv, symObjAddr: 0x1B190, symBinAddr: 0x200DC, symSize: 0x8 }
  - { offset: 0x27A071, size: 0x8, addend: 0x0, symName: __ZNK10reanimated3css22TranslateOperationBaseILNS0_11TransformOpE8EE8toMatrixEv, symObjAddr: 0x1B198, symBinAddr: 0x200E4, symSize: 0x6C }
  - { offset: 0x27A0A6, size: 0x8, addend: 0x0, symName: __ZNSt16invalid_argumentC1B8ne200100EPKc, symObjAddr: 0x1B20C, symBinAddr: 0x20158, symSize: 0x24 }
  - { offset: 0x27A109, size: 0x8, addend: 0x0, symName: __ZN10reanimated3css22TranslateOperationBaseILNS0_11TransformOpE8EED1Ev, symObjAddr: 0x1B204, symBinAddr: 0x20150, symSize: 0x4 }
  - { offset: 0x27A135, size: 0x8, addend: 0x0, symName: __ZN10reanimated3css22TranslateOperationBaseILNS0_11TransformOpE8EED0Ev, symObjAddr: 0x1B208, symBinAddr: 0x20154, symSize: 0x4 }
  - { offset: 0x27A1A9, size: 0x8, addend: 0x0, symName: __ZNSt3__120__shared_ptr_emplaceIN10reanimated3css22TranslateOperationBaseILNS2_11TransformOpE8EEENS_9allocatorIS5_EEED1Ev, symObjAddr: 0x1B230, symBinAddr: 0x2017C, symSize: 0x14 }
  - { offset: 0x27A1CD, size: 0x8, addend: 0x0, symName: __ZNSt3__120__shared_ptr_emplaceIN10reanimated3css22TranslateOperationBaseILNS2_11TransformOpE8EEENS_9allocatorIS5_EEED1Ev, symObjAddr: 0x1B230, symBinAddr: 0x2017C, symSize: 0x14 }
  - { offset: 0x27A204, size: 0x8, addend: 0x0, symName: __ZNSt3__120__shared_ptr_emplaceIN10reanimated3css22TranslateOperationBaseILNS2_11TransformOpE8EEENS_9allocatorIS5_EEED0Ev, symObjAddr: 0x1B244, symBinAddr: 0x20190, symSize: 0x24 }
  - { offset: 0x27A2DA, size: 0x8, addend: 0x0, symName: __ZNSt3__120__shared_ptr_emplaceIN10reanimated3css22TranslateOperationBaseILNS2_11TransformOpE8EEENS_9allocatorIS5_EEE16__on_zero_sharedEv, symObjAddr: 0x1B268, symBinAddr: 0x201B4, symSize: 0xC }
  - { offset: 0x27A304, size: 0x8, addend: 0x0, symName: __ZNSt3__120__shared_ptr_emplaceIN10reanimated3css22TranslateOperationBaseILNS2_11TransformOpE8EEENS_9allocatorIS5_EEE16__on_zero_sharedEv, symObjAddr: 0x1B268, symBinAddr: 0x201B4, symSize: 0xC }
  - { offset: 0x27A323, size: 0x8, addend: 0x0, symName: __ZNSt3__120__shared_ptr_emplaceIN10reanimated3css22TranslateOperationBaseILNS2_11TransformOpE8EEENS_9allocatorIS5_EEE16__on_zero_sharedEv, symObjAddr: 0x1B268, symBinAddr: 0x201B4, symSize: 0xC }
  - { offset: 0x27A342, size: 0x8, addend: 0x0, symName: __ZNSt3__120__shared_ptr_emplaceIN10reanimated3css22TranslateOperationBaseILNS2_11TransformOpE8EEENS_9allocatorIS5_EEE16__on_zero_sharedEv, symObjAddr: 0x1B268, symBinAddr: 0x201B4, symSize: 0xC }
  - { offset: 0x27A3D0, size: 0x8, addend: 0x0, symName: __ZNSt3__120__shared_ptr_emplaceIN10reanimated3css22TranslateOperationBaseILNS2_11TransformOpE8EEENS_9allocatorIS5_EEE21__on_zero_shared_weakEv, symObjAddr: 0x1B274, symBinAddr: 0x201C0, symSize: 0x4 }
  - { offset: 0x27A404, size: 0x8, addend: 0x0, symName: __ZNSt3__120__shared_ptr_emplaceIN10reanimated3css22TranslateOperationBaseILNS2_11TransformOpE8EEENS_9allocatorIS5_EEE21__on_zero_shared_weakEv, symObjAddr: 0x1B274, symBinAddr: 0x201C0, symSize: 0x4 }
  - { offset: 0x27A428, size: 0x8, addend: 0x0, symName: __ZNSt3__120__shared_ptr_emplaceIN10reanimated3css22TranslateOperationBaseILNS2_11TransformOpE8EEENS_9allocatorIS5_EEE21__on_zero_shared_weakEv, symObjAddr: 0x1B274, symBinAddr: 0x201C0, symSize: 0x4 }
  - { offset: 0x27A44D, size: 0x8, addend: 0x0, symName: __ZNSt3__120__shared_ptr_emplaceIN10reanimated3css22TranslateOperationBaseILNS2_11TransformOpE8EEENS_9allocatorIS5_EEE21__on_zero_shared_weakEv, symObjAddr: 0x1B274, symBinAddr: 0x201C0, symSize: 0x4 }
  - { offset: 0x27A484, size: 0x8, addend: 0x0, symName: __ZNSt3__120__shared_ptr_emplaceIN10reanimated3css22TranslateOperationBaseILNS2_11TransformOpE8EEENS_9allocatorIS5_EEE21__on_zero_shared_weakEv, symObjAddr: 0x1B274, symBinAddr: 0x201C0, symSize: 0x4 }
  - { offset: 0x27A5A1, size: 0x8, addend: 0x0, symName: __ZNSt3__120__shared_ptr_emplaceIN10reanimated3css22TranslateOperationBaseILNS2_11TransformOpE8EEENS_9allocatorIS5_EEEC2B8ne200100IJRKiES7_Li0EEES7_DpOT_, symObjAddr: 0x1B2D0, symBinAddr: 0x2021C, symSize: 0x8C }
  - { offset: 0x27AA5C, size: 0x8, addend: 0x0, symName: __ZNSt3__120__shared_ptr_emplaceIN10reanimated3css30TransformOperationInterpolatorINS2_22TranslateOperationBaseILNS2_11TransformOpE9EEEEENS_9allocatorIS7_EEEC2B8ne200100IJNS_10shared_ptrIS6_EERNS2_10RelativeToERKNS_12basic_stringIcNS_11char_traitsIcEENS8_IcEEEEES9_Li0EEES9_DpOT_, symObjAddr: 0x1B424, symBinAddr: 0x20318, symSize: 0x50 }
  - { offset: 0x27ACDD, size: 0x8, addend: 0x0, symName: __ZN10reanimated3css30TransformOperationInterpolatorINS0_22TranslateOperationBaseILNS0_11TransformOpE9EEEEC2ERKNSt3__110shared_ptrIS4_EENS0_10RelativeToERKNS6_12basic_stringIcNS6_11char_traitsIcEENS6_9allocatorIcEEEE, symObjAddr: 0x1B4BC, symBinAddr: 0x203B0, symSize: 0x12C }
  - { offset: 0x27AFF0, size: 0x8, addend: 0x0, symName: __ZNSt3__120__shared_ptr_emplaceIN10reanimated3css30TransformOperationInterpolatorINS2_22TranslateOperationBaseILNS2_11TransformOpE9EEEEENS_9allocatorIS7_EEED1Ev, symObjAddr: 0x1B474, symBinAddr: 0x20368, symSize: 0x14 }
  - { offset: 0x27B014, size: 0x8, addend: 0x0, symName: __ZNSt3__120__shared_ptr_emplaceIN10reanimated3css30TransformOperationInterpolatorINS2_22TranslateOperationBaseILNS2_11TransformOpE9EEEEENS_9allocatorIS7_EEED1Ev, symObjAddr: 0x1B474, symBinAddr: 0x20368, symSize: 0x14 }
  - { offset: 0x27B04B, size: 0x8, addend: 0x0, symName: __ZNSt3__120__shared_ptr_emplaceIN10reanimated3css30TransformOperationInterpolatorINS2_22TranslateOperationBaseILNS2_11TransformOpE9EEEEENS_9allocatorIS7_EEED0Ev, symObjAddr: 0x1B488, symBinAddr: 0x2037C, symSize: 0x24 }
  - { offset: 0x27B121, size: 0x8, addend: 0x0, symName: __ZNSt3__120__shared_ptr_emplaceIN10reanimated3css30TransformOperationInterpolatorINS2_22TranslateOperationBaseILNS2_11TransformOpE9EEEEENS_9allocatorIS7_EEE16__on_zero_sharedEv, symObjAddr: 0x1B4AC, symBinAddr: 0x203A0, symSize: 0xC }
  - { offset: 0x27B14B, size: 0x8, addend: 0x0, symName: __ZNSt3__120__shared_ptr_emplaceIN10reanimated3css30TransformOperationInterpolatorINS2_22TranslateOperationBaseILNS2_11TransformOpE9EEEEENS_9allocatorIS7_EEE16__on_zero_sharedEv, symObjAddr: 0x1B4AC, symBinAddr: 0x203A0, symSize: 0xC }
  - { offset: 0x27B16A, size: 0x8, addend: 0x0, symName: __ZNSt3__120__shared_ptr_emplaceIN10reanimated3css30TransformOperationInterpolatorINS2_22TranslateOperationBaseILNS2_11TransformOpE9EEEEENS_9allocatorIS7_EEE16__on_zero_sharedEv, symObjAddr: 0x1B4AC, symBinAddr: 0x203A0, symSize: 0xC }
  - { offset: 0x27B189, size: 0x8, addend: 0x0, symName: __ZNSt3__120__shared_ptr_emplaceIN10reanimated3css30TransformOperationInterpolatorINS2_22TranslateOperationBaseILNS2_11TransformOpE9EEEEENS_9allocatorIS7_EEE16__on_zero_sharedEv, symObjAddr: 0x1B4AC, symBinAddr: 0x203A0, symSize: 0xC }
  - { offset: 0x27B1B5, size: 0x8, addend: 0x0, symName: __ZNSt3__120__shared_ptr_emplaceIN10reanimated3css30TransformOperationInterpolatorINS2_22TranslateOperationBaseILNS2_11TransformOpE9EEEEENS_9allocatorIS7_EEE21__on_zero_shared_weakEv, symObjAddr: 0x1B4B8, symBinAddr: 0x203AC, symSize: 0x4 }
  - { offset: 0x27B1E9, size: 0x8, addend: 0x0, symName: __ZNSt3__120__shared_ptr_emplaceIN10reanimated3css30TransformOperationInterpolatorINS2_22TranslateOperationBaseILNS2_11TransformOpE9EEEEENS_9allocatorIS7_EEE21__on_zero_shared_weakEv, symObjAddr: 0x1B4B8, symBinAddr: 0x203AC, symSize: 0x4 }
  - { offset: 0x27B20D, size: 0x8, addend: 0x0, symName: __ZNSt3__120__shared_ptr_emplaceIN10reanimated3css30TransformOperationInterpolatorINS2_22TranslateOperationBaseILNS2_11TransformOpE9EEEEENS_9allocatorIS7_EEE21__on_zero_shared_weakEv, symObjAddr: 0x1B4B8, symBinAddr: 0x203AC, symSize: 0x4 }
  - { offset: 0x27B232, size: 0x8, addend: 0x0, symName: __ZNSt3__120__shared_ptr_emplaceIN10reanimated3css30TransformOperationInterpolatorINS2_22TranslateOperationBaseILNS2_11TransformOpE9EEEEENS_9allocatorIS7_EEE21__on_zero_shared_weakEv, symObjAddr: 0x1B4B8, symBinAddr: 0x203AC, symSize: 0x4 }
  - { offset: 0x27B269, size: 0x8, addend: 0x0, symName: __ZNSt3__120__shared_ptr_emplaceIN10reanimated3css30TransformOperationInterpolatorINS2_22TranslateOperationBaseILNS2_11TransformOpE9EEEEENS_9allocatorIS7_EEE21__on_zero_shared_weakEv, symObjAddr: 0x1B4B8, symBinAddr: 0x203AC, symSize: 0x4 }
  - { offset: 0x27B347, size: 0x8, addend: 0x0, symName: __ZN10reanimated3css30TransformOperationInterpolatorINS0_22TranslateOperationBaseILNS0_11TransformOpE9EEEED1Ev, symObjAddr: 0x1B5E8, symBinAddr: 0x204DC, symSize: 0x58 }
  - { offset: 0x27B50C, size: 0x8, addend: 0x0, symName: __ZN10reanimated3css30TransformOperationInterpolatorINS0_22TranslateOperationBaseILNS0_11TransformOpE9EEEED0Ev, symObjAddr: 0x1B640, symBinAddr: 0x20534, symSize: 0x58 }
  - { offset: 0x27B74E, size: 0x8, addend: 0x0, symName: __ZNK10reanimated3css25TransformInterpolatorBaseINS0_22TranslateOperationBaseILNS0_11TransformOpE9EEEE19getDefaultOperationEv, symObjAddr: 0x1B698, symBinAddr: 0x2058C, symSize: 0x24 }
  - { offset: 0x27B776, size: 0x8, addend: 0x0, symName: __ZNK10reanimated3css25TransformInterpolatorBaseINS0_22TranslateOperationBaseILNS0_11TransformOpE9EEEE19getDefaultOperationEv, symObjAddr: 0x1B698, symBinAddr: 0x2058C, symSize: 0x24 }
  - { offset: 0x27B7A0, size: 0x8, addend: 0x0, symName: __ZNK10reanimated3css25TransformInterpolatorBaseINS0_22TranslateOperationBaseILNS0_11TransformOpE9EEEE19getDefaultOperationEv, symObjAddr: 0x1B698, symBinAddr: 0x2058C, symSize: 0x24 }
  - { offset: 0x27BB9C, size: 0x8, addend: 0x0, symName: __ZNK10reanimated3css25TransformInterpolatorBaseINS0_22TranslateOperationBaseILNS0_11TransformOpE9EEEE11interpolateEdRKNSt3__110shared_ptrINS0_18TransformOperationEEESB_RKNS0_21TransformInterpolator13UpdateContextE, symObjAddr: 0x1B6BC, symBinAddr: 0x205B0, symSize: 0x15C }
  - { offset: 0x27C2BF, size: 0x8, addend: 0x0, symName: __ZNK10reanimated3css25TransformInterpolatorBaseINS0_22TranslateOperationBaseILNS0_11TransformOpE9EEEE16resolveOperationERKNSt3__110shared_ptrINS0_18TransformOperationEEERKNS0_21TransformInterpolator13UpdateContextE, symObjAddr: 0x1B818, symBinAddr: 0x2070C, symSize: 0xF8 }
  - { offset: 0x27C868, size: 0x8, addend: 0x0, symName: __ZNK10reanimated3css30TransformOperationInterpolatorINS0_22TranslateOperationBaseILNS0_11TransformOpE9EEEE11interpolateEdRKS4_S7_RKNS0_21TransformInterpolator13UpdateContextE, symObjAddr: 0x1B910, symBinAddr: 0x20804, symSize: 0x7C }
  - { offset: 0x27CA01, size: 0x8, addend: 0x0, symName: __ZNK10reanimated3css30TransformOperationInterpolatorINS0_22TranslateOperationBaseILNS0_11TransformOpE9EEEE16resolveOperationERKS4_RKNS0_21TransformInterpolator13UpdateContextE, symObjAddr: 0x1B98C, symBinAddr: 0x20880, symSize: 0x98 }
  - { offset: 0x27CBF2, size: 0x8, addend: 0x0, symName: __ZN10reanimated3css25TransformInterpolatorBaseINS0_22TranslateOperationBaseILNS0_11TransformOpE9EEEED1Ev, symObjAddr: 0x1BA24, symBinAddr: 0x12B8D8, symSize: 0x4 }
  - { offset: 0x27CC1E, size: 0x8, addend: 0x0, symName: __ZN10reanimated3css25TransformInterpolatorBaseINS0_22TranslateOperationBaseILNS0_11TransformOpE9EEEED0Ev, symObjAddr: 0x1BA28, symBinAddr: 0x12B8DC, symSize: 0x4 }
  - { offset: 0x27CC8E, size: 0x8, addend: 0x0, symName: __ZNK10reanimated3css25TransformInterpolatorBaseINS0_22TranslateOperationBaseILNS0_11TransformOpE9EEEE16resolveOperationERKS4_RKNS0_21TransformInterpolator13UpdateContextE, symObjAddr: 0x1BA2C, symBinAddr: 0x20918, symSize: 0x30 }
  - { offset: 0x27CCD4, size: 0x8, addend: 0x0, symName: __ZNK10reanimated3css25TransformInterpolatorBaseINS0_22TranslateOperationBaseILNS0_11TransformOpE9EEEE16resolveOperationERKS4_RKNS0_21TransformInterpolator13UpdateContextE, symObjAddr: 0x1BA2C, symBinAddr: 0x20918, symSize: 0x30 }
  - { offset: 0x27CCFA, size: 0x8, addend: 0x0, symName: __ZNK10reanimated3css25TransformInterpolatorBaseINS0_22TranslateOperationBaseILNS0_11TransformOpE9EEEE16resolveOperationERKS4_RKNS0_21TransformInterpolator13UpdateContextE, symObjAddr: 0x1BA2C, symBinAddr: 0x20918, symSize: 0x30 }
  - { offset: 0x27CD84, size: 0x8, addend: 0x0, symName: __ZNK10reanimated3css22TransformOperationBaseILNS0_11TransformOpE9ENS0_9CSSLengthEEeqERKNS0_18TransformOperationE, symObjAddr: 0x1BA5C, symBinAddr: 0x20948, symSize: 0x6C }
  - { offset: 0x27CDF6, size: 0x8, addend: 0x0, symName: __ZNK10reanimated3css22TransformOperationBaseILNS0_11TransformOpE9ENS0_9CSSLengthEE4typeEv, symObjAddr: 0x1BAC8, symBinAddr: 0x209B4, symSize: 0x8 }
  - { offset: 0x27CE1D, size: 0x8, addend: 0x0, symName: __ZNK10reanimated3css22TranslateOperationBaseILNS0_11TransformOpE9EE10isRelativeEv, symObjAddr: 0x1BAD0, symBinAddr: 0x209BC, symSize: 0x8 }
  - { offset: 0x27CE44, size: 0x8, addend: 0x0, symName: __ZNK10reanimated3css22TranslateOperationBaseILNS0_11TransformOpE9EE14valueToDynamicEv, symObjAddr: 0x1BAD8, symBinAddr: 0x209C4, symSize: 0x8 }
  - { offset: 0x27CE6B, size: 0x8, addend: 0x0, symName: __ZNK10reanimated3css22TranslateOperationBaseILNS0_11TransformOpE9EE8toMatrixEv, symObjAddr: 0x1BAE0, symBinAddr: 0x209CC, symSize: 0x6C }
  - { offset: 0x27CEA0, size: 0x8, addend: 0x0, symName: __ZN10reanimated3css22TranslateOperationBaseILNS0_11TransformOpE9EED1Ev, symObjAddr: 0x1BB4C, symBinAddr: 0x20A38, symSize: 0x4 }
  - { offset: 0x27CECC, size: 0x8, addend: 0x0, symName: __ZN10reanimated3css22TranslateOperationBaseILNS0_11TransformOpE9EED0Ev, symObjAddr: 0x1BB50, symBinAddr: 0x20A3C, symSize: 0x4 }
  - { offset: 0x27CF14, size: 0x8, addend: 0x0, symName: __ZNSt3__120__shared_ptr_emplaceIN10reanimated3css22TranslateOperationBaseILNS2_11TransformOpE9EEENS_9allocatorIS5_EEED1Ev, symObjAddr: 0x1BB54, symBinAddr: 0x20A40, symSize: 0x14 }
  - { offset: 0x27CF38, size: 0x8, addend: 0x0, symName: __ZNSt3__120__shared_ptr_emplaceIN10reanimated3css22TranslateOperationBaseILNS2_11TransformOpE9EEENS_9allocatorIS5_EEED1Ev, symObjAddr: 0x1BB54, symBinAddr: 0x20A40, symSize: 0x14 }
  - { offset: 0x27CF6F, size: 0x8, addend: 0x0, symName: __ZNSt3__120__shared_ptr_emplaceIN10reanimated3css22TranslateOperationBaseILNS2_11TransformOpE9EEENS_9allocatorIS5_EEED0Ev, symObjAddr: 0x1BB68, symBinAddr: 0x20A54, symSize: 0x24 }
  - { offset: 0x27D045, size: 0x8, addend: 0x0, symName: __ZNSt3__120__shared_ptr_emplaceIN10reanimated3css22TranslateOperationBaseILNS2_11TransformOpE9EEENS_9allocatorIS5_EEE16__on_zero_sharedEv, symObjAddr: 0x1BB8C, symBinAddr: 0x20A78, symSize: 0xC }
  - { offset: 0x27D06F, size: 0x8, addend: 0x0, symName: __ZNSt3__120__shared_ptr_emplaceIN10reanimated3css22TranslateOperationBaseILNS2_11TransformOpE9EEENS_9allocatorIS5_EEE16__on_zero_sharedEv, symObjAddr: 0x1BB8C, symBinAddr: 0x20A78, symSize: 0xC }
  - { offset: 0x27D08E, size: 0x8, addend: 0x0, symName: __ZNSt3__120__shared_ptr_emplaceIN10reanimated3css22TranslateOperationBaseILNS2_11TransformOpE9EEENS_9allocatorIS5_EEE16__on_zero_sharedEv, symObjAddr: 0x1BB8C, symBinAddr: 0x20A78, symSize: 0xC }
  - { offset: 0x27D0AD, size: 0x8, addend: 0x0, symName: __ZNSt3__120__shared_ptr_emplaceIN10reanimated3css22TranslateOperationBaseILNS2_11TransformOpE9EEENS_9allocatorIS5_EEE16__on_zero_sharedEv, symObjAddr: 0x1BB8C, symBinAddr: 0x20A78, symSize: 0xC }
  - { offset: 0x27D13B, size: 0x8, addend: 0x0, symName: __ZNSt3__120__shared_ptr_emplaceIN10reanimated3css22TranslateOperationBaseILNS2_11TransformOpE9EEENS_9allocatorIS5_EEE21__on_zero_shared_weakEv, symObjAddr: 0x1BB98, symBinAddr: 0x20A84, symSize: 0x4 }
  - { offset: 0x27D16F, size: 0x8, addend: 0x0, symName: __ZNSt3__120__shared_ptr_emplaceIN10reanimated3css22TranslateOperationBaseILNS2_11TransformOpE9EEENS_9allocatorIS5_EEE21__on_zero_shared_weakEv, symObjAddr: 0x1BB98, symBinAddr: 0x20A84, symSize: 0x4 }
  - { offset: 0x27D193, size: 0x8, addend: 0x0, symName: __ZNSt3__120__shared_ptr_emplaceIN10reanimated3css22TranslateOperationBaseILNS2_11TransformOpE9EEENS_9allocatorIS5_EEE21__on_zero_shared_weakEv, symObjAddr: 0x1BB98, symBinAddr: 0x20A84, symSize: 0x4 }
  - { offset: 0x27D1B8, size: 0x8, addend: 0x0, symName: __ZNSt3__120__shared_ptr_emplaceIN10reanimated3css22TranslateOperationBaseILNS2_11TransformOpE9EEENS_9allocatorIS5_EEE21__on_zero_shared_weakEv, symObjAddr: 0x1BB98, symBinAddr: 0x20A84, symSize: 0x4 }
  - { offset: 0x27D1EF, size: 0x8, addend: 0x0, symName: __ZNSt3__120__shared_ptr_emplaceIN10reanimated3css22TranslateOperationBaseILNS2_11TransformOpE9EEENS_9allocatorIS5_EEE21__on_zero_shared_weakEv, symObjAddr: 0x1BB98, symBinAddr: 0x20A84, symSize: 0x4 }
  - { offset: 0x27D30C, size: 0x8, addend: 0x0, symName: __ZNSt3__120__shared_ptr_emplaceIN10reanimated3css22TranslateOperationBaseILNS2_11TransformOpE9EEENS_9allocatorIS5_EEEC2B8ne200100IJRKiES7_Li0EEES7_DpOT_, symObjAddr: 0x1BBF4, symBinAddr: 0x20AE0, symSize: 0x8C }
  - { offset: 0x27D7A3, size: 0x8, addend: 0x0, symName: __ZNSt3__120__shared_ptr_emplaceIN10reanimated3css30TransformOperationInterpolatorINS2_17SkewOperationBaseILNS2_11TransformOpE10EEEEENS_9allocatorIS7_EEEC2B8ne200100IJNS_10shared_ptrIS6_EEES9_Li0EEES9_DpOT_, symObjAddr: 0x1BD30, symBinAddr: 0x20BC4, symSize: 0x4C }
  - { offset: 0x27D921, size: 0x8, addend: 0x0, symName: __ZNSt3__120__shared_ptr_emplaceIN10reanimated3css30TransformOperationInterpolatorINS2_17SkewOperationBaseILNS2_11TransformOpE10EEEEENS_9allocatorIS7_EEED1Ev, symObjAddr: 0x1BD7C, symBinAddr: 0x20C10, symSize: 0x14 }
  - { offset: 0x27D945, size: 0x8, addend: 0x0, symName: __ZNSt3__120__shared_ptr_emplaceIN10reanimated3css30TransformOperationInterpolatorINS2_17SkewOperationBaseILNS2_11TransformOpE10EEEEENS_9allocatorIS7_EEED1Ev, symObjAddr: 0x1BD7C, symBinAddr: 0x20C10, symSize: 0x14 }
  - { offset: 0x27D97C, size: 0x8, addend: 0x0, symName: __ZNSt3__120__shared_ptr_emplaceIN10reanimated3css30TransformOperationInterpolatorINS2_17SkewOperationBaseILNS2_11TransformOpE10EEEEENS_9allocatorIS7_EEED0Ev, symObjAddr: 0x1BD90, symBinAddr: 0x20C24, symSize: 0x24 }
  - { offset: 0x27DA52, size: 0x8, addend: 0x0, symName: __ZNSt3__120__shared_ptr_emplaceIN10reanimated3css30TransformOperationInterpolatorINS2_17SkewOperationBaseILNS2_11TransformOpE10EEEEENS_9allocatorIS7_EEE16__on_zero_sharedEv, symObjAddr: 0x1BDB4, symBinAddr: 0x20C48, symSize: 0xC }
  - { offset: 0x27DA7C, size: 0x8, addend: 0x0, symName: __ZNSt3__120__shared_ptr_emplaceIN10reanimated3css30TransformOperationInterpolatorINS2_17SkewOperationBaseILNS2_11TransformOpE10EEEEENS_9allocatorIS7_EEE16__on_zero_sharedEv, symObjAddr: 0x1BDB4, symBinAddr: 0x20C48, symSize: 0xC }
  - { offset: 0x27DA9B, size: 0x8, addend: 0x0, symName: __ZNSt3__120__shared_ptr_emplaceIN10reanimated3css30TransformOperationInterpolatorINS2_17SkewOperationBaseILNS2_11TransformOpE10EEEEENS_9allocatorIS7_EEE16__on_zero_sharedEv, symObjAddr: 0x1BDB4, symBinAddr: 0x20C48, symSize: 0xC }
  - { offset: 0x27DABA, size: 0x8, addend: 0x0, symName: __ZNSt3__120__shared_ptr_emplaceIN10reanimated3css30TransformOperationInterpolatorINS2_17SkewOperationBaseILNS2_11TransformOpE10EEEEENS_9allocatorIS7_EEE16__on_zero_sharedEv, symObjAddr: 0x1BDB4, symBinAddr: 0x20C48, symSize: 0xC }
  - { offset: 0x27DAE6, size: 0x8, addend: 0x0, symName: __ZNSt3__120__shared_ptr_emplaceIN10reanimated3css30TransformOperationInterpolatorINS2_17SkewOperationBaseILNS2_11TransformOpE10EEEEENS_9allocatorIS7_EEE21__on_zero_shared_weakEv, symObjAddr: 0x1BDC0, symBinAddr: 0x20C54, symSize: 0x4 }
  - { offset: 0x27DB1A, size: 0x8, addend: 0x0, symName: __ZNSt3__120__shared_ptr_emplaceIN10reanimated3css30TransformOperationInterpolatorINS2_17SkewOperationBaseILNS2_11TransformOpE10EEEEENS_9allocatorIS7_EEE21__on_zero_shared_weakEv, symObjAddr: 0x1BDC0, symBinAddr: 0x20C54, symSize: 0x4 }
  - { offset: 0x27DB3E, size: 0x8, addend: 0x0, symName: __ZNSt3__120__shared_ptr_emplaceIN10reanimated3css30TransformOperationInterpolatorINS2_17SkewOperationBaseILNS2_11TransformOpE10EEEEENS_9allocatorIS7_EEE21__on_zero_shared_weakEv, symObjAddr: 0x1BDC0, symBinAddr: 0x20C54, symSize: 0x4 }
  - { offset: 0x27DB63, size: 0x8, addend: 0x0, symName: __ZNSt3__120__shared_ptr_emplaceIN10reanimated3css30TransformOperationInterpolatorINS2_17SkewOperationBaseILNS2_11TransformOpE10EEEEENS_9allocatorIS7_EEE21__on_zero_shared_weakEv, symObjAddr: 0x1BDC0, symBinAddr: 0x20C54, symSize: 0x4 }
  - { offset: 0x27DB9A, size: 0x8, addend: 0x0, symName: __ZNSt3__120__shared_ptr_emplaceIN10reanimated3css30TransformOperationInterpolatorINS2_17SkewOperationBaseILNS2_11TransformOpE10EEEEENS_9allocatorIS7_EEE21__on_zero_shared_weakEv, symObjAddr: 0x1BDC0, symBinAddr: 0x20C54, symSize: 0x4 }
  - { offset: 0x27DC39, size: 0x8, addend: 0x0, symName: __ZN10reanimated3css30TransformOperationInterpolatorINS0_17SkewOperationBaseILNS0_11TransformOpE10EEEEC2ENSt3__110shared_ptrIS4_EE, symObjAddr: 0x1BE4C, symBinAddr: 0x20CE0, symSize: 0xA4 }
  - { offset: 0x27DEEC, size: 0x8, addend: 0x0, symName: __ZN10reanimated3css30TransformOperationInterpolatorINS0_17SkewOperationBaseILNS0_11TransformOpE10EEEED1Ev, symObjAddr: 0x1BEF0, symBinAddr: 0x20D84, symSize: 0x34 }
  - { offset: 0x27DF97, size: 0x8, addend: 0x0, symName: __ZN10reanimated3css30TransformOperationInterpolatorINS0_17SkewOperationBaseILNS0_11TransformOpE10EEEED0Ev, symObjAddr: 0x1BF24, symBinAddr: 0x20DB8, symSize: 0x34 }
  - { offset: 0x27E0BF, size: 0x8, addend: 0x0, symName: __ZNK10reanimated3css25TransformInterpolatorBaseINS0_17SkewOperationBaseILNS0_11TransformOpE10EEEE19getDefaultOperationEv, symObjAddr: 0x1BF58, symBinAddr: 0x20DEC, symSize: 0x24 }
  - { offset: 0x27E0E7, size: 0x8, addend: 0x0, symName: __ZNK10reanimated3css25TransformInterpolatorBaseINS0_17SkewOperationBaseILNS0_11TransformOpE10EEEE19getDefaultOperationEv, symObjAddr: 0x1BF58, symBinAddr: 0x20DEC, symSize: 0x24 }
  - { offset: 0x27E111, size: 0x8, addend: 0x0, symName: __ZNK10reanimated3css25TransformInterpolatorBaseINS0_17SkewOperationBaseILNS0_11TransformOpE10EEEE19getDefaultOperationEv, symObjAddr: 0x1BF58, symBinAddr: 0x20DEC, symSize: 0x24 }
  - { offset: 0x27E50D, size: 0x8, addend: 0x0, symName: __ZNK10reanimated3css25TransformInterpolatorBaseINS0_17SkewOperationBaseILNS0_11TransformOpE10EEEE11interpolateEdRKNSt3__110shared_ptrINS0_18TransformOperationEEESB_RKNS0_21TransformInterpolator13UpdateContextE, symObjAddr: 0x1BF7C, symBinAddr: 0x20E10, symSize: 0x158 }
  - { offset: 0x27EC42, size: 0x8, addend: 0x0, symName: __ZNK10reanimated3css25TransformInterpolatorBaseINS0_17SkewOperationBaseILNS0_11TransformOpE10EEEE16resolveOperationERKNSt3__110shared_ptrINS0_18TransformOperationEEERKNS0_21TransformInterpolator13UpdateContextE, symObjAddr: 0x1C0D4, symBinAddr: 0x20F68, symSize: 0xF4 }
  - { offset: 0x27F1D5, size: 0x8, addend: 0x0, symName: __ZNK10reanimated3css30TransformOperationInterpolatorINS0_17SkewOperationBaseILNS0_11TransformOpE10EEEE11interpolateEdRKS4_S7_RKNS0_21TransformInterpolator13UpdateContextE, symObjAddr: 0x1C1C8, symBinAddr: 0x2105C, symSize: 0x58 }
  - { offset: 0x27F333, size: 0x8, addend: 0x0, symName: __ZNK10reanimated3css25TransformInterpolatorBaseINS0_17SkewOperationBaseILNS0_11TransformOpE10EEEE16resolveOperationERKS4_RKNS0_21TransformInterpolator13UpdateContextE, symObjAddr: 0x1C220, symBinAddr: 0x210B4, symSize: 0x28 }
  - { offset: 0x27F379, size: 0x8, addend: 0x0, symName: __ZNK10reanimated3css25TransformInterpolatorBaseINS0_17SkewOperationBaseILNS0_11TransformOpE10EEEE16resolveOperationERKS4_RKNS0_21TransformInterpolator13UpdateContextE, symObjAddr: 0x1C220, symBinAddr: 0x210B4, symSize: 0x28 }
  - { offset: 0x27F39F, size: 0x8, addend: 0x0, symName: __ZNK10reanimated3css25TransformInterpolatorBaseINS0_17SkewOperationBaseILNS0_11TransformOpE10EEEE16resolveOperationERKS4_RKNS0_21TransformInterpolator13UpdateContextE, symObjAddr: 0x1C220, symBinAddr: 0x210B4, symSize: 0x28 }
  - { offset: 0x27F429, size: 0x8, addend: 0x0, symName: __ZN10reanimated3css25TransformInterpolatorBaseINS0_17SkewOperationBaseILNS0_11TransformOpE10EEEED1Ev, symObjAddr: 0x1C248, symBinAddr: 0x12B8E0, symSize: 0x4 }
  - { offset: 0x27F455, size: 0x8, addend: 0x0, symName: __ZN10reanimated3css25TransformInterpolatorBaseINS0_17SkewOperationBaseILNS0_11TransformOpE10EEEED0Ev, symObjAddr: 0x1C24C, symBinAddr: 0x12B8E4, symSize: 0x4 }
  - { offset: 0x27F481, size: 0x8, addend: 0x0, symName: __ZN10reanimated3css17SkewOperationBaseILNS0_11TransformOpE10EED1Ev, symObjAddr: 0x1C250, symBinAddr: 0x210DC, symSize: 0x4 }
  - { offset: 0x27F4C9, size: 0x8, addend: 0x0, symName: __ZNSt3__120__shared_ptr_emplaceIN10reanimated3css17SkewOperationBaseILNS2_11TransformOpE10EEENS_9allocatorIS5_EEED1Ev, symObjAddr: 0x1C254, symBinAddr: 0x210E0, symSize: 0x14 }
  - { offset: 0x27F4ED, size: 0x8, addend: 0x0, symName: __ZNSt3__120__shared_ptr_emplaceIN10reanimated3css17SkewOperationBaseILNS2_11TransformOpE10EEENS_9allocatorIS5_EEED1Ev, symObjAddr: 0x1C254, symBinAddr: 0x210E0, symSize: 0x14 }
  - { offset: 0x27F524, size: 0x8, addend: 0x0, symName: __ZNSt3__120__shared_ptr_emplaceIN10reanimated3css17SkewOperationBaseILNS2_11TransformOpE10EEENS_9allocatorIS5_EEED0Ev, symObjAddr: 0x1C268, symBinAddr: 0x210F4, symSize: 0x24 }
  - { offset: 0x27F5FA, size: 0x8, addend: 0x0, symName: __ZNSt3__120__shared_ptr_emplaceIN10reanimated3css17SkewOperationBaseILNS2_11TransformOpE10EEENS_9allocatorIS5_EEE16__on_zero_sharedEv, symObjAddr: 0x1C28C, symBinAddr: 0x21118, symSize: 0xC }
  - { offset: 0x27F624, size: 0x8, addend: 0x0, symName: __ZNSt3__120__shared_ptr_emplaceIN10reanimated3css17SkewOperationBaseILNS2_11TransformOpE10EEENS_9allocatorIS5_EEE16__on_zero_sharedEv, symObjAddr: 0x1C28C, symBinAddr: 0x21118, symSize: 0xC }
  - { offset: 0x27F643, size: 0x8, addend: 0x0, symName: __ZNSt3__120__shared_ptr_emplaceIN10reanimated3css17SkewOperationBaseILNS2_11TransformOpE10EEENS_9allocatorIS5_EEE16__on_zero_sharedEv, symObjAddr: 0x1C28C, symBinAddr: 0x21118, symSize: 0xC }
  - { offset: 0x27F662, size: 0x8, addend: 0x0, symName: __ZNSt3__120__shared_ptr_emplaceIN10reanimated3css17SkewOperationBaseILNS2_11TransformOpE10EEENS_9allocatorIS5_EEE16__on_zero_sharedEv, symObjAddr: 0x1C28C, symBinAddr: 0x21118, symSize: 0xC }
  - { offset: 0x27F6F0, size: 0x8, addend: 0x0, symName: __ZNSt3__120__shared_ptr_emplaceIN10reanimated3css17SkewOperationBaseILNS2_11TransformOpE10EEENS_9allocatorIS5_EEE21__on_zero_shared_weakEv, symObjAddr: 0x1C298, symBinAddr: 0x21124, symSize: 0x4 }
  - { offset: 0x27F724, size: 0x8, addend: 0x0, symName: __ZNSt3__120__shared_ptr_emplaceIN10reanimated3css17SkewOperationBaseILNS2_11TransformOpE10EEENS_9allocatorIS5_EEE21__on_zero_shared_weakEv, symObjAddr: 0x1C298, symBinAddr: 0x21124, symSize: 0x4 }
  - { offset: 0x27F748, size: 0x8, addend: 0x0, symName: __ZNSt3__120__shared_ptr_emplaceIN10reanimated3css17SkewOperationBaseILNS2_11TransformOpE10EEENS_9allocatorIS5_EEE21__on_zero_shared_weakEv, symObjAddr: 0x1C298, symBinAddr: 0x21124, symSize: 0x4 }
  - { offset: 0x27F76D, size: 0x8, addend: 0x0, symName: __ZNSt3__120__shared_ptr_emplaceIN10reanimated3css17SkewOperationBaseILNS2_11TransformOpE10EEENS_9allocatorIS5_EEE21__on_zero_shared_weakEv, symObjAddr: 0x1C298, symBinAddr: 0x21124, symSize: 0x4 }
  - { offset: 0x27F7A4, size: 0x8, addend: 0x0, symName: __ZNSt3__120__shared_ptr_emplaceIN10reanimated3css17SkewOperationBaseILNS2_11TransformOpE10EEENS_9allocatorIS5_EEE21__on_zero_shared_weakEv, symObjAddr: 0x1C298, symBinAddr: 0x21124, symSize: 0x4 }
  - { offset: 0x27F7CE, size: 0x8, addend: 0x0, symName: __ZNK10reanimated3css22TransformOperationBaseILNS0_11TransformOpE10ENS0_8CSSAngleEEeqERKNS0_18TransformOperationE, symObjAddr: 0x1C29C, symBinAddr: 0x21128, symSize: 0x6C }
  - { offset: 0x27F840, size: 0x8, addend: 0x0, symName: __ZNK10reanimated3css22TransformOperationBaseILNS0_11TransformOpE10ENS0_8CSSAngleEE4typeEv, symObjAddr: 0x1C308, symBinAddr: 0x21194, symSize: 0x8 }
  - { offset: 0x27F867, size: 0x8, addend: 0x0, symName: __ZNK10reanimated3css17SkewOperationBaseILNS0_11TransformOpE10EE14valueToDynamicEv, symObjAddr: 0x1C310, symBinAddr: 0x2119C, symSize: 0x8 }
  - { offset: 0x27F88E, size: 0x8, addend: 0x0, symName: __ZNK10reanimated3css17SkewOperationBaseILNS0_11TransformOpE10EE8toMatrixEv, symObjAddr: 0x1C318, symBinAddr: 0x211A4, symSize: 0x8 }
  - { offset: 0x27F8B3, size: 0x8, addend: 0x0, symName: __ZN10reanimated3css17SkewOperationBaseILNS0_11TransformOpE10EED0Ev, symObjAddr: 0x1C320, symBinAddr: 0x211AC, symSize: 0x4 }
  - { offset: 0x27F9D2, size: 0x8, addend: 0x0, symName: __ZNSt3__120__shared_ptr_emplaceIN10reanimated3css17SkewOperationBaseILNS2_11TransformOpE10EEENS_9allocatorIS5_EEEC2B8ne200100IJRA5_KcES7_Li0EEES7_DpOT_, symObjAddr: 0x1C37C, symBinAddr: 0x21208, symSize: 0x4C }
  - { offset: 0x27FDCC, size: 0x8, addend: 0x0, symName: __ZNSt3__120__shared_ptr_emplaceIN10reanimated3css30TransformOperationInterpolatorINS2_17SkewOperationBaseILNS2_11TransformOpE11EEEEENS_9allocatorIS7_EEEC2B8ne200100IJNS_10shared_ptrIS6_EEES9_Li0EEES9_DpOT_, symObjAddr: 0x1C504, symBinAddr: 0x21338, symSize: 0x4C }
  - { offset: 0x27FF4A, size: 0x8, addend: 0x0, symName: __ZNSt3__120__shared_ptr_emplaceIN10reanimated3css30TransformOperationInterpolatorINS2_17SkewOperationBaseILNS2_11TransformOpE11EEEEENS_9allocatorIS7_EEED1Ev, symObjAddr: 0x1C550, symBinAddr: 0x21384, symSize: 0x14 }
  - { offset: 0x27FF6E, size: 0x8, addend: 0x0, symName: __ZNSt3__120__shared_ptr_emplaceIN10reanimated3css30TransformOperationInterpolatorINS2_17SkewOperationBaseILNS2_11TransformOpE11EEEEENS_9allocatorIS7_EEED1Ev, symObjAddr: 0x1C550, symBinAddr: 0x21384, symSize: 0x14 }
  - { offset: 0x27FFA5, size: 0x8, addend: 0x0, symName: __ZNSt3__120__shared_ptr_emplaceIN10reanimated3css30TransformOperationInterpolatorINS2_17SkewOperationBaseILNS2_11TransformOpE11EEEEENS_9allocatorIS7_EEED0Ev, symObjAddr: 0x1C564, symBinAddr: 0x21398, symSize: 0x24 }
  - { offset: 0x28007B, size: 0x8, addend: 0x0, symName: __ZNSt3__120__shared_ptr_emplaceIN10reanimated3css30TransformOperationInterpolatorINS2_17SkewOperationBaseILNS2_11TransformOpE11EEEEENS_9allocatorIS7_EEE16__on_zero_sharedEv, symObjAddr: 0x1C588, symBinAddr: 0x213BC, symSize: 0xC }
  - { offset: 0x2800A5, size: 0x8, addend: 0x0, symName: __ZNSt3__120__shared_ptr_emplaceIN10reanimated3css30TransformOperationInterpolatorINS2_17SkewOperationBaseILNS2_11TransformOpE11EEEEENS_9allocatorIS7_EEE16__on_zero_sharedEv, symObjAddr: 0x1C588, symBinAddr: 0x213BC, symSize: 0xC }
  - { offset: 0x2800C4, size: 0x8, addend: 0x0, symName: __ZNSt3__120__shared_ptr_emplaceIN10reanimated3css30TransformOperationInterpolatorINS2_17SkewOperationBaseILNS2_11TransformOpE11EEEEENS_9allocatorIS7_EEE16__on_zero_sharedEv, symObjAddr: 0x1C588, symBinAddr: 0x213BC, symSize: 0xC }
  - { offset: 0x2800E3, size: 0x8, addend: 0x0, symName: __ZNSt3__120__shared_ptr_emplaceIN10reanimated3css30TransformOperationInterpolatorINS2_17SkewOperationBaseILNS2_11TransformOpE11EEEEENS_9allocatorIS7_EEE16__on_zero_sharedEv, symObjAddr: 0x1C588, symBinAddr: 0x213BC, symSize: 0xC }
  - { offset: 0x28010F, size: 0x8, addend: 0x0, symName: __ZNSt3__120__shared_ptr_emplaceIN10reanimated3css30TransformOperationInterpolatorINS2_17SkewOperationBaseILNS2_11TransformOpE11EEEEENS_9allocatorIS7_EEE21__on_zero_shared_weakEv, symObjAddr: 0x1C594, symBinAddr: 0x213C8, symSize: 0x4 }
  - { offset: 0x280143, size: 0x8, addend: 0x0, symName: __ZNSt3__120__shared_ptr_emplaceIN10reanimated3css30TransformOperationInterpolatorINS2_17SkewOperationBaseILNS2_11TransformOpE11EEEEENS_9allocatorIS7_EEE21__on_zero_shared_weakEv, symObjAddr: 0x1C594, symBinAddr: 0x213C8, symSize: 0x4 }
  - { offset: 0x280167, size: 0x8, addend: 0x0, symName: __ZNSt3__120__shared_ptr_emplaceIN10reanimated3css30TransformOperationInterpolatorINS2_17SkewOperationBaseILNS2_11TransformOpE11EEEEENS_9allocatorIS7_EEE21__on_zero_shared_weakEv, symObjAddr: 0x1C594, symBinAddr: 0x213C8, symSize: 0x4 }
  - { offset: 0x28018C, size: 0x8, addend: 0x0, symName: __ZNSt3__120__shared_ptr_emplaceIN10reanimated3css30TransformOperationInterpolatorINS2_17SkewOperationBaseILNS2_11TransformOpE11EEEEENS_9allocatorIS7_EEE21__on_zero_shared_weakEv, symObjAddr: 0x1C594, symBinAddr: 0x213C8, symSize: 0x4 }
  - { offset: 0x2801C3, size: 0x8, addend: 0x0, symName: __ZNSt3__120__shared_ptr_emplaceIN10reanimated3css30TransformOperationInterpolatorINS2_17SkewOperationBaseILNS2_11TransformOpE11EEEEENS_9allocatorIS7_EEE21__on_zero_shared_weakEv, symObjAddr: 0x1C594, symBinAddr: 0x213C8, symSize: 0x4 }
  - { offset: 0x280262, size: 0x8, addend: 0x0, symName: __ZN10reanimated3css30TransformOperationInterpolatorINS0_17SkewOperationBaseILNS0_11TransformOpE11EEEEC2ENSt3__110shared_ptrIS4_EE, symObjAddr: 0x1C620, symBinAddr: 0x21454, symSize: 0xA4 }
  - { offset: 0x280515, size: 0x8, addend: 0x0, symName: __ZN10reanimated3css30TransformOperationInterpolatorINS0_17SkewOperationBaseILNS0_11TransformOpE11EEEED1Ev, symObjAddr: 0x1C6C4, symBinAddr: 0x214F8, symSize: 0x34 }
  - { offset: 0x2805C0, size: 0x8, addend: 0x0, symName: __ZN10reanimated3css30TransformOperationInterpolatorINS0_17SkewOperationBaseILNS0_11TransformOpE11EEEED0Ev, symObjAddr: 0x1C6F8, symBinAddr: 0x2152C, symSize: 0x34 }
  - { offset: 0x2806E8, size: 0x8, addend: 0x0, symName: __ZNK10reanimated3css25TransformInterpolatorBaseINS0_17SkewOperationBaseILNS0_11TransformOpE11EEEE19getDefaultOperationEv, symObjAddr: 0x1C72C, symBinAddr: 0x21560, symSize: 0x24 }
  - { offset: 0x280710, size: 0x8, addend: 0x0, symName: __ZNK10reanimated3css25TransformInterpolatorBaseINS0_17SkewOperationBaseILNS0_11TransformOpE11EEEE19getDefaultOperationEv, symObjAddr: 0x1C72C, symBinAddr: 0x21560, symSize: 0x24 }
  - { offset: 0x28073A, size: 0x8, addend: 0x0, symName: __ZNK10reanimated3css25TransformInterpolatorBaseINS0_17SkewOperationBaseILNS0_11TransformOpE11EEEE19getDefaultOperationEv, symObjAddr: 0x1C72C, symBinAddr: 0x21560, symSize: 0x24 }
  - { offset: 0x280B36, size: 0x8, addend: 0x0, symName: __ZNK10reanimated3css25TransformInterpolatorBaseINS0_17SkewOperationBaseILNS0_11TransformOpE11EEEE11interpolateEdRKNSt3__110shared_ptrINS0_18TransformOperationEEESB_RKNS0_21TransformInterpolator13UpdateContextE, symObjAddr: 0x1C750, symBinAddr: 0x21584, symSize: 0x158 }
  - { offset: 0x28126B, size: 0x8, addend: 0x0, symName: __ZNK10reanimated3css25TransformInterpolatorBaseINS0_17SkewOperationBaseILNS0_11TransformOpE11EEEE16resolveOperationERKNSt3__110shared_ptrINS0_18TransformOperationEEERKNS0_21TransformInterpolator13UpdateContextE, symObjAddr: 0x1C8A8, symBinAddr: 0x216DC, symSize: 0xF4 }
  - { offset: 0x2817FE, size: 0x8, addend: 0x0, symName: __ZNK10reanimated3css30TransformOperationInterpolatorINS0_17SkewOperationBaseILNS0_11TransformOpE11EEEE11interpolateEdRKS4_S7_RKNS0_21TransformInterpolator13UpdateContextE, symObjAddr: 0x1C99C, symBinAddr: 0x217D0, symSize: 0x58 }
  - { offset: 0x28195C, size: 0x8, addend: 0x0, symName: __ZNK10reanimated3css25TransformInterpolatorBaseINS0_17SkewOperationBaseILNS0_11TransformOpE11EEEE16resolveOperationERKS4_RKNS0_21TransformInterpolator13UpdateContextE, symObjAddr: 0x1C9F4, symBinAddr: 0x21828, symSize: 0x28 }
  - { offset: 0x2819A2, size: 0x8, addend: 0x0, symName: __ZNK10reanimated3css25TransformInterpolatorBaseINS0_17SkewOperationBaseILNS0_11TransformOpE11EEEE16resolveOperationERKS4_RKNS0_21TransformInterpolator13UpdateContextE, symObjAddr: 0x1C9F4, symBinAddr: 0x21828, symSize: 0x28 }
  - { offset: 0x2819C8, size: 0x8, addend: 0x0, symName: __ZNK10reanimated3css25TransformInterpolatorBaseINS0_17SkewOperationBaseILNS0_11TransformOpE11EEEE16resolveOperationERKS4_RKNS0_21TransformInterpolator13UpdateContextE, symObjAddr: 0x1C9F4, symBinAddr: 0x21828, symSize: 0x28 }
  - { offset: 0x281A52, size: 0x8, addend: 0x0, symName: __ZN10reanimated3css25TransformInterpolatorBaseINS0_17SkewOperationBaseILNS0_11TransformOpE11EEEED1Ev, symObjAddr: 0x1CA1C, symBinAddr: 0x12B8E8, symSize: 0x4 }
  - { offset: 0x281A7E, size: 0x8, addend: 0x0, symName: __ZN10reanimated3css25TransformInterpolatorBaseINS0_17SkewOperationBaseILNS0_11TransformOpE11EEEED0Ev, symObjAddr: 0x1CA20, symBinAddr: 0x12B8EC, symSize: 0x4 }
  - { offset: 0x281AAA, size: 0x8, addend: 0x0, symName: __ZN10reanimated3css17SkewOperationBaseILNS0_11TransformOpE11EED1Ev, symObjAddr: 0x1CA24, symBinAddr: 0x21850, symSize: 0x4 }
  - { offset: 0x281AF2, size: 0x8, addend: 0x0, symName: __ZNSt3__120__shared_ptr_emplaceIN10reanimated3css17SkewOperationBaseILNS2_11TransformOpE11EEENS_9allocatorIS5_EEED1Ev, symObjAddr: 0x1CA28, symBinAddr: 0x21854, symSize: 0x14 }
  - { offset: 0x281B16, size: 0x8, addend: 0x0, symName: __ZNSt3__120__shared_ptr_emplaceIN10reanimated3css17SkewOperationBaseILNS2_11TransformOpE11EEENS_9allocatorIS5_EEED1Ev, symObjAddr: 0x1CA28, symBinAddr: 0x21854, symSize: 0x14 }
  - { offset: 0x281B4D, size: 0x8, addend: 0x0, symName: __ZNSt3__120__shared_ptr_emplaceIN10reanimated3css17SkewOperationBaseILNS2_11TransformOpE11EEENS_9allocatorIS5_EEED0Ev, symObjAddr: 0x1CA3C, symBinAddr: 0x21868, symSize: 0x24 }
  - { offset: 0x281C23, size: 0x8, addend: 0x0, symName: __ZNSt3__120__shared_ptr_emplaceIN10reanimated3css17SkewOperationBaseILNS2_11TransformOpE11EEENS_9allocatorIS5_EEE16__on_zero_sharedEv, symObjAddr: 0x1CA60, symBinAddr: 0x2188C, symSize: 0xC }
  - { offset: 0x281C4D, size: 0x8, addend: 0x0, symName: __ZNSt3__120__shared_ptr_emplaceIN10reanimated3css17SkewOperationBaseILNS2_11TransformOpE11EEENS_9allocatorIS5_EEE16__on_zero_sharedEv, symObjAddr: 0x1CA60, symBinAddr: 0x2188C, symSize: 0xC }
  - { offset: 0x281C6C, size: 0x8, addend: 0x0, symName: __ZNSt3__120__shared_ptr_emplaceIN10reanimated3css17SkewOperationBaseILNS2_11TransformOpE11EEENS_9allocatorIS5_EEE16__on_zero_sharedEv, symObjAddr: 0x1CA60, symBinAddr: 0x2188C, symSize: 0xC }
  - { offset: 0x281C8B, size: 0x8, addend: 0x0, symName: __ZNSt3__120__shared_ptr_emplaceIN10reanimated3css17SkewOperationBaseILNS2_11TransformOpE11EEENS_9allocatorIS5_EEE16__on_zero_sharedEv, symObjAddr: 0x1CA60, symBinAddr: 0x2188C, symSize: 0xC }
  - { offset: 0x281D19, size: 0x8, addend: 0x0, symName: __ZNSt3__120__shared_ptr_emplaceIN10reanimated3css17SkewOperationBaseILNS2_11TransformOpE11EEENS_9allocatorIS5_EEE21__on_zero_shared_weakEv, symObjAddr: 0x1CA6C, symBinAddr: 0x21898, symSize: 0x4 }
  - { offset: 0x281D4D, size: 0x8, addend: 0x0, symName: __ZNSt3__120__shared_ptr_emplaceIN10reanimated3css17SkewOperationBaseILNS2_11TransformOpE11EEENS_9allocatorIS5_EEE21__on_zero_shared_weakEv, symObjAddr: 0x1CA6C, symBinAddr: 0x21898, symSize: 0x4 }
  - { offset: 0x281D71, size: 0x8, addend: 0x0, symName: __ZNSt3__120__shared_ptr_emplaceIN10reanimated3css17SkewOperationBaseILNS2_11TransformOpE11EEENS_9allocatorIS5_EEE21__on_zero_shared_weakEv, symObjAddr: 0x1CA6C, symBinAddr: 0x21898, symSize: 0x4 }
  - { offset: 0x281D96, size: 0x8, addend: 0x0, symName: __ZNSt3__120__shared_ptr_emplaceIN10reanimated3css17SkewOperationBaseILNS2_11TransformOpE11EEENS_9allocatorIS5_EEE21__on_zero_shared_weakEv, symObjAddr: 0x1CA6C, symBinAddr: 0x21898, symSize: 0x4 }
  - { offset: 0x281DCD, size: 0x8, addend: 0x0, symName: __ZNSt3__120__shared_ptr_emplaceIN10reanimated3css17SkewOperationBaseILNS2_11TransformOpE11EEENS_9allocatorIS5_EEE21__on_zero_shared_weakEv, symObjAddr: 0x1CA6C, symBinAddr: 0x21898, symSize: 0x4 }
  - { offset: 0x281DF7, size: 0x8, addend: 0x0, symName: __ZNK10reanimated3css22TransformOperationBaseILNS0_11TransformOpE11ENS0_8CSSAngleEEeqERKNS0_18TransformOperationE, symObjAddr: 0x1CA70, symBinAddr: 0x2189C, symSize: 0x6C }
  - { offset: 0x281E69, size: 0x8, addend: 0x0, symName: __ZNK10reanimated3css22TransformOperationBaseILNS0_11TransformOpE11ENS0_8CSSAngleEE4typeEv, symObjAddr: 0x1CADC, symBinAddr: 0x21908, symSize: 0x8 }
  - { offset: 0x281E90, size: 0x8, addend: 0x0, symName: __ZNK10reanimated3css17SkewOperationBaseILNS0_11TransformOpE11EE14valueToDynamicEv, symObjAddr: 0x1CAE4, symBinAddr: 0x21910, symSize: 0x8 }
  - { offset: 0x281EB7, size: 0x8, addend: 0x0, symName: __ZNK10reanimated3css17SkewOperationBaseILNS0_11TransformOpE11EE8toMatrixEv, symObjAddr: 0x1CAEC, symBinAddr: 0x21918, symSize: 0x8 }
  - { offset: 0x281EDC, size: 0x8, addend: 0x0, symName: __ZN10reanimated3css17SkewOperationBaseILNS0_11TransformOpE11EED0Ev, symObjAddr: 0x1CAF4, symBinAddr: 0x21920, symSize: 0x4 }
  - { offset: 0x281FFB, size: 0x8, addend: 0x0, symName: __ZNSt3__120__shared_ptr_emplaceIN10reanimated3css17SkewOperationBaseILNS2_11TransformOpE11EEENS_9allocatorIS5_EEEC2B8ne200100IJRA5_KcES7_Li0EEES7_DpOT_, symObjAddr: 0x1CB50, symBinAddr: 0x2197C, symSize: 0x4C }
  - { offset: 0x2823F5, size: 0x8, addend: 0x0, symName: __ZNSt3__120__shared_ptr_emplaceIN10reanimated3css30TransformOperationInterpolatorINS2_15MatrixOperationEEENS_9allocatorIS5_EEEC2B8ne200100IJNS_10shared_ptrIS4_EEES7_Li0EEES7_DpOT_, symObjAddr: 0x1CCD8, symBinAddr: 0x21AAC, symSize: 0x4C }
  - { offset: 0x282573, size: 0x8, addend: 0x0, symName: __ZNSt3__120__shared_ptr_emplaceIN10reanimated3css30TransformOperationInterpolatorINS2_15MatrixOperationEEENS_9allocatorIS5_EEED1Ev, symObjAddr: 0x1CD24, symBinAddr: 0x21AF8, symSize: 0x14 }
  - { offset: 0x282597, size: 0x8, addend: 0x0, symName: __ZNSt3__120__shared_ptr_emplaceIN10reanimated3css30TransformOperationInterpolatorINS2_15MatrixOperationEEENS_9allocatorIS5_EEED1Ev, symObjAddr: 0x1CD24, symBinAddr: 0x21AF8, symSize: 0x14 }
  - { offset: 0x2825CE, size: 0x8, addend: 0x0, symName: __ZNSt3__120__shared_ptr_emplaceIN10reanimated3css30TransformOperationInterpolatorINS2_15MatrixOperationEEENS_9allocatorIS5_EEED0Ev, symObjAddr: 0x1CD38, symBinAddr: 0x21B0C, symSize: 0x24 }
  - { offset: 0x2826A4, size: 0x8, addend: 0x0, symName: __ZNSt3__120__shared_ptr_emplaceIN10reanimated3css30TransformOperationInterpolatorINS2_15MatrixOperationEEENS_9allocatorIS5_EEE16__on_zero_sharedEv, symObjAddr: 0x1CD5C, symBinAddr: 0x21B30, symSize: 0xC }
  - { offset: 0x2826CE, size: 0x8, addend: 0x0, symName: __ZNSt3__120__shared_ptr_emplaceIN10reanimated3css30TransformOperationInterpolatorINS2_15MatrixOperationEEENS_9allocatorIS5_EEE16__on_zero_sharedEv, symObjAddr: 0x1CD5C, symBinAddr: 0x21B30, symSize: 0xC }
  - { offset: 0x2826ED, size: 0x8, addend: 0x0, symName: __ZNSt3__120__shared_ptr_emplaceIN10reanimated3css30TransformOperationInterpolatorINS2_15MatrixOperationEEENS_9allocatorIS5_EEE16__on_zero_sharedEv, symObjAddr: 0x1CD5C, symBinAddr: 0x21B30, symSize: 0xC }
  - { offset: 0x28270C, size: 0x8, addend: 0x0, symName: __ZNSt3__120__shared_ptr_emplaceIN10reanimated3css30TransformOperationInterpolatorINS2_15MatrixOperationEEENS_9allocatorIS5_EEE16__on_zero_sharedEv, symObjAddr: 0x1CD5C, symBinAddr: 0x21B30, symSize: 0xC }
  - { offset: 0x282738, size: 0x8, addend: 0x0, symName: __ZNSt3__120__shared_ptr_emplaceIN10reanimated3css30TransformOperationInterpolatorINS2_15MatrixOperationEEENS_9allocatorIS5_EEE21__on_zero_shared_weakEv, symObjAddr: 0x1CD68, symBinAddr: 0x21B3C, symSize: 0x4 }
  - { offset: 0x28276C, size: 0x8, addend: 0x0, symName: __ZNSt3__120__shared_ptr_emplaceIN10reanimated3css30TransformOperationInterpolatorINS2_15MatrixOperationEEENS_9allocatorIS5_EEE21__on_zero_shared_weakEv, symObjAddr: 0x1CD68, symBinAddr: 0x21B3C, symSize: 0x4 }
  - { offset: 0x282790, size: 0x8, addend: 0x0, symName: __ZNSt3__120__shared_ptr_emplaceIN10reanimated3css30TransformOperationInterpolatorINS2_15MatrixOperationEEENS_9allocatorIS5_EEE21__on_zero_shared_weakEv, symObjAddr: 0x1CD68, symBinAddr: 0x21B3C, symSize: 0x4 }
  - { offset: 0x2827B5, size: 0x8, addend: 0x0, symName: __ZNSt3__120__shared_ptr_emplaceIN10reanimated3css30TransformOperationInterpolatorINS2_15MatrixOperationEEENS_9allocatorIS5_EEE21__on_zero_shared_weakEv, symObjAddr: 0x1CD68, symBinAddr: 0x21B3C, symSize: 0x4 }
  - { offset: 0x2827EC, size: 0x8, addend: 0x0, symName: __ZNSt3__120__shared_ptr_emplaceIN10reanimated3css30TransformOperationInterpolatorINS2_15MatrixOperationEEENS_9allocatorIS5_EEE21__on_zero_shared_weakEv, symObjAddr: 0x1CD68, symBinAddr: 0x21B3C, symSize: 0x4 }
  - { offset: 0x282929, size: 0x8, addend: 0x0, symName: __ZN10reanimated3css25TransformInterpolatorBaseINS0_15MatrixOperationEED1Ev, symObjAddr: 0x1CE10, symBinAddr: 0x12B8F0, symSize: 0x4 }
  - { offset: 0x282955, size: 0x8, addend: 0x0, symName: __ZN10reanimated3css25TransformInterpolatorBaseINS0_15MatrixOperationEED0Ev, symObjAddr: 0x1CE14, symBinAddr: 0x12B8F4, symSize: 0x4 }
  - { offset: 0x2829F1, size: 0x8, addend: 0x0, symName: __ZNK10reanimated3css25TransformInterpolatorBaseINS0_15MatrixOperationEE19getDefaultOperationEv, symObjAddr: 0x1CE18, symBinAddr: 0x21BE4, symSize: 0x24 }
  - { offset: 0x282A19, size: 0x8, addend: 0x0, symName: __ZNK10reanimated3css25TransformInterpolatorBaseINS0_15MatrixOperationEE19getDefaultOperationEv, symObjAddr: 0x1CE18, symBinAddr: 0x21BE4, symSize: 0x24 }
  - { offset: 0x282A43, size: 0x8, addend: 0x0, symName: __ZNK10reanimated3css25TransformInterpolatorBaseINS0_15MatrixOperationEE19getDefaultOperationEv, symObjAddr: 0x1CE18, symBinAddr: 0x21BE4, symSize: 0x24 }
  - { offset: 0x282D77, size: 0x8, addend: 0x0, symName: __ZNK10reanimated3css25TransformInterpolatorBaseINS0_15MatrixOperationEE11interpolateEdRKNSt3__110shared_ptrINS0_18TransformOperationEEES9_RKNS0_21TransformInterpolator13UpdateContextE, symObjAddr: 0x1CE3C, symBinAddr: 0x21C08, symSize: 0x168 }
  - { offset: 0x28354D, size: 0x8, addend: 0x0, symName: __ZNSt3__116__variant_detail6__dtorINS0_8__traitsIJN10reanimated3css17TransformMatrix3DENS_6vectorINS_10shared_ptrINS4_18TransformOperationEEENS_9allocatorIS9_EEEEEEELNS0_6_TraitE1EE9__destroyB8ne200100Ev, symObjAddr: 0x1D360, symBinAddr: 0x2207C, symSize: 0x54 }
  - { offset: 0x28365C, size: 0x8, addend: 0x0, symName: __ZNK10reanimated3css25TransformInterpolatorBaseINS0_15MatrixOperationEE16resolveOperationERKNSt3__110shared_ptrINS0_18TransformOperationEEERKNS0_21TransformInterpolator13UpdateContextE, symObjAddr: 0x1CFA4, symBinAddr: 0x21D70, symSize: 0x104 }
  - { offset: 0x283D8E, size: 0x8, addend: 0x0, symName: __ZNK10reanimated3css25TransformInterpolatorBaseINS0_15MatrixOperationEE16resolveOperationERKS2_RKNS0_21TransformInterpolator13UpdateContextE, symObjAddr: 0x1D0A8, symBinAddr: 0x21E74, symSize: 0x48 }
  - { offset: 0x283F08, size: 0x8, addend: 0x0, symName: __ZNSt3__116__variant_detail18__copy_constructorINS0_8__traitsIJN10reanimated3css17TransformMatrix3DENS_6vectorINS_10shared_ptrINS4_18TransformOperationEEENS_9allocatorIS9_EEEEEEELNS0_6_TraitE1EEC2B8ne200100ERKSF_, symObjAddr: 0x1D2BC, symBinAddr: 0x21FD8, symSize: 0x44 }
  - { offset: 0x28431E, size: 0x8, addend: 0x0, symName: __ZNSt3__120__shared_ptr_emplaceIN10reanimated3css15MatrixOperationENS_9allocatorIS3_EEEC2B8ne200100IJS3_ES5_Li0EEES5_DpOT_, symObjAddr: 0x1D148, symBinAddr: 0x21F14, symSize: 0x70 }
  - { offset: 0x28460B, size: 0x8, addend: 0x0, symName: __ZNSt3__120__shared_ptr_emplaceIN10reanimated3css15MatrixOperationENS_9allocatorIS3_EEED1Ev, symObjAddr: 0x1D1B8, symBinAddr: 0x21F84, symSize: 0x14 }
  - { offset: 0x28462F, size: 0x8, addend: 0x0, symName: __ZNSt3__120__shared_ptr_emplaceIN10reanimated3css15MatrixOperationENS_9allocatorIS3_EEED1Ev, symObjAddr: 0x1D1B8, symBinAddr: 0x21F84, symSize: 0x14 }
  - { offset: 0x284666, size: 0x8, addend: 0x0, symName: __ZNSt3__120__shared_ptr_emplaceIN10reanimated3css15MatrixOperationENS_9allocatorIS3_EEED0Ev, symObjAddr: 0x1D1CC, symBinAddr: 0x21F98, symSize: 0x24 }
  - { offset: 0x28473C, size: 0x8, addend: 0x0, symName: __ZNSt3__120__shared_ptr_emplaceIN10reanimated3css15MatrixOperationENS_9allocatorIS3_EEE16__on_zero_sharedEv, symObjAddr: 0x1D1F0, symBinAddr: 0x21FBC, symSize: 0x18 }
  - { offset: 0x284766, size: 0x8, addend: 0x0, symName: __ZNSt3__120__shared_ptr_emplaceIN10reanimated3css15MatrixOperationENS_9allocatorIS3_EEE16__on_zero_sharedEv, symObjAddr: 0x1D1F0, symBinAddr: 0x21FBC, symSize: 0x18 }
  - { offset: 0x284785, size: 0x8, addend: 0x0, symName: __ZNSt3__120__shared_ptr_emplaceIN10reanimated3css15MatrixOperationENS_9allocatorIS3_EEE16__on_zero_sharedEv, symObjAddr: 0x1D1F0, symBinAddr: 0x21FBC, symSize: 0x18 }
  - { offset: 0x2847A4, size: 0x8, addend: 0x0, symName: __ZNSt3__120__shared_ptr_emplaceIN10reanimated3css15MatrixOperationENS_9allocatorIS3_EEE16__on_zero_sharedEv, symObjAddr: 0x1D1F0, symBinAddr: 0x21FBC, symSize: 0x18 }
  - { offset: 0x2847C4, size: 0x8, addend: 0x0, symName: __ZNSt3__120__shared_ptr_emplaceIN10reanimated3css15MatrixOperationENS_9allocatorIS3_EEE16__on_zero_sharedEv, symObjAddr: 0x1D1F0, symBinAddr: 0x21FBC, symSize: 0x18 }
  - { offset: 0x2847E4, size: 0x8, addend: 0x0, symName: __ZNSt3__120__shared_ptr_emplaceIN10reanimated3css15MatrixOperationENS_9allocatorIS3_EEE16__on_zero_sharedEv, symObjAddr: 0x1D1F0, symBinAddr: 0x21FBC, symSize: 0x18 }
  - { offset: 0x284804, size: 0x8, addend: 0x0, symName: __ZNSt3__120__shared_ptr_emplaceIN10reanimated3css15MatrixOperationENS_9allocatorIS3_EEE16__on_zero_sharedEv, symObjAddr: 0x1D1F0, symBinAddr: 0x21FBC, symSize: 0x18 }
  - { offset: 0x284931, size: 0x8, addend: 0x0, symName: __ZNSt3__120__shared_ptr_emplaceIN10reanimated3css15MatrixOperationENS_9allocatorIS3_EEE21__on_zero_shared_weakEv, symObjAddr: 0x1D208, symBinAddr: 0x21FD4, symSize: 0x4 }
  - { offset: 0x284965, size: 0x8, addend: 0x0, symName: __ZNSt3__120__shared_ptr_emplaceIN10reanimated3css15MatrixOperationENS_9allocatorIS3_EEE21__on_zero_shared_weakEv, symObjAddr: 0x1D208, symBinAddr: 0x21FD4, symSize: 0x4 }
  - { offset: 0x284989, size: 0x8, addend: 0x0, symName: __ZNSt3__120__shared_ptr_emplaceIN10reanimated3css15MatrixOperationENS_9allocatorIS3_EEE21__on_zero_shared_weakEv, symObjAddr: 0x1D208, symBinAddr: 0x21FD4, symSize: 0x4 }
  - { offset: 0x2849AE, size: 0x8, addend: 0x0, symName: __ZNSt3__120__shared_ptr_emplaceIN10reanimated3css15MatrixOperationENS_9allocatorIS3_EEE21__on_zero_shared_weakEv, symObjAddr: 0x1D208, symBinAddr: 0x21FD4, symSize: 0x4 }
  - { offset: 0x2849E6, size: 0x8, addend: 0x0, symName: __ZNSt3__120__shared_ptr_emplaceIN10reanimated3css15MatrixOperationENS_9allocatorIS3_EEE21__on_zero_shared_weakEv, symObjAddr: 0x1D208, symBinAddr: 0x21FD4, symSize: 0x4 }
  - { offset: 0x284A37, size: 0x8, addend: 0x0, symName: __ZN10reanimated3css22TransformOperationBaseILNS0_11TransformOpE12ENSt3__17variantIJNS0_17TransformMatrix3DENS3_6vectorINS3_10shared_ptrINS0_18TransformOperationEEENS3_9allocatorIS9_EEEEEEEED1Ev, symObjAddr: 0x1D2B4, symBinAddr: 0x12B8F8, symSize: 0x4 }
  - { offset: 0x284A60, size: 0x8, addend: 0x0, symName: __ZN10reanimated3css22TransformOperationBaseILNS0_11TransformOpE12ENSt3__17variantIJNS0_17TransformMatrix3DENS3_6vectorINS3_10shared_ptrINS0_18TransformOperationEEENS3_9allocatorIS9_EEEEEEEED0Ev, symObjAddr: 0x1D2B8, symBinAddr: 0x12B8FC, symSize: 0x4 }
  - { offset: 0x284B92, size: 0x8, addend: 0x0, symName: __ZNSt3__116__variant_detail6__ctorINS0_8__traitsIJN10reanimated3css17TransformMatrix3DENS_6vectorINS_10shared_ptrINS4_18TransformOperationEEENS_9allocatorIS9_EEEEEEEE19__generic_constructB8ne200100IRKNS0_18__copy_constructorISD_LNS0_6_TraitE1EEEEEvRSE_OT_, symObjAddr: 0x1D300, symBinAddr: 0x2201C, symSize: 0x60 }
  - { offset: 0x284ED1, size: 0x8, addend: 0x0, symName: __ZNSt3__116__variant_detail12__visitation6__base12__dispatcherIJLm0EEE10__dispatchB8ne200100IOZNS0_6__dtorINS0_8__traitsIJN10reanimated3css17TransformMatrix3DENS_6vectorINS_10shared_ptrINS9_18TransformOperationEEENS_9allocatorISE_EEEEEEELNS0_6_TraitE1EE9__destroyB8ne200100EvEUlRT_E_JRNS0_6__baseILSJ_1EJSA_SH_EEEEEEDcSL_DpT0_, symObjAddr: 0x1D3B4, symBinAddr: 0x220D0, symSize: 0x4 }
  - { offset: 0x28502A, size: 0x8, addend: 0x0, symName: __ZNSt3__116__variant_detail12__visitation6__base12__dispatcherIJLm1EEE10__dispatchB8ne200100IOZNS0_6__dtorINS0_8__traitsIJN10reanimated3css17TransformMatrix3DENS_6vectorINS_10shared_ptrINS9_18TransformOperationEEENS_9allocatorISE_EEEEEEELNS0_6_TraitE1EE9__destroyB8ne200100EvEUlRT_E_JRNS0_6__baseILSJ_1EJSA_SH_EEEEEEDcSL_DpT0_, symObjAddr: 0x1D3B8, symBinAddr: 0x220D4, symSize: 0x24 }
  - { offset: 0x285358, size: 0x8, addend: 0x0, symName: __ZNSt3__116__variant_detail12__visitation6__base12__dispatcherIJLm0EEE10__dispatchB8ne200100IOZNS0_6__ctorINS0_8__traitsIJN10reanimated3css17TransformMatrix3DENS_6vectorINS_10shared_ptrINS9_18TransformOperationEEENS_9allocatorISE_EEEEEEEE19__generic_constructB8ne200100IRKNS0_18__copy_constructorISI_LNS0_6_TraitE1EEEEEvRSJ_OT_EUlSS_E_JRKNS0_6__baseILSM_1EJSA_SH_EEEEEEDcSR_DpT0_, symObjAddr: 0x1D3DC, symBinAddr: 0x220F8, symSize: 0x68 }
  - { offset: 0x28538E, size: 0x8, addend: 0x0, symName: __ZNSt3__116__variant_detail12__visitation6__base12__dispatcherIJLm0EEE10__dispatchB8ne200100IOZNS0_6__ctorINS0_8__traitsIJN10reanimated3css17TransformMatrix3DENS_6vectorINS_10shared_ptrINS9_18TransformOperationEEENS_9allocatorISE_EEEEEEEE19__generic_constructB8ne200100IRKNS0_18__copy_constructorISI_LNS0_6_TraitE1EEEEEvRSJ_OT_EUlSS_E_JRKNS0_6__baseILSM_1EJSA_SH_EEEEEEDcSR_DpT0_, symObjAddr: 0x1D3DC, symBinAddr: 0x220F8, symSize: 0x68 }
  - { offset: 0x2853B4, size: 0x8, addend: 0x0, symName: __ZNSt3__116__variant_detail12__visitation6__base12__dispatcherIJLm0EEE10__dispatchB8ne200100IOZNS0_6__ctorINS0_8__traitsIJN10reanimated3css17TransformMatrix3DENS_6vectorINS_10shared_ptrINS9_18TransformOperationEEENS_9allocatorISE_EEEEEEEE19__generic_constructB8ne200100IRKNS0_18__copy_constructorISI_LNS0_6_TraitE1EEEEEvRSJ_OT_EUlSS_E_JRKNS0_6__baseILSM_1EJSA_SH_EEEEEEDcSR_DpT0_, symObjAddr: 0x1D3DC, symBinAddr: 0x220F8, symSize: 0x68 }
  - { offset: 0x285762, size: 0x8, addend: 0x0, symName: __ZNSt3__116__variant_detail12__visitation6__base12__dispatcherIJLm1EEE10__dispatchB8ne200100IOZNS0_6__ctorINS0_8__traitsIJN10reanimated3css17TransformMatrix3DENS_6vectorINS_10shared_ptrINS9_18TransformOperationEEENS_9allocatorISE_EEEEEEEE19__generic_constructB8ne200100IRKNS0_18__copy_constructorISI_LNS0_6_TraitE1EEEEEvRSJ_OT_EUlSS_E_JRKNS0_6__baseILSM_1EJSA_SH_EEEEEEDcSR_DpT0_, symObjAddr: 0x1D444, symBinAddr: 0x22160, symSize: 0x20 }
  - { offset: 0x28579C, size: 0x8, addend: 0x0, symName: __ZNSt3__116__variant_detail12__visitation6__base12__dispatcherIJLm1EEE10__dispatchB8ne200100IOZNS0_6__ctorINS0_8__traitsIJN10reanimated3css17TransformMatrix3DENS_6vectorINS_10shared_ptrINS9_18TransformOperationEEENS_9allocatorISE_EEEEEEEE19__generic_constructB8ne200100IRKNS0_18__copy_constructorISI_LNS0_6_TraitE1EEEEEvRSJ_OT_EUlSS_E_JRKNS0_6__baseILSM_1EJSA_SH_EEEEEEDcSR_DpT0_, symObjAddr: 0x1D444, symBinAddr: 0x22160, symSize: 0x20 }
  - { offset: 0x2857C6, size: 0x8, addend: 0x0, symName: __ZNSt3__116__variant_detail12__visitation6__base12__dispatcherIJLm1EEE10__dispatchB8ne200100IOZNS0_6__ctorINS0_8__traitsIJN10reanimated3css17TransformMatrix3DENS_6vectorINS_10shared_ptrINS9_18TransformOperationEEENS_9allocatorISE_EEEEEEEE19__generic_constructB8ne200100IRKNS0_18__copy_constructorISI_LNS0_6_TraitE1EEEEEvRSJ_OT_EUlSS_E_JRKNS0_6__baseILSM_1EJSA_SH_EEEEEEDcSR_DpT0_, symObjAddr: 0x1D444, symBinAddr: 0x22160, symSize: 0x20 }
  - { offset: 0x2859C4, size: 0x8, addend: 0x0, symName: __ZNSt3__16vectorINS_10shared_ptrIN10reanimated3css18TransformOperationEEENS_9allocatorIS5_EEE16__init_with_sizeB8ne200100IPS5_SA_EEvT_T0_m, symObjAddr: 0x1D9D8, symBinAddr: 0x225F8, symSize: 0x98 }
