---
triple:          'arm64-apple-darwin'
binary-path:     '/Users/uk-aplatts/Development/InjuryIQ/ios/DerivedData/Build/Intermediates.noindex/ArchiveIntermediates/InjuryIQ/IntermediateBuildFilesPath/UninstalledProducts/iphoneos/React_ImageManager.framework/React_ImageManager'
relocations:
  - { offset: 0x33, size: 0x8, addend: 0x0, symName: _React_ImageManagerVersionString, symObjAddr: 0x0, symBinAddr: 0x9170, symSize: 0x0 }
  - { offset: 0x67, size: 0x8, addend: 0x0, symName: _React_ImageManagerVersionNumber, symObjAddr: 0x30, symBinAddr: 0x91A0, symSize: 0x0 }
  - { offset: 0xCB, size: 0x8, addend: 0x0, symName: __ZN8facebook5react17HostPlatformColorL14UndefinedColorE, symObjAddr: 0x51E88, symBinAddr: 0x147B0, symSize: 0x0 }
  - { offset: 0xAC6D, size: 0x8, addend: 0x0, symName: __ZNSt3__120__throw_out_of_rangeB8ne200100EPKc, symObjAddr: 0xA00, symBinAddr: 0x4A00, symSize: 0x50 }
  - { offset: 0xADEC, size: 0x8, addend: 0x0, symName: __ZNSt3__120__throw_length_errorB8ne200100EPKc, symObjAddr: 0x47C, symBinAddr: 0x447C, symSize: 0x50 }
  - { offset: 0xAF67, size: 0x8, addend: 0x0, symName: __ZNSt3__135__uninitialized_allocator_copy_implB8ne200100INS_9allocatorINS_4pairINS_12basic_stringIcNS_11char_traitsIcEENS1_IcEEEES7_EEEEPS8_SA_SA_EET2_RT_T0_T1_SB_, symObjAddr: 0x838, symBinAddr: 0x4838, symSize: 0x84 }
  - { offset: 0xB14F, size: 0x8, addend: 0x0, symName: __ZNSt3__119__allocate_at_leastB8ne200100INS_9allocatorINS_4pairINS_12basic_stringIcNS_11char_traitsIcEENS1_IcEEEES7_EEEEEENS_19__allocation_resultINS_16allocator_traitsIT_E7pointerEEERSC_m, symObjAddr: 0x7F4, symBinAddr: 0x47F4, symSize: 0x44 }
  - { offset: 0xB1F7, size: 0x8, addend: 0x0, symName: __ZNSt3__135__uninitialized_allocator_copy_implB8ne200100INS_9allocatorINS_4pairINS_12basic_stringIcNS_11char_traitsIcEENS1_IcEEEES7_EEEEPS8_SA_SA_EET2_RT_T0_T1_SB_, symObjAddr: 0x838, symBinAddr: 0x4838, symSize: 0x84 }
  - { offset: 0xB37F, size: 0x8, addend: 0x0, symName: __ZNSt3__112__destroy_atB8ne200100INS_4pairINS_12basic_stringIcNS_11char_traitsIcEENS_9allocatorIcEEEES7_EELi0EEEvPT_, symObjAddr: 0x94C, symBinAddr: 0x494C, symSize: 0x44 }
  - { offset: 0xCA3E, size: 0x8, addend: 0x0, symName: __ZSt28__throw_bad_array_new_lengthB8ne200100v, symObjAddr: 0x4F0, symBinAddr: 0x44F0, symSize: 0x28 }
  - { offset: 0xDB5D, size: 0x8, addend: 0x0, symName: __ZN8facebook5react12ImageManagerC2ERKNSt3__110shared_ptrIKNS0_16ContextContainerEEE, symObjAddr: 0x0, symBinAddr: 0x4000, symSize: 0x110 }
  - { offset: 0xDF25, size: 0x8, addend: 0x0, symName: __ZNSt3__112basic_stringIcNS_11char_traitsIcEENS_9allocatorIcEEEC2B8ne200100ILi0EEEPKc, symObjAddr: 0x3C4, symBinAddr: 0x43C4, symSize: 0xA4 }
  - { offset: 0xE183, size: 0x8, addend: 0x0, symName: __ZNSt3__112basic_stringIcNS_11char_traitsIcEENS_9allocatorIcEEE20__throw_length_errorB8ne200100Ev, symObjAddr: 0x468, symBinAddr: 0x4468, symSize: 0x14 }
  - { offset: 0xE194, size: 0x8, addend: 0x0, symName: __ZNK8facebook5react16ContextContainer2atINSt3__110shared_ptrIvEEEET_RKNS3_12basic_stringIcNS3_11char_traitsIcEENS3_9allocatorIcEEEE, symObjAddr: 0x110, symBinAddr: 0x4110, symSize: 0xA8 }
  - { offset: 0xE5B7, size: 0x8, addend: 0x0, symName: __ZNSt3__112__hash_tableINS_17__hash_value_typeINS_12basic_stringIcNS_11char_traitsIcEENS_9allocatorIcEEEENS_10shared_ptrIvEEEENS_22__unordered_map_hasherIS7_SA_NS_4hashIS7_EENS_8equal_toIS7_EELb1EEENS_21__unordered_map_equalIS7_SA_SF_SD_Lb1EEENS5_ISA_EEE4findIS7_EENS_15__hash_iteratorIPNS_11__hash_nodeISA_PvEEEERKT_, symObjAddr: 0xA50, symBinAddr: 0x4A50, symSize: 0xF8 }
  - { offset: 0xE7A7, size: 0x8, addend: 0x0, symName: __ZNSt3__111shared_lockINS_12shared_mutexEED2B8ne200100Ev, symObjAddr: 0x1084, symBinAddr: 0x5084, symSize: 0x38 }
  - { offset: 0xE7E6, size: 0x8, addend: 0x0, symName: __ZN8facebook5react12ImageManagerC1ERKNSt3__110shared_ptrIKNS0_16ContextContainerEEE, symObjAddr: 0x1B8, symBinAddr: 0x41B8, symSize: 0x4 }
  - { offset: 0xE822, size: 0x8, addend: 0x0, symName: __ZN8facebook5react12ImageManagerC1ERKNSt3__110shared_ptrIKNS0_16ContextContainerEEE, symObjAddr: 0x1B8, symBinAddr: 0x41B8, symSize: 0x4 }
  - { offset: 0xE83C, size: 0x8, addend: 0x0, symName: __ZN8facebook5react12ImageManagerD2Ev, symObjAddr: 0x1BC, symBinAddr: 0x41BC, symSize: 0x3C }
  - { offset: 0xE890, size: 0x8, addend: 0x0, symName: __ZN8facebook5react12ImageManagerD1Ev, symObjAddr: 0x208, symBinAddr: 0x4208, symSize: 0x4 }
  - { offset: 0xE8B3, size: 0x8, addend: 0x0, symName: __ZN8facebook5react12ImageManagerD1Ev, symObjAddr: 0x208, symBinAddr: 0x4208, symSize: 0x4 }
  - { offset: 0xE8E7, size: 0x8, addend: 0x0, symName: __ZN8facebook5react12ImageManagerD0Ev, symObjAddr: 0x20C, symBinAddr: 0x420C, symSize: 0x14 }
  - { offset: 0xE97C, size: 0x8, addend: 0x0, symName: __ZNK8facebook5react12ImageManager12requestImageERKNS0_11ImageSourceEi, symObjAddr: 0x220, symBinAddr: 0x4220, symSize: 0x30 }
  - { offset: 0xEB22, size: 0x8, addend: 0x0, symName: __ZNK8facebook5react12ImageManager12requestImageERKNS0_11ImageSourceEiRKNS0_18ImageRequestParamsEi, symObjAddr: 0x250, symBinAddr: 0x4250, symSize: 0xFC }
  - { offset: 0xF05B, size: 0x8, addend: 0x0, symName: __ZN8facebook5react11ImageSourceC2ERKS1_, symObjAddr: 0x518, symBinAddr: 0x4518, symSize: 0x17C }
  - { offset: 0xF5D4, size: 0x8, addend: 0x0, symName: __ZNSt3__16vectorINS_4pairINS_12basic_stringIcNS_11char_traitsIcEENS_9allocatorIcEEEES7_EENS5_IS8_EEE16__destroy_vectorclB8ne200100Ev, symObjAddr: 0x990, symBinAddr: 0x4990, symSize: 0x70 }
  - { offset: 0xF713, size: 0x8, addend: 0x0, symName: __ZN8facebook5react11ImageSourceD1Ev, symObjAddr: 0x34C, symBinAddr: 0x434C, symSize: 0x78 }
  - { offset: 0xFD7A, size: 0x8, addend: 0x0, symName: __ZNSt3__112basic_stringIcNS_11char_traitsIcEENS_9allocatorIcEEE20__throw_length_errorB8ne200100Ev, symObjAddr: 0x468, symBinAddr: 0x4468, symSize: 0x14 }
  - { offset: 0xFD92, size: 0x8, addend: 0x0, symName: __ZNSt3__120__throw_length_errorB8ne200100EPKc, symObjAddr: 0x47C, symBinAddr: 0x447C, symSize: 0x50 }
  - { offset: 0xFD9D, size: 0x8, addend: 0x0, symName: __ZNSt12length_errorC1B8ne200100EPKc, symObjAddr: 0x4CC, symBinAddr: 0x44CC, symSize: 0x24 }
  - { offset: 0xFEEF, size: 0x8, addend: 0x0, symName: __ZNSt3__112basic_stringIcNS_11char_traitsIcEENS_9allocatorIcEEE25__init_copy_ctor_externalEPKcm, symObjAddr: 0x694, symBinAddr: 0x4694, symSize: 0x80 }
  - { offset: 0x100BF, size: 0x8, addend: 0x0, symName: __ZNSt3__16vectorINS_4pairINS_12basic_stringIcNS_11char_traitsIcEENS_9allocatorIcEEEES7_EENS5_IS8_EEE16__init_with_sizeB8ne200100IPS8_SC_EEvT_T0_m, symObjAddr: 0x714, symBinAddr: 0x4714, symSize: 0x84 }
  - { offset: 0x100CA, size: 0x8, addend: 0x0, symName: __ZNSt3__16vectorINS_4pairINS_12basic_stringIcNS_11char_traitsIcEENS_9allocatorIcEEEES7_EENS5_IS8_EEE16__init_with_sizeB8ne200100IPS8_SC_EEvT_T0_m, symObjAddr: 0x714, symBinAddr: 0x4714, symSize: 0x84 }
  - { offset: 0x104DA, size: 0x8, addend: 0x0, symName: __ZNSt3__16vectorINS_4pairINS_12basic_stringIcNS_11char_traitsIcEENS_9allocatorIcEEEES7_EENS5_IS8_EEE11__vallocateB8ne200100Em, symObjAddr: 0x798, symBinAddr: 0x4798, symSize: 0x48 }
  - { offset: 0x10532, size: 0x8, addend: 0x0, symName: __ZNSt3__16vectorINS_4pairINS_12basic_stringIcNS_11char_traitsIcEENS_9allocatorIcEEEES7_EENS5_IS8_EEE20__throw_length_errorB8ne200100Ev, symObjAddr: 0x7E0, symBinAddr: 0x47E0, symSize: 0x14 }
  - { offset: 0x1053D, size: 0x8, addend: 0x0, symName: __ZNSt3__16vectorINS_4pairINS_12basic_stringIcNS_11char_traitsIcEENS_9allocatorIcEEEES7_EENS5_IS8_EEE20__throw_length_errorB8ne200100Ev, symObjAddr: 0x7E0, symBinAddr: 0x47E0, symSize: 0x14 }
  - { offset: 0x10555, size: 0x8, addend: 0x0, symName: __ZNSt3__119__allocate_at_leastB8ne200100INS_9allocatorINS_4pairINS_12basic_stringIcNS_11char_traitsIcEENS1_IcEEEES7_EEEEEENS_19__allocation_resultINS_16allocator_traitsIT_E7pointerEEERSC_m, symObjAddr: 0x7F4, symBinAddr: 0x47F4, symSize: 0x44 }
  - { offset: 0x10676, size: 0x8, addend: 0x0, symName: __ZNSt3__14pairINS_12basic_stringIcNS_11char_traitsIcEENS_9allocatorIcEEEES6_EC2B8ne200100ERKS7_, symObjAddr: 0x8BC, symBinAddr: 0x48BC, symSize: 0x90 }
  - { offset: 0x1096E, size: 0x8, addend: 0x0, symName: __ZNSt12out_of_rangeC1B8ne200100EPKc, symObjAddr: 0x1060, symBinAddr: 0x5060, symSize: 0x24 }
  - { offset: 0x10AB9, size: 0x8, addend: 0x0, symName: __ZNKSt3__113__string_hashIcNS_9allocatorIcEEEclB8ne200100ERKNS_12basic_stringIcNS_11char_traitsIcEES2_EE, symObjAddr: 0xB48, symBinAddr: 0x4B48, symSize: 0x3C }
  - { offset: 0x10B88, size: 0x8, addend: 0x0, symName: __ZNKSt3__18equal_toINS_12basic_stringIcNS_11char_traitsIcEENS_9allocatorIcEEEEEclB8ne200100ERKS6_S9_, symObjAddr: 0xFF0, symBinAddr: 0x4FF0, symSize: 0x70 }
  - { offset: 0x10BD1, size: 0x8, addend: 0x0, symName: __ZNKSt3__18equal_toINS_12basic_stringIcNS_11char_traitsIcEENS_9allocatorIcEEEEEclB8ne200100ERKS6_S9_, symObjAddr: 0xFF0, symBinAddr: 0x4FF0, symSize: 0x70 }
  - { offset: 0x10C02, size: 0x8, addend: 0x0, symName: __ZNKSt3__18equal_toINS_12basic_stringIcNS_11char_traitsIcEENS_9allocatorIcEEEEEclB8ne200100ERKS6_S9_, symObjAddr: 0xFF0, symBinAddr: 0x4FF0, symSize: 0x70 }
  - { offset: 0x10C1E, size: 0x8, addend: 0x0, symName: __ZNKSt3__18equal_toINS_12basic_stringIcNS_11char_traitsIcEENS_9allocatorIcEEEEEclB8ne200100ERKS6_S9_, symObjAddr: 0xFF0, symBinAddr: 0x4FF0, symSize: 0x70 }
  - { offset: 0x10D4E, size: 0x8, addend: 0x0, symName: __ZNKSt3__121__murmur2_or_cityhashImLm64EEclB8ne200100EPKvm, symObjAddr: 0xB84, symBinAddr: 0x4B84, symSize: 0x208 }
  - { offset: 0x113BA, size: 0x8, addend: 0x0, symName: __ZNSt3__121__murmur2_or_cityhashImLm64EE18__hash_len_0_to_16B8ne200100EPKcm, symObjAddr: 0xD8C, symBinAddr: 0x4D8C, symSize: 0xF8 }
  - { offset: 0x115C7, size: 0x8, addend: 0x0, symName: __ZNSt3__121__murmur2_or_cityhashImLm64EE19__hash_len_33_to_64B8ne200100EPKcm, symObjAddr: 0xF30, symBinAddr: 0x4F30, symSize: 0xC0 }
  - { offset: 0x11835, size: 0x8, addend: 0x0, symName: __ZNSt3__121__murmur2_or_cityhashImLm64EE19__hash_len_17_to_32B8ne200100EPKcm, symObjAddr: 0xE84, symBinAddr: 0x4E84, symSize: 0xAC }
  - { offset: 0x11AB1, size: 0x8, addend: 0x0, symName: __GLOBAL__sub_I_ImageManager.mm, symObjAddr: 0x11B4, symBinAddr: 0x50BC, symSize: 0x20 }
  - { offset: 0x143DC, size: 0x8, addend: 0x0, symName: __ZN8facebook5react17HostPlatformColorL14UndefinedColorE, symObjAddr: 0x6AA38, symBinAddr: 0x147C8, symSize: 0x0 }
  - { offset: 0x143FC, size: 0x8, addend: 0x0, symName: __ZN8facebook5react8systrace20instrumentsLogHandleE, symObjAddr: 0x3200, symBinAddr: 0x146E8, symSize: 0x0 }
  - { offset: 0x14418, size: 0x8, addend: 0x0, symName: __ZZN8facebook5react8systraceL31getOrCreateInstrumentsLogHandleEvE4flag, symObjAddr: 0x6AA50, symBinAddr: 0x147E0, symSize: 0x0 }
  - { offset: 0x1B0B4, size: 0x8, addend: 0x0, symName: __ZNSt3__115allocate_sharedB8ne200100IN8facebook5react14SharedFunctionIJEE4PairENS_9allocatorIS5_EEJNS_8functionIFvvEEEELi0EEENS_10shared_ptrIT_EERKT0_DpOT1_, symObjAddr: 0x25D4, symBinAddr: 0x6F3C, symSize: 0x58 }
  - { offset: 0x1C2AE, size: 0x8, addend: 0x0, symName: __ZNSt3__117__call_once_proxyB8ne200100INS_5tupleIJOZN8facebook5react8systraceL31getOrCreateInstrumentsLogHandleEvEUlvE_EEEEEvPv, symObjAddr: 0x2448, symBinAddr: 0x6EAC, symSize: 0x50 }
  - { offset: 0x1C7FA, size: 0x8, addend: 0x0, symName: __ZNSt3__112__destroy_atB8ne200100IN8facebook5react14SharedFunctionIJEE4PairELi0EEEvPT_, symObjAddr: 0x2784, symBinAddr: 0x70EC, symSize: 0x64 }
  - { offset: 0x1E144, size: 0x8, addend: 0x0, symName: __ZN8facebook5react12TraceSectionD2Ev, symObjAddr: 0x2170, symBinAddr: 0x6C2C, symSize: 0xD4 }
  - { offset: 0x1E272, size: 0x8, addend: 0x0, symName: __ZN8facebook5react12TraceSectionC2IJEEEPKcDpOT_, symObjAddr: 0x229C, symBinAddr: 0x6D00, symSize: 0x1AC }
  - { offset: 0x1F04D, size: 0x8, addend: 0x0, symName: '___42-[RCTImageManager requestImage:surfaceId:]_block_invoke.6', symObjAddr: 0x14B4, symBinAddr: 0x6518, symSize: 0x178 }
  - { offset: 0x1F594, size: 0x8, addend: 0x0, symName: '___42-[RCTImageManager requestImage:surfaceId:]_block_invoke', symObjAddr: 0xC78, symBinAddr: 0x5CDC, symSize: 0x358 }
  - { offset: 0x2019F, size: 0x8, addend: 0x0, symName: '-[RCTImageManager initWithImageLoader:]', symObjAddr: 0x0, symBinAddr: 0x50DC, symSize: 0x9C }
  - { offset: 0x213D0, size: 0x8, addend: 0x0, symName: '-[RCTImageManager requestImage:surfaceId:]', symObjAddr: 0x9C, symBinAddr: 0x5178, symSize: 0xB64 }
  - { offset: 0x23F22, size: 0x8, addend: 0x0, symName: __ZN8facebook5react12ImageRequestD2Ev, symObjAddr: 0x20E8, symBinAddr: 0x6BA4, symSize: 0x88 }
  - { offset: 0x2448E, size: 0x8, addend: 0x0, symName: __ZNSt3__110shared_ptrIN8facebook5react14SharedFunctionIJEE4PairEED2B8ne200100Ev, symObjAddr: 0x1F64, symBinAddr: 0x6A20, symSize: 0x58 }
  - { offset: 0x24A4F, size: 0x8, addend: 0x0, symName: __ZNK8facebook5react14SharedFunctionIJEE6assignENSt3__18functionIFvvEEE, symObjAddr: 0x1664, symBinAddr: 0x66C8, symSize: 0x78 }
  - { offset: 0x24DEE, size: 0x8, addend: 0x0, symName: '___42-[RCTImageManager requestImage:surfaceId:]_block_invoke_2', symObjAddr: 0xFD0, symBinAddr: 0x6034, symSize: 0x3EC }
  - { offset: 0x25A65, size: 0x8, addend: 0x0, symName: __ZNSt3__110shared_ptrIvEC2B8ne200100IvPDoFvPvELi0EEEPT_T0_, symObjAddr: 0x1FBC, symBinAddr: 0x6A78, symSize: 0x80 }
  - { offset: 0x25BF7, size: 0x8, addend: 0x0, symName: ___copy_helper_block_ea8_32c75_ZTSNSt3__18weak_ptrIKN8facebook5react32ImageResponseObserverCoordinatorEEE, symObjAddr: 0x13BC, symBinAddr: 0x6420, symSize: 0x24 }
  - { offset: 0x25C1F, size: 0x8, addend: 0x0, symName: ___copy_helper_block_ea8_32c75_ZTSNSt3__18weak_ptrIKN8facebook5react32ImageResponseObserverCoordinatorEEE, symObjAddr: 0x13BC, symBinAddr: 0x6420, symSize: 0x24 }
  - { offset: 0x25C44, size: 0x8, addend: 0x0, symName: ___copy_helper_block_ea8_32c75_ZTSNSt3__18weak_ptrIKN8facebook5react32ImageResponseObserverCoordinatorEEE, symObjAddr: 0x13BC, symBinAddr: 0x6420, symSize: 0x24 }
  - { offset: 0x25CA6, size: 0x8, addend: 0x0, symName: ___destroy_helper_block_ea8_32c75_ZTSNSt3__18weak_ptrIKN8facebook5react32ImageResponseObserverCoordinatorEEE, symObjAddr: 0x13E0, symBinAddr: 0x6444, symSize: 0x10 }
  - { offset: 0x25CC8, size: 0x8, addend: 0x0, symName: ___destroy_helper_block_ea8_32c75_ZTSNSt3__18weak_ptrIKN8facebook5react32ImageResponseObserverCoordinatorEEE, symObjAddr: 0x13E0, symBinAddr: 0x6444, symSize: 0x10 }
  - { offset: 0x25CE4, size: 0x8, addend: 0x0, symName: ___destroy_helper_block_ea8_32c75_ZTSNSt3__18weak_ptrIKN8facebook5react32ImageResponseObserverCoordinatorEEE, symObjAddr: 0x13E0, symBinAddr: 0x6444, symSize: 0x10 }
  - { offset: 0x25D02, size: 0x8, addend: 0x0, symName: '___42-[RCTImageManager requestImage:surfaceId:]_block_invoke.3', symObjAddr: 0x13F0, symBinAddr: 0x6454, symSize: 0xC4 }
  - { offset: 0x2604C, size: 0x8, addend: 0x0, symName: __ZN8facebook5react25ImageURLLoaderAttributionD1Ev, symObjAddr: 0x162C, symBinAddr: 0x6690, symSize: 0x38 }
  - { offset: 0x26291, size: 0x8, addend: 0x0, symName: __ZNSt3__18functionIFvvEEaSERKS2_, symObjAddr: 0x2898, symBinAddr: 0x7150, symSize: 0x94 }
  - { offset: 0x2641F, size: 0x8, addend: 0x0, symName: __ZNSt3__111unique_lockINS_12shared_mutexEED2B8ne200100Ev, symObjAddr: 0x2AFC, symBinAddr: 0x73B4, symSize: 0x38 }
  - { offset: 0x2645D, size: 0x8, addend: 0x0, symName: ___copy_helper_block_ea8_32s40s48b56b64c34_ZTSN8facebook5react11ImageSourceE224c41_ZTSN8facebook5react14SharedFunctionIJEEE, symObjAddr: 0x16DC, symBinAddr: 0x6740, symSize: 0xB0 }
  - { offset: 0x265B4, size: 0x8, addend: 0x0, symName: ___destroy_helper_block_ea8_32s40s48s56s64c34_ZTSN8facebook5react11ImageSourceE224c41_ZTSN8facebook5react14SharedFunctionIJEEE, symObjAddr: 0x178C, symBinAddr: 0x67F0, symSize: 0x9C }
  - { offset: 0x26B26, size: 0x8, addend: 0x0, symName: ___copy_helper_block_ea8_32s40s48c75_ZTSNSt3__18weak_ptrIKN8facebook5react32ImageResponseObserverCoordinatorEEE64c34_ZTSN8facebook5react11ImageSourceE224c41_ZTSN8facebook5react14SharedFunctionIJEEE240c41_ZTSN8facebook5react14SharedFunctionIJEEE, symObjAddr: 0x1828, symBinAddr: 0x688C, symSize: 0xC4 }
  - { offset: 0x26E42, size: 0x8, addend: 0x0, symName: ___destroy_helper_block_ea8_32s40s48c75_ZTSNSt3__18weak_ptrIKN8facebook5react32ImageResponseObserverCoordinatorEEE64c34_ZTSN8facebook5react11ImageSourceE224c41_ZTSN8facebook5react14SharedFunctionIJEEE240c41_ZTSN8facebook5react14SharedFunctionIJEEE, symObjAddr: 0x18EC, symBinAddr: 0x6950, symSize: 0xA0 }
  - { offset: 0x27445, size: 0x8, addend: 0x0, symName: '-[RCTImageManager .cxx_destruct]', symObjAddr: 0x198C, symBinAddr: 0x69F0, symSize: 0x30 }
  - { offset: 0x27F45, size: 0x8, addend: 0x0, symName: __ZNSt3__120__shared_ptr_pointerIPvPDoFvS1_ENS_9allocatorIvEEED1Ev, symObjAddr: 0x203C, symBinAddr: 0x6AF8, symSize: 0x4 }
  - { offset: 0x27F67, size: 0x8, addend: 0x0, symName: __ZNSt3__120__shared_ptr_pointerIPvPDoFvS1_ENS_9allocatorIvEEED1Ev, symObjAddr: 0x203C, symBinAddr: 0x6AF8, symSize: 0x4 }
  - { offset: 0x27F9D, size: 0x8, addend: 0x0, symName: __ZNSt3__120__shared_ptr_pointerIPvPDoFvS1_ENS_9allocatorIvEEED0Ev, symObjAddr: 0x2040, symBinAddr: 0x6AFC, symSize: 0x14 }
  - { offset: 0x28000, size: 0x8, addend: 0x0, symName: __ZNSt3__120__shared_ptr_pointerIPvPDoFvS1_ENS_9allocatorIvEEE16__on_zero_sharedEv, symObjAddr: 0x2054, symBinAddr: 0x6B10, symSize: 0x8 }
  - { offset: 0x28033, size: 0x8, addend: 0x0, symName: __ZNKSt3__120__shared_ptr_pointerIPvPDoFvS1_ENS_9allocatorIvEEE13__get_deleterERKSt9type_info, symObjAddr: 0x205C, symBinAddr: 0x6B18, symSize: 0x3C }
  - { offset: 0x2807E, size: 0x8, addend: 0x0, symName: __ZNKSt9type_infoeqB8ne200100ERKS_, symObjAddr: 0x209C, symBinAddr: 0x6B58, symSize: 0x4C }
  - { offset: 0x28160, size: 0x8, addend: 0x0, symName: __ZNSt3__120__shared_ptr_pointerIPvPDoFvS1_ENS_9allocatorIvEEE21__on_zero_shared_weakEv, symObjAddr: 0x2098, symBinAddr: 0x6B54, symSize: 0x4 }
  - { offset: 0x28192, size: 0x8, addend: 0x0, symName: __ZNSt3__120__shared_ptr_pointerIPvPDoFvS1_ENS_9allocatorIvEEE21__on_zero_shared_weakEv, symObjAddr: 0x2098, symBinAddr: 0x6B54, symSize: 0x4 }
  - { offset: 0x281B4, size: 0x8, addend: 0x0, symName: __ZNSt3__120__shared_ptr_pointerIPvPDoFvS1_ENS_9allocatorIvEEE21__on_zero_shared_weakEv, symObjAddr: 0x2098, symBinAddr: 0x6B54, symSize: 0x4 }
  - { offset: 0x281E9, size: 0x8, addend: 0x0, symName: __ZNSt3__120__shared_ptr_pointerIPvPDoFvS1_ENS_9allocatorIvEEE21__on_zero_shared_weakEv, symObjAddr: 0x2098, symBinAddr: 0x6B54, symSize: 0x4 }
  - { offset: 0x28882, size: 0x8, addend: 0x0, symName: __ZNSt3__120__shared_ptr_emplaceIN8facebook5react14ImageTelemetryENS_9allocatorIS3_EEED1Ev, symObjAddr: 0x2594, symBinAddr: 0x6EFC, symSize: 0x14 }
  - { offset: 0x288A4, size: 0x8, addend: 0x0, symName: __ZNSt3__120__shared_ptr_emplaceIN8facebook5react14ImageTelemetryENS_9allocatorIS3_EEED1Ev, symObjAddr: 0x2594, symBinAddr: 0x6EFC, symSize: 0x14 }
  - { offset: 0x288DA, size: 0x8, addend: 0x0, symName: __ZNSt3__120__shared_ptr_emplaceIN8facebook5react14ImageTelemetryENS_9allocatorIS3_EEED0Ev, symObjAddr: 0x25A8, symBinAddr: 0x6F10, symSize: 0x24 }
  - { offset: 0x2893D, size: 0x8, addend: 0x0, symName: __ZNSt3__120__shared_ptr_emplaceIN8facebook5react14ImageTelemetryENS_9allocatorIS3_EEE16__on_zero_sharedEv, symObjAddr: 0x25CC, symBinAddr: 0x6F34, symSize: 0x4 }
  - { offset: 0x289C0, size: 0x8, addend: 0x0, symName: __ZNSt3__120__shared_ptr_emplaceIN8facebook5react14ImageTelemetryENS_9allocatorIS3_EEE21__on_zero_shared_weakEv, symObjAddr: 0x25D0, symBinAddr: 0x6F38, symSize: 0x4 }
  - { offset: 0x289F2, size: 0x8, addend: 0x0, symName: __ZNSt3__120__shared_ptr_emplaceIN8facebook5react14ImageTelemetryENS_9allocatorIS3_EEE21__on_zero_shared_weakEv, symObjAddr: 0x25D0, symBinAddr: 0x6F38, symSize: 0x4 }
  - { offset: 0x28A14, size: 0x8, addend: 0x0, symName: __ZNSt3__120__shared_ptr_emplaceIN8facebook5react14ImageTelemetryENS_9allocatorIS3_EEE21__on_zero_shared_weakEv, symObjAddr: 0x25D0, symBinAddr: 0x6F38, symSize: 0x4 }
  - { offset: 0x28A37, size: 0x8, addend: 0x0, symName: __ZNSt3__120__shared_ptr_emplaceIN8facebook5react14ImageTelemetryENS_9allocatorIS3_EEE21__on_zero_shared_weakEv, symObjAddr: 0x25D0, symBinAddr: 0x6F38, symSize: 0x4 }
  - { offset: 0x28A6C, size: 0x8, addend: 0x0, symName: __ZNSt3__120__shared_ptr_emplaceIN8facebook5react14ImageTelemetryENS_9allocatorIS3_EEE21__on_zero_shared_weakEv, symObjAddr: 0x25D0, symBinAddr: 0x6F38, symSize: 0x4 }
  - { offset: 0x28CCE, size: 0x8, addend: 0x0, symName: __ZNSt3__120__shared_ptr_emplaceIN8facebook5react14SharedFunctionIJEE4PairENS_9allocatorIS5_EEEC2B8ne200100IJNS_8functionIFvvEEEES7_Li0EEES7_DpOT_, symObjAddr: 0x262C, symBinAddr: 0x6F94, symSize: 0x4C }
  - { offset: 0x28E9A, size: 0x8, addend: 0x0, symName: __ZN8facebook5react14SharedFunctionIJEE4PairC2EONSt3__18functionIFvvEEE, symObjAddr: 0x26BC, symBinAddr: 0x7024, symSize: 0x64 }
  - { offset: 0x29028, size: 0x8, addend: 0x0, symName: __ZNSt3__120__shared_ptr_emplaceIN8facebook5react14SharedFunctionIJEE4PairENS_9allocatorIS5_EEED1Ev, symObjAddr: 0x2678, symBinAddr: 0x6FE0, symSize: 0x14 }
  - { offset: 0x2904A, size: 0x8, addend: 0x0, symName: __ZNSt3__120__shared_ptr_emplaceIN8facebook5react14SharedFunctionIJEE4PairENS_9allocatorIS5_EEED1Ev, symObjAddr: 0x2678, symBinAddr: 0x6FE0, symSize: 0x14 }
  - { offset: 0x29080, size: 0x8, addend: 0x0, symName: __ZNSt3__120__shared_ptr_emplaceIN8facebook5react14SharedFunctionIJEE4PairENS_9allocatorIS5_EEED0Ev, symObjAddr: 0x268C, symBinAddr: 0x6FF4, symSize: 0x24 }
  - { offset: 0x2914B, size: 0x8, addend: 0x0, symName: __ZNSt3__120__shared_ptr_emplaceIN8facebook5react14SharedFunctionIJEE4PairENS_9allocatorIS5_EEE16__on_zero_sharedEv, symObjAddr: 0x26B0, symBinAddr: 0x7018, symSize: 0x8 }
  - { offset: 0x29174, size: 0x8, addend: 0x0, symName: __ZNSt3__120__shared_ptr_emplaceIN8facebook5react14SharedFunctionIJEE4PairENS_9allocatorIS5_EEE16__on_zero_sharedEv, symObjAddr: 0x26B0, symBinAddr: 0x7018, symSize: 0x8 }
  - { offset: 0x29191, size: 0x8, addend: 0x0, symName: __ZNSt3__120__shared_ptr_emplaceIN8facebook5react14SharedFunctionIJEE4PairENS_9allocatorIS5_EEE16__on_zero_sharedEv, symObjAddr: 0x26B0, symBinAddr: 0x7018, symSize: 0x8 }
  - { offset: 0x291CF, size: 0x8, addend: 0x0, symName: __ZNSt3__120__shared_ptr_emplaceIN8facebook5react14SharedFunctionIJEE4PairENS_9allocatorIS5_EEE21__on_zero_shared_weakEv, symObjAddr: 0x26B8, symBinAddr: 0x7020, symSize: 0x4 }
  - { offset: 0x29201, size: 0x8, addend: 0x0, symName: __ZNSt3__120__shared_ptr_emplaceIN8facebook5react14SharedFunctionIJEE4PairENS_9allocatorIS5_EEE21__on_zero_shared_weakEv, symObjAddr: 0x26B8, symBinAddr: 0x7020, symSize: 0x4 }
  - { offset: 0x29223, size: 0x8, addend: 0x0, symName: __ZNSt3__120__shared_ptr_emplaceIN8facebook5react14SharedFunctionIJEE4PairENS_9allocatorIS5_EEE21__on_zero_shared_weakEv, symObjAddr: 0x26B8, symBinAddr: 0x7020, symSize: 0x4 }
  - { offset: 0x29246, size: 0x8, addend: 0x0, symName: __ZNSt3__120__shared_ptr_emplaceIN8facebook5react14SharedFunctionIJEE4PairENS_9allocatorIS5_EEE21__on_zero_shared_weakEv, symObjAddr: 0x26B8, symBinAddr: 0x7020, symSize: 0x4 }
  - { offset: 0x2927C, size: 0x8, addend: 0x0, symName: __ZNSt3__120__shared_ptr_emplaceIN8facebook5react14SharedFunctionIJEE4PairENS_9allocatorIS5_EEE21__on_zero_shared_weakEv, symObjAddr: 0x26B8, symBinAddr: 0x7020, symSize: 0x4 }
  - { offset: 0x2934E, size: 0x8, addend: 0x0, symName: __ZNSt3__110__function12__value_funcIFvvEEC2B8ne200100EOS3_, symObjAddr: 0x2720, symBinAddr: 0x7088, symSize: 0x64 }
  - { offset: 0x294DC, size: 0x8, addend: 0x0, symName: __ZNSt3__110__function12__value_funcIFvvEEC2B8ne200100ERKS3_, symObjAddr: 0x292C, symBinAddr: 0x71E4, symSize: 0x64 }
  - { offset: 0x29536, size: 0x8, addend: 0x0, symName: __ZNSt3__110__function12__value_funcIFvvEE4swapB8ne200100ERS3_, symObjAddr: 0x2990, symBinAddr: 0x7248, symSize: 0x16C }
  - { offset: 0x29705, size: 0x8, addend: 0x0, symName: '__ZNSt3__110__function6__funcIZZZ42-[RCTImageManager requestImage:surfaceId:]EUb_EUb0_E3$_0NS_9allocatorIS2_EEFvvEED1Ev', symObjAddr: 0x2B34, symBinAddr: 0x73EC, symSize: 0x28 }
  - { offset: 0x297DA, size: 0x8, addend: 0x0, symName: '__ZNSt3__110__function6__funcIZZZ42-[RCTImageManager requestImage:surfaceId:]EUb_EUb0_E3$_0NS_9allocatorIS2_EEFvvEED0Ev', symObjAddr: 0x2B5C, symBinAddr: 0x7414, symSize: 0x28 }
  - { offset: 0x299E8, size: 0x8, addend: 0x0, symName: '__ZNKSt3__110__function6__funcIZZZ42-[RCTImageManager requestImage:surfaceId:]EUb_EUb0_E3$_0NS_9allocatorIS2_EEFvvEE7__cloneEv', symObjAddr: 0x2B84, symBinAddr: 0x743C, symSize: 0x44 }
  - { offset: 0x29C47, size: 0x8, addend: 0x0, symName: '__ZNKSt3__110__function6__funcIZZZ42-[RCTImageManager requestImage:surfaceId:]EUb_EUb0_E3$_0NS_9allocatorIS2_EEFvvEE7__cloneEPNS0_6__baseIS5_EE', symObjAddr: 0x2BC8, symBinAddr: 0x7480, symSize: 0x34 }
  - { offset: 0x29DA1, size: 0x8, addend: 0x0, symName: '__ZNSt3__110__function6__funcIZZZ42-[RCTImageManager requestImage:surfaceId:]EUb_EUb0_E3$_0NS_9allocatorIS2_EEFvvEE7destroyEv', symObjAddr: 0x2BFC, symBinAddr: 0x74B4, symSize: 0x8 }
  - { offset: 0x29DCA, size: 0x8, addend: 0x0, symName: '__ZNSt3__110__function6__funcIZZZ42-[RCTImageManager requestImage:surfaceId:]EUb_EUb0_E3$_0NS_9allocatorIS2_EEFvvEE7destroyEv', symObjAddr: 0x2BFC, symBinAddr: 0x74B4, symSize: 0x8 }
  - { offset: 0x29DE8, size: 0x8, addend: 0x0, symName: '__ZNSt3__110__function6__funcIZZZ42-[RCTImageManager requestImage:surfaceId:]EUb_EUb0_E3$_0NS_9allocatorIS2_EEFvvEE7destroyEv', symObjAddr: 0x2BFC, symBinAddr: 0x74B4, symSize: 0x8 }
  - { offset: 0x29E05, size: 0x8, addend: 0x0, symName: '__ZNSt3__110__function6__funcIZZZ42-[RCTImageManager requestImage:surfaceId:]EUb_EUb0_E3$_0NS_9allocatorIS2_EEFvvEE7destroyEv', symObjAddr: 0x2BFC, symBinAddr: 0x74B4, symSize: 0x8 }
  - { offset: 0x29E55, size: 0x8, addend: 0x0, symName: '__ZNSt3__110__function6__funcIZZZ42-[RCTImageManager requestImage:surfaceId:]EUb_EUb0_E3$_0NS_9allocatorIS2_EEFvvEE18destroy_deallocateEv', symObjAddr: 0x2C04, symBinAddr: 0x74BC, symSize: 0x28 }
  - { offset: 0x29FC6, size: 0x8, addend: 0x0, symName: '__ZNSt3__110__function6__funcIZZZ42-[RCTImageManager requestImage:surfaceId:]EUb_EUb0_E3$_0NS_9allocatorIS2_EEFvvEEclEv', symObjAddr: 0x2C2C, symBinAddr: 0x74E4, symSize: 0xC }
  - { offset: 0x29FEF, size: 0x8, addend: 0x0, symName: '__ZNSt3__110__function6__funcIZZZ42-[RCTImageManager requestImage:surfaceId:]EUb_EUb0_E3$_0NS_9allocatorIS2_EEFvvEEclEv', symObjAddr: 0x2C2C, symBinAddr: 0x74E4, symSize: 0xC }
  - { offset: 0x2A00D, size: 0x8, addend: 0x0, symName: '__ZNSt3__110__function6__funcIZZZ42-[RCTImageManager requestImage:surfaceId:]EUb_EUb0_E3$_0NS_9allocatorIS2_EEFvvEEclEv', symObjAddr: 0x2C2C, symBinAddr: 0x74E4, symSize: 0xC }
  - { offset: 0x2A02A, size: 0x8, addend: 0x0, symName: '__ZNSt3__110__function6__funcIZZZ42-[RCTImageManager requestImage:surfaceId:]EUb_EUb0_E3$_0NS_9allocatorIS2_EEFvvEEclEv', symObjAddr: 0x2C2C, symBinAddr: 0x74E4, symSize: 0xC }
  - { offset: 0x2A048, size: 0x8, addend: 0x0, symName: '__ZNSt3__110__function6__funcIZZZ42-[RCTImageManager requestImage:surfaceId:]EUb_EUb0_E3$_0NS_9allocatorIS2_EEFvvEEclEv', symObjAddr: 0x2C2C, symBinAddr: 0x74E4, symSize: 0xC }
  - { offset: 0x2A065, size: 0x8, addend: 0x0, symName: '__ZNSt3__110__function6__funcIZZZ42-[RCTImageManager requestImage:surfaceId:]EUb_EUb0_E3$_0NS_9allocatorIS2_EEFvvEEclEv', symObjAddr: 0x2C2C, symBinAddr: 0x74E4, symSize: 0xC }
  - { offset: 0x2A091, size: 0x8, addend: 0x0, symName: '__ZNKSt3__110__function6__funcIZZZ42-[RCTImageManager requestImage:surfaceId:]EUb_EUb0_E3$_0NS_9allocatorIS2_EEFvvEE6targetERKSt9type_info', symObjAddr: 0x2C38, symBinAddr: 0x74F0, symSize: 0x3C }
  - { offset: 0x2A0DD, size: 0x8, addend: 0x0, symName: '__ZNKSt3__110__function6__funcIZZZ42-[RCTImageManager requestImage:surfaceId:]EUb_EUb0_E3$_0NS_9allocatorIS2_EEFvvEE11target_typeEv', symObjAddr: 0x2C74, symBinAddr: 0x752C, symSize: 0xC }
  - { offset: 0x2A193, size: 0x8, addend: 0x0, symName: '__ZNSt3__110__function6__funcIZZ42-[RCTImageManager requestImage:surfaceId:]EUb_E3$_1NS_9allocatorIS2_EEFvvEED1Ev', symObjAddr: 0x2C80, symBinAddr: 0x7538, symSize: 0x28 }
  - { offset: 0x2A268, size: 0x8, addend: 0x0, symName: '__ZNSt3__110__function6__funcIZZ42-[RCTImageManager requestImage:surfaceId:]EUb_E3$_1NS_9allocatorIS2_EEFvvEED0Ev', symObjAddr: 0x2CA8, symBinAddr: 0x7560, symSize: 0x28 }
  - { offset: 0x2A476, size: 0x8, addend: 0x0, symName: '__ZNKSt3__110__function6__funcIZZ42-[RCTImageManager requestImage:surfaceId:]EUb_E3$_1NS_9allocatorIS2_EEFvvEE7__cloneEv', symObjAddr: 0x2CD0, symBinAddr: 0x7588, symSize: 0x44 }
  - { offset: 0x2A6D5, size: 0x8, addend: 0x0, symName: '__ZNKSt3__110__function6__funcIZZ42-[RCTImageManager requestImage:surfaceId:]EUb_E3$_1NS_9allocatorIS2_EEFvvEE7__cloneEPNS0_6__baseIS5_EE', symObjAddr: 0x2D14, symBinAddr: 0x75CC, symSize: 0x34 }
  - { offset: 0x2A82F, size: 0x8, addend: 0x0, symName: '__ZNSt3__110__function6__funcIZZ42-[RCTImageManager requestImage:surfaceId:]EUb_E3$_1NS_9allocatorIS2_EEFvvEE7destroyEv', symObjAddr: 0x2D48, symBinAddr: 0x7600, symSize: 0x8 }
  - { offset: 0x2A858, size: 0x8, addend: 0x0, symName: '__ZNSt3__110__function6__funcIZZ42-[RCTImageManager requestImage:surfaceId:]EUb_E3$_1NS_9allocatorIS2_EEFvvEE7destroyEv', symObjAddr: 0x2D48, symBinAddr: 0x7600, symSize: 0x8 }
  - { offset: 0x2A876, size: 0x8, addend: 0x0, symName: '__ZNSt3__110__function6__funcIZZ42-[RCTImageManager requestImage:surfaceId:]EUb_E3$_1NS_9allocatorIS2_EEFvvEE7destroyEv', symObjAddr: 0x2D48, symBinAddr: 0x7600, symSize: 0x8 }
  - { offset: 0x2A893, size: 0x8, addend: 0x0, symName: '__ZNSt3__110__function6__funcIZZ42-[RCTImageManager requestImage:surfaceId:]EUb_E3$_1NS_9allocatorIS2_EEFvvEE7destroyEv', symObjAddr: 0x2D48, symBinAddr: 0x7600, symSize: 0x8 }
  - { offset: 0x2A8E3, size: 0x8, addend: 0x0, symName: '__ZNSt3__110__function6__funcIZZ42-[RCTImageManager requestImage:surfaceId:]EUb_E3$_1NS_9allocatorIS2_EEFvvEE18destroy_deallocateEv', symObjAddr: 0x2D50, symBinAddr: 0x7608, symSize: 0x28 }
  - { offset: 0x2AA54, size: 0x8, addend: 0x0, symName: '__ZNSt3__110__function6__funcIZZ42-[RCTImageManager requestImage:surfaceId:]EUb_E3$_1NS_9allocatorIS2_EEFvvEEclEv', symObjAddr: 0x2D78, symBinAddr: 0x7630, symSize: 0xC }
  - { offset: 0x2AA7D, size: 0x8, addend: 0x0, symName: '__ZNSt3__110__function6__funcIZZ42-[RCTImageManager requestImage:surfaceId:]EUb_E3$_1NS_9allocatorIS2_EEFvvEEclEv', symObjAddr: 0x2D78, symBinAddr: 0x7630, symSize: 0xC }
  - { offset: 0x2AA9B, size: 0x8, addend: 0x0, symName: '__ZNSt3__110__function6__funcIZZ42-[RCTImageManager requestImage:surfaceId:]EUb_E3$_1NS_9allocatorIS2_EEFvvEEclEv', symObjAddr: 0x2D78, symBinAddr: 0x7630, symSize: 0xC }
  - { offset: 0x2AAB8, size: 0x8, addend: 0x0, symName: '__ZNSt3__110__function6__funcIZZ42-[RCTImageManager requestImage:surfaceId:]EUb_E3$_1NS_9allocatorIS2_EEFvvEEclEv', symObjAddr: 0x2D78, symBinAddr: 0x7630, symSize: 0xC }
  - { offset: 0x2AAD6, size: 0x8, addend: 0x0, symName: '__ZNSt3__110__function6__funcIZZ42-[RCTImageManager requestImage:surfaceId:]EUb_E3$_1NS_9allocatorIS2_EEFvvEEclEv', symObjAddr: 0x2D78, symBinAddr: 0x7630, symSize: 0xC }
  - { offset: 0x2AAF3, size: 0x8, addend: 0x0, symName: '__ZNSt3__110__function6__funcIZZ42-[RCTImageManager requestImage:surfaceId:]EUb_E3$_1NS_9allocatorIS2_EEFvvEEclEv', symObjAddr: 0x2D78, symBinAddr: 0x7630, symSize: 0xC }
  - { offset: 0x2AB1F, size: 0x8, addend: 0x0, symName: '__ZNKSt3__110__function6__funcIZZ42-[RCTImageManager requestImage:surfaceId:]EUb_E3$_1NS_9allocatorIS2_EEFvvEE6targetERKSt9type_info', symObjAddr: 0x2D84, symBinAddr: 0x763C, symSize: 0x3C }
  - { offset: 0x2AB6B, size: 0x8, addend: 0x0, symName: '__ZNKSt3__110__function6__funcIZZ42-[RCTImageManager requestImage:surfaceId:]EUb_E3$_1NS_9allocatorIS2_EEFvvEE11target_typeEv', symObjAddr: 0x2DC0, symBinAddr: 0x7678, symSize: 0xC }
  - { offset: 0x2ABCF, size: 0x8, addend: 0x0, symName: __GLOBAL__sub_I_RCTImageManager.mm, symObjAddr: 0x31E0, symBinAddr: 0x7684, symSize: 0x20 }
  - { offset: 0x2DA78, size: 0x8, addend: 0x0, symName: __ZN8facebook5react17HostPlatformColorL14UndefinedColorE, symObjAddr: 0x4EF10, symBinAddr: 0x147E8, symSize: 0x0 }
  - { offset: 0x33925, size: 0x8, addend: 0x0, symName: '-[RCTSyncImageManager initWithImageLoader:]', symObjAddr: 0x0, symBinAddr: 0x76A4, symSize: 0x80 }
  - { offset: 0x3469A, size: 0x8, addend: 0x0, symName: '-[RCTSyncImageManager requestImage:surfaceId:]', symObjAddr: 0x80, symBinAddr: 0x7724, symSize: 0xB60 }
  - { offset: 0x374AD, size: 0x8, addend: 0x0, symName: '___46-[RCTSyncImageManager requestImage:surfaceId:]_block_invoke', symObjAddr: 0xC58, symBinAddr: 0x8284, symSize: 0x3F8 }
  - { offset: 0x38261, size: 0x8, addend: 0x0, symName: ___copy_helper_block_ea8_32s40c75_ZTSNSt3__18weak_ptrIKN8facebook5react32ImageResponseObserverCoordinatorEEE, symObjAddr: 0x1050, symBinAddr: 0x867C, symSize: 0x48 }
  - { offset: 0x38314, size: 0x8, addend: 0x0, symName: ___destroy_helper_block_ea8_32s40c75_ZTSNSt3__18weak_ptrIKN8facebook5react32ImageResponseObserverCoordinatorEEE, symObjAddr: 0x1098, symBinAddr: 0x86C4, symSize: 0x2C }
  - { offset: 0x38370, size: 0x8, addend: 0x0, symName: '___46-[RCTSyncImageManager requestImage:surfaceId:]_block_invoke.1', symObjAddr: 0x10C4, symBinAddr: 0x86F0, symSize: 0xC4 }
  - { offset: 0x384C9, size: 0x8, addend: 0x0, symName: '-[RCTSyncImageManager .cxx_destruct]', symObjAddr: 0x11F4, symBinAddr: 0x87B4, symSize: 0xC }
  - { offset: 0x39525, size: 0x8, addend: 0x0, symName: __GLOBAL__sub_I_RCTSyncImageManager.mm, symObjAddr: 0x1FF0, symBinAddr: 0x87C0, symSize: 0x20 }
...
