---
triple:          'arm64-apple-darwin'
binary-path:     '/Users/uk-aplatts/Development/InjuryIQ/ios/DerivedData/Build/Intermediates.noindex/ArchiveIntermediates/InjuryIQ/IntermediateBuildFilesPath/UninstalledProducts/iphoneos/RNWorklets.framework/RNWorklets'
relocations:
  - { offset: 0x33, size: 0x8, addend: 0x0, symName: _RNWorkletsVersionString, symObjAddr: 0x0, symBinAddr: 0x3D7E0, symSize: 0x0 }
  - { offset: 0x67, size: 0x8, addend: 0x0, symName: _RNWorkletsVersionNumber, symObjAddr: 0x28, symBinAddr: 0x3D808, symSize: 0x0 }
  - { offset: 0xBCEE, size: 0x8, addend: 0x0, symName: __ZNSt3__115allocate_sharedB8ne200100IKN8facebook3jsi5ValueENS_9allocatorIS3_EEJRNS2_7RuntimeERS4_ELi0EEENS_10shared_ptrIT_EERKT0_DpOT1_, symObjAddr: 0x518, symBinAddr: 0x4518, symSize: 0x60 }
  - { offset: 0xC0D2, size: 0x8, addend: 0x0, symName: __ZNSt3__119__allocate_at_leastB8ne200100INS_9allocatorINS_10shared_ptrIKN8facebook3jsi5ValueEEEEEEENS_19__allocation_resultINS_16allocator_traitsIT_E7pointerEEERSB_m, symObjAddr: 0x470, symBinAddr: 0x4470, symSize: 0x34 }
  - { offset: 0xC17E, size: 0x8, addend: 0x0, symName: __ZSt28__throw_bad_array_new_lengthB8ne200100v, symObjAddr: 0x4A4, symBinAddr: 0x44A4, symSize: 0x28 }
  - { offset: 0xC2FE, size: 0x8, addend: 0x0, symName: __ZNSt3__125__throw_bad_function_callB8ne200100Ev, symObjAddr: 0x928, symBinAddr: 0x48D0, symSize: 0x34 }
  - { offset: 0xC45D, size: 0x8, addend: 0x0, symName: __ZNSt3__120__throw_length_errorB8ne200100EPKc, symObjAddr: 0x3FC, symBinAddr: 0x43FC, symSize: 0x50 }
  - { offset: 0xE6E3, size: 0x8, addend: 0x0, symName: __ZSt28__throw_bad_array_new_lengthB8ne200100v, symObjAddr: 0x4A4, symBinAddr: 0x44A4, symSize: 0x28 }
  - { offset: 0xEFD3, size: 0x8, addend: 0x0, symName: __ZN8worklets19runOnRuntimeGuardedIJRdEEEN8facebook3jsi5ValueERNS3_7RuntimeERKS4_DpOT_, symObjAddr: 0xC1C, symBinAddr: 0x4BC4, symSize: 0x144 }
  - { offset: 0xF652, size: 0x8, addend: 0x0, symName: __ZN8worklets25AnimationFrameBatchinator27getJsiRequestAnimationFrameEv, symObjAddr: 0x2C4, symBinAddr: 0x42C4, symSize: 0x30 }
  - { offset: 0xF6D4, size: 0x8, addend: 0x0, symName: __ZN8worklets25AnimationFrameBatchinator27getJsiRequestAnimationFrameEv, symObjAddr: 0x2C4, symBinAddr: 0x42C4, symSize: 0x30 }
  - { offset: 0xF6EF, size: 0x8, addend: 0x0, symName: __ZN8worklets25AnimationFrameBatchinator27getJsiRequestAnimationFrameEv, symObjAddr: 0x2C4, symBinAddr: 0x42C4, symSize: 0x30 }
  - { offset: 0xF70B, size: 0x8, addend: 0x0, symName: __ZN8worklets25AnimationFrameBatchinator27getJsiRequestAnimationFrameEv, symObjAddr: 0x2C4, symBinAddr: 0x42C4, symSize: 0x30 }
  - { offset: 0xF938, size: 0x8, addend: 0x0, symName: __ZN8worklets25AnimationFrameBatchinator5flushEv, symObjAddr: 0x1AC, symBinAddr: 0x41AC, symSize: 0x118 }
  - { offset: 0xFF00, size: 0x8, addend: 0x0, symName: __ZN8worklets25AnimationFrameBatchinator10addToBatchERKN8facebook3jsi5ValueE, symObjAddr: 0x0, symBinAddr: 0x4000, symSize: 0xBC }
  - { offset: 0x1011A, size: 0x8, addend: 0x0, symName: __ZNSt3__16vectorINS_10shared_ptrIKN8facebook3jsi5ValueEEENS_9allocatorIS6_EEE9push_backB8ne200100EOS6_, symObjAddr: 0xBC, symBinAddr: 0x40BC, symSize: 0xF0 }
  - { offset: 0x1053D, size: 0x8, addend: 0x0, symName: __ZN8worklets25AnimationFrameBatchinator5flushEv, symObjAddr: 0x1AC, symBinAddr: 0x41AC, symSize: 0x118 }
  - { offset: 0x10548, size: 0x8, addend: 0x0, symName: __ZNSt3__110shared_ptrIKN8facebook3jsi5ValueEED2B8ne200100Ev, symObjAddr: 0x608, symBinAddr: 0x4608, symSize: 0x58 }
  - { offset: 0x1087B, size: 0x8, addend: 0x0, symName: __ZNSt3__114__split_bufferINS_10shared_ptrIKN8facebook3jsi5ValueEEERNS_9allocatorIS6_EEED2Ev, symObjAddr: 0x4CC, symBinAddr: 0x44CC, symSize: 0x4C }
  - { offset: 0x109E5, size: 0x8, addend: 0x0, symName: __ZNSt3__16vectorINS_10shared_ptrIKN8facebook3jsi5ValueEEENS_9allocatorIS6_EEE20__throw_length_errorB8ne200100Ev, symObjAddr: 0x3D8, symBinAddr: 0x43D8, symSize: 0x14 }
  - { offset: 0x109FD, size: 0x8, addend: 0x0, symName: ___clang_call_terminate, symObjAddr: 0x3EC, symBinAddr: 0x43EC, symSize: 0x10 }
  - { offset: 0x110D6, size: 0x8, addend: 0x0, symName: __ZN8worklets25AnimationFrameBatchinator13pullCallbacksEv, symObjAddr: 0x2F4, symBinAddr: 0x42F4, symSize: 0x44 }
  - { offset: 0x11319, size: 0x8, addend: 0x0, symName: __ZN8worklets25AnimationFrameBatchinatorC2ERN8facebook3jsi7RuntimeEONSt3__18functionIFvNS6_IFvdEEEEEE, symObjAddr: 0x338, symBinAddr: 0x4338, symSize: 0x50 }
  - { offset: 0x114C8, size: 0x8, addend: 0x0, symName: __ZNSt3__110__function12__value_funcIFvNS_8functionIFvdEEEEEC2B8ne200100EOS6_, symObjAddr: 0xDD0, symBinAddr: 0x4D78, symSize: 0x64 }
  - { offset: 0x1154E, size: 0x8, addend: 0x0, symName: __ZN8worklets25AnimationFrameBatchinatorC1ERN8facebook3jsi7RuntimeEONSt3__18functionIFvNS6_IFvdEEEEEE, symObjAddr: 0x388, symBinAddr: 0x4388, symSize: 0x50 }
  - { offset: 0x11743, size: 0x8, addend: 0x0, symName: __ZNSt12length_errorC1B8ne200100EPKc, symObjAddr: 0x44C, symBinAddr: 0x444C, symSize: 0x24 }
  - { offset: 0x11B21, size: 0x8, addend: 0x0, symName: __ZNSt3__120__shared_ptr_emplaceIKN8facebook3jsi5ValueENS_9allocatorIS3_EEEC2B8ne200100IJRNS2_7RuntimeERS4_ES6_Li0EEES6_DpOT_, symObjAddr: 0x578, symBinAddr: 0x4578, symSize: 0x4C }
  - { offset: 0x11D16, size: 0x8, addend: 0x0, symName: __ZNSt3__120__shared_ptr_emplaceIKN8facebook3jsi5ValueENS_9allocatorIS3_EEED1Ev, symObjAddr: 0x5C4, symBinAddr: 0x45C4, symSize: 0x14 }
  - { offset: 0x11D38, size: 0x8, addend: 0x0, symName: __ZNSt3__120__shared_ptr_emplaceIKN8facebook3jsi5ValueENS_9allocatorIS3_EEED1Ev, symObjAddr: 0x5C4, symBinAddr: 0x45C4, symSize: 0x14 }
  - { offset: 0x11D6E, size: 0x8, addend: 0x0, symName: __ZNSt3__120__shared_ptr_emplaceIKN8facebook3jsi5ValueENS_9allocatorIS3_EEED0Ev, symObjAddr: 0x5D8, symBinAddr: 0x45D8, symSize: 0x24 }
  - { offset: 0x11E3A, size: 0x8, addend: 0x0, symName: __ZNSt3__120__shared_ptr_emplaceIKN8facebook3jsi5ValueENS_9allocatorIS3_EEE16__on_zero_sharedEv, symObjAddr: 0x5FC, symBinAddr: 0x45FC, symSize: 0x8 }
  - { offset: 0x11E63, size: 0x8, addend: 0x0, symName: __ZNSt3__120__shared_ptr_emplaceIKN8facebook3jsi5ValueENS_9allocatorIS3_EEE16__on_zero_sharedEv, symObjAddr: 0x5FC, symBinAddr: 0x45FC, symSize: 0x8 }
  - { offset: 0x11E81, size: 0x8, addend: 0x0, symName: __ZNSt3__120__shared_ptr_emplaceIKN8facebook3jsi5ValueENS_9allocatorIS3_EEE16__on_zero_sharedEv, symObjAddr: 0x5FC, symBinAddr: 0x45FC, symSize: 0x8 }
  - { offset: 0x11EC7, size: 0x8, addend: 0x0, symName: __ZNSt3__120__shared_ptr_emplaceIKN8facebook3jsi5ValueENS_9allocatorIS3_EEE21__on_zero_shared_weakEv, symObjAddr: 0x604, symBinAddr: 0x4604, symSize: 0x4 }
  - { offset: 0x11EFA, size: 0x8, addend: 0x0, symName: __ZNSt3__120__shared_ptr_emplaceIKN8facebook3jsi5ValueENS_9allocatorIS3_EEE21__on_zero_shared_weakEv, symObjAddr: 0x604, symBinAddr: 0x4604, symSize: 0x4 }
  - { offset: 0x11F1B, size: 0x8, addend: 0x0, symName: __ZNSt3__120__shared_ptr_emplaceIKN8facebook3jsi5ValueENS_9allocatorIS3_EEE21__on_zero_shared_weakEv, symObjAddr: 0x604, symBinAddr: 0x4604, symSize: 0x4 }
  - { offset: 0x11F3D, size: 0x8, addend: 0x0, symName: __ZNSt3__120__shared_ptr_emplaceIKN8facebook3jsi5ValueENS_9allocatorIS3_EEE21__on_zero_shared_weakEv, symObjAddr: 0x604, symBinAddr: 0x4604, symSize: 0x4 }
  - { offset: 0x11F6F, size: 0x8, addend: 0x0, symName: __ZNSt3__120__shared_ptr_emplaceIKN8facebook3jsi5ValueENS_9allocatorIS3_EEE21__on_zero_shared_weakEv, symObjAddr: 0x604, symBinAddr: 0x4604, symSize: 0x4 }
  - { offset: 0x1205C, size: 0x8, addend: 0x0, symName: '__ZNSt3__110__function6__funcIZN8worklets25AnimationFrameBatchinator27getJsiRequestAnimationFrameEvE3$_0NS_9allocatorIS4_EEFvRN8facebook3jsi7RuntimeERKNS8_5ValueEEED1Ev', symObjAddr: 0x660, symBinAddr: 0x4660, symSize: 0x38 }
  - { offset: 0x1216F, size: 0x8, addend: 0x0, symName: '__ZNSt3__110__function6__funcIZN8worklets25AnimationFrameBatchinator27getJsiRequestAnimationFrameEvE3$_0NS_9allocatorIS4_EEFvRN8facebook3jsi7RuntimeERKNS8_5ValueEEED0Ev', symObjAddr: 0x698, symBinAddr: 0x4698, symSize: 0x38 }
  - { offset: 0x123B9, size: 0x8, addend: 0x0, symName: '__ZNKSt3__110__function6__funcIZN8worklets25AnimationFrameBatchinator27getJsiRequestAnimationFrameEvE3$_0NS_9allocatorIS4_EEFvRN8facebook3jsi7RuntimeERKNS8_5ValueEEE7__cloneEv', symObjAddr: 0x6D0, symBinAddr: 0x46D0, symSize: 0x50 }
  - { offset: 0x1263F, size: 0x8, addend: 0x0, symName: '__ZNKSt3__110__function6__funcIZN8worklets25AnimationFrameBatchinator27getJsiRequestAnimationFrameEvE3$_0NS_9allocatorIS4_EEFvRN8facebook3jsi7RuntimeERKNS8_5ValueEEE7__cloneEPNS0_6__baseISE_EE', symObjAddr: 0x720, symBinAddr: 0x4720, symSize: 0x30 }
  - { offset: 0x12675, size: 0x8, addend: 0x0, symName: '__ZNKSt3__110__function6__funcIZN8worklets25AnimationFrameBatchinator27getJsiRequestAnimationFrameEvE3$_0NS_9allocatorIS4_EEFvRN8facebook3jsi7RuntimeERKNS8_5ValueEEE7__cloneEPNS0_6__baseISE_EE', symObjAddr: 0x720, symBinAddr: 0x4720, symSize: 0x30 }
  - { offset: 0x126A3, size: 0x8, addend: 0x0, symName: '__ZNKSt3__110__function6__funcIZN8worklets25AnimationFrameBatchinator27getJsiRequestAnimationFrameEvE3$_0NS_9allocatorIS4_EEFvRN8facebook3jsi7RuntimeERKNS8_5ValueEEE7__cloneEPNS0_6__baseISE_EE', symObjAddr: 0x720, symBinAddr: 0x4720, symSize: 0x30 }
  - { offset: 0x127B5, size: 0x8, addend: 0x0, symName: '__ZNSt3__110__function6__funcIZN8worklets25AnimationFrameBatchinator27getJsiRequestAnimationFrameEvE3$_0NS_9allocatorIS4_EEFvRN8facebook3jsi7RuntimeERKNS8_5ValueEEE7destroyEv', symObjAddr: 0x750, symBinAddr: 0x4750, symSize: 0x10 }
  - { offset: 0x127DE, size: 0x8, addend: 0x0, symName: '__ZNSt3__110__function6__funcIZN8worklets25AnimationFrameBatchinator27getJsiRequestAnimationFrameEvE3$_0NS_9allocatorIS4_EEFvRN8facebook3jsi7RuntimeERKNS8_5ValueEEE7destroyEv', symObjAddr: 0x750, symBinAddr: 0x4750, symSize: 0x10 }
  - { offset: 0x127FD, size: 0x8, addend: 0x0, symName: '__ZNSt3__110__function6__funcIZN8worklets25AnimationFrameBatchinator27getJsiRequestAnimationFrameEvE3$_0NS_9allocatorIS4_EEFvRN8facebook3jsi7RuntimeERKNS8_5ValueEEE7destroyEv', symObjAddr: 0x750, symBinAddr: 0x4750, symSize: 0x10 }
  - { offset: 0x1281B, size: 0x8, addend: 0x0, symName: '__ZNSt3__110__function6__funcIZN8worklets25AnimationFrameBatchinator27getJsiRequestAnimationFrameEvE3$_0NS_9allocatorIS4_EEFvRN8facebook3jsi7RuntimeERKNS8_5ValueEEE7destroyEv', symObjAddr: 0x750, symBinAddr: 0x4750, symSize: 0x10 }
  - { offset: 0x12839, size: 0x8, addend: 0x0, symName: '__ZNSt3__110__function6__funcIZN8worklets25AnimationFrameBatchinator27getJsiRequestAnimationFrameEvE3$_0NS_9allocatorIS4_EEFvRN8facebook3jsi7RuntimeERKNS8_5ValueEEE7destroyEv', symObjAddr: 0x750, symBinAddr: 0x4750, symSize: 0x10 }
  - { offset: 0x12857, size: 0x8, addend: 0x0, symName: '__ZNSt3__110__function6__funcIZN8worklets25AnimationFrameBatchinator27getJsiRequestAnimationFrameEvE3$_0NS_9allocatorIS4_EEFvRN8facebook3jsi7RuntimeERKNS8_5ValueEEE7destroyEv', symObjAddr: 0x750, symBinAddr: 0x4750, symSize: 0x10 }
  - { offset: 0x128AA, size: 0x8, addend: 0x0, symName: '__ZNSt3__110__function6__funcIZN8worklets25AnimationFrameBatchinator27getJsiRequestAnimationFrameEvE3$_0NS_9allocatorIS4_EEFvRN8facebook3jsi7RuntimeERKNS8_5ValueEEE18destroy_deallocateEv', symObjAddr: 0x760, symBinAddr: 0x4760, symSize: 0x2C }
  - { offset: 0x12B14, size: 0x8, addend: 0x0, symName: '__ZNSt3__110__function6__funcIZN8worklets25AnimationFrameBatchinator27getJsiRequestAnimationFrameEvE3$_0NS_9allocatorIS4_EEFvRN8facebook3jsi7RuntimeERKNS8_5ValueEEEclESA_SD_', symObjAddr: 0x78C, symBinAddr: 0x478C, symSize: 0xB0 }
  - { offset: 0x12D2B, size: 0x8, addend: 0x0, symName: '__ZNKSt3__110__function6__funcIZN8worklets25AnimationFrameBatchinator27getJsiRequestAnimationFrameEvE3$_0NS_9allocatorIS4_EEFvRN8facebook3jsi7RuntimeERKNS8_5ValueEEE6targetERKSt9type_info', symObjAddr: 0x83C, symBinAddr: 0x483C, symSize: 0x3C }
  - { offset: 0x12D78, size: 0x8, addend: 0x0, symName: __ZNKSt9type_infoeqB8ne200100ERKS_, symObjAddr: 0x8DC, symBinAddr: 0x4884, symSize: 0x4C }
  - { offset: 0x12E18, size: 0x8, addend: 0x0, symName: '__ZNKSt3__110__function6__funcIZN8worklets25AnimationFrameBatchinator27getJsiRequestAnimationFrameEvE3$_0NS_9allocatorIS4_EEFvRN8facebook3jsi7RuntimeERKNS8_5ValueEEE11target_typeEv', symObjAddr: 0x878, symBinAddr: 0x4878, symSize: 0xC }
  - { offset: 0x12EEA, size: 0x8, addend: 0x0, symName: __ZNSt3__117bad_function_callD1Ev, symObjAddr: 0x95C, symBinAddr: 0x4904, symSize: 0x4 }
  - { offset: 0x12F0C, size: 0x8, addend: 0x0, symName: __ZNSt3__117bad_function_callD1Ev, symObjAddr: 0x95C, symBinAddr: 0x4904, symSize: 0x4 }
  - { offset: 0x12F40, size: 0x8, addend: 0x0, symName: __ZNSt3__117bad_function_callD0Ev, symObjAddr: 0x960, symBinAddr: 0x4908, symSize: 0x14 }
  - { offset: 0x1302E, size: 0x8, addend: 0x0, symName: '__ZNSt3__110__function6__funcIZN8worklets25AnimationFrameBatchinator5flushEvE3$_0NS_9allocatorIS4_EEFvdEED1Ev', symObjAddr: 0x974, symBinAddr: 0x491C, symSize: 0x38 }
  - { offset: 0x13141, size: 0x8, addend: 0x0, symName: '__ZNSt3__110__function6__funcIZN8worklets25AnimationFrameBatchinator5flushEvE3$_0NS_9allocatorIS4_EEFvdEED0Ev', symObjAddr: 0x9AC, symBinAddr: 0x4954, symSize: 0x38 }
  - { offset: 0x1338B, size: 0x8, addend: 0x0, symName: '__ZNKSt3__110__function6__funcIZN8worklets25AnimationFrameBatchinator5flushEvE3$_0NS_9allocatorIS4_EEFvdEE7__cloneEv', symObjAddr: 0x9E4, symBinAddr: 0x498C, symSize: 0x50 }
  - { offset: 0x13611, size: 0x8, addend: 0x0, symName: '__ZNKSt3__110__function6__funcIZN8worklets25AnimationFrameBatchinator5flushEvE3$_0NS_9allocatorIS4_EEFvdEE7__cloneEPNS0_6__baseIS7_EE', symObjAddr: 0xA34, symBinAddr: 0x49DC, symSize: 0x30 }
  - { offset: 0x13647, size: 0x8, addend: 0x0, symName: '__ZNKSt3__110__function6__funcIZN8worklets25AnimationFrameBatchinator5flushEvE3$_0NS_9allocatorIS4_EEFvdEE7__cloneEPNS0_6__baseIS7_EE', symObjAddr: 0xA34, symBinAddr: 0x49DC, symSize: 0x30 }
  - { offset: 0x13675, size: 0x8, addend: 0x0, symName: '__ZNKSt3__110__function6__funcIZN8worklets25AnimationFrameBatchinator5flushEvE3$_0NS_9allocatorIS4_EEFvdEE7__cloneEPNS0_6__baseIS7_EE', symObjAddr: 0xA34, symBinAddr: 0x49DC, symSize: 0x30 }
  - { offset: 0x13787, size: 0x8, addend: 0x0, symName: '__ZNSt3__110__function6__funcIZN8worklets25AnimationFrameBatchinator5flushEvE3$_0NS_9allocatorIS4_EEFvdEE7destroyEv', symObjAddr: 0xA64, symBinAddr: 0x4A0C, symSize: 0x10 }
  - { offset: 0x137B0, size: 0x8, addend: 0x0, symName: '__ZNSt3__110__function6__funcIZN8worklets25AnimationFrameBatchinator5flushEvE3$_0NS_9allocatorIS4_EEFvdEE7destroyEv', symObjAddr: 0xA64, symBinAddr: 0x4A0C, symSize: 0x10 }
  - { offset: 0x137CF, size: 0x8, addend: 0x0, symName: '__ZNSt3__110__function6__funcIZN8worklets25AnimationFrameBatchinator5flushEvE3$_0NS_9allocatorIS4_EEFvdEE7destroyEv', symObjAddr: 0xA64, symBinAddr: 0x4A0C, symSize: 0x10 }
  - { offset: 0x137ED, size: 0x8, addend: 0x0, symName: '__ZNSt3__110__function6__funcIZN8worklets25AnimationFrameBatchinator5flushEvE3$_0NS_9allocatorIS4_EEFvdEE7destroyEv', symObjAddr: 0xA64, symBinAddr: 0x4A0C, symSize: 0x10 }
  - { offset: 0x1380B, size: 0x8, addend: 0x0, symName: '__ZNSt3__110__function6__funcIZN8worklets25AnimationFrameBatchinator5flushEvE3$_0NS_9allocatorIS4_EEFvdEE7destroyEv', symObjAddr: 0xA64, symBinAddr: 0x4A0C, symSize: 0x10 }
  - { offset: 0x13829, size: 0x8, addend: 0x0, symName: '__ZNSt3__110__function6__funcIZN8worklets25AnimationFrameBatchinator5flushEvE3$_0NS_9allocatorIS4_EEFvdEE7destroyEv', symObjAddr: 0xA64, symBinAddr: 0x4A0C, symSize: 0x10 }
  - { offset: 0x1387C, size: 0x8, addend: 0x0, symName: '__ZNSt3__110__function6__funcIZN8worklets25AnimationFrameBatchinator5flushEvE3$_0NS_9allocatorIS4_EEFvdEE18destroy_deallocateEv', symObjAddr: 0xA74, symBinAddr: 0x4A1C, symSize: 0x2C }
  - { offset: 0x13BCF, size: 0x8, addend: 0x0, symName: '__ZNSt3__110__function6__funcIZN8worklets25AnimationFrameBatchinator5flushEvE3$_0NS_9allocatorIS4_EEFvdEEclEOd', symObjAddr: 0xAA0, symBinAddr: 0x4A48, symSize: 0x134 }
  - { offset: 0x140D6, size: 0x8, addend: 0x0, symName: __ZNSt3__16vectorINS_10shared_ptrIKN8facebook3jsi5ValueEEENS_9allocatorIS6_EEE16__destroy_vectorclB8ne200100Ev, symObjAddr: 0xD60, symBinAddr: 0x4D08, symSize: 0x70 }
  - { offset: 0x1424B, size: 0x8, addend: 0x0, symName: '__ZNKSt3__110__function6__funcIZN8worklets25AnimationFrameBatchinator5flushEvE3$_0NS_9allocatorIS4_EEFvdEE6targetERKSt9type_info', symObjAddr: 0xBD4, symBinAddr: 0x4B7C, symSize: 0x3C }
  - { offset: 0x14298, size: 0x8, addend: 0x0, symName: '__ZNKSt3__110__function6__funcIZN8worklets25AnimationFrameBatchinator5flushEvE3$_0NS_9allocatorIS4_EEFvdEE11target_typeEv', symObjAddr: 0xC10, symBinAddr: 0x4BB8, symSize: 0xC }
  - { offset: 0x16959, size: 0x8, addend: 0x0, symName: __ZN14FrameRateRangeL4BESTE, symObjAddr: 0x24798, symBinAddr: 0x58CE8, symSize: 0x0 }
  - { offset: 0x16973, size: 0x8, addend: 0x0, symName: __ZN14FrameRateRangeL8STANDARDE, symObjAddr: 0x247A4, symBinAddr: 0x58CF4, symSize: 0x0 }
  - { offset: 0x1698D, size: 0x8, addend: 0x0, symName: __ZN14FrameRateRangeL3LOWE, symObjAddr: 0x247B0, symBinAddr: 0x58D00, symSize: 0x0 }
  - { offset: 0x169A7, size: 0x8, addend: 0x0, symName: __ZN14FrameRateRangeL4POORE, symObjAddr: 0x247BC, symBinAddr: 0x58D0C, symSize: 0x0 }
  - { offset: 0x1890C, size: 0x8, addend: 0x0, symName: __ZNSt3__119__allocate_at_leastB8ne200100INS_9allocatorINS_8functionIFvdEEEEEEENS_19__allocation_resultINS_16allocator_traitsIT_E7pointerEEERS8_m, symObjAddr: 0x6FC, symBinAddr: 0x5440, symSize: 0x34 }
  - { offset: 0x189CC, size: 0x8, addend: 0x0, symName: __ZNSt3__134__uninitialized_allocator_relocateB8ne200100INS_9allocatorINS_8functionIFvdEEEEEPS4_EEvRT_T0_S9_S9_, symObjAddr: 0x758, symBinAddr: 0x5474, symSize: 0xC4 }
  - { offset: 0x1A001, size: 0x8, addend: 0x0, symName: '-[AnimationFrameQueue init]', symObjAddr: 0x0, symBinAddr: 0x4DDC, symSize: 0x120 }
  - { offset: 0x1A0EB, size: 0x8, addend: 0x0, symName: '-[AnimationFrameQueue requestAnimationFrame:]', symObjAddr: 0x120, symBinAddr: 0x4EFC, symSize: 0x54 }
  - { offset: 0x1A1DB, size: 0x8, addend: 0x0, symName: __ZNSt3__16vectorINS_8functionIFvdEEENS_9allocatorIS3_EEE9push_backB8ne200100ERKS3_, symObjAddr: 0x174, symBinAddr: 0x4F50, symSize: 0x50 }
  - { offset: 0x1A555, size: 0x8, addend: 0x0, symName: __ZNSt3__110__function12__value_funcIFvdEEC2B8ne200100ERKS3_, symObjAddr: 0x600, symBinAddr: 0x53DC, symSize: 0x64 }
  - { offset: 0x1A5B0, size: 0x8, addend: 0x0, symName: __ZNSt3__16vectorINS_8functionIFvdEEENS_9allocatorIS3_EEE24__emplace_back_slow_pathIJRKS3_EEEPS3_DpOT_, symObjAddr: 0x4F4, symBinAddr: 0x52D0, symSize: 0x10C }
  - { offset: 0x1A914, size: 0x8, addend: 0x0, symName: '-[AnimationFrameQueue invalidate]', symObjAddr: 0x1C4, symBinAddr: 0x4FA0, symSize: 0x8 }
  - { offset: 0x1A947, size: 0x8, addend: 0x0, symName: '-[AnimationFrameQueue scheduleQueueExecution]', symObjAddr: 0x1CC, symBinAddr: 0x4FA8, symSize: 0xC }
  - { offset: 0x1AA79, size: 0x8, addend: 0x0, symName: '-[AnimationFrameQueue executeQueue:]', symObjAddr: 0x1D8, symBinAddr: 0x4FB4, symSize: 0xE8 }
  - { offset: 0x1AD28, size: 0x8, addend: 0x0, symName: __ZNSt3__16vectorINS_8functionIFvdEEENS_9allocatorIS3_EEE16__destroy_vectorclB8ne200100Ev, symObjAddr: 0x9B4, symBinAddr: 0x56D0, symSize: 0x94 }
  - { offset: 0x1AFD5, size: 0x8, addend: 0x0, symName: '-[AnimationFrameQueue executeQueueForProMotion:]', symObjAddr: 0x2C0, symBinAddr: 0x509C, symSize: 0x184 }
  - { offset: 0x1B15C, size: 0x8, addend: 0x0, symName: '-[AnimationFrameQueue pullCallbacks]', symObjAddr: 0x444, symBinAddr: 0x5220, symSize: 0x44 }
  - { offset: 0x1B23E, size: 0x8, addend: 0x0, symName: '-[AnimationFrameQueue .cxx_destruct]', symObjAddr: 0x488, symBinAddr: 0x5264, symSize: 0x48 }
  - { offset: 0x1B377, size: 0x8, addend: 0x0, symName: '-[AnimationFrameQueue .cxx_construct]', symObjAddr: 0x4D0, symBinAddr: 0x52AC, symSize: 0x24 }
  - { offset: 0x1B3AE, size: 0x8, addend: 0x0, symName: '-[AnimationFrameQueue .cxx_construct]', symObjAddr: 0x4D0, symBinAddr: 0x52AC, symSize: 0x24 }
  - { offset: 0x1B3CB, size: 0x8, addend: 0x0, symName: '-[AnimationFrameQueue .cxx_construct]', symObjAddr: 0x4D0, symBinAddr: 0x52AC, symSize: 0x24 }
  - { offset: 0x1B56A, size: 0x8, addend: 0x0, symName: __ZNSt3__114__split_bufferINS_8functionIFvdEEERNS_9allocatorIS3_EEED2Ev, symObjAddr: 0x918, symBinAddr: 0x5634, symSize: 0x30 }
  - { offset: 0x1B84F, size: 0x8, addend: 0x0, symName: __ZNSt3__110__function12__value_funcIFvdEEC2B8ne200100EOS3_, symObjAddr: 0x81C, symBinAddr: 0x5538, symSize: 0x64 }
  - { offset: 0x1B89E, size: 0x8, addend: 0x0, symName: __ZNSt3__128__exception_guard_exceptionsINS_29_AllocatorDestroyRangeReverseINS_9allocatorINS_8functionIFvdEEEEEPS5_EEED2B8ne200100Ev, symObjAddr: 0x880, symBinAddr: 0x559C, symSize: 0x34 }
  - { offset: 0x1B8DE, size: 0x8, addend: 0x0, symName: __ZNKSt3__129_AllocatorDestroyRangeReverseINS_9allocatorINS_8functionIFvdEEEEEPS4_EclB8ne200100Ev, symObjAddr: 0x8B4, symBinAddr: 0x55D0, symSize: 0x64 }
  - { offset: 0x1BACE, size: 0x8, addend: 0x0, symName: __ZNSt3__114__split_bufferINS_8functionIFvdEEERNS_9allocatorIS3_EEE5clearB8ne200100Ev, symObjAddr: 0x948, symBinAddr: 0x5664, symSize: 0x6C }
  - { offset: 0x1BCFC, size: 0x8, addend: 0x0, symName: __GLOBAL__sub_I_AnimationFrameQueue.mm, symObjAddr: 0xB70, symBinAddr: 0x5764, symSize: 0xB8 }
  - { offset: 0x2491A, size: 0x8, addend: 0x0, symName: __ZNSt3__119__allocate_at_leastB8ne200100INS_9allocatorIPNS_8functionIFvvEEEEEEENS_19__allocation_resultINS_16allocator_traitsIT_E7pointerEEERS9_m, symObjAddr: 0xFA8, symBinAddr: 0x6614, symSize: 0x34 }
  - { offset: 0x252C9, size: 0x8, addend: 0x0, symName: '__ZNSt3__114__thread_proxyB8ne200100INS_5tupleIJNS_10unique_ptrINS_15__thread_structENS_14default_deleteIS3_EEEEZN8worklets14AsyncQueueImplC1ENS_12basic_stringIcNS_11char_traitsIcEENS_9allocatorIcEEEEE3$_0EEEEEPvSH_', symObjAddr: 0x11C0, symBinAddr: 0x6718, symSize: 0x268 }
  - { offset: 0x27296, size: 0x8, addend: 0x0, symName: __ZN8worklets14AsyncQueueImplC1ENSt3__112basic_stringIcNS1_11char_traitsIcEENS1_9allocatorIcEEEE, symObjAddr: 0x288, symBinAddr: 0x5AA4, symSize: 0x4 }
  - { offset: 0x2731D, size: 0x8, addend: 0x0, symName: __ZN8worklets14AsyncQueueImplC1ENSt3__112basic_stringIcNS1_11char_traitsIcEENS1_9allocatorIcEEEE, symObjAddr: 0x288, symBinAddr: 0x5AA4, symSize: 0x4 }
  - { offset: 0x27EC5, size: 0x8, addend: 0x0, symName: __ZN8worklets14AsyncQueueImplC2ENSt3__112basic_stringIcNS1_11char_traitsIcEENS1_9allocatorIcEEEE, symObjAddr: 0x0, symBinAddr: 0x581C, symSize: 0x250 }
  - { offset: 0x288C0, size: 0x8, addend: 0x0, symName: __ZNSt3__112basic_stringIcNS_11char_traitsIcEENS_9allocatorIcEEE25__init_copy_ctor_externalEPKcm, symObjAddr: 0x548, symBinAddr: 0x5D54, symSize: 0x80 }
  - { offset: 0x28A92, size: 0x8, addend: 0x0, symName: __ZNSt3__112basic_stringIcNS_11char_traitsIcEENS_9allocatorIcEEE20__throw_length_errorB8ne200100Ev, symObjAddr: 0x5C8, symBinAddr: 0x5DD4, symSize: 0x14 }
  - { offset: 0x28B06, size: 0x8, addend: 0x0, symName: '__ZNSt3__110unique_ptrINS_5tupleIJNS0_INS_15__thread_structENS_14default_deleteIS2_EEEEZN8worklets14AsyncQueueImplC1ENS_12basic_stringIcNS_11char_traitsIcEENS_9allocatorIcEEEEE3$_0EEENS3_ISF_EEED1B8ne200100Ev', symObjAddr: 0x1428, symBinAddr: 0x6980, symSize: 0x58 }
  - { offset: 0x28E0F, size: 0x8, addend: 0x0, symName: '__ZZN8worklets14AsyncQueueImplC1ENSt3__112basic_stringIcNS1_11char_traitsIcEENS1_9allocatorIcEEEEEN3$_0D1Ev', symObjAddr: 0x250, symBinAddr: 0x5A6C, symSize: 0x38 }
  - { offset: 0x29152, size: 0x8, addend: 0x0, symName: __ZN8worklets14AsyncQueueImplD2Ev, symObjAddr: 0x28C, symBinAddr: 0x5AA8, symSize: 0x9C }
  - { offset: 0x29448, size: 0x8, addend: 0x0, symName: __ZNSt3__15dequeINS_8functionIFvvEEENS_9allocatorIS3_EEE13__move_assignERS6_NS_17integral_constantIbLb1EEE, symObjAddr: 0x15CC, symBinAddr: 0x6AD8, symSize: 0x158 }
  - { offset: 0x297D5, size: 0x8, addend: 0x0, symName: __ZNSt3__15dequeINS_8functionIFvvEEENS_9allocatorIS3_EEED2B8ne200100Ev, symObjAddr: 0x678, symBinAddr: 0x5DE8, symSize: 0x14C }
  - { offset: 0x29BDB, size: 0x8, addend: 0x0, symName: __ZN8worklets14AsyncQueueImplD1Ev, symObjAddr: 0x338, symBinAddr: 0x5B44, symSize: 0x4 }
  - { offset: 0x29BFE, size: 0x8, addend: 0x0, symName: __ZN8worklets14AsyncQueueImplD1Ev, symObjAddr: 0x338, symBinAddr: 0x5B44, symSize: 0x4 }
  - { offset: 0x29C33, size: 0x8, addend: 0x0, symName: __ZN8worklets14AsyncQueueImplD0Ev, symObjAddr: 0x33C, symBinAddr: 0x5B48, symSize: 0x14 }
  - { offset: 0x29CBD, size: 0x8, addend: 0x0, symName: __ZN8worklets14AsyncQueueImpl4pushEONSt3__18functionIFvvEEE, symObjAddr: 0x350, symBinAddr: 0x5B5C, symSize: 0x68 }
  - { offset: 0x29E16, size: 0x8, addend: 0x0, symName: __ZNSt3__15dequeINS_8functionIFvvEEENS_9allocatorIS3_EEE12emplace_backIJRS3_EEES8_DpOT_, symObjAddr: 0x810, symBinAddr: 0x5F80, symSize: 0xCC }
  - { offset: 0x2A0F1, size: 0x8, addend: 0x0, symName: __ZN8worklets12AsyncQueueUIC2ERKNSt3__110shared_ptrINS_11UISchedulerEEE, symObjAddr: 0x3B8, symBinAddr: 0x5BC4, symSize: 0x30 }
  - { offset: 0x2A1D0, size: 0x8, addend: 0x0, symName: __ZN8worklets12AsyncQueueUIC1ERKNSt3__110shared_ptrINS_11UISchedulerEEE, symObjAddr: 0x3E8, symBinAddr: 0x5BF4, symSize: 0x30 }
  - { offset: 0x2A20B, size: 0x8, addend: 0x0, symName: __ZN8worklets12AsyncQueueUIC1ERKNSt3__110shared_ptrINS_11UISchedulerEEE, symObjAddr: 0x3E8, symBinAddr: 0x5BF4, symSize: 0x30 }
  - { offset: 0x2A3BA, size: 0x8, addend: 0x0, symName: __ZN8worklets12AsyncQueueUI4pushEONSt3__18functionIFvvEEE, symObjAddr: 0x418, symBinAddr: 0x5C24, symSize: 0xCC }
  - { offset: 0x2A5C8, size: 0x8, addend: 0x0, symName: __ZNSt3__110__function12__value_funcIFvvEEC2B8ne200100EOS3_, symObjAddr: 0x115C, symBinAddr: 0x66B4, symSize: 0x64 }
  - { offset: 0x2A64B, size: 0x8, addend: 0x0, symName: __ZN8worklets12AsyncQueueUID1Ev, symObjAddr: 0x4E4, symBinAddr: 0x5CF0, symSize: 0x30 }
  - { offset: 0x2A74C, size: 0x8, addend: 0x0, symName: __ZN8worklets12AsyncQueueUID0Ev, symObjAddr: 0x514, symBinAddr: 0x5D20, symSize: 0x34 }
  - { offset: 0x2A8D8, size: 0x8, addend: 0x0, symName: __ZNSt3__112basic_stringIcNS_11char_traitsIcEENS_9allocatorIcEEE20__throw_length_errorB8ne200100Ev, symObjAddr: 0x5C8, symBinAddr: 0x5DD4, symSize: 0x14 }
  - { offset: 0x2AB82, size: 0x8, addend: 0x0, symName: __ZNSt3__114__split_bufferIPNS_8functionIFvvEEENS_9allocatorIS4_EEED2Ev, symObjAddr: 0x7C4, symBinAddr: 0x5F34, symSize: 0x4C }
  - { offset: 0x2AE5D, size: 0x8, addend: 0x0, symName: __ZNSt3__15dequeINS_8functionIFvvEEENS_9allocatorIS3_EEE19__add_back_capacityEv, symObjAddr: 0x8DC, symBinAddr: 0x604C, symSize: 0x1B0 }
  - { offset: 0x2B8BB, size: 0x8, addend: 0x0, symName: __ZNSt3__114__split_bufferIPNS_8functionIFvvEEENS_9allocatorIS4_EEE12emplace_backIJRS4_EEEvDpOT_, symObjAddr: 0xA8C, symBinAddr: 0x61FC, symSize: 0x104 }
  - { offset: 0x2BF8A, size: 0x8, addend: 0x0, symName: __ZNSt3__114__split_bufferIPNS_8functionIFvvEEERNS_9allocatorIS4_EEE12emplace_backIJS4_EEEvDpOT_, symObjAddr: 0xD9C, symBinAddr: 0x6408, symSize: 0x104 }
  - { offset: 0x2C3BC, size: 0x8, addend: 0x0, symName: __ZNSt3__114__split_bufferIPNS_8functionIFvvEEERNS_9allocatorIS4_EEE13emplace_frontIJRS4_EEEvDpOT_, symObjAddr: 0xEA0, symBinAddr: 0x650C, symSize: 0x108 }
  - { offset: 0x2C807, size: 0x8, addend: 0x0, symName: __ZNSt3__114__split_bufferIPNS_8functionIFvvEEENS_9allocatorIS4_EEE13emplace_frontIJS4_EEEvDpOT_, symObjAddr: 0xC94, symBinAddr: 0x6300, symSize: 0x108 }
  - { offset: 0x2CE86, size: 0x8, addend: 0x0, symName: __ZNSt3__120__shared_ptr_emplaceIN8worklets15AsyncQueueStateENS_9allocatorIS2_EEED1Ev, symObjAddr: 0x1098, symBinAddr: 0x6648, symSize: 0x14 }
  - { offset: 0x2CEA8, size: 0x8, addend: 0x0, symName: __ZNSt3__120__shared_ptr_emplaceIN8worklets15AsyncQueueStateENS_9allocatorIS2_EEED1Ev, symObjAddr: 0x1098, symBinAddr: 0x6648, symSize: 0x14 }
  - { offset: 0x2CEDE, size: 0x8, addend: 0x0, symName: __ZNSt3__120__shared_ptr_emplaceIN8worklets15AsyncQueueStateENS_9allocatorIS2_EEED0Ev, symObjAddr: 0x10AC, symBinAddr: 0x665C, symSize: 0x24 }
  - { offset: 0x2CFE2, size: 0x8, addend: 0x0, symName: __ZNSt3__120__shared_ptr_emplaceIN8worklets15AsyncQueueStateENS_9allocatorIS2_EEE16__on_zero_sharedEv, symObjAddr: 0x10D0, symBinAddr: 0x6680, symSize: 0x30 }
  - { offset: 0x2D151, size: 0x8, addend: 0x0, symName: __ZNSt3__120__shared_ptr_emplaceIN8worklets15AsyncQueueStateENS_9allocatorIS2_EEE21__on_zero_shared_weakEv, symObjAddr: 0x1100, symBinAddr: 0x66B0, symSize: 0x4 }
  - { offset: 0x2D184, size: 0x8, addend: 0x0, symName: __ZNSt3__120__shared_ptr_emplaceIN8worklets15AsyncQueueStateENS_9allocatorIS2_EEE21__on_zero_shared_weakEv, symObjAddr: 0x1100, symBinAddr: 0x66B0, symSize: 0x4 }
  - { offset: 0x2D1A5, size: 0x8, addend: 0x0, symName: __ZNSt3__120__shared_ptr_emplaceIN8worklets15AsyncQueueStateENS_9allocatorIS2_EEE21__on_zero_shared_weakEv, symObjAddr: 0x1100, symBinAddr: 0x66B0, symSize: 0x4 }
  - { offset: 0x2D1C7, size: 0x8, addend: 0x0, symName: __ZNSt3__120__shared_ptr_emplaceIN8worklets15AsyncQueueStateENS_9allocatorIS2_EEE21__on_zero_shared_weakEv, symObjAddr: 0x1100, symBinAddr: 0x66B0, symSize: 0x4 }
  - { offset: 0x2D1FA, size: 0x8, addend: 0x0, symName: __ZNSt3__120__shared_ptr_emplaceIN8worklets15AsyncQueueStateENS_9allocatorIS2_EEE21__on_zero_shared_weakEv, symObjAddr: 0x1100, symBinAddr: 0x66B0, symSize: 0x4 }
  - { offset: 0x2D538, size: 0x8, addend: 0x0, symName: __ZNSt3__15dequeINS_8functionIFvvEEENS_9allocatorIS3_EEE9pop_frontEv, symObjAddr: 0x1480, symBinAddr: 0x69D8, symSize: 0x7C }
  - { offset: 0x2D7AC, size: 0x8, addend: 0x0, symName: __ZNSt3__110unique_ptrINS_15__thread_structENS_14default_deleteIS1_EEE5resetB8ne200100EPS1_, symObjAddr: 0x15A4, symBinAddr: 0x6AB0, symSize: 0x28 }
  - { offset: 0x2D800, size: 0x8, addend: 0x0, symName: __ZNSt3__15dequeINS_8functionIFvvEEENS_9allocatorIS3_EEE26__maybe_remove_front_spareB8ne200100Eb, symObjAddr: 0x14FC, symBinAddr: 0x6A54, symSize: 0x5C }
  - { offset: 0x2DA0A, size: 0x8, addend: 0x0, symName: __ZNSt3__15dequeINS_8functionIFvvEEENS_9allocatorIS3_EEE13shrink_to_fitEv, symObjAddr: 0x1724, symBinAddr: 0x6C30, symSize: 0x70 }
  - { offset: 0x2DBE9, size: 0x8, addend: 0x0, symName: __ZNSt3__114__split_bufferIPNS_8functionIFvvEEENS_9allocatorIS4_EEEaSEOS7_, symObjAddr: 0x18CC, symBinAddr: 0x6DD8, symSize: 0x64 }
  - { offset: 0x2DCB6, size: 0x8, addend: 0x0, symName: __ZNSt3__15dequeINS_8functionIFvvEEENS_9allocatorIS3_EEE25__maybe_remove_back_spareB8ne200100Eb, symObjAddr: 0x1794, symBinAddr: 0x6CA0, symSize: 0x6C }
  - { offset: 0x2DE65, size: 0x8, addend: 0x0, symName: __ZNSt3__114__split_bufferIPNS_8functionIFvvEEENS_9allocatorIS4_EEE13shrink_to_fitEv, symObjAddr: 0x1800, symBinAddr: 0x6D0C, symSize: 0xCC }
  - { offset: 0x30068, size: 0x8, addend: 0x0, symName: __ZN8worklets20EventHandlerRegistry20registerEventHandlerERKNSt3__110shared_ptrINS_19WorkletEventHandlerEEE, symObjAddr: 0x0, symBinAddr: 0x6E3C, symSize: 0x218 }
  - { offset: 0x300B6, size: 0x8, addend: 0x0, symName: __ZNSt3__119piecewise_constructE, symObjAddr: 0x250E, symBinAddr: 0x3DB1E, symSize: 0x0 }
  - { offset: 0x4248B, size: 0x8, addend: 0x0, symName: __ZNSt3__112__destroy_atB8ne200100INS_4pairIKNS_12basic_stringIcNS_11char_traitsIcEENS_9allocatorIcEEEENS_13unordered_mapIyNS_10shared_ptrIN8worklets19WorkletEventHandlerEEENS_4hashIyEENS_8equal_toIyEENS5_INS1_IKySD_EEEEEEEELi0EEEvPT_, symObjAddr: 0x11B4, symBinAddr: 0x7DBC, symSize: 0x3C }
  - { offset: 0x42627, size: 0x8, addend: 0x0, symName: __ZNSt3__112__destroy_atB8ne200100INS_4pairIKNS1_IiNS_12basic_stringIcNS_11char_traitsIcEENS_9allocatorIcEEEEEENS_13unordered_mapIyNS_10shared_ptrIN8worklets19WorkletEventHandlerEEENS_4hashIyEENS_8equal_toIyEENS5_INS1_IKySE_EEEEEEEELi0EEEvPT_, symObjAddr: 0x18C4, symBinAddr: 0x8478, symSize: 0x3C }
  - { offset: 0x42C39, size: 0x8, addend: 0x0, symName: __ZNSt3__1ssB8ne200100IcNS_11char_traitsIcEENS_9allocatorIcEEEEDaRKNS_12basic_stringIT_T0_T1_EESC_, symObjAddr: 0xF3C, symBinAddr: 0x7B44, symSize: 0x38 }
  - { offset: 0x42C7B, size: 0x8, addend: 0x0, symName: __ZNSt3__1ssB8ne200100IcNS_11char_traitsIcEENS_9allocatorIcEEEEDaRKNS_12basic_stringIT_T0_T1_EESC_, symObjAddr: 0xF3C, symBinAddr: 0x7B44, symSize: 0x38 }
  - { offset: 0x42C9A, size: 0x8, addend: 0x0, symName: __ZNSt3__1ssB8ne200100IcNS_11char_traitsIcEENS_9allocatorIcEEEEDaRKNS_12basic_stringIT_T0_T1_EESC_, symObjAddr: 0xF3C, symBinAddr: 0x7B44, symSize: 0x38 }
  - { offset: 0x42CB9, size: 0x8, addend: 0x0, symName: __ZNSt3__1ssB8ne200100IcNS_11char_traitsIcEENS_9allocatorIcEEEEDaRKNS_12basic_stringIT_T0_T1_EESC_, symObjAddr: 0xF3C, symBinAddr: 0x7B44, symSize: 0x38 }
  - { offset: 0x42CD8, size: 0x8, addend: 0x0, symName: __ZNSt3__1ssB8ne200100IcNS_11char_traitsIcEENS_9allocatorIcEEEEDaRKNS_12basic_stringIT_T0_T1_EESC_, symObjAddr: 0xF3C, symBinAddr: 0x7B44, symSize: 0x38 }
  - { offset: 0x42EE1, size: 0x8, addend: 0x0, symName: __ZNSt3__127__tree_balance_after_insertB8ne200100IPNS_16__tree_node_baseIPvEEEEvT_S5_, symObjAddr: 0xFD0, symBinAddr: 0x7BD8, symSize: 0x19C }
  - { offset: 0x43211, size: 0x8, addend: 0x0, symName: __ZNSt3__1ssB8ne200100IcNS_11char_traitsIcEEEEDaNS_17basic_string_viewIT_T0_EENS_13type_identityIS7_E4typeE, symObjAddr: 0xF74, symBinAddr: 0x7B7C, symSize: 0x5C }
  - { offset: 0x439D4, size: 0x8, addend: 0x0, symName: __ZNSt3__113__tree_removeB8ne200100IPNS_16__tree_node_baseIPvEEEEvT_S5_, symObjAddr: 0x1D7C, symBinAddr: 0x88DC, symSize: 0x380 }
  - { offset: 0x47F84, size: 0x8, addend: 0x0, symName: __ZN8worklets20EventHandlerRegistry20registerEventHandlerERKNSt3__110shared_ptrINS_19WorkletEventHandlerEEE, symObjAddr: 0x0, symBinAddr: 0x6E3C, symSize: 0x218 }
  - { offset: 0x488CB, size: 0x8, addend: 0x0, symName: __ZNSt3__16__treeINS_12__value_typeINS_12basic_stringIcNS_11char_traitsIcEENS_9allocatorIcEEEENS_13unordered_mapIyNS_10shared_ptrIN8worklets19WorkletEventHandlerEEENS_4hashIyEENS_8equal_toIyEENS5_INS_4pairIKySC_EEEEEEEENS_19__map_value_compareIS7_SM_NS_4lessIS7_EELb1EEENS5_ISM_EEE25__emplace_unique_key_argsIS7_JRKNS_21piecewise_construct_tENS_5tupleIJRKS7_EEENSX_IJEEEEEENSH_INS_15__tree_iteratorISM_PNS_11__tree_nodeISM_PvEElEEbEERKT_DpOT0_, symObjAddr: 0xD30, symBinAddr: 0x7938, symSize: 0x94 }
  - { offset: 0x48A65, size: 0x8, addend: 0x0, symName: __ZNSt3__112__hash_tableINS_17__hash_value_typeIyNS_10shared_ptrIN8worklets19WorkletEventHandlerEEEEENS_22__unordered_map_hasherIyS6_NS_4hashIyEENS_8equal_toIyEELb1EEENS_21__unordered_map_equalIyS6_SB_S9_Lb1EEENS_9allocatorIS6_EEE25__emplace_unique_key_argsIyJRKNS_21piecewise_construct_tENS_5tupleIJRKyEEENSM_IJEEEEEENS_4pairINS_15__hash_iteratorIPNS_11__hash_nodeIS6_PvEEEEbEERKT_DpOT0_, symObjAddr: 0x1264, symBinAddr: 0x7E6C, symSize: 0x238 }
  - { offset: 0x49168, size: 0x8, addend: 0x0, symName: __ZNSt3__110shared_ptrIN8worklets19WorkletEventHandlerEEaSB8ne200100ERKS3_, symObjAddr: 0x218, symBinAddr: 0x7054, symSize: 0x78 }
  - { offset: 0x49448, size: 0x8, addend: 0x0, symName: __ZNSt3__16__treeINS_12__value_typeINS_4pairIiNS_12basic_stringIcNS_11char_traitsIcEENS_9allocatorIcEEEEEENS_13unordered_mapIyNS_10shared_ptrIN8worklets19WorkletEventHandlerEEENS_4hashIyEENS_8equal_toIyEENS6_INS2_IKySE_EEEEEEEENS_19__map_value_compareIS9_SN_NS_4lessIS9_EELb1EEENS6_ISN_EEE25__emplace_unique_key_argsIS9_JRKNS_21piecewise_construct_tENS_5tupleIJOS9_EEENSY_IJEEEEEENS2_INS_15__tree_iteratorISN_PNS_11__tree_nodeISN_PvEElEEbEERKT_DpOT0_, symObjAddr: 0x1710, symBinAddr: 0x8318, symSize: 0xAC }
  - { offset: 0x4986B, size: 0x8, addend: 0x0, symName: __ZNSt3__16__treeINS_12__value_typeIyNS_10shared_ptrIN8worklets19WorkletEventHandlerEEEEENS_19__map_value_compareIyS6_NS_4lessIyEELb1EEENS_9allocatorIS6_EEE25__emplace_unique_key_argsIyJRKNS_21piecewise_construct_tENS_5tupleIJRKyEEENSI_IJEEEEEENS_4pairINS_15__tree_iteratorIS6_PNS_11__tree_nodeIS6_PvEElEEbEERKT_DpOT0_, symObjAddr: 0x1900, symBinAddr: 0x84B4, symSize: 0xC0 }
  - { offset: 0x4A299, size: 0x8, addend: 0x0, symName: __ZN8worklets20EventHandlerRegistry22unregisterEventHandlerEy, symObjAddr: 0x290, symBinAddr: 0x70CC, symSize: 0x228 }
  - { offset: 0x4B128, size: 0x8, addend: 0x0, symName: __ZNSt3__16__treeINS_12__value_typeINS_12basic_stringIcNS_11char_traitsIcEENS_9allocatorIcEEEENS_13unordered_mapIyNS_10shared_ptrIN8worklets19WorkletEventHandlerEEENS_4hashIyEENS_8equal_toIyEENS5_INS_4pairIKySC_EEEEEEEENS_19__map_value_compareIS7_SM_NS_4lessIS7_EELb1EEENS5_ISM_EEE4findIS7_EENS_15__tree_iteratorISM_PNS_11__tree_nodeISM_PvEElEERKT_, symObjAddr: 0x1A14, symBinAddr: 0x8574, symSize: 0x7C }
  - { offset: 0x4B27E, size: 0x8, addend: 0x0, symName: __ZNSt3__112__hash_tableINS_17__hash_value_typeIyNS_10shared_ptrIN8worklets19WorkletEventHandlerEEEEENS_22__unordered_map_hasherIyS6_NS_4hashIyEENS_8equal_toIyEELb1EEENS_21__unordered_map_equalIyS6_SB_S9_Lb1EEENS_9allocatorIS6_EEE14__erase_uniqueIyEEmRKT_, symObjAddr: 0x1A90, symBinAddr: 0x85F0, symSize: 0x34 }
  - { offset: 0x4B301, size: 0x8, addend: 0x0, symName: __ZNSt3__16__treeINS_12__value_typeINS_12basic_stringIcNS_11char_traitsIcEENS_9allocatorIcEEEENS_13unordered_mapIyNS_10shared_ptrIN8worklets19WorkletEventHandlerEEENS_4hashIyEENS_8equal_toIyEENS5_INS_4pairIKySC_EEEEEEEENS_19__map_value_compareIS7_SM_NS_4lessIS7_EELb1EEENS5_ISM_EEE21__remove_node_pointerEPNS_11__tree_nodeISM_PvEE, symObjAddr: 0x1D0C, symBinAddr: 0x886C, symSize: 0x70 }
  - { offset: 0x4B3C6, size: 0x8, addend: 0x0, symName: __ZNSt3__16__treeINS_12__value_typeINS_4pairIiNS_12basic_stringIcNS_11char_traitsIcEENS_9allocatorIcEEEEEENS_13unordered_mapIyNS_10shared_ptrIN8worklets19WorkletEventHandlerEEENS_4hashIyEENS_8equal_toIyEENS6_INS2_IKySE_EEEEEEEENS_19__map_value_compareIS9_SN_NS_4lessIS9_EELb1EEENS6_ISN_EEE4findIS9_EENS_15__tree_iteratorISN_PNS_11__tree_nodeISN_PvEElEERKT_, symObjAddr: 0x20FC, symBinAddr: 0x8C5C, symSize: 0x70 }
  - { offset: 0x4B9DC, size: 0x8, addend: 0x0, symName: __ZN8worklets20EventHandlerRegistry12processEventERKNSt3__110shared_ptrINS_14WorkletRuntimeEEEdRKNS1_12basic_stringIcNS1_11char_traitsIcEENS1_9allocatorIcEEEEiRKN8facebook3jsi5ValueE, symObjAddr: 0x4B8, symBinAddr: 0x72F4, symSize: 0x3A0 }
  - { offset: 0x4CAB6, size: 0x8, addend: 0x0, symName: __ZNSt3__16vectorINS_10shared_ptrIN8worklets19WorkletEventHandlerEEENS_9allocatorIS4_EEE9push_backB8ne200100ERKS4_, symObjAddr: 0x858, symBinAddr: 0x7694, symSize: 0x120 }
  - { offset: 0x4CF6F, size: 0x8, addend: 0x0, symName: __ZNK8facebook3jsi6Object11setPropertyINS0_6StringEEEvRNS0_7RuntimeEPKcOT_, symObjAddr: 0x978, symBinAddr: 0x77B4, symSize: 0xA4 }
  - { offset: 0x4CF7A, size: 0x8, addend: 0x0, symName: __ZNK8facebook3jsi6Object11setPropertyINS0_6StringEEEvRNS0_7RuntimeEPKcOT_, symObjAddr: 0x978, symBinAddr: 0x77B4, symSize: 0xA4 }
  - { offset: 0x4D5E7, size: 0x8, addend: 0x0, symName: __ZNK8facebook3jsi6Object11setPropertyINS0_6StringEEEvRNS0_7RuntimeERKS3_OT_, symObjAddr: 0x231C, symBinAddr: 0x8D44, symSize: 0x90 }
  - { offset: 0x4D7A5, size: 0x8, addend: 0x0, symName: __ZN8worklets20EventHandlerRegistry27isAnyHandlerWaitingForEventERKNSt3__112basic_stringIcNS1_11char_traitsIcEENS1_9allocatorIcEEEEi, symObjAddr: 0xA1C, symBinAddr: 0x7858, symSize: 0xE0 }
  - { offset: 0x4DF89, size: 0x8, addend: 0x0, symName: __ZNSt3__16__treeINS_12__value_typeINS_12basic_stringIcNS_11char_traitsIcEENS_9allocatorIcEEEENS_13unordered_mapIyNS_10shared_ptrIN8worklets19WorkletEventHandlerEEENS_4hashIyEENS_8equal_toIyEENS5_INS_4pairIKySC_EEEEEEEENS_19__map_value_compareIS7_SM_NS_4lessIS7_EELb1EEENS5_ISM_EEE12__find_equalIS7_EERPNS_16__tree_node_baseIPvEERPNS_15__tree_end_nodeISX_EERKT_, symObjAddr: 0xDC4, symBinAddr: 0x79CC, symSize: 0x84 }
  - { offset: 0x4E0D7, size: 0x8, addend: 0x0, symName: __ZNSt3__16__treeINS_12__value_typeINS_12basic_stringIcNS_11char_traitsIcEENS_9allocatorIcEEEENS_13unordered_mapIyNS_10shared_ptrIN8worklets19WorkletEventHandlerEEENS_4hashIyEENS_8equal_toIyEENS5_INS_4pairIKySC_EEEEEEEENS_19__map_value_compareIS7_SM_NS_4lessIS7_EELb1EEENS5_ISM_EEE16__construct_nodeIJRKNS_21piecewise_construct_tENS_5tupleIJRKS7_EEENSX_IJEEEEEENS_10unique_ptrINS_11__tree_nodeISM_PvEENS_22__tree_node_destructorINS5_IS15_EEEEEEDpOT_, symObjAddr: 0xE48, symBinAddr: 0x7A50, symSize: 0xA0 }
  - { offset: 0x4E477, size: 0x8, addend: 0x0, symName: __ZNSt3__16__treeINS_12__value_typeINS_12basic_stringIcNS_11char_traitsIcEENS_9allocatorIcEEEENS_13unordered_mapIyNS_10shared_ptrIN8worklets19WorkletEventHandlerEEENS_4hashIyEENS_8equal_toIyEENS5_INS_4pairIKySC_EEEEEEEENS_19__map_value_compareIS7_SM_NS_4lessIS7_EELb1EEENS5_ISM_EEE16__insert_node_atEPNS_15__tree_end_nodeIPNS_16__tree_node_baseIPvEEEERSX_SX_, symObjAddr: 0xEE8, symBinAddr: 0x7AF0, symSize: 0x54 }
  - { offset: 0x4E8F7, size: 0x8, addend: 0x0, symName: __ZNSt3__110unique_ptrINS_11__tree_nodeINS_12__value_typeINS_12basic_stringIcNS_11char_traitsIcEENS_9allocatorIcEEEENS_13unordered_mapIyNS_10shared_ptrIN8worklets19WorkletEventHandlerEEENS_4hashIyEENS_8equal_toIyEENS6_INS_4pairIKySD_EEEEEEEEPvEENS_22__tree_node_destructorINS6_ISP_EEEEE5resetB8ne200100EPSP_, symObjAddr: 0x116C, symBinAddr: 0x7D74, symSize: 0x48 }
  - { offset: 0x4EBBC, size: 0x8, addend: 0x0, symName: __ZNSt3__112__hash_tableINS_17__hash_value_typeIyNS_10shared_ptrIN8worklets19WorkletEventHandlerEEEEENS_22__unordered_map_hasherIyS6_NS_4hashIyEENS_8equal_toIyEELb1EEENS_21__unordered_map_equalIyS6_SB_S9_Lb1EEENS_9allocatorIS6_EEED2Ev, symObjAddr: 0x11F0, symBinAddr: 0x7DF8, symSize: 0x38 }
  - { offset: 0x4EE04, size: 0x8, addend: 0x0, symName: __ZNSt3__112__hash_tableINS_17__hash_value_typeIyNS_10shared_ptrIN8worklets19WorkletEventHandlerEEEEENS_22__unordered_map_hasherIyS6_NS_4hashIyEENS_8equal_toIyEELb1EEENS_21__unordered_map_equalIyS6_SB_S9_Lb1EEENS_9allocatorIS6_EEE17__deallocate_nodeEPNS_16__hash_node_baseIPNS_11__hash_nodeIS6_PvEEEE, symObjAddr: 0x1228, symBinAddr: 0x7E30, symSize: 0x3C }
  - { offset: 0x4F56D, size: 0x8, addend: 0x0, symName: __ZNSt3__112__hash_tableINS_17__hash_value_typeIyNS_10shared_ptrIN8worklets19WorkletEventHandlerEEEEENS_22__unordered_map_hasherIyS6_NS_4hashIyEENS_8equal_toIyEELb1EEENS_21__unordered_map_equalIyS6_SB_S9_Lb1EEENS_9allocatorIS6_EEE8__rehashILb1EEEvm, symObjAddr: 0x149C, symBinAddr: 0x80A4, symSize: 0xDC }
  - { offset: 0x4F665, size: 0x8, addend: 0x0, symName: __ZNSt3__110unique_ptrINS_11__hash_nodeINS_17__hash_value_typeIyNS_10shared_ptrIN8worklets19WorkletEventHandlerEEEEEPvEENS_22__hash_node_destructorINS_9allocatorIS9_EEEEE5resetB8ne200100EPS9_, symObjAddr: 0x16C8, symBinAddr: 0x82D0, symSize: 0x48 }
  - { offset: 0x4F80B, size: 0x8, addend: 0x0, symName: __ZNSt3__112__hash_tableINS_17__hash_value_typeIyNS_10shared_ptrIN8worklets19WorkletEventHandlerEEEEENS_22__unordered_map_hasherIyS6_NS_4hashIyEENS_8equal_toIyEELb1EEENS_21__unordered_map_equalIyS6_SB_S9_Lb1EEENS_9allocatorIS6_EEE11__do_rehashILb1EEEvm, symObjAddr: 0x1578, symBinAddr: 0x8180, symSize: 0x150 }
  - { offset: 0x4FC1B, size: 0x8, addend: 0x0, symName: __ZNSt3__110unique_ptrINS_11__hash_nodeINS_17__hash_value_typeIyNS_10shared_ptrIN8worklets19WorkletEventHandlerEEEEEPvEENS_22__hash_node_destructorINS_9allocatorIS9_EEEEE5resetB8ne200100EPS9_, symObjAddr: 0x16C8, symBinAddr: 0x82D0, symSize: 0x48 }
  - { offset: 0x4FFA0, size: 0x8, addend: 0x0, symName: __ZNSt3__16__treeINS_12__value_typeINS_4pairIiNS_12basic_stringIcNS_11char_traitsIcEENS_9allocatorIcEEEEEENS_13unordered_mapIyNS_10shared_ptrIN8worklets19WorkletEventHandlerEEENS_4hashIyEENS_8equal_toIyEENS6_INS2_IKySE_EEEEEEEENS_19__map_value_compareIS9_SN_NS_4lessIS9_EELb1EEENS6_ISN_EEE12__find_equalIS9_EERPNS_16__tree_node_baseIPvEERPNS_15__tree_end_nodeISY_EERKT_, symObjAddr: 0x17BC, symBinAddr: 0x83C4, symSize: 0xB4 }
  - { offset: 0x5057B, size: 0x8, addend: 0x0, symName: __ZNSt3__112__hash_tableINS_17__hash_value_typeIyNS_10shared_ptrIN8worklets19WorkletEventHandlerEEEEENS_22__unordered_map_hasherIyS6_NS_4hashIyEENS_8equal_toIyEELb1EEENS_21__unordered_map_equalIyS6_SB_S9_Lb1EEENS_9allocatorIS6_EEE4findIyEENS_15__hash_iteratorIPNS_11__hash_nodeIS6_PvEEEERKT_, symObjAddr: 0x1AC4, symBinAddr: 0x8624, symSize: 0xB4 }
  - { offset: 0x505D3, size: 0x8, addend: 0x0, symName: __ZNSt3__112__hash_tableINS_17__hash_value_typeIyNS_10shared_ptrIN8worklets19WorkletEventHandlerEEEEENS_22__unordered_map_hasherIyS6_NS_4hashIyEENS_8equal_toIyEELb1EEENS_21__unordered_map_equalIyS6_SB_S9_Lb1EEENS_9allocatorIS6_EEE4findIyEENS_15__hash_iteratorIPNS_11__hash_nodeIS6_PvEEEERKT_, symObjAddr: 0x1AC4, symBinAddr: 0x8624, symSize: 0xB4 }
  - { offset: 0x505EF, size: 0x8, addend: 0x0, symName: __ZNSt3__112__hash_tableINS_17__hash_value_typeIyNS_10shared_ptrIN8worklets19WorkletEventHandlerEEEEENS_22__unordered_map_hasherIyS6_NS_4hashIyEENS_8equal_toIyEELb1EEENS_21__unordered_map_equalIyS6_SB_S9_Lb1EEENS_9allocatorIS6_EEE4findIyEENS_15__hash_iteratorIPNS_11__hash_nodeIS6_PvEEEERKT_, symObjAddr: 0x1AC4, symBinAddr: 0x8624, symSize: 0xB4 }
  - { offset: 0x50708, size: 0x8, addend: 0x0, symName: __ZNSt3__112__hash_tableINS_17__hash_value_typeIyNS_10shared_ptrIN8worklets19WorkletEventHandlerEEEEENS_22__unordered_map_hasherIyS6_NS_4hashIyEENS_8equal_toIyEELb1EEENS_21__unordered_map_equalIyS6_SB_S9_Lb1EEENS_9allocatorIS6_EEE5eraseENS_21__hash_const_iteratorIPNS_11__hash_nodeIS6_PvEEEE, symObjAddr: 0x1B78, symBinAddr: 0x86D8, symSize: 0x58 }
  - { offset: 0x509B4, size: 0x8, addend: 0x0, symName: __ZNSt3__112__hash_tableINS_17__hash_value_typeIyNS_10shared_ptrIN8worklets19WorkletEventHandlerEEEEENS_22__unordered_map_hasherIyS6_NS_4hashIyEENS_8equal_toIyEELb1EEENS_21__unordered_map_equalIyS6_SB_S9_Lb1EEENS_9allocatorIS6_EEE6removeENS_21__hash_const_iteratorIPNS_11__hash_nodeIS6_PvEEEE, symObjAddr: 0x1BD0, symBinAddr: 0x8730, symSize: 0x13C }
  - { offset: 0x50A2B, size: 0x8, addend: 0x0, symName: __ZNSt3__112__hash_tableINS_17__hash_value_typeIyNS_10shared_ptrIN8worklets19WorkletEventHandlerEEEEENS_22__unordered_map_hasherIyS6_NS_4hashIyEENS_8equal_toIyEELb1EEENS_21__unordered_map_equalIyS6_SB_S9_Lb1EEENS_9allocatorIS6_EEE6removeENS_21__hash_const_iteratorIPNS_11__hash_nodeIS6_PvEEEE, symObjAddr: 0x1BD0, symBinAddr: 0x8730, symSize: 0x13C }
  - { offset: 0x50A47, size: 0x8, addend: 0x0, symName: __ZNSt3__112__hash_tableINS_17__hash_value_typeIyNS_10shared_ptrIN8worklets19WorkletEventHandlerEEEEENS_22__unordered_map_hasherIyS6_NS_4hashIyEENS_8equal_toIyEELb1EEENS_21__unordered_map_equalIyS6_SB_S9_Lb1EEENS_9allocatorIS6_EEE6removeENS_21__hash_const_iteratorIPNS_11__hash_nodeIS6_PvEEEE, symObjAddr: 0x1BD0, symBinAddr: 0x8730, symSize: 0x13C }
  - { offset: 0x50C7D, size: 0x8, addend: 0x0, symName: __ZNSt3__16__treeINS_12__value_typeINS_4pairIiNS_12basic_stringIcNS_11char_traitsIcEENS_9allocatorIcEEEEEENS_13unordered_mapIyNS_10shared_ptrIN8worklets19WorkletEventHandlerEEENS_4hashIyEENS_8equal_toIyEENS6_INS2_IKySE_EEEEEEEENS_19__map_value_compareIS9_SN_NS_4lessIS9_EELb1EEENS6_ISN_EEE13__lower_boundIS9_EENS_15__tree_iteratorISN_PNS_11__tree_nodeISN_PvEElEERKT_SZ_PNS_15__tree_end_nodeIPNS_16__tree_node_baseISX_EEEE, symObjAddr: 0x216C, symBinAddr: 0x8CCC, symSize: 0x78 }
  - { offset: 0x5CAE0, size: 0x8, addend: 0x0, symName: __ZNSt3__119__allocate_at_leastB8ne200100INS_9allocatorIN8worklets7TimeoutEEEEENS_19__allocation_resultINS_16allocator_traitsIT_E7pointerEEERS7_m, symObjAddr: 0x1148, symBinAddr: 0x9D64, symSize: 0x44 }
  - { offset: 0x5CB8C, size: 0x8, addend: 0x0, symName: __ZNSt3__112basic_stringIcNS_11char_traitsIcEENS_9allocatorIcEEEC2B8ne200100ENS_24__uninitialized_size_tagEmRKS4_, symObjAddr: 0x118C, symBinAddr: 0x9DA8, symSize: 0x78 }
  - { offset: 0x5D059, size: 0x8, addend: 0x0, symName: __ZNSt3__135__uninitialized_allocator_copy_implB8ne200100INS_9allocatorIN8worklets7TimeoutEEEPKS3_S6_PS3_EET2_RT_T0_T1_S8_, symObjAddr: 0xD90, symBinAddr: 0x9A24, symSize: 0xA8 }
  - { offset: 0x5D9F5, size: 0x8, addend: 0x0, symName: __ZNSt3__134__uninitialized_allocator_relocateB8ne200100INS_9allocatorIN8worklets7TimeoutEEEPS3_EEvRT_T0_S8_S8_, symObjAddr: 0x1628, symBinAddr: 0xA244, symSize: 0xD0 }
  - { offset: 0x5DDA8, size: 0x8, addend: 0x0, symName: __ZNSt3__112__destroy_atB8ne200100IN8worklets18TimeoutsQueueStateELi0EEEvPT_, symObjAddr: 0x17D8, symBinAddr: 0xA3F4, symSize: 0x44 }
  - { offset: 0x5E2BC, size: 0x8, addend: 0x0, symName: '__ZNSt3__114__thread_proxyB8ne200100INS_5tupleIJNS_10unique_ptrINS_15__thread_structENS_14default_deleteIS3_EEEEZN8worklets9EventLoop3runEvE3$_0EEEEEPvSB_', symObjAddr: 0x1A1C, symBinAddr: 0xA530, symSize: 0x3D8 }
  - { offset: 0x5F036, size: 0x8, addend: 0x0, symName: __ZNSt3__134__uninitialized_allocator_relocateB8ne200100INS_9allocatorINS_8functionIFvRN8facebook3jsi7RuntimeEEEEEEPS8_EEvRT_T0_SD_SD_, symObjAddr: 0x204C, symBinAddr: 0xAB18, symSize: 0xC4 }
  - { offset: 0x5F04A, size: 0x8, addend: 0x0, symName: __ZNSt3__134__uninitialized_allocator_relocateB8ne200100INS_9allocatorINS_8functionIFvRN8facebook3jsi7RuntimeEEEEEEPS8_EEvRT_T0_SD_SD_, symObjAddr: 0x204C, symBinAddr: 0xAB18, symSize: 0xC4 }
  - { offset: 0x61AB7, size: 0x8, addend: 0x0, symName: __ZN8worklets9EventLoop3runEv, symObjAddr: 0x1F0, symBinAddr: 0x8FB4, symSize: 0x29C }
  - { offset: 0x62981, size: 0x8, addend: 0x0, symName: __ZN8worklets9EventLoop8pushTaskEONSt3__18functionIFvRN8facebook3jsi7RuntimeEEEE, symObjAddr: 0x4D0, symBinAddr: 0x9294, symSize: 0x178 }
  - { offset: 0x635B5, size: 0x8, addend: 0x0, symName: __ZN8worklets9EventLoopC2ERKNSt3__112basic_stringIcNS1_11char_traitsIcEENS1_9allocatorIcEEEENS1_10shared_ptrIN8facebook3jsi7RuntimeEEERKNSA_INS_10AsyncQueueEEE, symObjAddr: 0x0, symBinAddr: 0x8DD4, symSize: 0x134 }
  - { offset: 0x63DC1, size: 0x8, addend: 0x0, symName: __ZN8worklets9EventLoopC1ERKNSt3__112basic_stringIcNS1_11char_traitsIcEENS1_9allocatorIcEEEENS1_10shared_ptrIN8facebook3jsi7RuntimeEEERKNSA_INS_10AsyncQueueEEE, symObjAddr: 0x134, symBinAddr: 0x8F08, symSize: 0x4 }
  - { offset: 0x63E1A, size: 0x8, addend: 0x0, symName: __ZN8worklets9EventLoopC1ERKNSt3__112basic_stringIcNS1_11char_traitsIcEENS1_9allocatorIcEEEENS1_10shared_ptrIN8facebook3jsi7RuntimeEEERKNSA_INS_10AsyncQueueEEE, symObjAddr: 0x134, symBinAddr: 0x8F08, symSize: 0x4 }
  - { offset: 0x6404B, size: 0x8, addend: 0x0, symName: __ZN8worklets9EventLoopD2Ev, symObjAddr: 0x138, symBinAddr: 0x8F0C, symSize: 0xA4 }
  - { offset: 0x64409, size: 0x8, addend: 0x0, symName: __ZNSt3__16vectorIN8worklets7TimeoutENS_9allocatorIS2_EEE18__assign_with_sizeB8ne200100IPKS2_S8_EEvT_T0_l, symObjAddr: 0xB00, symBinAddr: 0x9794, symSize: 0x1C0 }
  - { offset: 0x64B59, size: 0x8, addend: 0x0, symName: __ZN8worklets9EventLoopD1Ev, symObjAddr: 0x1EC, symBinAddr: 0x8FB0, symSize: 0x4 }
  - { offset: 0x64B87, size: 0x8, addend: 0x0, symName: __ZN8worklets9EventLoopD1Ev, symObjAddr: 0x1EC, symBinAddr: 0x8FB0, symSize: 0x4 }
  - { offset: 0x65327, size: 0x8, addend: 0x0, symName: __ZNSt3__112basic_stringIcNS_11char_traitsIcEENS_9allocatorIcEEEC2B8ne200100ENS_24__uninitialized_size_tagEmRKS4_, symObjAddr: 0x118C, symBinAddr: 0x9DA8, symSize: 0x78 }
  - { offset: 0x654C3, size: 0x8, addend: 0x0, symName: __ZNSt3__16vectorIN8worklets7TimeoutENS_9allocatorIS2_EEE12__move_rangeEPS2_S6_S6_, symObjAddr: 0x1204, symBinAddr: 0x9E20, symSize: 0x94 }
  - { offset: 0x654FF, size: 0x8, addend: 0x0, symName: '__ZNSt3__110unique_ptrINS_5tupleIJNS0_INS_15__thread_structENS_14default_deleteIS2_EEEEZN8worklets9EventLoop3runEvE3$_0EEENS3_IS9_EEED1B8ne200100Ev', symObjAddr: 0x1DF4, symBinAddr: 0xA908, symSize: 0x64 }
  - { offset: 0x65873, size: 0x8, addend: 0x0, symName: '__ZZN8worklets9EventLoop3runEvEN3$_0D1Ev', symObjAddr: 0x48C, symBinAddr: 0x9250, symSize: 0x44 }
  - { offset: 0x65F72, size: 0x8, addend: 0x0, symName: __ZNSt3__110__function12__value_funcIFvRN8facebook3jsi7RuntimeEEEC2B8ne200100EOS7_, symObjAddr: 0x19B8, symBinAddr: 0xA4CC, symSize: 0x64 }
  - { offset: 0x65FC1, size: 0x8, addend: 0x0, symName: '__ZZN8worklets9EventLoop8pushTaskEONSt3__18functionIFvRN8facebook3jsi7RuntimeEEEEEN3$_0D1Ev', symObjAddr: 0x648, symBinAddr: 0x940C, symSize: 0x58 }
  - { offset: 0x66225, size: 0x8, addend: 0x0, symName: __ZN8worklets9EventLoop11pushTimeoutEONSt3__18functionIFvRN8facebook3jsi7RuntimeEEEEx, symObjAddr: 0x6A0, symBinAddr: 0x9464, symSize: 0x178 }
  - { offset: 0x66802, size: 0x8, addend: 0x0, symName: __ZNSt3__16vectorIN8worklets7TimeoutENS_9allocatorIS2_EEE6insertENS_11__wrap_iterIPKS2_EERS7_, symObjAddr: 0x848, symBinAddr: 0x960C, symSize: 0x188 }
  - { offset: 0x66CBF, size: 0x8, addend: 0x0, symName: __ZN8worklets9EventLoop18getCurrentTimeInMsEv, symObjAddr: 0x818, symBinAddr: 0x95DC, symSize: 0x30 }
  - { offset: 0x6700C, size: 0x8, addend: 0x0, symName: __ZNSt3__16vectorIN8worklets7TimeoutENS_9allocatorIS2_EEE12__move_rangeEPS2_S6_S6_, symObjAddr: 0x1204, symBinAddr: 0x9E20, symSize: 0x94 }
  - { offset: 0x672E8, size: 0x8, addend: 0x0, symName: __ZNSt3__18functionIFvRN8facebook3jsi7RuntimeEEEaSERKS6_, symObjAddr: 0xF34, symBinAddr: 0x9B64, symSize: 0x94 }
  - { offset: 0x674BD, size: 0x8, addend: 0x0, symName: __ZNSt3__114__split_bufferIN8worklets7TimeoutERNS_9allocatorIS2_EEE12emplace_backIJRKS2_EEEvDpOT_, symObjAddr: 0x1298, symBinAddr: 0x9EB4, symSize: 0x164 }
  - { offset: 0x67A8E, size: 0x8, addend: 0x0, symName: __ZNSt3__16vectorIN8worklets7TimeoutENS_9allocatorIS2_EEE26__swap_out_circular_bufferERNS_14__split_bufferIS2_RS4_EEPS2_, symObjAddr: 0x13FC, symBinAddr: 0xA018, symSize: 0xB8 }
  - { offset: 0x67BC6, size: 0x8, addend: 0x0, symName: __ZNSt3__114__split_bufferIN8worklets7TimeoutERNS_9allocatorIS2_EEED2Ev, symObjAddr: 0x16F8, symBinAddr: 0xA314, symSize: 0x30 }
  - { offset: 0x67C89, size: 0x8, addend: 0x0, symName: __ZNSt3__119__allocate_at_leastB8ne200100INS_9allocatorIN8worklets7TimeoutEEEEENS_19__allocation_resultINS_16allocator_traitsIT_E7pointerEEERS7_m, symObjAddr: 0x1148, symBinAddr: 0x9D64, symSize: 0x44 }
  - { offset: 0x67FA9, size: 0x8, addend: 0x0, symName: __ZNSt3__16vectorIN8worklets7TimeoutENS_9allocatorIS2_EEE13__vdeallocateEv, symObjAddr: 0xCC0, symBinAddr: 0x9954, symSize: 0x88 }
  - { offset: 0x681BB, size: 0x8, addend: 0x0, symName: __ZNSt3__16vectorIN8worklets7TimeoutENS_9allocatorIS2_EEE11__vallocateB8ne200100Em, symObjAddr: 0xD48, symBinAddr: 0x99DC, symSize: 0x48 }
  - { offset: 0x68213, size: 0x8, addend: 0x0, symName: __ZNSt3__135__uninitialized_allocator_copy_implB8ne200100INS_9allocatorIN8worklets7TimeoutEEEPKS3_S6_PS3_EET2_RT_T0_T1_S8_, symObjAddr: 0xD90, symBinAddr: 0x9A24, symSize: 0xA8 }
  - { offset: 0x68322, size: 0x8, addend: 0x0, symName: __ZNSt3__128__exception_guard_exceptionsINS_29_AllocatorDestroyRangeReverseINS_9allocatorIN8worklets7TimeoutEEEPS4_EEED2B8ne200100Ev, symObjAddr: 0xE9C, symBinAddr: 0x9ACC, symSize: 0x34 }
  - { offset: 0x68362, size: 0x8, addend: 0x0, symName: __ZNKSt3__129_AllocatorDestroyRangeReverseINS_9allocatorIN8worklets7TimeoutEEEPS3_EclB8ne200100Ev, symObjAddr: 0xED0, symBinAddr: 0x9B00, symSize: 0x64 }
  - { offset: 0x68551, size: 0x8, addend: 0x0, symName: __ZNSt3__110__function12__value_funcIFvRN8facebook3jsi7RuntimeEEE4swapB8ne200100ERS7_, symObjAddr: 0xFC8, symBinAddr: 0x9BF8, symSize: 0x16C }
  - { offset: 0x6877D, size: 0x8, addend: 0x0, symName: __ZNKSt3__120__move_backward_implINS_17_ClassicAlgPolicyEEclB8ne200100IPN8worklets7TimeoutES6_S6_EENS_4pairIT_T1_EES8_T0_S9_, symObjAddr: 0x14B4, symBinAddr: 0xA0D0, symSize: 0x80 }
  - { offset: 0x68925, size: 0x8, addend: 0x0, symName: __ZNKSt3__111__move_implINS_17_ClassicAlgPolicyEEclB8ne200100IPN8worklets7TimeoutES6_S6_EENS_4pairIT_T1_EES8_T0_S9_, symObjAddr: 0x15C0, symBinAddr: 0xA1DC, symSize: 0x68 }
  - { offset: 0x68A38, size: 0x8, addend: 0x0, symName: __ZNSt3__110__function12__value_funcIFvRN8facebook3jsi7RuntimeEEEaSB8ne200100EOS7_, symObjAddr: 0x1534, symBinAddr: 0xA150, symSize: 0x8C }
  - { offset: 0x68AE8, size: 0x8, addend: 0x0, symName: __ZNSt3__114__split_bufferIN8worklets7TimeoutERNS_9allocatorIS2_EEE5clearB8ne200100Ev, symObjAddr: 0x1728, symBinAddr: 0xA344, symSize: 0x6C }
  - { offset: 0x68CC9, size: 0x8, addend: 0x0, symName: __ZNSt3__120__shared_ptr_emplaceIN8worklets18TimeoutsQueueStateENS_9allocatorIS2_EEED1Ev, symObjAddr: 0x1794, symBinAddr: 0xA3B0, symSize: 0x14 }
  - { offset: 0x68CEB, size: 0x8, addend: 0x0, symName: __ZNSt3__120__shared_ptr_emplaceIN8worklets18TimeoutsQueueStateENS_9allocatorIS2_EEED1Ev, symObjAddr: 0x1794, symBinAddr: 0xA3B0, symSize: 0x14 }
  - { offset: 0x68D21, size: 0x8, addend: 0x0, symName: __ZNSt3__120__shared_ptr_emplaceIN8worklets18TimeoutsQueueStateENS_9allocatorIS2_EEED0Ev, symObjAddr: 0x17A8, symBinAddr: 0xA3C4, symSize: 0x24 }
  - { offset: 0x68E03, size: 0x8, addend: 0x0, symName: __ZNSt3__120__shared_ptr_emplaceIN8worklets18TimeoutsQueueStateENS_9allocatorIS2_EEE16__on_zero_sharedEv, symObjAddr: 0x17CC, symBinAddr: 0xA3E8, symSize: 0x8 }
  - { offset: 0x68E2C, size: 0x8, addend: 0x0, symName: __ZNSt3__120__shared_ptr_emplaceIN8worklets18TimeoutsQueueStateENS_9allocatorIS2_EEE16__on_zero_sharedEv, symObjAddr: 0x17CC, symBinAddr: 0xA3E8, symSize: 0x8 }
  - { offset: 0x68E4A, size: 0x8, addend: 0x0, symName: __ZNSt3__120__shared_ptr_emplaceIN8worklets18TimeoutsQueueStateENS_9allocatorIS2_EEE16__on_zero_sharedEv, symObjAddr: 0x17CC, symBinAddr: 0xA3E8, symSize: 0x8 }
  - { offset: 0x68EE5, size: 0x8, addend: 0x0, symName: __ZNSt3__120__shared_ptr_emplaceIN8worklets18TimeoutsQueueStateENS_9allocatorIS2_EEE21__on_zero_shared_weakEv, symObjAddr: 0x17D4, symBinAddr: 0xA3F0, symSize: 0x4 }
  - { offset: 0x68F18, size: 0x8, addend: 0x0, symName: __ZNSt3__120__shared_ptr_emplaceIN8worklets18TimeoutsQueueStateENS_9allocatorIS2_EEE21__on_zero_shared_weakEv, symObjAddr: 0x17D4, symBinAddr: 0xA3F0, symSize: 0x4 }
  - { offset: 0x68F39, size: 0x8, addend: 0x0, symName: __ZNSt3__120__shared_ptr_emplaceIN8worklets18TimeoutsQueueStateENS_9allocatorIS2_EEE21__on_zero_shared_weakEv, symObjAddr: 0x17D4, symBinAddr: 0xA3F0, symSize: 0x4 }
  - { offset: 0x68F5B, size: 0x8, addend: 0x0, symName: __ZNSt3__120__shared_ptr_emplaceIN8worklets18TimeoutsQueueStateENS_9allocatorIS2_EEE21__on_zero_shared_weakEv, symObjAddr: 0x17D4, symBinAddr: 0xA3F0, symSize: 0x4 }
  - { offset: 0x68F8E, size: 0x8, addend: 0x0, symName: __ZNSt3__120__shared_ptr_emplaceIN8worklets18TimeoutsQueueStateENS_9allocatorIS2_EEE21__on_zero_shared_weakEv, symObjAddr: 0x17D4, symBinAddr: 0xA3F0, symSize: 0x4 }
  - { offset: 0x69071, size: 0x8, addend: 0x0, symName: __ZNSt3__16vectorIN8worklets7TimeoutENS_9allocatorIS2_EEE16__destroy_vectorclB8ne200100Ev, symObjAddr: 0x181C, symBinAddr: 0xA438, symSize: 0x94 }
  - { offset: 0x697D5, size: 0x8, addend: 0x0, symName: __ZNSt3__16vectorINS_8functionIFvRN8facebook3jsi7RuntimeEEEENS_9allocatorIS7_EEE24__emplace_back_slow_pathIJRKS7_EEEPS7_DpOT_, symObjAddr: 0x1EF8, symBinAddr: 0xAA0C, symSize: 0x10C }
  - { offset: 0x69B39, size: 0x8, addend: 0x0, symName: __ZNSt3__16vectorIN8worklets7TimeoutENS_9allocatorIS2_EEE5eraseENS_11__wrap_iterIPKS2_EES9_, symObjAddr: 0x1E58, symBinAddr: 0xA96C, symSize: 0xA0 }
  - { offset: 0x6A2B5, size: 0x8, addend: 0x0, symName: __ZNSt3__128__exception_guard_exceptionsINS_29_AllocatorDestroyRangeReverseINS_9allocatorINS_8functionIFvRN8facebook3jsi7RuntimeEEEEEEPS9_EEED2B8ne200100Ev, symObjAddr: 0x2110, symBinAddr: 0xABDC, symSize: 0x34 }
  - { offset: 0x6A5F5, size: 0x8, addend: 0x0, symName: '__ZNSt3__110__function6__funcIZN8worklets9EventLoop8pushTaskEONS_8functionIFvRN8facebook3jsi7RuntimeEEEEE3$_0NS_9allocatorISC_EEFvvEED1Ev', symObjAddr: 0x2358, symBinAddr: 0xAC10, symSize: 0x64 }
  - { offset: 0x6A793, size: 0x8, addend: 0x0, symName: '__ZNSt3__110__function6__funcIZN8worklets9EventLoop8pushTaskEONS_8functionIFvRN8facebook3jsi7RuntimeEEEEE3$_0NS_9allocatorISC_EEFvvEED0Ev', symObjAddr: 0x23BC, symBinAddr: 0xAC74, symSize: 0x64 }
  - { offset: 0x6ABA7, size: 0x8, addend: 0x0, symName: '__ZNKSt3__110__function6__funcIZN8worklets9EventLoop8pushTaskEONS_8functionIFvRN8facebook3jsi7RuntimeEEEEE3$_0NS_9allocatorISC_EEFvvEE7__cloneEv', symObjAddr: 0x2420, symBinAddr: 0xACD8, symSize: 0x84 }
  - { offset: 0x6AFE4, size: 0x8, addend: 0x0, symName: '__ZNKSt3__110__function6__funcIZN8worklets9EventLoop8pushTaskEONS_8functionIFvRN8facebook3jsi7RuntimeEEEEE3$_0NS_9allocatorISC_EEFvvEE7__cloneEPNS0_6__baseISF_EE', symObjAddr: 0x24A4, symBinAddr: 0xAD5C, symSize: 0x70 }
  - { offset: 0x6B226, size: 0x8, addend: 0x0, symName: '__ZNSt3__110__function6__funcIZN8worklets9EventLoop8pushTaskEONS_8functionIFvRN8facebook3jsi7RuntimeEEEEE3$_0NS_9allocatorISC_EEFvvEE7destroyEv', symObjAddr: 0x2514, symBinAddr: 0xADCC, symSize: 0x8 }
  - { offset: 0x6B25B, size: 0x8, addend: 0x0, symName: '__ZNSt3__110__function12__alloc_funcIZN8worklets9EventLoop8pushTaskEONS_8functionIFvRN8facebook3jsi7RuntimeEEEEE3$_0NS_9allocatorISC_EEFvvEE7destroyB8ne200100Ev', symObjAddr: 0x2640, symBinAddr: 0xAEF8, symSize: 0x5C }
  - { offset: 0x6B38A, size: 0x8, addend: 0x0, symName: '__ZNSt3__110__function6__funcIZN8worklets9EventLoop8pushTaskEONS_8functionIFvRN8facebook3jsi7RuntimeEEEEE3$_0NS_9allocatorISC_EEFvvEE18destroy_deallocateEv', symObjAddr: 0x251C, symBinAddr: 0xADD4, symSize: 0x28 }
  - { offset: 0x6B54C, size: 0x8, addend: 0x0, symName: '__ZNSt3__110__function6__funcIZN8worklets9EventLoop8pushTaskEONS_8functionIFvRN8facebook3jsi7RuntimeEEEEE3$_0NS_9allocatorISC_EEFvvEEclEv', symObjAddr: 0x2544, symBinAddr: 0xADFC, symSize: 0xB4 }
  - { offset: 0x6B744, size: 0x8, addend: 0x0, symName: '__ZNKSt3__110__function6__funcIZN8worklets9EventLoop8pushTaskEONS_8functionIFvRN8facebook3jsi7RuntimeEEEEE3$_0NS_9allocatorISC_EEFvvEE6targetERKSt9type_info', symObjAddr: 0x25F8, symBinAddr: 0xAEB0, symSize: 0x3C }
  - { offset: 0x6B7F7, size: 0x8, addend: 0x0, symName: '__ZNKSt3__110__function6__funcIZN8worklets9EventLoop8pushTaskEONS_8functionIFvRN8facebook3jsi7RuntimeEEEEE3$_0NS_9allocatorISC_EEFvvEE11target_typeEv', symObjAddr: 0x2634, symBinAddr: 0xAEEC, symSize: 0xC }
  - { offset: 0x6D7AA, size: 0x8, addend: 0x0, symName: __ZN8worklets19DynamicFeatureFlags6flags_E, symObjAddr: 0x31188, symBinAddr: 0x58DD8, symSize: 0x0 }
  - { offset: 0x738AF, size: 0x8, addend: 0x0, symName: __ZNSt3__113unordered_mapINS_12basic_stringIcNS_11char_traitsIcEENS_9allocatorIcEEEEbNS_4hashIS6_EENS_8equal_toIS6_EENS4_INS_4pairIKS6_bEEEEED1B8ne200100Ev, symObjAddr: 0x0, symBinAddr: 0xAF54, symSize: 0x4 }
  - { offset: 0x738DA, size: 0x8, addend: 0x0, symName: __ZNSt3__113unordered_mapINS_12basic_stringIcNS_11char_traitsIcEENS_9allocatorIcEEEEbNS_4hashIS6_EENS_8equal_toIS6_EENS4_INS_4pairIKS6_bEEEEED1B8ne200100Ev, symObjAddr: 0x0, symBinAddr: 0xAF54, symSize: 0x4 }
  - { offset: 0x738F6, size: 0x8, addend: 0x0, symName: __ZNSt3__113unordered_mapINS_12basic_stringIcNS_11char_traitsIcEENS_9allocatorIcEEEEbNS_4hashIS6_EENS_8equal_toIS6_EENS4_INS_4pairIKS6_bEEEEED1B8ne200100Ev, symObjAddr: 0x0, symBinAddr: 0xAF54, symSize: 0x4 }
  - { offset: 0x73915, size: 0x8, addend: 0x0, symName: __ZNSt3__113unordered_mapINS_12basic_stringIcNS_11char_traitsIcEENS_9allocatorIcEEEEbNS_4hashIS6_EENS_8equal_toIS6_EENS4_INS_4pairIKS6_bEEEEED1B8ne200100Ev, symObjAddr: 0x0, symBinAddr: 0xAF54, symSize: 0x4 }
  - { offset: 0x73929, size: 0x8, addend: 0x0, symName: __ZNSt3__112__hash_tableINS_17__hash_value_typeINS_12basic_stringIcNS_11char_traitsIcEENS_9allocatorIcEEEEbEENS_22__unordered_map_hasherIS7_S8_NS_4hashIS7_EENS_8equal_toIS7_EELb1EEENS_21__unordered_map_equalIS7_S8_SD_SB_Lb1EEENS5_IS8_EEED2Ev, symObjAddr: 0xBC, symBinAddr: 0xB010, symSize: 0x38 }
  - { offset: 0x73AF0, size: 0x8, addend: 0x0, symName: __ZN8worklets19DynamicFeatureFlags7getFlagERKNSt3__112basic_stringIcNS1_11char_traitsIcEENS1_9allocatorIcEEEE, symObjAddr: 0x4, symBinAddr: 0xAF58, symSize: 0x6C }
  - { offset: 0x73BC2, size: 0x8, addend: 0x0, symName: __ZNKSt3__112__hash_tableINS_17__hash_value_typeINS_12basic_stringIcNS_11char_traitsIcEENS_9allocatorIcEEEEbEENS_22__unordered_map_hasherIS7_S8_NS_4hashIS7_EENS_8equal_toIS7_EELb1EEENS_21__unordered_map_equalIS7_S8_SD_SB_Lb1EEENS5_IS8_EEE4findIS7_EENS_21__hash_const_iteratorIPNS_11__hash_nodeIS8_PvEEEERKT_, symObjAddr: 0x148, symBinAddr: 0xB08C, symSize: 0xF8 }
  - { offset: 0x73DC8, size: 0x8, addend: 0x0, symName: __ZNSt3__112__hash_tableINS_17__hash_value_typeINS_12basic_stringIcNS_11char_traitsIcEENS_9allocatorIcEEEEbEENS_22__unordered_map_hasherIS7_S8_NS_4hashIS7_EENS_8equal_toIS7_EELb1EEENS_21__unordered_map_equalIS7_S8_SD_SB_Lb1EEENS5_IS8_EEE25__emplace_unique_key_argsIS7_JRKNS_21piecewise_construct_tENS_5tupleIJRKS7_EEENSN_IJEEEEEENS_4pairINS_15__hash_iteratorIPNS_11__hash_nodeIS8_PvEEEEbEERKT_DpOT0_, symObjAddr: 0x758, symBinAddr: 0xB69C, symSize: 0x274 }
  - { offset: 0x742C0, size: 0x8, addend: 0x0, symName: __ZN8worklets19DynamicFeatureFlags7setFlagERKNSt3__112basic_stringIcNS1_11char_traitsIcEENS1_9allocatorIcEEEEb, symObjAddr: 0x70, symBinAddr: 0xAFC4, symSize: 0x4C }
  - { offset: 0x7442F, size: 0x8, addend: 0x0, symName: __ZNSt3__112__hash_tableINS_17__hash_value_typeINS_12basic_stringIcNS_11char_traitsIcEENS_9allocatorIcEEEEbEENS_22__unordered_map_hasherIS7_S8_NS_4hashIS7_EENS_8equal_toIS7_EELb1EEENS_21__unordered_map_equalIS7_S8_SD_SB_Lb1EEENS5_IS8_EEE17__deallocate_nodeEPNS_16__hash_node_baseIPNS_11__hash_nodeIS8_PvEEEE, symObjAddr: 0xF4, symBinAddr: 0xB048, symSize: 0x44 }
  - { offset: 0x74936, size: 0x8, addend: 0x0, symName: __ZNKSt3__113__string_hashIcNS_9allocatorIcEEEclB8ne200100ERKNS_12basic_stringIcNS_11char_traitsIcEES2_EE, symObjAddr: 0x240, symBinAddr: 0xB184, symSize: 0x3C }
  - { offset: 0x74A08, size: 0x8, addend: 0x0, symName: __ZNKSt3__18equal_toINS_12basic_stringIcNS_11char_traitsIcEENS_9allocatorIcEEEEEclB8ne200100ERKS6_S9_, symObjAddr: 0x6E8, symBinAddr: 0xB62C, symSize: 0x70 }
  - { offset: 0x74A51, size: 0x8, addend: 0x0, symName: __ZNKSt3__18equal_toINS_12basic_stringIcNS_11char_traitsIcEENS_9allocatorIcEEEEEclB8ne200100ERKS6_S9_, symObjAddr: 0x6E8, symBinAddr: 0xB62C, symSize: 0x70 }
  - { offset: 0x74A84, size: 0x8, addend: 0x0, symName: __ZNKSt3__18equal_toINS_12basic_stringIcNS_11char_traitsIcEENS_9allocatorIcEEEEEclB8ne200100ERKS6_S9_, symObjAddr: 0x6E8, symBinAddr: 0xB62C, symSize: 0x70 }
  - { offset: 0x74AA0, size: 0x8, addend: 0x0, symName: __ZNKSt3__18equal_toINS_12basic_stringIcNS_11char_traitsIcEENS_9allocatorIcEEEEEclB8ne200100ERKS6_S9_, symObjAddr: 0x6E8, symBinAddr: 0xB62C, symSize: 0x70 }
  - { offset: 0x74BD0, size: 0x8, addend: 0x0, symName: __ZNKSt3__121__murmur2_or_cityhashImLm64EEclB8ne200100EPKvm, symObjAddr: 0x27C, symBinAddr: 0xB1C0, symSize: 0x208 }
  - { offset: 0x75256, size: 0x8, addend: 0x0, symName: __ZNSt3__121__murmur2_or_cityhashImLm64EE18__hash_len_0_to_16B8ne200100EPKcm, symObjAddr: 0x484, symBinAddr: 0xB3C8, symSize: 0xF8 }
  - { offset: 0x7546B, size: 0x8, addend: 0x0, symName: __ZNSt3__121__murmur2_or_cityhashImLm64EE19__hash_len_33_to_64B8ne200100EPKcm, symObjAddr: 0x628, symBinAddr: 0xB56C, symSize: 0xC0 }
  - { offset: 0x756DC, size: 0x8, addend: 0x0, symName: __ZNSt3__121__murmur2_or_cityhashImLm64EE19__hash_len_17_to_32B8ne200100EPKcm, symObjAddr: 0x57C, symBinAddr: 0xB4C0, symSize: 0xAC }
  - { offset: 0x75971, size: 0x8, addend: 0x0, symName: __ZNSt3__112__hash_tableINS_17__hash_value_typeINS_12basic_stringIcNS_11char_traitsIcEENS_9allocatorIcEEEEbEENS_22__unordered_map_hasherIS7_S8_NS_4hashIS7_EENS_8equal_toIS7_EELb1EEENS_21__unordered_map_equalIS7_S8_SD_SB_Lb1EEENS5_IS8_EEE21__construct_node_hashIRKNS_21piecewise_construct_tEJNS_5tupleIJRKS7_EEENSN_IJEEEEEENS_10unique_ptrINS_11__hash_nodeIS8_PvEENS_22__hash_node_destructorINS5_ISV_EEEEEEmOT_DpOT0_, symObjAddr: 0x9CC, symBinAddr: 0xB910, symSize: 0xAC }
  - { offset: 0x75E08, size: 0x8, addend: 0x0, symName: __ZNSt3__122__hash_node_destructorINS_9allocatorINS_11__hash_nodeINS_17__hash_value_typeINS_12basic_stringIcNS_11char_traitsIcEENS1_IcEEEEbEEPvEEEEEclB8ne200100EPSB_, symObjAddr: 0xDD4, symBinAddr: 0xB9BC, symSize: 0x50 }
  - { offset: 0x76904, size: 0x8, addend: 0x0, symName: __ZNSt3__122__hash_node_destructorINS_9allocatorINS_11__hash_nodeINS_17__hash_value_typeINS_12basic_stringIcNS_11char_traitsIcEENS1_IcEEEEbEEPvEEEEEclB8ne200100EPSB_, symObjAddr: 0xDD4, symBinAddr: 0xB9BC, symSize: 0x50 }
  - { offset: 0x76A3F, size: 0x8, addend: 0x0, symName: __GLOBAL__sub_I_FeatureFlags.cpp, symObjAddr: 0xE70, symBinAddr: 0xBA0C, symSize: 0x2C }
  - { offset: 0x76A57, size: 0x8, addend: 0x0, symName: __GLOBAL__sub_I_FeatureFlags.cpp, symObjAddr: 0xE70, symBinAddr: 0xBA0C, symSize: 0x2C }
  - { offset: 0x76AC9, size: 0x8, addend: 0x0, symName: __GLOBAL__sub_I_FeatureFlags.cpp, symObjAddr: 0xE70, symBinAddr: 0xBA0C, symSize: 0x2C }
  - { offset: 0x76AE8, size: 0x8, addend: 0x0, symName: __GLOBAL__sub_I_FeatureFlags.cpp, symObjAddr: 0xE70, symBinAddr: 0xBA0C, symSize: 0x2C }
  - { offset: 0x78A03, size: 0x8, addend: 0x0, symName: __ZN8worklets14IOSUIScheduler12scheduleOnUIENSt3__18functionIFvvEEE, symObjAddr: 0x0, symBinAddr: 0xBA38, symSize: 0x1C4 }
  - { offset: 0x7AF0C, size: 0x8, addend: 0x0, symName: __ZN8worklets14IOSUIScheduler12scheduleOnUIENSt3__18functionIFvvEEE, symObjAddr: 0x0, symBinAddr: 0xBA38, symSize: 0x1C4 }
  - { offset: 0x7B68D, size: 0x8, addend: 0x0, symName: ____ZN8worklets14IOSUIScheduler12scheduleOnUIENSt3__18functionIFvvEEE_block_invoke, symObjAddr: 0x1C4, symBinAddr: 0xBBFC, symSize: 0xA4 }
  - { offset: 0x7B834, size: 0x8, addend: 0x0, symName: '___copy_helper_block_ea8_32c75_ZTSKZN8worklets14IOSUIScheduler12scheduleOnUIENSt3__18functionIFvvEEEE3$_0', symObjAddr: 0x268, symBinAddr: 0xBCA0, symSize: 0x24 }
  - { offset: 0x7B85C, size: 0x8, addend: 0x0, symName: '___copy_helper_block_ea8_32c75_ZTSKZN8worklets14IOSUIScheduler12scheduleOnUIENSt3__18functionIFvvEEEE3$_0', symObjAddr: 0x268, symBinAddr: 0xBCA0, symSize: 0x24 }
  - { offset: 0x7B881, size: 0x8, addend: 0x0, symName: '___copy_helper_block_ea8_32c75_ZTSKZN8worklets14IOSUIScheduler12scheduleOnUIENSt3__18functionIFvvEEEE3$_0', symObjAddr: 0x268, symBinAddr: 0xBCA0, symSize: 0x24 }
  - { offset: 0x7B8A7, size: 0x8, addend: 0x0, symName: '___copy_helper_block_ea8_32c75_ZTSKZN8worklets14IOSUIScheduler12scheduleOnUIENSt3__18functionIFvvEEEE3$_0', symObjAddr: 0x268, symBinAddr: 0xBCA0, symSize: 0x24 }
  - { offset: 0x7B8CD, size: 0x8, addend: 0x0, symName: '___copy_helper_block_ea8_32c75_ZTSKZN8worklets14IOSUIScheduler12scheduleOnUIENSt3__18functionIFvvEEEE3$_0', symObjAddr: 0x268, symBinAddr: 0xBCA0, symSize: 0x24 }
  - { offset: 0x7B932, size: 0x8, addend: 0x0, symName: '___destroy_helper_block_ea8_32c75_ZTSKZN8worklets14IOSUIScheduler12scheduleOnUIENSt3__18functionIFvvEEEE3$_0', symObjAddr: 0x28C, symBinAddr: 0xBCC4, symSize: 0x10 }
  - { offset: 0x7B954, size: 0x8, addend: 0x0, symName: '___destroy_helper_block_ea8_32c75_ZTSKZN8worklets14IOSUIScheduler12scheduleOnUIENSt3__18functionIFvvEEEE3$_0', symObjAddr: 0x28C, symBinAddr: 0xBCC4, symSize: 0x10 }
  - { offset: 0x7B971, size: 0x8, addend: 0x0, symName: '___destroy_helper_block_ea8_32c75_ZTSKZN8worklets14IOSUIScheduler12scheduleOnUIENSt3__18functionIFvvEEEE3$_0', symObjAddr: 0x28C, symBinAddr: 0xBCC4, symSize: 0x10 }
  - { offset: 0x7B98F, size: 0x8, addend: 0x0, symName: '___destroy_helper_block_ea8_32c75_ZTSKZN8worklets14IOSUIScheduler12scheduleOnUIENSt3__18functionIFvvEEEE3$_0', symObjAddr: 0x28C, symBinAddr: 0xBCC4, symSize: 0x10 }
  - { offset: 0x7B9AD, size: 0x8, addend: 0x0, symName: '___destroy_helper_block_ea8_32c75_ZTSKZN8worklets14IOSUIScheduler12scheduleOnUIENSt3__18functionIFvvEEEE3$_0', symObjAddr: 0x28C, symBinAddr: 0xBCC4, symSize: 0x10 }
  - { offset: 0x7BA09, size: 0x8, addend: 0x0, symName: __ZN8worklets14IOSUISchedulerD1Ev, symObjAddr: 0x29C, symBinAddr: 0xBCD4, symSize: 0x2C }
  - { offset: 0x7BAB8, size: 0x8, addend: 0x0, symName: __ZN8worklets11UISchedulerD2Ev, symObjAddr: 0x350, symBinAddr: 0xBD30, symSize: 0x4C }
  - { offset: 0x7BB71, size: 0x8, addend: 0x0, symName: __ZN8worklets14IOSUISchedulerD0Ev, symObjAddr: 0x2C8, symBinAddr: 0xBD00, symSize: 0x30 }
  - { offset: 0x7E30C, size: 0x8, addend: 0x0, symName: __ZN8workletsL21SUPPORTED_ERROR_TYPESE, symObjAddr: 0x63E90, symBinAddr: 0x58D18, symSize: 0x0 }
  - { offset: 0x7E326, size: 0x8, addend: 0x0, symName: __ZN8workletsL34SUPPORTED_INDEXED_COLLECTION_TYPESE, symObjAddr: 0x63EA8, symBinAddr: 0x58D30, symSize: 0x0 }
  - { offset: 0x7E340, size: 0x8, addend: 0x0, symName: __ZN8workletsL31SUPPORTED_STRUCTURED_DATA_TYPESE, symObjAddr: 0x63EC0, symBinAddr: 0x58D48, symSize: 0x0 }
  - { offset: 0x7E35A, size: 0x8, addend: 0x0, symName: __ZN8workletsL31SUPPORTED_MANAGING_MEMORY_TYPESE, symObjAddr: 0x63ED8, symBinAddr: 0x58D60, symSize: 0x0 }
  - { offset: 0x7E374, size: 0x8, addend: 0x0, symName: __ZN8workletsL34SUPPORTED_ABSTRACTION_OBJECT_TYPESE, symObjAddr: 0x63EF0, symBinAddr: 0x58D78, symSize: 0x0 }
  - { offset: 0x7E38E, size: 0x8, addend: 0x0, symName: __ZN8workletsL26SUPPORTED_REFLECTION_TYPESE, symObjAddr: 0x63F08, symBinAddr: 0x58D90, symSize: 0x0 }
  - { offset: 0x7E531, size: 0x8, addend: 0x0, symName: __ZN8workletsL17getObjectTypeNameERN8facebook3jsi7RuntimeERKNS1_6ObjectE, symObjAddr: 0x3B0, symBinAddr: 0xC12C, symSize: 0x150 }
  - { offset: 0x7E91E, size: 0x8, addend: 0x0, symName: __ZN8workletsL15isInstanceOfAnyERN8facebook3jsi7RuntimeERKNS1_6ObjectERKNSt3__16vectorINS7_12basic_stringIcNS7_11char_traitsIcEENS7_9allocatorIcEEEENSC_ISE_EEEE, symObjAddr: 0x2C64, symBinAddr: 0xE9E0, symSize: 0x5C }
  - { offset: 0x7EB3B, size: 0x8, addend: 0x0, symName: __ZN8workletsL12isInstanceOfERN8facebook3jsi7RuntimeERKNS1_6ObjectERKNSt3__112basic_stringIcNS7_11char_traitsIcEENS7_9allocatorIcEEEE, symObjAddr: 0x2CC0, symBinAddr: 0xEA3C, symSize: 0xA8 }
  - { offset: 0x7EDEF, size: 0x8, addend: 0x0, symName: __ZN8worklets17stringifyJSIValueERN8facebook3jsi7RuntimeERKNS1_5ValueE, symObjAddr: 0x2D68, symBinAddr: 0xEAE4, symSize: 0x7C }
  - { offset: 0x8637D, size: 0x8, addend: 0x0, symName: __ZNSt3__124__put_character_sequenceB8ne200100IcNS_11char_traitsIcEEEERNS_13basic_ostreamIT_T0_EES7_PKS4_m, symObjAddr: 0x35B0, symBinAddr: 0xF180, symSize: 0x168 }
  - { offset: 0x87976, size: 0x8, addend: 0x0, symName: __ZNSt3__16__findB8ne200100IPKNS_12basic_stringIcNS_11char_traitsIcEENS_9allocatorIcEEEES8_S6_NS_10__identityEEET_SA_T0_RKT1_RT2_, symObjAddr: 0x3324, symBinAddr: 0xEF4C, symSize: 0x90 }
  - { offset: 0x87D33, size: 0x8, addend: 0x0, symName: __ZNSt3__135__uninitialized_allocator_copy_implB8ne200100INS_9allocatorINS_12basic_stringIcNS_11char_traitsIcEENS1_IcEEEEEEPKS6_S9_PS6_EET2_RT_T0_T1_SB_, symObjAddr: 0x306C, symBinAddr: 0xED14, symSize: 0xBC }
  - { offset: 0x87FB1, size: 0x8, addend: 0x0, symName: __ZNSt3__119__allocate_at_leastB8ne200100INS_9allocatorINS_12basic_stringIcNS_11char_traitsIcEENS1_IcEEEEEEEENS_19__allocation_resultINS_16allocator_traitsIT_E7pointerEEERSA_m, symObjAddr: 0x3028, symBinAddr: 0xECD0, symSize: 0x44 }
  - { offset: 0x8805D, size: 0x8, addend: 0x0, symName: __ZNSt3__135__uninitialized_allocator_copy_implB8ne200100INS_9allocatorINS_12basic_stringIcNS_11char_traitsIcEENS1_IcEEEEEEPKS6_S9_PS6_EET2_RT_T0_T1_SB_, symObjAddr: 0x306C, symBinAddr: 0xED14, symSize: 0xBC }
  - { offset: 0x88885, size: 0x8, addend: 0x0, symName: __ZNSt3__116__pad_and_outputB8ne200100IcNS_11char_traitsIcEEEENS_19ostreambuf_iteratorIT_T0_EES6_PKS4_S8_S8_RNS_8ios_baseES4_, symObjAddr: 0x3718, symBinAddr: 0xF2E8, symSize: 0x13C }
  - { offset: 0x8BD7D, size: 0x8, addend: 0x0, symName: __ZNSt3__16vectorINS_12basic_stringIcNS_11char_traitsIcEENS_9allocatorIcEEEENS4_IS6_EEED1B8ne200100Ev, symObjAddr: 0x0, symBinAddr: 0xBD7C, symSize: 0x34 }
  - { offset: 0x8BE25, size: 0x8, addend: 0x0, symName: __ZNSt3__16vectorINS_12basic_stringIcNS_11char_traitsIcEENS_9allocatorIcEEEENS4_IS6_EEE16__destroy_vectorclB8ne200100Ev, symObjAddr: 0x31A0, symBinAddr: 0xEE48, symSize: 0x40 }
  - { offset: 0x8C00E, size: 0x8, addend: 0x0, symName: __ZN8worklets13JSISerializerC2ERN8facebook3jsi7RuntimeE, symObjAddr: 0x34, symBinAddr: 0xBDB0, symSize: 0x108 }
  - { offset: 0x8C2E7, size: 0x8, addend: 0x0, symName: __ZN8worklets13JSISerializerC1ERN8facebook3jsi7RuntimeE, symObjAddr: 0x13C, symBinAddr: 0xBEB8, symSize: 0x4 }
  - { offset: 0x8C311, size: 0x8, addend: 0x0, symName: __ZN8worklets13JSISerializerC1ERN8facebook3jsi7RuntimeE, symObjAddr: 0x13C, symBinAddr: 0xBEB8, symSize: 0x4 }
  - { offset: 0x8C5D2, size: 0x8, addend: 0x0, symName: __ZN8worklets13JSISerializer17stringifyWithNameERKN8facebook3jsi6ObjectE, symObjAddr: 0x140, symBinAddr: 0xBEBC, symSize: 0x16C }
  - { offset: 0x8CB6D, size: 0x8, addend: 0x0, symName: __ZNSt3__118basic_stringstreamIcNS_11char_traitsIcEENS_9allocatorIcEEEC1B8ne200100Ev, symObjAddr: 0x2AC, symBinAddr: 0xC028, symSize: 0x104 }
  - { offset: 0x8CCA1, size: 0x8, addend: 0x0, symName: __ZNKSt3__115basic_stringbufIcNS_11char_traitsIcEENS_9allocatorIcEEE3strB8ne200100IS4_EENS_12basic_stringIcS2_T_EERKS8_, symObjAddr: 0x38F0, symBinAddr: 0xF4C0, symSize: 0x90 }
  - { offset: 0x8CEF9, size: 0x8, addend: 0x0, symName: __ZNKSt3__115basic_stringbufIcNS_11char_traitsIcEENS_9allocatorIcEEE4viewB8ne200100Ev, symObjAddr: 0x3980, symBinAddr: 0xF550, symSize: 0x4C }
  - { offset: 0x8CF0D, size: 0x8, addend: 0x0, symName: __ZNSt3__118basic_stringstreamIcNS_11char_traitsIcEENS_9allocatorIcEEED1Ev, symObjAddr: 0x500, symBinAddr: 0xC27C, symSize: 0x88 }
  - { offset: 0x8D1E5, size: 0x8, addend: 0x0, symName: __ZNSt3__115basic_stringbufIcNS_11char_traitsIcEENS_9allocatorIcEEEC2B8ne200100Ej, symObjAddr: 0x340C, symBinAddr: 0xEFDC, symSize: 0xA0 }
  - { offset: 0x8D4BB, size: 0x8, addend: 0x0, symName: __ZN8worklets13JSISerializer14stringifyArrayERKN8facebook3jsi5ArrayE, symObjAddr: 0x588, symBinAddr: 0xC304, symSize: 0x208 }
  - { offset: 0x8DB23, size: 0x8, addend: 0x0, symName: __ZN8worklets13JSISerializer28stringifyJSIValueRecursivelyERKN8facebook3jsi5ValueEb, symObjAddr: 0x790, symBinAddr: 0xC50C, symSize: 0x818 }
  - { offset: 0x8FD20, size: 0x8, addend: 0x0, symName: __ZN8worklets13JSISerializer14hasBeenVisitedERKN8facebook3jsi6ObjectE, symObjAddr: 0x29C4, symBinAddr: 0xE740, symSize: 0x154 }
  - { offset: 0x9013E, size: 0x8, addend: 0x0, symName: __ZN8worklets13JSISerializer22stringifyRecursiveTypeERKN8facebook3jsi6ObjectE, symObjAddr: 0x2754, symBinAddr: 0xE4D0, symSize: 0x128 }
  - { offset: 0x905F4, size: 0x8, addend: 0x0, symName: __ZNSt3__112basic_stringIcNS_11char_traitsIcEENS_9allocatorIcEEEC2B8ne200100ILi0EEEPKc, symObjAddr: 0x2DE4, symBinAddr: 0xEB60, symSize: 0xA4 }
  - { offset: 0x9086B, size: 0x8, addend: 0x0, symName: __ZN8worklets13JSISerializer13markAsVisitedERKN8facebook3jsi6ObjectE, symObjAddr: 0x2B18, symBinAddr: 0xE894, symSize: 0x14C }
  - { offset: 0x90C6B, size: 0x8, addend: 0x0, symName: __ZN8worklets13JSISerializer17stringifyFunctionERKN8facebook3jsi8FunctionE, symObjAddr: 0xFA8, symBinAddr: 0xCD24, symSize: 0x304 }
  - { offset: 0x917FC, size: 0x8, addend: 0x0, symName: __ZN8worklets13JSISerializer19stringifyHostObjectERN8facebook3jsi10HostObjectE, symObjAddr: 0x12AC, symBinAddr: 0xD028, symSize: 0x41C }
  - { offset: 0x92A3F, size: 0x8, addend: 0x0, symName: __ZN8worklets13JSISerializer14stringifyErrorERKN8facebook3jsi6ObjectE, symObjAddr: 0x1A3C, symBinAddr: 0xD7B8, symSize: 0x380 }
  - { offset: 0x9385C, size: 0x8, addend: 0x0, symName: __ZN8worklets13JSISerializer21stringifyWithToStringERKN8facebook3jsi6ObjectE, symObjAddr: 0x287C, symBinAddr: 0xE5F8, symSize: 0x148 }
  - { offset: 0x93C65, size: 0x8, addend: 0x0, symName: __ZN8worklets13JSISerializer12stringifyMapERKN8facebook3jsi6ObjectE, symObjAddr: 0x21EC, symBinAddr: 0xDF68, symSize: 0x568 }
  - { offset: 0x95033, size: 0x8, addend: 0x0, symName: __ZN8worklets13JSISerializer12stringifySetERKN8facebook3jsi6ObjectE, symObjAddr: 0x1DBC, symBinAddr: 0xDB38, symSize: 0x430 }
  - { offset: 0x95E2D, size: 0x8, addend: 0x0, symName: __ZN8worklets13JSISerializer15stringifyObjectERKN8facebook3jsi6ObjectE, symObjAddr: 0x16C8, symBinAddr: 0xD444, symSize: 0x374 }
  - { offset: 0x96D61, size: 0x8, addend: 0x0, symName: __ZNSt3__16vectorIN8facebook3jsi10PropNameIDENS_9allocatorIS3_EEE16__destroy_vectorclB8ne200100Ev, symObjAddr: 0x32AC, symBinAddr: 0xEED4, symSize: 0x78 }
  - { offset: 0x96F30, size: 0x8, addend: 0x0, symName: __ZNSt3__16vectorIN8facebook3jsi10PropNameIDENS_9allocatorIS3_EEE16__destroy_vectorclB8ne200100Ev, symObjAddr: 0x32AC, symBinAddr: 0xEED4, symSize: 0x78 }
  - { offset: 0x97872, size: 0x8, addend: 0x0, symName: __ZNSt3__16vectorINS_12basic_stringIcNS_11char_traitsIcEENS_9allocatorIcEEEENS4_IS6_EEE16__init_with_sizeB8ne200100IPKS6_SB_EEvT_T0_m, symObjAddr: 0x2F48, symBinAddr: 0xEC04, symSize: 0x84 }
  - { offset: 0x97AD9, size: 0x8, addend: 0x0, symName: __ZNSt3__16vectorINS_12basic_stringIcNS_11char_traitsIcEENS_9allocatorIcEEEENS4_IS6_EEE11__vallocateB8ne200100Em, symObjAddr: 0x2FCC, symBinAddr: 0xEC88, symSize: 0x48 }
  - { offset: 0x97B46, size: 0x8, addend: 0x0, symName: __ZNSt3__119__allocate_at_leastB8ne200100INS_9allocatorINS_12basic_stringIcNS_11char_traitsIcEENS1_IcEEEEEEEENS_19__allocation_resultINS_16allocator_traitsIT_E7pointerEEERSA_m, symObjAddr: 0x3028, symBinAddr: 0xECD0, symSize: 0x44 }
  - { offset: 0x97C3A, size: 0x8, addend: 0x0, symName: __ZNSt3__128__exception_guard_exceptionsINS_29_AllocatorDestroyRangeReverseINS_9allocatorINS_12basic_stringIcNS_11char_traitsIcEENS2_IcEEEEEEPS7_EEED2B8ne200100Ev, symObjAddr: 0x3128, symBinAddr: 0xEDD0, symSize: 0x34 }
  - { offset: 0x97C7A, size: 0x8, addend: 0x0, symName: __ZNKSt3__129_AllocatorDestroyRangeReverseINS_9allocatorINS_12basic_stringIcNS_11char_traitsIcEENS1_IcEEEEEEPS6_EclB8ne200100Ev, symObjAddr: 0x315C, symBinAddr: 0xEE04, symSize: 0x44 }
  - { offset: 0x97F03, size: 0x8, addend: 0x0, symName: __ZNSt3__16vectorINS_12basic_stringIcNS_11char_traitsIcEENS_9allocatorIcEEEENS4_IS6_EEE5clearB8ne200100Ev, symObjAddr: 0x31E0, symBinAddr: 0xEE88, symSize: 0x4C }
  - { offset: 0x9825C, size: 0x8, addend: 0x0, symName: __ZNSt3__115basic_stringbufIcNS_11char_traitsIcEENS_9allocatorIcEEE15__init_buf_ptrsB8ne200100Ev, symObjAddr: 0x34AC, symBinAddr: 0xF07C, symSize: 0x104 }
  - { offset: 0x987E9, size: 0x8, addend: 0x0, symName: __ZNSt3__112basic_stringIcNS_11char_traitsIcEENS_9allocatorIcEEEC2B8ne200100Emc, symObjAddr: 0x3854, symBinAddr: 0xF424, symSize: 0x9C }
  - { offset: 0x98A29, size: 0x8, addend: 0x0, symName: __ZNKSt3__115basic_stringbufIcNS_11char_traitsIcEENS_9allocatorIcEEE3strB8ne200100IS4_EENS_12basic_stringIcS2_T_EERKS8_, symObjAddr: 0x38F0, symBinAddr: 0xF4C0, symSize: 0x90 }
  - { offset: 0x98B3D, size: 0x8, addend: 0x0, symName: __ZNKSt3__115basic_stringbufIcNS_11char_traitsIcEENS_9allocatorIcEEE4viewB8ne200100Ev, symObjAddr: 0x3980, symBinAddr: 0xF550, symSize: 0x4C }
  - { offset: 0x98DCD, size: 0x8, addend: 0x0, symName: __GLOBAL__sub_I_JSISerializer.cpp, symObjAddr: 0x3FC0, symBinAddr: 0xF59C, symSize: 0x7B0 }
  - { offset: 0x9ED99, size: 0x8, addend: 0x0, symName: __ZN8facebook3jsi6detail10throwOrDieINS0_18JSINativeExceptionEJRA43_KcEEEvDpOT0_, symObjAddr: 0x47F0, symBinAddr: 0x140E0, symSize: 0x90 }
  - { offset: 0xB2B03, size: 0x8, addend: 0x0, symName: __ZNSt3__114__split_bufferIN8facebook3jsi10PropNameIDERNS_9allocatorIS3_EEED2Ev, symObjAddr: 0x365C, symBinAddr: 0x13220, symSize: 0x58 }
  - { offset: 0xB4E09, size: 0x8, addend: 0x0, symName: __ZNSt3__1eqB8ne200100IcNS_11char_traitsIcEENS_9allocatorIcEEEEbRKNS_12basic_stringIT_T0_T1_EEPKS6_, symObjAddr: 0x3274, symBinAddr: 0x12FC0, symSize: 0x80 }
  - { offset: 0xB4FB7, size: 0x8, addend: 0x0, symName: __ZNSt3__115allocate_sharedB8ne200100IN8worklets22JSIWorkletsModuleProxyENS_9allocatorIS2_EEJRS2_ELi0EEENS_10shared_ptrIT_EERKT0_DpOT1_, symObjAddr: 0x5CB8, symBinAddr: 0x15320, symSize: 0x58 }
  - { offset: 0xB557F, size: 0x8, addend: 0x0, symName: __ZNSt3__120__throw_out_of_rangeB8ne200100EPKc, symObjAddr: 0x3740, symBinAddr: 0x1328C, symSize: 0x50 }
  - { offset: 0xB9210, size: 0x8, addend: 0x0, symName: __ZNSt3__115allocate_sharedB8ne200100IN8worklets14AsyncQueueImplENS_9allocatorIS2_EEJNS_12basic_stringIcNS_11char_traitsIcEENS3_IcEEEEELi0EEENS_10shared_ptrIT_EERKT0_DpOT1_, symObjAddr: 0x66F0, symBinAddr: 0x15D58, symSize: 0x58 }
  - { offset: 0xB98F1, size: 0x8, addend: 0x0, symName: __ZNSt3__112construct_atB8ne200100IN8worklets14AsyncQueueImplEJNS_12basic_stringIcNS_11char_traitsIcEENS_9allocatorIcEEEEEPS2_EEPT_SB_DpOT0_, symObjAddr: 0x67DC, symBinAddr: 0x15E44, symSize: 0x74 }
  - { offset: 0xBA19F, size: 0x8, addend: 0x0, symName: __ZNSt3__115allocate_sharedB8ne200100IN8worklets14SynchronizableENS_9allocatorIS2_EEJRNS_10shared_ptrINS1_12SerializableEEEELi0EEENS5_IT_EERKT0_DpOT1_, symObjAddr: 0x748C, symBinAddr: 0x169CC, symSize: 0x60 }
  - { offset: 0xC1A68, size: 0x8, addend: 0x0, symName: __ZSt30__make_exception_ptr_via_throwB8ne200100IN8facebook3jsi18JSINativeExceptionEESt13exception_ptrRT_, symObjAddr: 0x4880, symBinAddr: 0x14170, symSize: 0x94 }
  - { offset: 0xC26FF, size: 0x8, addend: 0x0, symName: __ZN8worklets12scheduleOnUIERKNSt3__110shared_ptrINS_11UISchedulerEEERKNS0_8weak_ptrINS_14WorkletRuntimeEEERN8facebook3jsi7RuntimeERKNSC_5ValueE, symObjAddr: 0x520C, symBinAddr: 0x149D4, symSize: 0x214 }
  - { offset: 0xC34DE, size: 0x8, addend: 0x0, symName: __ZN8worklets26extractSerializableOrThrowINS_19SerializableWorkletEEENSt3__110shared_ptrIT_EERN8facebook3jsi7RuntimeERKNS7_5ValueERKNS2_12basic_stringIcNS2_11char_traitsIcEENS2_9allocatorIcEEEE, symObjAddr: 0x5420, symBinAddr: 0x14BE8, symSize: 0x108 }
  - { offset: 0xC3733, size: 0x8, addend: 0x0, symName: __ZN8worklets19runOnRuntimeGuardedIJEEEN8facebook3jsi5ValueERNS2_7RuntimeERKS3_DpOT_, symObjAddr: 0x58D0, symBinAddr: 0x14FE8, symSize: 0xE4 }
  - { offset: 0xC3AC5, size: 0x8, addend: 0x0, symName: __ZN8worklets17extractAsyncQueueERN8facebook3jsi7RuntimeERKNS1_5ValueE, symObjAddr: 0x63D0, symBinAddr: 0x15A38, symSize: 0x138 }
  - { offset: 0xC3EE8, size: 0x8, addend: 0x0, symName: __ZN8worklets20createWorkletRuntimeERN8facebook3jsi7RuntimeERKNSt3__110shared_ptrINS_14RuntimeManagerEEERKNS5_INS0_5react18MessageQueueThreadEEENS5_INS_22JSIWorkletsModuleProxyEEERKNS4_12basic_stringIcNS4_11char_traitsIcEENS4_9allocatorIcEEEERNS5_INS_19SerializableWorkletEEERKNS5_INS_10AsyncQueueEEEb, symObjAddr: 0x6508, symBinAddr: 0x15B70, symSize: 0x1E8 }
  - { offset: 0xC462D, size: 0x8, addend: 0x0, symName: __ZN8worklets20reportFatalErrorOnJSERKNSt3__110shared_ptrINS_11JSSchedulerEEERKNS0_12basic_stringIcNS0_11char_traitsIcEENS0_9allocatorIcEEEESD_SD_SD_, symObjAddr: 0x6E7C, symBinAddr: 0x163BC, symSize: 0x1A4 }
  - { offset: 0xC577B, size: 0x8, addend: 0x0, symName: __ZN8worklets22JSIWorkletsModuleProxy3getERN8facebook3jsi7RuntimeERKNS2_10PropNameIDE, symObjAddr: 0x1FD4, symBinAddr: 0x11D20, symSize: 0x12A0 }
  - { offset: 0xCE21A, size: 0x8, addend: 0x0, symName: __ZNSt3__110shared_ptrIN8worklets14SynchronizableEE18__enable_weak_thisB8ne200100IS2_S2_Li0EEEvPKNS_23enable_shared_from_thisIT_EEPT0_, symObjAddr: 0x7580, symBinAddr: 0x16AC0, symSize: 0xB0 }
  - { offset: 0xCEA8C, size: 0x8, addend: 0x0, symName: __ZN8worklets22JSIWorkletsModuleProxyC2EbRKNSt3__110shared_ptrIKN8facebook5react15BigStringBufferEEERKNS1_12basic_stringIcNS1_11char_traitsIcEENS1_9allocatorIcEEEERKNS2_INS4_18MessageQueueThreadEEERKNS2_INS_11JSSchedulerEEERKNS2_INS_11UISchedulerEEERKNS2_INS_14RuntimeManagerEEERKNS1_8weak_ptrINS_14WorkletRuntimeEEE, symObjAddr: 0x0, symBinAddr: 0xFD4C, symSize: 0x160 }
  - { offset: 0xCF13D, size: 0x8, addend: 0x0, symName: __ZN8worklets22JSIWorkletsModuleProxyC1EbRKNSt3__110shared_ptrIKN8facebook5react15BigStringBufferEEERKNS1_12basic_stringIcNS1_11char_traitsIcEENS1_9allocatorIcEEEERKNS2_INS4_18MessageQueueThreadEEERKNS2_INS_11JSSchedulerEEERKNS2_INS_11UISchedulerEEERKNS2_INS_14RuntimeManagerEEERKNS1_8weak_ptrINS_14WorkletRuntimeEEE, symObjAddr: 0x160, symBinAddr: 0xFEAC, symSize: 0xC }
  - { offset: 0xCF22D, size: 0x8, addend: 0x0, symName: __ZN8worklets22JSIWorkletsModuleProxyC2ERKS0_, symObjAddr: 0x16C, symBinAddr: 0xFEB8, symSize: 0x14C }
  - { offset: 0xCF6E8, size: 0x8, addend: 0x0, symName: __ZN8worklets22JSIWorkletsModuleProxyC1ERKS0_, symObjAddr: 0x2B8, symBinAddr: 0x10004, symSize: 0x4 }
  - { offset: 0xCF712, size: 0x8, addend: 0x0, symName: __ZN8worklets22JSIWorkletsModuleProxyC1ERKS0_, symObjAddr: 0x2B8, symBinAddr: 0x10004, symSize: 0x4 }
  - { offset: 0xCF87F, size: 0x8, addend: 0x0, symName: __ZN8worklets22JSIWorkletsModuleProxyD2Ev, symObjAddr: 0x2BC, symBinAddr: 0x10008, symSize: 0x70 }
  - { offset: 0xCFC25, size: 0x8, addend: 0x0, symName: __ZN8worklets22JSIWorkletsModuleProxyD1Ev, symObjAddr: 0x32C, symBinAddr: 0x10078, symSize: 0x4 }
  - { offset: 0xCFC48, size: 0x8, addend: 0x0, symName: __ZN8worklets22JSIWorkletsModuleProxyD1Ev, symObjAddr: 0x32C, symBinAddr: 0x10078, symSize: 0x4 }
  - { offset: 0xCFC78, size: 0x8, addend: 0x0, symName: __ZN8worklets22JSIWorkletsModuleProxyD0Ev, symObjAddr: 0x330, symBinAddr: 0x1007C, symSize: 0x14 }
  - { offset: 0xD00CA, size: 0x8, addend: 0x0, symName: __ZN8worklets22JSIWorkletsModuleProxy16getPropertyNamesERN8facebook3jsi7RuntimeE, symObjAddr: 0x344, symBinAddr: 0x10090, symSize: 0x1C90 }
  - { offset: 0xD89B8, size: 0x8, addend: 0x0, symName: __ZNSt3__16vectorIN8facebook3jsi10PropNameIDENS_9allocatorIS3_EEE26__swap_out_circular_bufferERNS_14__split_bufferIS3_RS5_EE, symObjAddr: 0x3558, symBinAddr: 0x13164, symSize: 0xBC }
  - { offset: 0xD8CA1, size: 0x8, addend: 0x0, symName: __ZNSt3__114__split_bufferIN8facebook3jsi10PropNameIDERNS_9allocatorIS3_EEED2Ev, symObjAddr: 0x365C, symBinAddr: 0x13220, symSize: 0x58 }
  - { offset: 0xDC99C, size: 0x8, addend: 0x0, symName: __ZNSt3__110__function12__value_funcIFN8facebook3jsi5ValueERNS3_7RuntimeERKS4_PS7_mEEC2B8ne200100EOSB_, symObjAddr: 0x37B4, symBinAddr: 0x13300, symSize: 0x64 }
  - { offset: 0xDC9EB, size: 0x8, addend: 0x0, symName: __ZN8facebook3jsi8Function22createFromHostFunctionERNS0_7RuntimeERKNS0_10PropNameIDEjNSt3__18functionIFNS0_5ValueES3_RKS9_PSA_mEEE, symObjAddr: 0x32F4, symBinAddr: 0x13040, symSize: 0xF8 }
  - { offset: 0xDCBF7, size: 0x8, addend: 0x0, symName: '__ZZN8worklets22JSIWorkletsModuleProxy3getERN8facebook3jsi7RuntimeERKNS2_10PropNameIDEEN4$_17D1Ev', symObjAddr: 0x33EC, symBinAddr: 0x13138, symSize: 0x2C }
  - { offset: 0xDCD3B, size: 0x8, addend: 0x0, symName: __ZNSt3__112basic_stringIcNS_11char_traitsIcEENS_9allocatorIcEEE20__throw_out_of_rangeB8ne200100Ev, symObjAddr: 0x372C, symBinAddr: 0x13278, symSize: 0x14 }
  - { offset: 0xDCD53, size: 0x8, addend: 0x0, symName: __ZNSt3__120__throw_out_of_rangeB8ne200100EPKc, symObjAddr: 0x3740, symBinAddr: 0x1328C, symSize: 0x50 }
  - { offset: 0xDD038, size: 0x8, addend: 0x0, symName: __ZNSt12out_of_rangeC1B8ne200100EPKc, symObjAddr: 0x3790, symBinAddr: 0x132DC, symSize: 0x24 }
  - { offset: 0xDD0ED, size: 0x8, addend: 0x0, symName: '__ZNSt3__110__function6__funcIZN8worklets22JSIWorkletsModuleProxy3getERN8facebook3jsi7RuntimeERKNS5_10PropNameIDEE3$_0NS_9allocatorISB_EEFNS5_5ValueES7_RKSE_PSF_mEED1Ev', symObjAddr: 0x3A28, symBinAddr: 0x13364, symSize: 0x4 }
  - { offset: 0xDD119, size: 0x8, addend: 0x0, symName: '__ZNSt3__110__function6__funcIZN8worklets22JSIWorkletsModuleProxy3getERN8facebook3jsi7RuntimeERKNS5_10PropNameIDEE3$_0NS_9allocatorISB_EEFNS5_5ValueES7_RKSE_PSF_mEED0Ev', symObjAddr: 0x3A2C, symBinAddr: 0x13368, symSize: 0x4 }
  - { offset: 0xDD1CF, size: 0x8, addend: 0x0, symName: '__ZNKSt3__110__function6__funcIZN8worklets22JSIWorkletsModuleProxy3getERN8facebook3jsi7RuntimeERKNS5_10PropNameIDEE3$_0NS_9allocatorISB_EEFNS5_5ValueES7_RKSE_PSF_mEE7__cloneEv', symObjAddr: 0x3A30, symBinAddr: 0x1336C, symSize: 0x24 }
  - { offset: 0xDD317, size: 0x8, addend: 0x0, symName: '__ZNKSt3__110__function6__funcIZN8worklets22JSIWorkletsModuleProxy3getERN8facebook3jsi7RuntimeERKNS5_10PropNameIDEE3$_0NS_9allocatorISB_EEFNS5_5ValueES7_RKSE_PSF_mEE7__cloneEPNS0_6__baseISI_EE', symObjAddr: 0x3A54, symBinAddr: 0x13390, symSize: 0x10 }
  - { offset: 0xDD34B, size: 0x8, addend: 0x0, symName: '__ZNKSt3__110__function6__funcIZN8worklets22JSIWorkletsModuleProxy3getERN8facebook3jsi7RuntimeERKNS5_10PropNameIDEE3$_0NS_9allocatorISB_EEFNS5_5ValueES7_RKSE_PSF_mEE7__cloneEPNS0_6__baseISI_EE', symObjAddr: 0x3A54, symBinAddr: 0x13390, symSize: 0x10 }
  - { offset: 0xDD367, size: 0x8, addend: 0x0, symName: '__ZNKSt3__110__function6__funcIZN8worklets22JSIWorkletsModuleProxy3getERN8facebook3jsi7RuntimeERKNS5_10PropNameIDEE3$_0NS_9allocatorISB_EEFNS5_5ValueES7_RKSE_PSF_mEE7__cloneEPNS0_6__baseISI_EE', symObjAddr: 0x3A54, symBinAddr: 0x13390, symSize: 0x10 }
  - { offset: 0xDD383, size: 0x8, addend: 0x0, symName: '__ZNSt3__110__function6__funcIZN8worklets22JSIWorkletsModuleProxy3getERN8facebook3jsi7RuntimeERKNS5_10PropNameIDEE3$_0NS_9allocatorISB_EEFNS5_5ValueES7_RKSE_PSF_mEE7destroyEv', symObjAddr: 0x3A64, symBinAddr: 0x133A0, symSize: 0x4 }
  - { offset: 0xDD3D7, size: 0x8, addend: 0x0, symName: '__ZNSt3__110__function6__funcIZN8worklets22JSIWorkletsModuleProxy3getERN8facebook3jsi7RuntimeERKNS5_10PropNameIDEE3$_0NS_9allocatorISB_EEFNS5_5ValueES7_RKSE_PSF_mEE18destroy_deallocateEv', symObjAddr: 0x3A68, symBinAddr: 0x133A4, symSize: 0x4 }
  - { offset: 0xDD40B, size: 0x8, addend: 0x0, symName: '__ZNSt3__110__function6__funcIZN8worklets22JSIWorkletsModuleProxy3getERN8facebook3jsi7RuntimeERKNS5_10PropNameIDEE3$_0NS_9allocatorISB_EEFNS5_5ValueES7_RKSE_PSF_mEE18destroy_deallocateEv', symObjAddr: 0x3A68, symBinAddr: 0x133A4, symSize: 0x4 }
  - { offset: 0xDD42D, size: 0x8, addend: 0x0, symName: '__ZNSt3__110__function6__funcIZN8worklets22JSIWorkletsModuleProxy3getERN8facebook3jsi7RuntimeERKNS5_10PropNameIDEE3$_0NS_9allocatorISB_EEFNS5_5ValueES7_RKSE_PSF_mEE18destroy_deallocateEv', symObjAddr: 0x3A68, symBinAddr: 0x133A4, symSize: 0x4 }
  - { offset: 0xDD45E, size: 0x8, addend: 0x0, symName: '__ZNSt3__110__function6__funcIZN8worklets22JSIWorkletsModuleProxy3getERN8facebook3jsi7RuntimeERKNS5_10PropNameIDEE3$_0NS_9allocatorISB_EEFNS5_5ValueES7_RKSE_PSF_mEE18destroy_deallocateEv', symObjAddr: 0x3A68, symBinAddr: 0x133A4, symSize: 0x4 }
  - { offset: 0xDD57B, size: 0x8, addend: 0x0, symName: '__ZNSt3__110__function6__funcIZN8worklets22JSIWorkletsModuleProxy3getERN8facebook3jsi7RuntimeERKNS5_10PropNameIDEE3$_0NS_9allocatorISB_EEFNS5_5ValueES7_RKSE_PSF_mEEclES7_SG_OSH_Om', symObjAddr: 0x3A6C, symBinAddr: 0x133A8, symSize: 0x14 }
  - { offset: 0xDD6B2, size: 0x8, addend: 0x0, symName: '__ZNKSt3__110__function6__funcIZN8worklets22JSIWorkletsModuleProxy3getERN8facebook3jsi7RuntimeERKNS5_10PropNameIDEE3$_0NS_9allocatorISB_EEFNS5_5ValueES7_RKSE_PSF_mEE6targetERKSt9type_info', symObjAddr: 0x3A80, symBinAddr: 0x133BC, symSize: 0x3C }
  - { offset: 0xDD765, size: 0x8, addend: 0x0, symName: '__ZNKSt3__110__function6__funcIZN8worklets22JSIWorkletsModuleProxy3getERN8facebook3jsi7RuntimeERKNS5_10PropNameIDEE3$_0NS_9allocatorISB_EEFNS5_5ValueES7_RKSE_PSF_mEE11target_typeEv', symObjAddr: 0x3ABC, symBinAddr: 0x133F8, symSize: 0xC }
  - { offset: 0xDD7D0, size: 0x8, addend: 0x0, symName: '__ZNSt3__110__function6__funcIZN8worklets22JSIWorkletsModuleProxy3getERN8facebook3jsi7RuntimeERKNS5_10PropNameIDEE3$_1NS_9allocatorISB_EEFNS5_5ValueES7_RKSE_PSF_mEED1Ev', symObjAddr: 0x3B14, symBinAddr: 0x13404, symSize: 0x4 }
  - { offset: 0xDD7FC, size: 0x8, addend: 0x0, symName: '__ZNSt3__110__function6__funcIZN8worklets22JSIWorkletsModuleProxy3getERN8facebook3jsi7RuntimeERKNS5_10PropNameIDEE3$_1NS_9allocatorISB_EEFNS5_5ValueES7_RKSE_PSF_mEED0Ev', symObjAddr: 0x3B18, symBinAddr: 0x13408, symSize: 0x4 }
  - { offset: 0xDD8B2, size: 0x8, addend: 0x0, symName: '__ZNKSt3__110__function6__funcIZN8worklets22JSIWorkletsModuleProxy3getERN8facebook3jsi7RuntimeERKNS5_10PropNameIDEE3$_1NS_9allocatorISB_EEFNS5_5ValueES7_RKSE_PSF_mEE7__cloneEv', symObjAddr: 0x3B1C, symBinAddr: 0x1340C, symSize: 0x24 }
  - { offset: 0xDD9FA, size: 0x8, addend: 0x0, symName: '__ZNKSt3__110__function6__funcIZN8worklets22JSIWorkletsModuleProxy3getERN8facebook3jsi7RuntimeERKNS5_10PropNameIDEE3$_1NS_9allocatorISB_EEFNS5_5ValueES7_RKSE_PSF_mEE7__cloneEPNS0_6__baseISI_EE', symObjAddr: 0x3B40, symBinAddr: 0x13430, symSize: 0x10 }
  - { offset: 0xDDA2E, size: 0x8, addend: 0x0, symName: '__ZNKSt3__110__function6__funcIZN8worklets22JSIWorkletsModuleProxy3getERN8facebook3jsi7RuntimeERKNS5_10PropNameIDEE3$_1NS_9allocatorISB_EEFNS5_5ValueES7_RKSE_PSF_mEE7__cloneEPNS0_6__baseISI_EE', symObjAddr: 0x3B40, symBinAddr: 0x13430, symSize: 0x10 }
  - { offset: 0xDDA4A, size: 0x8, addend: 0x0, symName: '__ZNKSt3__110__function6__funcIZN8worklets22JSIWorkletsModuleProxy3getERN8facebook3jsi7RuntimeERKNS5_10PropNameIDEE3$_1NS_9allocatorISB_EEFNS5_5ValueES7_RKSE_PSF_mEE7__cloneEPNS0_6__baseISI_EE', symObjAddr: 0x3B40, symBinAddr: 0x13430, symSize: 0x10 }
  - { offset: 0xDDA66, size: 0x8, addend: 0x0, symName: '__ZNSt3__110__function6__funcIZN8worklets22JSIWorkletsModuleProxy3getERN8facebook3jsi7RuntimeERKNS5_10PropNameIDEE3$_1NS_9allocatorISB_EEFNS5_5ValueES7_RKSE_PSF_mEE7destroyEv', symObjAddr: 0x3B50, symBinAddr: 0x13440, symSize: 0x4 }
  - { offset: 0xDDABA, size: 0x8, addend: 0x0, symName: '__ZNSt3__110__function6__funcIZN8worklets22JSIWorkletsModuleProxy3getERN8facebook3jsi7RuntimeERKNS5_10PropNameIDEE3$_1NS_9allocatorISB_EEFNS5_5ValueES7_RKSE_PSF_mEE18destroy_deallocateEv', symObjAddr: 0x3B54, symBinAddr: 0x13444, symSize: 0x4 }
  - { offset: 0xDDAEE, size: 0x8, addend: 0x0, symName: '__ZNSt3__110__function6__funcIZN8worklets22JSIWorkletsModuleProxy3getERN8facebook3jsi7RuntimeERKNS5_10PropNameIDEE3$_1NS_9allocatorISB_EEFNS5_5ValueES7_RKSE_PSF_mEE18destroy_deallocateEv', symObjAddr: 0x3B54, symBinAddr: 0x13444, symSize: 0x4 }
  - { offset: 0xDDB10, size: 0x8, addend: 0x0, symName: '__ZNSt3__110__function6__funcIZN8worklets22JSIWorkletsModuleProxy3getERN8facebook3jsi7RuntimeERKNS5_10PropNameIDEE3$_1NS_9allocatorISB_EEFNS5_5ValueES7_RKSE_PSF_mEE18destroy_deallocateEv', symObjAddr: 0x3B54, symBinAddr: 0x13444, symSize: 0x4 }
  - { offset: 0xDDB41, size: 0x8, addend: 0x0, symName: '__ZNSt3__110__function6__funcIZN8worklets22JSIWorkletsModuleProxy3getERN8facebook3jsi7RuntimeERKNS5_10PropNameIDEE3$_1NS_9allocatorISB_EEFNS5_5ValueES7_RKSE_PSF_mEE18destroy_deallocateEv', symObjAddr: 0x3B54, symBinAddr: 0x13444, symSize: 0x4 }
  - { offset: 0xDDCA1, size: 0x8, addend: 0x0, symName: '__ZNSt3__110__function6__funcIZN8worklets22JSIWorkletsModuleProxy3getERN8facebook3jsi7RuntimeERKNS5_10PropNameIDEE3$_1NS_9allocatorISB_EEFNS5_5ValueES7_RKSE_PSF_mEEclES7_SG_OSH_Om', symObjAddr: 0x3B58, symBinAddr: 0x13448, symSize: 0x78 }
  - { offset: 0xDDE9D, size: 0x8, addend: 0x0, symName: '__ZNKSt3__110__function6__funcIZN8worklets22JSIWorkletsModuleProxy3getERN8facebook3jsi7RuntimeERKNS5_10PropNameIDEE3$_1NS_9allocatorISB_EEFNS5_5ValueES7_RKSE_PSF_mEE6targetERKSt9type_info', symObjAddr: 0x3BD0, symBinAddr: 0x134C0, symSize: 0x3C }
  - { offset: 0xDDEEA, size: 0x8, addend: 0x0, symName: '__ZNKSt3__110__function6__funcIZN8worklets22JSIWorkletsModuleProxy3getERN8facebook3jsi7RuntimeERKNS5_10PropNameIDEE3$_1NS_9allocatorISB_EEFNS5_5ValueES7_RKSE_PSF_mEE11target_typeEv', symObjAddr: 0x3C0C, symBinAddr: 0x134FC, symSize: 0xC }
  - { offset: 0xDDF0D, size: 0x8, addend: 0x0, symName: '__ZNSt3__110__function6__funcIZN8worklets22JSIWorkletsModuleProxy3getERN8facebook3jsi7RuntimeERKNS5_10PropNameIDEE3$_2NS_9allocatorISB_EEFNS5_5ValueES7_RKSE_PSF_mEED1Ev', symObjAddr: 0x3C18, symBinAddr: 0x13508, symSize: 0x4 }
  - { offset: 0xDDF39, size: 0x8, addend: 0x0, symName: '__ZNSt3__110__function6__funcIZN8worklets22JSIWorkletsModuleProxy3getERN8facebook3jsi7RuntimeERKNS5_10PropNameIDEE3$_2NS_9allocatorISB_EEFNS5_5ValueES7_RKSE_PSF_mEED0Ev', symObjAddr: 0x3C1C, symBinAddr: 0x1350C, symSize: 0x4 }
  - { offset: 0xDDFEF, size: 0x8, addend: 0x0, symName: '__ZNKSt3__110__function6__funcIZN8worklets22JSIWorkletsModuleProxy3getERN8facebook3jsi7RuntimeERKNS5_10PropNameIDEE3$_2NS_9allocatorISB_EEFNS5_5ValueES7_RKSE_PSF_mEE7__cloneEv', symObjAddr: 0x3C20, symBinAddr: 0x13510, symSize: 0x24 }
  - { offset: 0xDE137, size: 0x8, addend: 0x0, symName: '__ZNKSt3__110__function6__funcIZN8worklets22JSIWorkletsModuleProxy3getERN8facebook3jsi7RuntimeERKNS5_10PropNameIDEE3$_2NS_9allocatorISB_EEFNS5_5ValueES7_RKSE_PSF_mEE7__cloneEPNS0_6__baseISI_EE', symObjAddr: 0x3C44, symBinAddr: 0x13534, symSize: 0x10 }
  - { offset: 0xDE16B, size: 0x8, addend: 0x0, symName: '__ZNKSt3__110__function6__funcIZN8worklets22JSIWorkletsModuleProxy3getERN8facebook3jsi7RuntimeERKNS5_10PropNameIDEE3$_2NS_9allocatorISB_EEFNS5_5ValueES7_RKSE_PSF_mEE7__cloneEPNS0_6__baseISI_EE', symObjAddr: 0x3C44, symBinAddr: 0x13534, symSize: 0x10 }
  - { offset: 0xDE187, size: 0x8, addend: 0x0, symName: '__ZNKSt3__110__function6__funcIZN8worklets22JSIWorkletsModuleProxy3getERN8facebook3jsi7RuntimeERKNS5_10PropNameIDEE3$_2NS_9allocatorISB_EEFNS5_5ValueES7_RKSE_PSF_mEE7__cloneEPNS0_6__baseISI_EE', symObjAddr: 0x3C44, symBinAddr: 0x13534, symSize: 0x10 }
  - { offset: 0xDE1A3, size: 0x8, addend: 0x0, symName: '__ZNSt3__110__function6__funcIZN8worklets22JSIWorkletsModuleProxy3getERN8facebook3jsi7RuntimeERKNS5_10PropNameIDEE3$_2NS_9allocatorISB_EEFNS5_5ValueES7_RKSE_PSF_mEE7destroyEv', symObjAddr: 0x3C54, symBinAddr: 0x13544, symSize: 0x4 }
  - { offset: 0xDE1F7, size: 0x8, addend: 0x0, symName: '__ZNSt3__110__function6__funcIZN8worklets22JSIWorkletsModuleProxy3getERN8facebook3jsi7RuntimeERKNS5_10PropNameIDEE3$_2NS_9allocatorISB_EEFNS5_5ValueES7_RKSE_PSF_mEE18destroy_deallocateEv', symObjAddr: 0x3C58, symBinAddr: 0x13548, symSize: 0x4 }
  - { offset: 0xDE22B, size: 0x8, addend: 0x0, symName: '__ZNSt3__110__function6__funcIZN8worklets22JSIWorkletsModuleProxy3getERN8facebook3jsi7RuntimeERKNS5_10PropNameIDEE3$_2NS_9allocatorISB_EEFNS5_5ValueES7_RKSE_PSF_mEE18destroy_deallocateEv', symObjAddr: 0x3C58, symBinAddr: 0x13548, symSize: 0x4 }
  - { offset: 0xDE24D, size: 0x8, addend: 0x0, symName: '__ZNSt3__110__function6__funcIZN8worklets22JSIWorkletsModuleProxy3getERN8facebook3jsi7RuntimeERKNS5_10PropNameIDEE3$_2NS_9allocatorISB_EEFNS5_5ValueES7_RKSE_PSF_mEE18destroy_deallocateEv', symObjAddr: 0x3C58, symBinAddr: 0x13548, symSize: 0x4 }
  - { offset: 0xDE27E, size: 0x8, addend: 0x0, symName: '__ZNSt3__110__function6__funcIZN8worklets22JSIWorkletsModuleProxy3getERN8facebook3jsi7RuntimeERKNS5_10PropNameIDEE3$_2NS_9allocatorISB_EEFNS5_5ValueES7_RKSE_PSF_mEE18destroy_deallocateEv', symObjAddr: 0x3C58, symBinAddr: 0x13548, symSize: 0x4 }
  - { offset: 0xDE39F, size: 0x8, addend: 0x0, symName: '__ZNSt3__110__function6__funcIZN8worklets22JSIWorkletsModuleProxy3getERN8facebook3jsi7RuntimeERKNS5_10PropNameIDEE3$_2NS_9allocatorISB_EEFNS5_5ValueES7_RKSE_PSF_mEEclES7_SG_OSH_Om', symObjAddr: 0x3C5C, symBinAddr: 0x1354C, symSize: 0x34 }
  - { offset: 0xDE4D7, size: 0x8, addend: 0x0, symName: '__ZNKSt3__110__function6__funcIZN8worklets22JSIWorkletsModuleProxy3getERN8facebook3jsi7RuntimeERKNS5_10PropNameIDEE3$_2NS_9allocatorISB_EEFNS5_5ValueES7_RKSE_PSF_mEE6targetERKSt9type_info', symObjAddr: 0x3C90, symBinAddr: 0x13580, symSize: 0x3C }
  - { offset: 0xDE524, size: 0x8, addend: 0x0, symName: '__ZNKSt3__110__function6__funcIZN8worklets22JSIWorkletsModuleProxy3getERN8facebook3jsi7RuntimeERKNS5_10PropNameIDEE3$_2NS_9allocatorISB_EEFNS5_5ValueES7_RKSE_PSF_mEE11target_typeEv', symObjAddr: 0x3CCC, symBinAddr: 0x135BC, symSize: 0xC }
  - { offset: 0xDE547, size: 0x8, addend: 0x0, symName: '__ZNSt3__110__function6__funcIZN8worklets22JSIWorkletsModuleProxy3getERN8facebook3jsi7RuntimeERKNS5_10PropNameIDEE3$_3NS_9allocatorISB_EEFNS5_5ValueES7_RKSE_PSF_mEED1Ev', symObjAddr: 0x3CD8, symBinAddr: 0x135C8, symSize: 0x4 }
  - { offset: 0xDE573, size: 0x8, addend: 0x0, symName: '__ZNSt3__110__function6__funcIZN8worklets22JSIWorkletsModuleProxy3getERN8facebook3jsi7RuntimeERKNS5_10PropNameIDEE3$_3NS_9allocatorISB_EEFNS5_5ValueES7_RKSE_PSF_mEED0Ev', symObjAddr: 0x3CDC, symBinAddr: 0x135CC, symSize: 0x4 }
  - { offset: 0xDE629, size: 0x8, addend: 0x0, symName: '__ZNKSt3__110__function6__funcIZN8worklets22JSIWorkletsModuleProxy3getERN8facebook3jsi7RuntimeERKNS5_10PropNameIDEE3$_3NS_9allocatorISB_EEFNS5_5ValueES7_RKSE_PSF_mEE7__cloneEv', symObjAddr: 0x3CE0, symBinAddr: 0x135D0, symSize: 0x24 }
  - { offset: 0xDE771, size: 0x8, addend: 0x0, symName: '__ZNKSt3__110__function6__funcIZN8worklets22JSIWorkletsModuleProxy3getERN8facebook3jsi7RuntimeERKNS5_10PropNameIDEE3$_3NS_9allocatorISB_EEFNS5_5ValueES7_RKSE_PSF_mEE7__cloneEPNS0_6__baseISI_EE', symObjAddr: 0x3D04, symBinAddr: 0x135F4, symSize: 0x10 }
  - { offset: 0xDE7A5, size: 0x8, addend: 0x0, symName: '__ZNKSt3__110__function6__funcIZN8worklets22JSIWorkletsModuleProxy3getERN8facebook3jsi7RuntimeERKNS5_10PropNameIDEE3$_3NS_9allocatorISB_EEFNS5_5ValueES7_RKSE_PSF_mEE7__cloneEPNS0_6__baseISI_EE', symObjAddr: 0x3D04, symBinAddr: 0x135F4, symSize: 0x10 }
  - { offset: 0xDE7C1, size: 0x8, addend: 0x0, symName: '__ZNKSt3__110__function6__funcIZN8worklets22JSIWorkletsModuleProxy3getERN8facebook3jsi7RuntimeERKNS5_10PropNameIDEE3$_3NS_9allocatorISB_EEFNS5_5ValueES7_RKSE_PSF_mEE7__cloneEPNS0_6__baseISI_EE', symObjAddr: 0x3D04, symBinAddr: 0x135F4, symSize: 0x10 }
  - { offset: 0xDE7DD, size: 0x8, addend: 0x0, symName: '__ZNSt3__110__function6__funcIZN8worklets22JSIWorkletsModuleProxy3getERN8facebook3jsi7RuntimeERKNS5_10PropNameIDEE3$_3NS_9allocatorISB_EEFNS5_5ValueES7_RKSE_PSF_mEE7destroyEv', symObjAddr: 0x3D14, symBinAddr: 0x13604, symSize: 0x4 }
  - { offset: 0xDE831, size: 0x8, addend: 0x0, symName: '__ZNSt3__110__function6__funcIZN8worklets22JSIWorkletsModuleProxy3getERN8facebook3jsi7RuntimeERKNS5_10PropNameIDEE3$_3NS_9allocatorISB_EEFNS5_5ValueES7_RKSE_PSF_mEE18destroy_deallocateEv', symObjAddr: 0x3D18, symBinAddr: 0x13608, symSize: 0x4 }
  - { offset: 0xDE865, size: 0x8, addend: 0x0, symName: '__ZNSt3__110__function6__funcIZN8worklets22JSIWorkletsModuleProxy3getERN8facebook3jsi7RuntimeERKNS5_10PropNameIDEE3$_3NS_9allocatorISB_EEFNS5_5ValueES7_RKSE_PSF_mEE18destroy_deallocateEv', symObjAddr: 0x3D18, symBinAddr: 0x13608, symSize: 0x4 }
  - { offset: 0xDE887, size: 0x8, addend: 0x0, symName: '__ZNSt3__110__function6__funcIZN8worklets22JSIWorkletsModuleProxy3getERN8facebook3jsi7RuntimeERKNS5_10PropNameIDEE3$_3NS_9allocatorISB_EEFNS5_5ValueES7_RKSE_PSF_mEE18destroy_deallocateEv', symObjAddr: 0x3D18, symBinAddr: 0x13608, symSize: 0x4 }
  - { offset: 0xDE8B8, size: 0x8, addend: 0x0, symName: '__ZNSt3__110__function6__funcIZN8worklets22JSIWorkletsModuleProxy3getERN8facebook3jsi7RuntimeERKNS5_10PropNameIDEE3$_3NS_9allocatorISB_EEFNS5_5ValueES7_RKSE_PSF_mEE18destroy_deallocateEv', symObjAddr: 0x3D18, symBinAddr: 0x13608, symSize: 0x4 }
  - { offset: 0xDEA18, size: 0x8, addend: 0x0, symName: '__ZNSt3__110__function6__funcIZN8worklets22JSIWorkletsModuleProxy3getERN8facebook3jsi7RuntimeERKNS5_10PropNameIDEE3$_3NS_9allocatorISB_EEFNS5_5ValueES7_RKSE_PSF_mEEclES7_SG_OSH_Om', symObjAddr: 0x3D1C, symBinAddr: 0x1360C, symSize: 0xA0 }
  - { offset: 0xDEC19, size: 0x8, addend: 0x0, symName: '__ZNKSt3__110__function6__funcIZN8worklets22JSIWorkletsModuleProxy3getERN8facebook3jsi7RuntimeERKNS5_10PropNameIDEE3$_3NS_9allocatorISB_EEFNS5_5ValueES7_RKSE_PSF_mEE6targetERKSt9type_info', symObjAddr: 0x3DBC, symBinAddr: 0x136AC, symSize: 0x3C }
  - { offset: 0xDEC66, size: 0x8, addend: 0x0, symName: '__ZNKSt3__110__function6__funcIZN8worklets22JSIWorkletsModuleProxy3getERN8facebook3jsi7RuntimeERKNS5_10PropNameIDEE3$_3NS_9allocatorISB_EEFNS5_5ValueES7_RKSE_PSF_mEE11target_typeEv', symObjAddr: 0x3DF8, symBinAddr: 0x136E8, symSize: 0xC }
  - { offset: 0xDEC89, size: 0x8, addend: 0x0, symName: '__ZNSt3__110__function6__funcIZN8worklets22JSIWorkletsModuleProxy3getERN8facebook3jsi7RuntimeERKNS5_10PropNameIDEE3$_4NS_9allocatorISB_EEFNS5_5ValueES7_RKSE_PSF_mEED1Ev', symObjAddr: 0x3E04, symBinAddr: 0x136F4, symSize: 0x4 }
  - { offset: 0xDECB5, size: 0x8, addend: 0x0, symName: '__ZNSt3__110__function6__funcIZN8worklets22JSIWorkletsModuleProxy3getERN8facebook3jsi7RuntimeERKNS5_10PropNameIDEE3$_4NS_9allocatorISB_EEFNS5_5ValueES7_RKSE_PSF_mEED0Ev', symObjAddr: 0x3E08, symBinAddr: 0x136F8, symSize: 0x4 }
  - { offset: 0xDED6B, size: 0x8, addend: 0x0, symName: '__ZNKSt3__110__function6__funcIZN8worklets22JSIWorkletsModuleProxy3getERN8facebook3jsi7RuntimeERKNS5_10PropNameIDEE3$_4NS_9allocatorISB_EEFNS5_5ValueES7_RKSE_PSF_mEE7__cloneEv', symObjAddr: 0x3E0C, symBinAddr: 0x136FC, symSize: 0x24 }
  - { offset: 0xDEEB3, size: 0x8, addend: 0x0, symName: '__ZNKSt3__110__function6__funcIZN8worklets22JSIWorkletsModuleProxy3getERN8facebook3jsi7RuntimeERKNS5_10PropNameIDEE3$_4NS_9allocatorISB_EEFNS5_5ValueES7_RKSE_PSF_mEE7__cloneEPNS0_6__baseISI_EE', symObjAddr: 0x3E30, symBinAddr: 0x13720, symSize: 0x10 }
  - { offset: 0xDEEE7, size: 0x8, addend: 0x0, symName: '__ZNKSt3__110__function6__funcIZN8worklets22JSIWorkletsModuleProxy3getERN8facebook3jsi7RuntimeERKNS5_10PropNameIDEE3$_4NS_9allocatorISB_EEFNS5_5ValueES7_RKSE_PSF_mEE7__cloneEPNS0_6__baseISI_EE', symObjAddr: 0x3E30, symBinAddr: 0x13720, symSize: 0x10 }
  - { offset: 0xDEF03, size: 0x8, addend: 0x0, symName: '__ZNKSt3__110__function6__funcIZN8worklets22JSIWorkletsModuleProxy3getERN8facebook3jsi7RuntimeERKNS5_10PropNameIDEE3$_4NS_9allocatorISB_EEFNS5_5ValueES7_RKSE_PSF_mEE7__cloneEPNS0_6__baseISI_EE', symObjAddr: 0x3E30, symBinAddr: 0x13720, symSize: 0x10 }
  - { offset: 0xDEF1F, size: 0x8, addend: 0x0, symName: '__ZNSt3__110__function6__funcIZN8worklets22JSIWorkletsModuleProxy3getERN8facebook3jsi7RuntimeERKNS5_10PropNameIDEE3$_4NS_9allocatorISB_EEFNS5_5ValueES7_RKSE_PSF_mEE7destroyEv', symObjAddr: 0x3E40, symBinAddr: 0x13730, symSize: 0x4 }
  - { offset: 0xDEF73, size: 0x8, addend: 0x0, symName: '__ZNSt3__110__function6__funcIZN8worklets22JSIWorkletsModuleProxy3getERN8facebook3jsi7RuntimeERKNS5_10PropNameIDEE3$_4NS_9allocatorISB_EEFNS5_5ValueES7_RKSE_PSF_mEE18destroy_deallocateEv', symObjAddr: 0x3E44, symBinAddr: 0x13734, symSize: 0x4 }
  - { offset: 0xDEFA7, size: 0x8, addend: 0x0, symName: '__ZNSt3__110__function6__funcIZN8worklets22JSIWorkletsModuleProxy3getERN8facebook3jsi7RuntimeERKNS5_10PropNameIDEE3$_4NS_9allocatorISB_EEFNS5_5ValueES7_RKSE_PSF_mEE18destroy_deallocateEv', symObjAddr: 0x3E44, symBinAddr: 0x13734, symSize: 0x4 }
  - { offset: 0xDEFC9, size: 0x8, addend: 0x0, symName: '__ZNSt3__110__function6__funcIZN8worklets22JSIWorkletsModuleProxy3getERN8facebook3jsi7RuntimeERKNS5_10PropNameIDEE3$_4NS_9allocatorISB_EEFNS5_5ValueES7_RKSE_PSF_mEE18destroy_deallocateEv', symObjAddr: 0x3E44, symBinAddr: 0x13734, symSize: 0x4 }
  - { offset: 0xDEFFA, size: 0x8, addend: 0x0, symName: '__ZNSt3__110__function6__funcIZN8worklets22JSIWorkletsModuleProxy3getERN8facebook3jsi7RuntimeERKNS5_10PropNameIDEE3$_4NS_9allocatorISB_EEFNS5_5ValueES7_RKSE_PSF_mEE18destroy_deallocateEv', symObjAddr: 0x3E44, symBinAddr: 0x13734, symSize: 0x4 }
  - { offset: 0xDF11B, size: 0x8, addend: 0x0, symName: '__ZNSt3__110__function6__funcIZN8worklets22JSIWorkletsModuleProxy3getERN8facebook3jsi7RuntimeERKNS5_10PropNameIDEE3$_4NS_9allocatorISB_EEFNS5_5ValueES7_RKSE_PSF_mEEclES7_SG_OSH_Om', symObjAddr: 0x3E48, symBinAddr: 0x13738, symSize: 0x30 }
  - { offset: 0xDF253, size: 0x8, addend: 0x0, symName: '__ZNKSt3__110__function6__funcIZN8worklets22JSIWorkletsModuleProxy3getERN8facebook3jsi7RuntimeERKNS5_10PropNameIDEE3$_4NS_9allocatorISB_EEFNS5_5ValueES7_RKSE_PSF_mEE6targetERKSt9type_info', symObjAddr: 0x3E78, symBinAddr: 0x13768, symSize: 0x3C }
  - { offset: 0xDF2A0, size: 0x8, addend: 0x0, symName: '__ZNKSt3__110__function6__funcIZN8worklets22JSIWorkletsModuleProxy3getERN8facebook3jsi7RuntimeERKNS5_10PropNameIDEE3$_4NS_9allocatorISB_EEFNS5_5ValueES7_RKSE_PSF_mEE11target_typeEv', symObjAddr: 0x3EB4, symBinAddr: 0x137A4, symSize: 0xC }
  - { offset: 0xDF2C3, size: 0x8, addend: 0x0, symName: '__ZNSt3__110__function6__funcIZN8worklets22JSIWorkletsModuleProxy3getERN8facebook3jsi7RuntimeERKNS5_10PropNameIDEE3$_5NS_9allocatorISB_EEFNS5_5ValueES7_RKSE_PSF_mEED1Ev', symObjAddr: 0x3EC0, symBinAddr: 0x137B0, symSize: 0x4 }
  - { offset: 0xDF2EF, size: 0x8, addend: 0x0, symName: '__ZNSt3__110__function6__funcIZN8worklets22JSIWorkletsModuleProxy3getERN8facebook3jsi7RuntimeERKNS5_10PropNameIDEE3$_5NS_9allocatorISB_EEFNS5_5ValueES7_RKSE_PSF_mEED0Ev', symObjAddr: 0x3EC4, symBinAddr: 0x137B4, symSize: 0x4 }
  - { offset: 0xDF3A5, size: 0x8, addend: 0x0, symName: '__ZNKSt3__110__function6__funcIZN8worklets22JSIWorkletsModuleProxy3getERN8facebook3jsi7RuntimeERKNS5_10PropNameIDEE3$_5NS_9allocatorISB_EEFNS5_5ValueES7_RKSE_PSF_mEE7__cloneEv', symObjAddr: 0x3EC8, symBinAddr: 0x137B8, symSize: 0x24 }
  - { offset: 0xDF4ED, size: 0x8, addend: 0x0, symName: '__ZNKSt3__110__function6__funcIZN8worklets22JSIWorkletsModuleProxy3getERN8facebook3jsi7RuntimeERKNS5_10PropNameIDEE3$_5NS_9allocatorISB_EEFNS5_5ValueES7_RKSE_PSF_mEE7__cloneEPNS0_6__baseISI_EE', symObjAddr: 0x3EEC, symBinAddr: 0x137DC, symSize: 0x10 }
  - { offset: 0xDF521, size: 0x8, addend: 0x0, symName: '__ZNKSt3__110__function6__funcIZN8worklets22JSIWorkletsModuleProxy3getERN8facebook3jsi7RuntimeERKNS5_10PropNameIDEE3$_5NS_9allocatorISB_EEFNS5_5ValueES7_RKSE_PSF_mEE7__cloneEPNS0_6__baseISI_EE', symObjAddr: 0x3EEC, symBinAddr: 0x137DC, symSize: 0x10 }
  - { offset: 0xDF53D, size: 0x8, addend: 0x0, symName: '__ZNKSt3__110__function6__funcIZN8worklets22JSIWorkletsModuleProxy3getERN8facebook3jsi7RuntimeERKNS5_10PropNameIDEE3$_5NS_9allocatorISB_EEFNS5_5ValueES7_RKSE_PSF_mEE7__cloneEPNS0_6__baseISI_EE', symObjAddr: 0x3EEC, symBinAddr: 0x137DC, symSize: 0x10 }
  - { offset: 0xDF559, size: 0x8, addend: 0x0, symName: '__ZNSt3__110__function6__funcIZN8worklets22JSIWorkletsModuleProxy3getERN8facebook3jsi7RuntimeERKNS5_10PropNameIDEE3$_5NS_9allocatorISB_EEFNS5_5ValueES7_RKSE_PSF_mEE7destroyEv', symObjAddr: 0x3EFC, symBinAddr: 0x137EC, symSize: 0x4 }
  - { offset: 0xDF5AD, size: 0x8, addend: 0x0, symName: '__ZNSt3__110__function6__funcIZN8worklets22JSIWorkletsModuleProxy3getERN8facebook3jsi7RuntimeERKNS5_10PropNameIDEE3$_5NS_9allocatorISB_EEFNS5_5ValueES7_RKSE_PSF_mEE18destroy_deallocateEv', symObjAddr: 0x3F00, symBinAddr: 0x137F0, symSize: 0x4 }
  - { offset: 0xDF5E1, size: 0x8, addend: 0x0, symName: '__ZNSt3__110__function6__funcIZN8worklets22JSIWorkletsModuleProxy3getERN8facebook3jsi7RuntimeERKNS5_10PropNameIDEE3$_5NS_9allocatorISB_EEFNS5_5ValueES7_RKSE_PSF_mEE18destroy_deallocateEv', symObjAddr: 0x3F00, symBinAddr: 0x137F0, symSize: 0x4 }
  - { offset: 0xDF603, size: 0x8, addend: 0x0, symName: '__ZNSt3__110__function6__funcIZN8worklets22JSIWorkletsModuleProxy3getERN8facebook3jsi7RuntimeERKNS5_10PropNameIDEE3$_5NS_9allocatorISB_EEFNS5_5ValueES7_RKSE_PSF_mEE18destroy_deallocateEv', symObjAddr: 0x3F00, symBinAddr: 0x137F0, symSize: 0x4 }
  - { offset: 0xDF634, size: 0x8, addend: 0x0, symName: '__ZNSt3__110__function6__funcIZN8worklets22JSIWorkletsModuleProxy3getERN8facebook3jsi7RuntimeERKNS5_10PropNameIDEE3$_5NS_9allocatorISB_EEFNS5_5ValueES7_RKSE_PSF_mEE18destroy_deallocateEv', symObjAddr: 0x3F00, symBinAddr: 0x137F0, symSize: 0x4 }
  - { offset: 0xDF755, size: 0x8, addend: 0x0, symName: '__ZNSt3__110__function6__funcIZN8worklets22JSIWorkletsModuleProxy3getERN8facebook3jsi7RuntimeERKNS5_10PropNameIDEE3$_5NS_9allocatorISB_EEFNS5_5ValueES7_RKSE_PSF_mEEclES7_SG_OSH_Om', symObjAddr: 0x3F04, symBinAddr: 0x137F4, symSize: 0x8 }
  - { offset: 0xDF859, size: 0x8, addend: 0x0, symName: '__ZNKSt3__110__function6__funcIZN8worklets22JSIWorkletsModuleProxy3getERN8facebook3jsi7RuntimeERKNS5_10PropNameIDEE3$_5NS_9allocatorISB_EEFNS5_5ValueES7_RKSE_PSF_mEE6targetERKSt9type_info', symObjAddr: 0x3F0C, symBinAddr: 0x137FC, symSize: 0x3C }
  - { offset: 0xDF8A6, size: 0x8, addend: 0x0, symName: '__ZNKSt3__110__function6__funcIZN8worklets22JSIWorkletsModuleProxy3getERN8facebook3jsi7RuntimeERKNS5_10PropNameIDEE3$_5NS_9allocatorISB_EEFNS5_5ValueES7_RKSE_PSF_mEE11target_typeEv', symObjAddr: 0x3F48, symBinAddr: 0x13838, symSize: 0xC }
  - { offset: 0xDF8C9, size: 0x8, addend: 0x0, symName: '__ZNSt3__110__function6__funcIZN8worklets22JSIWorkletsModuleProxy3getERN8facebook3jsi7RuntimeERKNS5_10PropNameIDEE3$_6NS_9allocatorISB_EEFNS5_5ValueES7_RKSE_PSF_mEED1Ev', symObjAddr: 0x3F54, symBinAddr: 0x13844, symSize: 0x4 }
  - { offset: 0xDF8F5, size: 0x8, addend: 0x0, symName: '__ZNSt3__110__function6__funcIZN8worklets22JSIWorkletsModuleProxy3getERN8facebook3jsi7RuntimeERKNS5_10PropNameIDEE3$_6NS_9allocatorISB_EEFNS5_5ValueES7_RKSE_PSF_mEED0Ev', symObjAddr: 0x3F58, symBinAddr: 0x13848, symSize: 0x4 }
  - { offset: 0xDF9AB, size: 0x8, addend: 0x0, symName: '__ZNKSt3__110__function6__funcIZN8worklets22JSIWorkletsModuleProxy3getERN8facebook3jsi7RuntimeERKNS5_10PropNameIDEE3$_6NS_9allocatorISB_EEFNS5_5ValueES7_RKSE_PSF_mEE7__cloneEv', symObjAddr: 0x3F5C, symBinAddr: 0x1384C, symSize: 0x24 }
  - { offset: 0xDFAF3, size: 0x8, addend: 0x0, symName: '__ZNKSt3__110__function6__funcIZN8worklets22JSIWorkletsModuleProxy3getERN8facebook3jsi7RuntimeERKNS5_10PropNameIDEE3$_6NS_9allocatorISB_EEFNS5_5ValueES7_RKSE_PSF_mEE7__cloneEPNS0_6__baseISI_EE', symObjAddr: 0x3F80, symBinAddr: 0x13870, symSize: 0x10 }
  - { offset: 0xDFB27, size: 0x8, addend: 0x0, symName: '__ZNKSt3__110__function6__funcIZN8worklets22JSIWorkletsModuleProxy3getERN8facebook3jsi7RuntimeERKNS5_10PropNameIDEE3$_6NS_9allocatorISB_EEFNS5_5ValueES7_RKSE_PSF_mEE7__cloneEPNS0_6__baseISI_EE', symObjAddr: 0x3F80, symBinAddr: 0x13870, symSize: 0x10 }
  - { offset: 0xDFB43, size: 0x8, addend: 0x0, symName: '__ZNKSt3__110__function6__funcIZN8worklets22JSIWorkletsModuleProxy3getERN8facebook3jsi7RuntimeERKNS5_10PropNameIDEE3$_6NS_9allocatorISB_EEFNS5_5ValueES7_RKSE_PSF_mEE7__cloneEPNS0_6__baseISI_EE', symObjAddr: 0x3F80, symBinAddr: 0x13870, symSize: 0x10 }
  - { offset: 0xDFB5F, size: 0x8, addend: 0x0, symName: '__ZNSt3__110__function6__funcIZN8worklets22JSIWorkletsModuleProxy3getERN8facebook3jsi7RuntimeERKNS5_10PropNameIDEE3$_6NS_9allocatorISB_EEFNS5_5ValueES7_RKSE_PSF_mEE7destroyEv', symObjAddr: 0x3F90, symBinAddr: 0x13880, symSize: 0x4 }
  - { offset: 0xDFBB3, size: 0x8, addend: 0x0, symName: '__ZNSt3__110__function6__funcIZN8worklets22JSIWorkletsModuleProxy3getERN8facebook3jsi7RuntimeERKNS5_10PropNameIDEE3$_6NS_9allocatorISB_EEFNS5_5ValueES7_RKSE_PSF_mEE18destroy_deallocateEv', symObjAddr: 0x3F94, symBinAddr: 0x13884, symSize: 0x4 }
  - { offset: 0xDFBE7, size: 0x8, addend: 0x0, symName: '__ZNSt3__110__function6__funcIZN8worklets22JSIWorkletsModuleProxy3getERN8facebook3jsi7RuntimeERKNS5_10PropNameIDEE3$_6NS_9allocatorISB_EEFNS5_5ValueES7_RKSE_PSF_mEE18destroy_deallocateEv', symObjAddr: 0x3F94, symBinAddr: 0x13884, symSize: 0x4 }
  - { offset: 0xDFC09, size: 0x8, addend: 0x0, symName: '__ZNSt3__110__function6__funcIZN8worklets22JSIWorkletsModuleProxy3getERN8facebook3jsi7RuntimeERKNS5_10PropNameIDEE3$_6NS_9allocatorISB_EEFNS5_5ValueES7_RKSE_PSF_mEE18destroy_deallocateEv', symObjAddr: 0x3F94, symBinAddr: 0x13884, symSize: 0x4 }
  - { offset: 0xDFC3A, size: 0x8, addend: 0x0, symName: '__ZNSt3__110__function6__funcIZN8worklets22JSIWorkletsModuleProxy3getERN8facebook3jsi7RuntimeERKNS5_10PropNameIDEE3$_6NS_9allocatorISB_EEFNS5_5ValueES7_RKSE_PSF_mEE18destroy_deallocateEv', symObjAddr: 0x3F94, symBinAddr: 0x13884, symSize: 0x4 }
  - { offset: 0xDFD5B, size: 0x8, addend: 0x0, symName: '__ZNSt3__110__function6__funcIZN8worklets22JSIWorkletsModuleProxy3getERN8facebook3jsi7RuntimeERKNS5_10PropNameIDEE3$_6NS_9allocatorISB_EEFNS5_5ValueES7_RKSE_PSF_mEEclES7_SG_OSH_Om', symObjAddr: 0x3F98, symBinAddr: 0x13888, symSize: 0x78 }
  - { offset: 0xDFF57, size: 0x8, addend: 0x0, symName: '__ZNKSt3__110__function6__funcIZN8worklets22JSIWorkletsModuleProxy3getERN8facebook3jsi7RuntimeERKNS5_10PropNameIDEE3$_6NS_9allocatorISB_EEFNS5_5ValueES7_RKSE_PSF_mEE6targetERKSt9type_info', symObjAddr: 0x4010, symBinAddr: 0x13900, symSize: 0x3C }
  - { offset: 0xDFFA4, size: 0x8, addend: 0x0, symName: '__ZNKSt3__110__function6__funcIZN8worklets22JSIWorkletsModuleProxy3getERN8facebook3jsi7RuntimeERKNS5_10PropNameIDEE3$_6NS_9allocatorISB_EEFNS5_5ValueES7_RKSE_PSF_mEE11target_typeEv', symObjAddr: 0x404C, symBinAddr: 0x1393C, symSize: 0xC }
  - { offset: 0xDFFC7, size: 0x8, addend: 0x0, symName: '__ZNSt3__110__function6__funcIZN8worklets22JSIWorkletsModuleProxy3getERN8facebook3jsi7RuntimeERKNS5_10PropNameIDEE3$_7NS_9allocatorISB_EEFNS5_5ValueES7_RKSE_PSF_mEED1Ev', symObjAddr: 0x4058, symBinAddr: 0x13948, symSize: 0x4 }
  - { offset: 0xDFFF3, size: 0x8, addend: 0x0, symName: '__ZNSt3__110__function6__funcIZN8worklets22JSIWorkletsModuleProxy3getERN8facebook3jsi7RuntimeERKNS5_10PropNameIDEE3$_7NS_9allocatorISB_EEFNS5_5ValueES7_RKSE_PSF_mEED0Ev', symObjAddr: 0x405C, symBinAddr: 0x1394C, symSize: 0x4 }
  - { offset: 0xE00A9, size: 0x8, addend: 0x0, symName: '__ZNKSt3__110__function6__funcIZN8worklets22JSIWorkletsModuleProxy3getERN8facebook3jsi7RuntimeERKNS5_10PropNameIDEE3$_7NS_9allocatorISB_EEFNS5_5ValueES7_RKSE_PSF_mEE7__cloneEv', symObjAddr: 0x4060, symBinAddr: 0x13950, symSize: 0x24 }
  - { offset: 0xE01F1, size: 0x8, addend: 0x0, symName: '__ZNKSt3__110__function6__funcIZN8worklets22JSIWorkletsModuleProxy3getERN8facebook3jsi7RuntimeERKNS5_10PropNameIDEE3$_7NS_9allocatorISB_EEFNS5_5ValueES7_RKSE_PSF_mEE7__cloneEPNS0_6__baseISI_EE', symObjAddr: 0x4084, symBinAddr: 0x13974, symSize: 0x10 }
  - { offset: 0xE0225, size: 0x8, addend: 0x0, symName: '__ZNKSt3__110__function6__funcIZN8worklets22JSIWorkletsModuleProxy3getERN8facebook3jsi7RuntimeERKNS5_10PropNameIDEE3$_7NS_9allocatorISB_EEFNS5_5ValueES7_RKSE_PSF_mEE7__cloneEPNS0_6__baseISI_EE', symObjAddr: 0x4084, symBinAddr: 0x13974, symSize: 0x10 }
  - { offset: 0xE0241, size: 0x8, addend: 0x0, symName: '__ZNKSt3__110__function6__funcIZN8worklets22JSIWorkletsModuleProxy3getERN8facebook3jsi7RuntimeERKNS5_10PropNameIDEE3$_7NS_9allocatorISB_EEFNS5_5ValueES7_RKSE_PSF_mEE7__cloneEPNS0_6__baseISI_EE', symObjAddr: 0x4084, symBinAddr: 0x13974, symSize: 0x10 }
  - { offset: 0xE025D, size: 0x8, addend: 0x0, symName: '__ZNSt3__110__function6__funcIZN8worklets22JSIWorkletsModuleProxy3getERN8facebook3jsi7RuntimeERKNS5_10PropNameIDEE3$_7NS_9allocatorISB_EEFNS5_5ValueES7_RKSE_PSF_mEE7destroyEv', symObjAddr: 0x4094, symBinAddr: 0x13984, symSize: 0x4 }
  - { offset: 0xE02B1, size: 0x8, addend: 0x0, symName: '__ZNSt3__110__function6__funcIZN8worklets22JSIWorkletsModuleProxy3getERN8facebook3jsi7RuntimeERKNS5_10PropNameIDEE3$_7NS_9allocatorISB_EEFNS5_5ValueES7_RKSE_PSF_mEE18destroy_deallocateEv', symObjAddr: 0x4098, symBinAddr: 0x13988, symSize: 0x4 }
  - { offset: 0xE02E5, size: 0x8, addend: 0x0, symName: '__ZNSt3__110__function6__funcIZN8worklets22JSIWorkletsModuleProxy3getERN8facebook3jsi7RuntimeERKNS5_10PropNameIDEE3$_7NS_9allocatorISB_EEFNS5_5ValueES7_RKSE_PSF_mEE18destroy_deallocateEv', symObjAddr: 0x4098, symBinAddr: 0x13988, symSize: 0x4 }
  - { offset: 0xE0307, size: 0x8, addend: 0x0, symName: '__ZNSt3__110__function6__funcIZN8worklets22JSIWorkletsModuleProxy3getERN8facebook3jsi7RuntimeERKNS5_10PropNameIDEE3$_7NS_9allocatorISB_EEFNS5_5ValueES7_RKSE_PSF_mEE18destroy_deallocateEv', symObjAddr: 0x4098, symBinAddr: 0x13988, symSize: 0x4 }
  - { offset: 0xE0338, size: 0x8, addend: 0x0, symName: '__ZNSt3__110__function6__funcIZN8worklets22JSIWorkletsModuleProxy3getERN8facebook3jsi7RuntimeERKNS5_10PropNameIDEE3$_7NS_9allocatorISB_EEFNS5_5ValueES7_RKSE_PSF_mEE18destroy_deallocateEv', symObjAddr: 0x4098, symBinAddr: 0x13988, symSize: 0x4 }
  - { offset: 0xE0459, size: 0x8, addend: 0x0, symName: '__ZNSt3__110__function6__funcIZN8worklets22JSIWorkletsModuleProxy3getERN8facebook3jsi7RuntimeERKNS5_10PropNameIDEE3$_7NS_9allocatorISB_EEFNS5_5ValueES7_RKSE_PSF_mEEclES7_SG_OSH_Om', symObjAddr: 0x409C, symBinAddr: 0x1398C, symSize: 0x8 }
  - { offset: 0xE055D, size: 0x8, addend: 0x0, symName: '__ZNKSt3__110__function6__funcIZN8worklets22JSIWorkletsModuleProxy3getERN8facebook3jsi7RuntimeERKNS5_10PropNameIDEE3$_7NS_9allocatorISB_EEFNS5_5ValueES7_RKSE_PSF_mEE6targetERKSt9type_info', symObjAddr: 0x40A4, symBinAddr: 0x13994, symSize: 0x3C }
  - { offset: 0xE05AA, size: 0x8, addend: 0x0, symName: '__ZNKSt3__110__function6__funcIZN8worklets22JSIWorkletsModuleProxy3getERN8facebook3jsi7RuntimeERKNS5_10PropNameIDEE3$_7NS_9allocatorISB_EEFNS5_5ValueES7_RKSE_PSF_mEE11target_typeEv', symObjAddr: 0x40E0, symBinAddr: 0x139D0, symSize: 0xC }
  - { offset: 0xE05CD, size: 0x8, addend: 0x0, symName: '__ZNSt3__110__function6__funcIZN8worklets22JSIWorkletsModuleProxy3getERN8facebook3jsi7RuntimeERKNS5_10PropNameIDEE3$_8NS_9allocatorISB_EEFNS5_5ValueES7_RKSE_PSF_mEED1Ev', symObjAddr: 0x40EC, symBinAddr: 0x139DC, symSize: 0x4 }
  - { offset: 0xE05F9, size: 0x8, addend: 0x0, symName: '__ZNSt3__110__function6__funcIZN8worklets22JSIWorkletsModuleProxy3getERN8facebook3jsi7RuntimeERKNS5_10PropNameIDEE3$_8NS_9allocatorISB_EEFNS5_5ValueES7_RKSE_PSF_mEED0Ev', symObjAddr: 0x40F0, symBinAddr: 0x139E0, symSize: 0x4 }
  - { offset: 0xE06AF, size: 0x8, addend: 0x0, symName: '__ZNKSt3__110__function6__funcIZN8worklets22JSIWorkletsModuleProxy3getERN8facebook3jsi7RuntimeERKNS5_10PropNameIDEE3$_8NS_9allocatorISB_EEFNS5_5ValueES7_RKSE_PSF_mEE7__cloneEv', symObjAddr: 0x40F4, symBinAddr: 0x139E4, symSize: 0x24 }
  - { offset: 0xE07F7, size: 0x8, addend: 0x0, symName: '__ZNKSt3__110__function6__funcIZN8worklets22JSIWorkletsModuleProxy3getERN8facebook3jsi7RuntimeERKNS5_10PropNameIDEE3$_8NS_9allocatorISB_EEFNS5_5ValueES7_RKSE_PSF_mEE7__cloneEPNS0_6__baseISI_EE', symObjAddr: 0x4118, symBinAddr: 0x13A08, symSize: 0x10 }
  - { offset: 0xE082B, size: 0x8, addend: 0x0, symName: '__ZNKSt3__110__function6__funcIZN8worklets22JSIWorkletsModuleProxy3getERN8facebook3jsi7RuntimeERKNS5_10PropNameIDEE3$_8NS_9allocatorISB_EEFNS5_5ValueES7_RKSE_PSF_mEE7__cloneEPNS0_6__baseISI_EE', symObjAddr: 0x4118, symBinAddr: 0x13A08, symSize: 0x10 }
  - { offset: 0xE0847, size: 0x8, addend: 0x0, symName: '__ZNKSt3__110__function6__funcIZN8worklets22JSIWorkletsModuleProxy3getERN8facebook3jsi7RuntimeERKNS5_10PropNameIDEE3$_8NS_9allocatorISB_EEFNS5_5ValueES7_RKSE_PSF_mEE7__cloneEPNS0_6__baseISI_EE', symObjAddr: 0x4118, symBinAddr: 0x13A08, symSize: 0x10 }
  - { offset: 0xE0863, size: 0x8, addend: 0x0, symName: '__ZNSt3__110__function6__funcIZN8worklets22JSIWorkletsModuleProxy3getERN8facebook3jsi7RuntimeERKNS5_10PropNameIDEE3$_8NS_9allocatorISB_EEFNS5_5ValueES7_RKSE_PSF_mEE7destroyEv', symObjAddr: 0x4128, symBinAddr: 0x13A18, symSize: 0x4 }
  - { offset: 0xE08B7, size: 0x8, addend: 0x0, symName: '__ZNSt3__110__function6__funcIZN8worklets22JSIWorkletsModuleProxy3getERN8facebook3jsi7RuntimeERKNS5_10PropNameIDEE3$_8NS_9allocatorISB_EEFNS5_5ValueES7_RKSE_PSF_mEE18destroy_deallocateEv', symObjAddr: 0x412C, symBinAddr: 0x13A1C, symSize: 0x4 }
  - { offset: 0xE08EB, size: 0x8, addend: 0x0, symName: '__ZNSt3__110__function6__funcIZN8worklets22JSIWorkletsModuleProxy3getERN8facebook3jsi7RuntimeERKNS5_10PropNameIDEE3$_8NS_9allocatorISB_EEFNS5_5ValueES7_RKSE_PSF_mEE18destroy_deallocateEv', symObjAddr: 0x412C, symBinAddr: 0x13A1C, symSize: 0x4 }
  - { offset: 0xE090D, size: 0x8, addend: 0x0, symName: '__ZNSt3__110__function6__funcIZN8worklets22JSIWorkletsModuleProxy3getERN8facebook3jsi7RuntimeERKNS5_10PropNameIDEE3$_8NS_9allocatorISB_EEFNS5_5ValueES7_RKSE_PSF_mEE18destroy_deallocateEv', symObjAddr: 0x412C, symBinAddr: 0x13A1C, symSize: 0x4 }
  - { offset: 0xE093E, size: 0x8, addend: 0x0, symName: '__ZNSt3__110__function6__funcIZN8worklets22JSIWorkletsModuleProxy3getERN8facebook3jsi7RuntimeERKNS5_10PropNameIDEE3$_8NS_9allocatorISB_EEFNS5_5ValueES7_RKSE_PSF_mEE18destroy_deallocateEv', symObjAddr: 0x412C, symBinAddr: 0x13A1C, symSize: 0x4 }
  - { offset: 0xE0A99, size: 0x8, addend: 0x0, symName: '__ZNSt3__110__function6__funcIZN8worklets22JSIWorkletsModuleProxy3getERN8facebook3jsi7RuntimeERKNS5_10PropNameIDEE3$_8NS_9allocatorISB_EEFNS5_5ValueES7_RKSE_PSF_mEEclES7_SG_OSH_Om', symObjAddr: 0x4130, symBinAddr: 0x13A20, symSize: 0x78 }
  - { offset: 0xE0C95, size: 0x8, addend: 0x0, symName: '__ZNKSt3__110__function6__funcIZN8worklets22JSIWorkletsModuleProxy3getERN8facebook3jsi7RuntimeERKNS5_10PropNameIDEE3$_8NS_9allocatorISB_EEFNS5_5ValueES7_RKSE_PSF_mEE6targetERKSt9type_info', symObjAddr: 0x41A8, symBinAddr: 0x13A98, symSize: 0x3C }
  - { offset: 0xE0CE2, size: 0x8, addend: 0x0, symName: '__ZNKSt3__110__function6__funcIZN8worklets22JSIWorkletsModuleProxy3getERN8facebook3jsi7RuntimeERKNS5_10PropNameIDEE3$_8NS_9allocatorISB_EEFNS5_5ValueES7_RKSE_PSF_mEE11target_typeEv', symObjAddr: 0x41E4, symBinAddr: 0x13AD4, symSize: 0xC }
  - { offset: 0xE0D05, size: 0x8, addend: 0x0, symName: '__ZNSt3__110__function6__funcIZN8worklets22JSIWorkletsModuleProxy3getERN8facebook3jsi7RuntimeERKNS5_10PropNameIDEE3$_9NS_9allocatorISB_EEFNS5_5ValueES7_RKSE_PSF_mEED1Ev', symObjAddr: 0x41F0, symBinAddr: 0x13AE0, symSize: 0x4 }
  - { offset: 0xE0D31, size: 0x8, addend: 0x0, symName: '__ZNSt3__110__function6__funcIZN8worklets22JSIWorkletsModuleProxy3getERN8facebook3jsi7RuntimeERKNS5_10PropNameIDEE3$_9NS_9allocatorISB_EEFNS5_5ValueES7_RKSE_PSF_mEED0Ev', symObjAddr: 0x41F4, symBinAddr: 0x13AE4, symSize: 0x4 }
  - { offset: 0xE0DE7, size: 0x8, addend: 0x0, symName: '__ZNKSt3__110__function6__funcIZN8worklets22JSIWorkletsModuleProxy3getERN8facebook3jsi7RuntimeERKNS5_10PropNameIDEE3$_9NS_9allocatorISB_EEFNS5_5ValueES7_RKSE_PSF_mEE7__cloneEv', symObjAddr: 0x41F8, symBinAddr: 0x13AE8, symSize: 0x24 }
  - { offset: 0xE0F2F, size: 0x8, addend: 0x0, symName: '__ZNKSt3__110__function6__funcIZN8worklets22JSIWorkletsModuleProxy3getERN8facebook3jsi7RuntimeERKNS5_10PropNameIDEE3$_9NS_9allocatorISB_EEFNS5_5ValueES7_RKSE_PSF_mEE7__cloneEPNS0_6__baseISI_EE', symObjAddr: 0x421C, symBinAddr: 0x13B0C, symSize: 0x10 }
  - { offset: 0xE0F63, size: 0x8, addend: 0x0, symName: '__ZNKSt3__110__function6__funcIZN8worklets22JSIWorkletsModuleProxy3getERN8facebook3jsi7RuntimeERKNS5_10PropNameIDEE3$_9NS_9allocatorISB_EEFNS5_5ValueES7_RKSE_PSF_mEE7__cloneEPNS0_6__baseISI_EE', symObjAddr: 0x421C, symBinAddr: 0x13B0C, symSize: 0x10 }
  - { offset: 0xE0F7F, size: 0x8, addend: 0x0, symName: '__ZNKSt3__110__function6__funcIZN8worklets22JSIWorkletsModuleProxy3getERN8facebook3jsi7RuntimeERKNS5_10PropNameIDEE3$_9NS_9allocatorISB_EEFNS5_5ValueES7_RKSE_PSF_mEE7__cloneEPNS0_6__baseISI_EE', symObjAddr: 0x421C, symBinAddr: 0x13B0C, symSize: 0x10 }
  - { offset: 0xE0F9B, size: 0x8, addend: 0x0, symName: '__ZNSt3__110__function6__funcIZN8worklets22JSIWorkletsModuleProxy3getERN8facebook3jsi7RuntimeERKNS5_10PropNameIDEE3$_9NS_9allocatorISB_EEFNS5_5ValueES7_RKSE_PSF_mEE7destroyEv', symObjAddr: 0x422C, symBinAddr: 0x13B1C, symSize: 0x4 }
  - { offset: 0xE0FEF, size: 0x8, addend: 0x0, symName: '__ZNSt3__110__function6__funcIZN8worklets22JSIWorkletsModuleProxy3getERN8facebook3jsi7RuntimeERKNS5_10PropNameIDEE3$_9NS_9allocatorISB_EEFNS5_5ValueES7_RKSE_PSF_mEE18destroy_deallocateEv', symObjAddr: 0x4230, symBinAddr: 0x13B20, symSize: 0x4 }
  - { offset: 0xE1023, size: 0x8, addend: 0x0, symName: '__ZNSt3__110__function6__funcIZN8worklets22JSIWorkletsModuleProxy3getERN8facebook3jsi7RuntimeERKNS5_10PropNameIDEE3$_9NS_9allocatorISB_EEFNS5_5ValueES7_RKSE_PSF_mEE18destroy_deallocateEv', symObjAddr: 0x4230, symBinAddr: 0x13B20, symSize: 0x4 }
  - { offset: 0xE1045, size: 0x8, addend: 0x0, symName: '__ZNSt3__110__function6__funcIZN8worklets22JSIWorkletsModuleProxy3getERN8facebook3jsi7RuntimeERKNS5_10PropNameIDEE3$_9NS_9allocatorISB_EEFNS5_5ValueES7_RKSE_PSF_mEE18destroy_deallocateEv', symObjAddr: 0x4230, symBinAddr: 0x13B20, symSize: 0x4 }
  - { offset: 0xE1076, size: 0x8, addend: 0x0, symName: '__ZNSt3__110__function6__funcIZN8worklets22JSIWorkletsModuleProxy3getERN8facebook3jsi7RuntimeERKNS5_10PropNameIDEE3$_9NS_9allocatorISB_EEFNS5_5ValueES7_RKSE_PSF_mEE18destroy_deallocateEv', symObjAddr: 0x4230, symBinAddr: 0x13B20, symSize: 0x4 }
  - { offset: 0xE11D6, size: 0x8, addend: 0x0, symName: '__ZNSt3__110__function6__funcIZN8worklets22JSIWorkletsModuleProxy3getERN8facebook3jsi7RuntimeERKNS5_10PropNameIDEE3$_9NS_9allocatorISB_EEFNS5_5ValueES7_RKSE_PSF_mEEclES7_SG_OSH_Om', symObjAddr: 0x4234, symBinAddr: 0x13B24, symSize: 0xC8 }
  - { offset: 0xE14DD, size: 0x8, addend: 0x0, symName: '__ZNKSt3__110__function6__funcIZN8worklets22JSIWorkletsModuleProxy3getERN8facebook3jsi7RuntimeERKNS5_10PropNameIDEE3$_9NS_9allocatorISB_EEFNS5_5ValueES7_RKSE_PSF_mEE6targetERKSt9type_info', symObjAddr: 0x42FC, symBinAddr: 0x13BEC, symSize: 0x3C }
  - { offset: 0xE152A, size: 0x8, addend: 0x0, symName: '__ZNKSt3__110__function6__funcIZN8worklets22JSIWorkletsModuleProxy3getERN8facebook3jsi7RuntimeERKNS5_10PropNameIDEE3$_9NS_9allocatorISB_EEFNS5_5ValueES7_RKSE_PSF_mEE11target_typeEv', symObjAddr: 0x4338, symBinAddr: 0x13C28, symSize: 0xC }
  - { offset: 0xE154D, size: 0x8, addend: 0x0, symName: '__ZNSt3__110__function6__funcIZN8worklets22JSIWorkletsModuleProxy3getERN8facebook3jsi7RuntimeERKNS5_10PropNameIDEE4$_10NS_9allocatorISB_EEFNS5_5ValueES7_RKSE_PSF_mEED1Ev', symObjAddr: 0x4344, symBinAddr: 0x13C34, symSize: 0x4 }
  - { offset: 0xE1579, size: 0x8, addend: 0x0, symName: '__ZNSt3__110__function6__funcIZN8worklets22JSIWorkletsModuleProxy3getERN8facebook3jsi7RuntimeERKNS5_10PropNameIDEE4$_10NS_9allocatorISB_EEFNS5_5ValueES7_RKSE_PSF_mEED0Ev', symObjAddr: 0x4348, symBinAddr: 0x13C38, symSize: 0x4 }
  - { offset: 0xE162F, size: 0x8, addend: 0x0, symName: '__ZNKSt3__110__function6__funcIZN8worklets22JSIWorkletsModuleProxy3getERN8facebook3jsi7RuntimeERKNS5_10PropNameIDEE4$_10NS_9allocatorISB_EEFNS5_5ValueES7_RKSE_PSF_mEE7__cloneEv', symObjAddr: 0x434C, symBinAddr: 0x13C3C, symSize: 0x24 }
  - { offset: 0xE1777, size: 0x8, addend: 0x0, symName: '__ZNKSt3__110__function6__funcIZN8worklets22JSIWorkletsModuleProxy3getERN8facebook3jsi7RuntimeERKNS5_10PropNameIDEE4$_10NS_9allocatorISB_EEFNS5_5ValueES7_RKSE_PSF_mEE7__cloneEPNS0_6__baseISI_EE', symObjAddr: 0x4370, symBinAddr: 0x13C60, symSize: 0x10 }
  - { offset: 0xE17AB, size: 0x8, addend: 0x0, symName: '__ZNKSt3__110__function6__funcIZN8worklets22JSIWorkletsModuleProxy3getERN8facebook3jsi7RuntimeERKNS5_10PropNameIDEE4$_10NS_9allocatorISB_EEFNS5_5ValueES7_RKSE_PSF_mEE7__cloneEPNS0_6__baseISI_EE', symObjAddr: 0x4370, symBinAddr: 0x13C60, symSize: 0x10 }
  - { offset: 0xE17C7, size: 0x8, addend: 0x0, symName: '__ZNKSt3__110__function6__funcIZN8worklets22JSIWorkletsModuleProxy3getERN8facebook3jsi7RuntimeERKNS5_10PropNameIDEE4$_10NS_9allocatorISB_EEFNS5_5ValueES7_RKSE_PSF_mEE7__cloneEPNS0_6__baseISI_EE', symObjAddr: 0x4370, symBinAddr: 0x13C60, symSize: 0x10 }
  - { offset: 0xE17E3, size: 0x8, addend: 0x0, symName: '__ZNSt3__110__function6__funcIZN8worklets22JSIWorkletsModuleProxy3getERN8facebook3jsi7RuntimeERKNS5_10PropNameIDEE4$_10NS_9allocatorISB_EEFNS5_5ValueES7_RKSE_PSF_mEE7destroyEv', symObjAddr: 0x4380, symBinAddr: 0x13C70, symSize: 0x4 }
  - { offset: 0xE1837, size: 0x8, addend: 0x0, symName: '__ZNSt3__110__function6__funcIZN8worklets22JSIWorkletsModuleProxy3getERN8facebook3jsi7RuntimeERKNS5_10PropNameIDEE4$_10NS_9allocatorISB_EEFNS5_5ValueES7_RKSE_PSF_mEE18destroy_deallocateEv', symObjAddr: 0x4384, symBinAddr: 0x13C74, symSize: 0x4 }
  - { offset: 0xE186B, size: 0x8, addend: 0x0, symName: '__ZNSt3__110__function6__funcIZN8worklets22JSIWorkletsModuleProxy3getERN8facebook3jsi7RuntimeERKNS5_10PropNameIDEE4$_10NS_9allocatorISB_EEFNS5_5ValueES7_RKSE_PSF_mEE18destroy_deallocateEv', symObjAddr: 0x4384, symBinAddr: 0x13C74, symSize: 0x4 }
  - { offset: 0xE188D, size: 0x8, addend: 0x0, symName: '__ZNSt3__110__function6__funcIZN8worklets22JSIWorkletsModuleProxy3getERN8facebook3jsi7RuntimeERKNS5_10PropNameIDEE4$_10NS_9allocatorISB_EEFNS5_5ValueES7_RKSE_PSF_mEE18destroy_deallocateEv', symObjAddr: 0x4384, symBinAddr: 0x13C74, symSize: 0x4 }
  - { offset: 0xE18BE, size: 0x8, addend: 0x0, symName: '__ZNSt3__110__function6__funcIZN8worklets22JSIWorkletsModuleProxy3getERN8facebook3jsi7RuntimeERKNS5_10PropNameIDEE4$_10NS_9allocatorISB_EEFNS5_5ValueES7_RKSE_PSF_mEE18destroy_deallocateEv', symObjAddr: 0x4384, symBinAddr: 0x13C74, symSize: 0x4 }
  - { offset: 0xE19DF, size: 0x8, addend: 0x0, symName: '__ZNSt3__110__function6__funcIZN8worklets22JSIWorkletsModuleProxy3getERN8facebook3jsi7RuntimeERKNS5_10PropNameIDEE4$_10NS_9allocatorISB_EEFNS5_5ValueES7_RKSE_PSF_mEEclES7_SG_OSH_Om', symObjAddr: 0x4388, symBinAddr: 0x13C78, symSize: 0x148 }
  - { offset: 0xE1EC8, size: 0x8, addend: 0x0, symName: '__ZNKSt3__110__function6__funcIZN8worklets22JSIWorkletsModuleProxy3getERN8facebook3jsi7RuntimeERKNS5_10PropNameIDEE4$_10NS_9allocatorISB_EEFNS5_5ValueES7_RKSE_PSF_mEE6targetERKSt9type_info', symObjAddr: 0x44D0, symBinAddr: 0x13DC0, symSize: 0x3C }
  - { offset: 0xE1F15, size: 0x8, addend: 0x0, symName: '__ZNKSt3__110__function6__funcIZN8worklets22JSIWorkletsModuleProxy3getERN8facebook3jsi7RuntimeERKNS5_10PropNameIDEE4$_10NS_9allocatorISB_EEFNS5_5ValueES7_RKSE_PSF_mEE11target_typeEv', symObjAddr: 0x450C, symBinAddr: 0x13DFC, symSize: 0xC }
  - { offset: 0xE1F38, size: 0x8, addend: 0x0, symName: '__ZNSt3__110__function6__funcIZN8worklets22JSIWorkletsModuleProxy3getERN8facebook3jsi7RuntimeERKNS5_10PropNameIDEE4$_11NS_9allocatorISB_EEFNS5_5ValueES7_RKSE_PSF_mEED1Ev', symObjAddr: 0x4518, symBinAddr: 0x13E08, symSize: 0x4 }
  - { offset: 0xE1F64, size: 0x8, addend: 0x0, symName: '__ZNSt3__110__function6__funcIZN8worklets22JSIWorkletsModuleProxy3getERN8facebook3jsi7RuntimeERKNS5_10PropNameIDEE4$_11NS_9allocatorISB_EEFNS5_5ValueES7_RKSE_PSF_mEED0Ev', symObjAddr: 0x451C, symBinAddr: 0x13E0C, symSize: 0x4 }
  - { offset: 0xE201A, size: 0x8, addend: 0x0, symName: '__ZNKSt3__110__function6__funcIZN8worklets22JSIWorkletsModuleProxy3getERN8facebook3jsi7RuntimeERKNS5_10PropNameIDEE4$_11NS_9allocatorISB_EEFNS5_5ValueES7_RKSE_PSF_mEE7__cloneEv', symObjAddr: 0x4520, symBinAddr: 0x13E10, symSize: 0x24 }
  - { offset: 0xE2162, size: 0x8, addend: 0x0, symName: '__ZNKSt3__110__function6__funcIZN8worklets22JSIWorkletsModuleProxy3getERN8facebook3jsi7RuntimeERKNS5_10PropNameIDEE4$_11NS_9allocatorISB_EEFNS5_5ValueES7_RKSE_PSF_mEE7__cloneEPNS0_6__baseISI_EE', symObjAddr: 0x4544, symBinAddr: 0x13E34, symSize: 0x10 }
  - { offset: 0xE2196, size: 0x8, addend: 0x0, symName: '__ZNKSt3__110__function6__funcIZN8worklets22JSIWorkletsModuleProxy3getERN8facebook3jsi7RuntimeERKNS5_10PropNameIDEE4$_11NS_9allocatorISB_EEFNS5_5ValueES7_RKSE_PSF_mEE7__cloneEPNS0_6__baseISI_EE', symObjAddr: 0x4544, symBinAddr: 0x13E34, symSize: 0x10 }
  - { offset: 0xE21B2, size: 0x8, addend: 0x0, symName: '__ZNKSt3__110__function6__funcIZN8worklets22JSIWorkletsModuleProxy3getERN8facebook3jsi7RuntimeERKNS5_10PropNameIDEE4$_11NS_9allocatorISB_EEFNS5_5ValueES7_RKSE_PSF_mEE7__cloneEPNS0_6__baseISI_EE', symObjAddr: 0x4544, symBinAddr: 0x13E34, symSize: 0x10 }
  - { offset: 0xE21CE, size: 0x8, addend: 0x0, symName: '__ZNSt3__110__function6__funcIZN8worklets22JSIWorkletsModuleProxy3getERN8facebook3jsi7RuntimeERKNS5_10PropNameIDEE4$_11NS_9allocatorISB_EEFNS5_5ValueES7_RKSE_PSF_mEE7destroyEv', symObjAddr: 0x4554, symBinAddr: 0x13E44, symSize: 0x4 }
  - { offset: 0xE2222, size: 0x8, addend: 0x0, symName: '__ZNSt3__110__function6__funcIZN8worklets22JSIWorkletsModuleProxy3getERN8facebook3jsi7RuntimeERKNS5_10PropNameIDEE4$_11NS_9allocatorISB_EEFNS5_5ValueES7_RKSE_PSF_mEE18destroy_deallocateEv', symObjAddr: 0x4558, symBinAddr: 0x13E48, symSize: 0x4 }
  - { offset: 0xE2256, size: 0x8, addend: 0x0, symName: '__ZNSt3__110__function6__funcIZN8worklets22JSIWorkletsModuleProxy3getERN8facebook3jsi7RuntimeERKNS5_10PropNameIDEE4$_11NS_9allocatorISB_EEFNS5_5ValueES7_RKSE_PSF_mEE18destroy_deallocateEv', symObjAddr: 0x4558, symBinAddr: 0x13E48, symSize: 0x4 }
  - { offset: 0xE2278, size: 0x8, addend: 0x0, symName: '__ZNSt3__110__function6__funcIZN8worklets22JSIWorkletsModuleProxy3getERN8facebook3jsi7RuntimeERKNS5_10PropNameIDEE4$_11NS_9allocatorISB_EEFNS5_5ValueES7_RKSE_PSF_mEE18destroy_deallocateEv', symObjAddr: 0x4558, symBinAddr: 0x13E48, symSize: 0x4 }
  - { offset: 0xE22A9, size: 0x8, addend: 0x0, symName: '__ZNSt3__110__function6__funcIZN8worklets22JSIWorkletsModuleProxy3getERN8facebook3jsi7RuntimeERKNS5_10PropNameIDEE4$_11NS_9allocatorISB_EEFNS5_5ValueES7_RKSE_PSF_mEE18destroy_deallocateEv', symObjAddr: 0x4558, symBinAddr: 0x13E48, symSize: 0x4 }
  - { offset: 0xE23CA, size: 0x8, addend: 0x0, symName: '__ZNSt3__110__function6__funcIZN8worklets22JSIWorkletsModuleProxy3getERN8facebook3jsi7RuntimeERKNS5_10PropNameIDEE4$_11NS_9allocatorISB_EEFNS5_5ValueES7_RKSE_PSF_mEEclES7_SG_OSH_Om', symObjAddr: 0x455C, symBinAddr: 0x13E4C, symSize: 0xB8 }
  - { offset: 0xE26CA, size: 0x8, addend: 0x0, symName: '__ZNKSt3__110__function6__funcIZN8worklets22JSIWorkletsModuleProxy3getERN8facebook3jsi7RuntimeERKNS5_10PropNameIDEE4$_11NS_9allocatorISB_EEFNS5_5ValueES7_RKSE_PSF_mEE6targetERKSt9type_info', symObjAddr: 0x4614, symBinAddr: 0x13F04, symSize: 0x3C }
  - { offset: 0xE2717, size: 0x8, addend: 0x0, symName: '__ZNKSt3__110__function6__funcIZN8worklets22JSIWorkletsModuleProxy3getERN8facebook3jsi7RuntimeERKNS5_10PropNameIDEE4$_11NS_9allocatorISB_EEFNS5_5ValueES7_RKSE_PSF_mEE11target_typeEv', symObjAddr: 0x4650, symBinAddr: 0x13F40, symSize: 0xC }
  - { offset: 0xE273A, size: 0x8, addend: 0x0, symName: '__ZNSt3__110__function6__funcIZN8worklets22JSIWorkletsModuleProxy3getERN8facebook3jsi7RuntimeERKNS5_10PropNameIDEE4$_12NS_9allocatorISB_EEFNS5_5ValueES7_RKSE_PSF_mEED1Ev', symObjAddr: 0x465C, symBinAddr: 0x13F4C, symSize: 0x4 }
  - { offset: 0xE2766, size: 0x8, addend: 0x0, symName: '__ZNSt3__110__function6__funcIZN8worklets22JSIWorkletsModuleProxy3getERN8facebook3jsi7RuntimeERKNS5_10PropNameIDEE4$_12NS_9allocatorISB_EEFNS5_5ValueES7_RKSE_PSF_mEED0Ev', symObjAddr: 0x4660, symBinAddr: 0x13F50, symSize: 0x4 }
  - { offset: 0xE281C, size: 0x8, addend: 0x0, symName: '__ZNKSt3__110__function6__funcIZN8worklets22JSIWorkletsModuleProxy3getERN8facebook3jsi7RuntimeERKNS5_10PropNameIDEE4$_12NS_9allocatorISB_EEFNS5_5ValueES7_RKSE_PSF_mEE7__cloneEv', symObjAddr: 0x4664, symBinAddr: 0x13F54, symSize: 0x24 }
  - { offset: 0xE2964, size: 0x8, addend: 0x0, symName: '__ZNKSt3__110__function6__funcIZN8worklets22JSIWorkletsModuleProxy3getERN8facebook3jsi7RuntimeERKNS5_10PropNameIDEE4$_12NS_9allocatorISB_EEFNS5_5ValueES7_RKSE_PSF_mEE7__cloneEPNS0_6__baseISI_EE', symObjAddr: 0x4688, symBinAddr: 0x13F78, symSize: 0x10 }
  - { offset: 0xE2998, size: 0x8, addend: 0x0, symName: '__ZNKSt3__110__function6__funcIZN8worklets22JSIWorkletsModuleProxy3getERN8facebook3jsi7RuntimeERKNS5_10PropNameIDEE4$_12NS_9allocatorISB_EEFNS5_5ValueES7_RKSE_PSF_mEE7__cloneEPNS0_6__baseISI_EE', symObjAddr: 0x4688, symBinAddr: 0x13F78, symSize: 0x10 }
  - { offset: 0xE29B4, size: 0x8, addend: 0x0, symName: '__ZNKSt3__110__function6__funcIZN8worklets22JSIWorkletsModuleProxy3getERN8facebook3jsi7RuntimeERKNS5_10PropNameIDEE4$_12NS_9allocatorISB_EEFNS5_5ValueES7_RKSE_PSF_mEE7__cloneEPNS0_6__baseISI_EE', symObjAddr: 0x4688, symBinAddr: 0x13F78, symSize: 0x10 }
  - { offset: 0xE29D0, size: 0x8, addend: 0x0, symName: '__ZNSt3__110__function6__funcIZN8worklets22JSIWorkletsModuleProxy3getERN8facebook3jsi7RuntimeERKNS5_10PropNameIDEE4$_12NS_9allocatorISB_EEFNS5_5ValueES7_RKSE_PSF_mEE7destroyEv', symObjAddr: 0x4698, symBinAddr: 0x13F88, symSize: 0x4 }
  - { offset: 0xE2A24, size: 0x8, addend: 0x0, symName: '__ZNSt3__110__function6__funcIZN8worklets22JSIWorkletsModuleProxy3getERN8facebook3jsi7RuntimeERKNS5_10PropNameIDEE4$_12NS_9allocatorISB_EEFNS5_5ValueES7_RKSE_PSF_mEE18destroy_deallocateEv', symObjAddr: 0x469C, symBinAddr: 0x13F8C, symSize: 0x4 }
  - { offset: 0xE2A58, size: 0x8, addend: 0x0, symName: '__ZNSt3__110__function6__funcIZN8worklets22JSIWorkletsModuleProxy3getERN8facebook3jsi7RuntimeERKNS5_10PropNameIDEE4$_12NS_9allocatorISB_EEFNS5_5ValueES7_RKSE_PSF_mEE18destroy_deallocateEv', symObjAddr: 0x469C, symBinAddr: 0x13F8C, symSize: 0x4 }
  - { offset: 0xE2A7A, size: 0x8, addend: 0x0, symName: '__ZNSt3__110__function6__funcIZN8worklets22JSIWorkletsModuleProxy3getERN8facebook3jsi7RuntimeERKNS5_10PropNameIDEE4$_12NS_9allocatorISB_EEFNS5_5ValueES7_RKSE_PSF_mEE18destroy_deallocateEv', symObjAddr: 0x469C, symBinAddr: 0x13F8C, symSize: 0x4 }
  - { offset: 0xE2AAB, size: 0x8, addend: 0x0, symName: '__ZNSt3__110__function6__funcIZN8worklets22JSIWorkletsModuleProxy3getERN8facebook3jsi7RuntimeERKNS5_10PropNameIDEE4$_12NS_9allocatorISB_EEFNS5_5ValueES7_RKSE_PSF_mEE18destroy_deallocateEv', symObjAddr: 0x469C, symBinAddr: 0x13F8C, symSize: 0x4 }
  - { offset: 0xE2CEF, size: 0x8, addend: 0x0, symName: '__ZNSt3__110__function6__funcIZN8worklets22JSIWorkletsModuleProxy3getERN8facebook3jsi7RuntimeERKNS5_10PropNameIDEE4$_12NS_9allocatorISB_EEFNS5_5ValueES7_RKSE_PSF_mEEclES7_SG_OSH_Om', symObjAddr: 0x46A0, symBinAddr: 0x13F90, symSize: 0x108 }
  - { offset: 0xE313A, size: 0x8, addend: 0x0, symName: '__ZNKSt3__110__function6__funcIZN8worklets22JSIWorkletsModuleProxy3getERN8facebook3jsi7RuntimeERKNS5_10PropNameIDEE4$_12NS_9allocatorISB_EEFNS5_5ValueES7_RKSE_PSF_mEE6targetERKSt9type_info', symObjAddr: 0x47A8, symBinAddr: 0x14098, symSize: 0x3C }
  - { offset: 0xE3187, size: 0x8, addend: 0x0, symName: '__ZNKSt3__110__function6__funcIZN8worklets22JSIWorkletsModuleProxy3getERN8facebook3jsi7RuntimeERKNS5_10PropNameIDEE4$_12NS_9allocatorISB_EEFNS5_5ValueES7_RKSE_PSF_mEE11target_typeEv', symObjAddr: 0x47E4, symBinAddr: 0x140D4, symSize: 0xC }
  - { offset: 0xE34B2, size: 0x8, addend: 0x0, symName: __ZN8facebook3jsi12JSIExceptionC2ERKS1_, symObjAddr: 0x4914, symBinAddr: 0x14204, symSize: 0x6C }
  - { offset: 0xE35C7, size: 0x8, addend: 0x0, symName: '__ZNSt3__110__function6__funcIZN8worklets22JSIWorkletsModuleProxy3getERN8facebook3jsi7RuntimeERKNS5_10PropNameIDEE4$_13NS_9allocatorISB_EEFNS5_5ValueES7_RKSE_PSF_mEED1Ev', symObjAddr: 0x4A7C, symBinAddr: 0x14270, symSize: 0x4 }
  - { offset: 0xE35F3, size: 0x8, addend: 0x0, symName: '__ZNSt3__110__function6__funcIZN8worklets22JSIWorkletsModuleProxy3getERN8facebook3jsi7RuntimeERKNS5_10PropNameIDEE4$_13NS_9allocatorISB_EEFNS5_5ValueES7_RKSE_PSF_mEED0Ev', symObjAddr: 0x4A80, symBinAddr: 0x14274, symSize: 0x4 }
  - { offset: 0xE36A9, size: 0x8, addend: 0x0, symName: '__ZNKSt3__110__function6__funcIZN8worklets22JSIWorkletsModuleProxy3getERN8facebook3jsi7RuntimeERKNS5_10PropNameIDEE4$_13NS_9allocatorISB_EEFNS5_5ValueES7_RKSE_PSF_mEE7__cloneEv', symObjAddr: 0x4A84, symBinAddr: 0x14278, symSize: 0x24 }
  - { offset: 0xE37F1, size: 0x8, addend: 0x0, symName: '__ZNKSt3__110__function6__funcIZN8worklets22JSIWorkletsModuleProxy3getERN8facebook3jsi7RuntimeERKNS5_10PropNameIDEE4$_13NS_9allocatorISB_EEFNS5_5ValueES7_RKSE_PSF_mEE7__cloneEPNS0_6__baseISI_EE', symObjAddr: 0x4AA8, symBinAddr: 0x1429C, symSize: 0x10 }
  - { offset: 0xE3825, size: 0x8, addend: 0x0, symName: '__ZNKSt3__110__function6__funcIZN8worklets22JSIWorkletsModuleProxy3getERN8facebook3jsi7RuntimeERKNS5_10PropNameIDEE4$_13NS_9allocatorISB_EEFNS5_5ValueES7_RKSE_PSF_mEE7__cloneEPNS0_6__baseISI_EE', symObjAddr: 0x4AA8, symBinAddr: 0x1429C, symSize: 0x10 }
  - { offset: 0xE3841, size: 0x8, addend: 0x0, symName: '__ZNKSt3__110__function6__funcIZN8worklets22JSIWorkletsModuleProxy3getERN8facebook3jsi7RuntimeERKNS5_10PropNameIDEE4$_13NS_9allocatorISB_EEFNS5_5ValueES7_RKSE_PSF_mEE7__cloneEPNS0_6__baseISI_EE', symObjAddr: 0x4AA8, symBinAddr: 0x1429C, symSize: 0x10 }
  - { offset: 0xE385D, size: 0x8, addend: 0x0, symName: '__ZNSt3__110__function6__funcIZN8worklets22JSIWorkletsModuleProxy3getERN8facebook3jsi7RuntimeERKNS5_10PropNameIDEE4$_13NS_9allocatorISB_EEFNS5_5ValueES7_RKSE_PSF_mEE7destroyEv', symObjAddr: 0x4AB8, symBinAddr: 0x142AC, symSize: 0x4 }
  - { offset: 0xE38B1, size: 0x8, addend: 0x0, symName: '__ZNSt3__110__function6__funcIZN8worklets22JSIWorkletsModuleProxy3getERN8facebook3jsi7RuntimeERKNS5_10PropNameIDEE4$_13NS_9allocatorISB_EEFNS5_5ValueES7_RKSE_PSF_mEE18destroy_deallocateEv', symObjAddr: 0x4ABC, symBinAddr: 0x142B0, symSize: 0x4 }
  - { offset: 0xE38E5, size: 0x8, addend: 0x0, symName: '__ZNSt3__110__function6__funcIZN8worklets22JSIWorkletsModuleProxy3getERN8facebook3jsi7RuntimeERKNS5_10PropNameIDEE4$_13NS_9allocatorISB_EEFNS5_5ValueES7_RKSE_PSF_mEE18destroy_deallocateEv', symObjAddr: 0x4ABC, symBinAddr: 0x142B0, symSize: 0x4 }
  - { offset: 0xE3907, size: 0x8, addend: 0x0, symName: '__ZNSt3__110__function6__funcIZN8worklets22JSIWorkletsModuleProxy3getERN8facebook3jsi7RuntimeERKNS5_10PropNameIDEE4$_13NS_9allocatorISB_EEFNS5_5ValueES7_RKSE_PSF_mEE18destroy_deallocateEv', symObjAddr: 0x4ABC, symBinAddr: 0x142B0, symSize: 0x4 }
  - { offset: 0xE3938, size: 0x8, addend: 0x0, symName: '__ZNSt3__110__function6__funcIZN8worklets22JSIWorkletsModuleProxy3getERN8facebook3jsi7RuntimeERKNS5_10PropNameIDEE4$_13NS_9allocatorISB_EEFNS5_5ValueES7_RKSE_PSF_mEE18destroy_deallocateEv', symObjAddr: 0x4ABC, symBinAddr: 0x142B0, symSize: 0x4 }
  - { offset: 0xE3A93, size: 0x8, addend: 0x0, symName: '__ZNSt3__110__function6__funcIZN8worklets22JSIWorkletsModuleProxy3getERN8facebook3jsi7RuntimeERKNS5_10PropNameIDEE4$_13NS_9allocatorISB_EEFNS5_5ValueES7_RKSE_PSF_mEEclES7_SG_OSH_Om', symObjAddr: 0x4AC0, symBinAddr: 0x142B4, symSize: 0xB8 }
  - { offset: 0xE3D93, size: 0x8, addend: 0x0, symName: '__ZNKSt3__110__function6__funcIZN8worklets22JSIWorkletsModuleProxy3getERN8facebook3jsi7RuntimeERKNS5_10PropNameIDEE4$_13NS_9allocatorISB_EEFNS5_5ValueES7_RKSE_PSF_mEE6targetERKSt9type_info', symObjAddr: 0x4B78, symBinAddr: 0x1436C, symSize: 0x3C }
  - { offset: 0xE3DE0, size: 0x8, addend: 0x0, symName: '__ZNKSt3__110__function6__funcIZN8worklets22JSIWorkletsModuleProxy3getERN8facebook3jsi7RuntimeERKNS5_10PropNameIDEE4$_13NS_9allocatorISB_EEFNS5_5ValueES7_RKSE_PSF_mEE11target_typeEv', symObjAddr: 0x4BB4, symBinAddr: 0x143A8, symSize: 0xC }
  - { offset: 0xE3E03, size: 0x8, addend: 0x0, symName: '__ZNSt3__110__function6__funcIZN8worklets22JSIWorkletsModuleProxy3getERN8facebook3jsi7RuntimeERKNS5_10PropNameIDEE4$_14NS_9allocatorISB_EEFNS5_5ValueES7_RKSE_PSF_mEED1Ev', symObjAddr: 0x4BC0, symBinAddr: 0x143B4, symSize: 0x4 }
  - { offset: 0xE3E2F, size: 0x8, addend: 0x0, symName: '__ZNSt3__110__function6__funcIZN8worklets22JSIWorkletsModuleProxy3getERN8facebook3jsi7RuntimeERKNS5_10PropNameIDEE4$_14NS_9allocatorISB_EEFNS5_5ValueES7_RKSE_PSF_mEED0Ev', symObjAddr: 0x4BC4, symBinAddr: 0x143B8, symSize: 0x4 }
  - { offset: 0xE3EE5, size: 0x8, addend: 0x0, symName: '__ZNKSt3__110__function6__funcIZN8worklets22JSIWorkletsModuleProxy3getERN8facebook3jsi7RuntimeERKNS5_10PropNameIDEE4$_14NS_9allocatorISB_EEFNS5_5ValueES7_RKSE_PSF_mEE7__cloneEv', symObjAddr: 0x4BC8, symBinAddr: 0x143BC, symSize: 0x24 }
  - { offset: 0xE402D, size: 0x8, addend: 0x0, symName: '__ZNKSt3__110__function6__funcIZN8worklets22JSIWorkletsModuleProxy3getERN8facebook3jsi7RuntimeERKNS5_10PropNameIDEE4$_14NS_9allocatorISB_EEFNS5_5ValueES7_RKSE_PSF_mEE7__cloneEPNS0_6__baseISI_EE', symObjAddr: 0x4BEC, symBinAddr: 0x143E0, symSize: 0x10 }
  - { offset: 0xE4061, size: 0x8, addend: 0x0, symName: '__ZNKSt3__110__function6__funcIZN8worklets22JSIWorkletsModuleProxy3getERN8facebook3jsi7RuntimeERKNS5_10PropNameIDEE4$_14NS_9allocatorISB_EEFNS5_5ValueES7_RKSE_PSF_mEE7__cloneEPNS0_6__baseISI_EE', symObjAddr: 0x4BEC, symBinAddr: 0x143E0, symSize: 0x10 }
  - { offset: 0xE407D, size: 0x8, addend: 0x0, symName: '__ZNKSt3__110__function6__funcIZN8worklets22JSIWorkletsModuleProxy3getERN8facebook3jsi7RuntimeERKNS5_10PropNameIDEE4$_14NS_9allocatorISB_EEFNS5_5ValueES7_RKSE_PSF_mEE7__cloneEPNS0_6__baseISI_EE', symObjAddr: 0x4BEC, symBinAddr: 0x143E0, symSize: 0x10 }
  - { offset: 0xE4099, size: 0x8, addend: 0x0, symName: '__ZNSt3__110__function6__funcIZN8worklets22JSIWorkletsModuleProxy3getERN8facebook3jsi7RuntimeERKNS5_10PropNameIDEE4$_14NS_9allocatorISB_EEFNS5_5ValueES7_RKSE_PSF_mEE7destroyEv', symObjAddr: 0x4BFC, symBinAddr: 0x143F0, symSize: 0x4 }
  - { offset: 0xE40ED, size: 0x8, addend: 0x0, symName: '__ZNSt3__110__function6__funcIZN8worklets22JSIWorkletsModuleProxy3getERN8facebook3jsi7RuntimeERKNS5_10PropNameIDEE4$_14NS_9allocatorISB_EEFNS5_5ValueES7_RKSE_PSF_mEE18destroy_deallocateEv', symObjAddr: 0x4C00, symBinAddr: 0x143F4, symSize: 0x4 }
  - { offset: 0xE4121, size: 0x8, addend: 0x0, symName: '__ZNSt3__110__function6__funcIZN8worklets22JSIWorkletsModuleProxy3getERN8facebook3jsi7RuntimeERKNS5_10PropNameIDEE4$_14NS_9allocatorISB_EEFNS5_5ValueES7_RKSE_PSF_mEE18destroy_deallocateEv', symObjAddr: 0x4C00, symBinAddr: 0x143F4, symSize: 0x4 }
  - { offset: 0xE4143, size: 0x8, addend: 0x0, symName: '__ZNSt3__110__function6__funcIZN8worklets22JSIWorkletsModuleProxy3getERN8facebook3jsi7RuntimeERKNS5_10PropNameIDEE4$_14NS_9allocatorISB_EEFNS5_5ValueES7_RKSE_PSF_mEE18destroy_deallocateEv', symObjAddr: 0x4C00, symBinAddr: 0x143F4, symSize: 0x4 }
  - { offset: 0xE4174, size: 0x8, addend: 0x0, symName: '__ZNSt3__110__function6__funcIZN8worklets22JSIWorkletsModuleProxy3getERN8facebook3jsi7RuntimeERKNS5_10PropNameIDEE4$_14NS_9allocatorISB_EEFNS5_5ValueES7_RKSE_PSF_mEE18destroy_deallocateEv', symObjAddr: 0x4C00, symBinAddr: 0x143F4, symSize: 0x4 }
  - { offset: 0xE4295, size: 0x8, addend: 0x0, symName: '__ZNSt3__110__function6__funcIZN8worklets22JSIWorkletsModuleProxy3getERN8facebook3jsi7RuntimeERKNS5_10PropNameIDEE4$_14NS_9allocatorISB_EEFNS5_5ValueES7_RKSE_PSF_mEEclES7_SG_OSH_Om', symObjAddr: 0x4C04, symBinAddr: 0x143F8, symSize: 0x158 }
  - { offset: 0xE4765, size: 0x8, addend: 0x0, symName: '__ZNKSt3__110__function6__funcIZN8worklets22JSIWorkletsModuleProxy3getERN8facebook3jsi7RuntimeERKNS5_10PropNameIDEE4$_14NS_9allocatorISB_EEFNS5_5ValueES7_RKSE_PSF_mEE6targetERKSt9type_info', symObjAddr: 0x4D5C, symBinAddr: 0x14550, symSize: 0x3C }
  - { offset: 0xE47B2, size: 0x8, addend: 0x0, symName: '__ZNKSt3__110__function6__funcIZN8worklets22JSIWorkletsModuleProxy3getERN8facebook3jsi7RuntimeERKNS5_10PropNameIDEE4$_14NS_9allocatorISB_EEFNS5_5ValueES7_RKSE_PSF_mEE11target_typeEv', symObjAddr: 0x4D98, symBinAddr: 0x1458C, symSize: 0xC }
  - { offset: 0xE47D5, size: 0x8, addend: 0x0, symName: '__ZNSt3__110__function6__funcIZN8worklets22JSIWorkletsModuleProxy3getERN8facebook3jsi7RuntimeERKNS5_10PropNameIDEE4$_15NS_9allocatorISB_EEFNS5_5ValueES7_RKSE_PSF_mEED1Ev', symObjAddr: 0x4DA4, symBinAddr: 0x14598, symSize: 0x4 }
  - { offset: 0xE4801, size: 0x8, addend: 0x0, symName: '__ZNSt3__110__function6__funcIZN8worklets22JSIWorkletsModuleProxy3getERN8facebook3jsi7RuntimeERKNS5_10PropNameIDEE4$_15NS_9allocatorISB_EEFNS5_5ValueES7_RKSE_PSF_mEED0Ev', symObjAddr: 0x4DA8, symBinAddr: 0x1459C, symSize: 0x4 }
  - { offset: 0xE48B7, size: 0x8, addend: 0x0, symName: '__ZNKSt3__110__function6__funcIZN8worklets22JSIWorkletsModuleProxy3getERN8facebook3jsi7RuntimeERKNS5_10PropNameIDEE4$_15NS_9allocatorISB_EEFNS5_5ValueES7_RKSE_PSF_mEE7__cloneEv', symObjAddr: 0x4DAC, symBinAddr: 0x145A0, symSize: 0x24 }
  - { offset: 0xE49FF, size: 0x8, addend: 0x0, symName: '__ZNKSt3__110__function6__funcIZN8worklets22JSIWorkletsModuleProxy3getERN8facebook3jsi7RuntimeERKNS5_10PropNameIDEE4$_15NS_9allocatorISB_EEFNS5_5ValueES7_RKSE_PSF_mEE7__cloneEPNS0_6__baseISI_EE', symObjAddr: 0x4DD0, symBinAddr: 0x145C4, symSize: 0x10 }
  - { offset: 0xE4A33, size: 0x8, addend: 0x0, symName: '__ZNKSt3__110__function6__funcIZN8worklets22JSIWorkletsModuleProxy3getERN8facebook3jsi7RuntimeERKNS5_10PropNameIDEE4$_15NS_9allocatorISB_EEFNS5_5ValueES7_RKSE_PSF_mEE7__cloneEPNS0_6__baseISI_EE', symObjAddr: 0x4DD0, symBinAddr: 0x145C4, symSize: 0x10 }
  - { offset: 0xE4A4F, size: 0x8, addend: 0x0, symName: '__ZNKSt3__110__function6__funcIZN8worklets22JSIWorkletsModuleProxy3getERN8facebook3jsi7RuntimeERKNS5_10PropNameIDEE4$_15NS_9allocatorISB_EEFNS5_5ValueES7_RKSE_PSF_mEE7__cloneEPNS0_6__baseISI_EE', symObjAddr: 0x4DD0, symBinAddr: 0x145C4, symSize: 0x10 }
  - { offset: 0xE4A6B, size: 0x8, addend: 0x0, symName: '__ZNSt3__110__function6__funcIZN8worklets22JSIWorkletsModuleProxy3getERN8facebook3jsi7RuntimeERKNS5_10PropNameIDEE4$_15NS_9allocatorISB_EEFNS5_5ValueES7_RKSE_PSF_mEE7destroyEv', symObjAddr: 0x4DE0, symBinAddr: 0x145D4, symSize: 0x4 }
  - { offset: 0xE4ABF, size: 0x8, addend: 0x0, symName: '__ZNSt3__110__function6__funcIZN8worklets22JSIWorkletsModuleProxy3getERN8facebook3jsi7RuntimeERKNS5_10PropNameIDEE4$_15NS_9allocatorISB_EEFNS5_5ValueES7_RKSE_PSF_mEE18destroy_deallocateEv', symObjAddr: 0x4DE4, symBinAddr: 0x145D8, symSize: 0x4 }
  - { offset: 0xE4AF3, size: 0x8, addend: 0x0, symName: '__ZNSt3__110__function6__funcIZN8worklets22JSIWorkletsModuleProxy3getERN8facebook3jsi7RuntimeERKNS5_10PropNameIDEE4$_15NS_9allocatorISB_EEFNS5_5ValueES7_RKSE_PSF_mEE18destroy_deallocateEv', symObjAddr: 0x4DE4, symBinAddr: 0x145D8, symSize: 0x4 }
  - { offset: 0xE4B15, size: 0x8, addend: 0x0, symName: '__ZNSt3__110__function6__funcIZN8worklets22JSIWorkletsModuleProxy3getERN8facebook3jsi7RuntimeERKNS5_10PropNameIDEE4$_15NS_9allocatorISB_EEFNS5_5ValueES7_RKSE_PSF_mEE18destroy_deallocateEv', symObjAddr: 0x4DE4, symBinAddr: 0x145D8, symSize: 0x4 }
  - { offset: 0xE4B46, size: 0x8, addend: 0x0, symName: '__ZNSt3__110__function6__funcIZN8worklets22JSIWorkletsModuleProxy3getERN8facebook3jsi7RuntimeERKNS5_10PropNameIDEE4$_15NS_9allocatorISB_EEFNS5_5ValueES7_RKSE_PSF_mEE18destroy_deallocateEv', symObjAddr: 0x4DE4, symBinAddr: 0x145D8, symSize: 0x4 }
  - { offset: 0xE4D09, size: 0x8, addend: 0x0, symName: '__ZNSt3__110__function6__funcIZN8worklets22JSIWorkletsModuleProxy3getERN8facebook3jsi7RuntimeERKNS5_10PropNameIDEE4$_15NS_9allocatorISB_EEFNS5_5ValueES7_RKSE_PSF_mEEclES7_SG_OSH_Om', symObjAddr: 0x4DE8, symBinAddr: 0x145DC, symSize: 0x98 }
  - { offset: 0xE4FD5, size: 0x8, addend: 0x0, symName: '__ZNKSt3__110__function6__funcIZN8worklets22JSIWorkletsModuleProxy3getERN8facebook3jsi7RuntimeERKNS5_10PropNameIDEE4$_15NS_9allocatorISB_EEFNS5_5ValueES7_RKSE_PSF_mEE6targetERKSt9type_info', symObjAddr: 0x4E80, symBinAddr: 0x14674, symSize: 0x3C }
  - { offset: 0xE5022, size: 0x8, addend: 0x0, symName: '__ZNKSt3__110__function6__funcIZN8worklets22JSIWorkletsModuleProxy3getERN8facebook3jsi7RuntimeERKNS5_10PropNameIDEE4$_15NS_9allocatorISB_EEFNS5_5ValueES7_RKSE_PSF_mEE11target_typeEv', symObjAddr: 0x4EBC, symBinAddr: 0x146B0, symSize: 0xC }
  - { offset: 0xE5045, size: 0x8, addend: 0x0, symName: '__ZNSt3__110__function6__funcIZN8worklets22JSIWorkletsModuleProxy3getERN8facebook3jsi7RuntimeERKNS5_10PropNameIDEE4$_16NS_9allocatorISB_EEFNS5_5ValueES7_RKSE_PSF_mEED1Ev', symObjAddr: 0x4EC8, symBinAddr: 0x146BC, symSize: 0x4 }
  - { offset: 0xE5071, size: 0x8, addend: 0x0, symName: '__ZNSt3__110__function6__funcIZN8worklets22JSIWorkletsModuleProxy3getERN8facebook3jsi7RuntimeERKNS5_10PropNameIDEE4$_16NS_9allocatorISB_EEFNS5_5ValueES7_RKSE_PSF_mEED0Ev', symObjAddr: 0x4ECC, symBinAddr: 0x146C0, symSize: 0x4 }
  - { offset: 0xE5127, size: 0x8, addend: 0x0, symName: '__ZNKSt3__110__function6__funcIZN8worklets22JSIWorkletsModuleProxy3getERN8facebook3jsi7RuntimeERKNS5_10PropNameIDEE4$_16NS_9allocatorISB_EEFNS5_5ValueES7_RKSE_PSF_mEE7__cloneEv', symObjAddr: 0x4ED0, symBinAddr: 0x146C4, symSize: 0x24 }
  - { offset: 0xE526F, size: 0x8, addend: 0x0, symName: '__ZNKSt3__110__function6__funcIZN8worklets22JSIWorkletsModuleProxy3getERN8facebook3jsi7RuntimeERKNS5_10PropNameIDEE4$_16NS_9allocatorISB_EEFNS5_5ValueES7_RKSE_PSF_mEE7__cloneEPNS0_6__baseISI_EE', symObjAddr: 0x4EF4, symBinAddr: 0x146E8, symSize: 0x10 }
  - { offset: 0xE52A3, size: 0x8, addend: 0x0, symName: '__ZNKSt3__110__function6__funcIZN8worklets22JSIWorkletsModuleProxy3getERN8facebook3jsi7RuntimeERKNS5_10PropNameIDEE4$_16NS_9allocatorISB_EEFNS5_5ValueES7_RKSE_PSF_mEE7__cloneEPNS0_6__baseISI_EE', symObjAddr: 0x4EF4, symBinAddr: 0x146E8, symSize: 0x10 }
  - { offset: 0xE52BF, size: 0x8, addend: 0x0, symName: '__ZNKSt3__110__function6__funcIZN8worklets22JSIWorkletsModuleProxy3getERN8facebook3jsi7RuntimeERKNS5_10PropNameIDEE4$_16NS_9allocatorISB_EEFNS5_5ValueES7_RKSE_PSF_mEE7__cloneEPNS0_6__baseISI_EE', symObjAddr: 0x4EF4, symBinAddr: 0x146E8, symSize: 0x10 }
  - { offset: 0xE52DB, size: 0x8, addend: 0x0, symName: '__ZNSt3__110__function6__funcIZN8worklets22JSIWorkletsModuleProxy3getERN8facebook3jsi7RuntimeERKNS5_10PropNameIDEE4$_16NS_9allocatorISB_EEFNS5_5ValueES7_RKSE_PSF_mEE7destroyEv', symObjAddr: 0x4F04, symBinAddr: 0x146F8, symSize: 0x4 }
  - { offset: 0xE532F, size: 0x8, addend: 0x0, symName: '__ZNSt3__110__function6__funcIZN8worklets22JSIWorkletsModuleProxy3getERN8facebook3jsi7RuntimeERKNS5_10PropNameIDEE4$_16NS_9allocatorISB_EEFNS5_5ValueES7_RKSE_PSF_mEE18destroy_deallocateEv', symObjAddr: 0x4F08, symBinAddr: 0x146FC, symSize: 0x4 }
  - { offset: 0xE5363, size: 0x8, addend: 0x0, symName: '__ZNSt3__110__function6__funcIZN8worklets22JSIWorkletsModuleProxy3getERN8facebook3jsi7RuntimeERKNS5_10PropNameIDEE4$_16NS_9allocatorISB_EEFNS5_5ValueES7_RKSE_PSF_mEE18destroy_deallocateEv', symObjAddr: 0x4F08, symBinAddr: 0x146FC, symSize: 0x4 }
  - { offset: 0xE5385, size: 0x8, addend: 0x0, symName: '__ZNSt3__110__function6__funcIZN8worklets22JSIWorkletsModuleProxy3getERN8facebook3jsi7RuntimeERKNS5_10PropNameIDEE4$_16NS_9allocatorISB_EEFNS5_5ValueES7_RKSE_PSF_mEE18destroy_deallocateEv', symObjAddr: 0x4F08, symBinAddr: 0x146FC, symSize: 0x4 }
  - { offset: 0xE53B6, size: 0x8, addend: 0x0, symName: '__ZNSt3__110__function6__funcIZN8worklets22JSIWorkletsModuleProxy3getERN8facebook3jsi7RuntimeERKNS5_10PropNameIDEE4$_16NS_9allocatorISB_EEFNS5_5ValueES7_RKSE_PSF_mEE18destroy_deallocateEv', symObjAddr: 0x4F08, symBinAddr: 0x146FC, symSize: 0x4 }
  - { offset: 0xE54D7, size: 0x8, addend: 0x0, symName: '__ZNSt3__110__function6__funcIZN8worklets22JSIWorkletsModuleProxy3getERN8facebook3jsi7RuntimeERKNS5_10PropNameIDEE4$_16NS_9allocatorISB_EEFNS5_5ValueES7_RKSE_PSF_mEEclES7_SG_OSH_Om', symObjAddr: 0x4F0C, symBinAddr: 0x14700, symSize: 0x9C }
  - { offset: 0xE57A8, size: 0x8, addend: 0x0, symName: '__ZNKSt3__110__function6__funcIZN8worklets22JSIWorkletsModuleProxy3getERN8facebook3jsi7RuntimeERKNS5_10PropNameIDEE4$_16NS_9allocatorISB_EEFNS5_5ValueES7_RKSE_PSF_mEE6targetERKSt9type_info', symObjAddr: 0x4FA8, symBinAddr: 0x1479C, symSize: 0x3C }
  - { offset: 0xE57F5, size: 0x8, addend: 0x0, symName: '__ZNKSt3__110__function6__funcIZN8worklets22JSIWorkletsModuleProxy3getERN8facebook3jsi7RuntimeERKNS5_10PropNameIDEE4$_16NS_9allocatorISB_EEFNS5_5ValueES7_RKSE_PSF_mEE11target_typeEv', symObjAddr: 0x4FE4, symBinAddr: 0x147D8, symSize: 0xC }
  - { offset: 0xE588A, size: 0x8, addend: 0x0, symName: '__ZNSt3__110__function6__funcIZN8worklets22JSIWorkletsModuleProxy3getERN8facebook3jsi7RuntimeERKNS5_10PropNameIDEE4$_17NS_9allocatorISB_EEFNS5_5ValueES7_RKSE_PSF_mEED1Ev', symObjAddr: 0x4FF0, symBinAddr: 0x147E4, symSize: 0x40 }
  - { offset: 0xE59B2, size: 0x8, addend: 0x0, symName: '__ZNSt3__110__function6__funcIZN8worklets22JSIWorkletsModuleProxy3getERN8facebook3jsi7RuntimeERKNS5_10PropNameIDEE4$_17NS_9allocatorISB_EEFNS5_5ValueES7_RKSE_PSF_mEED0Ev', symObjAddr: 0x5030, symBinAddr: 0x14824, symSize: 0x40 }
  - { offset: 0xE5BED, size: 0x8, addend: 0x0, symName: '__ZNKSt3__110__function6__funcIZN8worklets22JSIWorkletsModuleProxy3getERN8facebook3jsi7RuntimeERKNS5_10PropNameIDEE4$_17NS_9allocatorISB_EEFNS5_5ValueES7_RKSE_PSF_mEE7__cloneEv', symObjAddr: 0x5070, symBinAddr: 0x14864, symSize: 0x70 }
  - { offset: 0xE5F5C, size: 0x8, addend: 0x0, symName: '__ZNKSt3__110__function6__funcIZN8worklets22JSIWorkletsModuleProxy3getERN8facebook3jsi7RuntimeERKNS5_10PropNameIDEE4$_17NS_9allocatorISB_EEFNS5_5ValueES7_RKSE_PSF_mEE7__cloneEPNS0_6__baseISI_EE', symObjAddr: 0x50E0, symBinAddr: 0x148D4, symSize: 0x50 }
  - { offset: 0xE5F92, size: 0x8, addend: 0x0, symName: '__ZNKSt3__110__function6__funcIZN8worklets22JSIWorkletsModuleProxy3getERN8facebook3jsi7RuntimeERKNS5_10PropNameIDEE4$_17NS_9allocatorISB_EEFNS5_5ValueES7_RKSE_PSF_mEE7__cloneEPNS0_6__baseISI_EE', symObjAddr: 0x50E0, symBinAddr: 0x148D4, symSize: 0x50 }
  - { offset: 0xE5FC0, size: 0x8, addend: 0x0, symName: '__ZNKSt3__110__function6__funcIZN8worklets22JSIWorkletsModuleProxy3getERN8facebook3jsi7RuntimeERKNS5_10PropNameIDEE4$_17NS_9allocatorISB_EEFNS5_5ValueES7_RKSE_PSF_mEE7__cloneEPNS0_6__baseISI_EE', symObjAddr: 0x50E0, symBinAddr: 0x148D4, symSize: 0x50 }
  - { offset: 0xE61B9, size: 0x8, addend: 0x0, symName: '__ZNSt3__110__function6__funcIZN8worklets22JSIWorkletsModuleProxy3getERN8facebook3jsi7RuntimeERKNS5_10PropNameIDEE4$_17NS_9allocatorISB_EEFNS5_5ValueES7_RKSE_PSF_mEE7destroyEv', symObjAddr: 0x5130, symBinAddr: 0x14924, symSize: 0x8 }
  - { offset: 0xE6296, size: 0x8, addend: 0x0, symName: '__ZNSt3__110__function6__funcIZN8worklets22JSIWorkletsModuleProxy3getERN8facebook3jsi7RuntimeERKNS5_10PropNameIDEE4$_17NS_9allocatorISB_EEFNS5_5ValueES7_RKSE_PSF_mEE18destroy_deallocateEv', symObjAddr: 0x5138, symBinAddr: 0x1492C, symSize: 0x28 }
  - { offset: 0xE6458, size: 0x8, addend: 0x0, symName: '__ZNSt3__110__function6__funcIZN8worklets22JSIWorkletsModuleProxy3getERN8facebook3jsi7RuntimeERKNS5_10PropNameIDEE4$_17NS_9allocatorISB_EEFNS5_5ValueES7_RKSE_PSF_mEEclES7_SG_OSH_Om', symObjAddr: 0x5160, symBinAddr: 0x14954, symSize: 0x38 }
  - { offset: 0xE65F9, size: 0x8, addend: 0x0, symName: '__ZNKSt3__110__function6__funcIZN8worklets22JSIWorkletsModuleProxy3getERN8facebook3jsi7RuntimeERKNS5_10PropNameIDEE4$_17NS_9allocatorISB_EEFNS5_5ValueES7_RKSE_PSF_mEE6targetERKSt9type_info', symObjAddr: 0x5198, symBinAddr: 0x1498C, symSize: 0x3C }
  - { offset: 0xE6646, size: 0x8, addend: 0x0, symName: '__ZNKSt3__110__function6__funcIZN8worklets22JSIWorkletsModuleProxy3getERN8facebook3jsi7RuntimeERKNS5_10PropNameIDEE4$_17NS_9allocatorISB_EEFNS5_5ValueES7_RKSE_PSF_mEE11target_typeEv', symObjAddr: 0x51D4, symBinAddr: 0x149C8, symSize: 0xC }
  - { offset: 0xE6D17, size: 0x8, addend: 0x0, symName: __ZNSt3__110__function6__funcIZN8worklets12scheduleOnUIERKNS_10shared_ptrINS2_11UISchedulerEEERKNS_8weak_ptrINS2_14WorkletRuntimeEEERN8facebook3jsi7RuntimeERKNSE_5ValueEEUlvE_NS_9allocatorISK_EEFvvEED1Ev, symObjAddr: 0x55AC, symBinAddr: 0x14CF0, symSize: 0x40 }
  - { offset: 0xE6E3C, size: 0x8, addend: 0x0, symName: __ZNSt3__110__function6__funcIZN8worklets12scheduleOnUIERKNS_10shared_ptrINS2_11UISchedulerEEERKNS_8weak_ptrINS2_14WorkletRuntimeEEERN8facebook3jsi7RuntimeERKNSE_5ValueEEUlvE_NS_9allocatorISK_EEFvvEED0Ev, symObjAddr: 0x55EC, symBinAddr: 0x14D30, symSize: 0x40 }
  - { offset: 0xE7072, size: 0x8, addend: 0x0, symName: __ZNKSt3__110__function6__funcIZN8worklets12scheduleOnUIERKNS_10shared_ptrINS2_11UISchedulerEEERKNS_8weak_ptrINS2_14WorkletRuntimeEEERN8facebook3jsi7RuntimeERKNSE_5ValueEEUlvE_NS_9allocatorISK_EEFvvEE7__cloneEv, symObjAddr: 0x562C, symBinAddr: 0x14D70, symSize: 0x70 }
  - { offset: 0xE73DE, size: 0x8, addend: 0x0, symName: __ZNKSt3__110__function6__funcIZN8worklets12scheduleOnUIERKNS_10shared_ptrINS2_11UISchedulerEEERKNS_8weak_ptrINS2_14WorkletRuntimeEEERN8facebook3jsi7RuntimeERKNSE_5ValueEEUlvE_NS_9allocatorISK_EEFvvEE7__cloneEPNS0_6__baseISN_EE, symObjAddr: 0x569C, symBinAddr: 0x14DE0, symSize: 0x50 }
  - { offset: 0xE7414, size: 0x8, addend: 0x0, symName: __ZNKSt3__110__function6__funcIZN8worklets12scheduleOnUIERKNS_10shared_ptrINS2_11UISchedulerEEERKNS_8weak_ptrINS2_14WorkletRuntimeEEERN8facebook3jsi7RuntimeERKNSE_5ValueEEUlvE_NS_9allocatorISK_EEFvvEE7__cloneEPNS0_6__baseISN_EE, symObjAddr: 0x569C, symBinAddr: 0x14DE0, symSize: 0x50 }
  - { offset: 0xE7442, size: 0x8, addend: 0x0, symName: __ZNKSt3__110__function6__funcIZN8worklets12scheduleOnUIERKNS_10shared_ptrINS2_11UISchedulerEEERKNS_8weak_ptrINS2_14WorkletRuntimeEEERN8facebook3jsi7RuntimeERKNSE_5ValueEEUlvE_NS_9allocatorISK_EEFvvEE7__cloneEPNS0_6__baseISN_EE, symObjAddr: 0x569C, symBinAddr: 0x14DE0, symSize: 0x50 }
  - { offset: 0xE7638, size: 0x8, addend: 0x0, symName: __ZNSt3__110__function6__funcIZN8worklets12scheduleOnUIERKNS_10shared_ptrINS2_11UISchedulerEEERKNS_8weak_ptrINS2_14WorkletRuntimeEEERN8facebook3jsi7RuntimeERKNSE_5ValueEEUlvE_NS_9allocatorISK_EEFvvEE7destroyEv, symObjAddr: 0x56EC, symBinAddr: 0x14E30, symSize: 0x8 }
  - { offset: 0xE7712, size: 0x8, addend: 0x0, symName: __ZNSt3__110__function6__funcIZN8worklets12scheduleOnUIERKNS_10shared_ptrINS2_11UISchedulerEEERKNS_8weak_ptrINS2_14WorkletRuntimeEEERN8facebook3jsi7RuntimeERKNSE_5ValueEEUlvE_NS_9allocatorISK_EEFvvEE18destroy_deallocateEv, symObjAddr: 0x56F4, symBinAddr: 0x14E38, symSize: 0x28 }
  - { offset: 0xE7814, size: 0x8, addend: 0x0, symName: __ZNSt3__110__function6__funcIZN8worklets12scheduleOnUIERKNS_10shared_ptrINS2_11UISchedulerEEERKNS_8weak_ptrINS2_14WorkletRuntimeEEERN8facebook3jsi7RuntimeERKNSE_5ValueEEUlvE_NS_9allocatorISK_EEFvvEEclEv, symObjAddr: 0x571C, symBinAddr: 0x14E60, symSize: 0x8 }
  - { offset: 0xE78A4, size: 0x8, addend: 0x0, symName: __ZZN8worklets12scheduleOnUIERKNSt3__110shared_ptrINS_11UISchedulerEEERKNS0_8weak_ptrINS_14WorkletRuntimeEEERN8facebook3jsi7RuntimeERKNSC_5ValueEENKUlvE_clEv, symObjAddr: 0x5798, symBinAddr: 0x14EB0, symSize: 0x138 }
  - { offset: 0xE7B8B, size: 0x8, addend: 0x0, symName: __ZNKSt3__110__function6__funcIZN8worklets12scheduleOnUIERKNS_10shared_ptrINS2_11UISchedulerEEERKNS_8weak_ptrINS2_14WorkletRuntimeEEERN8facebook3jsi7RuntimeERKNSE_5ValueEEUlvE_NS_9allocatorISK_EEFvvEE6targetERKSt9type_info, symObjAddr: 0x5724, symBinAddr: 0x14E68, symSize: 0x3C }
  - { offset: 0xE7BD8, size: 0x8, addend: 0x0, symName: __ZNKSt3__110__function6__funcIZN8worklets12scheduleOnUIERKNS_10shared_ptrINS2_11UISchedulerEEERKNS_8weak_ptrINS2_14WorkletRuntimeEEERN8facebook3jsi7RuntimeERKNSE_5ValueEEUlvE_NS_9allocatorISK_EEFvvEE11target_typeEv, symObjAddr: 0x5760, symBinAddr: 0x14EA4, symSize: 0xC }
  - { offset: 0xE7EE4, size: 0x8, addend: 0x0, symName: '__ZNSt3__110__function6__funcIZN8worklets22JSIWorkletsModuleProxy3getERN8facebook3jsi7RuntimeERKNS5_10PropNameIDEE4$_18NS_9allocatorISB_EEFNS5_5ValueES7_RKSE_PSF_mEED1Ev', symObjAddr: 0x5A64, symBinAddr: 0x150CC, symSize: 0x38 }
  - { offset: 0xE7FF9, size: 0x8, addend: 0x0, symName: '__ZNSt3__110__function6__funcIZN8worklets22JSIWorkletsModuleProxy3getERN8facebook3jsi7RuntimeERKNS5_10PropNameIDEE4$_18NS_9allocatorISB_EEFNS5_5ValueES7_RKSE_PSF_mEED0Ev', symObjAddr: 0x5A9C, symBinAddr: 0x15104, symSize: 0x38 }
  - { offset: 0xE8247, size: 0x8, addend: 0x0, symName: '__ZNKSt3__110__function6__funcIZN8worklets22JSIWorkletsModuleProxy3getERN8facebook3jsi7RuntimeERKNS5_10PropNameIDEE4$_18NS_9allocatorISB_EEFNS5_5ValueES7_RKSE_PSF_mEE7__cloneEv', symObjAddr: 0x5AD4, symBinAddr: 0x1513C, symSize: 0x50 }
  - { offset: 0xE84CF, size: 0x8, addend: 0x0, symName: '__ZNKSt3__110__function6__funcIZN8worklets22JSIWorkletsModuleProxy3getERN8facebook3jsi7RuntimeERKNS5_10PropNameIDEE4$_18NS_9allocatorISB_EEFNS5_5ValueES7_RKSE_PSF_mEE7__cloneEPNS0_6__baseISI_EE', symObjAddr: 0x5B24, symBinAddr: 0x1518C, symSize: 0x30 }
  - { offset: 0xE8505, size: 0x8, addend: 0x0, symName: '__ZNKSt3__110__function6__funcIZN8worklets22JSIWorkletsModuleProxy3getERN8facebook3jsi7RuntimeERKNS5_10PropNameIDEE4$_18NS_9allocatorISB_EEFNS5_5ValueES7_RKSE_PSF_mEE7__cloneEPNS0_6__baseISI_EE', symObjAddr: 0x5B24, symBinAddr: 0x1518C, symSize: 0x30 }
  - { offset: 0xE8533, size: 0x8, addend: 0x0, symName: '__ZNKSt3__110__function6__funcIZN8worklets22JSIWorkletsModuleProxy3getERN8facebook3jsi7RuntimeERKNS5_10PropNameIDEE4$_18NS_9allocatorISB_EEFNS5_5ValueES7_RKSE_PSF_mEE7__cloneEPNS0_6__baseISI_EE', symObjAddr: 0x5B24, symBinAddr: 0x1518C, symSize: 0x30 }
  - { offset: 0xE8647, size: 0x8, addend: 0x0, symName: '__ZNSt3__110__function6__funcIZN8worklets22JSIWorkletsModuleProxy3getERN8facebook3jsi7RuntimeERKNS5_10PropNameIDEE4$_18NS_9allocatorISB_EEFNS5_5ValueES7_RKSE_PSF_mEE7destroyEv', symObjAddr: 0x5B54, symBinAddr: 0x151BC, symSize: 0x10 }
  - { offset: 0xE8670, size: 0x8, addend: 0x0, symName: '__ZNSt3__110__function6__funcIZN8worklets22JSIWorkletsModuleProxy3getERN8facebook3jsi7RuntimeERKNS5_10PropNameIDEE4$_18NS_9allocatorISB_EEFNS5_5ValueES7_RKSE_PSF_mEE7destroyEv', symObjAddr: 0x5B54, symBinAddr: 0x151BC, symSize: 0x10 }
  - { offset: 0xE868F, size: 0x8, addend: 0x0, symName: '__ZNSt3__110__function6__funcIZN8worklets22JSIWorkletsModuleProxy3getERN8facebook3jsi7RuntimeERKNS5_10PropNameIDEE4$_18NS_9allocatorISB_EEFNS5_5ValueES7_RKSE_PSF_mEE7destroyEv', symObjAddr: 0x5B54, symBinAddr: 0x151BC, symSize: 0x10 }
  - { offset: 0xE86AD, size: 0x8, addend: 0x0, symName: '__ZNSt3__110__function6__funcIZN8worklets22JSIWorkletsModuleProxy3getERN8facebook3jsi7RuntimeERKNS5_10PropNameIDEE4$_18NS_9allocatorISB_EEFNS5_5ValueES7_RKSE_PSF_mEE7destroyEv', symObjAddr: 0x5B54, symBinAddr: 0x151BC, symSize: 0x10 }
  - { offset: 0xE86CC, size: 0x8, addend: 0x0, symName: '__ZNSt3__110__function6__funcIZN8worklets22JSIWorkletsModuleProxy3getERN8facebook3jsi7RuntimeERKNS5_10PropNameIDEE4$_18NS_9allocatorISB_EEFNS5_5ValueES7_RKSE_PSF_mEE7destroyEv', symObjAddr: 0x5B54, symBinAddr: 0x151BC, symSize: 0x10 }
  - { offset: 0xE86EB, size: 0x8, addend: 0x0, symName: '__ZNSt3__110__function6__funcIZN8worklets22JSIWorkletsModuleProxy3getERN8facebook3jsi7RuntimeERKNS5_10PropNameIDEE4$_18NS_9allocatorISB_EEFNS5_5ValueES7_RKSE_PSF_mEE7destroyEv', symObjAddr: 0x5B54, symBinAddr: 0x151BC, symSize: 0x10 }
  - { offset: 0xE873E, size: 0x8, addend: 0x0, symName: '__ZNSt3__110__function6__funcIZN8worklets22JSIWorkletsModuleProxy3getERN8facebook3jsi7RuntimeERKNS5_10PropNameIDEE4$_18NS_9allocatorISB_EEFNS5_5ValueES7_RKSE_PSF_mEE18destroy_deallocateEv', symObjAddr: 0x5B64, symBinAddr: 0x151CC, symSize: 0x2C }
  - { offset: 0xE898B, size: 0x8, addend: 0x0, symName: '__ZNSt3__110__function6__funcIZN8worklets22JSIWorkletsModuleProxy3getERN8facebook3jsi7RuntimeERKNS5_10PropNameIDEE4$_18NS_9allocatorISB_EEFNS5_5ValueES7_RKSE_PSF_mEEclES7_SG_OSH_Om', symObjAddr: 0x5B90, symBinAddr: 0x151F8, symSize: 0xE0 }
  - { offset: 0xE8C2F, size: 0x8, addend: 0x0, symName: '__ZNKSt3__110__function6__funcIZN8worklets22JSIWorkletsModuleProxy3getERN8facebook3jsi7RuntimeERKNS5_10PropNameIDEE4$_18NS_9allocatorISB_EEFNS5_5ValueES7_RKSE_PSF_mEE6targetERKSt9type_info', symObjAddr: 0x5C70, symBinAddr: 0x152D8, symSize: 0x3C }
  - { offset: 0xE8C7C, size: 0x8, addend: 0x0, symName: '__ZNKSt3__110__function6__funcIZN8worklets22JSIWorkletsModuleProxy3getERN8facebook3jsi7RuntimeERKNS5_10PropNameIDEE4$_18NS_9allocatorISB_EEFNS5_5ValueES7_RKSE_PSF_mEE11target_typeEv', symObjAddr: 0x5CAC, symBinAddr: 0x15314, symSize: 0xC }
  - { offset: 0xE8ED0, size: 0x8, addend: 0x0, symName: __ZNSt3__120__shared_ptr_emplaceIN8worklets22JSIWorkletsModuleProxyENS_9allocatorIS2_EEEC2B8ne200100IJRS2_ES4_Li0EEES4_DpOT_, symObjAddr: 0x5D10, symBinAddr: 0x15378, symSize: 0x4C }
  - { offset: 0xE90E3, size: 0x8, addend: 0x0, symName: __ZNSt3__120__shared_ptr_emplaceIN8worklets22JSIWorkletsModuleProxyENS_9allocatorIS2_EEED1Ev, symObjAddr: 0x5D5C, symBinAddr: 0x153C4, symSize: 0x14 }
  - { offset: 0xE9105, size: 0x8, addend: 0x0, symName: __ZNSt3__120__shared_ptr_emplaceIN8worklets22JSIWorkletsModuleProxyENS_9allocatorIS2_EEED1Ev, symObjAddr: 0x5D5C, symBinAddr: 0x153C4, symSize: 0x14 }
  - { offset: 0xE913B, size: 0x8, addend: 0x0, symName: __ZNSt3__120__shared_ptr_emplaceIN8worklets22JSIWorkletsModuleProxyENS_9allocatorIS2_EEED0Ev, symObjAddr: 0x5D70, symBinAddr: 0x153D8, symSize: 0x24 }
  - { offset: 0xE9207, size: 0x8, addend: 0x0, symName: __ZNSt3__120__shared_ptr_emplaceIN8worklets22JSIWorkletsModuleProxyENS_9allocatorIS2_EEE16__on_zero_sharedEv, symObjAddr: 0x5D94, symBinAddr: 0x153FC, symSize: 0xC }
  - { offset: 0xE9230, size: 0x8, addend: 0x0, symName: __ZNSt3__120__shared_ptr_emplaceIN8worklets22JSIWorkletsModuleProxyENS_9allocatorIS2_EEE16__on_zero_sharedEv, symObjAddr: 0x5D94, symBinAddr: 0x153FC, symSize: 0xC }
  - { offset: 0xE924E, size: 0x8, addend: 0x0, symName: __ZNSt3__120__shared_ptr_emplaceIN8worklets22JSIWorkletsModuleProxyENS_9allocatorIS2_EEE16__on_zero_sharedEv, symObjAddr: 0x5D94, symBinAddr: 0x153FC, symSize: 0xC }
  - { offset: 0xE926C, size: 0x8, addend: 0x0, symName: __ZNSt3__120__shared_ptr_emplaceIN8worklets22JSIWorkletsModuleProxyENS_9allocatorIS2_EEE16__on_zero_sharedEv, symObjAddr: 0x5D94, symBinAddr: 0x153FC, symSize: 0xC }
  - { offset: 0xE9298, size: 0x8, addend: 0x0, symName: __ZNSt3__120__shared_ptr_emplaceIN8worklets22JSIWorkletsModuleProxyENS_9allocatorIS2_EEE21__on_zero_shared_weakEv, symObjAddr: 0x5DA0, symBinAddr: 0x15408, symSize: 0x4 }
  - { offset: 0xE92CB, size: 0x8, addend: 0x0, symName: __ZNSt3__120__shared_ptr_emplaceIN8worklets22JSIWorkletsModuleProxyENS_9allocatorIS2_EEE21__on_zero_shared_weakEv, symObjAddr: 0x5DA0, symBinAddr: 0x15408, symSize: 0x4 }
  - { offset: 0xE92EC, size: 0x8, addend: 0x0, symName: __ZNSt3__120__shared_ptr_emplaceIN8worklets22JSIWorkletsModuleProxyENS_9allocatorIS2_EEE21__on_zero_shared_weakEv, symObjAddr: 0x5DA0, symBinAddr: 0x15408, symSize: 0x4 }
  - { offset: 0xE930E, size: 0x8, addend: 0x0, symName: __ZNSt3__120__shared_ptr_emplaceIN8worklets22JSIWorkletsModuleProxyENS_9allocatorIS2_EEE21__on_zero_shared_weakEv, symObjAddr: 0x5DA0, symBinAddr: 0x15408, symSize: 0x4 }
  - { offset: 0xE9341, size: 0x8, addend: 0x0, symName: __ZNSt3__120__shared_ptr_emplaceIN8worklets22JSIWorkletsModuleProxyENS_9allocatorIS2_EEE21__on_zero_shared_weakEv, symObjAddr: 0x5DA0, symBinAddr: 0x15408, symSize: 0x4 }
  - { offset: 0xE93BE, size: 0x8, addend: 0x0, symName: '__ZNSt3__110__function6__funcIZN8worklets22JSIWorkletsModuleProxy3getERN8facebook3jsi7RuntimeERKNS5_10PropNameIDEE4$_19NS_9allocatorISB_EEFNS5_5ValueES7_RKSE_PSF_mEED1Ev', symObjAddr: 0x5DA4, symBinAddr: 0x1540C, symSize: 0x30 }
  - { offset: 0xE94B8, size: 0x8, addend: 0x0, symName: '__ZNSt3__110__function6__funcIZN8worklets22JSIWorkletsModuleProxy3getERN8facebook3jsi7RuntimeERKNS5_10PropNameIDEE4$_19NS_9allocatorISB_EEFNS5_5ValueES7_RKSE_PSF_mEED0Ev', symObjAddr: 0x5DD4, symBinAddr: 0x1543C, symSize: 0x30 }
  - { offset: 0xE9737, size: 0x8, addend: 0x0, symName: '__ZNKSt3__110__function6__funcIZN8worklets22JSIWorkletsModuleProxy3getERN8facebook3jsi7RuntimeERKNS5_10PropNameIDEE4$_19NS_9allocatorISB_EEFNS5_5ValueES7_RKSE_PSF_mEE7__cloneEv', symObjAddr: 0x5E04, symBinAddr: 0x1546C, symSize: 0x50 }
  - { offset: 0xE99DE, size: 0x8, addend: 0x0, symName: '__ZNKSt3__110__function6__funcIZN8worklets22JSIWorkletsModuleProxy3getERN8facebook3jsi7RuntimeERKNS5_10PropNameIDEE4$_19NS_9allocatorISB_EEFNS5_5ValueES7_RKSE_PSF_mEE7__cloneEPNS0_6__baseISI_EE', symObjAddr: 0x5E54, symBinAddr: 0x154BC, symSize: 0x30 }
  - { offset: 0xE9A14, size: 0x8, addend: 0x0, symName: '__ZNKSt3__110__function6__funcIZN8worklets22JSIWorkletsModuleProxy3getERN8facebook3jsi7RuntimeERKNS5_10PropNameIDEE4$_19NS_9allocatorISB_EEFNS5_5ValueES7_RKSE_PSF_mEE7__cloneEPNS0_6__baseISI_EE', symObjAddr: 0x5E54, symBinAddr: 0x154BC, symSize: 0x30 }
  - { offset: 0xE9A42, size: 0x8, addend: 0x0, symName: '__ZNKSt3__110__function6__funcIZN8worklets22JSIWorkletsModuleProxy3getERN8facebook3jsi7RuntimeERKNS5_10PropNameIDEE4$_19NS_9allocatorISB_EEFNS5_5ValueES7_RKSE_PSF_mEE7__cloneEPNS0_6__baseISI_EE', symObjAddr: 0x5E54, symBinAddr: 0x154BC, symSize: 0x30 }
  - { offset: 0xE9B75, size: 0x8, addend: 0x0, symName: '__ZNSt3__110__function6__funcIZN8worklets22JSIWorkletsModuleProxy3getERN8facebook3jsi7RuntimeERKNS5_10PropNameIDEE4$_19NS_9allocatorISB_EEFNS5_5ValueES7_RKSE_PSF_mEE7destroyEv', symObjAddr: 0x5E84, symBinAddr: 0x154EC, symSize: 0x8 }
  - { offset: 0xE9C32, size: 0x8, addend: 0x0, symName: '__ZNSt3__110__function6__funcIZN8worklets22JSIWorkletsModuleProxy3getERN8facebook3jsi7RuntimeERKNS5_10PropNameIDEE4$_19NS_9allocatorISB_EEFNS5_5ValueES7_RKSE_PSF_mEE18destroy_deallocateEv', symObjAddr: 0x5E8C, symBinAddr: 0x154F4, symSize: 0x28 }
  - { offset: 0xEA1D8, size: 0x8, addend: 0x0, symName: '__ZNSt3__110__function6__funcIZN8worklets22JSIWorkletsModuleProxy3getERN8facebook3jsi7RuntimeERKNS5_10PropNameIDEE4$_19NS_9allocatorISB_EEFNS5_5ValueES7_RKSE_PSF_mEEclES7_SG_OSH_Om', symObjAddr: 0x5EB4, symBinAddr: 0x1551C, symSize: 0x4D4 }
  - { offset: 0xEBA69, size: 0x8, addend: 0x0, symName: '__ZNKSt3__110__function6__funcIZN8worklets22JSIWorkletsModuleProxy3getERN8facebook3jsi7RuntimeERKNS5_10PropNameIDEE4$_19NS_9allocatorISB_EEFNS5_5ValueES7_RKSE_PSF_mEE6targetERKSt9type_info', symObjAddr: 0x6388, symBinAddr: 0x159F0, symSize: 0x3C }
  - { offset: 0xEBAB6, size: 0x8, addend: 0x0, symName: '__ZNKSt3__110__function6__funcIZN8worklets22JSIWorkletsModuleProxy3getERN8facebook3jsi7RuntimeERKNS5_10PropNameIDEE4$_19NS_9allocatorISB_EEFNS5_5ValueES7_RKSE_PSF_mEE11target_typeEv', symObjAddr: 0x63C4, symBinAddr: 0x15A2C, symSize: 0xC }
  - { offset: 0xEBD2E, size: 0x8, addend: 0x0, symName: __ZN8facebook3jsi6Object20createFromHostObjectERNS0_7RuntimeENSt3__110shared_ptrINS0_10HostObjectEEE, symObjAddr: 0x6978, symBinAddr: 0x15EB8, symSize: 0x9C }
  - { offset: 0xEC120, size: 0x8, addend: 0x0, symName: __ZNSt3__120__shared_ptr_emplaceIN8worklets14AsyncQueueImplENS_9allocatorIS2_EEEC2B8ne200100IJNS_12basic_stringIcNS_11char_traitsIcEENS3_IcEEEEES4_Li0EEES4_DpOT_, symObjAddr: 0x6748, symBinAddr: 0x15DB0, symSize: 0x4C }
  - { offset: 0xEC28A, size: 0x8, addend: 0x0, symName: __ZNSt3__120__shared_ptr_emplaceIN8worklets14AsyncQueueImplENS_9allocatorIS2_EEED1Ev, symObjAddr: 0x6794, symBinAddr: 0x15DFC, symSize: 0x14 }
  - { offset: 0xEC2AC, size: 0x8, addend: 0x0, symName: __ZNSt3__120__shared_ptr_emplaceIN8worklets14AsyncQueueImplENS_9allocatorIS2_EEED1Ev, symObjAddr: 0x6794, symBinAddr: 0x15DFC, symSize: 0x14 }
  - { offset: 0xEC2E2, size: 0x8, addend: 0x0, symName: __ZNSt3__120__shared_ptr_emplaceIN8worklets14AsyncQueueImplENS_9allocatorIS2_EEED0Ev, symObjAddr: 0x67A8, symBinAddr: 0x15E10, symSize: 0x24 }
  - { offset: 0xEC3AE, size: 0x8, addend: 0x0, symName: __ZNSt3__120__shared_ptr_emplaceIN8worklets14AsyncQueueImplENS_9allocatorIS2_EEE16__on_zero_sharedEv, symObjAddr: 0x67CC, symBinAddr: 0x15E34, symSize: 0xC }
  - { offset: 0xEC3D7, size: 0x8, addend: 0x0, symName: __ZNSt3__120__shared_ptr_emplaceIN8worklets14AsyncQueueImplENS_9allocatorIS2_EEE16__on_zero_sharedEv, symObjAddr: 0x67CC, symBinAddr: 0x15E34, symSize: 0xC }
  - { offset: 0xEC3F5, size: 0x8, addend: 0x0, symName: __ZNSt3__120__shared_ptr_emplaceIN8worklets14AsyncQueueImplENS_9allocatorIS2_EEE16__on_zero_sharedEv, symObjAddr: 0x67CC, symBinAddr: 0x15E34, symSize: 0xC }
  - { offset: 0xEC413, size: 0x8, addend: 0x0, symName: __ZNSt3__120__shared_ptr_emplaceIN8worklets14AsyncQueueImplENS_9allocatorIS2_EEE16__on_zero_sharedEv, symObjAddr: 0x67CC, symBinAddr: 0x15E34, symSize: 0xC }
  - { offset: 0xEC43F, size: 0x8, addend: 0x0, symName: __ZNSt3__120__shared_ptr_emplaceIN8worklets14AsyncQueueImplENS_9allocatorIS2_EEE21__on_zero_shared_weakEv, symObjAddr: 0x67D8, symBinAddr: 0x15E40, symSize: 0x4 }
  - { offset: 0xEC472, size: 0x8, addend: 0x0, symName: __ZNSt3__120__shared_ptr_emplaceIN8worklets14AsyncQueueImplENS_9allocatorIS2_EEE21__on_zero_shared_weakEv, symObjAddr: 0x67D8, symBinAddr: 0x15E40, symSize: 0x4 }
  - { offset: 0xEC493, size: 0x8, addend: 0x0, symName: __ZNSt3__120__shared_ptr_emplaceIN8worklets14AsyncQueueImplENS_9allocatorIS2_EEE21__on_zero_shared_weakEv, symObjAddr: 0x67D8, symBinAddr: 0x15E40, symSize: 0x4 }
  - { offset: 0xEC4B5, size: 0x8, addend: 0x0, symName: __ZNSt3__120__shared_ptr_emplaceIN8worklets14AsyncQueueImplENS_9allocatorIS2_EEE21__on_zero_shared_weakEv, symObjAddr: 0x67D8, symBinAddr: 0x15E40, symSize: 0x4 }
  - { offset: 0xEC4E7, size: 0x8, addend: 0x0, symName: __ZNSt3__120__shared_ptr_emplaceIN8worklets14AsyncQueueImplENS_9allocatorIS2_EEE21__on_zero_shared_weakEv, symObjAddr: 0x67D8, symBinAddr: 0x15E40, symSize: 0x4 }
  - { offset: 0xEC5CF, size: 0x8, addend: 0x0, symName: '__ZNSt3__110__function6__funcIZN8worklets22JSIWorkletsModuleProxy3getERN8facebook3jsi7RuntimeERKNS5_10PropNameIDEE4$_20NS_9allocatorISB_EEFNS5_5ValueES7_RKSE_PSF_mEED1Ev', symObjAddr: 0x6A14, symBinAddr: 0x15F54, symSize: 0x4 }
  - { offset: 0xEC5FB, size: 0x8, addend: 0x0, symName: '__ZNSt3__110__function6__funcIZN8worklets22JSIWorkletsModuleProxy3getERN8facebook3jsi7RuntimeERKNS5_10PropNameIDEE4$_20NS_9allocatorISB_EEFNS5_5ValueES7_RKSE_PSF_mEED0Ev', symObjAddr: 0x6A18, symBinAddr: 0x15F58, symSize: 0x4 }
  - { offset: 0xEC6B1, size: 0x8, addend: 0x0, symName: '__ZNKSt3__110__function6__funcIZN8worklets22JSIWorkletsModuleProxy3getERN8facebook3jsi7RuntimeERKNS5_10PropNameIDEE4$_20NS_9allocatorISB_EEFNS5_5ValueES7_RKSE_PSF_mEE7__cloneEv', symObjAddr: 0x6A1C, symBinAddr: 0x15F5C, symSize: 0x24 }
  - { offset: 0xEC7F9, size: 0x8, addend: 0x0, symName: '__ZNKSt3__110__function6__funcIZN8worklets22JSIWorkletsModuleProxy3getERN8facebook3jsi7RuntimeERKNS5_10PropNameIDEE4$_20NS_9allocatorISB_EEFNS5_5ValueES7_RKSE_PSF_mEE7__cloneEPNS0_6__baseISI_EE', symObjAddr: 0x6A40, symBinAddr: 0x15F80, symSize: 0x10 }
  - { offset: 0xEC82D, size: 0x8, addend: 0x0, symName: '__ZNKSt3__110__function6__funcIZN8worklets22JSIWorkletsModuleProxy3getERN8facebook3jsi7RuntimeERKNS5_10PropNameIDEE4$_20NS_9allocatorISB_EEFNS5_5ValueES7_RKSE_PSF_mEE7__cloneEPNS0_6__baseISI_EE', symObjAddr: 0x6A40, symBinAddr: 0x15F80, symSize: 0x10 }
  - { offset: 0xEC849, size: 0x8, addend: 0x0, symName: '__ZNKSt3__110__function6__funcIZN8worklets22JSIWorkletsModuleProxy3getERN8facebook3jsi7RuntimeERKNS5_10PropNameIDEE4$_20NS_9allocatorISB_EEFNS5_5ValueES7_RKSE_PSF_mEE7__cloneEPNS0_6__baseISI_EE', symObjAddr: 0x6A40, symBinAddr: 0x15F80, symSize: 0x10 }
  - { offset: 0xEC865, size: 0x8, addend: 0x0, symName: '__ZNSt3__110__function6__funcIZN8worklets22JSIWorkletsModuleProxy3getERN8facebook3jsi7RuntimeERKNS5_10PropNameIDEE4$_20NS_9allocatorISB_EEFNS5_5ValueES7_RKSE_PSF_mEE7destroyEv', symObjAddr: 0x6A50, symBinAddr: 0x15F90, symSize: 0x4 }
  - { offset: 0xEC8B9, size: 0x8, addend: 0x0, symName: '__ZNSt3__110__function6__funcIZN8worklets22JSIWorkletsModuleProxy3getERN8facebook3jsi7RuntimeERKNS5_10PropNameIDEE4$_20NS_9allocatorISB_EEFNS5_5ValueES7_RKSE_PSF_mEE18destroy_deallocateEv', symObjAddr: 0x6A54, symBinAddr: 0x15F94, symSize: 0x4 }
  - { offset: 0xEC8ED, size: 0x8, addend: 0x0, symName: '__ZNSt3__110__function6__funcIZN8worklets22JSIWorkletsModuleProxy3getERN8facebook3jsi7RuntimeERKNS5_10PropNameIDEE4$_20NS_9allocatorISB_EEFNS5_5ValueES7_RKSE_PSF_mEE18destroy_deallocateEv', symObjAddr: 0x6A54, symBinAddr: 0x15F94, symSize: 0x4 }
  - { offset: 0xEC90F, size: 0x8, addend: 0x0, symName: '__ZNSt3__110__function6__funcIZN8worklets22JSIWorkletsModuleProxy3getERN8facebook3jsi7RuntimeERKNS5_10PropNameIDEE4$_20NS_9allocatorISB_EEFNS5_5ValueES7_RKSE_PSF_mEE18destroy_deallocateEv', symObjAddr: 0x6A54, symBinAddr: 0x15F94, symSize: 0x4 }
  - { offset: 0xEC940, size: 0x8, addend: 0x0, symName: '__ZNSt3__110__function6__funcIZN8worklets22JSIWorkletsModuleProxy3getERN8facebook3jsi7RuntimeERKNS5_10PropNameIDEE4$_20NS_9allocatorISB_EEFNS5_5ValueES7_RKSE_PSF_mEE18destroy_deallocateEv', symObjAddr: 0x6A54, symBinAddr: 0x15F94, symSize: 0x4 }
  - { offset: 0xECA61, size: 0x8, addend: 0x0, symName: '__ZNSt3__110__function6__funcIZN8worklets22JSIWorkletsModuleProxy3getERN8facebook3jsi7RuntimeERKNS5_10PropNameIDEE4$_20NS_9allocatorISB_EEFNS5_5ValueES7_RKSE_PSF_mEEclES7_SG_OSH_Om', symObjAddr: 0x6A58, symBinAddr: 0x15F98, symSize: 0x30 }
  - { offset: 0xECC1A, size: 0x8, addend: 0x0, symName: '__ZNKSt3__110__function6__funcIZN8worklets22JSIWorkletsModuleProxy3getERN8facebook3jsi7RuntimeERKNS5_10PropNameIDEE4$_20NS_9allocatorISB_EEFNS5_5ValueES7_RKSE_PSF_mEE6targetERKSt9type_info', symObjAddr: 0x6A88, symBinAddr: 0x15FC8, symSize: 0x3C }
  - { offset: 0xECC67, size: 0x8, addend: 0x0, symName: '__ZNKSt3__110__function6__funcIZN8worklets22JSIWorkletsModuleProxy3getERN8facebook3jsi7RuntimeERKNS5_10PropNameIDEE4$_20NS_9allocatorISB_EEFNS5_5ValueES7_RKSE_PSF_mEE11target_typeEv', symObjAddr: 0x6AC4, symBinAddr: 0x16004, symSize: 0xC }
  - { offset: 0xECCDF, size: 0x8, addend: 0x0, symName: '__ZNSt3__110__function6__funcIZN8worklets22JSIWorkletsModuleProxy3getERN8facebook3jsi7RuntimeERKNS5_10PropNameIDEE4$_21NS_9allocatorISB_EEFNS5_5ValueES7_RKSE_PSF_mEED1Ev', symObjAddr: 0x6AD0, symBinAddr: 0x16010, symSize: 0x30 }
  - { offset: 0xECDD9, size: 0x8, addend: 0x0, symName: '__ZNSt3__110__function6__funcIZN8worklets22JSIWorkletsModuleProxy3getERN8facebook3jsi7RuntimeERKNS5_10PropNameIDEE4$_21NS_9allocatorISB_EEFNS5_5ValueES7_RKSE_PSF_mEED0Ev', symObjAddr: 0x6B00, symBinAddr: 0x16040, symSize: 0x30 }
  - { offset: 0xED00C, size: 0x8, addend: 0x0, symName: '__ZNKSt3__110__function6__funcIZN8worklets22JSIWorkletsModuleProxy3getERN8facebook3jsi7RuntimeERKNS5_10PropNameIDEE4$_21NS_9allocatorISB_EEFNS5_5ValueES7_RKSE_PSF_mEE7__cloneEv', symObjAddr: 0x6B30, symBinAddr: 0x16070, symSize: 0x50 }
  - { offset: 0xED2B3, size: 0x8, addend: 0x0, symName: '__ZNKSt3__110__function6__funcIZN8worklets22JSIWorkletsModuleProxy3getERN8facebook3jsi7RuntimeERKNS5_10PropNameIDEE4$_21NS_9allocatorISB_EEFNS5_5ValueES7_RKSE_PSF_mEE7__cloneEPNS0_6__baseISI_EE', symObjAddr: 0x6B80, symBinAddr: 0x160C0, symSize: 0x30 }
  - { offset: 0xED2E9, size: 0x8, addend: 0x0, symName: '__ZNKSt3__110__function6__funcIZN8worklets22JSIWorkletsModuleProxy3getERN8facebook3jsi7RuntimeERKNS5_10PropNameIDEE4$_21NS_9allocatorISB_EEFNS5_5ValueES7_RKSE_PSF_mEE7__cloneEPNS0_6__baseISI_EE', symObjAddr: 0x6B80, symBinAddr: 0x160C0, symSize: 0x30 }
  - { offset: 0xED317, size: 0x8, addend: 0x0, symName: '__ZNKSt3__110__function6__funcIZN8worklets22JSIWorkletsModuleProxy3getERN8facebook3jsi7RuntimeERKNS5_10PropNameIDEE4$_21NS_9allocatorISB_EEFNS5_5ValueES7_RKSE_PSF_mEE7__cloneEPNS0_6__baseISI_EE', symObjAddr: 0x6B80, symBinAddr: 0x160C0, symSize: 0x30 }
  - { offset: 0xED44A, size: 0x8, addend: 0x0, symName: '__ZNSt3__110__function6__funcIZN8worklets22JSIWorkletsModuleProxy3getERN8facebook3jsi7RuntimeERKNS5_10PropNameIDEE4$_21NS_9allocatorISB_EEFNS5_5ValueES7_RKSE_PSF_mEE7destroyEv', symObjAddr: 0x6BB0, symBinAddr: 0x160F0, symSize: 0x8 }
  - { offset: 0xED507, size: 0x8, addend: 0x0, symName: '__ZNSt3__110__function6__funcIZN8worklets22JSIWorkletsModuleProxy3getERN8facebook3jsi7RuntimeERKNS5_10PropNameIDEE4$_21NS_9allocatorISB_EEFNS5_5ValueES7_RKSE_PSF_mEE18destroy_deallocateEv', symObjAddr: 0x6BB8, symBinAddr: 0x160F8, symSize: 0x28 }
  - { offset: 0xED71F, size: 0x8, addend: 0x0, symName: '__ZNSt3__110__function6__funcIZN8worklets22JSIWorkletsModuleProxy3getERN8facebook3jsi7RuntimeERKNS5_10PropNameIDEE4$_21NS_9allocatorISB_EEFNS5_5ValueES7_RKSE_PSF_mEEclES7_SG_OSH_Om', symObjAddr: 0x6BE0, symBinAddr: 0x16120, symSize: 0x254 }
  - { offset: 0xEE532, size: 0x8, addend: 0x0, symName: '__ZNKSt3__110__function6__funcIZN8worklets22JSIWorkletsModuleProxy3getERN8facebook3jsi7RuntimeERKNS5_10PropNameIDEE4$_21NS_9allocatorISB_EEFNS5_5ValueES7_RKSE_PSF_mEE6targetERKSt9type_info', symObjAddr: 0x6E34, symBinAddr: 0x16374, symSize: 0x3C }
  - { offset: 0xEE57F, size: 0x8, addend: 0x0, symName: '__ZNKSt3__110__function6__funcIZN8worklets22JSIWorkletsModuleProxy3getERN8facebook3jsi7RuntimeERKNS5_10PropNameIDEE4$_21NS_9allocatorISB_EEFNS5_5ValueES7_RKSE_PSF_mEE11target_typeEv', symObjAddr: 0x6E70, symBinAddr: 0x163B0, symSize: 0xC }
  - { offset: 0xEE5E4, size: 0x8, addend: 0x0, symName: __ZN8worklets11JSErrorDataD1Ev, symObjAddr: 0x7020, symBinAddr: 0x16560, symSize: 0x60 }
  - { offset: 0xEEA31, size: 0x8, addend: 0x0, symName: '__ZNSt3__110__function6__funcIZN8worklets22JSIWorkletsModuleProxy3getERN8facebook3jsi7RuntimeERKNS5_10PropNameIDEE4$_22NS_9allocatorISB_EEFNS5_5ValueES7_RKSE_PSF_mEED1Ev', symObjAddr: 0x7080, symBinAddr: 0x165C0, symSize: 0x4 }
  - { offset: 0xEEA5D, size: 0x8, addend: 0x0, symName: '__ZNSt3__110__function6__funcIZN8worklets22JSIWorkletsModuleProxy3getERN8facebook3jsi7RuntimeERKNS5_10PropNameIDEE4$_22NS_9allocatorISB_EEFNS5_5ValueES7_RKSE_PSF_mEED0Ev', symObjAddr: 0x7084, symBinAddr: 0x165C4, symSize: 0x4 }
  - { offset: 0xEEB13, size: 0x8, addend: 0x0, symName: '__ZNKSt3__110__function6__funcIZN8worklets22JSIWorkletsModuleProxy3getERN8facebook3jsi7RuntimeERKNS5_10PropNameIDEE4$_22NS_9allocatorISB_EEFNS5_5ValueES7_RKSE_PSF_mEE7__cloneEv', symObjAddr: 0x7088, symBinAddr: 0x165C8, symSize: 0x24 }
  - { offset: 0xEEC5B, size: 0x8, addend: 0x0, symName: '__ZNKSt3__110__function6__funcIZN8worklets22JSIWorkletsModuleProxy3getERN8facebook3jsi7RuntimeERKNS5_10PropNameIDEE4$_22NS_9allocatorISB_EEFNS5_5ValueES7_RKSE_PSF_mEE7__cloneEPNS0_6__baseISI_EE', symObjAddr: 0x70AC, symBinAddr: 0x165EC, symSize: 0x10 }
  - { offset: 0xEEC8F, size: 0x8, addend: 0x0, symName: '__ZNKSt3__110__function6__funcIZN8worklets22JSIWorkletsModuleProxy3getERN8facebook3jsi7RuntimeERKNS5_10PropNameIDEE4$_22NS_9allocatorISB_EEFNS5_5ValueES7_RKSE_PSF_mEE7__cloneEPNS0_6__baseISI_EE', symObjAddr: 0x70AC, symBinAddr: 0x165EC, symSize: 0x10 }
  - { offset: 0xEECAB, size: 0x8, addend: 0x0, symName: '__ZNKSt3__110__function6__funcIZN8worklets22JSIWorkletsModuleProxy3getERN8facebook3jsi7RuntimeERKNS5_10PropNameIDEE4$_22NS_9allocatorISB_EEFNS5_5ValueES7_RKSE_PSF_mEE7__cloneEPNS0_6__baseISI_EE', symObjAddr: 0x70AC, symBinAddr: 0x165EC, symSize: 0x10 }
  - { offset: 0xEECC7, size: 0x8, addend: 0x0, symName: '__ZNSt3__110__function6__funcIZN8worklets22JSIWorkletsModuleProxy3getERN8facebook3jsi7RuntimeERKNS5_10PropNameIDEE4$_22NS_9allocatorISB_EEFNS5_5ValueES7_RKSE_PSF_mEE7destroyEv', symObjAddr: 0x70BC, symBinAddr: 0x165FC, symSize: 0x4 }
  - { offset: 0xEED1B, size: 0x8, addend: 0x0, symName: '__ZNSt3__110__function6__funcIZN8worklets22JSIWorkletsModuleProxy3getERN8facebook3jsi7RuntimeERKNS5_10PropNameIDEE4$_22NS_9allocatorISB_EEFNS5_5ValueES7_RKSE_PSF_mEE18destroy_deallocateEv', symObjAddr: 0x70C0, symBinAddr: 0x16600, symSize: 0x4 }
  - { offset: 0xEED4F, size: 0x8, addend: 0x0, symName: '__ZNSt3__110__function6__funcIZN8worklets22JSIWorkletsModuleProxy3getERN8facebook3jsi7RuntimeERKNS5_10PropNameIDEE4$_22NS_9allocatorISB_EEFNS5_5ValueES7_RKSE_PSF_mEE18destroy_deallocateEv', symObjAddr: 0x70C0, symBinAddr: 0x16600, symSize: 0x4 }
  - { offset: 0xEED71, size: 0x8, addend: 0x0, symName: '__ZNSt3__110__function6__funcIZN8worklets22JSIWorkletsModuleProxy3getERN8facebook3jsi7RuntimeERKNS5_10PropNameIDEE4$_22NS_9allocatorISB_EEFNS5_5ValueES7_RKSE_PSF_mEE18destroy_deallocateEv', symObjAddr: 0x70C0, symBinAddr: 0x16600, symSize: 0x4 }
  - { offset: 0xEEDA2, size: 0x8, addend: 0x0, symName: '__ZNSt3__110__function6__funcIZN8worklets22JSIWorkletsModuleProxy3getERN8facebook3jsi7RuntimeERKNS5_10PropNameIDEE4$_22NS_9allocatorISB_EEFNS5_5ValueES7_RKSE_PSF_mEE18destroy_deallocateEv', symObjAddr: 0x70C0, symBinAddr: 0x16600, symSize: 0x4 }
  - { offset: 0xEEF80, size: 0x8, addend: 0x0, symName: '__ZNSt3__110__function6__funcIZN8worklets22JSIWorkletsModuleProxy3getERN8facebook3jsi7RuntimeERKNS5_10PropNameIDEE4$_22NS_9allocatorISB_EEFNS5_5ValueES7_RKSE_PSF_mEEclES7_SG_OSH_Om', symObjAddr: 0x70C4, symBinAddr: 0x16604, symSize: 0x1A4 }
  - { offset: 0xEF787, size: 0x8, addend: 0x0, symName: __ZN8worklets17SerializableJSRef20newNativeStateObjectERN8facebook3jsi7RuntimeERKNSt3__110shared_ptrINS_12SerializableEEE, symObjAddr: 0x72B0, symBinAddr: 0x167F0, symSize: 0x1DC }
  - { offset: 0xEFF4C, size: 0x8, addend: 0x0, symName: '__ZNKSt3__110__function6__funcIZN8worklets22JSIWorkletsModuleProxy3getERN8facebook3jsi7RuntimeERKNS5_10PropNameIDEE4$_22NS_9allocatorISB_EEFNS5_5ValueES7_RKSE_PSF_mEE6targetERKSt9type_info', symObjAddr: 0x7268, symBinAddr: 0x167A8, symSize: 0x3C }
  - { offset: 0xEFF99, size: 0x8, addend: 0x0, symName: '__ZNKSt3__110__function6__funcIZN8worklets22JSIWorkletsModuleProxy3getERN8facebook3jsi7RuntimeERKNS5_10PropNameIDEE4$_22NS_9allocatorISB_EEFNS5_5ValueES7_RKSE_PSF_mEE11target_typeEv', symObjAddr: 0x72A4, symBinAddr: 0x167E4, symSize: 0xC }
  - { offset: 0xF03B0, size: 0x8, addend: 0x0, symName: __ZNK8facebook3jsi6Object11setPropertyIbEEvRNS0_7RuntimeEPKcOT_, symObjAddr: 0x7630, symBinAddr: 0x16B70, symSize: 0xA4 }
  - { offset: 0xF0815, size: 0x8, addend: 0x0, symName: __ZNSt3__120__shared_ptr_emplaceIN8worklets14SynchronizableENS_9allocatorIS2_EEEC2B8ne200100IJRNS_10shared_ptrINS1_12SerializableEEEES4_Li0EEES4_DpOT_, symObjAddr: 0x74EC, symBinAddr: 0x16A2C, symSize: 0x4C }
  - { offset: 0xF0985, size: 0x8, addend: 0x0, symName: __ZNSt3__120__shared_ptr_emplaceIN8worklets14SynchronizableENS_9allocatorIS2_EEED1Ev, symObjAddr: 0x7538, symBinAddr: 0x16A78, symSize: 0x14 }
  - { offset: 0xF09A7, size: 0x8, addend: 0x0, symName: __ZNSt3__120__shared_ptr_emplaceIN8worklets14SynchronizableENS_9allocatorIS2_EEED1Ev, symObjAddr: 0x7538, symBinAddr: 0x16A78, symSize: 0x14 }
  - { offset: 0xF09DD, size: 0x8, addend: 0x0, symName: __ZNSt3__120__shared_ptr_emplaceIN8worklets14SynchronizableENS_9allocatorIS2_EEED0Ev, symObjAddr: 0x754C, symBinAddr: 0x16A8C, symSize: 0x24 }
  - { offset: 0xF0AA9, size: 0x8, addend: 0x0, symName: __ZNSt3__120__shared_ptr_emplaceIN8worklets14SynchronizableENS_9allocatorIS2_EEE16__on_zero_sharedEv, symObjAddr: 0x7570, symBinAddr: 0x16AB0, symSize: 0xC }
  - { offset: 0xF0AD2, size: 0x8, addend: 0x0, symName: __ZNSt3__120__shared_ptr_emplaceIN8worklets14SynchronizableENS_9allocatorIS2_EEE16__on_zero_sharedEv, symObjAddr: 0x7570, symBinAddr: 0x16AB0, symSize: 0xC }
  - { offset: 0xF0AF0, size: 0x8, addend: 0x0, symName: __ZNSt3__120__shared_ptr_emplaceIN8worklets14SynchronizableENS_9allocatorIS2_EEE16__on_zero_sharedEv, symObjAddr: 0x7570, symBinAddr: 0x16AB0, symSize: 0xC }
  - { offset: 0xF0B0E, size: 0x8, addend: 0x0, symName: __ZNSt3__120__shared_ptr_emplaceIN8worklets14SynchronizableENS_9allocatorIS2_EEE16__on_zero_sharedEv, symObjAddr: 0x7570, symBinAddr: 0x16AB0, symSize: 0xC }
  - { offset: 0xF0B3A, size: 0x8, addend: 0x0, symName: __ZNSt3__120__shared_ptr_emplaceIN8worklets14SynchronizableENS_9allocatorIS2_EEE21__on_zero_shared_weakEv, symObjAddr: 0x757C, symBinAddr: 0x16ABC, symSize: 0x4 }
  - { offset: 0xF0B6D, size: 0x8, addend: 0x0, symName: __ZNSt3__120__shared_ptr_emplaceIN8worklets14SynchronizableENS_9allocatorIS2_EEE21__on_zero_shared_weakEv, symObjAddr: 0x757C, symBinAddr: 0x16ABC, symSize: 0x4 }
  - { offset: 0xF0B8E, size: 0x8, addend: 0x0, symName: __ZNSt3__120__shared_ptr_emplaceIN8worklets14SynchronizableENS_9allocatorIS2_EEE21__on_zero_shared_weakEv, symObjAddr: 0x757C, symBinAddr: 0x16ABC, symSize: 0x4 }
  - { offset: 0xF0BB0, size: 0x8, addend: 0x0, symName: __ZNSt3__120__shared_ptr_emplaceIN8worklets14SynchronizableENS_9allocatorIS2_EEE21__on_zero_shared_weakEv, symObjAddr: 0x757C, symBinAddr: 0x16ABC, symSize: 0x4 }
  - { offset: 0xF0BE3, size: 0x8, addend: 0x0, symName: __ZNSt3__120__shared_ptr_emplaceIN8worklets14SynchronizableENS_9allocatorIS2_EEE21__on_zero_shared_weakEv, symObjAddr: 0x757C, symBinAddr: 0x16ABC, symSize: 0x4 }
  - { offset: 0xF0E23, size: 0x8, addend: 0x0, symName: __ZNK8facebook3jsi6Object11setPropertyIbEEvRNS0_7RuntimeERKNS0_6StringEOT_, symObjAddr: 0x7774, symBinAddr: 0x16C5C, symSize: 0x68 }
  - { offset: 0xF0F90, size: 0x8, addend: 0x0, symName: __ZNSt3__120__shared_ptr_emplaceIN8worklets17SerializableJSRefENS_9allocatorIS2_EEED1Ev, symObjAddr: 0x76D4, symBinAddr: 0x16C14, symSize: 0x14 }
  - { offset: 0xF0FB2, size: 0x8, addend: 0x0, symName: __ZNSt3__120__shared_ptr_emplaceIN8worklets17SerializableJSRefENS_9allocatorIS2_EEED1Ev, symObjAddr: 0x76D4, symBinAddr: 0x16C14, symSize: 0x14 }
  - { offset: 0xF0FE8, size: 0x8, addend: 0x0, symName: __ZNSt3__120__shared_ptr_emplaceIN8worklets17SerializableJSRefENS_9allocatorIS2_EEED0Ev, symObjAddr: 0x76E8, symBinAddr: 0x16C28, symSize: 0x24 }
  - { offset: 0xF10B4, size: 0x8, addend: 0x0, symName: __ZNSt3__120__shared_ptr_emplaceIN8worklets17SerializableJSRefENS_9allocatorIS2_EEE16__on_zero_sharedEv, symObjAddr: 0x770C, symBinAddr: 0x16C4C, symSize: 0xC }
  - { offset: 0xF10DD, size: 0x8, addend: 0x0, symName: __ZNSt3__120__shared_ptr_emplaceIN8worklets17SerializableJSRefENS_9allocatorIS2_EEE16__on_zero_sharedEv, symObjAddr: 0x770C, symBinAddr: 0x16C4C, symSize: 0xC }
  - { offset: 0xF10FB, size: 0x8, addend: 0x0, symName: __ZNSt3__120__shared_ptr_emplaceIN8worklets17SerializableJSRefENS_9allocatorIS2_EEE16__on_zero_sharedEv, symObjAddr: 0x770C, symBinAddr: 0x16C4C, symSize: 0xC }
  - { offset: 0xF1119, size: 0x8, addend: 0x0, symName: __ZNSt3__120__shared_ptr_emplaceIN8worklets17SerializableJSRefENS_9allocatorIS2_EEE16__on_zero_sharedEv, symObjAddr: 0x770C, symBinAddr: 0x16C4C, symSize: 0xC }
  - { offset: 0xF11A2, size: 0x8, addend: 0x0, symName: __ZNSt3__120__shared_ptr_emplaceIN8worklets17SerializableJSRefENS_9allocatorIS2_EEE21__on_zero_shared_weakEv, symObjAddr: 0x7718, symBinAddr: 0x16C58, symSize: 0x4 }
  - { offset: 0xF11D5, size: 0x8, addend: 0x0, symName: __ZNSt3__120__shared_ptr_emplaceIN8worklets17SerializableJSRefENS_9allocatorIS2_EEE21__on_zero_shared_weakEv, symObjAddr: 0x7718, symBinAddr: 0x16C58, symSize: 0x4 }
  - { offset: 0xF11F6, size: 0x8, addend: 0x0, symName: __ZNSt3__120__shared_ptr_emplaceIN8worklets17SerializableJSRefENS_9allocatorIS2_EEE21__on_zero_shared_weakEv, symObjAddr: 0x7718, symBinAddr: 0x16C58, symSize: 0x4 }
  - { offset: 0xF1218, size: 0x8, addend: 0x0, symName: __ZNSt3__120__shared_ptr_emplaceIN8worklets17SerializableJSRefENS_9allocatorIS2_EEE21__on_zero_shared_weakEv, symObjAddr: 0x7718, symBinAddr: 0x16C58, symSize: 0x4 }
  - { offset: 0xF124A, size: 0x8, addend: 0x0, symName: __ZNSt3__120__shared_ptr_emplaceIN8worklets17SerializableJSRefENS_9allocatorIS2_EEE21__on_zero_shared_weakEv, symObjAddr: 0x7718, symBinAddr: 0x16C58, symSize: 0x4 }
  - { offset: 0xF12D2, size: 0x8, addend: 0x0, symName: '__ZNSt3__110__function6__funcIZN8worklets22JSIWorkletsModuleProxy3getERN8facebook3jsi7RuntimeERKNS5_10PropNameIDEE4$_23NS_9allocatorISB_EEFNS5_5ValueES7_RKSE_PSF_mEED1Ev', symObjAddr: 0x7834, symBinAddr: 0x16CC4, symSize: 0x4 }
  - { offset: 0xF12FE, size: 0x8, addend: 0x0, symName: '__ZNSt3__110__function6__funcIZN8worklets22JSIWorkletsModuleProxy3getERN8facebook3jsi7RuntimeERKNS5_10PropNameIDEE4$_23NS_9allocatorISB_EEFNS5_5ValueES7_RKSE_PSF_mEED0Ev', symObjAddr: 0x7838, symBinAddr: 0x16CC8, symSize: 0x4 }
  - { offset: 0xF13B4, size: 0x8, addend: 0x0, symName: '__ZNKSt3__110__function6__funcIZN8worklets22JSIWorkletsModuleProxy3getERN8facebook3jsi7RuntimeERKNS5_10PropNameIDEE4$_23NS_9allocatorISB_EEFNS5_5ValueES7_RKSE_PSF_mEE7__cloneEv', symObjAddr: 0x783C, symBinAddr: 0x16CCC, symSize: 0x24 }
  - { offset: 0xF14FC, size: 0x8, addend: 0x0, symName: '__ZNKSt3__110__function6__funcIZN8worklets22JSIWorkletsModuleProxy3getERN8facebook3jsi7RuntimeERKNS5_10PropNameIDEE4$_23NS_9allocatorISB_EEFNS5_5ValueES7_RKSE_PSF_mEE7__cloneEPNS0_6__baseISI_EE', symObjAddr: 0x7860, symBinAddr: 0x16CF0, symSize: 0x10 }
  - { offset: 0xF1530, size: 0x8, addend: 0x0, symName: '__ZNKSt3__110__function6__funcIZN8worklets22JSIWorkletsModuleProxy3getERN8facebook3jsi7RuntimeERKNS5_10PropNameIDEE4$_23NS_9allocatorISB_EEFNS5_5ValueES7_RKSE_PSF_mEE7__cloneEPNS0_6__baseISI_EE', symObjAddr: 0x7860, symBinAddr: 0x16CF0, symSize: 0x10 }
  - { offset: 0xF154C, size: 0x8, addend: 0x0, symName: '__ZNKSt3__110__function6__funcIZN8worklets22JSIWorkletsModuleProxy3getERN8facebook3jsi7RuntimeERKNS5_10PropNameIDEE4$_23NS_9allocatorISB_EEFNS5_5ValueES7_RKSE_PSF_mEE7__cloneEPNS0_6__baseISI_EE', symObjAddr: 0x7860, symBinAddr: 0x16CF0, symSize: 0x10 }
  - { offset: 0xF1568, size: 0x8, addend: 0x0, symName: '__ZNSt3__110__function6__funcIZN8worklets22JSIWorkletsModuleProxy3getERN8facebook3jsi7RuntimeERKNS5_10PropNameIDEE4$_23NS_9allocatorISB_EEFNS5_5ValueES7_RKSE_PSF_mEE7destroyEv', symObjAddr: 0x7870, symBinAddr: 0x16D00, symSize: 0x4 }
  - { offset: 0xF15BC, size: 0x8, addend: 0x0, symName: '__ZNSt3__110__function6__funcIZN8worklets22JSIWorkletsModuleProxy3getERN8facebook3jsi7RuntimeERKNS5_10PropNameIDEE4$_23NS_9allocatorISB_EEFNS5_5ValueES7_RKSE_PSF_mEE18destroy_deallocateEv', symObjAddr: 0x7874, symBinAddr: 0x16D04, symSize: 0x4 }
  - { offset: 0xF15F0, size: 0x8, addend: 0x0, symName: '__ZNSt3__110__function6__funcIZN8worklets22JSIWorkletsModuleProxy3getERN8facebook3jsi7RuntimeERKNS5_10PropNameIDEE4$_23NS_9allocatorISB_EEFNS5_5ValueES7_RKSE_PSF_mEE18destroy_deallocateEv', symObjAddr: 0x7874, symBinAddr: 0x16D04, symSize: 0x4 }
  - { offset: 0xF1612, size: 0x8, addend: 0x0, symName: '__ZNSt3__110__function6__funcIZN8worklets22JSIWorkletsModuleProxy3getERN8facebook3jsi7RuntimeERKNS5_10PropNameIDEE4$_23NS_9allocatorISB_EEFNS5_5ValueES7_RKSE_PSF_mEE18destroy_deallocateEv', symObjAddr: 0x7874, symBinAddr: 0x16D04, symSize: 0x4 }
  - { offset: 0xF1643, size: 0x8, addend: 0x0, symName: '__ZNSt3__110__function6__funcIZN8worklets22JSIWorkletsModuleProxy3getERN8facebook3jsi7RuntimeERKNS5_10PropNameIDEE4$_23NS_9allocatorISB_EEFNS5_5ValueES7_RKSE_PSF_mEE18destroy_deallocateEv', symObjAddr: 0x7874, symBinAddr: 0x16D04, symSize: 0x4 }
  - { offset: 0xF17A2, size: 0x8, addend: 0x0, symName: '__ZNSt3__110__function6__funcIZN8worklets22JSIWorkletsModuleProxy3getERN8facebook3jsi7RuntimeERKNS5_10PropNameIDEE4$_23NS_9allocatorISB_EEFNS5_5ValueES7_RKSE_PSF_mEEclES7_SG_OSH_Om', symObjAddr: 0x7878, symBinAddr: 0x16D08, symSize: 0xF0 }
  - { offset: 0xF1AD4, size: 0x8, addend: 0x0, symName: '__ZNKSt3__110__function6__funcIZN8worklets22JSIWorkletsModuleProxy3getERN8facebook3jsi7RuntimeERKNS5_10PropNameIDEE4$_23NS_9allocatorISB_EEFNS5_5ValueES7_RKSE_PSF_mEE6targetERKSt9type_info', symObjAddr: 0x7968, symBinAddr: 0x16DF8, symSize: 0x3C }
  - { offset: 0xF1B21, size: 0x8, addend: 0x0, symName: '__ZNKSt3__110__function6__funcIZN8worklets22JSIWorkletsModuleProxy3getERN8facebook3jsi7RuntimeERKNS5_10PropNameIDEE4$_23NS_9allocatorISB_EEFNS5_5ValueES7_RKSE_PSF_mEE11target_typeEv', symObjAddr: 0x79A4, symBinAddr: 0x16E34, symSize: 0xC }
  - { offset: 0xF1B44, size: 0x8, addend: 0x0, symName: '__ZNSt3__110__function6__funcIZN8worklets22JSIWorkletsModuleProxy3getERN8facebook3jsi7RuntimeERKNS5_10PropNameIDEE4$_24NS_9allocatorISB_EEFNS5_5ValueES7_RKSE_PSF_mEED1Ev', symObjAddr: 0x79B0, symBinAddr: 0x16E40, symSize: 0x4 }
  - { offset: 0xF1B70, size: 0x8, addend: 0x0, symName: '__ZNSt3__110__function6__funcIZN8worklets22JSIWorkletsModuleProxy3getERN8facebook3jsi7RuntimeERKNS5_10PropNameIDEE4$_24NS_9allocatorISB_EEFNS5_5ValueES7_RKSE_PSF_mEED0Ev', symObjAddr: 0x79B4, symBinAddr: 0x16E44, symSize: 0x4 }
  - { offset: 0xF1C26, size: 0x8, addend: 0x0, symName: '__ZNKSt3__110__function6__funcIZN8worklets22JSIWorkletsModuleProxy3getERN8facebook3jsi7RuntimeERKNS5_10PropNameIDEE4$_24NS_9allocatorISB_EEFNS5_5ValueES7_RKSE_PSF_mEE7__cloneEv', symObjAddr: 0x79B8, symBinAddr: 0x16E48, symSize: 0x24 }
  - { offset: 0xF1D6E, size: 0x8, addend: 0x0, symName: '__ZNKSt3__110__function6__funcIZN8worklets22JSIWorkletsModuleProxy3getERN8facebook3jsi7RuntimeERKNS5_10PropNameIDEE4$_24NS_9allocatorISB_EEFNS5_5ValueES7_RKSE_PSF_mEE7__cloneEPNS0_6__baseISI_EE', symObjAddr: 0x79DC, symBinAddr: 0x16E6C, symSize: 0x10 }
  - { offset: 0xF1DA2, size: 0x8, addend: 0x0, symName: '__ZNKSt3__110__function6__funcIZN8worklets22JSIWorkletsModuleProxy3getERN8facebook3jsi7RuntimeERKNS5_10PropNameIDEE4$_24NS_9allocatorISB_EEFNS5_5ValueES7_RKSE_PSF_mEE7__cloneEPNS0_6__baseISI_EE', symObjAddr: 0x79DC, symBinAddr: 0x16E6C, symSize: 0x10 }
  - { offset: 0xF1DBE, size: 0x8, addend: 0x0, symName: '__ZNKSt3__110__function6__funcIZN8worklets22JSIWorkletsModuleProxy3getERN8facebook3jsi7RuntimeERKNS5_10PropNameIDEE4$_24NS_9allocatorISB_EEFNS5_5ValueES7_RKSE_PSF_mEE7__cloneEPNS0_6__baseISI_EE', symObjAddr: 0x79DC, symBinAddr: 0x16E6C, symSize: 0x10 }
  - { offset: 0xF1DDA, size: 0x8, addend: 0x0, symName: '__ZNSt3__110__function6__funcIZN8worklets22JSIWorkletsModuleProxy3getERN8facebook3jsi7RuntimeERKNS5_10PropNameIDEE4$_24NS_9allocatorISB_EEFNS5_5ValueES7_RKSE_PSF_mEE7destroyEv', symObjAddr: 0x79EC, symBinAddr: 0x16E7C, symSize: 0x4 }
  - { offset: 0xF1E2E, size: 0x8, addend: 0x0, symName: '__ZNSt3__110__function6__funcIZN8worklets22JSIWorkletsModuleProxy3getERN8facebook3jsi7RuntimeERKNS5_10PropNameIDEE4$_24NS_9allocatorISB_EEFNS5_5ValueES7_RKSE_PSF_mEE18destroy_deallocateEv', symObjAddr: 0x79F0, symBinAddr: 0x16E80, symSize: 0x4 }
  - { offset: 0xF1E62, size: 0x8, addend: 0x0, symName: '__ZNSt3__110__function6__funcIZN8worklets22JSIWorkletsModuleProxy3getERN8facebook3jsi7RuntimeERKNS5_10PropNameIDEE4$_24NS_9allocatorISB_EEFNS5_5ValueES7_RKSE_PSF_mEE18destroy_deallocateEv', symObjAddr: 0x79F0, symBinAddr: 0x16E80, symSize: 0x4 }
  - { offset: 0xF1E84, size: 0x8, addend: 0x0, symName: '__ZNSt3__110__function6__funcIZN8worklets22JSIWorkletsModuleProxy3getERN8facebook3jsi7RuntimeERKNS5_10PropNameIDEE4$_24NS_9allocatorISB_EEFNS5_5ValueES7_RKSE_PSF_mEE18destroy_deallocateEv', symObjAddr: 0x79F0, symBinAddr: 0x16E80, symSize: 0x4 }
  - { offset: 0xF1EB5, size: 0x8, addend: 0x0, symName: '__ZNSt3__110__function6__funcIZN8worklets22JSIWorkletsModuleProxy3getERN8facebook3jsi7RuntimeERKNS5_10PropNameIDEE4$_24NS_9allocatorISB_EEFNS5_5ValueES7_RKSE_PSF_mEE18destroy_deallocateEv', symObjAddr: 0x79F0, symBinAddr: 0x16E80, symSize: 0x4 }
  - { offset: 0xF1FE3, size: 0x8, addend: 0x0, symName: '__ZNSt3__110__function6__funcIZN8worklets22JSIWorkletsModuleProxy3getERN8facebook3jsi7RuntimeERKNS5_10PropNameIDEE4$_24NS_9allocatorISB_EEFNS5_5ValueES7_RKSE_PSF_mEEclES7_SG_OSH_Om', symObjAddr: 0x79F4, symBinAddr: 0x16E84, symSize: 0xF0 }
  - { offset: 0xF2315, size: 0x8, addend: 0x0, symName: '__ZNKSt3__110__function6__funcIZN8worklets22JSIWorkletsModuleProxy3getERN8facebook3jsi7RuntimeERKNS5_10PropNameIDEE4$_24NS_9allocatorISB_EEFNS5_5ValueES7_RKSE_PSF_mEE6targetERKSt9type_info', symObjAddr: 0x7AE4, symBinAddr: 0x16F74, symSize: 0x3C }
  - { offset: 0xF2362, size: 0x8, addend: 0x0, symName: '__ZNKSt3__110__function6__funcIZN8worklets22JSIWorkletsModuleProxy3getERN8facebook3jsi7RuntimeERKNS5_10PropNameIDEE4$_24NS_9allocatorISB_EEFNS5_5ValueES7_RKSE_PSF_mEE11target_typeEv', symObjAddr: 0x7B20, symBinAddr: 0x16FB0, symSize: 0xC }
  - { offset: 0xF2385, size: 0x8, addend: 0x0, symName: '__ZNSt3__110__function6__funcIZN8worklets22JSIWorkletsModuleProxy3getERN8facebook3jsi7RuntimeERKNS5_10PropNameIDEE4$_25NS_9allocatorISB_EEFNS5_5ValueES7_RKSE_PSF_mEED1Ev', symObjAddr: 0x7B2C, symBinAddr: 0x16FBC, symSize: 0x4 }
  - { offset: 0xF23B1, size: 0x8, addend: 0x0, symName: '__ZNSt3__110__function6__funcIZN8worklets22JSIWorkletsModuleProxy3getERN8facebook3jsi7RuntimeERKNS5_10PropNameIDEE4$_25NS_9allocatorISB_EEFNS5_5ValueES7_RKSE_PSF_mEED0Ev', symObjAddr: 0x7B30, symBinAddr: 0x16FC0, symSize: 0x4 }
  - { offset: 0xF2467, size: 0x8, addend: 0x0, symName: '__ZNKSt3__110__function6__funcIZN8worklets22JSIWorkletsModuleProxy3getERN8facebook3jsi7RuntimeERKNS5_10PropNameIDEE4$_25NS_9allocatorISB_EEFNS5_5ValueES7_RKSE_PSF_mEE7__cloneEv', symObjAddr: 0x7B34, symBinAddr: 0x16FC4, symSize: 0x24 }
  - { offset: 0xF25AF, size: 0x8, addend: 0x0, symName: '__ZNKSt3__110__function6__funcIZN8worklets22JSIWorkletsModuleProxy3getERN8facebook3jsi7RuntimeERKNS5_10PropNameIDEE4$_25NS_9allocatorISB_EEFNS5_5ValueES7_RKSE_PSF_mEE7__cloneEPNS0_6__baseISI_EE', symObjAddr: 0x7B58, symBinAddr: 0x16FE8, symSize: 0x10 }
  - { offset: 0xF25E3, size: 0x8, addend: 0x0, symName: '__ZNKSt3__110__function6__funcIZN8worklets22JSIWorkletsModuleProxy3getERN8facebook3jsi7RuntimeERKNS5_10PropNameIDEE4$_25NS_9allocatorISB_EEFNS5_5ValueES7_RKSE_PSF_mEE7__cloneEPNS0_6__baseISI_EE', symObjAddr: 0x7B58, symBinAddr: 0x16FE8, symSize: 0x10 }
  - { offset: 0xF25FF, size: 0x8, addend: 0x0, symName: '__ZNKSt3__110__function6__funcIZN8worklets22JSIWorkletsModuleProxy3getERN8facebook3jsi7RuntimeERKNS5_10PropNameIDEE4$_25NS_9allocatorISB_EEFNS5_5ValueES7_RKSE_PSF_mEE7__cloneEPNS0_6__baseISI_EE', symObjAddr: 0x7B58, symBinAddr: 0x16FE8, symSize: 0x10 }
  - { offset: 0xF261B, size: 0x8, addend: 0x0, symName: '__ZNSt3__110__function6__funcIZN8worklets22JSIWorkletsModuleProxy3getERN8facebook3jsi7RuntimeERKNS5_10PropNameIDEE4$_25NS_9allocatorISB_EEFNS5_5ValueES7_RKSE_PSF_mEE7destroyEv', symObjAddr: 0x7B68, symBinAddr: 0x16FF8, symSize: 0x4 }
  - { offset: 0xF266F, size: 0x8, addend: 0x0, symName: '__ZNSt3__110__function6__funcIZN8worklets22JSIWorkletsModuleProxy3getERN8facebook3jsi7RuntimeERKNS5_10PropNameIDEE4$_25NS_9allocatorISB_EEFNS5_5ValueES7_RKSE_PSF_mEE18destroy_deallocateEv', symObjAddr: 0x7B6C, symBinAddr: 0x16FFC, symSize: 0x4 }
  - { offset: 0xF26A3, size: 0x8, addend: 0x0, symName: '__ZNSt3__110__function6__funcIZN8worklets22JSIWorkletsModuleProxy3getERN8facebook3jsi7RuntimeERKNS5_10PropNameIDEE4$_25NS_9allocatorISB_EEFNS5_5ValueES7_RKSE_PSF_mEE18destroy_deallocateEv', symObjAddr: 0x7B6C, symBinAddr: 0x16FFC, symSize: 0x4 }
  - { offset: 0xF26C5, size: 0x8, addend: 0x0, symName: '__ZNSt3__110__function6__funcIZN8worklets22JSIWorkletsModuleProxy3getERN8facebook3jsi7RuntimeERKNS5_10PropNameIDEE4$_25NS_9allocatorISB_EEFNS5_5ValueES7_RKSE_PSF_mEE18destroy_deallocateEv', symObjAddr: 0x7B6C, symBinAddr: 0x16FFC, symSize: 0x4 }
  - { offset: 0xF26F6, size: 0x8, addend: 0x0, symName: '__ZNSt3__110__function6__funcIZN8worklets22JSIWorkletsModuleProxy3getERN8facebook3jsi7RuntimeERKNS5_10PropNameIDEE4$_25NS_9allocatorISB_EEFNS5_5ValueES7_RKSE_PSF_mEE18destroy_deallocateEv', symObjAddr: 0x7B6C, symBinAddr: 0x16FFC, symSize: 0x4 }
  - { offset: 0xF2831, size: 0x8, addend: 0x0, symName: '__ZNSt3__110__function6__funcIZN8worklets22JSIWorkletsModuleProxy3getERN8facebook3jsi7RuntimeERKNS5_10PropNameIDEE4$_25NS_9allocatorISB_EEFNS5_5ValueES7_RKSE_PSF_mEEclES7_SG_OSH_Om', symObjAddr: 0x7B70, symBinAddr: 0x17000, symSize: 0x134 }
  - { offset: 0xF2E3A, size: 0x8, addend: 0x0, symName: '__ZNKSt3__110__function6__funcIZN8worklets22JSIWorkletsModuleProxy3getERN8facebook3jsi7RuntimeERKNS5_10PropNameIDEE4$_25NS_9allocatorISB_EEFNS5_5ValueES7_RKSE_PSF_mEE6targetERKSt9type_info', symObjAddr: 0x7CA4, symBinAddr: 0x17134, symSize: 0x3C }
  - { offset: 0xF2E87, size: 0x8, addend: 0x0, symName: '__ZNKSt3__110__function6__funcIZN8worklets22JSIWorkletsModuleProxy3getERN8facebook3jsi7RuntimeERKNS5_10PropNameIDEE4$_25NS_9allocatorISB_EEFNS5_5ValueES7_RKSE_PSF_mEE11target_typeEv', symObjAddr: 0x7CE0, symBinAddr: 0x17170, symSize: 0xC }
  - { offset: 0xF2EAA, size: 0x8, addend: 0x0, symName: '__ZNSt3__110__function6__funcIZN8worklets22JSIWorkletsModuleProxy3getERN8facebook3jsi7RuntimeERKNS5_10PropNameIDEE4$_26NS_9allocatorISB_EEFNS5_5ValueES7_RKSE_PSF_mEED1Ev', symObjAddr: 0x7CEC, symBinAddr: 0x1717C, symSize: 0x4 }
  - { offset: 0xF2ED6, size: 0x8, addend: 0x0, symName: '__ZNSt3__110__function6__funcIZN8worklets22JSIWorkletsModuleProxy3getERN8facebook3jsi7RuntimeERKNS5_10PropNameIDEE4$_26NS_9allocatorISB_EEFNS5_5ValueES7_RKSE_PSF_mEED0Ev', symObjAddr: 0x7CF0, symBinAddr: 0x17180, symSize: 0x4 }
  - { offset: 0xF2F8C, size: 0x8, addend: 0x0, symName: '__ZNKSt3__110__function6__funcIZN8worklets22JSIWorkletsModuleProxy3getERN8facebook3jsi7RuntimeERKNS5_10PropNameIDEE4$_26NS_9allocatorISB_EEFNS5_5ValueES7_RKSE_PSF_mEE7__cloneEv', symObjAddr: 0x7CF4, symBinAddr: 0x17184, symSize: 0x24 }
  - { offset: 0xF30D4, size: 0x8, addend: 0x0, symName: '__ZNKSt3__110__function6__funcIZN8worklets22JSIWorkletsModuleProxy3getERN8facebook3jsi7RuntimeERKNS5_10PropNameIDEE4$_26NS_9allocatorISB_EEFNS5_5ValueES7_RKSE_PSF_mEE7__cloneEPNS0_6__baseISI_EE', symObjAddr: 0x7D18, symBinAddr: 0x171A8, symSize: 0x10 }
  - { offset: 0xF3108, size: 0x8, addend: 0x0, symName: '__ZNKSt3__110__function6__funcIZN8worklets22JSIWorkletsModuleProxy3getERN8facebook3jsi7RuntimeERKNS5_10PropNameIDEE4$_26NS_9allocatorISB_EEFNS5_5ValueES7_RKSE_PSF_mEE7__cloneEPNS0_6__baseISI_EE', symObjAddr: 0x7D18, symBinAddr: 0x171A8, symSize: 0x10 }
  - { offset: 0xF3124, size: 0x8, addend: 0x0, symName: '__ZNKSt3__110__function6__funcIZN8worklets22JSIWorkletsModuleProxy3getERN8facebook3jsi7RuntimeERKNS5_10PropNameIDEE4$_26NS_9allocatorISB_EEFNS5_5ValueES7_RKSE_PSF_mEE7__cloneEPNS0_6__baseISI_EE', symObjAddr: 0x7D18, symBinAddr: 0x171A8, symSize: 0x10 }
  - { offset: 0xF3140, size: 0x8, addend: 0x0, symName: '__ZNSt3__110__function6__funcIZN8worklets22JSIWorkletsModuleProxy3getERN8facebook3jsi7RuntimeERKNS5_10PropNameIDEE4$_26NS_9allocatorISB_EEFNS5_5ValueES7_RKSE_PSF_mEE7destroyEv', symObjAddr: 0x7D28, symBinAddr: 0x171B8, symSize: 0x4 }
  - { offset: 0xF3194, size: 0x8, addend: 0x0, symName: '__ZNSt3__110__function6__funcIZN8worklets22JSIWorkletsModuleProxy3getERN8facebook3jsi7RuntimeERKNS5_10PropNameIDEE4$_26NS_9allocatorISB_EEFNS5_5ValueES7_RKSE_PSF_mEE18destroy_deallocateEv', symObjAddr: 0x7D2C, symBinAddr: 0x171BC, symSize: 0x4 }
  - { offset: 0xF31C8, size: 0x8, addend: 0x0, symName: '__ZNSt3__110__function6__funcIZN8worklets22JSIWorkletsModuleProxy3getERN8facebook3jsi7RuntimeERKNS5_10PropNameIDEE4$_26NS_9allocatorISB_EEFNS5_5ValueES7_RKSE_PSF_mEE18destroy_deallocateEv', symObjAddr: 0x7D2C, symBinAddr: 0x171BC, symSize: 0x4 }
  - { offset: 0xF31EA, size: 0x8, addend: 0x0, symName: '__ZNSt3__110__function6__funcIZN8worklets22JSIWorkletsModuleProxy3getERN8facebook3jsi7RuntimeERKNS5_10PropNameIDEE4$_26NS_9allocatorISB_EEFNS5_5ValueES7_RKSE_PSF_mEE18destroy_deallocateEv', symObjAddr: 0x7D2C, symBinAddr: 0x171BC, symSize: 0x4 }
  - { offset: 0xF321B, size: 0x8, addend: 0x0, symName: '__ZNSt3__110__function6__funcIZN8worklets22JSIWorkletsModuleProxy3getERN8facebook3jsi7RuntimeERKNS5_10PropNameIDEE4$_26NS_9allocatorISB_EEFNS5_5ValueES7_RKSE_PSF_mEE18destroy_deallocateEv', symObjAddr: 0x7D2C, symBinAddr: 0x171BC, symSize: 0x4 }
  - { offset: 0xF3349, size: 0x8, addend: 0x0, symName: '__ZNSt3__110__function6__funcIZN8worklets22JSIWorkletsModuleProxy3getERN8facebook3jsi7RuntimeERKNS5_10PropNameIDEE4$_26NS_9allocatorISB_EEFNS5_5ValueES7_RKSE_PSF_mEEclES7_SG_OSH_Om', symObjAddr: 0x7D30, symBinAddr: 0x171C0, symSize: 0x90 }
  - { offset: 0xF35E0, size: 0x8, addend: 0x0, symName: '__ZNKSt3__110__function6__funcIZN8worklets22JSIWorkletsModuleProxy3getERN8facebook3jsi7RuntimeERKNS5_10PropNameIDEE4$_26NS_9allocatorISB_EEFNS5_5ValueES7_RKSE_PSF_mEE6targetERKSt9type_info', symObjAddr: 0x7DC0, symBinAddr: 0x17250, symSize: 0x3C }
  - { offset: 0xF362D, size: 0x8, addend: 0x0, symName: '__ZNKSt3__110__function6__funcIZN8worklets22JSIWorkletsModuleProxy3getERN8facebook3jsi7RuntimeERKNS5_10PropNameIDEE4$_26NS_9allocatorISB_EEFNS5_5ValueES7_RKSE_PSF_mEE11target_typeEv', symObjAddr: 0x7DFC, symBinAddr: 0x1728C, symSize: 0xC }
  - { offset: 0xF3650, size: 0x8, addend: 0x0, symName: '__ZNSt3__110__function6__funcIZN8worklets22JSIWorkletsModuleProxy3getERN8facebook3jsi7RuntimeERKNS5_10PropNameIDEE4$_27NS_9allocatorISB_EEFNS5_5ValueES7_RKSE_PSF_mEED1Ev', symObjAddr: 0x7E08, symBinAddr: 0x17298, symSize: 0x4 }
  - { offset: 0xF367C, size: 0x8, addend: 0x0, symName: '__ZNSt3__110__function6__funcIZN8worklets22JSIWorkletsModuleProxy3getERN8facebook3jsi7RuntimeERKNS5_10PropNameIDEE4$_27NS_9allocatorISB_EEFNS5_5ValueES7_RKSE_PSF_mEED0Ev', symObjAddr: 0x7E0C, symBinAddr: 0x1729C, symSize: 0x4 }
  - { offset: 0xF3732, size: 0x8, addend: 0x0, symName: '__ZNKSt3__110__function6__funcIZN8worklets22JSIWorkletsModuleProxy3getERN8facebook3jsi7RuntimeERKNS5_10PropNameIDEE4$_27NS_9allocatorISB_EEFNS5_5ValueES7_RKSE_PSF_mEE7__cloneEv', symObjAddr: 0x7E10, symBinAddr: 0x172A0, symSize: 0x24 }
  - { offset: 0xF387A, size: 0x8, addend: 0x0, symName: '__ZNKSt3__110__function6__funcIZN8worklets22JSIWorkletsModuleProxy3getERN8facebook3jsi7RuntimeERKNS5_10PropNameIDEE4$_27NS_9allocatorISB_EEFNS5_5ValueES7_RKSE_PSF_mEE7__cloneEPNS0_6__baseISI_EE', symObjAddr: 0x7E34, symBinAddr: 0x172C4, symSize: 0x10 }
  - { offset: 0xF38AE, size: 0x8, addend: 0x0, symName: '__ZNKSt3__110__function6__funcIZN8worklets22JSIWorkletsModuleProxy3getERN8facebook3jsi7RuntimeERKNS5_10PropNameIDEE4$_27NS_9allocatorISB_EEFNS5_5ValueES7_RKSE_PSF_mEE7__cloneEPNS0_6__baseISI_EE', symObjAddr: 0x7E34, symBinAddr: 0x172C4, symSize: 0x10 }
  - { offset: 0xF38CA, size: 0x8, addend: 0x0, symName: '__ZNKSt3__110__function6__funcIZN8worklets22JSIWorkletsModuleProxy3getERN8facebook3jsi7RuntimeERKNS5_10PropNameIDEE4$_27NS_9allocatorISB_EEFNS5_5ValueES7_RKSE_PSF_mEE7__cloneEPNS0_6__baseISI_EE', symObjAddr: 0x7E34, symBinAddr: 0x172C4, symSize: 0x10 }
  - { offset: 0xF38E6, size: 0x8, addend: 0x0, symName: '__ZNSt3__110__function6__funcIZN8worklets22JSIWorkletsModuleProxy3getERN8facebook3jsi7RuntimeERKNS5_10PropNameIDEE4$_27NS_9allocatorISB_EEFNS5_5ValueES7_RKSE_PSF_mEE7destroyEv', symObjAddr: 0x7E44, symBinAddr: 0x172D4, symSize: 0x4 }
  - { offset: 0xF393A, size: 0x8, addend: 0x0, symName: '__ZNSt3__110__function6__funcIZN8worklets22JSIWorkletsModuleProxy3getERN8facebook3jsi7RuntimeERKNS5_10PropNameIDEE4$_27NS_9allocatorISB_EEFNS5_5ValueES7_RKSE_PSF_mEE18destroy_deallocateEv', symObjAddr: 0x7E48, symBinAddr: 0x172D8, symSize: 0x4 }
  - { offset: 0xF396E, size: 0x8, addend: 0x0, symName: '__ZNSt3__110__function6__funcIZN8worklets22JSIWorkletsModuleProxy3getERN8facebook3jsi7RuntimeERKNS5_10PropNameIDEE4$_27NS_9allocatorISB_EEFNS5_5ValueES7_RKSE_PSF_mEE18destroy_deallocateEv', symObjAddr: 0x7E48, symBinAddr: 0x172D8, symSize: 0x4 }
  - { offset: 0xF3990, size: 0x8, addend: 0x0, symName: '__ZNSt3__110__function6__funcIZN8worklets22JSIWorkletsModuleProxy3getERN8facebook3jsi7RuntimeERKNS5_10PropNameIDEE4$_27NS_9allocatorISB_EEFNS5_5ValueES7_RKSE_PSF_mEE18destroy_deallocateEv', symObjAddr: 0x7E48, symBinAddr: 0x172D8, symSize: 0x4 }
  - { offset: 0xF39C1, size: 0x8, addend: 0x0, symName: '__ZNSt3__110__function6__funcIZN8worklets22JSIWorkletsModuleProxy3getERN8facebook3jsi7RuntimeERKNS5_10PropNameIDEE4$_27NS_9allocatorISB_EEFNS5_5ValueES7_RKSE_PSF_mEE18destroy_deallocateEv', symObjAddr: 0x7E48, symBinAddr: 0x172D8, symSize: 0x4 }
  - { offset: 0xF3AEF, size: 0x8, addend: 0x0, symName: '__ZNSt3__110__function6__funcIZN8worklets22JSIWorkletsModuleProxy3getERN8facebook3jsi7RuntimeERKNS5_10PropNameIDEE4$_27NS_9allocatorISB_EEFNS5_5ValueES7_RKSE_PSF_mEEclES7_SG_OSH_Om', symObjAddr: 0x7E4C, symBinAddr: 0x172DC, symSize: 0x90 }
  - { offset: 0xF3D86, size: 0x8, addend: 0x0, symName: '__ZNKSt3__110__function6__funcIZN8worklets22JSIWorkletsModuleProxy3getERN8facebook3jsi7RuntimeERKNS5_10PropNameIDEE4$_27NS_9allocatorISB_EEFNS5_5ValueES7_RKSE_PSF_mEE6targetERKSt9type_info', symObjAddr: 0x7EDC, symBinAddr: 0x1736C, symSize: 0x3C }
  - { offset: 0xF3DD3, size: 0x8, addend: 0x0, symName: '__ZNKSt3__110__function6__funcIZN8worklets22JSIWorkletsModuleProxy3getERN8facebook3jsi7RuntimeERKNS5_10PropNameIDEE4$_27NS_9allocatorISB_EEFNS5_5ValueES7_RKSE_PSF_mEE11target_typeEv', symObjAddr: 0x7F18, symBinAddr: 0x173A8, symSize: 0xC }
  - { offset: 0xF3DF6, size: 0x8, addend: 0x0, symName: '__ZNSt3__110__function6__funcIZN8worklets22JSIWorkletsModuleProxy3getERN8facebook3jsi7RuntimeERKNS5_10PropNameIDEE4$_28NS_9allocatorISB_EEFNS5_5ValueES7_RKSE_PSF_mEED1Ev', symObjAddr: 0x7F24, symBinAddr: 0x173B4, symSize: 0x4 }
  - { offset: 0xF3E22, size: 0x8, addend: 0x0, symName: '__ZNSt3__110__function6__funcIZN8worklets22JSIWorkletsModuleProxy3getERN8facebook3jsi7RuntimeERKNS5_10PropNameIDEE4$_28NS_9allocatorISB_EEFNS5_5ValueES7_RKSE_PSF_mEED0Ev', symObjAddr: 0x7F28, symBinAddr: 0x173B8, symSize: 0x4 }
  - { offset: 0xF3ED8, size: 0x8, addend: 0x0, symName: '__ZNKSt3__110__function6__funcIZN8worklets22JSIWorkletsModuleProxy3getERN8facebook3jsi7RuntimeERKNS5_10PropNameIDEE4$_28NS_9allocatorISB_EEFNS5_5ValueES7_RKSE_PSF_mEE7__cloneEv', symObjAddr: 0x7F2C, symBinAddr: 0x173BC, symSize: 0x24 }
  - { offset: 0xF4020, size: 0x8, addend: 0x0, symName: '__ZNKSt3__110__function6__funcIZN8worklets22JSIWorkletsModuleProxy3getERN8facebook3jsi7RuntimeERKNS5_10PropNameIDEE4$_28NS_9allocatorISB_EEFNS5_5ValueES7_RKSE_PSF_mEE7__cloneEPNS0_6__baseISI_EE', symObjAddr: 0x7F50, symBinAddr: 0x173E0, symSize: 0x10 }
  - { offset: 0xF4054, size: 0x8, addend: 0x0, symName: '__ZNKSt3__110__function6__funcIZN8worklets22JSIWorkletsModuleProxy3getERN8facebook3jsi7RuntimeERKNS5_10PropNameIDEE4$_28NS_9allocatorISB_EEFNS5_5ValueES7_RKSE_PSF_mEE7__cloneEPNS0_6__baseISI_EE', symObjAddr: 0x7F50, symBinAddr: 0x173E0, symSize: 0x10 }
  - { offset: 0xF4070, size: 0x8, addend: 0x0, symName: '__ZNKSt3__110__function6__funcIZN8worklets22JSIWorkletsModuleProxy3getERN8facebook3jsi7RuntimeERKNS5_10PropNameIDEE4$_28NS_9allocatorISB_EEFNS5_5ValueES7_RKSE_PSF_mEE7__cloneEPNS0_6__baseISI_EE', symObjAddr: 0x7F50, symBinAddr: 0x173E0, symSize: 0x10 }
  - { offset: 0xF408C, size: 0x8, addend: 0x0, symName: '__ZNSt3__110__function6__funcIZN8worklets22JSIWorkletsModuleProxy3getERN8facebook3jsi7RuntimeERKNS5_10PropNameIDEE4$_28NS_9allocatorISB_EEFNS5_5ValueES7_RKSE_PSF_mEE7destroyEv', symObjAddr: 0x7F60, symBinAddr: 0x173F0, symSize: 0x4 }
  - { offset: 0xF40E0, size: 0x8, addend: 0x0, symName: '__ZNSt3__110__function6__funcIZN8worklets22JSIWorkletsModuleProxy3getERN8facebook3jsi7RuntimeERKNS5_10PropNameIDEE4$_28NS_9allocatorISB_EEFNS5_5ValueES7_RKSE_PSF_mEE18destroy_deallocateEv', symObjAddr: 0x7F64, symBinAddr: 0x173F4, symSize: 0x4 }
  - { offset: 0xF4114, size: 0x8, addend: 0x0, symName: '__ZNSt3__110__function6__funcIZN8worklets22JSIWorkletsModuleProxy3getERN8facebook3jsi7RuntimeERKNS5_10PropNameIDEE4$_28NS_9allocatorISB_EEFNS5_5ValueES7_RKSE_PSF_mEE18destroy_deallocateEv', symObjAddr: 0x7F64, symBinAddr: 0x173F4, symSize: 0x4 }
  - { offset: 0xF4136, size: 0x8, addend: 0x0, symName: '__ZNSt3__110__function6__funcIZN8worklets22JSIWorkletsModuleProxy3getERN8facebook3jsi7RuntimeERKNS5_10PropNameIDEE4$_28NS_9allocatorISB_EEFNS5_5ValueES7_RKSE_PSF_mEE18destroy_deallocateEv', symObjAddr: 0x7F64, symBinAddr: 0x173F4, symSize: 0x4 }
  - { offset: 0xF4167, size: 0x8, addend: 0x0, symName: '__ZNSt3__110__function6__funcIZN8worklets22JSIWorkletsModuleProxy3getERN8facebook3jsi7RuntimeERKNS5_10PropNameIDEE4$_28NS_9allocatorISB_EEFNS5_5ValueES7_RKSE_PSF_mEE18destroy_deallocateEv', symObjAddr: 0x7F64, symBinAddr: 0x173F4, symSize: 0x4 }
  - { offset: 0xF429E, size: 0x8, addend: 0x0, symName: '__ZNSt3__110__function6__funcIZN8worklets22JSIWorkletsModuleProxy3getERN8facebook3jsi7RuntimeERKNS5_10PropNameIDEE4$_28NS_9allocatorISB_EEFNS5_5ValueES7_RKSE_PSF_mEEclES7_SG_OSH_Om', symObjAddr: 0x7F68, symBinAddr: 0x173F8, symSize: 0xE8 }
  - { offset: 0xF47C6, size: 0x8, addend: 0x0, symName: __ZN8worklets18StaticFeatureFlags7getFlagERKNSt3__117basic_string_viewIcNS1_11char_traitsIcEEEE, symObjAddr: 0x8098, symBinAddr: 0x17528, symSize: 0x36C }
  - { offset: 0xF57A2, size: 0x8, addend: 0x0, symName: '__ZNKSt3__110__function6__funcIZN8worklets22JSIWorkletsModuleProxy3getERN8facebook3jsi7RuntimeERKNS5_10PropNameIDEE4$_28NS_9allocatorISB_EEFNS5_5ValueES7_RKSE_PSF_mEE6targetERKSt9type_info', symObjAddr: 0x8050, symBinAddr: 0x174E0, symSize: 0x3C }
  - { offset: 0xF57EF, size: 0x8, addend: 0x0, symName: '__ZNKSt3__110__function6__funcIZN8worklets22JSIWorkletsModuleProxy3getERN8facebook3jsi7RuntimeERKNS5_10PropNameIDEE4$_28NS_9allocatorISB_EEFNS5_5ValueES7_RKSE_PSF_mEE11target_typeEv', symObjAddr: 0x808C, symBinAddr: 0x1751C, symSize: 0xC }
  - { offset: 0xF58C9, size: 0x8, addend: 0x0, symName: '__ZNSt3__110__function6__funcIZN8worklets22JSIWorkletsModuleProxy3getERN8facebook3jsi7RuntimeERKNS5_10PropNameIDEE4$_29NS_9allocatorISB_EEFNS5_5ValueES7_RKSE_PSF_mEED1Ev', symObjAddr: 0x8404, symBinAddr: 0x17894, symSize: 0x4 }
  - { offset: 0xF58F5, size: 0x8, addend: 0x0, symName: '__ZNSt3__110__function6__funcIZN8worklets22JSIWorkletsModuleProxy3getERN8facebook3jsi7RuntimeERKNS5_10PropNameIDEE4$_29NS_9allocatorISB_EEFNS5_5ValueES7_RKSE_PSF_mEED0Ev', symObjAddr: 0x8408, symBinAddr: 0x17898, symSize: 0x4 }
  - { offset: 0xF59AB, size: 0x8, addend: 0x0, symName: '__ZNKSt3__110__function6__funcIZN8worklets22JSIWorkletsModuleProxy3getERN8facebook3jsi7RuntimeERKNS5_10PropNameIDEE4$_29NS_9allocatorISB_EEFNS5_5ValueES7_RKSE_PSF_mEE7__cloneEv', symObjAddr: 0x840C, symBinAddr: 0x1789C, symSize: 0x24 }
  - { offset: 0xF5AF3, size: 0x8, addend: 0x0, symName: '__ZNKSt3__110__function6__funcIZN8worklets22JSIWorkletsModuleProxy3getERN8facebook3jsi7RuntimeERKNS5_10PropNameIDEE4$_29NS_9allocatorISB_EEFNS5_5ValueES7_RKSE_PSF_mEE7__cloneEPNS0_6__baseISI_EE', symObjAddr: 0x8430, symBinAddr: 0x178C0, symSize: 0x10 }
  - { offset: 0xF5B27, size: 0x8, addend: 0x0, symName: '__ZNKSt3__110__function6__funcIZN8worklets22JSIWorkletsModuleProxy3getERN8facebook3jsi7RuntimeERKNS5_10PropNameIDEE4$_29NS_9allocatorISB_EEFNS5_5ValueES7_RKSE_PSF_mEE7__cloneEPNS0_6__baseISI_EE', symObjAddr: 0x8430, symBinAddr: 0x178C0, symSize: 0x10 }
  - { offset: 0xF5B43, size: 0x8, addend: 0x0, symName: '__ZNKSt3__110__function6__funcIZN8worklets22JSIWorkletsModuleProxy3getERN8facebook3jsi7RuntimeERKNS5_10PropNameIDEE4$_29NS_9allocatorISB_EEFNS5_5ValueES7_RKSE_PSF_mEE7__cloneEPNS0_6__baseISI_EE', symObjAddr: 0x8430, symBinAddr: 0x178C0, symSize: 0x10 }
  - { offset: 0xF5B5F, size: 0x8, addend: 0x0, symName: '__ZNSt3__110__function6__funcIZN8worklets22JSIWorkletsModuleProxy3getERN8facebook3jsi7RuntimeERKNS5_10PropNameIDEE4$_29NS_9allocatorISB_EEFNS5_5ValueES7_RKSE_PSF_mEE7destroyEv', symObjAddr: 0x8440, symBinAddr: 0x178D0, symSize: 0x4 }
  - { offset: 0xF5BB3, size: 0x8, addend: 0x0, symName: '__ZNSt3__110__function6__funcIZN8worklets22JSIWorkletsModuleProxy3getERN8facebook3jsi7RuntimeERKNS5_10PropNameIDEE4$_29NS_9allocatorISB_EEFNS5_5ValueES7_RKSE_PSF_mEE18destroy_deallocateEv', symObjAddr: 0x8444, symBinAddr: 0x178D4, symSize: 0x4 }
  - { offset: 0xF5BE7, size: 0x8, addend: 0x0, symName: '__ZNSt3__110__function6__funcIZN8worklets22JSIWorkletsModuleProxy3getERN8facebook3jsi7RuntimeERKNS5_10PropNameIDEE4$_29NS_9allocatorISB_EEFNS5_5ValueES7_RKSE_PSF_mEE18destroy_deallocateEv', symObjAddr: 0x8444, symBinAddr: 0x178D4, symSize: 0x4 }
  - { offset: 0xF5C09, size: 0x8, addend: 0x0, symName: '__ZNSt3__110__function6__funcIZN8worklets22JSIWorkletsModuleProxy3getERN8facebook3jsi7RuntimeERKNS5_10PropNameIDEE4$_29NS_9allocatorISB_EEFNS5_5ValueES7_RKSE_PSF_mEE18destroy_deallocateEv', symObjAddr: 0x8444, symBinAddr: 0x178D4, symSize: 0x4 }
  - { offset: 0xF5C3A, size: 0x8, addend: 0x0, symName: '__ZNSt3__110__function6__funcIZN8worklets22JSIWorkletsModuleProxy3getERN8facebook3jsi7RuntimeERKNS5_10PropNameIDEE4$_29NS_9allocatorISB_EEFNS5_5ValueES7_RKSE_PSF_mEE18destroy_deallocateEv', symObjAddr: 0x8444, symBinAddr: 0x178D4, symSize: 0x4 }
  - { offset: 0xF5D5B, size: 0x8, addend: 0x0, symName: '__ZNSt3__110__function6__funcIZN8worklets22JSIWorkletsModuleProxy3getERN8facebook3jsi7RuntimeERKNS5_10PropNameIDEE4$_29NS_9allocatorISB_EEFNS5_5ValueES7_RKSE_PSF_mEEclES7_SG_OSH_Om', symObjAddr: 0x8448, symBinAddr: 0x178D8, symSize: 0xCC }
  - { offset: 0xF61F3, size: 0x8, addend: 0x0, symName: '__ZNKSt3__110__function6__funcIZN8worklets22JSIWorkletsModuleProxy3getERN8facebook3jsi7RuntimeERKNS5_10PropNameIDEE4$_29NS_9allocatorISB_EEFNS5_5ValueES7_RKSE_PSF_mEE6targetERKSt9type_info', symObjAddr: 0x8514, symBinAddr: 0x179A4, symSize: 0x3C }
  - { offset: 0xF6240, size: 0x8, addend: 0x0, symName: '__ZNKSt3__110__function6__funcIZN8worklets22JSIWorkletsModuleProxy3getERN8facebook3jsi7RuntimeERKNS5_10PropNameIDEE4$_29NS_9allocatorISB_EEFNS5_5ValueES7_RKSE_PSF_mEE11target_typeEv', symObjAddr: 0x8550, symBinAddr: 0x179E0, symSize: 0xC }
  - { offset: 0xF8ACB, size: 0x8, addend: 0x0, symName: __ZNK8worklets8JSLogger8warnOnJSERKNSt3__112basic_stringIcNS1_11char_traitsIcEENS1_9allocatorIcEEEE, symObjAddr: 0x0, symBinAddr: 0x179EC, symSize: 0x4 }
  - { offset: 0x100377, size: 0x8, addend: 0x0, symName: __ZN8worklets8JSLogger20reportFatalErrorOnJSERKNSt3__110shared_ptrINS_11JSSchedulerEEEONS_11JSErrorDataEb, symObjAddr: 0x4, symBinAddr: 0x179F0, symSize: 0x3B4 }
  - { offset: 0x101CFB, size: 0x8, addend: 0x0, symName: __ZNK8worklets8JSLogger8warnOnJSERKNSt3__112basic_stringIcNS1_11char_traitsIcEENS1_9allocatorIcEEEE, symObjAddr: 0x0, symBinAddr: 0x179EC, symSize: 0x4 }
  - { offset: 0x102300, size: 0x8, addend: 0x0, symName: __ZN8worklets11JSErrorDataC2ERKS0_, symObjAddr: 0x8F8, symBinAddr: 0x181E0, symSize: 0x110 }
  - { offset: 0x102DDA, size: 0x8, addend: 0x0, symName: __ZN8worklets8JSLogger20reportFatalErrorOnJSERN8facebook3jsi7RuntimeERKNS_11JSErrorDataEb, symObjAddr: 0x418, symBinAddr: 0x17DA4, symSize: 0x43C }
  - { offset: 0x1041AC, size: 0x8, addend: 0x0, symName: '__ZNSt3__110__function6__funcIZN8worklets8JSLogger20reportFatalErrorOnJSERKNS_10shared_ptrINS2_11JSSchedulerEEEONS2_11JSErrorDataEbE3$_0NS_9allocatorISB_EEFvRN8facebook3jsi7RuntimeEEED1Ev', symObjAddr: 0xB10, symBinAddr: 0x182F0, symSize: 0x6C }
  - { offset: 0x1046D8, size: 0x8, addend: 0x0, symName: '__ZNSt3__110__function6__funcIZN8worklets8JSLogger20reportFatalErrorOnJSERKNS_10shared_ptrINS2_11JSSchedulerEEEONS2_11JSErrorDataEbE3$_0NS_9allocatorISB_EEFvRN8facebook3jsi7RuntimeEEED0Ev', symObjAddr: 0xB7C, symBinAddr: 0x1835C, symSize: 0x6C }
  - { offset: 0x104DEC, size: 0x8, addend: 0x0, symName: '__ZNKSt3__110__function6__funcIZN8worklets8JSLogger20reportFatalErrorOnJSERKNS_10shared_ptrINS2_11JSSchedulerEEEONS2_11JSErrorDataEbE3$_0NS_9allocatorISB_EEFvRN8facebook3jsi7RuntimeEEE7__cloneEv', symObjAddr: 0xBE8, symBinAddr: 0x183C8, symSize: 0x64 }
  - { offset: 0x10514D, size: 0x8, addend: 0x0, symName: '__ZNKSt3__110__function6__funcIZN8worklets8JSLogger20reportFatalErrorOnJSERKNS_10shared_ptrINS2_11JSSchedulerEEEONS2_11JSErrorDataEbE3$_0NS_9allocatorISB_EEFvRN8facebook3jsi7RuntimeEEE7__cloneEPNS0_6__baseISI_EE', symObjAddr: 0xC4C, symBinAddr: 0x1842C, symSize: 0x48 }
  - { offset: 0x10526D, size: 0x8, addend: 0x0, symName: '__ZNSt3__110__function6__funcIZN8worklets8JSLogger20reportFatalErrorOnJSERKNS_10shared_ptrINS2_11JSSchedulerEEEONS2_11JSErrorDataEbE3$_0NS_9allocatorISB_EEFvRN8facebook3jsi7RuntimeEEE7destroyEv', symObjAddr: 0xC94, symBinAddr: 0x18474, symSize: 0x8 }
  - { offset: 0x1052A2, size: 0x8, addend: 0x0, symName: '__ZNSt3__110__function12__alloc_funcIZN8worklets8JSLogger20reportFatalErrorOnJSERKNS_10shared_ptrINS2_11JSSchedulerEEEONS2_11JSErrorDataEbE3$_0NS_9allocatorISB_EEFvRN8facebook3jsi7RuntimeEEE7destroyB8ne200100Ev', symObjAddr: 0xD20, symBinAddr: 0x18500, symSize: 0x64 }
  - { offset: 0x105721, size: 0x8, addend: 0x0, symName: '__ZNSt3__110__function6__funcIZN8worklets8JSLogger20reportFatalErrorOnJSERKNS_10shared_ptrINS2_11JSSchedulerEEEONS2_11JSErrorDataEbE3$_0NS_9allocatorISB_EEFvRN8facebook3jsi7RuntimeEEE18destroy_deallocateEv', symObjAddr: 0xC9C, symBinAddr: 0x1847C, symSize: 0x28 }
  - { offset: 0x10586D, size: 0x8, addend: 0x0, symName: '__ZNSt3__110__function6__funcIZN8worklets8JSLogger20reportFatalErrorOnJSERKNS_10shared_ptrINS2_11JSSchedulerEEEONS2_11JSErrorDataEbE3$_0NS_9allocatorISB_EEFvRN8facebook3jsi7RuntimeEEEclESH_', symObjAddr: 0xCC4, symBinAddr: 0x184A4, symSize: 0x14 }
  - { offset: 0x105926, size: 0x8, addend: 0x0, symName: '__ZNKSt3__110__function6__funcIZN8worklets8JSLogger20reportFatalErrorOnJSERKNS_10shared_ptrINS2_11JSSchedulerEEEONS2_11JSErrorDataEbE3$_0NS_9allocatorISB_EEFvRN8facebook3jsi7RuntimeEEE6targetERKSt9type_info', symObjAddr: 0xCD8, symBinAddr: 0x184B8, symSize: 0x3C }
  - { offset: 0x1059D9, size: 0x8, addend: 0x0, symName: '__ZNKSt3__110__function6__funcIZN8worklets8JSLogger20reportFatalErrorOnJSERKNS_10shared_ptrINS2_11JSSchedulerEEEONS2_11JSErrorDataEbE3$_0NS_9allocatorISB_EEFvRN8facebook3jsi7RuntimeEEE11target_typeEv', symObjAddr: 0xD14, symBinAddr: 0x184F4, symSize: 0xC }
  - { offset: 0x10E4C8, size: 0x8, addend: 0x0, symName: __ZN8worklets11JSScheduler12scheduleOnJSENSt3__18functionIFvRN8facebook3jsi7RuntimeEEEE, symObjAddr: 0x0, symBinAddr: 0x18564, symSize: 0x13C }
  - { offset: 0x10EFAD, size: 0x8, addend: 0x0, symName: __ZN8worklets11JSScheduler17canInvokeSyncOnJSEv, symObjAddr: 0x13C, symBinAddr: 0x186A0, symSize: 0x20 }
  - { offset: 0x10EFD8, size: 0x8, addend: 0x0, symName: __ZN8worklets11JSScheduler17canInvokeSyncOnJSEv, symObjAddr: 0x13C, symBinAddr: 0x186A0, symSize: 0x20 }
  - { offset: 0x10EFF6, size: 0x8, addend: 0x0, symName: __ZN8worklets11JSScheduler17canInvokeSyncOnJSEv, symObjAddr: 0x13C, symBinAddr: 0x186A0, symSize: 0x20 }
  - { offset: 0x10F024, size: 0x8, addend: 0x0, symName: __ZN8worklets11JSScheduler14invokeSyncOnJSENSt3__18functionIFvRN8facebook3jsi7RuntimeEEEE, symObjAddr: 0x15C, symBinAddr: 0x186C0, symSize: 0x28 }
  - { offset: 0x10F07F, size: 0x8, addend: 0x0, symName: __ZN8worklets11JSScheduler14invokeSyncOnJSENSt3__18functionIFvRN8facebook3jsi7RuntimeEEEE, symObjAddr: 0x15C, symBinAddr: 0x186C0, symSize: 0x28 }
  - { offset: 0x10F1A5, size: 0x8, addend: 0x0, symName: '__ZNSt3__110__function6__funcIZN8worklets11JSScheduler12scheduleOnJSENS_8functionIFvRN8facebook3jsi7RuntimeEEEEE3$_0NS_9allocatorISB_EEFvvEED1Ev', symObjAddr: 0x244, symBinAddr: 0x186E8, symSize: 0x58 }
  - { offset: 0x10F30A, size: 0x8, addend: 0x0, symName: '__ZNSt3__110__function6__funcIZN8worklets11JSScheduler12scheduleOnJSENS_8functionIFvRN8facebook3jsi7RuntimeEEEEE3$_0NS_9allocatorISB_EEFvvEED0Ev', symObjAddr: 0x29C, symBinAddr: 0x18740, symSize: 0x58 }
  - { offset: 0x10F70F, size: 0x8, addend: 0x0, symName: '__ZNKSt3__110__function6__funcIZN8worklets11JSScheduler12scheduleOnJSENS_8functionIFvRN8facebook3jsi7RuntimeEEEEE3$_0NS_9allocatorISB_EEFvvEE7__cloneEv', symObjAddr: 0x2F4, symBinAddr: 0x18798, symSize: 0x5C }
  - { offset: 0x10FAAF, size: 0x8, addend: 0x0, symName: '__ZNKSt3__110__function6__funcIZN8worklets11JSScheduler12scheduleOnJSENS_8functionIFvRN8facebook3jsi7RuntimeEEEEE3$_0NS_9allocatorISB_EEFvvEE7__cloneEPNS0_6__baseISE_EE', symObjAddr: 0x350, symBinAddr: 0x187F4, symSize: 0x40 }
  - { offset: 0x10FBD3, size: 0x8, addend: 0x0, symName: '__ZNSt3__110__function6__funcIZN8worklets11JSScheduler12scheduleOnJSENS_8functionIFvRN8facebook3jsi7RuntimeEEEEE3$_0NS_9allocatorISB_EEFvvEE7destroyEv', symObjAddr: 0x390, symBinAddr: 0x18834, symSize: 0x30 }
  - { offset: 0x10FCE3, size: 0x8, addend: 0x0, symName: '__ZNSt3__110__function6__funcIZN8worklets11JSScheduler12scheduleOnJSENS_8functionIFvRN8facebook3jsi7RuntimeEEEEE3$_0NS_9allocatorISB_EEFvvEE18destroy_deallocateEv', symObjAddr: 0x3C0, symBinAddr: 0x18864, symSize: 0x4C }
  - { offset: 0x10FEE4, size: 0x8, addend: 0x0, symName: '__ZNSt3__110__function6__funcIZN8worklets11JSScheduler12scheduleOnJSENS_8functionIFvRN8facebook3jsi7RuntimeEEEEE3$_0NS_9allocatorISB_EEFvvEEclEv', symObjAddr: 0x40C, symBinAddr: 0x188B0, symSize: 0x28 }
  - { offset: 0x10FFFC, size: 0x8, addend: 0x0, symName: '__ZNKSt3__110__function6__funcIZN8worklets11JSScheduler12scheduleOnJSENS_8functionIFvRN8facebook3jsi7RuntimeEEEEE3$_0NS_9allocatorISB_EEFvvEE6targetERKSt9type_info', symObjAddr: 0x434, symBinAddr: 0x188D8, symSize: 0x3C }
  - { offset: 0x110007, size: 0x8, addend: 0x0, symName: '__ZNKSt3__110__function6__funcIZN8worklets11JSScheduler12scheduleOnJSENS_8functionIFvRN8facebook3jsi7RuntimeEEEEE3$_0NS_9allocatorISB_EEFvvEE6targetERKSt9type_info', symObjAddr: 0x434, symBinAddr: 0x188D8, symSize: 0x3C }
  - { offset: 0x1100BA, size: 0x8, addend: 0x0, symName: '__ZNKSt3__110__function6__funcIZN8worklets11JSScheduler12scheduleOnJSENS_8functionIFvRN8facebook3jsi7RuntimeEEEEE3$_0NS_9allocatorISB_EEFvvEE11target_typeEv', symObjAddr: 0x470, symBinAddr: 0x18914, symSize: 0xC }
  - { offset: 0x112018, size: 0x8, addend: 0x0, symName: __ZN8worklets14PlatformLogger3logEPKc, symObjAddr: 0x0, symBinAddr: 0x18920, symSize: 0x70 }
  - { offset: 0x114D62, size: 0x8, addend: 0x0, symName: __ZN8worklets14PlatformLogger3logEPKc, symObjAddr: 0x0, symBinAddr: 0x18920, symSize: 0x70 }
  - { offset: 0x114E5E, size: 0x8, addend: 0x0, symName: __ZN8worklets14PlatformLogger3logERKNSt3__112basic_stringIcNS1_11char_traitsIcEENS1_9allocatorIcEEEE, symObjAddr: 0x70, symBinAddr: 0x18990, symSize: 0x14 }
  - { offset: 0x114E87, size: 0x8, addend: 0x0, symName: __ZN8worklets14PlatformLogger3logERKNSt3__112basic_stringIcNS1_11char_traitsIcEENS1_9allocatorIcEEEE, symObjAddr: 0x70, symBinAddr: 0x18990, symSize: 0x14 }
  - { offset: 0x114EA2, size: 0x8, addend: 0x0, symName: __ZN8worklets14PlatformLogger3logERKNSt3__112basic_stringIcNS1_11char_traitsIcEENS1_9allocatorIcEEEE, symObjAddr: 0x70, symBinAddr: 0x18990, symSize: 0x14 }
  - { offset: 0x114EBE, size: 0x8, addend: 0x0, symName: __ZN8worklets14PlatformLogger3logERKNSt3__112basic_stringIcNS1_11char_traitsIcEENS1_9allocatorIcEEEE, symObjAddr: 0x70, symBinAddr: 0x18990, symSize: 0x14 }
  - { offset: 0x114EDA, size: 0x8, addend: 0x0, symName: __ZN8worklets14PlatformLogger3logERKNSt3__112basic_stringIcNS1_11char_traitsIcEENS1_9allocatorIcEEEE, symObjAddr: 0x70, symBinAddr: 0x18990, symSize: 0x14 }
  - { offset: 0x114F06, size: 0x8, addend: 0x0, symName: __ZN8worklets14PlatformLogger3logEd, symObjAddr: 0x84, symBinAddr: 0x189A4, symSize: 0x28 }
  - { offset: 0x114F3B, size: 0x8, addend: 0x0, symName: __ZN8worklets14PlatformLogger3logEi, symObjAddr: 0xAC, symBinAddr: 0x189CC, symSize: 0x28 }
  - { offset: 0x114F70, size: 0x8, addend: 0x0, symName: __ZN8worklets14PlatformLogger3logEb, symObjAddr: 0xD4, symBinAddr: 0x189F4, symSize: 0x1C }
  - { offset: 0x11E98C, size: 0x8, addend: 0x0, symName: __ZNSt3__115allocate_sharedB8ne200100IN8worklets23WorkletRuntimeCollectorENS_9allocatorIS2_EEJRN8facebook3jsi7RuntimeEELi0EEENS_10shared_ptrIT_EERKT0_DpOT1_, symObjAddr: 0x61C, symBinAddr: 0x18E48, symSize: 0x58 }
  - { offset: 0x1219E5, size: 0x8, addend: 0x0, symName: __ZN8worklets25RNRuntimeWorkletDecorator8decorateERN8facebook3jsi7RuntimeEONS2_6ObjectERKNSt3__110shared_ptrINS_8JSLoggerEEE, symObjAddr: 0x0, symBinAddr: 0x18A10, symSize: 0x174 }
  - { offset: 0x121D42, size: 0x8, addend: 0x0, symName: __ZNK8facebook3jsi6Object11setPropertyIiEEvRNS0_7RuntimeEPKcOT_, symObjAddr: 0x174, symBinAddr: 0x18B84, symSize: 0xA4 }
  - { offset: 0x122068, size: 0x8, addend: 0x0, symName: __ZNK8facebook3jsi6Object11setPropertyIS1_EEvRNS0_7RuntimeEPKcOT_, symObjAddr: 0x2BC, symBinAddr: 0x18C28, symSize: 0xA4 }
  - { offset: 0x122248, size: 0x8, addend: 0x0, symName: __ZN8worklets23WorkletRuntimeCollector7installERN8facebook3jsi7RuntimeE, symObjAddr: 0x360, symBinAddr: 0x18CCC, symSize: 0x17C }
  - { offset: 0x1227B8, size: 0x8, addend: 0x0, symName: __ZNK8facebook3jsi6Object11setPropertyIiEEvRNS0_7RuntimeERKNS0_6StringEOT_, symObjAddr: 0x1148, symBinAddr: 0x1926C, symSize: 0x6C }
  - { offset: 0x122FC4, size: 0x8, addend: 0x0, symName: __ZNK8facebook3jsi6Object11setPropertyIRS1_EEvRNS0_7RuntimeERKNS0_6StringEOT_, symObjAddr: 0xFF8, symBinAddr: 0x191DC, symSize: 0x90 }
  - { offset: 0x1233B8, size: 0x8, addend: 0x0, symName: __ZNSt3__120__shared_ptr_emplaceIN8worklets23WorkletRuntimeCollectorENS_9allocatorIS2_EEEC2B8ne200100IJRN8facebook3jsi7RuntimeEES4_Li0EEES4_DpOT_, symObjAddr: 0x674, symBinAddr: 0x18EA0, symSize: 0x4C }
  - { offset: 0x1235AD, size: 0x8, addend: 0x0, symName: __ZN8worklets23WorkletRuntimeCollectorC2ERN8facebook3jsi7RuntimeE, symObjAddr: 0x708, symBinAddr: 0x18F34, symSize: 0x4C }
  - { offset: 0x12361A, size: 0x8, addend: 0x0, symName: __ZNSt3__120__shared_ptr_emplaceIN8worklets23WorkletRuntimeCollectorENS_9allocatorIS2_EEED1Ev, symObjAddr: 0x6C0, symBinAddr: 0x18EEC, symSize: 0x14 }
  - { offset: 0x12363C, size: 0x8, addend: 0x0, symName: __ZNSt3__120__shared_ptr_emplaceIN8worklets23WorkletRuntimeCollectorENS_9allocatorIS2_EEED1Ev, symObjAddr: 0x6C0, symBinAddr: 0x18EEC, symSize: 0x14 }
  - { offset: 0x123672, size: 0x8, addend: 0x0, symName: __ZNSt3__120__shared_ptr_emplaceIN8worklets23WorkletRuntimeCollectorENS_9allocatorIS2_EEED0Ev, symObjAddr: 0x6D4, symBinAddr: 0x18F00, symSize: 0x24 }
  - { offset: 0x12373E, size: 0x8, addend: 0x0, symName: __ZNSt3__120__shared_ptr_emplaceIN8worklets23WorkletRuntimeCollectorENS_9allocatorIS2_EEE16__on_zero_sharedEv, symObjAddr: 0x6F8, symBinAddr: 0x18F24, symSize: 0xC }
  - { offset: 0x123767, size: 0x8, addend: 0x0, symName: __ZNSt3__120__shared_ptr_emplaceIN8worklets23WorkletRuntimeCollectorENS_9allocatorIS2_EEE16__on_zero_sharedEv, symObjAddr: 0x6F8, symBinAddr: 0x18F24, symSize: 0xC }
  - { offset: 0x123785, size: 0x8, addend: 0x0, symName: __ZNSt3__120__shared_ptr_emplaceIN8worklets23WorkletRuntimeCollectorENS_9allocatorIS2_EEE16__on_zero_sharedEv, symObjAddr: 0x6F8, symBinAddr: 0x18F24, symSize: 0xC }
  - { offset: 0x1237A3, size: 0x8, addend: 0x0, symName: __ZNSt3__120__shared_ptr_emplaceIN8worklets23WorkletRuntimeCollectorENS_9allocatorIS2_EEE16__on_zero_sharedEv, symObjAddr: 0x6F8, symBinAddr: 0x18F24, symSize: 0xC }
  - { offset: 0x1237CF, size: 0x8, addend: 0x0, symName: __ZNSt3__120__shared_ptr_emplaceIN8worklets23WorkletRuntimeCollectorENS_9allocatorIS2_EEE21__on_zero_shared_weakEv, symObjAddr: 0x704, symBinAddr: 0x18F30, symSize: 0x4 }
  - { offset: 0x123802, size: 0x8, addend: 0x0, symName: __ZNSt3__120__shared_ptr_emplaceIN8worklets23WorkletRuntimeCollectorENS_9allocatorIS2_EEE21__on_zero_shared_weakEv, symObjAddr: 0x704, symBinAddr: 0x18F30, symSize: 0x4 }
  - { offset: 0x123823, size: 0x8, addend: 0x0, symName: __ZNSt3__120__shared_ptr_emplaceIN8worklets23WorkletRuntimeCollectorENS_9allocatorIS2_EEE21__on_zero_shared_weakEv, symObjAddr: 0x704, symBinAddr: 0x18F30, symSize: 0x4 }
  - { offset: 0x123845, size: 0x8, addend: 0x0, symName: __ZNSt3__120__shared_ptr_emplaceIN8worklets23WorkletRuntimeCollectorENS_9allocatorIS2_EEE21__on_zero_shared_weakEv, symObjAddr: 0x704, symBinAddr: 0x18F30, symSize: 0x4 }
  - { offset: 0x123877, size: 0x8, addend: 0x0, symName: __ZNSt3__120__shared_ptr_emplaceIN8worklets23WorkletRuntimeCollectorENS_9allocatorIS2_EEE21__on_zero_shared_weakEv, symObjAddr: 0x704, symBinAddr: 0x18F30, symSize: 0x4 }
  - { offset: 0x1239D5, size: 0x8, addend: 0x0, symName: __ZN8worklets22WorkletRuntimeRegistry15registerRuntimeERN8facebook3jsi7RuntimeE, symObjAddr: 0x754, symBinAddr: 0x18F80, symSize: 0x6C }
  - { offset: 0x123BE5, size: 0x8, addend: 0x0, symName: __ZNSt3__16__treeIPN8facebook3jsi7RuntimeENS_4lessIS4_EENS_9allocatorIS4_EEE25__emplace_unique_key_argsIS4_JS4_EEENS_4pairINS_15__tree_iteratorIS4_PNS_11__tree_nodeIS4_PvEElEEbEERKT_DpOT0_, symObjAddr: 0x7D8, symBinAddr: 0x19004, symSize: 0xB8 }
  - { offset: 0x123E79, size: 0x8, addend: 0x0, symName: __ZN8worklets23WorkletRuntimeCollectorD1Ev, symObjAddr: 0x7C0, symBinAddr: 0x18FEC, symSize: 0x4 }
  - { offset: 0x123E9C, size: 0x8, addend: 0x0, symName: __ZN8worklets23WorkletRuntimeCollectorD1Ev, symObjAddr: 0x7C0, symBinAddr: 0x18FEC, symSize: 0x4 }
  - { offset: 0x123EB0, size: 0x8, addend: 0x0, symName: __ZN8worklets23WorkletRuntimeCollectorD2Ev, symObjAddr: 0xA90, symBinAddr: 0x190BC, symSize: 0x3C }
  - { offset: 0x123F03, size: 0x8, addend: 0x0, symName: __ZN8worklets23WorkletRuntimeCollectorD0Ev, symObjAddr: 0x7C4, symBinAddr: 0x18FF0, symSize: 0x14 }
  - { offset: 0x124152, size: 0x8, addend: 0x0, symName: __ZN8worklets22WorkletRuntimeRegistry17unregisterRuntimeERN8facebook3jsi7RuntimeE, symObjAddr: 0xACC, symBinAddr: 0x190F8, symSize: 0x68 }
  - { offset: 0x124278, size: 0x8, addend: 0x0, symName: __ZNSt3__16__treeIPN8facebook3jsi7RuntimeENS_4lessIS4_EENS_9allocatorIS4_EEE14__erase_uniqueIS4_EEmRKT_, symObjAddr: 0xB34, symBinAddr: 0x19160, symSize: 0x7C }
  - { offset: 0x1242C1, size: 0x8, addend: 0x0, symName: __ZNSt3__16__treeIPN8facebook3jsi7RuntimeENS_4lessIS4_EENS_9allocatorIS4_EEE14__erase_uniqueIS4_EEmRKT_, symObjAddr: 0xB34, symBinAddr: 0x19160, symSize: 0x7C }
  - { offset: 0x1242F1, size: 0x8, addend: 0x0, symName: __ZNSt3__16__treeIPN8facebook3jsi7RuntimeENS_4lessIS4_EENS_9allocatorIS4_EEE14__erase_uniqueIS4_EEmRKT_, symObjAddr: 0xB34, symBinAddr: 0x19160, symSize: 0x7C }
  - { offset: 0x1267EE, size: 0x8, addend: 0x0, symName: _uiRuntimeName, symObjAddr: 0x0, symBinAddr: 0x40058, symSize: 0x0 }
  - { offset: 0x136B34, size: 0x8, addend: 0x0, symName: __ZNSt3__115allocate_sharedB8ne200100IN8worklets14WorkletRuntimeENS_9allocatorIS2_EEJRKyRKNS_10shared_ptrIN8facebook5react18MessageQueueThreadEEERKNS_12basic_stringIcNS_11char_traitsIcEENS3_IcEEEERKNS7_INS1_10AsyncQueueEEERbELi0EEENS7_IT_EERKT0_DpOT1_, symObjAddr: 0xD4C, symBinAddr: 0x19A9C, symSize: 0x90 }
  - { offset: 0x1370D7, size: 0x8, addend: 0x0, symName: __ZNSt3__115allocate_sharedB8ne200100IN8worklets14WorkletRuntimeENS_9allocatorIS2_EEJRKyRKNS_10shared_ptrIN8facebook5react18MessageQueueThreadEEERKNS_12basic_stringIcNS_11char_traitsIcEENS3_IcEEEERKNS7_INS1_10AsyncQueueEEEELi0EEENS7_IT_EERKT0_DpOT1_, symObjAddr: 0x1064, symBinAddr: 0x19BC8, symSize: 0x80 }
  - { offset: 0x13A4D2, size: 0x8, addend: 0x0, symName: __ZN8worklets14RuntimeManager10getRuntimeEy, symObjAddr: 0x0, symBinAddr: 0x192D8, symSize: 0xE0 }
  - { offset: 0x13A84E, size: 0x8, addend: 0x0, symName: __ZNSt3__13mapIyNS_8weak_ptrIN8worklets14WorkletRuntimeEEENS_4lessIyEENS_9allocatorINS_4pairIKyS4_EEEEE2atERS9_, symObjAddr: 0xE0, symBinAddr: 0x193B8, symSize: 0x54 }
  - { offset: 0x13A937, size: 0x8, addend: 0x0, symName: __ZNSt3__111shared_lockINS_12shared_mutexEED2B8ne200100Ev, symObjAddr: 0xA5C, symBinAddr: 0x19A64, symSize: 0x38 }
  - { offset: 0x13AA5D, size: 0x8, addend: 0x0, symName: __ZN8worklets14RuntimeManager10getRuntimeERKNSt3__112basic_stringIcNS1_11char_traitsIcEENS1_9allocatorIcEEEE, symObjAddr: 0x134, symBinAddr: 0x1940C, symSize: 0xA8 }
  - { offset: 0x13AD7B, size: 0x8, addend: 0x0, symName: __ZNSt3__13mapINS_12basic_stringIcNS_11char_traitsIcEENS_9allocatorIcEEEEyNS_4lessIS6_EENS4_INS_4pairIKS6_yEEEEE2atERSA_, symObjAddr: 0x1DC, symBinAddr: 0x194B4, symSize: 0x3C }
  - { offset: 0x13ADFC, size: 0x8, addend: 0x0, symName: __ZN8worklets14RuntimeManager14getAllRuntimesEv, symObjAddr: 0x218, symBinAddr: 0x194F0, symSize: 0x15C }
  - { offset: 0x13B100, size: 0x8, addend: 0x0, symName: __ZN8worklets14RuntimeManager14getAllRuntimesEv, symObjAddr: 0x218, symBinAddr: 0x194F0, symSize: 0x15C }
  - { offset: 0x13B633, size: 0x8, addend: 0x0, symName: __ZNSt3__16vectorINS_10shared_ptrIN8worklets14WorkletRuntimeEEENS_9allocatorIS4_EEE7reserveEm, symObjAddr: 0x374, symBinAddr: 0x1964C, symSize: 0x98 }
  - { offset: 0x13BB1C, size: 0x8, addend: 0x0, symName: __ZN8worklets14RuntimeManager12getUIRuntimeEv, symObjAddr: 0x52C, symBinAddr: 0x196E4, symSize: 0x8 }
  - { offset: 0x13C022, size: 0x8, addend: 0x0, symName: __ZN8worklets14RuntimeManager12getUIRuntimeEv, symObjAddr: 0x52C, symBinAddr: 0x196E4, symSize: 0x8 }
  - { offset: 0x13C296, size: 0x8, addend: 0x0, symName: __ZN8worklets14RuntimeManager20createWorkletRuntimeENSt3__110shared_ptrINS_22JSIWorkletsModuleProxyEEERKNS1_12basic_stringIcNS1_11char_traitsIcEENS1_9allocatorIcEEEENS2_INS_19SerializableWorkletEEERKNS2_INS_10AsyncQueueEEEb, symObjAddr: 0x534, symBinAddr: 0x196EC, symSize: 0x1C0 }
  - { offset: 0x13C82C, size: 0x8, addend: 0x0, symName: __ZN8worklets14RuntimeManager15registerRuntimeEyRKNSt3__112basic_stringIcNS1_11char_traitsIcEENS1_9allocatorIcEEEERKNS1_10shared_ptrINS_14WorkletRuntimeEEE, symObjAddr: 0x70C, symBinAddr: 0x198C4, symSize: 0xEC }
  - { offset: 0x13CBB8, size: 0x8, addend: 0x0, symName: __ZN8worklets14RuntimeManager16getNextRuntimeIdEv, symObjAddr: 0x6F4, symBinAddr: 0x198AC, symSize: 0x18 }
  - { offset: 0x13D0C7, size: 0x8, addend: 0x0, symName: __ZNSt3__16__treeINS_12__value_typeINS_12basic_stringIcNS_11char_traitsIcEENS_9allocatorIcEEEEyEENS_19__map_value_compareIS7_S8_NS_4lessIS7_EELb1EEENS5_IS8_EEE25__emplace_unique_key_argsIS7_JRKNS_21piecewise_construct_tENS_5tupleIJRKS7_EEENSJ_IJEEEEEENS_4pairINS_15__tree_iteratorIS8_PNS_11__tree_nodeIS8_PvEElEEbEERKT_DpOT0_, symObjAddr: 0x13E8, symBinAddr: 0x19C9C, symSize: 0x94 }
  - { offset: 0x13D261, size: 0x8, addend: 0x0, symName: __ZNSt3__111unique_lockINS_12shared_mutexEED2B8ne200100Ev, symObjAddr: 0xA24, symBinAddr: 0x19A2C, symSize: 0x38 }
  - { offset: 0x13D2A0, size: 0x8, addend: 0x0, symName: __ZN8worklets14RuntimeManager28createUninitializedUIRuntimeERKNSt3__110shared_ptrIN8facebook5react18MessageQueueThreadEEERKNS2_INS_10AsyncQueueEEE, symObjAddr: 0x7F8, symBinAddr: 0x199B0, symSize: 0x7C }
  - { offset: 0x13DA43, size: 0x8, addend: 0x0, symName: __ZNSt3__120__shared_ptr_emplaceIN8worklets14WorkletRuntimeENS_9allocatorIS2_EEEC2B8ne200100IJRKyRKNS_10shared_ptrIN8facebook5react18MessageQueueThreadEEERKNS_12basic_stringIcNS_11char_traitsIcEENS3_IcEEEERKNS9_INS1_10AsyncQueueEEERbES4_Li0EEES4_DpOT_, symObjAddr: 0xDDC, symBinAddr: 0x19B2C, symSize: 0x54 }
  - { offset: 0x13DD09, size: 0x8, addend: 0x0, symName: __ZNSt3__120__shared_ptr_emplaceIN8worklets14WorkletRuntimeENS_9allocatorIS2_EEED1Ev, symObjAddr: 0xE30, symBinAddr: 0x19B80, symSize: 0x14 }
  - { offset: 0x13DD2B, size: 0x8, addend: 0x0, symName: __ZNSt3__120__shared_ptr_emplaceIN8worklets14WorkletRuntimeENS_9allocatorIS2_EEED1Ev, symObjAddr: 0xE30, symBinAddr: 0x19B80, symSize: 0x14 }
  - { offset: 0x13DD61, size: 0x8, addend: 0x0, symName: __ZNSt3__120__shared_ptr_emplaceIN8worklets14WorkletRuntimeENS_9allocatorIS2_EEED0Ev, symObjAddr: 0xE44, symBinAddr: 0x19B94, symSize: 0x24 }
  - { offset: 0x13DE2D, size: 0x8, addend: 0x0, symName: __ZNSt3__120__shared_ptr_emplaceIN8worklets14WorkletRuntimeENS_9allocatorIS2_EEE16__on_zero_sharedEv, symObjAddr: 0xE68, symBinAddr: 0x19BB8, symSize: 0xC }
  - { offset: 0x13DE56, size: 0x8, addend: 0x0, symName: __ZNSt3__120__shared_ptr_emplaceIN8worklets14WorkletRuntimeENS_9allocatorIS2_EEE16__on_zero_sharedEv, symObjAddr: 0xE68, symBinAddr: 0x19BB8, symSize: 0xC }
  - { offset: 0x13DE74, size: 0x8, addend: 0x0, symName: __ZNSt3__120__shared_ptr_emplaceIN8worklets14WorkletRuntimeENS_9allocatorIS2_EEE16__on_zero_sharedEv, symObjAddr: 0xE68, symBinAddr: 0x19BB8, symSize: 0xC }
  - { offset: 0x13DE92, size: 0x8, addend: 0x0, symName: __ZNSt3__120__shared_ptr_emplaceIN8worklets14WorkletRuntimeENS_9allocatorIS2_EEE16__on_zero_sharedEv, symObjAddr: 0xE68, symBinAddr: 0x19BB8, symSize: 0xC }
  - { offset: 0x13DEBE, size: 0x8, addend: 0x0, symName: __ZNSt3__120__shared_ptr_emplaceIN8worklets14WorkletRuntimeENS_9allocatorIS2_EEE21__on_zero_shared_weakEv, symObjAddr: 0xE74, symBinAddr: 0x19BC4, symSize: 0x4 }
  - { offset: 0x13DEF1, size: 0x8, addend: 0x0, symName: __ZNSt3__120__shared_ptr_emplaceIN8worklets14WorkletRuntimeENS_9allocatorIS2_EEE21__on_zero_shared_weakEv, symObjAddr: 0xE74, symBinAddr: 0x19BC4, symSize: 0x4 }
  - { offset: 0x13DF12, size: 0x8, addend: 0x0, symName: __ZNSt3__120__shared_ptr_emplaceIN8worklets14WorkletRuntimeENS_9allocatorIS2_EEE21__on_zero_shared_weakEv, symObjAddr: 0xE74, symBinAddr: 0x19BC4, symSize: 0x4 }
  - { offset: 0x13DF34, size: 0x8, addend: 0x0, symName: __ZNSt3__120__shared_ptr_emplaceIN8worklets14WorkletRuntimeENS_9allocatorIS2_EEE21__on_zero_shared_weakEv, symObjAddr: 0xE74, symBinAddr: 0x19BC4, symSize: 0x4 }
  - { offset: 0x13DF67, size: 0x8, addend: 0x0, symName: __ZNSt3__120__shared_ptr_emplaceIN8worklets14WorkletRuntimeENS_9allocatorIS2_EEE21__on_zero_shared_weakEv, symObjAddr: 0xE74, symBinAddr: 0x19BC4, symSize: 0x4 }
  - { offset: 0x13E27F, size: 0x8, addend: 0x0, symName: __ZNSt3__120__shared_ptr_emplaceIN8worklets14WorkletRuntimeENS_9allocatorIS2_EEEC2B8ne200100IJRKyRKNS_10shared_ptrIN8facebook5react18MessageQueueThreadEEERKNS_12basic_stringIcNS_11char_traitsIcEENS3_IcEEEERKNS9_INS1_10AsyncQueueEEEES4_Li0EEES4_DpOT_, symObjAddr: 0x10E4, symBinAddr: 0x19C48, symSize: 0x54 }
  - { offset: 0x13E7CA, size: 0x8, addend: 0x0, symName: __ZNSt3__16__treeINS_12__value_typeINS_12basic_stringIcNS_11char_traitsIcEENS_9allocatorIcEEEEyEENS_19__map_value_compareIS7_S8_NS_4lessIS7_EELb1EEENS5_IS8_EEE16__construct_nodeIJRKNS_21piecewise_construct_tENS_5tupleIJRKS7_EEENSJ_IJEEEEEENS_10unique_ptrINS_11__tree_nodeIS8_PvEENS_22__tree_node_destructorINS5_ISR_EEEEEEDpOT_, symObjAddr: 0x147C, symBinAddr: 0x19D30, symSize: 0xA4 }
  - { offset: 0x13EFAA, size: 0x8, addend: 0x0, symName: __ZNSt3__122__tree_node_destructorINS_9allocatorINS_11__tree_nodeINS_12__value_typeINS_12basic_stringIcNS_11char_traitsIcEENS1_IcEEEEyEEPvEEEEEclB8ne200100EPSB_, symObjAddr: 0x1608, symBinAddr: 0x19DD4, symSize: 0x50 }
  - { offset: 0x13F2FF, size: 0x8, addend: 0x0, symName: __ZNSt3__122__tree_node_destructorINS_9allocatorINS_11__tree_nodeINS_12__value_typeINS_12basic_stringIcNS_11char_traitsIcEENS1_IcEEEEyEEPvEEEEEclB8ne200100EPSB_, symObjAddr: 0x1608, symBinAddr: 0x19DD4, symSize: 0x50 }
  - { offset: 0x141F11, size: 0x8, addend: 0x0, symName: __ZN8worklets16getValueUnpackerERN8facebook3jsi7RuntimeE, symObjAddr: 0x0, symBinAddr: 0x19E24, symSize: 0x140 }
  - { offset: 0x1422C4, size: 0x8, addend: 0x0, symName: __ZN8worklets21makeSerializableCloneERN8facebook3jsi7RuntimeERKNS1_5ValueES6_S6_, symObjAddr: 0x140, symBinAddr: 0x19F64, symSize: 0x8E4 }
  - { offset: 0x1447ED, size: 0x8, addend: 0x0, symName: __ZN8worklets23makeSerializableWorkletERN8facebook3jsi7RuntimeERKNS1_6ObjectERKb, symObjAddr: 0xA24, symBinAddr: 0x1A848, symSize: 0x188 }
  - { offset: 0x144D7F, size: 0x8, addend: 0x0, symName: __ZN8worklets27makeSerializableInitializerERN8facebook3jsi7RuntimeERKNS1_6ObjectE, symObjAddr: 0xBAC, symBinAddr: 0x1A9D0, symSize: 0x10C }
  - { offset: 0x14517D, size: 0x8, addend: 0x0, symName: __ZN8worklets24makeSerializableFunctionERN8facebook3jsi7RuntimeENS1_8FunctionE, symObjAddr: 0xCB8, symBinAddr: 0x1AADC, symSize: 0x1C8 }
  - { offset: 0x145879, size: 0x8, addend: 0x0, symName: __ZN8worklets22makeSerializableStringERN8facebook3jsi7RuntimeERKNS1_6StringE, symObjAddr: 0x14BC, symBinAddr: 0x1AE9C, symSize: 0x140 }
  - { offset: 0x145EB3, size: 0x8, addend: 0x0, symName: __ZN8worklets22makeSerializableNumberERN8facebook3jsi7RuntimeEd, symObjAddr: 0x15FC, symBinAddr: 0x1AFDC, symSize: 0x138 }
  - { offset: 0x14645D, size: 0x8, addend: 0x0, symName: __ZN8worklets23makeSerializableBooleanERN8facebook3jsi7RuntimeEb, symObjAddr: 0x1734, symBinAddr: 0x1B114, symSize: 0x138 }
  - { offset: 0x1469F2, size: 0x8, addend: 0x0, symName: __ZN8worklets22makeSerializableBigIntERN8facebook3jsi7RuntimeERKNS1_6BigIntE, symObjAddr: 0x186C, symBinAddr: 0x1B24C, symSize: 0x10C }
  - { offset: 0x146DF0, size: 0x8, addend: 0x0, symName: __ZN8worklets25makeSerializableUndefinedERN8facebook3jsi7RuntimeE, symObjAddr: 0x1978, symBinAddr: 0x1B358, symSize: 0x124 }
  - { offset: 0x147348, size: 0x8, addend: 0x0, symName: __ZN8worklets20makeSerializableNullERN8facebook3jsi7RuntimeE, symObjAddr: 0x1A9C, symBinAddr: 0x1B47C, symSize: 0x128 }
  - { offset: 0x1478AC, size: 0x8, addend: 0x0, symName: __ZN8worklets21makeSerializableArrayERN8facebook3jsi7RuntimeERKNS1_5ArrayERKNS1_5ValueE, symObjAddr: 0x1C3C, symBinAddr: 0x1B5A4, symSize: 0x194 }
  - { offset: 0x147E76, size: 0x8, addend: 0x0, symName: __ZN8worklets19makeSerializableMapERN8facebook3jsi7RuntimeERKNS1_5ArrayES6_, symObjAddr: 0x1DD0, symBinAddr: 0x1B738, symSize: 0x110 }
  - { offset: 0x148293, size: 0x8, addend: 0x0, symName: __ZN8worklets19makeSerializableSetERN8facebook3jsi7RuntimeERKNS1_5ArrayE, symObjAddr: 0x1EE0, symBinAddr: 0x1B848, symSize: 0x10C }
  - { offset: 0x148691, size: 0x8, addend: 0x0, symName: __ZN8worklets26makeSerializableHostObjectERN8facebook3jsi7RuntimeERKNSt3__110shared_ptrINS1_10HostObjectEEE, symObjAddr: 0x1FEC, symBinAddr: 0x1B954, symSize: 0x158 }
  - { offset: 0x148D62, size: 0x8, addend: 0x0, symName: __ZN8worklets31makeSerializableTurboModuleLikeERN8facebook3jsi7RuntimeERKNS1_6ObjectERKNSt3__110shared_ptrINS1_10HostObjectEEE, symObjAddr: 0x2144, symBinAddr: 0x1BAAC, symSize: 0x110 }
  - { offset: 0x14917F, size: 0x8, addend: 0x0, symName: __ZN8worklets22makeSerializableImportERN8facebook3jsi7RuntimeEdRKNS1_6StringE, symObjAddr: 0x2254, symBinAddr: 0x1BBBC, symSize: 0x114 }
  - { offset: 0x149593, size: 0x8, addend: 0x0, symName: __ZN8worklets22makeSerializableObjectERN8facebook3jsi7RuntimeENS1_6ObjectEbRKNS1_5ValueE, symObjAddr: 0x2368, symBinAddr: 0x1BCD0, symSize: 0x180 }
  - { offset: 0x149B43, size: 0x8, addend: 0x0, symName: __ZN8worklets26extractSerializableOrThrowERN8facebook3jsi7RuntimeERKNS1_5ValueERKNSt3__112basic_stringIcNS7_11char_traitsIcEENS7_9allocatorIcEEEE, symObjAddr: 0x24E8, symBinAddr: 0x1BE50, symSize: 0x204 }
  - { offset: 0x15B8B4, size: 0x8, addend: 0x0, symName: __ZNSt3__115allocate_sharedB8ne200100IN8worklets18SerializableBigIntENS_9allocatorIS2_EEJRN8facebook3jsi7RuntimeENS6_6BigIntEELi0EEENS_10shared_ptrIT_EERKT0_DpOT1_, symObjAddr: 0x76A8, symBinAddr: 0x20408, symSize: 0x60 }
  - { offset: 0x15BB42, size: 0x8, addend: 0x0, symName: __ZNSt3__115allocate_sharedB8ne200100IN8worklets18SerializableStringENS_9allocatorIS2_EEJNS_12basic_stringIcNS_11char_traitsIcEENS3_IcEEEEELi0EEENS_10shared_ptrIT_EERKT0_DpOT1_, symObjAddr: 0x740C, symBinAddr: 0x2029C, symSize: 0x58 }
  - { offset: 0x15BDAD, size: 0x8, addend: 0x0, symName: __ZNSt3__115allocate_sharedB8ne200100IN8worklets21RetainingSerializableINS1_17SerializableArrayEEENS_9allocatorIS4_EEJRN8facebook3jsi7RuntimeENS8_5ArrayEELi0EEENS_10shared_ptrIT_EERKT0_DpOT1_, symObjAddr: 0x6700, symBinAddr: 0x1F75C, symSize: 0x60 }
  - { offset: 0x15C03B, size: 0x8, addend: 0x0, symName: __ZNSt3__115allocate_sharedB8ne200100IN8worklets23SerializableArrayBufferENS_9allocatorIS2_EEJRN8facebook3jsi7RuntimeENS6_11ArrayBufferEELi0EEENS_10shared_ptrIT_EERKT0_DpOT1_, symObjAddr: 0x6BC4, symBinAddr: 0x1FBC8, symSize: 0x60 }
  - { offset: 0x15C2C9, size: 0x8, addend: 0x0, symName: __ZNSt3__115allocate_sharedB8ne200100IN8worklets17SerializableArrayENS_9allocatorIS2_EEJRN8facebook3jsi7RuntimeENS6_5ArrayEELi0EEENS_10shared_ptrIT_EERKT0_DpOT1_, symObjAddr: 0x6AD0, symBinAddr: 0x1FAD4, symSize: 0x60 }
  - { offset: 0x15C557, size: 0x8, addend: 0x0, symName: __ZNSt3__115allocate_sharedB8ne200100IN8worklets21RetainingSerializableINS1_18SerializableObjectEEENS_9allocatorIS4_EEJRN8facebook3jsi7RuntimeERNS8_6ObjectERKNS8_5ValueEELi0EEENS_10shared_ptrIT_EERKT0_DpOT1_, symObjAddr: 0x6F24, symBinAddr: 0x1FE64, symSize: 0x70 }
  - { offset: 0x15C808, size: 0x8, addend: 0x0, symName: __ZNSt3__115allocate_sharedB8ne200100IN8worklets18SerializableObjectENS_9allocatorIS2_EEJRN8facebook3jsi7RuntimeERNS6_6ObjectERKNS6_5ValueEELi0EEENS_10shared_ptrIT_EERKT0_DpOT1_, symObjAddr: 0x72B0, symBinAddr: 0x20198, symSize: 0x70 }
  - { offset: 0x15CF1E, size: 0x8, addend: 0x0, symName: __ZNSt3__115allocate_sharedB8ne200100IN8worklets21RetainingSerializableINS1_19SerializableWorkletEEENS_9allocatorIS4_EEJRN8facebook3jsi7RuntimeERKNS8_6ObjectEELi0EEENS_10shared_ptrIT_EERKT0_DpOT1_, symObjAddr: 0x7948, symBinAddr: 0x20650, symSize: 0x60 }
  - { offset: 0x15D1AC, size: 0x8, addend: 0x0, symName: __ZNSt3__115allocate_sharedB8ne200100IN8worklets19SerializableWorkletENS_9allocatorIS2_EEJRN8facebook3jsi7RuntimeERKNS6_6ObjectEELi0EEENS_10shared_ptrIT_EERKT0_DpOT1_, symObjAddr: 0x7C74, symBinAddr: 0x2097C, symSize: 0x60 }
  - { offset: 0x15D672, size: 0x8, addend: 0x0, symName: __ZNSt3__115allocate_sharedB8ne200100IN8worklets23SerializableInitializerENS_9allocatorIS2_EEJRN8facebook3jsi7RuntimeERKNS6_6ObjectEELi0EEENS_10shared_ptrIT_EERKT0_DpOT1_, symObjAddr: 0x7D7C, symBinAddr: 0x20A84, symSize: 0x60 }
  - { offset: 0x15DB83, size: 0x8, addend: 0x0, symName: __ZNSt3__115allocate_sharedB8ne200100IN8worklets24SerializableHostFunctionENS_9allocatorIS2_EEJRN8facebook3jsi7RuntimeENS6_8FunctionEELi0EEENS_10shared_ptrIT_EERKT0_DpOT1_, symObjAddr: 0x7F5C, symBinAddr: 0x20C0C, symSize: 0x60 }
  - { offset: 0x15DE11, size: 0x8, addend: 0x0, symName: __ZNSt3__115allocate_sharedB8ne200100IN8worklets26SerializableRemoteFunctionENS_9allocatorIS2_EEJRN8facebook3jsi7RuntimeENS6_8FunctionEELi0EEENS_10shared_ptrIT_EERKT0_DpOT1_, symObjAddr: 0x82EC, symBinAddr: 0x20F9C, symSize: 0x68 }
  - { offset: 0x15E505, size: 0x8, addend: 0x0, symName: __ZNSt3__115allocate_sharedB8ne200100IN8worklets18SerializableBigIntENS_9allocatorIS2_EEJRN8facebook3jsi7RuntimeERKNS6_6BigIntEELi0EEENS_10shared_ptrIT_EERKT0_DpOT1_, symObjAddr: 0x789C, symBinAddr: 0x205A4, symSize: 0x60 }
  - { offset: 0x15E825, size: 0x8, addend: 0x0, symName: __ZNSt3__115allocate_sharedB8ne200100IN8worklets21RetainingSerializableINS1_17SerializableArrayEEENS_9allocatorIS4_EEJRN8facebook3jsi7RuntimeERKNS8_5ArrayEELi0EEENS_10shared_ptrIT_EERKT0_DpOT1_, symObjAddr: 0x8590, symBinAddr: 0x21138, symSize: 0x60 }
  - { offset: 0x15EAB3, size: 0x8, addend: 0x0, symName: __ZNSt3__115allocate_sharedB8ne200100IN8worklets17SerializableArrayENS_9allocatorIS2_EEJRN8facebook3jsi7RuntimeERKNS6_5ArrayEELi0EEENS_10shared_ptrIT_EERKT0_DpOT1_, symObjAddr: 0x8658, symBinAddr: 0x21200, symSize: 0x60 }
  - { offset: 0x15EF8A, size: 0x8, addend: 0x0, symName: __ZNSt3__115allocate_sharedB8ne200100IN8worklets15SerializableMapENS_9allocatorIS2_EEJRN8facebook3jsi7RuntimeERKNS6_5ArrayESB_ELi0EEENS_10shared_ptrIT_EERKT0_DpOT1_, symObjAddr: 0x8704, symBinAddr: 0x212AC, symSize: 0x70 }
  - { offset: 0x15F473, size: 0x8, addend: 0x0, symName: __ZNSt3__115allocate_sharedB8ne200100IN8worklets15SerializableSetENS_9allocatorIS2_EEJRN8facebook3jsi7RuntimeERKNS6_5ArrayEELi0EEENS_10shared_ptrIT_EERKT0_DpOT1_, symObjAddr: 0x8860, symBinAddr: 0x213B0, symSize: 0x60 }
  - { offset: 0x15FAAB, size: 0x8, addend: 0x0, symName: __ZNSt3__115allocate_sharedB8ne200100IN8worklets27SerializableTurboModuleLikeENS_9allocatorIS2_EEJRN8facebook3jsi7RuntimeERKNS6_6ObjectERKNS_10shared_ptrINS6_10HostObjectEEEELi0EEENSC_IT_EERKT0_DpOT1_, symObjAddr: 0x89AC, symBinAddr: 0x214A4, symSize: 0x70 }
  - { offset: 0x15FFA5, size: 0x8, addend: 0x0, symName: __ZNSt3__115allocate_sharedB8ne200100IN8worklets18SerializableImportENS_9allocatorIS2_EEJRN8facebook3jsi7RuntimeERKdRKNS6_6StringEELi0EEENS_10shared_ptrIT_EERKT0_DpOT1_, symObjAddr: 0x8BFC, symBinAddr: 0x2169C, symSize: 0x70 }
  - { offset: 0x160640, size: 0x8, addend: 0x0, symName: __ZNSt3__114__split_bufferINS_4pairINS_12basic_stringIcNS_11char_traitsIcEENS_9allocatorIcEEEENS_10shared_ptrIN8worklets12SerializableEEEEERNS5_ISC_EEED2Ev, symObjAddr: 0x60F8, symBinAddr: 0x1F3C4, symSize: 0x4C }
  - { offset: 0x1607E4, size: 0x8, addend: 0x0, symName: __ZNSt3__114__split_bufferINS_4pairINS_10shared_ptrIN8worklets12SerializableEEES5_EERNS_9allocatorIS6_EEED2Ev, symObjAddr: 0x6238, symBinAddr: 0x1F4BC, symSize: 0x34 }
  - { offset: 0x160D16, size: 0x8, addend: 0x0, symName: __ZNSt3__112__destroy_atB8ne200100INS_4pairINS_12basic_stringIcNS_11char_traitsIcEENS_9allocatorIcEEEENS_10shared_ptrIN8worklets12SerializableEEEEELi0EEEvPT_, symObjAddr: 0x6144, symBinAddr: 0x1F410, symSize: 0x3C }
  - { offset: 0x165324, size: 0x8, addend: 0x0, symName: __ZNSt3__112construct_atB8ne200100IN8worklets24SerializableHostFunctionEJRN8facebook3jsi7RuntimeENS4_8FunctionEEPS2_EEPT_SA_DpOT0_, symObjAddr: 0x8050, symBinAddr: 0x20D00, symSize: 0x70 }
  - { offset: 0x166F61, size: 0x8, addend: 0x0, symName: __ZNSt3__120__throw_bad_weak_ptrB8ne200100Ev, symObjAddr: 0x8DC8, symBinAddr: 0x21810, symSize: 0x34 }
  - { offset: 0x1681C5, size: 0x8, addend: 0x0, symName: __ZN8worklets12Serializable9undefinedEv, symObjAddr: 0x26EC, symBinAddr: 0x1C054, symSize: 0xD8 }
  - { offset: 0x1681E9, size: 0x8, addend: 0x0, symName: __ZZN8worklets12Serializable9undefinedEvE9undefined, symObjAddr: 0xFF700, symBinAddr: 0x58DA8, symSize: 0x0 }
  - { offset: 0x16AD5B, size: 0x8, addend: 0x0, symName: __ZNSt3__110shared_ptrIN8worklets12SerializableEEaSB8ne200100INS1_21RetainingSerializableINS1_17SerializableArrayEEELi0EEERS3_ONS0_IT_EE, symObjAddr: 0xE80, symBinAddr: 0x1ACA4, symSize: 0x78 }
  - { offset: 0x16AF1B, size: 0x8, addend: 0x0, symName: __ZNSt3__110shared_ptrIN8worklets12SerializableEEaSB8ne200100INS1_23SerializableArrayBufferELi0EEERS3_ONS0_IT_EE, symObjAddr: 0xEF8, symBinAddr: 0x1AD1C, symSize: 0x64 }
  - { offset: 0x16B0E5, size: 0x8, addend: 0x0, symName: __ZNK8facebook3jsi6Object12isHostObjectIN8worklets17SerializableJSRefEEEbRNS0_7RuntimeE, symObjAddr: 0xF5C, symBinAddr: 0x1AD80, symSize: 0x118 }
  - { offset: 0x16C08A, size: 0x8, addend: 0x0, symName: __ZNSt3__110shared_ptrIN8worklets18SerializableScalarEED1B8ne200100Ev, symObjAddr: 0x127C, symBinAddr: 0x1AE98, symSize: 0x4 }
  - { offset: 0x16C0AD, size: 0x8, addend: 0x0, symName: __ZNSt3__110shared_ptrIN8worklets18SerializableScalarEED1B8ne200100Ev, symObjAddr: 0x127C, symBinAddr: 0x1AE98, symSize: 0x4 }
  - { offset: 0x16D224, size: 0x8, addend: 0x0, symName: __ZN8worklets12SerializableD2Ev, symObjAddr: 0x27C4, symBinAddr: 0x1C12C, symSize: 0x4 }
  - { offset: 0x16D250, size: 0x8, addend: 0x0, symName: __ZN8worklets12SerializableD1Ev, symObjAddr: 0x27C8, symBinAddr: 0x1C130, symSize: 0x4 }
  - { offset: 0x16D27A, size: 0x8, addend: 0x0, symName: __ZN8worklets12SerializableD0Ev, symObjAddr: 0x27CC, symBinAddr: 0x1C134, symSize: 0x4 }
  - { offset: 0x16D2A4, size: 0x8, addend: 0x0, symName: __ZN8worklets17SerializableJSRefD2Ev, symObjAddr: 0x27D0, symBinAddr: 0x1C138, symSize: 0x30 }
  - { offset: 0x16D30F, size: 0x8, addend: 0x0, symName: __ZN8worklets17SerializableJSRefD1Ev, symObjAddr: 0x2800, symBinAddr: 0x1C168, symSize: 0x30 }
  - { offset: 0x16D39A, size: 0x8, addend: 0x0, symName: __ZN8worklets17SerializableJSRefD0Ev, symObjAddr: 0x2830, symBinAddr: 0x1C198, symSize: 0x34 }
  - { offset: 0x16D572, size: 0x8, addend: 0x0, symName: __ZN8worklets17SerializableArrayC2ERN8facebook3jsi7RuntimeERKNS2_5ArrayE, symObjAddr: 0x2864, symBinAddr: 0x1C1CC, symSize: 0x194 }
  - { offset: 0x16E076, size: 0x8, addend: 0x0, symName: __ZN8worklets17SerializableArrayC1ERN8facebook3jsi7RuntimeERKNS2_5ArrayE, symObjAddr: 0x2B80, symBinAddr: 0x1C360, symSize: 0x4 }
  - { offset: 0x16E4FC, size: 0x8, addend: 0x0, symName: __ZN8worklets17SerializableArrayC1ERN8facebook3jsi7RuntimeERKNS2_5ArrayE, symObjAddr: 0x2B80, symBinAddr: 0x1C360, symSize: 0x4 }
  - { offset: 0x16E52D, size: 0x8, addend: 0x0, symName: __ZN8worklets17SerializableArrayC1ERN8facebook3jsi7RuntimeERKNS2_5ArrayE, symObjAddr: 0x2B80, symBinAddr: 0x1C360, symSize: 0x4 }
  - { offset: 0x16E6ED, size: 0x8, addend: 0x0, symName: __ZN8worklets17SerializableArray9toJSValueERN8facebook3jsi7RuntimeE, symObjAddr: 0x2B84, symBinAddr: 0x1C364, symSize: 0x110 }
  - { offset: 0x16EC68, size: 0x8, addend: 0x0, symName: __ZN8worklets23SerializableArrayBuffer9toJSValueERN8facebook3jsi7RuntimeE, symObjAddr: 0x2C94, symBinAddr: 0x1C474, symSize: 0x198 }
  - { offset: 0x16F700, size: 0x8, addend: 0x0, symName: __ZN8worklets18SerializableObjectC2ERN8facebook3jsi7RuntimeERKNS2_6ObjectE, symObjAddr: 0x2E2C, symBinAddr: 0x1C60C, symSize: 0x47C }
  - { offset: 0x17097C, size: 0x8, addend: 0x0, symName: __ZNSt3__16vectorINS_4pairINS_12basic_stringIcNS_11char_traitsIcEENS_9allocatorIcEEEENS_10shared_ptrIN8worklets12SerializableEEEEENS5_ISC_EEE7reserveEm, symObjAddr: 0x32A8, symBinAddr: 0x1CA88, symSize: 0xB8 }
  - { offset: 0x170B77, size: 0x8, addend: 0x0, symName: __ZNSt3__114__split_bufferINS_4pairINS_12basic_stringIcNS_11char_traitsIcEENS_9allocatorIcEEEENS_10shared_ptrIN8worklets12SerializableEEEEERNS5_ISC_EEED2Ev, symObjAddr: 0x60F8, symBinAddr: 0x1F3C4, symSize: 0x4C }
  - { offset: 0x170D8C, size: 0x8, addend: 0x0, symName: __ZNSt3__16vectorINS_4pairINS_12basic_stringIcNS_11char_traitsIcEENS_9allocatorIcEEEENS_10shared_ptrIN8worklets12SerializableEEEEENS5_ISC_EEE16__destroy_vectorclB8ne200100Ev, symObjAddr: 0x6180, symBinAddr: 0x1F44C, symSize: 0x70 }
  - { offset: 0x170F47, size: 0x8, addend: 0x0, symName: __ZN8worklets18SerializableObjectC1ERN8facebook3jsi7RuntimeERKNS2_6ObjectE, symObjAddr: 0x33C4, symBinAddr: 0x1CB40, symSize: 0x4 }
  - { offset: 0x170F78, size: 0x8, addend: 0x0, symName: __ZN8worklets18SerializableObjectC1ERN8facebook3jsi7RuntimeERKNS2_6ObjectE, symObjAddr: 0x33C4, symBinAddr: 0x1CB40, symSize: 0x4 }
  - { offset: 0x170F9C, size: 0x8, addend: 0x0, symName: __ZN8worklets18SerializableObjectC2ERN8facebook3jsi7RuntimeERKNS2_6ObjectERKNS2_5ValueE, symObjAddr: 0x33C8, symBinAddr: 0x1CB44, symSize: 0x154 }
  - { offset: 0x171404, size: 0x8, addend: 0x0, symName: __ZN8worklets18SerializableObjectD2Ev, symObjAddr: 0x351C, symBinAddr: 0x1CC98, symSize: 0x4C }
  - { offset: 0x171518, size: 0x8, addend: 0x0, symName: __ZN8worklets18SerializableObjectC1ERN8facebook3jsi7RuntimeERKNS2_6ObjectERKNS2_5ValueE, symObjAddr: 0x3568, symBinAddr: 0x1CCE4, symSize: 0x154 }
  - { offset: 0x1719AB, size: 0x8, addend: 0x0, symName: __ZN8worklets18SerializableObjectD1Ev, symObjAddr: 0x36BC, symBinAddr: 0x1CE38, symSize: 0x4C }
  - { offset: 0x171BC0, size: 0x8, addend: 0x0, symName: __ZN8worklets18SerializableObject9toJSValueERN8facebook3jsi7RuntimeE, symObjAddr: 0x3708, symBinAddr: 0x1CE84, symSize: 0x250 }
  - { offset: 0x17247A, size: 0x8, addend: 0x0, symName: __ZN8worklets15SerializableMapC2ERN8facebook3jsi7RuntimeERKNS2_5ArrayES7_, symObjAddr: 0x3958, symBinAddr: 0x1D0D4, symSize: 0x268 }
  - { offset: 0x172DFE, size: 0x8, addend: 0x0, symName: __ZNSt3__16vectorINS_4pairINS_10shared_ptrIN8worklets12SerializableEEES5_EENS_9allocatorIS6_EEE7reserveEm, symObjAddr: 0x3BC0, symBinAddr: 0x1D33C, symSize: 0x98 }
  - { offset: 0x172FEC, size: 0x8, addend: 0x0, symName: __ZNSt3__16vectorINS_4pairINS_10shared_ptrIN8worklets12SerializableEEES5_EENS_9allocatorIS6_EEE12emplace_backIJRS5_SB_EEERS6_DpOT_, symObjAddr: 0x3C58, symBinAddr: 0x1D3D4, symSize: 0x164 }
  - { offset: 0x172FF7, size: 0x8, addend: 0x0, symName: __ZNSt3__16vectorINS_4pairINS_10shared_ptrIN8worklets12SerializableEEES5_EENS_9allocatorIS6_EEE12emplace_backIJRS5_SB_EEERS6_DpOT_, symObjAddr: 0x3C58, symBinAddr: 0x1D3D4, symSize: 0x164 }
  - { offset: 0x1736B5, size: 0x8, addend: 0x0, symName: __ZN8worklets15SerializableMapC1ERN8facebook3jsi7RuntimeERKNS2_5ArrayES7_, symObjAddr: 0x3DBC, symBinAddr: 0x1D538, symSize: 0x4 }
  - { offset: 0x1736D0, size: 0x8, addend: 0x0, symName: __ZNSt3__16vectorINS_4pairINS_10shared_ptrIN8worklets12SerializableEEES5_EENS_9allocatorIS6_EEE16__destroy_vectorclB8ne200100Ev, symObjAddr: 0x62C4, symBinAddr: 0x1F548, symSize: 0x40 }
  - { offset: 0x1738A2, size: 0x8, addend: 0x0, symName: __ZNSt3__114__split_bufferINS_4pairINS_10shared_ptrIN8worklets12SerializableEEES5_EERNS_9allocatorIS6_EEED2Ev, symObjAddr: 0x6238, symBinAddr: 0x1F4BC, symSize: 0x34 }
  - { offset: 0x173B62, size: 0x8, addend: 0x0, symName: __ZN8worklets15SerializableMapC1ERN8facebook3jsi7RuntimeERKNS2_5ArrayES7_, symObjAddr: 0x3DBC, symBinAddr: 0x1D538, symSize: 0x4 }
  - { offset: 0x173B9A, size: 0x8, addend: 0x0, symName: __ZN8worklets15SerializableMapC1ERN8facebook3jsi7RuntimeERKNS2_5ArrayES7_, symObjAddr: 0x3DBC, symBinAddr: 0x1D538, symSize: 0x4 }
  - { offset: 0x173C7B, size: 0x8, addend: 0x0, symName: __ZN8worklets15SerializableMap9toJSValueERN8facebook3jsi7RuntimeE, symObjAddr: 0x3DC0, symBinAddr: 0x1D53C, symSize: 0x2D4 }
  - { offset: 0x17457F, size: 0x8, addend: 0x0, symName: __ZNK8facebook3jsi5Array15setValueAtIndexIKS1_EEvRNS0_7RuntimeEmOT_, symObjAddr: 0x4094, symBinAddr: 0x1D810, symSize: 0x90 }
  - { offset: 0x17473F, size: 0x8, addend: 0x0, symName: __ZN8worklets15SerializableSetC2ERN8facebook3jsi7RuntimeERKNS2_5ArrayE, symObjAddr: 0x4124, symBinAddr: 0x1D8A0, symSize: 0x194 }
  - { offset: 0x174CD7, size: 0x8, addend: 0x0, symName: __ZN8worklets15SerializableSetC1ERN8facebook3jsi7RuntimeERKNS2_5ArrayE, symObjAddr: 0x42B8, symBinAddr: 0x1DA34, symSize: 0x4 }
  - { offset: 0x174D08, size: 0x8, addend: 0x0, symName: __ZN8worklets15SerializableSetC1ERN8facebook3jsi7RuntimeERKNS2_5ArrayE, symObjAddr: 0x42B8, symBinAddr: 0x1DA34, symSize: 0x4 }
  - { offset: 0x174D2C, size: 0x8, addend: 0x0, symName: __ZN8worklets15SerializableSet9toJSValueERN8facebook3jsi7RuntimeE, symObjAddr: 0x42BC, symBinAddr: 0x1DA38, symSize: 0x238 }
  - { offset: 0x1753EF, size: 0x8, addend: 0x0, symName: __ZN8worklets22SerializableHostObject9toJSValueERN8facebook3jsi7RuntimeE, symObjAddr: 0x44F4, symBinAddr: 0x1DC70, symSize: 0xB8 }
  - { offset: 0x175A35, size: 0x8, addend: 0x0, symName: __ZN8worklets24SerializableHostFunction9toJSValueERN8facebook3jsi7RuntimeE, symObjAddr: 0x4648, symBinAddr: 0x1DD28, symSize: 0x1D4 }
  - { offset: 0x1760E8, size: 0x8, addend: 0x0, symName: __ZN8worklets19SerializableWorklet9toJSValueERN8facebook3jsi7RuntimeE, symObjAddr: 0x481C, symBinAddr: 0x1DEFC, symSize: 0xF0 }
  - { offset: 0x1763EF, size: 0x8, addend: 0x0, symName: __ZNK8facebook3jsi8Function4callIJRNS0_5ValueENS0_6StringEEEES3_RNS0_7RuntimeEDpOT_, symObjAddr: 0x490C, symBinAddr: 0x1DFEC, symSize: 0x130 }
  - { offset: 0x1767DF, size: 0x8, addend: 0x0, symName: __ZN8worklets18SerializableImport9toJSValueERN8facebook3jsi7RuntimeE, symObjAddr: 0x4A3C, symBinAddr: 0x1E11C, symSize: 0x2F0 }
  - { offset: 0x17725A, size: 0x8, addend: 0x0, symName: __ZN8worklets26SerializableRemoteFunction9toJSValueERN8facebook3jsi7RuntimeE, symObjAddr: 0x4D2C, symBinAddr: 0x1E40C, symSize: 0x11C }
  - { offset: 0x1775F0, size: 0x8, addend: 0x0, symName: __ZNSt3__110shared_ptrIN8worklets26SerializableRemoteFunctionEEC2B8ne200100IS2_Li0EEERKNS_8weak_ptrIT_EE, symObjAddr: 0x8D88, symBinAddr: 0x217D0, symSize: 0x40 }
  - { offset: 0x17762E, size: 0x8, addend: 0x0, symName: __ZNSt3__120__throw_bad_weak_ptrB8ne200100Ev, symObjAddr: 0x8DC8, symBinAddr: 0x21810, symSize: 0x34 }
  - { offset: 0x177809, size: 0x8, addend: 0x0, symName: __ZN8worklets23SerializableInitializer9toJSValueERN8facebook3jsi7RuntimeE, symObjAddr: 0x4E48, symBinAddr: 0x1E528, symSize: 0x27C }
  - { offset: 0x17808B, size: 0x8, addend: 0x0, symName: __ZNSt3__110unique_ptrIN8facebook3jsi5ValueENS_14default_deleteIS3_EEE5resetB8ne200100EPS3_, symObjAddr: 0x66D8, symBinAddr: 0x1F734, symSize: 0x28 }
  - { offset: 0x17815B, size: 0x8, addend: 0x0, symName: __ZN8worklets18SerializableString9toJSValueERN8facebook3jsi7RuntimeE, symObjAddr: 0x50C4, symBinAddr: 0x1E7A4, symSize: 0x68 }
  - { offset: 0x178355, size: 0x8, addend: 0x0, symName: __ZN8worklets18SerializableBigInt9toJSValueERN8facebook3jsi7RuntimeE, symObjAddr: 0x512C, symBinAddr: 0x1E80C, symSize: 0x1C8 }
  - { offset: 0x1789AC, size: 0x8, addend: 0x0, symName: __ZN8worklets18SerializableScalar9toJSValueERN8facebook3jsi7RuntimeE, symObjAddr: 0x52F4, symBinAddr: 0x1E9D4, symSize: 0xB4 }
  - { offset: 0x178BC2, size: 0x8, addend: 0x0, symName: __ZN8worklets27SerializableTurboModuleLike9toJSValueERN8facebook3jsi7RuntimeE, symObjAddr: 0x53A8, symBinAddr: 0x1EA88, symSize: 0x2AC }
  - { offset: 0x1793C8, size: 0x8, addend: 0x0, symName: __ZN8worklets22SerializableHostObjectD1Ev, symObjAddr: 0x5654, symBinAddr: 0x1ED34, symSize: 0x30 }
  - { offset: 0x179450, size: 0x8, addend: 0x0, symName: __ZN8worklets22SerializableHostObjectD0Ev, symObjAddr: 0x5684, symBinAddr: 0x1ED64, symSize: 0x30 }
  - { offset: 0x179500, size: 0x8, addend: 0x0, symName: __ZN8worklets24SerializableHostFunctionD1Ev, symObjAddr: 0x56B4, symBinAddr: 0x1ED94, symSize: 0x68 }
  - { offset: 0x1796EF, size: 0x8, addend: 0x0, symName: __ZN8worklets24SerializableHostFunctionD0Ev, symObjAddr: 0x571C, symBinAddr: 0x1EDFC, symSize: 0x68 }
  - { offset: 0x179A0E, size: 0x8, addend: 0x0, symName: __ZN8worklets23SerializableArrayBufferD1Ev, symObjAddr: 0x5784, symBinAddr: 0x1EE64, symSize: 0x3C }
  - { offset: 0x179B8C, size: 0x8, addend: 0x0, symName: __ZN8worklets23SerializableArrayBufferD0Ev, symObjAddr: 0x57C0, symBinAddr: 0x1EEA0, symSize: 0x3C }
  - { offset: 0x179D31, size: 0x8, addend: 0x0, symName: __ZN8worklets18SerializableObjectD0Ev, symObjAddr: 0x57FC, symBinAddr: 0x1EEDC, symSize: 0x50 }
  - { offset: 0x179E6F, size: 0x8, addend: 0x0, symName: __ZN8worklets19SerializableWorkletD1Ev, symObjAddr: 0x584C, symBinAddr: 0x1EF2C, symSize: 0x4C }
  - { offset: 0x179FA5, size: 0x8, addend: 0x0, symName: __ZN8worklets19SerializableWorkletD0Ev, symObjAddr: 0x5898, symBinAddr: 0x1EF78, symSize: 0x50 }
  - { offset: 0x17A103, size: 0x8, addend: 0x0, symName: __ZN8worklets18SerializableImportD1Ev, symObjAddr: 0x58E8, symBinAddr: 0x1EFC8, symSize: 0x3C }
  - { offset: 0x17A266, size: 0x8, addend: 0x0, symName: __ZN8worklets18SerializableImportD0Ev, symObjAddr: 0x5924, symBinAddr: 0x1F004, symSize: 0x3C }
  - { offset: 0x17A3D4, size: 0x8, addend: 0x0, symName: __ZN8worklets26SerializableRemoteFunctionD1Ev, symObjAddr: 0x5960, symBinAddr: 0x1F040, symSize: 0x4 }
  - { offset: 0x17A3F7, size: 0x8, addend: 0x0, symName: __ZN8worklets26SerializableRemoteFunctionD1Ev, symObjAddr: 0x5960, symBinAddr: 0x1F040, symSize: 0x4 }
  - { offset: 0x17A40B, size: 0x8, addend: 0x0, symName: __ZN8worklets26SerializableRemoteFunctionD2Ev, symObjAddr: 0x63C0, symBinAddr: 0x1F5E0, symSize: 0x5C }
  - { offset: 0x17A537, size: 0x8, addend: 0x0, symName: __ZN8worklets26SerializableRemoteFunctionD0Ev, symObjAddr: 0x5964, symBinAddr: 0x1F044, symSize: 0x14 }
  - { offset: 0x17A593, size: 0x8, addend: 0x0, symName: __ZN8worklets23SerializableInitializerD1Ev, symObjAddr: 0x5978, symBinAddr: 0x1F058, symSize: 0x4 }
  - { offset: 0x17A5B6, size: 0x8, addend: 0x0, symName: __ZN8worklets23SerializableInitializerD1Ev, symObjAddr: 0x5978, symBinAddr: 0x1F058, symSize: 0x4 }
  - { offset: 0x17A5CA, size: 0x8, addend: 0x0, symName: __ZN8worklets23SerializableInitializerD2Ev, symObjAddr: 0x64A4, symBinAddr: 0x1F6C4, symSize: 0x70 }
  - { offset: 0x17A738, size: 0x8, addend: 0x0, symName: __ZN8worklets23SerializableInitializerD0Ev, symObjAddr: 0x597C, symBinAddr: 0x1F05C, symSize: 0x14 }
  - { offset: 0x17A7B1, size: 0x8, addend: 0x0, symName: __ZN8worklets18SerializableStringD1Ev, symObjAddr: 0x5990, symBinAddr: 0x1F070, symSize: 0x3C }
  - { offset: 0x17A914, size: 0x8, addend: 0x0, symName: __ZN8worklets18SerializableStringD0Ev, symObjAddr: 0x59CC, symBinAddr: 0x1F0AC, symSize: 0x3C }
  - { offset: 0x17AA9F, size: 0x8, addend: 0x0, symName: __ZN8worklets18SerializableBigIntD1Ev, symObjAddr: 0x5A08, symBinAddr: 0x1F0E8, symSize: 0x3C }
  - { offset: 0x17AC02, size: 0x8, addend: 0x0, symName: __ZN8worklets18SerializableBigIntD0Ev, symObjAddr: 0x5A44, symBinAddr: 0x1F124, symSize: 0x3C }
  - { offset: 0x17AD70, size: 0x8, addend: 0x0, symName: __ZN8worklets18SerializableScalarD1Ev, symObjAddr: 0x5A80, symBinAddr: 0x1F160, symSize: 0x4 }
  - { offset: 0x17AD9C, size: 0x8, addend: 0x0, symName: __ZN8worklets18SerializableScalarD0Ev, symObjAddr: 0x5A84, symBinAddr: 0x1F164, symSize: 0x4 }
  - { offset: 0x17AF01, size: 0x8, addend: 0x0, symName: __ZN8worklets27SerializableTurboModuleLikeD1Ev, symObjAddr: 0x5A88, symBinAddr: 0x1F168, symSize: 0x5C }
  - { offset: 0x17B09C, size: 0x8, addend: 0x0, symName: __ZN8worklets27SerializableTurboModuleLikeD0Ev, symObjAddr: 0x5AE4, symBinAddr: 0x1F1C4, symSize: 0x5C }
  - { offset: 0x17B25E, size: 0x8, addend: 0x0, symName: __ZN8worklets17SerializableArrayD1Ev, symObjAddr: 0x5B40, symBinAddr: 0x1F220, symSize: 0x44 }
  - { offset: 0x17B352, size: 0x8, addend: 0x0, symName: __ZN8worklets17SerializableArrayD0Ev, symObjAddr: 0x5B84, symBinAddr: 0x1F264, symSize: 0x48 }
  - { offset: 0x17B46D, size: 0x8, addend: 0x0, symName: __ZN8worklets15SerializableMapD1Ev, symObjAddr: 0x5BCC, symBinAddr: 0x1F2AC, symSize: 0x44 }
  - { offset: 0x17B564, size: 0x8, addend: 0x0, symName: __ZN8worklets15SerializableMapD0Ev, symObjAddr: 0x5C10, symBinAddr: 0x1F2F0, symSize: 0x48 }
  - { offset: 0x17B683, size: 0x8, addend: 0x0, symName: __ZN8worklets15SerializableSetD1Ev, symObjAddr: 0x5C58, symBinAddr: 0x1F338, symSize: 0x44 }
  - { offset: 0x17B77A, size: 0x8, addend: 0x0, symName: __ZN8worklets15SerializableSetD0Ev, symObjAddr: 0x5C9C, symBinAddr: 0x1F37C, symSize: 0x48 }
  - { offset: 0x17BEDB, size: 0x8, addend: 0x0, symName: __ZNSt3__114__split_bufferINS_4pairINS_10shared_ptrIN8worklets12SerializableEEES5_EERNS_9allocatorIS6_EEE17__destruct_at_endB8ne200100EPS6_, symObjAddr: 0x626C, symBinAddr: 0x1F4F0, symSize: 0x58 }
  - { offset: 0x17BF14, size: 0x8, addend: 0x0, symName: __ZNSt3__114__split_bufferINS_4pairINS_10shared_ptrIN8worklets12SerializableEEES5_EERNS_9allocatorIS6_EEE17__destruct_at_endB8ne200100EPS6_, symObjAddr: 0x626C, symBinAddr: 0x1F4F0, symSize: 0x58 }
  - { offset: 0x17C0B8, size: 0x8, addend: 0x0, symName: __ZNSt3__16vectorINS_4pairINS_10shared_ptrIN8worklets12SerializableEEES5_EENS_9allocatorIS6_EEE22__base_destruct_at_endB8ne200100EPS6_, symObjAddr: 0x6304, symBinAddr: 0x1F588, symSize: 0x58 }
  - { offset: 0x17C2FC, size: 0x8, addend: 0x0, symName: __ZN8worklets22WorkletRuntimeRegistry14isRuntimeAliveEPN8facebook3jsi7RuntimeE, symObjAddr: 0x641C, symBinAddr: 0x1F63C, symSize: 0x88 }
  - { offset: 0x17C84F, size: 0x8, addend: 0x0, symName: __ZNSt3__120__shared_ptr_emplaceIN8worklets21RetainingSerializableINS1_17SerializableArrayEEENS_9allocatorIS4_EEEC2B8ne200100IJRN8facebook3jsi7RuntimeENSA_5ArrayEES6_Li0EEES6_DpOT_, symObjAddr: 0x6760, symBinAddr: 0x1F7BC, symSize: 0x68 }
  - { offset: 0x17CACB, size: 0x8, addend: 0x0, symName: __ZNSt3__120__shared_ptr_emplaceIN8worklets21RetainingSerializableINS1_17SerializableArrayEEENS_9allocatorIS4_EEED1Ev, symObjAddr: 0x67C8, symBinAddr: 0x1F824, symSize: 0x14 }
  - { offset: 0x17CAED, size: 0x8, addend: 0x0, symName: __ZNSt3__120__shared_ptr_emplaceIN8worklets21RetainingSerializableINS1_17SerializableArrayEEENS_9allocatorIS4_EEED1Ev, symObjAddr: 0x67C8, symBinAddr: 0x1F824, symSize: 0x14 }
  - { offset: 0x17CB23, size: 0x8, addend: 0x0, symName: __ZNSt3__120__shared_ptr_emplaceIN8worklets21RetainingSerializableINS1_17SerializableArrayEEENS_9allocatorIS4_EEED0Ev, symObjAddr: 0x67DC, symBinAddr: 0x1F838, symSize: 0x24 }
  - { offset: 0x17CBEF, size: 0x8, addend: 0x0, symName: __ZNSt3__120__shared_ptr_emplaceIN8worklets21RetainingSerializableINS1_17SerializableArrayEEENS_9allocatorIS4_EEE16__on_zero_sharedEv, symObjAddr: 0x6800, symBinAddr: 0x1F85C, symSize: 0xC }
  - { offset: 0x17CC18, size: 0x8, addend: 0x0, symName: __ZNSt3__120__shared_ptr_emplaceIN8worklets21RetainingSerializableINS1_17SerializableArrayEEENS_9allocatorIS4_EEE16__on_zero_sharedEv, symObjAddr: 0x6800, symBinAddr: 0x1F85C, symSize: 0xC }
  - { offset: 0x17CC36, size: 0x8, addend: 0x0, symName: __ZNSt3__120__shared_ptr_emplaceIN8worklets21RetainingSerializableINS1_17SerializableArrayEEENS_9allocatorIS4_EEE16__on_zero_sharedEv, symObjAddr: 0x6800, symBinAddr: 0x1F85C, symSize: 0xC }
  - { offset: 0x17CC54, size: 0x8, addend: 0x0, symName: __ZNSt3__120__shared_ptr_emplaceIN8worklets21RetainingSerializableINS1_17SerializableArrayEEENS_9allocatorIS4_EEE16__on_zero_sharedEv, symObjAddr: 0x6800, symBinAddr: 0x1F85C, symSize: 0xC }
  - { offset: 0x17CC80, size: 0x8, addend: 0x0, symName: __ZNSt3__120__shared_ptr_emplaceIN8worklets21RetainingSerializableINS1_17SerializableArrayEEENS_9allocatorIS4_EEE21__on_zero_shared_weakEv, symObjAddr: 0x680C, symBinAddr: 0x1F868, symSize: 0x4 }
  - { offset: 0x17CCB3, size: 0x8, addend: 0x0, symName: __ZNSt3__120__shared_ptr_emplaceIN8worklets21RetainingSerializableINS1_17SerializableArrayEEENS_9allocatorIS4_EEE21__on_zero_shared_weakEv, symObjAddr: 0x680C, symBinAddr: 0x1F868, symSize: 0x4 }
  - { offset: 0x17CCD4, size: 0x8, addend: 0x0, symName: __ZNSt3__120__shared_ptr_emplaceIN8worklets21RetainingSerializableINS1_17SerializableArrayEEENS_9allocatorIS4_EEE21__on_zero_shared_weakEv, symObjAddr: 0x680C, symBinAddr: 0x1F868, symSize: 0x4 }
  - { offset: 0x17CCF6, size: 0x8, addend: 0x0, symName: __ZNSt3__120__shared_ptr_emplaceIN8worklets21RetainingSerializableINS1_17SerializableArrayEEENS_9allocatorIS4_EEE21__on_zero_shared_weakEv, symObjAddr: 0x680C, symBinAddr: 0x1F868, symSize: 0x4 }
  - { offset: 0x17CD28, size: 0x8, addend: 0x0, symName: __ZNSt3__120__shared_ptr_emplaceIN8worklets21RetainingSerializableINS1_17SerializableArrayEEENS_9allocatorIS4_EEE21__on_zero_shared_weakEv, symObjAddr: 0x680C, symBinAddr: 0x1F868, symSize: 0x4 }
  - { offset: 0x17CD50, size: 0x8, addend: 0x0, symName: __ZN8worklets21RetainingSerializableINS_17SerializableArrayEE9toJSValueERN8facebook3jsi7RuntimeE, symObjAddr: 0x6810, symBinAddr: 0x1F86C, symSize: 0x100 }
  - { offset: 0x17CE56, size: 0x8, addend: 0x0, symName: __ZN8worklets21RetainingSerializableINS_17SerializableArrayEED1Ev, symObjAddr: 0x6910, symBinAddr: 0x1F96C, symSize: 0x50 }
  - { offset: 0x17CF46, size: 0x8, addend: 0x0, symName: __ZN8worklets21RetainingSerializableINS_17SerializableArrayEED2Ev, symObjAddr: 0x6A20, symBinAddr: 0x1FA7C, symSize: 0x58 }
  - { offset: 0x17D021, size: 0x8, addend: 0x0, symName: __ZN8worklets21RetainingSerializableINS_17SerializableArrayEED0Ev, symObjAddr: 0x6960, symBinAddr: 0x1F9BC, symSize: 0x54 }
  - { offset: 0x17D135, size: 0x8, addend: 0x0, symName: __ZTv0_n24_N8worklets21RetainingSerializableINS_17SerializableArrayEE9toJSValueERN8facebook3jsi7RuntimeE, symObjAddr: 0x69B4, symBinAddr: 0x1FA10, symSize: 0x10 }
  - { offset: 0x17D16C, size: 0x8, addend: 0x0, symName: __ZTv0_n32_N8worklets21RetainingSerializableINS_17SerializableArrayEED1Ev, symObjAddr: 0x69C4, symBinAddr: 0x1FA20, symSize: 0x4C }
  - { offset: 0x17D268, size: 0x8, addend: 0x0, symName: __ZTv0_n32_N8worklets21RetainingSerializableINS_17SerializableArrayEED0Ev, symObjAddr: 0x6A10, symBinAddr: 0x1FA6C, symSize: 0x10 }
  - { offset: 0x17D4CE, size: 0x8, addend: 0x0, symName: __ZNSt3__120__shared_ptr_emplaceIN8worklets17SerializableArrayENS_9allocatorIS2_EEEC2B8ne200100IJRN8facebook3jsi7RuntimeENS8_5ArrayEES4_Li0EEES4_DpOT_, symObjAddr: 0x6B30, symBinAddr: 0x1FB34, symSize: 0x4C }
  - { offset: 0x17D6EF, size: 0x8, addend: 0x0, symName: __ZNSt3__120__shared_ptr_emplaceIN8worklets17SerializableArrayENS_9allocatorIS2_EEED1Ev, symObjAddr: 0x6B7C, symBinAddr: 0x1FB80, symSize: 0x14 }
  - { offset: 0x17D711, size: 0x8, addend: 0x0, symName: __ZNSt3__120__shared_ptr_emplaceIN8worklets17SerializableArrayENS_9allocatorIS2_EEED1Ev, symObjAddr: 0x6B7C, symBinAddr: 0x1FB80, symSize: 0x14 }
  - { offset: 0x17D747, size: 0x8, addend: 0x0, symName: __ZNSt3__120__shared_ptr_emplaceIN8worklets17SerializableArrayENS_9allocatorIS2_EEED0Ev, symObjAddr: 0x6B90, symBinAddr: 0x1FB94, symSize: 0x24 }
  - { offset: 0x17D813, size: 0x8, addend: 0x0, symName: __ZNSt3__120__shared_ptr_emplaceIN8worklets17SerializableArrayENS_9allocatorIS2_EEE16__on_zero_sharedEv, symObjAddr: 0x6BB4, symBinAddr: 0x1FBB8, symSize: 0xC }
  - { offset: 0x17D83C, size: 0x8, addend: 0x0, symName: __ZNSt3__120__shared_ptr_emplaceIN8worklets17SerializableArrayENS_9allocatorIS2_EEE16__on_zero_sharedEv, symObjAddr: 0x6BB4, symBinAddr: 0x1FBB8, symSize: 0xC }
  - { offset: 0x17D85A, size: 0x8, addend: 0x0, symName: __ZNSt3__120__shared_ptr_emplaceIN8worklets17SerializableArrayENS_9allocatorIS2_EEE16__on_zero_sharedEv, symObjAddr: 0x6BB4, symBinAddr: 0x1FBB8, symSize: 0xC }
  - { offset: 0x17D878, size: 0x8, addend: 0x0, symName: __ZNSt3__120__shared_ptr_emplaceIN8worklets17SerializableArrayENS_9allocatorIS2_EEE16__on_zero_sharedEv, symObjAddr: 0x6BB4, symBinAddr: 0x1FBB8, symSize: 0xC }
  - { offset: 0x17D8A4, size: 0x8, addend: 0x0, symName: __ZNSt3__120__shared_ptr_emplaceIN8worklets17SerializableArrayENS_9allocatorIS2_EEE21__on_zero_shared_weakEv, symObjAddr: 0x6BC0, symBinAddr: 0x1FBC4, symSize: 0x4 }
  - { offset: 0x17D8D7, size: 0x8, addend: 0x0, symName: __ZNSt3__120__shared_ptr_emplaceIN8worklets17SerializableArrayENS_9allocatorIS2_EEE21__on_zero_shared_weakEv, symObjAddr: 0x6BC0, symBinAddr: 0x1FBC4, symSize: 0x4 }
  - { offset: 0x17D8F8, size: 0x8, addend: 0x0, symName: __ZNSt3__120__shared_ptr_emplaceIN8worklets17SerializableArrayENS_9allocatorIS2_EEE21__on_zero_shared_weakEv, symObjAddr: 0x6BC0, symBinAddr: 0x1FBC4, symSize: 0x4 }
  - { offset: 0x17D91A, size: 0x8, addend: 0x0, symName: __ZNSt3__120__shared_ptr_emplaceIN8worklets17SerializableArrayENS_9allocatorIS2_EEE21__on_zero_shared_weakEv, symObjAddr: 0x6BC0, symBinAddr: 0x1FBC4, symSize: 0x4 }
  - { offset: 0x17D94C, size: 0x8, addend: 0x0, symName: __ZNSt3__120__shared_ptr_emplaceIN8worklets17SerializableArrayENS_9allocatorIS2_EEE21__on_zero_shared_weakEv, symObjAddr: 0x6BC0, symBinAddr: 0x1FBC4, symSize: 0x4 }
  - { offset: 0x17DBB5, size: 0x8, addend: 0x0, symName: __ZNSt3__120__shared_ptr_emplaceIN8worklets23SerializableArrayBufferENS_9allocatorIS2_EEEC2B8ne200100IJRN8facebook3jsi7RuntimeENS8_11ArrayBufferEES4_Li0EEES4_DpOT_, symObjAddr: 0x6C24, symBinAddr: 0x1FC28, symSize: 0x4C }
  - { offset: 0x17DDB7, size: 0x8, addend: 0x0, symName: __ZN8worklets23SerializableArrayBufferC2ERN8facebook3jsi7RuntimeERKNS2_11ArrayBufferE, symObjAddr: 0x6CB8, symBinAddr: 0x1FCBC, symSize: 0xAC }
  - { offset: 0x17DFC7, size: 0x8, addend: 0x0, symName: __ZNSt3__120__shared_ptr_emplaceIN8worklets23SerializableArrayBufferENS_9allocatorIS2_EEED1Ev, symObjAddr: 0x6C70, symBinAddr: 0x1FC74, symSize: 0x14 }
  - { offset: 0x17DFE9, size: 0x8, addend: 0x0, symName: __ZNSt3__120__shared_ptr_emplaceIN8worklets23SerializableArrayBufferENS_9allocatorIS2_EEED1Ev, symObjAddr: 0x6C70, symBinAddr: 0x1FC74, symSize: 0x14 }
  - { offset: 0x17E01F, size: 0x8, addend: 0x0, symName: __ZNSt3__120__shared_ptr_emplaceIN8worklets23SerializableArrayBufferENS_9allocatorIS2_EEED0Ev, symObjAddr: 0x6C84, symBinAddr: 0x1FC88, symSize: 0x24 }
  - { offset: 0x17E0EB, size: 0x8, addend: 0x0, symName: __ZNSt3__120__shared_ptr_emplaceIN8worklets23SerializableArrayBufferENS_9allocatorIS2_EEE16__on_zero_sharedEv, symObjAddr: 0x6CA8, symBinAddr: 0x1FCAC, symSize: 0xC }
  - { offset: 0x17E114, size: 0x8, addend: 0x0, symName: __ZNSt3__120__shared_ptr_emplaceIN8worklets23SerializableArrayBufferENS_9allocatorIS2_EEE16__on_zero_sharedEv, symObjAddr: 0x6CA8, symBinAddr: 0x1FCAC, symSize: 0xC }
  - { offset: 0x17E132, size: 0x8, addend: 0x0, symName: __ZNSt3__120__shared_ptr_emplaceIN8worklets23SerializableArrayBufferENS_9allocatorIS2_EEE16__on_zero_sharedEv, symObjAddr: 0x6CA8, symBinAddr: 0x1FCAC, symSize: 0xC }
  - { offset: 0x17E150, size: 0x8, addend: 0x0, symName: __ZNSt3__120__shared_ptr_emplaceIN8worklets23SerializableArrayBufferENS_9allocatorIS2_EEE16__on_zero_sharedEv, symObjAddr: 0x6CA8, symBinAddr: 0x1FCAC, symSize: 0xC }
  - { offset: 0x17E17C, size: 0x8, addend: 0x0, symName: __ZNSt3__120__shared_ptr_emplaceIN8worklets23SerializableArrayBufferENS_9allocatorIS2_EEE21__on_zero_shared_weakEv, symObjAddr: 0x6CB4, symBinAddr: 0x1FCB8, symSize: 0x4 }
  - { offset: 0x17E1AF, size: 0x8, addend: 0x0, symName: __ZNSt3__120__shared_ptr_emplaceIN8worklets23SerializableArrayBufferENS_9allocatorIS2_EEE21__on_zero_shared_weakEv, symObjAddr: 0x6CB4, symBinAddr: 0x1FCB8, symSize: 0x4 }
  - { offset: 0x17E1D0, size: 0x8, addend: 0x0, symName: __ZNSt3__120__shared_ptr_emplaceIN8worklets23SerializableArrayBufferENS_9allocatorIS2_EEE21__on_zero_shared_weakEv, symObjAddr: 0x6CB4, symBinAddr: 0x1FCB8, symSize: 0x4 }
  - { offset: 0x17E1F2, size: 0x8, addend: 0x0, symName: __ZNSt3__120__shared_ptr_emplaceIN8worklets23SerializableArrayBufferENS_9allocatorIS2_EEE21__on_zero_shared_weakEv, symObjAddr: 0x6CB4, symBinAddr: 0x1FCB8, symSize: 0x4 }
  - { offset: 0x17E224, size: 0x8, addend: 0x0, symName: __ZNSt3__120__shared_ptr_emplaceIN8worklets23SerializableArrayBufferENS_9allocatorIS2_EEE21__on_zero_shared_weakEv, symObjAddr: 0x6CB4, symBinAddr: 0x1FCB8, symSize: 0x4 }
  - { offset: 0x17E2FB, size: 0x8, addend: 0x0, symName: __ZNSt3__16vectorIhNS_9allocatorIhEEE16__init_with_sizeB8ne200100IPhS5_EEvT_T0_m, symObjAddr: 0x6D64, symBinAddr: 0x1FD68, symSize: 0x78 }
  - { offset: 0x17E877, size: 0x8, addend: 0x0, symName: __ZNSt3__16vectorIhNS_9allocatorIhEEE11__vallocateB8ne200100Em, symObjAddr: 0x6DDC, symBinAddr: 0x1FDE0, symSize: 0x3C }
  - { offset: 0x17E9AA, size: 0x8, addend: 0x0, symName: __ZNSt3__120__shared_ptr_emplaceIN8worklets22SerializableHostObjectENS_9allocatorIS2_EEED1Ev, symObjAddr: 0x6E84, symBinAddr: 0x1FE1C, symSize: 0x14 }
  - { offset: 0x17E9CC, size: 0x8, addend: 0x0, symName: __ZNSt3__120__shared_ptr_emplaceIN8worklets22SerializableHostObjectENS_9allocatorIS2_EEED1Ev, symObjAddr: 0x6E84, symBinAddr: 0x1FE1C, symSize: 0x14 }
  - { offset: 0x17EA02, size: 0x8, addend: 0x0, symName: __ZNSt3__120__shared_ptr_emplaceIN8worklets22SerializableHostObjectENS_9allocatorIS2_EEED0Ev, symObjAddr: 0x6E98, symBinAddr: 0x1FE30, symSize: 0x24 }
  - { offset: 0x17EACE, size: 0x8, addend: 0x0, symName: __ZNSt3__120__shared_ptr_emplaceIN8worklets22SerializableHostObjectENS_9allocatorIS2_EEE16__on_zero_sharedEv, symObjAddr: 0x6EBC, symBinAddr: 0x1FE54, symSize: 0xC }
  - { offset: 0x17EAF7, size: 0x8, addend: 0x0, symName: __ZNSt3__120__shared_ptr_emplaceIN8worklets22SerializableHostObjectENS_9allocatorIS2_EEE16__on_zero_sharedEv, symObjAddr: 0x6EBC, symBinAddr: 0x1FE54, symSize: 0xC }
  - { offset: 0x17EB15, size: 0x8, addend: 0x0, symName: __ZNSt3__120__shared_ptr_emplaceIN8worklets22SerializableHostObjectENS_9allocatorIS2_EEE16__on_zero_sharedEv, symObjAddr: 0x6EBC, symBinAddr: 0x1FE54, symSize: 0xC }
  - { offset: 0x17EB33, size: 0x8, addend: 0x0, symName: __ZNSt3__120__shared_ptr_emplaceIN8worklets22SerializableHostObjectENS_9allocatorIS2_EEE16__on_zero_sharedEv, symObjAddr: 0x6EBC, symBinAddr: 0x1FE54, symSize: 0xC }
  - { offset: 0x17EBBC, size: 0x8, addend: 0x0, symName: __ZNSt3__120__shared_ptr_emplaceIN8worklets22SerializableHostObjectENS_9allocatorIS2_EEE21__on_zero_shared_weakEv, symObjAddr: 0x6EC8, symBinAddr: 0x1FE60, symSize: 0x4 }
  - { offset: 0x17EBEF, size: 0x8, addend: 0x0, symName: __ZNSt3__120__shared_ptr_emplaceIN8worklets22SerializableHostObjectENS_9allocatorIS2_EEE21__on_zero_shared_weakEv, symObjAddr: 0x6EC8, symBinAddr: 0x1FE60, symSize: 0x4 }
  - { offset: 0x17EC10, size: 0x8, addend: 0x0, symName: __ZNSt3__120__shared_ptr_emplaceIN8worklets22SerializableHostObjectENS_9allocatorIS2_EEE21__on_zero_shared_weakEv, symObjAddr: 0x6EC8, symBinAddr: 0x1FE60, symSize: 0x4 }
  - { offset: 0x17EC32, size: 0x8, addend: 0x0, symName: __ZNSt3__120__shared_ptr_emplaceIN8worklets22SerializableHostObjectENS_9allocatorIS2_EEE21__on_zero_shared_weakEv, symObjAddr: 0x6EC8, symBinAddr: 0x1FE60, symSize: 0x4 }
  - { offset: 0x17EC64, size: 0x8, addend: 0x0, symName: __ZNSt3__120__shared_ptr_emplaceIN8worklets22SerializableHostObjectENS_9allocatorIS2_EEE21__on_zero_shared_weakEv, symObjAddr: 0x6EC8, symBinAddr: 0x1FE60, symSize: 0x4 }
  - { offset: 0x17EEDD, size: 0x8, addend: 0x0, symName: __ZNSt3__120__shared_ptr_emplaceIN8worklets21RetainingSerializableINS1_18SerializableObjectEEENS_9allocatorIS4_EEEC2B8ne200100IJRN8facebook3jsi7RuntimeERNSA_6ObjectERKNSA_5ValueEES6_Li0EEES6_DpOT_, symObjAddr: 0x6F94, symBinAddr: 0x1FED4, symSize: 0x68 }
  - { offset: 0x17F19A, size: 0x8, addend: 0x0, symName: __ZNSt3__120__shared_ptr_emplaceIN8worklets21RetainingSerializableINS1_18SerializableObjectEEENS_9allocatorIS4_EEED1Ev, symObjAddr: 0x6FFC, symBinAddr: 0x1FF3C, symSize: 0x14 }
  - { offset: 0x17F1BC, size: 0x8, addend: 0x0, symName: __ZNSt3__120__shared_ptr_emplaceIN8worklets21RetainingSerializableINS1_18SerializableObjectEEENS_9allocatorIS4_EEED1Ev, symObjAddr: 0x6FFC, symBinAddr: 0x1FF3C, symSize: 0x14 }
  - { offset: 0x17F1F2, size: 0x8, addend: 0x0, symName: __ZNSt3__120__shared_ptr_emplaceIN8worklets21RetainingSerializableINS1_18SerializableObjectEEENS_9allocatorIS4_EEED0Ev, symObjAddr: 0x7010, symBinAddr: 0x1FF50, symSize: 0x24 }
  - { offset: 0x17F2BE, size: 0x8, addend: 0x0, symName: __ZNSt3__120__shared_ptr_emplaceIN8worklets21RetainingSerializableINS1_18SerializableObjectEEENS_9allocatorIS4_EEE16__on_zero_sharedEv, symObjAddr: 0x7034, symBinAddr: 0x1FF74, symSize: 0xC }
  - { offset: 0x17F2E7, size: 0x8, addend: 0x0, symName: __ZNSt3__120__shared_ptr_emplaceIN8worklets21RetainingSerializableINS1_18SerializableObjectEEENS_9allocatorIS4_EEE16__on_zero_sharedEv, symObjAddr: 0x7034, symBinAddr: 0x1FF74, symSize: 0xC }
  - { offset: 0x17F305, size: 0x8, addend: 0x0, symName: __ZNSt3__120__shared_ptr_emplaceIN8worklets21RetainingSerializableINS1_18SerializableObjectEEENS_9allocatorIS4_EEE16__on_zero_sharedEv, symObjAddr: 0x7034, symBinAddr: 0x1FF74, symSize: 0xC }
  - { offset: 0x17F323, size: 0x8, addend: 0x0, symName: __ZNSt3__120__shared_ptr_emplaceIN8worklets21RetainingSerializableINS1_18SerializableObjectEEENS_9allocatorIS4_EEE16__on_zero_sharedEv, symObjAddr: 0x7034, symBinAddr: 0x1FF74, symSize: 0xC }
  - { offset: 0x17F34F, size: 0x8, addend: 0x0, symName: __ZNSt3__120__shared_ptr_emplaceIN8worklets21RetainingSerializableINS1_18SerializableObjectEEENS_9allocatorIS4_EEE21__on_zero_shared_weakEv, symObjAddr: 0x7040, symBinAddr: 0x1FF80, symSize: 0x4 }
  - { offset: 0x17F382, size: 0x8, addend: 0x0, symName: __ZNSt3__120__shared_ptr_emplaceIN8worklets21RetainingSerializableINS1_18SerializableObjectEEENS_9allocatorIS4_EEE21__on_zero_shared_weakEv, symObjAddr: 0x7040, symBinAddr: 0x1FF80, symSize: 0x4 }
  - { offset: 0x17F3A3, size: 0x8, addend: 0x0, symName: __ZNSt3__120__shared_ptr_emplaceIN8worklets21RetainingSerializableINS1_18SerializableObjectEEENS_9allocatorIS4_EEE21__on_zero_shared_weakEv, symObjAddr: 0x7040, symBinAddr: 0x1FF80, symSize: 0x4 }
  - { offset: 0x17F3C5, size: 0x8, addend: 0x0, symName: __ZNSt3__120__shared_ptr_emplaceIN8worklets21RetainingSerializableINS1_18SerializableObjectEEENS_9allocatorIS4_EEE21__on_zero_shared_weakEv, symObjAddr: 0x7040, symBinAddr: 0x1FF80, symSize: 0x4 }
  - { offset: 0x17F3F7, size: 0x8, addend: 0x0, symName: __ZNSt3__120__shared_ptr_emplaceIN8worklets21RetainingSerializableINS1_18SerializableObjectEEENS_9allocatorIS4_EEE21__on_zero_shared_weakEv, symObjAddr: 0x7040, symBinAddr: 0x1FF80, symSize: 0x4 }
  - { offset: 0x17F41F, size: 0x8, addend: 0x0, symName: __ZN8worklets21RetainingSerializableINS_18SerializableObjectEE9toJSValueERN8facebook3jsi7RuntimeE, symObjAddr: 0x7044, symBinAddr: 0x1FF84, symSize: 0x100 }
  - { offset: 0x17F525, size: 0x8, addend: 0x0, symName: __ZN8worklets21RetainingSerializableINS_18SerializableObjectEED1Ev, symObjAddr: 0x7144, symBinAddr: 0x20084, symSize: 0x58 }
  - { offset: 0x17F640, size: 0x8, addend: 0x0, symName: __ZN8worklets21RetainingSerializableINS_18SerializableObjectEED2Ev, symObjAddr: 0x7200, symBinAddr: 0x20140, symSize: 0x58 }
  - { offset: 0x17F701, size: 0x8, addend: 0x0, symName: __ZN8worklets21RetainingSerializableINS_18SerializableObjectEED0Ev, symObjAddr: 0x719C, symBinAddr: 0x200DC, symSize: 0x14 }
  - { offset: 0x17F737, size: 0x8, addend: 0x0, symName: __ZTv0_n24_N8worklets21RetainingSerializableINS_18SerializableObjectEE9toJSValueERN8facebook3jsi7RuntimeE, symObjAddr: 0x71B0, symBinAddr: 0x200F0, symSize: 0x10 }
  - { offset: 0x17F76E, size: 0x8, addend: 0x0, symName: __ZTv0_n32_N8worklets21RetainingSerializableINS_18SerializableObjectEED1Ev, symObjAddr: 0x71C0, symBinAddr: 0x20100, symSize: 0x10 }
  - { offset: 0x17F7AD, size: 0x8, addend: 0x0, symName: __ZTv0_n32_N8worklets21RetainingSerializableINS_18SerializableObjectEED0Ev, symObjAddr: 0x71D0, symBinAddr: 0x20110, symSize: 0x30 }
  - { offset: 0x17FA2F, size: 0x8, addend: 0x0, symName: __ZNSt3__120__shared_ptr_emplaceIN8worklets18SerializableObjectENS_9allocatorIS2_EEEC2B8ne200100IJRN8facebook3jsi7RuntimeERNS8_6ObjectERKNS8_5ValueEES4_Li0EEES4_DpOT_, symObjAddr: 0x7320, symBinAddr: 0x20208, symSize: 0x4C }
  - { offset: 0x17FC3B, size: 0x8, addend: 0x0, symName: __ZNSt3__120__shared_ptr_emplaceIN8worklets18SerializableObjectENS_9allocatorIS2_EEED1Ev, symObjAddr: 0x736C, symBinAddr: 0x20254, symSize: 0x14 }
  - { offset: 0x17FC5D, size: 0x8, addend: 0x0, symName: __ZNSt3__120__shared_ptr_emplaceIN8worklets18SerializableObjectENS_9allocatorIS2_EEED1Ev, symObjAddr: 0x736C, symBinAddr: 0x20254, symSize: 0x14 }
  - { offset: 0x17FC93, size: 0x8, addend: 0x0, symName: __ZNSt3__120__shared_ptr_emplaceIN8worklets18SerializableObjectENS_9allocatorIS2_EEED0Ev, symObjAddr: 0x7380, symBinAddr: 0x20268, symSize: 0x24 }
  - { offset: 0x17FD5F, size: 0x8, addend: 0x0, symName: __ZNSt3__120__shared_ptr_emplaceIN8worklets18SerializableObjectENS_9allocatorIS2_EEE16__on_zero_sharedEv, symObjAddr: 0x73A4, symBinAddr: 0x2028C, symSize: 0xC }
  - { offset: 0x17FD88, size: 0x8, addend: 0x0, symName: __ZNSt3__120__shared_ptr_emplaceIN8worklets18SerializableObjectENS_9allocatorIS2_EEE16__on_zero_sharedEv, symObjAddr: 0x73A4, symBinAddr: 0x2028C, symSize: 0xC }
  - { offset: 0x17FDA6, size: 0x8, addend: 0x0, symName: __ZNSt3__120__shared_ptr_emplaceIN8worklets18SerializableObjectENS_9allocatorIS2_EEE16__on_zero_sharedEv, symObjAddr: 0x73A4, symBinAddr: 0x2028C, symSize: 0xC }
  - { offset: 0x17FDC4, size: 0x8, addend: 0x0, symName: __ZNSt3__120__shared_ptr_emplaceIN8worklets18SerializableObjectENS_9allocatorIS2_EEE16__on_zero_sharedEv, symObjAddr: 0x73A4, symBinAddr: 0x2028C, symSize: 0xC }
  - { offset: 0x17FDF0, size: 0x8, addend: 0x0, symName: __ZNSt3__120__shared_ptr_emplaceIN8worklets18SerializableObjectENS_9allocatorIS2_EEE21__on_zero_shared_weakEv, symObjAddr: 0x73B0, symBinAddr: 0x20298, symSize: 0x4 }
  - { offset: 0x17FE23, size: 0x8, addend: 0x0, symName: __ZNSt3__120__shared_ptr_emplaceIN8worklets18SerializableObjectENS_9allocatorIS2_EEE21__on_zero_shared_weakEv, symObjAddr: 0x73B0, symBinAddr: 0x20298, symSize: 0x4 }
  - { offset: 0x17FE44, size: 0x8, addend: 0x0, symName: __ZNSt3__120__shared_ptr_emplaceIN8worklets18SerializableObjectENS_9allocatorIS2_EEE21__on_zero_shared_weakEv, symObjAddr: 0x73B0, symBinAddr: 0x20298, symSize: 0x4 }
  - { offset: 0x17FE66, size: 0x8, addend: 0x0, symName: __ZNSt3__120__shared_ptr_emplaceIN8worklets18SerializableObjectENS_9allocatorIS2_EEE21__on_zero_shared_weakEv, symObjAddr: 0x73B0, symBinAddr: 0x20298, symSize: 0x4 }
  - { offset: 0x17FE98, size: 0x8, addend: 0x0, symName: __ZNSt3__120__shared_ptr_emplaceIN8worklets18SerializableObjectENS_9allocatorIS2_EEE21__on_zero_shared_weakEv, symObjAddr: 0x73B0, symBinAddr: 0x20298, symSize: 0x4 }
  - { offset: 0x1800F1, size: 0x8, addend: 0x0, symName: __ZNSt3__120__shared_ptr_emplaceIN8worklets18SerializableStringENS_9allocatorIS2_EEEC2B8ne200100IJNS_12basic_stringIcNS_11char_traitsIcEENS3_IcEEEEES4_Li0EEES4_DpOT_, symObjAddr: 0x7464, symBinAddr: 0x202F4, symSize: 0x84 }
  - { offset: 0x180535, size: 0x8, addend: 0x0, symName: __ZNSt3__120__shared_ptr_emplaceIN8worklets18SerializableStringENS_9allocatorIS2_EEED1Ev, symObjAddr: 0x74E8, symBinAddr: 0x20378, symSize: 0x14 }
  - { offset: 0x180557, size: 0x8, addend: 0x0, symName: __ZNSt3__120__shared_ptr_emplaceIN8worklets18SerializableStringENS_9allocatorIS2_EEED1Ev, symObjAddr: 0x74E8, symBinAddr: 0x20378, symSize: 0x14 }
  - { offset: 0x18058D, size: 0x8, addend: 0x0, symName: __ZNSt3__120__shared_ptr_emplaceIN8worklets18SerializableStringENS_9allocatorIS2_EEED0Ev, symObjAddr: 0x74FC, symBinAddr: 0x2038C, symSize: 0x24 }
  - { offset: 0x180659, size: 0x8, addend: 0x0, symName: __ZNSt3__120__shared_ptr_emplaceIN8worklets18SerializableStringENS_9allocatorIS2_EEE16__on_zero_sharedEv, symObjAddr: 0x7520, symBinAddr: 0x203B0, symSize: 0xC }
  - { offset: 0x180682, size: 0x8, addend: 0x0, symName: __ZNSt3__120__shared_ptr_emplaceIN8worklets18SerializableStringENS_9allocatorIS2_EEE16__on_zero_sharedEv, symObjAddr: 0x7520, symBinAddr: 0x203B0, symSize: 0xC }
  - { offset: 0x1806A0, size: 0x8, addend: 0x0, symName: __ZNSt3__120__shared_ptr_emplaceIN8worklets18SerializableStringENS_9allocatorIS2_EEE16__on_zero_sharedEv, symObjAddr: 0x7520, symBinAddr: 0x203B0, symSize: 0xC }
  - { offset: 0x1806BE, size: 0x8, addend: 0x0, symName: __ZNSt3__120__shared_ptr_emplaceIN8worklets18SerializableStringENS_9allocatorIS2_EEE16__on_zero_sharedEv, symObjAddr: 0x7520, symBinAddr: 0x203B0, symSize: 0xC }
  - { offset: 0x1806EA, size: 0x8, addend: 0x0, symName: __ZNSt3__120__shared_ptr_emplaceIN8worklets18SerializableStringENS_9allocatorIS2_EEE21__on_zero_shared_weakEv, symObjAddr: 0x752C, symBinAddr: 0x203BC, symSize: 0x4 }
  - { offset: 0x18071D, size: 0x8, addend: 0x0, symName: __ZNSt3__120__shared_ptr_emplaceIN8worklets18SerializableStringENS_9allocatorIS2_EEE21__on_zero_shared_weakEv, symObjAddr: 0x752C, symBinAddr: 0x203BC, symSize: 0x4 }
  - { offset: 0x18073E, size: 0x8, addend: 0x0, symName: __ZNSt3__120__shared_ptr_emplaceIN8worklets18SerializableStringENS_9allocatorIS2_EEE21__on_zero_shared_weakEv, symObjAddr: 0x752C, symBinAddr: 0x203BC, symSize: 0x4 }
  - { offset: 0x180760, size: 0x8, addend: 0x0, symName: __ZNSt3__120__shared_ptr_emplaceIN8worklets18SerializableStringENS_9allocatorIS2_EEE21__on_zero_shared_weakEv, symObjAddr: 0x752C, symBinAddr: 0x203BC, symSize: 0x4 }
  - { offset: 0x180792, size: 0x8, addend: 0x0, symName: __ZNSt3__120__shared_ptr_emplaceIN8worklets18SerializableStringENS_9allocatorIS2_EEE21__on_zero_shared_weakEv, symObjAddr: 0x752C, symBinAddr: 0x203BC, symSize: 0x4 }
  - { offset: 0x1807D6, size: 0x8, addend: 0x0, symName: __ZNSt3__120__shared_ptr_emplaceIN8worklets18SerializableScalarENS_9allocatorIS2_EEED1Ev, symObjAddr: 0x7608, symBinAddr: 0x203C0, symSize: 0x14 }
  - { offset: 0x1807F8, size: 0x8, addend: 0x0, symName: __ZNSt3__120__shared_ptr_emplaceIN8worklets18SerializableScalarENS_9allocatorIS2_EEED1Ev, symObjAddr: 0x7608, symBinAddr: 0x203C0, symSize: 0x14 }
  - { offset: 0x18082E, size: 0x8, addend: 0x0, symName: __ZNSt3__120__shared_ptr_emplaceIN8worklets18SerializableScalarENS_9allocatorIS2_EEED0Ev, symObjAddr: 0x761C, symBinAddr: 0x203D4, symSize: 0x24 }
  - { offset: 0x1808FA, size: 0x8, addend: 0x0, symName: __ZNSt3__120__shared_ptr_emplaceIN8worklets18SerializableScalarENS_9allocatorIS2_EEE16__on_zero_sharedEv, symObjAddr: 0x7640, symBinAddr: 0x203F8, symSize: 0xC }
  - { offset: 0x180923, size: 0x8, addend: 0x0, symName: __ZNSt3__120__shared_ptr_emplaceIN8worklets18SerializableScalarENS_9allocatorIS2_EEE16__on_zero_sharedEv, symObjAddr: 0x7640, symBinAddr: 0x203F8, symSize: 0xC }
  - { offset: 0x180941, size: 0x8, addend: 0x0, symName: __ZNSt3__120__shared_ptr_emplaceIN8worklets18SerializableScalarENS_9allocatorIS2_EEE16__on_zero_sharedEv, symObjAddr: 0x7640, symBinAddr: 0x203F8, symSize: 0xC }
  - { offset: 0x18095F, size: 0x8, addend: 0x0, symName: __ZNSt3__120__shared_ptr_emplaceIN8worklets18SerializableScalarENS_9allocatorIS2_EEE16__on_zero_sharedEv, symObjAddr: 0x7640, symBinAddr: 0x203F8, symSize: 0xC }
  - { offset: 0x1809E8, size: 0x8, addend: 0x0, symName: __ZNSt3__120__shared_ptr_emplaceIN8worklets18SerializableScalarENS_9allocatorIS2_EEE21__on_zero_shared_weakEv, symObjAddr: 0x764C, symBinAddr: 0x20404, symSize: 0x4 }
  - { offset: 0x180A1B, size: 0x8, addend: 0x0, symName: __ZNSt3__120__shared_ptr_emplaceIN8worklets18SerializableScalarENS_9allocatorIS2_EEE21__on_zero_shared_weakEv, symObjAddr: 0x764C, symBinAddr: 0x20404, symSize: 0x4 }
  - { offset: 0x180A3C, size: 0x8, addend: 0x0, symName: __ZNSt3__120__shared_ptr_emplaceIN8worklets18SerializableScalarENS_9allocatorIS2_EEE21__on_zero_shared_weakEv, symObjAddr: 0x764C, symBinAddr: 0x20404, symSize: 0x4 }
  - { offset: 0x180A5E, size: 0x8, addend: 0x0, symName: __ZNSt3__120__shared_ptr_emplaceIN8worklets18SerializableScalarENS_9allocatorIS2_EEE21__on_zero_shared_weakEv, symObjAddr: 0x764C, symBinAddr: 0x20404, symSize: 0x4 }
  - { offset: 0x180A90, size: 0x8, addend: 0x0, symName: __ZNSt3__120__shared_ptr_emplaceIN8worklets18SerializableScalarENS_9allocatorIS2_EEE21__on_zero_shared_weakEv, symObjAddr: 0x764C, symBinAddr: 0x20404, symSize: 0x4 }
  - { offset: 0x180CF9, size: 0x8, addend: 0x0, symName: __ZNSt3__120__shared_ptr_emplaceIN8worklets18SerializableBigIntENS_9allocatorIS2_EEEC2B8ne200100IJRN8facebook3jsi7RuntimeENS8_6BigIntEES4_Li0EEES4_DpOT_, symObjAddr: 0x7708, symBinAddr: 0x20468, symSize: 0x4C }
  - { offset: 0x180EFB, size: 0x8, addend: 0x0, symName: __ZN8worklets18SerializableBigIntC2ERN8facebook3jsi7RuntimeERKNS2_6BigIntE, symObjAddr: 0x779C, symBinAddr: 0x204FC, symSize: 0xA8 }
  - { offset: 0x1810F0, size: 0x8, addend: 0x0, symName: __ZNSt3__120__shared_ptr_emplaceIN8worklets18SerializableBigIntENS_9allocatorIS2_EEED1Ev, symObjAddr: 0x7754, symBinAddr: 0x204B4, symSize: 0x14 }
  - { offset: 0x181112, size: 0x8, addend: 0x0, symName: __ZNSt3__120__shared_ptr_emplaceIN8worklets18SerializableBigIntENS_9allocatorIS2_EEED1Ev, symObjAddr: 0x7754, symBinAddr: 0x204B4, symSize: 0x14 }
  - { offset: 0x181148, size: 0x8, addend: 0x0, symName: __ZNSt3__120__shared_ptr_emplaceIN8worklets18SerializableBigIntENS_9allocatorIS2_EEED0Ev, symObjAddr: 0x7768, symBinAddr: 0x204C8, symSize: 0x24 }
  - { offset: 0x181214, size: 0x8, addend: 0x0, symName: __ZNSt3__120__shared_ptr_emplaceIN8worklets18SerializableBigIntENS_9allocatorIS2_EEE16__on_zero_sharedEv, symObjAddr: 0x778C, symBinAddr: 0x204EC, symSize: 0xC }
  - { offset: 0x18123D, size: 0x8, addend: 0x0, symName: __ZNSt3__120__shared_ptr_emplaceIN8worklets18SerializableBigIntENS_9allocatorIS2_EEE16__on_zero_sharedEv, symObjAddr: 0x778C, symBinAddr: 0x204EC, symSize: 0xC }
  - { offset: 0x18125B, size: 0x8, addend: 0x0, symName: __ZNSt3__120__shared_ptr_emplaceIN8worklets18SerializableBigIntENS_9allocatorIS2_EEE16__on_zero_sharedEv, symObjAddr: 0x778C, symBinAddr: 0x204EC, symSize: 0xC }
  - { offset: 0x181279, size: 0x8, addend: 0x0, symName: __ZNSt3__120__shared_ptr_emplaceIN8worklets18SerializableBigIntENS_9allocatorIS2_EEE16__on_zero_sharedEv, symObjAddr: 0x778C, symBinAddr: 0x204EC, symSize: 0xC }
  - { offset: 0x1812A5, size: 0x8, addend: 0x0, symName: __ZNSt3__120__shared_ptr_emplaceIN8worklets18SerializableBigIntENS_9allocatorIS2_EEE21__on_zero_shared_weakEv, symObjAddr: 0x7798, symBinAddr: 0x204F8, symSize: 0x4 }
  - { offset: 0x1812D8, size: 0x8, addend: 0x0, symName: __ZNSt3__120__shared_ptr_emplaceIN8worklets18SerializableBigIntENS_9allocatorIS2_EEE21__on_zero_shared_weakEv, symObjAddr: 0x7798, symBinAddr: 0x204F8, symSize: 0x4 }
  - { offset: 0x1812F9, size: 0x8, addend: 0x0, symName: __ZNSt3__120__shared_ptr_emplaceIN8worklets18SerializableBigIntENS_9allocatorIS2_EEE21__on_zero_shared_weakEv, symObjAddr: 0x7798, symBinAddr: 0x204F8, symSize: 0x4 }
  - { offset: 0x18131B, size: 0x8, addend: 0x0, symName: __ZNSt3__120__shared_ptr_emplaceIN8worklets18SerializableBigIntENS_9allocatorIS2_EEE21__on_zero_shared_weakEv, symObjAddr: 0x7798, symBinAddr: 0x204F8, symSize: 0x4 }
  - { offset: 0x18134D, size: 0x8, addend: 0x0, symName: __ZNSt3__120__shared_ptr_emplaceIN8worklets18SerializableBigIntENS_9allocatorIS2_EEE21__on_zero_shared_weakEv, symObjAddr: 0x7798, symBinAddr: 0x204F8, symSize: 0x4 }
  - { offset: 0x181405, size: 0x8, addend: 0x0, symName: __ZNSt3__120__shared_ptr_emplaceIN8worklets18SerializableBigIntENS_9allocatorIS2_EEEC2B8ne200100IJRN8facebook3jsi7RuntimeERKNS8_6BigIntEES4_Li0EEES4_DpOT_, symObjAddr: 0x78FC, symBinAddr: 0x20604, symSize: 0x4C }
  - { offset: 0x181811, size: 0x8, addend: 0x0, symName: __ZNSt3__120__shared_ptr_emplaceIN8worklets21RetainingSerializableINS1_19SerializableWorkletEEENS_9allocatorIS4_EEEC2B8ne200100IJRN8facebook3jsi7RuntimeERKNSA_6ObjectEES6_Li0EEES6_DpOT_, symObjAddr: 0x79A8, symBinAddr: 0x206B0, symSize: 0x70 }
  - { offset: 0x181AC0, size: 0x8, addend: 0x0, symName: __ZNSt3__120__shared_ptr_emplaceIN8worklets21RetainingSerializableINS1_19SerializableWorkletEEENS_9allocatorIS4_EEED1Ev, symObjAddr: 0x7A18, symBinAddr: 0x20720, symSize: 0x14 }
  - { offset: 0x181AE2, size: 0x8, addend: 0x0, symName: __ZNSt3__120__shared_ptr_emplaceIN8worklets21RetainingSerializableINS1_19SerializableWorkletEEENS_9allocatorIS4_EEED1Ev, symObjAddr: 0x7A18, symBinAddr: 0x20720, symSize: 0x14 }
  - { offset: 0x181B18, size: 0x8, addend: 0x0, symName: __ZNSt3__120__shared_ptr_emplaceIN8worklets21RetainingSerializableINS1_19SerializableWorkletEEENS_9allocatorIS4_EEED0Ev, symObjAddr: 0x7A2C, symBinAddr: 0x20734, symSize: 0x24 }
  - { offset: 0x181BE4, size: 0x8, addend: 0x0, symName: __ZNSt3__120__shared_ptr_emplaceIN8worklets21RetainingSerializableINS1_19SerializableWorkletEEENS_9allocatorIS4_EEE16__on_zero_sharedEv, symObjAddr: 0x7A50, symBinAddr: 0x20758, symSize: 0xC }
  - { offset: 0x181C0D, size: 0x8, addend: 0x0, symName: __ZNSt3__120__shared_ptr_emplaceIN8worklets21RetainingSerializableINS1_19SerializableWorkletEEENS_9allocatorIS4_EEE16__on_zero_sharedEv, symObjAddr: 0x7A50, symBinAddr: 0x20758, symSize: 0xC }
  - { offset: 0x181C2B, size: 0x8, addend: 0x0, symName: __ZNSt3__120__shared_ptr_emplaceIN8worklets21RetainingSerializableINS1_19SerializableWorkletEEENS_9allocatorIS4_EEE16__on_zero_sharedEv, symObjAddr: 0x7A50, symBinAddr: 0x20758, symSize: 0xC }
  - { offset: 0x181C49, size: 0x8, addend: 0x0, symName: __ZNSt3__120__shared_ptr_emplaceIN8worklets21RetainingSerializableINS1_19SerializableWorkletEEENS_9allocatorIS4_EEE16__on_zero_sharedEv, symObjAddr: 0x7A50, symBinAddr: 0x20758, symSize: 0xC }
  - { offset: 0x181C75, size: 0x8, addend: 0x0, symName: __ZNSt3__120__shared_ptr_emplaceIN8worklets21RetainingSerializableINS1_19SerializableWorkletEEENS_9allocatorIS4_EEE21__on_zero_shared_weakEv, symObjAddr: 0x7A5C, symBinAddr: 0x20764, symSize: 0x4 }
  - { offset: 0x181CA8, size: 0x8, addend: 0x0, symName: __ZNSt3__120__shared_ptr_emplaceIN8worklets21RetainingSerializableINS1_19SerializableWorkletEEENS_9allocatorIS4_EEE21__on_zero_shared_weakEv, symObjAddr: 0x7A5C, symBinAddr: 0x20764, symSize: 0x4 }
  - { offset: 0x181CC9, size: 0x8, addend: 0x0, symName: __ZNSt3__120__shared_ptr_emplaceIN8worklets21RetainingSerializableINS1_19SerializableWorkletEEENS_9allocatorIS4_EEE21__on_zero_shared_weakEv, symObjAddr: 0x7A5C, symBinAddr: 0x20764, symSize: 0x4 }
  - { offset: 0x181CEB, size: 0x8, addend: 0x0, symName: __ZNSt3__120__shared_ptr_emplaceIN8worklets21RetainingSerializableINS1_19SerializableWorkletEEENS_9allocatorIS4_EEE21__on_zero_shared_weakEv, symObjAddr: 0x7A5C, symBinAddr: 0x20764, symSize: 0x4 }
  - { offset: 0x181D1D, size: 0x8, addend: 0x0, symName: __ZNSt3__120__shared_ptr_emplaceIN8worklets21RetainingSerializableINS1_19SerializableWorkletEEENS_9allocatorIS4_EEE21__on_zero_shared_weakEv, symObjAddr: 0x7A5C, symBinAddr: 0x20764, symSize: 0x4 }
  - { offset: 0x181D45, size: 0x8, addend: 0x0, symName: __ZN8worklets21RetainingSerializableINS_19SerializableWorkletEE9toJSValueERN8facebook3jsi7RuntimeE, symObjAddr: 0x7A60, symBinAddr: 0x20768, symSize: 0x100 }
  - { offset: 0x181E4B, size: 0x8, addend: 0x0, symName: __ZN8worklets21RetainingSerializableINS_19SerializableWorkletEED1Ev, symObjAddr: 0x7B60, symBinAddr: 0x20868, symSize: 0x58 }
  - { offset: 0x181F85, size: 0x8, addend: 0x0, symName: __ZN8worklets21RetainingSerializableINS_19SerializableWorkletEED2Ev, symObjAddr: 0x7C1C, symBinAddr: 0x20924, symSize: 0x58 }
  - { offset: 0x182046, size: 0x8, addend: 0x0, symName: __ZN8worklets21RetainingSerializableINS_19SerializableWorkletEED0Ev, symObjAddr: 0x7BB8, symBinAddr: 0x208C0, symSize: 0x14 }
  - { offset: 0x18207C, size: 0x8, addend: 0x0, symName: __ZTv0_n24_N8worklets21RetainingSerializableINS_19SerializableWorkletEE9toJSValueERN8facebook3jsi7RuntimeE, symObjAddr: 0x7BCC, symBinAddr: 0x208D4, symSize: 0x10 }
  - { offset: 0x1820B3, size: 0x8, addend: 0x0, symName: __ZTv0_n32_N8worklets21RetainingSerializableINS_19SerializableWorkletEED1Ev, symObjAddr: 0x7BDC, symBinAddr: 0x208E4, symSize: 0x10 }
  - { offset: 0x1820F2, size: 0x8, addend: 0x0, symName: __ZTv0_n32_N8worklets21RetainingSerializableINS_19SerializableWorkletEED0Ev, symObjAddr: 0x7BEC, symBinAddr: 0x208F4, symSize: 0x30 }
  - { offset: 0x182364, size: 0x8, addend: 0x0, symName: __ZNSt3__120__shared_ptr_emplaceIN8worklets19SerializableWorkletENS_9allocatorIS2_EEEC2B8ne200100IJRN8facebook3jsi7RuntimeERKNS8_6ObjectEES4_Li0EEES4_DpOT_, symObjAddr: 0x7CD4, symBinAddr: 0x209DC, symSize: 0x60 }
  - { offset: 0x1825C4, size: 0x8, addend: 0x0, symName: __ZNSt3__120__shared_ptr_emplaceIN8worklets19SerializableWorkletENS_9allocatorIS2_EEED1Ev, symObjAddr: 0x7D34, symBinAddr: 0x20A3C, symSize: 0x14 }
  - { offset: 0x1825E6, size: 0x8, addend: 0x0, symName: __ZNSt3__120__shared_ptr_emplaceIN8worklets19SerializableWorkletENS_9allocatorIS2_EEED1Ev, symObjAddr: 0x7D34, symBinAddr: 0x20A3C, symSize: 0x14 }
  - { offset: 0x18261C, size: 0x8, addend: 0x0, symName: __ZNSt3__120__shared_ptr_emplaceIN8worklets19SerializableWorkletENS_9allocatorIS2_EEED0Ev, symObjAddr: 0x7D48, symBinAddr: 0x20A50, symSize: 0x24 }
  - { offset: 0x1826E8, size: 0x8, addend: 0x0, symName: __ZNSt3__120__shared_ptr_emplaceIN8worklets19SerializableWorkletENS_9allocatorIS2_EEE16__on_zero_sharedEv, symObjAddr: 0x7D6C, symBinAddr: 0x20A74, symSize: 0xC }
  - { offset: 0x182711, size: 0x8, addend: 0x0, symName: __ZNSt3__120__shared_ptr_emplaceIN8worklets19SerializableWorkletENS_9allocatorIS2_EEE16__on_zero_sharedEv, symObjAddr: 0x7D6C, symBinAddr: 0x20A74, symSize: 0xC }
  - { offset: 0x18272F, size: 0x8, addend: 0x0, symName: __ZNSt3__120__shared_ptr_emplaceIN8worklets19SerializableWorkletENS_9allocatorIS2_EEE16__on_zero_sharedEv, symObjAddr: 0x7D6C, symBinAddr: 0x20A74, symSize: 0xC }
  - { offset: 0x18274D, size: 0x8, addend: 0x0, symName: __ZNSt3__120__shared_ptr_emplaceIN8worklets19SerializableWorkletENS_9allocatorIS2_EEE16__on_zero_sharedEv, symObjAddr: 0x7D6C, symBinAddr: 0x20A74, symSize: 0xC }
  - { offset: 0x182779, size: 0x8, addend: 0x0, symName: __ZNSt3__120__shared_ptr_emplaceIN8worklets19SerializableWorkletENS_9allocatorIS2_EEE21__on_zero_shared_weakEv, symObjAddr: 0x7D78, symBinAddr: 0x20A80, symSize: 0x4 }
  - { offset: 0x1827AC, size: 0x8, addend: 0x0, symName: __ZNSt3__120__shared_ptr_emplaceIN8worklets19SerializableWorkletENS_9allocatorIS2_EEE21__on_zero_shared_weakEv, symObjAddr: 0x7D78, symBinAddr: 0x20A80, symSize: 0x4 }
  - { offset: 0x1827CD, size: 0x8, addend: 0x0, symName: __ZNSt3__120__shared_ptr_emplaceIN8worklets19SerializableWorkletENS_9allocatorIS2_EEE21__on_zero_shared_weakEv, symObjAddr: 0x7D78, symBinAddr: 0x20A80, symSize: 0x4 }
  - { offset: 0x1827EF, size: 0x8, addend: 0x0, symName: __ZNSt3__120__shared_ptr_emplaceIN8worklets19SerializableWorkletENS_9allocatorIS2_EEE21__on_zero_shared_weakEv, symObjAddr: 0x7D78, symBinAddr: 0x20A80, symSize: 0x4 }
  - { offset: 0x182821, size: 0x8, addend: 0x0, symName: __ZNSt3__120__shared_ptr_emplaceIN8worklets19SerializableWorkletENS_9allocatorIS2_EEE21__on_zero_shared_weakEv, symObjAddr: 0x7D78, symBinAddr: 0x20A80, symSize: 0x4 }
  - { offset: 0x182A8A, size: 0x8, addend: 0x0, symName: __ZNSt3__120__shared_ptr_emplaceIN8worklets23SerializableInitializerENS_9allocatorIS2_EEEC2B8ne200100IJRN8facebook3jsi7RuntimeERKNS8_6ObjectEES4_Li0EEES4_DpOT_, symObjAddr: 0x7DDC, symBinAddr: 0x20AE4, symSize: 0x4C }
  - { offset: 0x182C8C, size: 0x8, addend: 0x0, symName: __ZN8worklets23SerializableInitializerC2ERN8facebook3jsi7RuntimeERKNS2_6ObjectE, symObjAddr: 0x7E70, symBinAddr: 0x20B78, symSize: 0x94 }
  - { offset: 0x182E08, size: 0x8, addend: 0x0, symName: __ZNSt3__120__shared_ptr_emplaceIN8worklets23SerializableInitializerENS_9allocatorIS2_EEED1Ev, symObjAddr: 0x7E28, symBinAddr: 0x20B30, symSize: 0x14 }
  - { offset: 0x182E2A, size: 0x8, addend: 0x0, symName: __ZNSt3__120__shared_ptr_emplaceIN8worklets23SerializableInitializerENS_9allocatorIS2_EEED1Ev, symObjAddr: 0x7E28, symBinAddr: 0x20B30, symSize: 0x14 }
  - { offset: 0x182E60, size: 0x8, addend: 0x0, symName: __ZNSt3__120__shared_ptr_emplaceIN8worklets23SerializableInitializerENS_9allocatorIS2_EEED0Ev, symObjAddr: 0x7E3C, symBinAddr: 0x20B44, symSize: 0x24 }
  - { offset: 0x182F2C, size: 0x8, addend: 0x0, symName: __ZNSt3__120__shared_ptr_emplaceIN8worklets23SerializableInitializerENS_9allocatorIS2_EEE16__on_zero_sharedEv, symObjAddr: 0x7E60, symBinAddr: 0x20B68, symSize: 0xC }
  - { offset: 0x182F55, size: 0x8, addend: 0x0, symName: __ZNSt3__120__shared_ptr_emplaceIN8worklets23SerializableInitializerENS_9allocatorIS2_EEE16__on_zero_sharedEv, symObjAddr: 0x7E60, symBinAddr: 0x20B68, symSize: 0xC }
  - { offset: 0x182F73, size: 0x8, addend: 0x0, symName: __ZNSt3__120__shared_ptr_emplaceIN8worklets23SerializableInitializerENS_9allocatorIS2_EEE16__on_zero_sharedEv, symObjAddr: 0x7E60, symBinAddr: 0x20B68, symSize: 0xC }
  - { offset: 0x182F91, size: 0x8, addend: 0x0, symName: __ZNSt3__120__shared_ptr_emplaceIN8worklets23SerializableInitializerENS_9allocatorIS2_EEE16__on_zero_sharedEv, symObjAddr: 0x7E60, symBinAddr: 0x20B68, symSize: 0xC }
  - { offset: 0x182FBD, size: 0x8, addend: 0x0, symName: __ZNSt3__120__shared_ptr_emplaceIN8worklets23SerializableInitializerENS_9allocatorIS2_EEE21__on_zero_shared_weakEv, symObjAddr: 0x7E6C, symBinAddr: 0x20B74, symSize: 0x4 }
  - { offset: 0x182FF0, size: 0x8, addend: 0x0, symName: __ZNSt3__120__shared_ptr_emplaceIN8worklets23SerializableInitializerENS_9allocatorIS2_EEE21__on_zero_shared_weakEv, symObjAddr: 0x7E6C, symBinAddr: 0x20B74, symSize: 0x4 }
  - { offset: 0x183011, size: 0x8, addend: 0x0, symName: __ZNSt3__120__shared_ptr_emplaceIN8worklets23SerializableInitializerENS_9allocatorIS2_EEE21__on_zero_shared_weakEv, symObjAddr: 0x7E6C, symBinAddr: 0x20B74, symSize: 0x4 }
  - { offset: 0x183033, size: 0x8, addend: 0x0, symName: __ZNSt3__120__shared_ptr_emplaceIN8worklets23SerializableInitializerENS_9allocatorIS2_EEE21__on_zero_shared_weakEv, symObjAddr: 0x7E6C, symBinAddr: 0x20B74, symSize: 0x4 }
  - { offset: 0x183066, size: 0x8, addend: 0x0, symName: __ZNSt3__120__shared_ptr_emplaceIN8worklets23SerializableInitializerENS_9allocatorIS2_EEE21__on_zero_shared_weakEv, symObjAddr: 0x7E6C, symBinAddr: 0x20B74, symSize: 0x4 }
  - { offset: 0x183368, size: 0x8, addend: 0x0, symName: __ZNSt3__120__shared_ptr_emplaceIN8worklets24SerializableHostFunctionENS_9allocatorIS2_EEEC2B8ne200100IJRN8facebook3jsi7RuntimeENS8_8FunctionEES4_Li0EEES4_DpOT_, symObjAddr: 0x7FBC, symBinAddr: 0x20C6C, symSize: 0x4C }
  - { offset: 0x18350E, size: 0x8, addend: 0x0, symName: __ZNSt3__120__shared_ptr_emplaceIN8worklets24SerializableHostFunctionENS_9allocatorIS2_EEED1Ev, symObjAddr: 0x8008, symBinAddr: 0x20CB8, symSize: 0x14 }
  - { offset: 0x183530, size: 0x8, addend: 0x0, symName: __ZNSt3__120__shared_ptr_emplaceIN8worklets24SerializableHostFunctionENS_9allocatorIS2_EEED1Ev, symObjAddr: 0x8008, symBinAddr: 0x20CB8, symSize: 0x14 }
  - { offset: 0x183566, size: 0x8, addend: 0x0, symName: __ZNSt3__120__shared_ptr_emplaceIN8worklets24SerializableHostFunctionENS_9allocatorIS2_EEED0Ev, symObjAddr: 0x801C, symBinAddr: 0x20CCC, symSize: 0x24 }
  - { offset: 0x183632, size: 0x8, addend: 0x0, symName: __ZNSt3__120__shared_ptr_emplaceIN8worklets24SerializableHostFunctionENS_9allocatorIS2_EEE16__on_zero_sharedEv, symObjAddr: 0x8040, symBinAddr: 0x20CF0, symSize: 0xC }
  - { offset: 0x18365B, size: 0x8, addend: 0x0, symName: __ZNSt3__120__shared_ptr_emplaceIN8worklets24SerializableHostFunctionENS_9allocatorIS2_EEE16__on_zero_sharedEv, symObjAddr: 0x8040, symBinAddr: 0x20CF0, symSize: 0xC }
  - { offset: 0x183679, size: 0x8, addend: 0x0, symName: __ZNSt3__120__shared_ptr_emplaceIN8worklets24SerializableHostFunctionENS_9allocatorIS2_EEE16__on_zero_sharedEv, symObjAddr: 0x8040, symBinAddr: 0x20CF0, symSize: 0xC }
  - { offset: 0x183697, size: 0x8, addend: 0x0, symName: __ZNSt3__120__shared_ptr_emplaceIN8worklets24SerializableHostFunctionENS_9allocatorIS2_EEE16__on_zero_sharedEv, symObjAddr: 0x8040, symBinAddr: 0x20CF0, symSize: 0xC }
  - { offset: 0x1836C3, size: 0x8, addend: 0x0, symName: __ZNSt3__120__shared_ptr_emplaceIN8worklets24SerializableHostFunctionENS_9allocatorIS2_EEE21__on_zero_shared_weakEv, symObjAddr: 0x804C, symBinAddr: 0x20CFC, symSize: 0x4 }
  - { offset: 0x1836F6, size: 0x8, addend: 0x0, symName: __ZNSt3__120__shared_ptr_emplaceIN8worklets24SerializableHostFunctionENS_9allocatorIS2_EEE21__on_zero_shared_weakEv, symObjAddr: 0x804C, symBinAddr: 0x20CFC, symSize: 0x4 }
  - { offset: 0x183717, size: 0x8, addend: 0x0, symName: __ZNSt3__120__shared_ptr_emplaceIN8worklets24SerializableHostFunctionENS_9allocatorIS2_EEE21__on_zero_shared_weakEv, symObjAddr: 0x804C, symBinAddr: 0x20CFC, symSize: 0x4 }
  - { offset: 0x183739, size: 0x8, addend: 0x0, symName: __ZNSt3__120__shared_ptr_emplaceIN8worklets24SerializableHostFunctionENS_9allocatorIS2_EEE21__on_zero_shared_weakEv, symObjAddr: 0x804C, symBinAddr: 0x20CFC, symSize: 0x4 }
  - { offset: 0x18376B, size: 0x8, addend: 0x0, symName: __ZNSt3__120__shared_ptr_emplaceIN8worklets24SerializableHostFunctionENS_9allocatorIS2_EEE21__on_zero_shared_weakEv, symObjAddr: 0x804C, symBinAddr: 0x20CFC, symSize: 0x4 }
  - { offset: 0x1837C5, size: 0x8, addend: 0x0, symName: __ZN8worklets24SerializableHostFunctionC2ERN8facebook3jsi7RuntimeENS2_8FunctionE, symObjAddr: 0x80C0, symBinAddr: 0x20D70, symSize: 0x22C }
  - { offset: 0x184153, size: 0x8, addend: 0x0, symName: __ZNSt3__120__shared_ptr_emplaceIN8worklets26SerializableRemoteFunctionENS_9allocatorIS2_EEEC2B8ne200100IJRN8facebook3jsi7RuntimeENS8_8FunctionEES4_Li0EEES4_DpOT_, symObjAddr: 0x8354, symBinAddr: 0x21004, symSize: 0x4C }
  - { offset: 0x184355, size: 0x8, addend: 0x0, symName: __ZN8worklets26SerializableRemoteFunctionC2ERN8facebook3jsi7RuntimeEONS2_8FunctionE, symObjAddr: 0x83E8, symBinAddr: 0x21098, symSize: 0xA0 }
  - { offset: 0x1845E5, size: 0x8, addend: 0x0, symName: __ZNSt3__120__shared_ptr_emplaceIN8worklets26SerializableRemoteFunctionENS_9allocatorIS2_EEED1Ev, symObjAddr: 0x83A0, symBinAddr: 0x21050, symSize: 0x14 }
  - { offset: 0x184607, size: 0x8, addend: 0x0, symName: __ZNSt3__120__shared_ptr_emplaceIN8worklets26SerializableRemoteFunctionENS_9allocatorIS2_EEED1Ev, symObjAddr: 0x83A0, symBinAddr: 0x21050, symSize: 0x14 }
  - { offset: 0x18463D, size: 0x8, addend: 0x0, symName: __ZNSt3__120__shared_ptr_emplaceIN8worklets26SerializableRemoteFunctionENS_9allocatorIS2_EEED0Ev, symObjAddr: 0x83B4, symBinAddr: 0x21064, symSize: 0x24 }
  - { offset: 0x184709, size: 0x8, addend: 0x0, symName: __ZNSt3__120__shared_ptr_emplaceIN8worklets26SerializableRemoteFunctionENS_9allocatorIS2_EEE16__on_zero_sharedEv, symObjAddr: 0x83D8, symBinAddr: 0x21088, symSize: 0xC }
  - { offset: 0x184732, size: 0x8, addend: 0x0, symName: __ZNSt3__120__shared_ptr_emplaceIN8worklets26SerializableRemoteFunctionENS_9allocatorIS2_EEE16__on_zero_sharedEv, symObjAddr: 0x83D8, symBinAddr: 0x21088, symSize: 0xC }
  - { offset: 0x184750, size: 0x8, addend: 0x0, symName: __ZNSt3__120__shared_ptr_emplaceIN8worklets26SerializableRemoteFunctionENS_9allocatorIS2_EEE16__on_zero_sharedEv, symObjAddr: 0x83D8, symBinAddr: 0x21088, symSize: 0xC }
  - { offset: 0x18476E, size: 0x8, addend: 0x0, symName: __ZNSt3__120__shared_ptr_emplaceIN8worklets26SerializableRemoteFunctionENS_9allocatorIS2_EEE16__on_zero_sharedEv, symObjAddr: 0x83D8, symBinAddr: 0x21088, symSize: 0xC }
  - { offset: 0x18479A, size: 0x8, addend: 0x0, symName: __ZNSt3__120__shared_ptr_emplaceIN8worklets26SerializableRemoteFunctionENS_9allocatorIS2_EEE21__on_zero_shared_weakEv, symObjAddr: 0x83E4, symBinAddr: 0x21094, symSize: 0x4 }
  - { offset: 0x1847CD, size: 0x8, addend: 0x0, symName: __ZNSt3__120__shared_ptr_emplaceIN8worklets26SerializableRemoteFunctionENS_9allocatorIS2_EEE21__on_zero_shared_weakEv, symObjAddr: 0x83E4, symBinAddr: 0x21094, symSize: 0x4 }
  - { offset: 0x1847EE, size: 0x8, addend: 0x0, symName: __ZNSt3__120__shared_ptr_emplaceIN8worklets26SerializableRemoteFunctionENS_9allocatorIS2_EEE21__on_zero_shared_weakEv, symObjAddr: 0x83E4, symBinAddr: 0x21094, symSize: 0x4 }
  - { offset: 0x184810, size: 0x8, addend: 0x0, symName: __ZNSt3__120__shared_ptr_emplaceIN8worklets26SerializableRemoteFunctionENS_9allocatorIS2_EEE21__on_zero_shared_weakEv, symObjAddr: 0x83E4, symBinAddr: 0x21094, symSize: 0x4 }
  - { offset: 0x184842, size: 0x8, addend: 0x0, symName: __ZNSt3__120__shared_ptr_emplaceIN8worklets26SerializableRemoteFunctionENS_9allocatorIS2_EEE21__on_zero_shared_weakEv, symObjAddr: 0x83E4, symBinAddr: 0x21094, symSize: 0x4 }
  - { offset: 0x184B1D, size: 0x8, addend: 0x0, symName: __ZNSt3__120__shared_ptr_emplaceIN8worklets21RetainingSerializableINS1_17SerializableArrayEEENS_9allocatorIS4_EEEC2B8ne200100IJRN8facebook3jsi7RuntimeERKNSA_5ArrayEES6_Li0EEES6_DpOT_, symObjAddr: 0x85F0, symBinAddr: 0x21198, symSize: 0x68 }
  - { offset: 0x184DAD, size: 0x8, addend: 0x0, symName: __ZNSt3__120__shared_ptr_emplaceIN8worklets17SerializableArrayENS_9allocatorIS2_EEEC2B8ne200100IJRN8facebook3jsi7RuntimeERKNS8_5ArrayEES4_Li0EEES4_DpOT_, symObjAddr: 0x86B8, symBinAddr: 0x21260, symSize: 0x4C }
  - { offset: 0x1851C9, size: 0x8, addend: 0x0, symName: __ZNSt3__120__shared_ptr_emplaceIN8worklets15SerializableMapENS_9allocatorIS2_EEEC2B8ne200100IJRN8facebook3jsi7RuntimeERKNS8_5ArrayESD_ES4_Li0EEES4_DpOT_, symObjAddr: 0x8774, symBinAddr: 0x2131C, symSize: 0x4C }
  - { offset: 0x185440, size: 0x8, addend: 0x0, symName: __ZNSt3__120__shared_ptr_emplaceIN8worklets15SerializableMapENS_9allocatorIS2_EEED1Ev, symObjAddr: 0x87C0, symBinAddr: 0x21368, symSize: 0x14 }
  - { offset: 0x185462, size: 0x8, addend: 0x0, symName: __ZNSt3__120__shared_ptr_emplaceIN8worklets15SerializableMapENS_9allocatorIS2_EEED1Ev, symObjAddr: 0x87C0, symBinAddr: 0x21368, symSize: 0x14 }
  - { offset: 0x185498, size: 0x8, addend: 0x0, symName: __ZNSt3__120__shared_ptr_emplaceIN8worklets15SerializableMapENS_9allocatorIS2_EEED0Ev, symObjAddr: 0x87D4, symBinAddr: 0x2137C, symSize: 0x24 }
  - { offset: 0x185564, size: 0x8, addend: 0x0, symName: __ZNSt3__120__shared_ptr_emplaceIN8worklets15SerializableMapENS_9allocatorIS2_EEE16__on_zero_sharedEv, symObjAddr: 0x87F8, symBinAddr: 0x213A0, symSize: 0xC }
  - { offset: 0x18558D, size: 0x8, addend: 0x0, symName: __ZNSt3__120__shared_ptr_emplaceIN8worklets15SerializableMapENS_9allocatorIS2_EEE16__on_zero_sharedEv, symObjAddr: 0x87F8, symBinAddr: 0x213A0, symSize: 0xC }
  - { offset: 0x1855AB, size: 0x8, addend: 0x0, symName: __ZNSt3__120__shared_ptr_emplaceIN8worklets15SerializableMapENS_9allocatorIS2_EEE16__on_zero_sharedEv, symObjAddr: 0x87F8, symBinAddr: 0x213A0, symSize: 0xC }
  - { offset: 0x1855C9, size: 0x8, addend: 0x0, symName: __ZNSt3__120__shared_ptr_emplaceIN8worklets15SerializableMapENS_9allocatorIS2_EEE16__on_zero_sharedEv, symObjAddr: 0x87F8, symBinAddr: 0x213A0, symSize: 0xC }
  - { offset: 0x1855F5, size: 0x8, addend: 0x0, symName: __ZNSt3__120__shared_ptr_emplaceIN8worklets15SerializableMapENS_9allocatorIS2_EEE21__on_zero_shared_weakEv, symObjAddr: 0x8804, symBinAddr: 0x213AC, symSize: 0x4 }
  - { offset: 0x185628, size: 0x8, addend: 0x0, symName: __ZNSt3__120__shared_ptr_emplaceIN8worklets15SerializableMapENS_9allocatorIS2_EEE21__on_zero_shared_weakEv, symObjAddr: 0x8804, symBinAddr: 0x213AC, symSize: 0x4 }
  - { offset: 0x185649, size: 0x8, addend: 0x0, symName: __ZNSt3__120__shared_ptr_emplaceIN8worklets15SerializableMapENS_9allocatorIS2_EEE21__on_zero_shared_weakEv, symObjAddr: 0x8804, symBinAddr: 0x213AC, symSize: 0x4 }
  - { offset: 0x18566B, size: 0x8, addend: 0x0, symName: __ZNSt3__120__shared_ptr_emplaceIN8worklets15SerializableMapENS_9allocatorIS2_EEE21__on_zero_shared_weakEv, symObjAddr: 0x8804, symBinAddr: 0x213AC, symSize: 0x4 }
  - { offset: 0x18569D, size: 0x8, addend: 0x0, symName: __ZNSt3__120__shared_ptr_emplaceIN8worklets15SerializableMapENS_9allocatorIS2_EEE21__on_zero_shared_weakEv, symObjAddr: 0x8804, symBinAddr: 0x213AC, symSize: 0x4 }
  - { offset: 0x185906, size: 0x8, addend: 0x0, symName: __ZNSt3__120__shared_ptr_emplaceIN8worklets15SerializableSetENS_9allocatorIS2_EEEC2B8ne200100IJRN8facebook3jsi7RuntimeERKNS8_5ArrayEES4_Li0EEES4_DpOT_, symObjAddr: 0x88C0, symBinAddr: 0x21410, symSize: 0x4C }
  - { offset: 0x185B27, size: 0x8, addend: 0x0, symName: __ZNSt3__120__shared_ptr_emplaceIN8worklets15SerializableSetENS_9allocatorIS2_EEED1Ev, symObjAddr: 0x890C, symBinAddr: 0x2145C, symSize: 0x14 }
  - { offset: 0x185B49, size: 0x8, addend: 0x0, symName: __ZNSt3__120__shared_ptr_emplaceIN8worklets15SerializableSetENS_9allocatorIS2_EEED1Ev, symObjAddr: 0x890C, symBinAddr: 0x2145C, symSize: 0x14 }
  - { offset: 0x185B7F, size: 0x8, addend: 0x0, symName: __ZNSt3__120__shared_ptr_emplaceIN8worklets15SerializableSetENS_9allocatorIS2_EEED0Ev, symObjAddr: 0x8920, symBinAddr: 0x21470, symSize: 0x24 }
  - { offset: 0x185C4B, size: 0x8, addend: 0x0, symName: __ZNSt3__120__shared_ptr_emplaceIN8worklets15SerializableSetENS_9allocatorIS2_EEE16__on_zero_sharedEv, symObjAddr: 0x8944, symBinAddr: 0x21494, symSize: 0xC }
  - { offset: 0x185C74, size: 0x8, addend: 0x0, symName: __ZNSt3__120__shared_ptr_emplaceIN8worklets15SerializableSetENS_9allocatorIS2_EEE16__on_zero_sharedEv, symObjAddr: 0x8944, symBinAddr: 0x21494, symSize: 0xC }
  - { offset: 0x185C92, size: 0x8, addend: 0x0, symName: __ZNSt3__120__shared_ptr_emplaceIN8worklets15SerializableSetENS_9allocatorIS2_EEE16__on_zero_sharedEv, symObjAddr: 0x8944, symBinAddr: 0x21494, symSize: 0xC }
  - { offset: 0x185CB0, size: 0x8, addend: 0x0, symName: __ZNSt3__120__shared_ptr_emplaceIN8worklets15SerializableSetENS_9allocatorIS2_EEE16__on_zero_sharedEv, symObjAddr: 0x8944, symBinAddr: 0x21494, symSize: 0xC }
  - { offset: 0x185CDC, size: 0x8, addend: 0x0, symName: __ZNSt3__120__shared_ptr_emplaceIN8worklets15SerializableSetENS_9allocatorIS2_EEE21__on_zero_shared_weakEv, symObjAddr: 0x8950, symBinAddr: 0x214A0, symSize: 0x4 }
  - { offset: 0x185D0F, size: 0x8, addend: 0x0, symName: __ZNSt3__120__shared_ptr_emplaceIN8worklets15SerializableSetENS_9allocatorIS2_EEE21__on_zero_shared_weakEv, symObjAddr: 0x8950, symBinAddr: 0x214A0, symSize: 0x4 }
  - { offset: 0x185D30, size: 0x8, addend: 0x0, symName: __ZNSt3__120__shared_ptr_emplaceIN8worklets15SerializableSetENS_9allocatorIS2_EEE21__on_zero_shared_weakEv, symObjAddr: 0x8950, symBinAddr: 0x214A0, symSize: 0x4 }
  - { offset: 0x185D52, size: 0x8, addend: 0x0, symName: __ZNSt3__120__shared_ptr_emplaceIN8worklets15SerializableSetENS_9allocatorIS2_EEE21__on_zero_shared_weakEv, symObjAddr: 0x8950, symBinAddr: 0x214A0, symSize: 0x4 }
  - { offset: 0x185D84, size: 0x8, addend: 0x0, symName: __ZNSt3__120__shared_ptr_emplaceIN8worklets15SerializableSetENS_9allocatorIS2_EEE21__on_zero_shared_weakEv, symObjAddr: 0x8950, symBinAddr: 0x214A0, symSize: 0x4 }
  - { offset: 0x185FFD, size: 0x8, addend: 0x0, symName: __ZNSt3__120__shared_ptr_emplaceIN8worklets27SerializableTurboModuleLikeENS_9allocatorIS2_EEEC2B8ne200100IJRN8facebook3jsi7RuntimeERKNS8_6ObjectERKNS_10shared_ptrINS8_10HostObjectEEEES4_Li0EEES4_DpOT_, symObjAddr: 0x8A1C, symBinAddr: 0x21514, symSize: 0x4C }
  - { offset: 0x186255, size: 0x8, addend: 0x0, symName: __ZN8worklets27SerializableTurboModuleLikeC2ERN8facebook3jsi7RuntimeERKNS2_6ObjectERKNSt3__110shared_ptrINS2_10HostObjectEEE, symObjAddr: 0x8AB0, symBinAddr: 0x215A8, symSize: 0xF4 }
  - { offset: 0x1865BF, size: 0x8, addend: 0x0, symName: __ZNSt3__120__shared_ptr_emplaceIN8worklets27SerializableTurboModuleLikeENS_9allocatorIS2_EEED1Ev, symObjAddr: 0x8A68, symBinAddr: 0x21560, symSize: 0x14 }
  - { offset: 0x1865E1, size: 0x8, addend: 0x0, symName: __ZNSt3__120__shared_ptr_emplaceIN8worklets27SerializableTurboModuleLikeENS_9allocatorIS2_EEED1Ev, symObjAddr: 0x8A68, symBinAddr: 0x21560, symSize: 0x14 }
  - { offset: 0x186617, size: 0x8, addend: 0x0, symName: __ZNSt3__120__shared_ptr_emplaceIN8worklets27SerializableTurboModuleLikeENS_9allocatorIS2_EEED0Ev, symObjAddr: 0x8A7C, symBinAddr: 0x21574, symSize: 0x24 }
  - { offset: 0x1866E3, size: 0x8, addend: 0x0, symName: __ZNSt3__120__shared_ptr_emplaceIN8worklets27SerializableTurboModuleLikeENS_9allocatorIS2_EEE16__on_zero_sharedEv, symObjAddr: 0x8AA0, symBinAddr: 0x21598, symSize: 0xC }
  - { offset: 0x18670C, size: 0x8, addend: 0x0, symName: __ZNSt3__120__shared_ptr_emplaceIN8worklets27SerializableTurboModuleLikeENS_9allocatorIS2_EEE16__on_zero_sharedEv, symObjAddr: 0x8AA0, symBinAddr: 0x21598, symSize: 0xC }
  - { offset: 0x18672A, size: 0x8, addend: 0x0, symName: __ZNSt3__120__shared_ptr_emplaceIN8worklets27SerializableTurboModuleLikeENS_9allocatorIS2_EEE16__on_zero_sharedEv, symObjAddr: 0x8AA0, symBinAddr: 0x21598, symSize: 0xC }
  - { offset: 0x186748, size: 0x8, addend: 0x0, symName: __ZNSt3__120__shared_ptr_emplaceIN8worklets27SerializableTurboModuleLikeENS_9allocatorIS2_EEE16__on_zero_sharedEv, symObjAddr: 0x8AA0, symBinAddr: 0x21598, symSize: 0xC }
  - { offset: 0x186774, size: 0x8, addend: 0x0, symName: __ZNSt3__120__shared_ptr_emplaceIN8worklets27SerializableTurboModuleLikeENS_9allocatorIS2_EEE21__on_zero_shared_weakEv, symObjAddr: 0x8AAC, symBinAddr: 0x215A4, symSize: 0x4 }
  - { offset: 0x1867A7, size: 0x8, addend: 0x0, symName: __ZNSt3__120__shared_ptr_emplaceIN8worklets27SerializableTurboModuleLikeENS_9allocatorIS2_EEE21__on_zero_shared_weakEv, symObjAddr: 0x8AAC, symBinAddr: 0x215A4, symSize: 0x4 }
  - { offset: 0x1867C8, size: 0x8, addend: 0x0, symName: __ZNSt3__120__shared_ptr_emplaceIN8worklets27SerializableTurboModuleLikeENS_9allocatorIS2_EEE21__on_zero_shared_weakEv, symObjAddr: 0x8AAC, symBinAddr: 0x215A4, symSize: 0x4 }
  - { offset: 0x1867EA, size: 0x8, addend: 0x0, symName: __ZNSt3__120__shared_ptr_emplaceIN8worklets27SerializableTurboModuleLikeENS_9allocatorIS2_EEE21__on_zero_shared_weakEv, symObjAddr: 0x8AAC, symBinAddr: 0x215A4, symSize: 0x4 }
  - { offset: 0x18681C, size: 0x8, addend: 0x0, symName: __ZNSt3__120__shared_ptr_emplaceIN8worklets27SerializableTurboModuleLikeENS_9allocatorIS2_EEE21__on_zero_shared_weakEv, symObjAddr: 0x8AAC, symBinAddr: 0x215A4, symSize: 0x4 }
  - { offset: 0x186AF5, size: 0x8, addend: 0x0, symName: __ZNSt3__120__shared_ptr_emplaceIN8worklets18SerializableImportENS_9allocatorIS2_EEEC2B8ne200100IJRN8facebook3jsi7RuntimeERKdRKNS8_6StringEES4_Li0EEES4_DpOT_, symObjAddr: 0x8C6C, symBinAddr: 0x2170C, symSize: 0x7C }
  - { offset: 0x186E35, size: 0x8, addend: 0x0, symName: __ZNSt3__120__shared_ptr_emplaceIN8worklets18SerializableImportENS_9allocatorIS2_EEED1Ev, symObjAddr: 0x8CE8, symBinAddr: 0x21788, symSize: 0x14 }
  - { offset: 0x186E57, size: 0x8, addend: 0x0, symName: __ZNSt3__120__shared_ptr_emplaceIN8worklets18SerializableImportENS_9allocatorIS2_EEED1Ev, symObjAddr: 0x8CE8, symBinAddr: 0x21788, symSize: 0x14 }
  - { offset: 0x186E8D, size: 0x8, addend: 0x0, symName: __ZNSt3__120__shared_ptr_emplaceIN8worklets18SerializableImportENS_9allocatorIS2_EEED0Ev, symObjAddr: 0x8CFC, symBinAddr: 0x2179C, symSize: 0x24 }
  - { offset: 0x186F59, size: 0x8, addend: 0x0, symName: __ZNSt3__120__shared_ptr_emplaceIN8worklets18SerializableImportENS_9allocatorIS2_EEE16__on_zero_sharedEv, symObjAddr: 0x8D20, symBinAddr: 0x217C0, symSize: 0xC }
  - { offset: 0x186F82, size: 0x8, addend: 0x0, symName: __ZNSt3__120__shared_ptr_emplaceIN8worklets18SerializableImportENS_9allocatorIS2_EEE16__on_zero_sharedEv, symObjAddr: 0x8D20, symBinAddr: 0x217C0, symSize: 0xC }
  - { offset: 0x186FA0, size: 0x8, addend: 0x0, symName: __ZNSt3__120__shared_ptr_emplaceIN8worklets18SerializableImportENS_9allocatorIS2_EEE16__on_zero_sharedEv, symObjAddr: 0x8D20, symBinAddr: 0x217C0, symSize: 0xC }
  - { offset: 0x186FBE, size: 0x8, addend: 0x0, symName: __ZNSt3__120__shared_ptr_emplaceIN8worklets18SerializableImportENS_9allocatorIS2_EEE16__on_zero_sharedEv, symObjAddr: 0x8D20, symBinAddr: 0x217C0, symSize: 0xC }
  - { offset: 0x186FEA, size: 0x8, addend: 0x0, symName: __ZNSt3__120__shared_ptr_emplaceIN8worklets18SerializableImportENS_9allocatorIS2_EEE21__on_zero_shared_weakEv, symObjAddr: 0x8D2C, symBinAddr: 0x217CC, symSize: 0x4 }
  - { offset: 0x18701D, size: 0x8, addend: 0x0, symName: __ZNSt3__120__shared_ptr_emplaceIN8worklets18SerializableImportENS_9allocatorIS2_EEE21__on_zero_shared_weakEv, symObjAddr: 0x8D2C, symBinAddr: 0x217CC, symSize: 0x4 }
  - { offset: 0x18703E, size: 0x8, addend: 0x0, symName: __ZNSt3__120__shared_ptr_emplaceIN8worklets18SerializableImportENS_9allocatorIS2_EEE21__on_zero_shared_weakEv, symObjAddr: 0x8D2C, symBinAddr: 0x217CC, symSize: 0x4 }
  - { offset: 0x187060, size: 0x8, addend: 0x0, symName: __ZNSt3__120__shared_ptr_emplaceIN8worklets18SerializableImportENS_9allocatorIS2_EEE21__on_zero_shared_weakEv, symObjAddr: 0x8D2C, symBinAddr: 0x217CC, symSize: 0x4 }
  - { offset: 0x187092, size: 0x8, addend: 0x0, symName: __ZNSt3__120__shared_ptr_emplaceIN8worklets18SerializableImportENS_9allocatorIS2_EEE21__on_zero_shared_weakEv, symObjAddr: 0x8D2C, symBinAddr: 0x217CC, symSize: 0x4 }
  - { offset: 0x18909F, size: 0x8, addend: 0x0, symName: __ZN8worklets29getUIAnimationDragCoefficientEv, symObjAddr: 0x0, symBinAddr: 0x21844, symSize: 0x8 }
  - { offset: 0x1890B2, size: 0x8, addend: 0x0, symName: __ZN8worklets29getUIAnimationDragCoefficientEv, symObjAddr: 0x0, symBinAddr: 0x21844, symSize: 0x8 }
  - { offset: 0x1890DE, size: 0x8, addend: 0x0, symName: __ZN8worklets36calculateTimestampWithSlowAnimationsEd, symObjAddr: 0x8, symBinAddr: 0x2184C, symSize: 0x10 }
  - { offset: 0x18934D, size: 0x8, addend: 0x0, symName: __ZN8worklets14Synchronizable8getDirtyEv, symObjAddr: 0x0, symBinAddr: 0x2185C, symSize: 0x24 }
  - { offset: 0x18E958, size: 0x8, addend: 0x0, symName: __ZN8worklets25getSynchronizableUnpackerERN8facebook3jsi7RuntimeE, symObjAddr: 0x330, symBinAddr: 0x21B14, symSize: 0x140 }
  - { offset: 0x18ED0B, size: 0x8, addend: 0x0, symName: __ZN8worklets28extractSynchronizableOrThrowERN8facebook3jsi7RuntimeERKNS1_5ValueE, symObjAddr: 0x720, symBinAddr: 0x21D28, symSize: 0x108 }
  - { offset: 0x190B4C, size: 0x8, addend: 0x0, symName: __ZN8worklets14Synchronizable8getDirtyEv, symObjAddr: 0x0, symBinAddr: 0x2185C, symSize: 0x24 }
  - { offset: 0x190B75, size: 0x8, addend: 0x0, symName: __ZN8worklets14Synchronizable8getDirtyEv, symObjAddr: 0x0, symBinAddr: 0x2185C, symSize: 0x24 }
  - { offset: 0x190B9D, size: 0x8, addend: 0x0, symName: __ZN8worklets14Synchronizable8getDirtyEv, symObjAddr: 0x0, symBinAddr: 0x2185C, symSize: 0x24 }
  - { offset: 0x190C3B, size: 0x8, addend: 0x0, symName: __ZN8worklets14Synchronizable11getBlockingEv, symObjAddr: 0x24, symBinAddr: 0x21880, symSize: 0x64 }
  - { offset: 0x190DA1, size: 0x8, addend: 0x0, symName: __ZN8worklets14Synchronizable11setBlockingERKNSt3__110shared_ptrINS_12SerializableEEE, symObjAddr: 0x88, symBinAddr: 0x218E4, symSize: 0x38 }
  - { offset: 0x1912B7, size: 0x8, addend: 0x0, symName: __ZN8worklets14Synchronizable9toJSValueERN8facebook3jsi7RuntimeE, symObjAddr: 0x138, symBinAddr: 0x2191C, symSize: 0x1F8 }
  - { offset: 0x19267A, size: 0x8, addend: 0x0, symName: __ZN8worklets14SynchronizableC2ERKNSt3__110shared_ptrINS_12SerializableEEE, symObjAddr: 0x64C, symBinAddr: 0x21C54, symSize: 0xD0 }
  - { offset: 0x19284E, size: 0x8, addend: 0x0, symName: __ZN8worklets14SynchronizableC1ERKNSt3__110shared_ptrINS_12SerializableEEE, symObjAddr: 0x71C, symBinAddr: 0x21D24, symSize: 0x4 }
  - { offset: 0x19288A, size: 0x8, addend: 0x0, symName: __ZN8worklets14SynchronizableC1ERKNSt3__110shared_ptrINS_12SerializableEEE, symObjAddr: 0x71C, symBinAddr: 0x21D24, symSize: 0x4 }
  - { offset: 0x192BF5, size: 0x8, addend: 0x0, symName: __ZN8worklets14SynchronizableD1Ev, symObjAddr: 0x828, symBinAddr: 0x21E30, symSize: 0x4 }
  - { offset: 0x192C18, size: 0x8, addend: 0x0, symName: __ZN8worklets14SynchronizableD1Ev, symObjAddr: 0x828, symBinAddr: 0x21E30, symSize: 0x4 }
  - { offset: 0x192C2C, size: 0x8, addend: 0x0, symName: __ZN8worklets14SynchronizableD2Ev, symObjAddr: 0xB90, symBinAddr: 0x21E68, symSize: 0x74 }
  - { offset: 0x192D16, size: 0x8, addend: 0x0, symName: __ZN8worklets14SynchronizableD0Ev, symObjAddr: 0x82C, symBinAddr: 0x21E34, symSize: 0x14 }
  - { offset: 0x192D68, size: 0x8, addend: 0x0, symName: __ZThn208_N8worklets14SynchronizableD1Ev, symObjAddr: 0x840, symBinAddr: 0x21E48, symSize: 0x8 }
  - { offset: 0x192DC3, size: 0x8, addend: 0x0, symName: __ZThn208_N8worklets14SynchronizableD0Ev, symObjAddr: 0x848, symBinAddr: 0x21E50, symSize: 0x18 }
  - { offset: 0x1950CE, size: 0x8, addend: 0x0, symName: __ZN8worklets20SynchronizableAccess17getBlockingBeforeEv, symObjAddr: 0x0, symBinAddr: 0x21EDC, symSize: 0xAC }
  - { offset: 0x195F97, size: 0x8, addend: 0x0, symName: __ZN8worklets20SynchronizableAccess17getBlockingBeforeEv, symObjAddr: 0x0, symBinAddr: 0x21EDC, symSize: 0xAC }
  - { offset: 0x196193, size: 0x8, addend: 0x0, symName: __ZN8worklets20SynchronizableAccess16getBlockingAfterEv, symObjAddr: 0xAC, symBinAddr: 0x21F88, symSize: 0x40 }
  - { offset: 0x196220, size: 0x8, addend: 0x0, symName: __ZN8worklets20SynchronizableAccess17setBlockingBeforeEv, symObjAddr: 0xEC, symBinAddr: 0x21FC8, symSize: 0xB0 }
  - { offset: 0x1963D1, size: 0x8, addend: 0x0, symName: __ZN8worklets20SynchronizableAccess16setBlockingAfterEv, symObjAddr: 0x19C, symBinAddr: 0x22078, symSize: 0x34 }
  - { offset: 0x19645E, size: 0x8, addend: 0x0, symName: __ZN8worklets20SynchronizableAccess4lockEv, symObjAddr: 0x1D0, symBinAddr: 0x220AC, symSize: 0xBC }
  - { offset: 0x19661D, size: 0x8, addend: 0x0, symName: __ZN8worklets20SynchronizableAccess6unlockEv, symObjAddr: 0x28C, symBinAddr: 0x22168, symSize: 0x5C }
  - { offset: 0x1985E1, size: 0x8, addend: 0x0, symName: __ZN8worklets26SynchronizableUnpackerCodeE, symObjAddr: 0x0, symBinAddr: 0x40AD5, symSize: 0x0 }
  - { offset: 0x198662, size: 0x8, addend: 0x0, symName: __ZN8worklets9jsi_utils18createHostFunctionINSt3__18functionIFvRN8facebook3jsi7RuntimeERKNS5_5ValueEEEEEENS3_IFS8_S7_SA_PS9_mEEET_, symObjAddr: 0x6C0, symBinAddr: 0x22668, symSize: 0xFC }
  - { offset: 0x198B7E, size: 0x8, addend: 0x0, symName: __ZN8worklets9jsi_utils18installJsiFunctionIvJRN8facebook3jsi7RuntimeERKNS3_5ValueEEEEvS5_NSt3__117basic_string_viewIcNS9_11char_traitsIcEEEENS9_8functionIFT_DpT0_EEE, symObjAddr: 0x2D8, symBinAddr: 0x22354, symSize: 0x314 }
  - { offset: 0x1A0F90, size: 0x8, addend: 0x0, symName: __ZN8worklets18UIRuntimeDecorator8decorateERN8facebook3jsi7RuntimeEONSt3__18functionIFvS4_RKNS2_5ValueEEEE, symObjAddr: 0x0, symBinAddr: 0x221C4, symSize: 0x190 }
  - { offset: 0x1A159D, size: 0x8, addend: 0x0, symName: __ZNSt3__110__function12__value_funcIFvRN8facebook3jsi7RuntimeERKNS3_5ValueEEEC2B8ne200100EOSA_, symObjAddr: 0xD88, symBinAddr: 0x22BC0, symSize: 0x64 }
  - { offset: 0x1A1C9E, size: 0x8, addend: 0x0, symName: __ZNK8facebook3jsi6Object11setPropertyIRNS0_5ValueEEEvRNS0_7RuntimeEPKcOT_, symObjAddr: 0x7BC, symBinAddr: 0x22764, symSize: 0xA4 }
  - { offset: 0x1A2207, size: 0x8, addend: 0x0, symName: __ZNK8facebook3jsi6Object11setPropertyIRNS0_5ValueEEEvRNS0_7RuntimeERKNS0_6StringEOT_, symObjAddr: 0xD10, symBinAddr: 0x22B48, symSize: 0x78 }
  - { offset: 0x1A2339, size: 0x8, addend: 0x0, symName: __ZNSt3__110__function6__funcIZN8worklets9jsi_utils18createHostFunctionINS_8functionIFvRN8facebook3jsi7RuntimeERKNS7_5ValueEEEEEENS5_IFSA_S9_SC_PSB_mEEET_EUlS9_SC_SF_mE_NS_9allocatorISJ_EESG_ED1Ev, symObjAddr: 0x860, symBinAddr: 0x22808, symSize: 0x5C }
  - { offset: 0x1A249E, size: 0x8, addend: 0x0, symName: __ZNSt3__110__function6__funcIZN8worklets9jsi_utils18createHostFunctionINS_8functionIFvRN8facebook3jsi7RuntimeERKNS7_5ValueEEEEEENS5_IFSA_S9_SC_PSB_mEEET_EUlS9_SC_SF_mE_NS_9allocatorISJ_EESG_ED0Ev, symObjAddr: 0x8BC, symBinAddr: 0x22864, symSize: 0x5C }
  - { offset: 0x1A282D, size: 0x8, addend: 0x0, symName: __ZNKSt3__110__function6__funcIZN8worklets9jsi_utils18createHostFunctionINS_8functionIFvRN8facebook3jsi7RuntimeERKNS7_5ValueEEEEEENS5_IFSA_S9_SC_PSB_mEEET_EUlS9_SC_SF_mE_NS_9allocatorISJ_EESG_E7__cloneEv, symObjAddr: 0x918, symBinAddr: 0x228C0, symSize: 0x58 }
  - { offset: 0x1A2B8A, size: 0x8, addend: 0x0, symName: __ZNKSt3__110__function6__funcIZN8worklets9jsi_utils18createHostFunctionINS_8functionIFvRN8facebook3jsi7RuntimeERKNS7_5ValueEEEEEENS5_IFSA_S9_SC_PSB_mEEET_EUlS9_SC_SF_mE_NS_9allocatorISJ_EESG_E7__cloneEPNS0_6__baseISG_EE, symObjAddr: 0x970, symBinAddr: 0x22918, symSize: 0x20 }
  - { offset: 0x1A2CDE, size: 0x8, addend: 0x0, symName: __ZNSt3__110__function6__funcIZN8worklets9jsi_utils18createHostFunctionINS_8functionIFvRN8facebook3jsi7RuntimeERKNS7_5ValueEEEEEENS5_IFSA_S9_SC_PSB_mEEET_EUlS9_SC_SF_mE_NS_9allocatorISJ_EESG_E7destroyEv, symObjAddr: 0x990, symBinAddr: 0x22938, symSize: 0x30 }
  - { offset: 0x1A2DEE, size: 0x8, addend: 0x0, symName: __ZNSt3__110__function6__funcIZN8worklets9jsi_utils18createHostFunctionINS_8functionIFvRN8facebook3jsi7RuntimeERKNS7_5ValueEEEEEENS5_IFSA_S9_SC_PSB_mEEET_EUlS9_SC_SF_mE_NS_9allocatorISJ_EESG_E18destroy_deallocateEv, symObjAddr: 0x9C0, symBinAddr: 0x22968, symSize: 0x4C }
  - { offset: 0x1A2FD9, size: 0x8, addend: 0x0, symName: __ZNSt3__110__function6__funcIZN8worklets9jsi_utils18createHostFunctionINS_8functionIFvRN8facebook3jsi7RuntimeERKNS7_5ValueEEEEEENS5_IFSA_S9_SC_PSB_mEEET_EUlS9_SC_SF_mE_NS_9allocatorISJ_EESG_EclES9_SC_OSF_Om, symObjAddr: 0xA0C, symBinAddr: 0x229B4, symSize: 0x8 }
  - { offset: 0x1A30D6, size: 0x8, addend: 0x0, symName: __ZNSt3__128__invoke_void_return_wrapperIN8facebook3jsi5ValueELb0EE6__callB8ne200100IJRZN8worklets9jsi_utils18createHostFunctionINS_8functionIFvRNS2_7RuntimeERKS3_EEEEENS9_IFS3_SB_SD_PSC_mEEET_EUlSB_SD_SG_mE_SB_SD_SG_mEEES3_DpOT_, symObjAddr: 0xA5C, symBinAddr: 0x22A04, symSize: 0x144 }
  - { offset: 0x1A35C7, size: 0x8, addend: 0x0, symName: __ZNKSt3__110__function6__funcIZN8worklets9jsi_utils18createHostFunctionINS_8functionIFvRN8facebook3jsi7RuntimeERKNS7_5ValueEEEEEENS5_IFSA_S9_SC_PSB_mEEET_EUlS9_SC_SF_mE_NS_9allocatorISJ_EESG_E6targetERKSt9type_info, symObjAddr: 0xA14, symBinAddr: 0x229BC, symSize: 0x3C }
  - { offset: 0x1A367A, size: 0x8, addend: 0x0, symName: __ZNKSt3__110__function6__funcIZN8worklets9jsi_utils18createHostFunctionINS_8functionIFvRN8facebook3jsi7RuntimeERKNS7_5ValueEEEEEENS5_IFSA_S9_SC_PSB_mEEET_EUlS9_SC_SF_mE_NS_9allocatorISJ_EESG_E11target_typeEv, symObjAddr: 0xA50, symBinAddr: 0x229F8, symSize: 0xC }
  - { offset: 0x1A7D7B, size: 0x8, addend: 0x0, symName: __ZN8worklets11UIScheduler12scheduleOnUIENSt3__18functionIFvvEEE, symObjAddr: 0x0, symBinAddr: 0x22C24, symSize: 0x8 }
  - { offset: 0x1A7DCA, size: 0x8, addend: 0x0, symName: __ZN8worklets15ThreadSafeQueueINSt3__18functionIFvvEEEE4pushEOS4_, symObjAddr: 0x8, symBinAddr: 0x22C2C, symSize: 0x54 }
  - { offset: 0x1A7F7A, size: 0x8, addend: 0x0, symName: __ZNSt3__15dequeINS_8functionIFvvEEENS_9allocatorIS3_EEE9push_backEOS3_, symObjAddr: 0x4E0, symBinAddr: 0x22EC8, symSize: 0x94 }
  - { offset: 0x1A8264, size: 0x8, addend: 0x0, symName: __ZN8worklets11UIScheduler9triggerUIEv, symObjAddr: 0x5C, symBinAddr: 0x22C80, symSize: 0x108 }
  - { offset: 0x1A84B1, size: 0x8, addend: 0x0, symName: __ZNK8worklets15ThreadSafeQueueINSt3__18functionIFvvEEEE5emptyEv, symObjAddr: 0x164, symBinAddr: 0x22D88, symSize: 0x44 }
  - { offset: 0x1A858D, size: 0x8, addend: 0x0, symName: __ZN8worklets15ThreadSafeQueueINSt3__18functionIFvvEEEE3popEv, symObjAddr: 0x1A8, symBinAddr: 0x22DCC, symSize: 0xE4 }
  - { offset: 0x1A8AA3, size: 0x8, addend: 0x0, symName: __ZN8worklets11UISchedulerD1Ev, symObjAddr: 0x28C, symBinAddr: 0x22EB0, symSize: 0x4 }
  - { offset: 0x1A8AC6, size: 0x8, addend: 0x0, symName: __ZN8worklets11UISchedulerD1Ev, symObjAddr: 0x28C, symBinAddr: 0x22EB0, symSize: 0x4 }
  - { offset: 0x1A8B58, size: 0x8, addend: 0x0, symName: __ZN8worklets11UISchedulerD0Ev, symObjAddr: 0x290, symBinAddr: 0x22EB4, symSize: 0x14 }
  - { offset: 0x1AC955, size: 0x8, addend: 0x0, symName: __ZN8worklets17ValueUnpackerCodeE, symObjAddr: 0x0, symBinAddr: 0x41226, symSize: 0x0 }
  - { offset: 0x1AC9AC, size: 0x8, addend: 0x0, symName: __ZN8worklets12matchVersionERKNSt3__112basic_stringIcNS0_11char_traitsIcEENS0_9allocatorIcEEEES8_, symObjAddr: 0x0, symBinAddr: 0x22F5C, symSize: 0x67C }
  - { offset: 0x1BE6F0, size: 0x8, addend: 0x0, symName: __ZNSt3__111regex_matchB8ne200100INS_11__wrap_iterIPKcEENS_9allocatorINS_9sub_matchIS4_EEEEcNS_12regex_traitsIcEEEEbT_SB_RNS_13match_resultsISB_T0_EERKNS_11basic_regexIT1_T2_EENS_15regex_constants15match_flag_typeE, symObjAddr: 0x8D80, symBinAddr: 0x2B2B4, symSize: 0xF8 }
  - { offset: 0x1BEC1C, size: 0x8, addend: 0x0, symName: __ZNSt3__1eqB8ne200100INS_11__wrap_iterIPKcEENS_9allocatorINS_9sub_matchIS4_EEEEEEbRKNS_13match_resultsIT_T0_EESE_, symObjAddr: 0x67C, symBinAddr: 0x235D8, symSize: 0xBC }
  - { offset: 0x1BF334, size: 0x8, addend: 0x0, symName: __ZNSt3__119__throw_regex_errorB8ne200100ILNS_15regex_constants10error_typeE17EEEvv, symObjAddr: 0x1178, symBinAddr: 0x23F54, symSize: 0x4C }
  - { offset: 0x1BF607, size: 0x8, addend: 0x0, symName: __ZNSt3__119__throw_regex_errorB8ne200100ILNS_15regex_constants10error_typeE14EEEvv, symObjAddr: 0x1790, symBinAddr: 0x2456C, symSize: 0x4C }
  - { offset: 0x1BF832, size: 0x8, addend: 0x0, symName: __ZNSt3__119__throw_regex_errorB8ne200100ILNS_15regex_constants10error_typeE15EEEvv, symObjAddr: 0x8340, symBinAddr: 0x2A874, symSize: 0x4C }
  - { offset: 0x1BFFE0, size: 0x8, addend: 0x0, symName: __ZNSt3__119__throw_regex_errorB8ne200100ILNS_15regex_constants10error_typeE6EEEvv, symObjAddr: 0x23F8, symBinAddr: 0x25188, symSize: 0x4C }
  - { offset: 0x1C007B, size: 0x8, addend: 0x0, symName: __ZNSt3__119__throw_regex_errorB8ne200100ILNS_15regex_constants10error_typeE11EEEvv, symObjAddr: 0x3C1C, symBinAddr: 0x268B0, symSize: 0x4C }
  - { offset: 0x1C00A1, size: 0x8, addend: 0x0, symName: __ZNSt3__119__throw_regex_errorB8ne200100ILNS_15regex_constants10error_typeE8EEEvv, symObjAddr: 0x7EA0, symBinAddr: 0x2A3D4, symSize: 0x4C }
  - { offset: 0x1C00C7, size: 0x8, addend: 0x0, symName: __ZNSt3__119__throw_regex_errorB8ne200100ILNS_15regex_constants10error_typeE7EEEvv, symObjAddr: 0x7EEC, symBinAddr: 0x2A420, symSize: 0x4C }
  - { offset: 0x1C032D, size: 0x8, addend: 0x0, symName: __ZNSt3__112__destroy_atB8ne200100INS_7__stateIcEELi0EEEvPT_, symObjAddr: 0x34C0, symBinAddr: 0x2619C, symSize: 0x44 }
  - { offset: 0x1C05D8, size: 0x8, addend: 0x0, symName: __ZNSt3__119__throw_regex_errorB8ne200100ILNS_15regex_constants10error_typeE12EEEvv, symObjAddr: 0x31B0, symBinAddr: 0x25EA0, symSize: 0x4C }
  - { offset: 0x1C05FE, size: 0x8, addend: 0x0, symName: __ZNSt3__119__throw_regex_errorB8ne200100ILNS_15regex_constants10error_typeE16EEEvv, symObjAddr: 0x31FC, symBinAddr: 0x25EEC, symSize: 0x4C }
  - { offset: 0x1C07AA, size: 0x8, addend: 0x0, symName: __ZNSt3__16vectorINS_7__stateIcEENS_9allocatorIS2_EEE9push_backB8ne200100EOS2_, symObjAddr: 0x3070, symBinAddr: 0x25D60, symSize: 0x94 }
  - { offset: 0x1C0915, size: 0x8, addend: 0x0, symName: __ZNSt3__119__allocate_at_leastB8ne200100INS_9allocatorINS_7__stateIcEEEEEENS_19__allocation_resultINS_16allocator_traitsIT_E7pointerEEERS7_m, symObjAddr: 0x33D0, symBinAddr: 0x260AC, symSize: 0x44 }
  - { offset: 0x1C09C1, size: 0x8, addend: 0x0, symName: __ZNSt3__134__uninitialized_allocator_relocateB8ne200100INS_9allocatorINS_7__stateIcEEEEPS3_EEvRT_T0_S8_S8_, symObjAddr: 0x3414, symBinAddr: 0x260F0, symSize: 0xAC }
  - { offset: 0x1C09D5, size: 0x8, addend: 0x0, symName: __ZNSt3__134__uninitialized_allocator_relocateB8ne200100INS_9allocatorINS_7__stateIcEEEEPS3_EEvRT_T0_S8_S8_, symObjAddr: 0x3414, symBinAddr: 0x260F0, symSize: 0xAC }
  - { offset: 0x1C0A30, size: 0x8, addend: 0x0, symName: __ZNSt3__134__uninitialized_allocator_relocateB8ne200100INS_9allocatorINS_7__stateIcEEEEPS3_EEvRT_T0_S8_S8_, symObjAddr: 0x3414, symBinAddr: 0x260F0, symSize: 0xAC }
  - { offset: 0x1C105F, size: 0x8, addend: 0x0, symName: __ZNSt3__16vectorINS_9sub_matchIPKcEENS_9allocatorIS4_EEE16__init_with_sizeB8ne200100IPS4_S9_EEvT_T0_m, symObjAddr: 0x380C, symBinAddr: 0x264A0, symSize: 0x7C }
  - { offset: 0x1C1519, size: 0x8, addend: 0x0, symName: __ZNSt3__119__throw_regex_errorB8ne200100ILNS_15regex_constants10error_typeE3EEEvv, symObjAddr: 0x3D5C, symBinAddr: 0x269F0, symSize: 0x4C }
  - { offset: 0x1C153F, size: 0x8, addend: 0x0, symName: __ZNSt3__119__throw_regex_errorB8ne200100ILNS_15regex_constants10error_typeE5EEEvv, symObjAddr: 0x5EF8, symBinAddr: 0x28984, symSize: 0x4C }
  - { offset: 0x1C1673, size: 0x8, addend: 0x0, symName: __ZNSt3__119__throw_regex_errorB8ne200100ILNS_15regex_constants10error_typeE4EEEvv, symObjAddr: 0x4404, symBinAddr: 0x27098, symSize: 0x4C }
  - { offset: 0x1C1FF3, size: 0x8, addend: 0x0, symName: __ZNSt3__112__destroy_atB8ne200100INS_4pairINS_12basic_stringIcNS_11char_traitsIcEENS_9allocatorIcEEEES7_EELi0EEEvPT_, symObjAddr: 0x5868, symBinAddr: 0x28470, symSize: 0x44 }
  - { offset: 0x1C27C8, size: 0x8, addend: 0x0, symName: __ZNSt3__119__throw_regex_errorB8ne200100ILNS_15regex_constants10error_typeE1EEEvv, symObjAddr: 0x6EA4, symBinAddr: 0x29930, symSize: 0x4C }
  - { offset: 0x1C27EE, size: 0x8, addend: 0x0, symName: __ZNSt3__119__throw_regex_errorB8ne200100ILNS_15regex_constants10error_typeE2EEEvv, symObjAddr: 0x75E0, symBinAddr: 0x29BD8, symSize: 0x4C }
  - { offset: 0x1C2850, size: 0x8, addend: 0x0, symName: __ZNSt3__119__throw_regex_errorB8ne200100ILNS_15regex_constants10error_typeE9EEEvv, symObjAddr: 0x795C, symBinAddr: 0x29EB8, symSize: 0x4C }
  - { offset: 0x1C2B5D, size: 0x8, addend: 0x0, symName: __ZNSt3__114__split_bufferINS_12basic_stringIcNS_11char_traitsIcEENS_9allocatorIcEEEERNS4_IS6_EEED2Ev, symObjAddr: 0x7558, symBinAddr: 0x29B50, symSize: 0x34 }
  - { offset: 0x1C2D34, size: 0x8, addend: 0x0, symName: __ZNSt3__119__allocate_at_leastB8ne200100INS_9allocatorINS_4pairINS_12basic_stringIcNS_11char_traitsIcEENS1_IcEEEES7_EEEEEENS_19__allocation_resultINS_16allocator_traitsIT_E7pointerEEERSC_m, symObjAddr: 0x79BC, symBinAddr: 0x29F04, symSize: 0x44 }
  - { offset: 0x1C2DE0, size: 0x8, addend: 0x0, symName: __ZNSt3__114__split_bufferINS_4pairINS_12basic_stringIcNS_11char_traitsIcEENS_9allocatorIcEEEES7_EERNS5_IS8_EEED2Ev, symObjAddr: 0x7A00, symBinAddr: 0x29F48, symSize: 0x4C }
  - { offset: 0x1C2F9C, size: 0x8, addend: 0x0, symName: __ZNSt3__119__allocate_at_leastB8ne200100INS_9allocatorINS_4pairIccEEEEEENS_19__allocation_resultINS_16allocator_traitsIT_E7pointerEEERS7_m, symObjAddr: 0x7B2C, symBinAddr: 0x2A060, symSize: 0x30 }
  - { offset: 0x1C3048, size: 0x8, addend: 0x0, symName: __ZNSt3__128__begin_marked_subexpressionIcED1Ev, symObjAddr: 0x7B5C, symBinAddr: 0x2A090, symSize: 0x44 }
  - { offset: 0x1C39BD, size: 0x8, addend: 0x0, symName: __ZNSt3__15dequeINS_7__stateIcEENS_9allocatorIS2_EEE25__maybe_remove_back_spareB8ne200100Eb, symObjAddr: 0xA4D8, symBinAddr: 0x2C4BC, symSize: 0x74 }
  - { offset: 0x1C4689, size: 0x8, addend: 0x0, symName: __ZNKSt3__19sub_matchINS_11__wrap_iterIPKcEEE7compareB8ne200100ERKS5_, symObjAddr: 0xAFC0, symBinAddr: 0x2CCF4, symSize: 0x134 }
  - { offset: 0x1C7ACB, size: 0x8, addend: 0x0, symName: __ZN8worklets12matchVersionERKNSt3__112basic_stringIcNS0_11char_traitsIcEENS0_9allocatorIcEEEES8_, symObjAddr: 0x0, symBinAddr: 0x22F5C, symSize: 0x67C }
  - { offset: 0x1CA8BA, size: 0x8, addend: 0x0, symName: __ZN8worklets14checkJSVersionERN8facebook3jsi7RuntimeERNS1_5ValueERKNSt3__110shared_ptrINS_8JSLoggerEEERKNS6_12basic_stringIcNS6_11char_traitsIcEENS6_9allocatorIcEEEESJ_SJ_, symObjAddr: 0x738, symBinAddr: 0x23694, symSize: 0x684 }
  - { offset: 0x1CD7B2, size: 0x8, addend: 0x0, symName: __ZNSt3__111basic_regexIcNS_12regex_traitsIcEEEC2B8ne200100EPKcNS_15regex_constants18syntax_option_typeE, symObjAddr: 0xF3C, symBinAddr: 0x23D18, symSize: 0x90 }
  - { offset: 0x1CD96D, size: 0x8, addend: 0x0, symName: __ZNKSt3__111basic_regexIcNS_12regex_traitsIcEEE8__searchINS_9allocatorINS_9sub_matchIPKcEEEEEEbS8_S8_RNS_13match_resultsIS8_T_EENS_15regex_constants15match_flag_typeE, symObjAddr: 0x8E78, symBinAddr: 0x2B3AC, symSize: 0x1C8 }
  - { offset: 0x1CDCCC, size: 0x8, addend: 0x0, symName: __ZNSt3__113match_resultsINS_11__wrap_iterIPKcEENS_9allocatorINS_9sub_matchIS4_EEEEE8__assignB8ne200100IS3_NS5_INS6_IS3_EEEEEEvS4_S4_RKNS0_IT_T0_EEb, symObjAddr: 0x9040, symBinAddr: 0x2B574, symSize: 0x180 }
  - { offset: 0x1CE09F, size: 0x8, addend: 0x0, symName: __ZNKSt3__19sub_matchINS_11__wrap_iterIPKcEEE7compareB8ne200100ERKS5_, symObjAddr: 0xAFC0, symBinAddr: 0x2CCF4, symSize: 0x134 }
  - { offset: 0x1CEB6C, size: 0x8, addend: 0x0, symName: __ZNSt3__111basic_regexIcNS_12regex_traitsIcEEEC2B8ne200100EPKcNS_15regex_constants18syntax_option_typeE, symObjAddr: 0xF3C, symBinAddr: 0x23D18, symSize: 0x90 }
  - { offset: 0x1CED4C, size: 0x8, addend: 0x0, symName: __ZNSt3__112regex_traitsIcEC2Ev, symObjAddr: 0xFCC, symBinAddr: 0x23DA8, symSize: 0x5C }
  - { offset: 0x1CEDE2, size: 0x8, addend: 0x0, symName: __ZNSt3__111basic_regexIcNS_12regex_traitsIcEEE7__parseIPKcEET_S7_S7_, symObjAddr: 0x1028, symBinAddr: 0x23E04, symSize: 0x150 }
  - { offset: 0x1CF229, size: 0x8, addend: 0x0, symName: __ZNSt3__110shared_ptrINS_13__empty_stateIcEEE5resetB8ne200100IS2_Li0EEEvPT_, symObjAddr: 0x11C4, symBinAddr: 0x23FA0, symSize: 0x70 }
  - { offset: 0x1CF39B, size: 0x8, addend: 0x0, symName: __ZNSt3__111basic_regexIcNS_12regex_traitsIcEEE13__parse_egrepIPKcEET_S7_S7_, symObjAddr: 0x1660, symBinAddr: 0x2443C, symSize: 0x130 }
  - { offset: 0x1CF76A, size: 0x8, addend: 0x0, symName: __ZNSt3__111basic_regexIcNS_12regex_traitsIcEEE24__parse_extended_reg_expIPKcEET_S7_S7_, symObjAddr: 0x1494, symBinAddr: 0x24270, symSize: 0x9C }
  - { offset: 0x1CF85F, size: 0x8, addend: 0x0, symName: __ZNSt3__111basic_regexIcNS_12regex_traitsIcEEE12__parse_grepIPKcEET_S7_S7_, symObjAddr: 0x1530, symBinAddr: 0x2430C, symSize: 0x130 }
  - { offset: 0x1CF873, size: 0x8, addend: 0x0, symName: __ZNSt3__111basic_regexIcNS_12regex_traitsIcEEE21__parse_basic_reg_expIPKcEET_S7_S7_, symObjAddr: 0x1364, symBinAddr: 0x24140, symSize: 0x130 }
  - { offset: 0x1CFB58, size: 0x8, addend: 0x0, symName: __ZNSt3__111basic_regexIcNS_12regex_traitsIcEEE24__parse_extended_reg_expIPKcEET_S7_S7_, symObjAddr: 0x1494, symBinAddr: 0x24270, symSize: 0x9C }
  - { offset: 0x1CFB6C, size: 0x8, addend: 0x0, symName: __ZNSt3__111basic_regexIcNS_12regex_traitsIcEEE12__parse_grepIPKcEET_S7_S7_, symObjAddr: 0x1530, symBinAddr: 0x2430C, symSize: 0x130 }
  - { offset: 0x1CFF3B, size: 0x8, addend: 0x0, symName: __ZNSt3__111basic_regexIcNS_12regex_traitsIcEEE16__parse_ecma_expIPKcEET_S7_S7_, symObjAddr: 0x1234, symBinAddr: 0x24010, symSize: 0x130 }
  - { offset: 0x1D0270, size: 0x8, addend: 0x0, symName: __ZNSt3__110shared_ptrINS_13__empty_stateIcEEEC2B8ne200100IS2_Li0EEEPT_, symObjAddr: 0x17F8, symBinAddr: 0x245D4, symSize: 0x68 }
  - { offset: 0x1D0422, size: 0x8, addend: 0x0, symName: __ZNSt3__111basic_regexIcNS_12regex_traitsIcEEE12__parse_termIPKcEET_S7_S7_, symObjAddr: 0x1AEC, symBinAddr: 0x2487C, symSize: 0x94 }
  - { offset: 0x1D0508, size: 0x8, addend: 0x0, symName: __ZNSt3__111basic_regexIcNS_12regex_traitsIcEEE18__push_alternationEPNS_16__owns_one_stateIcEES6_, symObjAddr: 0x1A3C, symBinAddr: 0x247CC, symSize: 0xB0 }
  - { offset: 0x1D0865, size: 0x8, addend: 0x0, symName: __ZNSt3__111basic_regexIcNS_12regex_traitsIcEEE17__parse_simple_REIPKcEET_S7_S7_, symObjAddr: 0x838C, symBinAddr: 0x2A8C0, symSize: 0x88 }
  - { offset: 0x1D0917, size: 0x8, addend: 0x0, symName: __ZNSt3__111basic_regexIcNS_12regex_traitsIcEEE18__parse_ERE_branchIPKcEET_S7_S7_, symObjAddr: 0x8980, symBinAddr: 0x2AEB4, symSize: 0x5C }
  - { offset: 0x1D09BA, size: 0x8, addend: 0x0, symName: __ZNSt3__111basic_regexIcNS_12regex_traitsIcEEE22__parse_ERE_expressionIPKcEET_S7_S7_, symObjAddr: 0x89DC, symBinAddr: 0x2AF10, symSize: 0x194 }
  - { offset: 0x1D09EF, size: 0x8, addend: 0x0, symName: __ZNSt3__111__end_stateIcED1Ev, symObjAddr: 0x17DC, symBinAddr: 0x245B8, symSize: 0x4 }
  - { offset: 0x1D0A1B, size: 0x8, addend: 0x0, symName: __ZNSt3__111__end_stateIcED0Ev, symObjAddr: 0x17E0, symBinAddr: 0x245BC, symSize: 0x4 }
  - { offset: 0x1D0A47, size: 0x8, addend: 0x0, symName: __ZNKSt3__111__end_stateIcE6__execERNS_7__stateIcEE, symObjAddr: 0x17E4, symBinAddr: 0x245C0, symSize: 0xC }
  - { offset: 0x1D0A7B, size: 0x8, addend: 0x0, symName: __ZNKSt3__16__nodeIcE12__exec_splitEbRNS_7__stateIcEE, symObjAddr: 0x17F0, symBinAddr: 0x245CC, symSize: 0x4 }
  - { offset: 0x1D0ABB, size: 0x8, addend: 0x0, symName: __ZNKSt3__16__nodeIcE6__execERNS_7__stateIcEE, symObjAddr: 0x17F4, symBinAddr: 0x245D0, symSize: 0x4 }
  - { offset: 0x1D0C86, size: 0x8, addend: 0x0, symName: __ZNSt3__120__shared_ptr_pointerIPNS_13__empty_stateIcEENS_10shared_ptrIS2_E27__shared_ptr_default_deleteIS2_S2_EENS_9allocatorIS2_EEED1Ev, symObjAddr: 0x1860, symBinAddr: 0x2463C, symSize: 0x4 }
  - { offset: 0x1D0CA8, size: 0x8, addend: 0x0, symName: __ZNSt3__120__shared_ptr_pointerIPNS_13__empty_stateIcEENS_10shared_ptrIS2_E27__shared_ptr_default_deleteIS2_S2_EENS_9allocatorIS2_EEED1Ev, symObjAddr: 0x1860, symBinAddr: 0x2463C, symSize: 0x4 }
  - { offset: 0x1D0CDE, size: 0x8, addend: 0x0, symName: __ZNSt3__120__shared_ptr_pointerIPNS_13__empty_stateIcEENS_10shared_ptrIS2_E27__shared_ptr_default_deleteIS2_S2_EENS_9allocatorIS2_EEED0Ev, symObjAddr: 0x1864, symBinAddr: 0x24640, symSize: 0x14 }
  - { offset: 0x1D0D41, size: 0x8, addend: 0x0, symName: __ZNSt3__120__shared_ptr_pointerIPNS_13__empty_stateIcEENS_10shared_ptrIS2_E27__shared_ptr_default_deleteIS2_S2_EENS_9allocatorIS2_EEE16__on_zero_sharedEv, symObjAddr: 0x1878, symBinAddr: 0x24654, symSize: 0x18 }
  - { offset: 0x1D0D90, size: 0x8, addend: 0x0, symName: __ZNKSt3__120__shared_ptr_pointerIPNS_13__empty_stateIcEENS_10shared_ptrIS2_E27__shared_ptr_default_deleteIS2_S2_EENS_9allocatorIS2_EEE13__get_deleterERKSt9type_info, symObjAddr: 0x1890, symBinAddr: 0x2466C, symSize: 0x38 }
  - { offset: 0x1D0E83, size: 0x8, addend: 0x0, symName: __ZNSt3__120__shared_ptr_pointerIPNS_13__empty_stateIcEENS_10shared_ptrIS2_E27__shared_ptr_default_deleteIS2_S2_EENS_9allocatorIS2_EEE21__on_zero_shared_weakEv, symObjAddr: 0x18C8, symBinAddr: 0x246A4, symSize: 0x4 }
  - { offset: 0x1D0EB6, size: 0x8, addend: 0x0, symName: __ZNSt3__120__shared_ptr_pointerIPNS_13__empty_stateIcEENS_10shared_ptrIS2_E27__shared_ptr_default_deleteIS2_S2_EENS_9allocatorIS2_EEE21__on_zero_shared_weakEv, symObjAddr: 0x18C8, symBinAddr: 0x246A4, symSize: 0x4 }
  - { offset: 0x1D0ED7, size: 0x8, addend: 0x0, symName: __ZNSt3__120__shared_ptr_pointerIPNS_13__empty_stateIcEENS_10shared_ptrIS2_E27__shared_ptr_default_deleteIS2_S2_EENS_9allocatorIS2_EEE21__on_zero_shared_weakEv, symObjAddr: 0x18C8, symBinAddr: 0x246A4, symSize: 0x4 }
  - { offset: 0x1D0F09, size: 0x8, addend: 0x0, symName: __ZNSt3__120__shared_ptr_pointerIPNS_13__empty_stateIcEENS_10shared_ptrIS2_E27__shared_ptr_default_deleteIS2_S2_EENS_9allocatorIS2_EEE21__on_zero_shared_weakEv, symObjAddr: 0x18C8, symBinAddr: 0x246A4, symSize: 0x4 }
  - { offset: 0x1D0FB1, size: 0x8, addend: 0x0, symName: __ZNSt3__113__empty_stateIcED1Ev, symObjAddr: 0x1918, symBinAddr: 0x246A8, symSize: 0x44 }
  - { offset: 0x1D1037, size: 0x8, addend: 0x0, symName: __ZNSt3__113__empty_stateIcED0Ev, symObjAddr: 0x195C, symBinAddr: 0x246EC, symSize: 0x44 }
  - { offset: 0x1D10D8, size: 0x8, addend: 0x0, symName: __ZNKSt3__113__empty_stateIcE6__execERNS_7__stateIcEE, symObjAddr: 0x19A0, symBinAddr: 0x24730, symSize: 0x14 }
  - { offset: 0x1D112B, size: 0x8, addend: 0x0, symName: __ZNSt3__116__owns_one_stateIcED1Ev, symObjAddr: 0x19B4, symBinAddr: 0x24744, symSize: 0x44 }
  - { offset: 0x1D1193, size: 0x8, addend: 0x0, symName: __ZNSt3__116__owns_one_stateIcED0Ev, symObjAddr: 0x19F8, symBinAddr: 0x24788, symSize: 0x44 }
  - { offset: 0x1D1338, size: 0x8, addend: 0x0, symName: __ZNSt3__111basic_regexIcNS_12regex_traitsIcEEE17__parse_assertionIPKcEET_S7_S7_, symObjAddr: 0x1B80, symBinAddr: 0x24910, symSize: 0x288 }
  - { offset: 0x1D17FF, size: 0x8, addend: 0x0, symName: __ZNSt3__111basic_regexIcNS_12regex_traitsIcEEE12__parse_atomIPKcEET_S7_S7_, symObjAddr: 0x1E08, symBinAddr: 0x24B98, symSize: 0x1F8 }
  - { offset: 0x1D1A41, size: 0x8, addend: 0x0, symName: __ZNSt3__111basic_regexIcNS_12regex_traitsIcEEE23__parse_ERE_dupl_symbolIPKcEET_S7_S7_PNS_16__owns_one_stateIcEEjj, symObjAddr: 0x2000, symBinAddr: 0x24D90, symSize: 0x300 }
  - { offset: 0x1D1A55, size: 0x8, addend: 0x0, symName: __ZNSt3__111basic_regexIcNS_12regex_traitsIcEEE23__parse_ERE_dupl_symbolIPKcEET_S7_S7_PNS_16__owns_one_stateIcEEjj, symObjAddr: 0x2000, symBinAddr: 0x24D90, symSize: 0x300 }
  - { offset: 0x1D1D33, size: 0x8, addend: 0x0, symName: __ZNSt3__111basic_regexIcNS_12regex_traitsIcEEE20__push_word_boundaryEb, symObjAddr: 0x2300, symBinAddr: 0x25090, symSize: 0x74 }
  - { offset: 0x1D1D7B, size: 0x8, addend: 0x0, symName: __ZNSt3__111basic_regexIcNS_12regex_traitsIcEEE16__push_lookaheadERKS3_bj, symObjAddr: 0x2374, symBinAddr: 0x25104, symSize: 0x84 }
  - { offset: 0x1D1E35, size: 0x8, addend: 0x0, symName: __ZNSt3__111basic_regexIcNS_12regex_traitsIcEEE20__push_word_boundaryEb, symObjAddr: 0x2300, symBinAddr: 0x25090, symSize: 0x74 }
  - { offset: 0x1D1FD5, size: 0x8, addend: 0x0, symName: __ZNSt3__111basic_regexIcNS_12regex_traitsIcEEE26__parse_bracket_expressionIPKcEET_S7_S7_, symObjAddr: 0x3A44, symBinAddr: 0x266D8, symSize: 0x118 }
  - { offset: 0x1D2104, size: 0x8, addend: 0x0, symName: __ZNSt3__111basic_regexIcNS_12regex_traitsIcEEE33__push_begin_marked_subexpressionEv, symObjAddr: 0x3B5C, symBinAddr: 0x267F0, symSize: 0x64 }
  - { offset: 0x1D2118, size: 0x8, addend: 0x0, symName: __ZNSt3__111basic_regexIcNS_12regex_traitsIcEEE19__parse_atom_escapeIPKcEET_S7_S7_, symObjAddr: 0x39A0, symBinAddr: 0x26634, symSize: 0xA4 }
  - { offset: 0x1D2257, size: 0x8, addend: 0x0, symName: __ZNSt3__111basic_regexIcNS_12regex_traitsIcEEE26__parse_bracket_expressionIPKcEET_S7_S7_, symObjAddr: 0x3A44, symBinAddr: 0x266D8, symSize: 0x118 }
  - { offset: 0x1D226B, size: 0x8, addend: 0x0, symName: __ZNSt3__111basic_regexIcNS_12regex_traitsIcEEE33__push_begin_marked_subexpressionEv, symObjAddr: 0x3B5C, symBinAddr: 0x267F0, symSize: 0x64 }
  - { offset: 0x1D2332, size: 0x8, addend: 0x0, symName: __ZNSt3__111basic_regexIcNS_12regex_traitsIcEEE31__push_end_marked_subexpressionEj, symObjAddr: 0x3BC0, symBinAddr: 0x26854, symSize: 0x5C }
  - { offset: 0x1D2409, size: 0x8, addend: 0x0, symName: __ZNSt3__111basic_regexIcNS_12regex_traitsIcEEE25__parse_pattern_characterIPKcEET_S7_S7_, symObjAddr: 0x3C68, symBinAddr: 0x268FC, symSize: 0x6C }
  - { offset: 0x1D24F8, size: 0x8, addend: 0x0, symName: __ZNSt3__111basic_regexIcNS_12regex_traitsIcEEE17__parse_DUP_COUNTIPKcEET_S7_S7_Ri, symObjAddr: 0x7E08, symBinAddr: 0x2A33C, symSize: 0x98 }
  - { offset: 0x1D2637, size: 0x8, addend: 0x0, symName: __ZNSt3__119__throw_regex_errorB8ne200100ILNS_15regex_constants10error_typeE8EEEvv, symObjAddr: 0x7EA0, symBinAddr: 0x2A3D4, symSize: 0x4C }
  - { offset: 0x1D264B, size: 0x8, addend: 0x0, symName: __ZNSt3__111basic_regexIcNS_12regex_traitsIcEEE11__push_loopEmmPNS_16__owns_one_stateIcEEmmb, symObjAddr: 0x7CD4, symBinAddr: 0x2A208, symSize: 0x134 }
  - { offset: 0x1D2BBD, size: 0x8, addend: 0x0, symName: __ZNSt3__111__lookaheadIcNS_12regex_traitsIcEEEC2B8ne200100ERKNS_11basic_regexIcS2_EEbPNS_6__nodeIcEEj, symObjAddr: 0x27D4, symBinAddr: 0x25564, symSize: 0x88 }
  - { offset: 0x1D2DAC, size: 0x8, addend: 0x0, symName: __ZNSt3__120__l_anchor_multilineIcED1Ev, symObjAddr: 0x2444, symBinAddr: 0x251D4, symSize: 0x44 }
  - { offset: 0x1D2E32, size: 0x8, addend: 0x0, symName: __ZNSt3__120__l_anchor_multilineIcED0Ev, symObjAddr: 0x2488, symBinAddr: 0x25218, symSize: 0x44 }
  - { offset: 0x1D2EC3, size: 0x8, addend: 0x0, symName: __ZNKSt3__120__l_anchor_multilineIcE6__execERNS_7__stateIcEE, symObjAddr: 0x24CC, symBinAddr: 0x2525C, symSize: 0x68 }
  - { offset: 0x1D2F28, size: 0x8, addend: 0x0, symName: __ZNSt3__120__r_anchor_multilineIcED1Ev, symObjAddr: 0x2534, symBinAddr: 0x252C4, symSize: 0x44 }
  - { offset: 0x1D2FAE, size: 0x8, addend: 0x0, symName: __ZNSt3__120__r_anchor_multilineIcED0Ev, symObjAddr: 0x2578, symBinAddr: 0x25308, symSize: 0x44 }
  - { offset: 0x1D303F, size: 0x8, addend: 0x0, symName: __ZNKSt3__120__r_anchor_multilineIcE6__execERNS_7__stateIcEE, symObjAddr: 0x25BC, symBinAddr: 0x2534C, symSize: 0x54 }
  - { offset: 0x1D30A4, size: 0x8, addend: 0x0, symName: __ZNSt3__115__word_boundaryIcNS_12regex_traitsIcEEED1Ev, symObjAddr: 0x2610, symBinAddr: 0x253A0, symSize: 0x58 }
  - { offset: 0x1D3156, size: 0x8, addend: 0x0, symName: __ZNSt3__115__word_boundaryIcNS_12regex_traitsIcEEED0Ev, symObjAddr: 0x2668, symBinAddr: 0x253F8, symSize: 0x58 }
  - { offset: 0x1D3276, size: 0x8, addend: 0x0, symName: __ZNKSt3__115__word_boundaryIcNS_12regex_traitsIcEEE6__execERNS_7__stateIcEE, symObjAddr: 0x26C0, symBinAddr: 0x25450, symSize: 0x114 }
  - { offset: 0x1D34D0, size: 0x8, addend: 0x0, symName: __ZNSt3__111__lookaheadIcNS_12regex_traitsIcEEED1Ev, symObjAddr: 0x285C, symBinAddr: 0x255EC, symSize: 0x60 }
  - { offset: 0x1D35C4, size: 0x8, addend: 0x0, symName: __ZNSt3__111__lookaheadIcNS_12regex_traitsIcEEED0Ev, symObjAddr: 0x28BC, symBinAddr: 0x2564C, symSize: 0x60 }
  - { offset: 0x1D3785, size: 0x8, addend: 0x0, symName: __ZNKSt3__111__lookaheadIcNS_12regex_traitsIcEEE6__execERNS_7__stateIcEE, symObjAddr: 0x291C, symBinAddr: 0x256AC, symSize: 0x184 }
  - { offset: 0x1D3D02, size: 0x8, addend: 0x0, symName: __ZNSt3__16vectorINS_9sub_matchIPKcEENS_9allocatorIS4_EEE6assignEmRKS4_, symObjAddr: 0x2E70, symBinAddr: 0x25C00, symSize: 0x160 }
  - { offset: 0x1D4276, size: 0x8, addend: 0x0, symName: __ZNKSt3__111basic_regexIcNS_12regex_traitsIcEEE21__match_at_start_ecmaINS_9allocatorINS_9sub_matchIPKcEEEEEEbS8_S8_RNS_13match_resultsIS8_T_EENS_15regex_constants15match_flag_typeEb, symObjAddr: 0x2B10, symBinAddr: 0x258A0, symSize: 0x360 }
  - { offset: 0x1D4EBB, size: 0x8, addend: 0x0, symName: __ZNSt3__113match_resultsIPKcNS_9allocatorINS_9sub_matchIS2_EEEEE6__initEjS2_S2_b, symObjAddr: 0x2AA0, symBinAddr: 0x25830, symSize: 0x70 }
  - { offset: 0x1D53AA, size: 0x8, addend: 0x0, symName: __ZNSt3__16vectorINS_7__stateIcEENS_9allocatorIS2_EEE9push_backB8ne200100EOS2_, symObjAddr: 0x3070, symBinAddr: 0x25D60, symSize: 0x94 }
  - { offset: 0x1D55AE, size: 0x8, addend: 0x0, symName: __ZNSt3__16vectorINS_9sub_matchIPKcEENS_9allocatorIS4_EEE6resizeEmRKS4_, symObjAddr: 0x3144, symBinAddr: 0x25E34, symSize: 0x3C }
  - { offset: 0x1D5606, size: 0x8, addend: 0x0, symName: __ZNSt3__16vectorINS_9sub_matchIPKcEENS_9allocatorIS4_EEE6resizeEmRKS4_, symObjAddr: 0x3144, symBinAddr: 0x25E34, symSize: 0x3C }
  - { offset: 0x1D5677, size: 0x8, addend: 0x0, symName: __ZNSt3__16vectorINS_4pairImPKcEENS_9allocatorIS4_EEE6resizeEm, symObjAddr: 0x3180, symBinAddr: 0x25E70, symSize: 0x30 }
  - { offset: 0x1D56C0, size: 0x8, addend: 0x0, symName: __ZNSt3__16vectorINS_4pairImPKcEENS_9allocatorIS4_EEE6resizeEm, symObjAddr: 0x3180, symBinAddr: 0x25E70, symSize: 0x30 }
  - { offset: 0x1D5731, size: 0x8, addend: 0x0, symName: __ZNSt3__16vectorINS_9sub_matchIPKcEENS_9allocatorIS4_EEE16__init_with_sizeB8ne200100IPS4_S9_EEvT_T0_m, symObjAddr: 0x380C, symBinAddr: 0x264A0, symSize: 0x7C }
  - { offset: 0x1D5A2C, size: 0x8, addend: 0x0, symName: __ZNSt3__16vectorINS_4pairImPKcEENS_9allocatorIS4_EEE16__init_with_sizeB8ne200100IPS4_S9_EEvT_T0_m, symObjAddr: 0x3888, symBinAddr: 0x2651C, symSize: 0x70 }
  - { offset: 0x1D5D39, size: 0x8, addend: 0x0, symName: __ZNSt3__16vectorINS_7__stateIcEENS_9allocatorIS2_EEE16__destroy_vectorclB8ne200100Ev, symObjAddr: 0x3930, symBinAddr: 0x265C4, symSize: 0x70 }
  - { offset: 0x1D5E7C, size: 0x8, addend: 0x0, symName: __ZNSt3__17__stateIcED1Ev, symObjAddr: 0x3104, symBinAddr: 0x25DF4, symSize: 0x40 }
  - { offset: 0x1D652D, size: 0x8, addend: 0x0, symName: __ZNSt3__16vectorINS_7__stateIcEENS_9allocatorIS2_EEE24__emplace_back_slow_pathIJS2_EEEPS2_DpOT_, symObjAddr: 0x3248, symBinAddr: 0x25F38, symSize: 0x174 }
  - { offset: 0x1D68F8, size: 0x8, addend: 0x0, symName: __ZNSt3__16vectorINS_9sub_matchIPKcEENS_9allocatorIS4_EEE8__appendEmRKS4_, symObjAddr: 0x3550, symBinAddr: 0x2622C, symSize: 0x174 }
  - { offset: 0x1D6DEE, size: 0x8, addend: 0x0, symName: __ZNSt3__16vectorINS_4pairImPKcEENS_9allocatorIS4_EEE8__appendEm, symObjAddr: 0x36C4, symBinAddr: 0x263A0, symSize: 0x100 }
  - { offset: 0x1D6E28, size: 0x8, addend: 0x0, symName: __ZNSt3__16vectorINS_4pairImPKcEENS_9allocatorIS4_EEE8__appendEm, symObjAddr: 0x36C4, symBinAddr: 0x263A0, symSize: 0x100 }
  - { offset: 0x1D736E, size: 0x8, addend: 0x0, symName: __ZNSt3__114__split_bufferINS_7__stateIcEERNS_9allocatorIS2_EEED2Ev, symObjAddr: 0x3504, symBinAddr: 0x261E0, symSize: 0x4C }
  - { offset: 0x1D74A9, size: 0x8, addend: 0x0, symName: __ZNSt3__119__allocate_at_leastB8ne200100INS_9allocatorINS_7__stateIcEEEEEENS_19__allocation_resultINS_16allocator_traitsIT_E7pointerEEERS7_m, symObjAddr: 0x33D0, symBinAddr: 0x260AC, symSize: 0x44 }
  - { offset: 0x1D7CB4, size: 0x8, addend: 0x0, symName: __ZNSt3__16vectorINS_4pairImPKcEENS_9allocatorIS4_EEE11__vallocateB8ne200100Em, symObjAddr: 0x38F8, symBinAddr: 0x2658C, symSize: 0x38 }
  - { offset: 0x1D7D0C, size: 0x8, addend: 0x0, symName: __ZNSt3__16vectorINS_7__stateIcEENS_9allocatorIS2_EEE16__destroy_vectorclB8ne200100Ev, symObjAddr: 0x3930, symBinAddr: 0x265C4, symSize: 0x70 }
  - { offset: 0x1D7D3A, size: 0x8, addend: 0x0, symName: __ZNSt3__111basic_regexIcNS_12regex_traitsIcEEE22__parse_decimal_escapeIPKcEET_S7_S7_, symObjAddr: 0x3DA8, symBinAddr: 0x26A3C, symSize: 0xB4 }
  - { offset: 0x1D7DDA, size: 0x8, addend: 0x0, symName: __ZNSt3__111basic_regexIcNS_12regex_traitsIcEEE30__parse_character_class_escapeIPKcEET_S7_S7_, symObjAddr: 0x3E5C, symBinAddr: 0x26AF0, symSize: 0xCC }
  - { offset: 0x1D7DEE, size: 0x8, addend: 0x0, symName: __ZNSt3__111basic_regexIcNS_12regex_traitsIcEEE30__parse_character_class_escapeIPKcEET_S7_S7_, symObjAddr: 0x3E5C, symBinAddr: 0x26AF0, symSize: 0xCC }
  - { offset: 0x1D7EA8, size: 0x8, addend: 0x0, symName: __ZNSt3__111basic_regexIcNS_12regex_traitsIcEEE24__parse_character_escapeIPKcEET_S7_S7_PNS_12basic_stringIcNS_11char_traitsIcEENS_9allocatorIcEEEE, symObjAddr: 0x3F28, symBinAddr: 0x26BBC, symSize: 0x3F8 }
  - { offset: 0x1D8AE5, size: 0x8, addend: 0x0, symName: __ZNSt3__111basic_regexIcNS_12regex_traitsIcEEE11__push_charEc, symObjAddr: 0x4320, symBinAddr: 0x26FB4, symSize: 0xE4 }
  - { offset: 0x1D8B4C, size: 0x8, addend: 0x0, symName: __ZNSt3__111basic_regexIcNS_12regex_traitsIcEEE21__start_matching_listEb, symObjAddr: 0x4CBC, symBinAddr: 0x27950, symSize: 0x78 }
  - { offset: 0x1D8C17, size: 0x8, addend: 0x0, symName: __ZNSt3__120__bracket_expressionIcNS_12regex_traitsIcEEE10__add_charB8ne200100Ec, symObjAddr: 0x4D34, symBinAddr: 0x279C8, symSize: 0x80 }
  - { offset: 0x1D8CCE, size: 0x8, addend: 0x0, symName: __ZNSt3__111basic_regexIcNS_12regex_traitsIcEEE23__parse_expression_termIPKcEET_S7_S7_PNS_20__bracket_expressionIcS2_EE, symObjAddr: 0x5F44, symBinAddr: 0x289D0, symSize: 0x3D4 }
  - { offset: 0x1D9C73, size: 0x8, addend: 0x0, symName: __ZNSt3__111basic_regexIcNS_12regex_traitsIcEEE11__push_charEc, symObjAddr: 0x4320, symBinAddr: 0x26FB4, symSize: 0xE4 }
  - { offset: 0x1D9EBF, size: 0x8, addend: 0x0, symName: __ZNSt3__123__match_any_but_newlineIcED1Ev, symObjAddr: 0x3CD4, symBinAddr: 0x26968, symSize: 0x44 }
  - { offset: 0x1D9F45, size: 0x8, addend: 0x0, symName: __ZNSt3__123__match_any_but_newlineIcED0Ev, symObjAddr: 0x3D18, symBinAddr: 0x269AC, symSize: 0x44 }
  - { offset: 0x1D9FD6, size: 0x8, addend: 0x0, symName: __ZNSt3__111basic_regexIcNS_12regex_traitsIcEEE15__push_back_refEi, symObjAddr: 0x4450, symBinAddr: 0x270E4, symSize: 0xCC }
  - { offset: 0x1DA44B, size: 0x8, addend: 0x0, symName: __ZNSt3__118__match_char_icaseIcNS_12regex_traitsIcEEEC2B8ne200100ERKS2_cPNS_6__nodeIcEE, symObjAddr: 0x451C, symBinAddr: 0x271B0, symSize: 0x9C }
  - { offset: 0x1DA7D5, size: 0x8, addend: 0x0, symName: __ZNSt3__118__match_char_icaseIcNS_12regex_traitsIcEEED1Ev, symObjAddr: 0x45B8, symBinAddr: 0x2724C, symSize: 0x58 }
  - { offset: 0x1DA887, size: 0x8, addend: 0x0, symName: __ZNSt3__118__match_char_icaseIcNS_12regex_traitsIcEEED0Ev, symObjAddr: 0x4610, symBinAddr: 0x272A4, symSize: 0x58 }
  - { offset: 0x1DA944, size: 0x8, addend: 0x0, symName: __ZNKSt3__118__match_char_icaseIcNS_12regex_traitsIcEEE6__execERNS_7__stateIcEE, symObjAddr: 0x4668, symBinAddr: 0x272FC, symSize: 0x78 }
  - { offset: 0x1DA9FD, size: 0x8, addend: 0x0, symName: __ZNSt3__120__match_char_collateIcNS_12regex_traitsIcEEED1Ev, symObjAddr: 0x46E0, symBinAddr: 0x27374, symSize: 0x58 }
  - { offset: 0x1DAAAF, size: 0x8, addend: 0x0, symName: __ZNSt3__120__match_char_collateIcNS_12regex_traitsIcEEED0Ev, symObjAddr: 0x4738, symBinAddr: 0x273CC, symSize: 0x58 }
  - { offset: 0x1DAB6C, size: 0x8, addend: 0x0, symName: __ZNKSt3__120__match_char_collateIcNS_12regex_traitsIcEEE6__execERNS_7__stateIcEE, symObjAddr: 0x4790, symBinAddr: 0x27424, symSize: 0x48 }
  - { offset: 0x1DABDA, size: 0x8, addend: 0x0, symName: __ZNSt3__112__match_charIcED1Ev, symObjAddr: 0x47D8, symBinAddr: 0x2746C, symSize: 0x44 }
  - { offset: 0x1DAC60, size: 0x8, addend: 0x0, symName: __ZNSt3__112__match_charIcED0Ev, symObjAddr: 0x481C, symBinAddr: 0x274B0, symSize: 0x44 }
  - { offset: 0x1DACF1, size: 0x8, addend: 0x0, symName: __ZNKSt3__112__match_charIcE6__execERNS_7__stateIcEE, symObjAddr: 0x4860, symBinAddr: 0x274F4, symSize: 0x48 }
  - { offset: 0x1DAD5F, size: 0x8, addend: 0x0, symName: __ZNSt3__116__back_ref_icaseIcNS_12regex_traitsIcEEED1Ev, symObjAddr: 0x48A8, symBinAddr: 0x2753C, symSize: 0x58 }
  - { offset: 0x1DAE11, size: 0x8, addend: 0x0, symName: __ZNSt3__116__back_ref_icaseIcNS_12regex_traitsIcEEED0Ev, symObjAddr: 0x4900, symBinAddr: 0x27594, symSize: 0x58 }
  - { offset: 0x1DAECE, size: 0x8, addend: 0x0, symName: __ZNKSt3__116__back_ref_icaseIcNS_12regex_traitsIcEEE6__execERNS_7__stateIcEE, symObjAddr: 0x4958, symBinAddr: 0x275EC, symSize: 0xE8 }
  - { offset: 0x1DB037, size: 0x8, addend: 0x0, symName: __ZNSt3__118__back_ref_collateIcNS_12regex_traitsIcEEED1Ev, symObjAddr: 0x4A40, symBinAddr: 0x276D4, symSize: 0x58 }
  - { offset: 0x1DB0E9, size: 0x8, addend: 0x0, symName: __ZNSt3__118__back_ref_collateIcNS_12regex_traitsIcEEED0Ev, symObjAddr: 0x4A98, symBinAddr: 0x2772C, symSize: 0x58 }
  - { offset: 0x1DB1A6, size: 0x8, addend: 0x0, symName: __ZNKSt3__118__back_ref_collateIcNS_12regex_traitsIcEEE6__execERNS_7__stateIcEE, symObjAddr: 0x4AF0, symBinAddr: 0x27784, symSize: 0x8C }
  - { offset: 0x1DB279, size: 0x8, addend: 0x0, symName: __ZNSt3__110__back_refIcED1Ev, symObjAddr: 0x4B7C, symBinAddr: 0x27810, symSize: 0x44 }
  - { offset: 0x1DB2FF, size: 0x8, addend: 0x0, symName: __ZNSt3__110__back_refIcED0Ev, symObjAddr: 0x4BC0, symBinAddr: 0x27854, symSize: 0x44 }
  - { offset: 0x1DB390, size: 0x8, addend: 0x0, symName: __ZNKSt3__110__back_refIcE6__execERNS_7__stateIcEE, symObjAddr: 0x4C04, symBinAddr: 0x27898, symSize: 0xB8 }
  - { offset: 0x1DB503, size: 0x8, addend: 0x0, symName: __ZNSt3__111basic_regexIcNS_12regex_traitsIcEEE21__start_matching_listEb, symObjAddr: 0x4CBC, symBinAddr: 0x27950, symSize: 0x78 }
  - { offset: 0x1DB564, size: 0x8, addend: 0x0, symName: __ZNSt3__120__bracket_expressionIcNS_12regex_traitsIcEEEC2B8ne200100ERKS2_PNS_6__nodeIcEEbbb, symObjAddr: 0x4DB4, symBinAddr: 0x27A48, symSize: 0x18C }
  - { offset: 0x1DBCCC, size: 0x8, addend: 0x0, symName: __ZNSt3__16vectorIcNS_9allocatorIcEEE9push_backB8ne200100EOc, symObjAddr: 0x5D3C, symBinAddr: 0x288B0, symSize: 0xD4 }
  - { offset: 0x1DC7DB, size: 0x8, addend: 0x0, symName: __ZNSt3__16vectorINS_4pairINS_12basic_stringIcNS_11char_traitsIcEENS_9allocatorIcEEEES7_EENS5_IS8_EEE16__destroy_vectorclB8ne200100Ev, symObjAddr: 0x57F8, symBinAddr: 0x28400, symSize: 0x70 }
  - { offset: 0x1DC93B, size: 0x8, addend: 0x0, symName: __ZNSt3__120__bracket_expressionIcNS_12regex_traitsIcEEED1Ev, symObjAddr: 0x4F40, symBinAddr: 0x27BD4, symSize: 0xB4 }
  - { offset: 0x1DCE90, size: 0x8, addend: 0x0, symName: __ZNSt3__120__bracket_expressionIcNS_12regex_traitsIcEEED0Ev, symObjAddr: 0x4FF4, symBinAddr: 0x27C88, symSize: 0xB8 }
  - { offset: 0x1DD642, size: 0x8, addend: 0x0, symName: __ZNKSt3__120__bracket_expressionIcNS_12regex_traitsIcEEE6__execERNS_7__stateIcEE, symObjAddr: 0x50AC, symBinAddr: 0x27D40, symSize: 0x6C0 }
  - { offset: 0x1DE749, size: 0x8, addend: 0x0, symName: __ZNKSt3__112regex_traitsIcE20__lookup_collatenameIPcEENS_12basic_stringIcNS_11char_traitsIcEENS_9allocatorIcEEEET_SA_c, symObjAddr: 0x59C0, symBinAddr: 0x28590, symSize: 0x190 }
  - { offset: 0x1DF090, size: 0x8, addend: 0x0, symName: __ZNKSt3__112regex_traitsIcE9transformIPcEENS_12basic_stringIcNS_11char_traitsIcEENS_9allocatorIcEEEET_SA_, symObjAddr: 0x58EC, symBinAddr: 0x284F4, symSize: 0x9C }
  - { offset: 0x1DF487, size: 0x8, addend: 0x0, symName: __ZNKSt3__112regex_traitsIcE19__transform_primaryIPcEENS_12basic_stringIcNS_11char_traitsIcEENS_9allocatorIcEEEET_SA_c, symObjAddr: 0x5C48, symBinAddr: 0x287BC, symSize: 0xF4 }
  - { offset: 0x1DFCE1, size: 0x8, addend: 0x0, symName: __ZNSt3__14pairINS_12basic_stringIcNS_11char_traitsIcEENS_9allocatorIcEEEES6_ED1Ev, symObjAddr: 0x58AC, symBinAddr: 0x284B4, symSize: 0x40 }
  - { offset: 0x1E0031, size: 0x8, addend: 0x0, symName: __ZNSt3__112basic_stringIcNS_11char_traitsIcEENS_9allocatorIcEEE16__init_with_sizeB8ne200100IPcS7_EEvT_T0_m, symObjAddr: 0x5B50, symBinAddr: 0x28720, symSize: 0x9C }
  - { offset: 0x1E06D8, size: 0x8, addend: 0x0, symName: __ZNSt3__119__throw_regex_errorB8ne200100ILNS_15regex_constants10error_typeE5EEEvv, symObjAddr: 0x5EF8, symBinAddr: 0x28984, symSize: 0x4C }
  - { offset: 0x1E07D5, size: 0x8, addend: 0x0, symName: __ZNSt3__111basic_regexIcNS_12regex_traitsIcEEE25__parse_equivalence_classIPKcEET_S7_S7_PNS_20__bracket_expressionIcS2_EE, symObjAddr: 0x6318, symBinAddr: 0x28DA4, symSize: 0x1B8 }
  - { offset: 0x1E1115, size: 0x8, addend: 0x0, symName: __ZNSt3__111basic_regexIcNS_12regex_traitsIcEEE23__parse_character_classIPKcEET_S7_S7_PNS_20__bracket_expressionIcS2_EE, symObjAddr: 0x64D0, symBinAddr: 0x28F5C, symSize: 0x90 }
  - { offset: 0x1E13C5, size: 0x8, addend: 0x0, symName: __ZNSt3__111basic_regexIcNS_12regex_traitsIcEEE24__parse_collating_symbolIPKcEET_S7_S7_RNS_12basic_stringIcNS_11char_traitsIcEENS_9allocatorIcEEEE, symObjAddr: 0x6560, symBinAddr: 0x28FEC, symSize: 0xC4 }
  - { offset: 0x1E13E5, size: 0x8, addend: 0x0, symName: __ZNSt3__111basic_regexIcNS_12regex_traitsIcEEE24__parse_collating_symbolIPKcEET_S7_S7_RNS_12basic_stringIcNS_11char_traitsIcEENS_9allocatorIcEEEE, symObjAddr: 0x6560, symBinAddr: 0x28FEC, symSize: 0xC4 }
  - { offset: 0x1E178B, size: 0x8, addend: 0x0, symName: __ZNSt3__111basic_regexIcNS_12regex_traitsIcEEE20__parse_class_escapeIPKcEET_S7_S7_RNS_12basic_stringIcNS_11char_traitsIcEENS_9allocatorIcEEEEPNS_20__bracket_expressionIcS2_EE, symObjAddr: 0x6624, symBinAddr: 0x290B0, symSize: 0x15C }
  - { offset: 0x1E179F, size: 0x8, addend: 0x0, symName: __ZNSt3__111basic_regexIcNS_12regex_traitsIcEEE18__parse_awk_escapeIPKcEET_S7_S7_PNS_12basic_stringIcNS_11char_traitsIcEENS_9allocatorIcEEEE, symObjAddr: 0x6780, symBinAddr: 0x2920C, symSize: 0x2E0 }
  - { offset: 0x1E207A, size: 0x8, addend: 0x0, symName: __ZNSt3__120__bracket_expressionIcNS_12regex_traitsIcEEE11__add_rangeB8ne200100ENS_12basic_stringIcNS_11char_traitsIcEENS_9allocatorIcEEEES9_, symObjAddr: 0x6A60, symBinAddr: 0x294EC, symSize: 0x39C }
  - { offset: 0x1E208E, size: 0x8, addend: 0x0, symName: __ZNSt3__111basic_regexIcNS_12regex_traitsIcEEE20__parse_class_escapeIPKcEET_S7_S7_RNS_12basic_stringIcNS_11char_traitsIcEENS_9allocatorIcEEEEPNS_20__bracket_expressionIcS2_EE, symObjAddr: 0x6624, symBinAddr: 0x290B0, symSize: 0x15C }
  - { offset: 0x1E23F6, size: 0x8, addend: 0x0, symName: __ZNSt3__111basic_regexIcNS_12regex_traitsIcEEE18__parse_awk_escapeIPKcEET_S7_S7_PNS_12basic_stringIcNS_11char_traitsIcEENS_9allocatorIcEEEE, symObjAddr: 0x6780, symBinAddr: 0x2920C, symSize: 0x2E0 }
  - { offset: 0x1E240A, size: 0x8, addend: 0x0, symName: __ZNSt3__120__bracket_expressionIcNS_12regex_traitsIcEEE13__add_digraphB8ne200100Ecc, symObjAddr: 0x6DFC, symBinAddr: 0x29888, symSize: 0xA8 }
  - { offset: 0x1E2532, size: 0x8, addend: 0x0, symName: __ZNSt3__120__bracket_expressionIcNS_12regex_traitsIcEEE11__add_rangeB8ne200100ENS_12basic_stringIcNS_11char_traitsIcEENS_9allocatorIcEEEES9_, symObjAddr: 0x6A60, symBinAddr: 0x294EC, symSize: 0x39C }
  - { offset: 0x1E41E8, size: 0x8, addend: 0x0, symName: __ZNSt3__16vectorINS_12basic_stringIcNS_11char_traitsIcEENS_9allocatorIcEEEENS4_IS6_EEE9push_backB8ne200100ERKS6_, symObjAddr: 0x72AC, symBinAddr: 0x2997C, symSize: 0x3C }
  - { offset: 0x1E42AF, size: 0x8, addend: 0x0, symName: __ZNKSt3__112regex_traitsIcE18__lookup_classnameIPKcEEjT_S5_bc, symObjAddr: 0x762C, symBinAddr: 0x29C24, symSize: 0xB8 }
  - { offset: 0x1E4774, size: 0x8, addend: 0x0, symName: __ZNSt3__120__bracket_expressionIcNS_12regex_traitsIcEEE14__add_neg_charB8ne200100Ec, symObjAddr: 0x76E4, symBinAddr: 0x29CDC, symSize: 0x80 }
  - { offset: 0x1E4B3D, size: 0x8, addend: 0x0, symName: __ZNSt3__16vectorINS_4pairINS_12basic_stringIcNS_11char_traitsIcEENS_9allocatorIcEEEES7_EENS5_IS8_EEE9push_backB8ne200100EOS8_, symObjAddr: 0x7764, symBinAddr: 0x29D5C, symSize: 0x15C }
  - { offset: 0x1E5086, size: 0x8, addend: 0x0, symName: __ZNSt3__16vectorINS_4pairIccEENS_9allocatorIS2_EEE9push_backB8ne200100EOS2_, symObjAddr: 0x7A4C, symBinAddr: 0x29F94, symSize: 0xCC }
  - { offset: 0x1E5968, size: 0x8, addend: 0x0, symName: __ZNSt3__16vectorINS_12basic_stringIcNS_11char_traitsIcEENS_9allocatorIcEEEENS4_IS6_EEE9push_backB8ne200100ERKS6_, symObjAddr: 0x72AC, symBinAddr: 0x2997C, symSize: 0x3C }
  - { offset: 0x1E59FD, size: 0x8, addend: 0x0, symName: __ZNSt3__16vectorINS_12basic_stringIcNS_11char_traitsIcEENS_9allocatorIcEEEENS4_IS6_EEE22__construct_one_at_endB8ne200100IJRKS6_EEEvDpOT_, symObjAddr: 0x72E8, symBinAddr: 0x299B8, symSize: 0x5C }
  - { offset: 0x1E5C04, size: 0x8, addend: 0x0, symName: __ZNSt3__16vectorINS_12basic_stringIcNS_11char_traitsIcEENS_9allocatorIcEEEENS4_IS6_EEE24__emplace_back_slow_pathIJRKS6_EEEPS6_DpOT_, symObjAddr: 0x7344, symBinAddr: 0x29A14, symSize: 0x13C }
  - { offset: 0x1E6339, size: 0x8, addend: 0x0, symName: __ZNSt3__114__split_bufferINS_12basic_stringIcNS_11char_traitsIcEENS_9allocatorIcEEEERNS4_IS6_EEED2Ev, symObjAddr: 0x7558, symBinAddr: 0x29B50, symSize: 0x34 }
  - { offset: 0x1E645D, size: 0x8, addend: 0x0, symName: __ZNSt3__114__split_bufferINS_12basic_stringIcNS_11char_traitsIcEENS_9allocatorIcEEEERNS4_IS6_EEE17__destruct_at_endB8ne200100EPS6_, symObjAddr: 0x758C, symBinAddr: 0x29B84, symSize: 0x54 }
  - { offset: 0x1E6496, size: 0x8, addend: 0x0, symName: __ZNSt3__114__split_bufferINS_12basic_stringIcNS_11char_traitsIcEENS_9allocatorIcEEEERNS4_IS6_EEE17__destruct_at_endB8ne200100EPS6_, symObjAddr: 0x758C, symBinAddr: 0x29B84, symSize: 0x54 }
  - { offset: 0x1E689E, size: 0x8, addend: 0x0, symName: __ZNSt3__114__split_bufferINS_4pairINS_12basic_stringIcNS_11char_traitsIcEENS_9allocatorIcEEEES7_EERNS5_IS8_EEED2Ev, symObjAddr: 0x7A00, symBinAddr: 0x29F48, symSize: 0x4C }
  - { offset: 0x1E69DB, size: 0x8, addend: 0x0, symName: __ZNSt3__119__allocate_at_leastB8ne200100INS_9allocatorINS_4pairINS_12basic_stringIcNS_11char_traitsIcEENS1_IcEEEES7_EEEEEENS_19__allocation_resultINS_16allocator_traitsIT_E7pointerEEERSC_m, symObjAddr: 0x79BC, symBinAddr: 0x29F04, symSize: 0x44 }
  - { offset: 0x1E6CEE, size: 0x8, addend: 0x0, symName: __ZNSt3__119__allocate_at_leastB8ne200100INS_9allocatorINS_4pairIccEEEEEENS_19__allocation_resultINS_16allocator_traitsIT_E7pointerEEERS7_m, symObjAddr: 0x7B2C, symBinAddr: 0x2A060, symSize: 0x30 }
  - { offset: 0x1E6D37, size: 0x8, addend: 0x0, symName: __ZNSt3__128__begin_marked_subexpressionIcED1Ev, symObjAddr: 0x7B5C, symBinAddr: 0x2A090, symSize: 0x44 }
  - { offset: 0x1E6DBD, size: 0x8, addend: 0x0, symName: __ZNSt3__128__begin_marked_subexpressionIcED0Ev, symObjAddr: 0x7BA0, symBinAddr: 0x2A0D4, symSize: 0x44 }
  - { offset: 0x1E6E4E, size: 0x8, addend: 0x0, symName: __ZNKSt3__128__begin_marked_subexpressionIcE6__execERNS_7__stateIcEE, symObjAddr: 0x7BE4, symBinAddr: 0x2A118, symSize: 0x30 }
  - { offset: 0x1E6EDB, size: 0x8, addend: 0x0, symName: __ZNSt3__126__end_marked_subexpressionIcED1Ev, symObjAddr: 0x7C14, symBinAddr: 0x2A148, symSize: 0x44 }
  - { offset: 0x1E6F61, size: 0x8, addend: 0x0, symName: __ZNSt3__126__end_marked_subexpressionIcED0Ev, symObjAddr: 0x7C58, symBinAddr: 0x2A18C, symSize: 0x44 }
  - { offset: 0x1E6FF2, size: 0x8, addend: 0x0, symName: __ZNKSt3__126__end_marked_subexpressionIcE6__execERNS_7__stateIcEE, symObjAddr: 0x7C9C, symBinAddr: 0x2A1D0, symSize: 0x38 }
  - { offset: 0x1E72BC, size: 0x8, addend: 0x0, symName: __ZNSt3__16__loopIcED0Ev, symObjAddr: 0x7FA0, symBinAddr: 0x2A4D4, symSize: 0x68 }
  - { offset: 0x1E73AD, size: 0x8, addend: 0x0, symName: __ZNSt3__16__loopIcED1Ev, symObjAddr: 0x7F38, symBinAddr: 0x2A46C, symSize: 0x68 }
  - { offset: 0x1E7499, size: 0x8, addend: 0x0, symName: __ZNKSt3__16__loopIcE6__execERNS_7__stateIcEE, symObjAddr: 0x8008, symBinAddr: 0x2A53C, symSize: 0xB0 }
  - { offset: 0x1E7564, size: 0x8, addend: 0x0, symName: __ZNKSt3__16__loopIcE13__init_repeatB8ne200100ERNS_7__stateIcEE, symObjAddr: 0x81B8, symBinAddr: 0x2A6EC, symSize: 0x50 }
  - { offset: 0x1E75CD, size: 0x8, addend: 0x0, symName: __ZNKSt3__16__loopIcE12__exec_splitEbRNS_7__stateIcEE, symObjAddr: 0x80B8, symBinAddr: 0x2A5EC, symSize: 0x30 }
  - { offset: 0x1E7659, size: 0x8, addend: 0x0, symName: __ZNSt3__117__owns_two_statesIcED1Ev, symObjAddr: 0x80E8, symBinAddr: 0x2A61C, symSize: 0x68 }
  - { offset: 0x1E76E8, size: 0x8, addend: 0x0, symName: __ZNSt3__117__owns_two_statesIcED0Ev, symObjAddr: 0x8150, symBinAddr: 0x2A684, symSize: 0x68 }
  - { offset: 0x1E7782, size: 0x8, addend: 0x0, symName: __ZNSt3__117__repeat_one_loopIcED1Ev, symObjAddr: 0x8208, symBinAddr: 0x2A73C, symSize: 0x4 }
  - { offset: 0x1E77AE, size: 0x8, addend: 0x0, symName: __ZNSt3__117__repeat_one_loopIcED0Ev, symObjAddr: 0x820C, symBinAddr: 0x2A740, symSize: 0x4 }
  - { offset: 0x1E77DA, size: 0x8, addend: 0x0, symName: __ZNKSt3__117__repeat_one_loopIcE6__execERNS_7__stateIcEE, symObjAddr: 0x8210, symBinAddr: 0x2A744, symSize: 0x14 }
  - { offset: 0x1E7848, size: 0x8, addend: 0x0, symName: __ZNSt3__111__alternateIcED1Ev, symObjAddr: 0x8224, symBinAddr: 0x2A758, symSize: 0x68 }
  - { offset: 0x1E78F7, size: 0x8, addend: 0x0, symName: __ZNSt3__111__alternateIcED0Ev, symObjAddr: 0x828C, symBinAddr: 0x2A7C0, symSize: 0x68 }
  - { offset: 0x1E79B1, size: 0x8, addend: 0x0, symName: __ZNKSt3__111__alternateIcE6__execERNS_7__stateIcEE, symObjAddr: 0x82F4, symBinAddr: 0x2A828, symSize: 0xC }
  - { offset: 0x1E79E5, size: 0x8, addend: 0x0, symName: __ZNKSt3__111__alternateIcE12__exec_splitEbRNS_7__stateIcEE, symObjAddr: 0x8300, symBinAddr: 0x2A834, symSize: 0x24 }
  - { offset: 0x1E7A2D, size: 0x8, addend: 0x0, symName: __ZNSt3__121__empty_non_own_stateIcED1Ev, symObjAddr: 0x8324, symBinAddr: 0x2A858, symSize: 0x4 }
  - { offset: 0x1E7A59, size: 0x8, addend: 0x0, symName: __ZNSt3__121__empty_non_own_stateIcED0Ev, symObjAddr: 0x8328, symBinAddr: 0x2A85C, symSize: 0x4 }
  - { offset: 0x1E7A85, size: 0x8, addend: 0x0, symName: __ZNKSt3__121__empty_non_own_stateIcE6__execERNS_7__stateIcEE, symObjAddr: 0x832C, symBinAddr: 0x2A860, symSize: 0x14 }
  - { offset: 0x1E7AD6, size: 0x8, addend: 0x0, symName: __ZNSt3__111basic_regexIcNS_12regex_traitsIcEEE18__parse_nondupl_REIPKcEET_S7_S7_, symObjAddr: 0x8414, symBinAddr: 0x2A948, symSize: 0x100 }
  - { offset: 0x1E7D61, size: 0x8, addend: 0x0, symName: __ZNSt3__111basic_regexIcNS_12regex_traitsIcEEE22__parse_RE_dupl_symbolIPKcEET_S7_S7_PNS_16__owns_one_stateIcEEjj, symObjAddr: 0x8514, symBinAddr: 0x2AA48, symSize: 0x1C0 }
  - { offset: 0x1E7D75, size: 0x8, addend: 0x0, symName: __ZNSt3__111basic_regexIcNS_12regex_traitsIcEEE22__parse_RE_dupl_symbolIPKcEET_S7_S7_PNS_16__owns_one_stateIcEEjj, symObjAddr: 0x8514, symBinAddr: 0x2AA48, symSize: 0x1C0 }
  - { offset: 0x1E80FA, size: 0x8, addend: 0x0, symName: __ZNSt3__111basic_regexIcNS_12regex_traitsIcEEE32__parse_one_char_or_coll_elem_REIPKcEET_S7_S7_, symObjAddr: 0x86D4, symBinAddr: 0x2AC08, symSize: 0x114 }
  - { offset: 0x1E81E3, size: 0x8, addend: 0x0, symName: __ZNSt3__111basic_regexIcNS_12regex_traitsIcEEE32__parse_one_char_or_coll_elem_REIPKcEET_S7_S7_, symObjAddr: 0x86D4, symBinAddr: 0x2AC08, symSize: 0x114 }
  - { offset: 0x1E8397, size: 0x8, addend: 0x0, symName: __ZNSt3__111basic_regexIcNS_12regex_traitsIcEEE15__test_back_refEc, symObjAddr: 0x8924, symBinAddr: 0x2AE58, symSize: 0x5C }
  - { offset: 0x1E84A5, size: 0x8, addend: 0x0, symName: __ZNSt3__111basic_regexIcNS_12regex_traitsIcEEE18__parse_ERE_branchIPKcEET_S7_S7_, symObjAddr: 0x8980, symBinAddr: 0x2AEB4, symSize: 0x5C }
  - { offset: 0x1E8602, size: 0x8, addend: 0x0, symName: __ZNSt3__111basic_regexIcNS_12regex_traitsIcEEE19__parse_QUOTED_CHARIPKcEET_S7_S7_, symObjAddr: 0x87E8, symBinAddr: 0x2AD1C, symSize: 0x74 }
  - { offset: 0x1E8702, size: 0x8, addend: 0x0, symName: __ZNSt3__111__match_anyIcED1Ev, symObjAddr: 0x885C, symBinAddr: 0x2AD90, symSize: 0x44 }
  - { offset: 0x1E8788, size: 0x8, addend: 0x0, symName: __ZNSt3__111__match_anyIcED0Ev, symObjAddr: 0x88A0, symBinAddr: 0x2ADD4, symSize: 0x44 }
  - { offset: 0x1E8819, size: 0x8, addend: 0x0, symName: __ZNKSt3__111__match_anyIcE6__execERNS_7__stateIcEE, symObjAddr: 0x88E4, symBinAddr: 0x2AE18, symSize: 0x40 }
  - { offset: 0x1E886A, size: 0x8, addend: 0x0, symName: __ZNSt3__111basic_regexIcNS_12regex_traitsIcEEE22__parse_ERE_expressionIPKcEET_S7_S7_, symObjAddr: 0x89DC, symBinAddr: 0x2AF10, symSize: 0x194 }
  - { offset: 0x1E8AAD, size: 0x8, addend: 0x0, symName: __ZNSt3__111basic_regexIcNS_12regex_traitsIcEEE33__parse_one_char_or_coll_elem_EREIPKcEET_S7_S7_, symObjAddr: 0x8B70, symBinAddr: 0x2B0A4, symSize: 0xC4 }
  - { offset: 0x1E8AC1, size: 0x8, addend: 0x0, symName: __ZNSt3__111basic_regexIcNS_12regex_traitsIcEEE33__parse_one_char_or_coll_elem_EREIPKcEET_S7_S7_, symObjAddr: 0x8B70, symBinAddr: 0x2B0A4, symSize: 0xC4 }
  - { offset: 0x1E8C25, size: 0x8, addend: 0x0, symName: __ZNSt3__111basic_regexIcNS_12regex_traitsIcEEE20__parse_ORD_CHAR_EREIPKcEET_S7_S7_, symObjAddr: 0x8C34, symBinAddr: 0x2B168, symSize: 0x88 }
  - { offset: 0x1E8C83, size: 0x8, addend: 0x0, symName: __ZNSt3__111basic_regexIcNS_12regex_traitsIcEEE23__parse_QUOTED_CHAR_EREIPKcEET_S7_S7_, symObjAddr: 0x8CBC, symBinAddr: 0x2B1F0, symSize: 0xC4 }
  - { offset: 0x1E8DE0, size: 0x8, addend: 0x0, symName: __ZNKSt3__111basic_regexIcNS_12regex_traitsIcEEE16__match_at_startINS_9allocatorINS_9sub_matchIPKcEEEEEEbS8_S8_RNS_13match_resultsIS8_T_EENS_15regex_constants15match_flag_typeEb, symObjAddr: 0x91C0, symBinAddr: 0x2B6F4, symSize: 0x20 }
  - { offset: 0x1E8EDD, size: 0x8, addend: 0x0, symName: __ZNSt3__16vectorINS_9sub_matchINS_11__wrap_iterIPKcEEEENS_9allocatorIS6_EEE6resizeEm, symObjAddr: 0xADC4, symBinAddr: 0x2CB50, symSize: 0x3C }
  - { offset: 0x1E8F26, size: 0x8, addend: 0x0, symName: __ZNSt3__16vectorINS_9sub_matchINS_11__wrap_iterIPKcEEEENS_9allocatorIS6_EEE6resizeEm, symObjAddr: 0xADC4, symBinAddr: 0x2CB50, symSize: 0x3C }
  - { offset: 0x1E8F97, size: 0x8, addend: 0x0, symName: __ZNKSt3__111basic_regexIcNS_12regex_traitsIcEEE27__match_at_start_posix_subsINS_9allocatorINS_9sub_matchIPKcEEEEEEbS8_S8_RNS_13match_resultsIS8_T_EENS_15regex_constants15match_flag_typeEb, symObjAddr: 0x96E0, symBinAddr: 0x2BC14, symSize: 0x494 }
  - { offset: 0x1EA1F6, size: 0x8, addend: 0x0, symName: __ZNKSt3__111basic_regexIcNS_12regex_traitsIcEEE29__match_at_start_posix_nosubsINS_9allocatorINS_9sub_matchIPKcEEEEEEbS8_S8_RNS_13match_resultsIS8_T_EENS_15regex_constants15match_flag_typeEb, symObjAddr: 0x91E0, symBinAddr: 0x2B714, symSize: 0x500 }
  - { offset: 0x1EB22C, size: 0x8, addend: 0x0, symName: __ZNSt3__15dequeINS_7__stateIcEENS_9allocatorIS2_EEE9push_backEOS2_, symObjAddr: 0x9B74, symBinAddr: 0x2C0A8, symSize: 0x100 }
  - { offset: 0x1EB463, size: 0x8, addend: 0x0, symName: __ZNSt3__15dequeINS_7__stateIcEENS_9allocatorIS2_EEE10push_frontEOS2_, symObjAddr: 0x9CE8, symBinAddr: 0x2C21C, symSize: 0xF0 }
  - { offset: 0x1EB692, size: 0x8, addend: 0x0, symName: __ZNSt3__15dequeINS_7__stateIcEENS_9allocatorIS2_EEE8pop_backEv, symObjAddr: 0x9C74, symBinAddr: 0x2C1A8, symSize: 0x74 }
  - { offset: 0x1EB774, size: 0x8, addend: 0x0, symName: __ZNSt3__15dequeINS_7__stateIcEENS_9allocatorIS2_EEED2B8ne200100Ev, symObjAddr: 0xA984, symBinAddr: 0x2C75C, symSize: 0x14C }
  - { offset: 0x1EBBC1, size: 0x8, addend: 0x0, symName: __ZNSt3__16vectorINS_9sub_matchIPKcEENS_9allocatorIS4_EEE18__assign_with_sizeB8ne200100IPS4_S9_EEvT_T0_l, symObjAddr: 0xAB1C, symBinAddr: 0x2C8A8, symSize: 0x188 }
  - { offset: 0x1EC32D, size: 0x8, addend: 0x0, symName: __ZNSt3__16vectorINS_4pairImPKcEENS_9allocatorIS4_EEE18__assign_with_sizeB8ne200100IPS4_S9_EEvT_T0_l, symObjAddr: 0xACA4, symBinAddr: 0x2CA30, symSize: 0x120 }
  - { offset: 0x1EC34A, size: 0x8, addend: 0x0, symName: __ZNSt3__16vectorINS_4pairImPKcEENS_9allocatorIS4_EEE18__assign_with_sizeB8ne200100IPS4_S9_EEvT_T0_l, symObjAddr: 0xACA4, symBinAddr: 0x2CA30, symSize: 0x120 }
  - { offset: 0x1ECA78, size: 0x8, addend: 0x0, symName: __ZNSt3__16vectorINS_9sub_matchINS_11__wrap_iterIPKcEEEENS_9allocatorIS6_EEE6resizeEm, symObjAddr: 0xADC4, symBinAddr: 0x2CB50, symSize: 0x3C }
  - { offset: 0x1ECAC1, size: 0x8, addend: 0x0, symName: __ZNSt3__15dequeINS_7__stateIcEENS_9allocatorIS2_EEE19__add_back_capacityEv, symObjAddr: 0x9DD8, symBinAddr: 0x2C30C, symSize: 0x1B0 }
  - { offset: 0x1ED25A, size: 0x8, addend: 0x0, symName: __ZNSt3__15dequeINS_7__stateIcEENS_9allocatorIS2_EEE25__maybe_remove_back_spareB8ne200100Eb, symObjAddr: 0xA4D8, symBinAddr: 0x2C4BC, symSize: 0x74 }
  - { offset: 0x1ED431, size: 0x8, addend: 0x0, symName: __ZNSt3__15dequeINS_7__stateIcEENS_9allocatorIS2_EEE20__add_front_capacityEv, symObjAddr: 0xA54C, symBinAddr: 0x2C530, symSize: 0x22C }
  - { offset: 0x1EF664, size: 0x8, addend: 0x0, symName: __ZNSt3__16vectorINS_9sub_matchINS_11__wrap_iterIPKcEEEENS_9allocatorIS6_EEE8__appendEm, symObjAddr: 0xAE00, symBinAddr: 0x2CB8C, symSize: 0x168 }
  - { offset: 0x1F21EB, size: 0x8, addend: 0x0, symName: __ZNK8worklets19WorkletEventHandler7processERKNSt3__110shared_ptrINS_14WorkletRuntimeEEEdRKN8facebook3jsi5ValueE, symObjAddr: 0x0, symBinAddr: 0x2CE28, symSize: 0xA4 }
  - { offset: 0x1F23AF, size: 0x8, addend: 0x0, symName: __ZN8worklets19runOnRuntimeGuardedIJN8facebook3jsi5ValueERKS3_EEES3_RNS2_7RuntimeES5_DpOT_, symObjAddr: 0xCC, symBinAddr: 0x2CEF4, symSize: 0x1A0 }
  - { offset: 0x1F9669, size: 0x8, addend: 0x0, symName: __ZNK8worklets19WorkletEventHandler7processERKNSt3__110shared_ptrINS_14WorkletRuntimeEEEdRKN8facebook3jsi5ValueE, symObjAddr: 0x0, symBinAddr: 0x2CE28, symSize: 0xA4 }
  - { offset: 0x1F9806, size: 0x8, addend: 0x0, symName: __ZNK8worklets19WorkletEventHandler12getHandlerIdEv, symObjAddr: 0xA4, symBinAddr: 0x2CECC, symSize: 0x8 }
  - { offset: 0x1F982F, size: 0x8, addend: 0x0, symName: __ZNK8worklets19WorkletEventHandler12getEventNameEv, symObjAddr: 0xAC, symBinAddr: 0x2CED4, symSize: 0x8 }
  - { offset: 0x1F9858, size: 0x8, addend: 0x0, symName: __ZNK8worklets19WorkletEventHandler18getEmitterReactTagEv, symObjAddr: 0xB4, symBinAddr: 0x2CEDC, symSize: 0x8 }
  - { offset: 0x1F9881, size: 0x8, addend: 0x0, symName: __ZNK8worklets19WorkletEventHandler27shouldIgnoreEmitterReactTagEv, symObjAddr: 0xBC, symBinAddr: 0x2CEE4, symSize: 0x10 }
  - { offset: 0x20B9E6, size: 0x8, addend: 0x0, symName: __ZNSt3__115allocate_sharedB8ne200100IN8facebook3jsi19DecoratedHostObjectENS_9allocatorIS3_EEJRNS2_16RuntimeDecoratorINS2_7RuntimeES7_EENS_10shared_ptrINS2_10HostObjectEEEELi0EEENSA_IT_EERKT0_DpOT1_, symObjAddr: 0x13C0, symBinAddr: 0x2E444, symSize: 0x60 }
  - { offset: 0x20C493, size: 0x8, addend: 0x0, symName: __ZNSt3__112construct_atB8ne200100IN8facebook3jsi19DecoratedHostObjectEJRNS2_16RuntimeDecoratorINS2_7RuntimeES5_EENS_10shared_ptrINS2_10HostObjectEEEEPS3_EEPT_SD_DpOT0_, symObjAddr: 0x14B4, symBinAddr: 0x2E538, symSize: 0x80 }
  - { offset: 0x20E87D, size: 0x8, addend: 0x0, symName: __ZN8worklets20WorkletHermesRuntimeC2ENSt3__110unique_ptrIN8facebook6hermes13HermesRuntimeENS1_14default_deleteIS5_EEEERKNS1_10shared_ptrINS3_5react18MessageQueueThreadEEERKNS1_12basic_stringIcNS1_11char_traitsIcEENS1_9allocatorIcEEEE, symObjAddr: 0x0, symBinAddr: 0x2D094, symSize: 0x2C }
  - { offset: 0x20E8B5, size: 0x8, addend: 0x0, symName: __ZN8worklets20WorkletHermesRuntimeC2ENSt3__110unique_ptrIN8facebook6hermes13HermesRuntimeENS1_14default_deleteIS5_EEEERKNS1_10shared_ptrINS3_5react18MessageQueueThreadEEERKNS1_12basic_stringIcNS1_11char_traitsIcEENS1_9allocatorIcEEEE, symObjAddr: 0x0, symBinAddr: 0x2D094, symSize: 0x2C }
  - { offset: 0x20E9CF, size: 0x8, addend: 0x0, symName: __ZN8worklets20WorkletHermesRuntimeC1ENSt3__110unique_ptrIN8facebook6hermes13HermesRuntimeENS1_14default_deleteIS5_EEEERKNS1_10shared_ptrINS3_5react18MessageQueueThreadEEERKNS1_12basic_stringIcNS1_11char_traitsIcEENS1_9allocatorIcEEEE, symObjAddr: 0x2C, symBinAddr: 0x2D0C0, symSize: 0x2C }
  - { offset: 0x20EA27, size: 0x8, addend: 0x0, symName: __ZN8worklets20WorkletHermesRuntimeC1ENSt3__110unique_ptrIN8facebook6hermes13HermesRuntimeENS1_14default_deleteIS5_EEEERKNS1_10shared_ptrINS3_5react18MessageQueueThreadEEERKNS1_12basic_stringIcNS1_11char_traitsIcEENS1_9allocatorIcEEEE, symObjAddr: 0x2C, symBinAddr: 0x2D0C0, symSize: 0x2C }
  - { offset: 0x20EA58, size: 0x8, addend: 0x0, symName: __ZN8worklets20WorkletHermesRuntimeC1ENSt3__110unique_ptrIN8facebook6hermes13HermesRuntimeENS1_14default_deleteIS5_EEEERKNS1_10shared_ptrINS3_5react18MessageQueueThreadEEERKNS1_12basic_stringIcNS1_11char_traitsIcEENS1_9allocatorIcEEEE, symObjAddr: 0x2C, symBinAddr: 0x2D0C0, symSize: 0x2C }
  - { offset: 0x20EBF3, size: 0x8, addend: 0x0, symName: __ZN8worklets20WorkletHermesRuntimeD2Ev, symObjAddr: 0x58, symBinAddr: 0x2D0EC, symSize: 0x48 }
  - { offset: 0x20ECFD, size: 0x8, addend: 0x0, symName: __ZN8worklets20WorkletHermesRuntimeD1Ev, symObjAddr: 0xA0, symBinAddr: 0x2D134, symSize: 0x4 }
  - { offset: 0x20ED20, size: 0x8, addend: 0x0, symName: __ZN8worklets20WorkletHermesRuntimeD1Ev, symObjAddr: 0xA0, symBinAddr: 0x2D134, symSize: 0x4 }
  - { offset: 0x20ED50, size: 0x8, addend: 0x0, symName: __ZThn8_N8worklets20WorkletHermesRuntimeD1Ev, symObjAddr: 0xA4, symBinAddr: 0x2D138, symSize: 0x8 }
  - { offset: 0x20ED91, size: 0x8, addend: 0x0, symName: __ZN8worklets20WorkletHermesRuntimeD0Ev, symObjAddr: 0xAC, symBinAddr: 0x2D140, symSize: 0x14 }
  - { offset: 0x20EDFF, size: 0x8, addend: 0x0, symName: __ZThn8_N8worklets20WorkletHermesRuntimeD0Ev, symObjAddr: 0xC0, symBinAddr: 0x2D154, symSize: 0x18 }
  - { offset: 0x20EE93, size: 0x8, addend: 0x0, symName: __ZN8facebook3jsi20WithRuntimeDecoratorIN8worklets23WorkletsReentrancyCheckENS0_7RuntimeES4_E13castInterfaceERKNS0_4UUIDE, symObjAddr: 0xD8, symBinAddr: 0x2D16C, symSize: 0x10 }
  - { offset: 0x20EED8, size: 0x8, addend: 0x0, symName: __ZN8facebook3jsi20WithRuntimeDecoratorIN8worklets23WorkletsReentrancyCheckENS0_7RuntimeES4_E13castInterfaceERKNS0_4UUIDE, symObjAddr: 0xD8, symBinAddr: 0x2D16C, symSize: 0x10 }
  - { offset: 0x20EEFE, size: 0x8, addend: 0x0, symName: __ZN8facebook3jsi20WithRuntimeDecoratorIN8worklets23WorkletsReentrancyCheckENS0_7RuntimeES4_E13castInterfaceERKNS0_4UUIDE, symObjAddr: 0xD8, symBinAddr: 0x2D16C, symSize: 0x10 }
  - { offset: 0x20EF5A, size: 0x8, addend: 0x0, symName: __ZN8facebook3jsi20WithRuntimeDecoratorIN8worklets23WorkletsReentrancyCheckENS0_7RuntimeES4_E18evaluateJavaScriptERKNSt3__110shared_ptrIKNS0_6BufferEEERKNS6_12basic_stringIcNS6_11char_traitsIcEENS6_9allocatorIcEEEE, symObjAddr: 0xE8, symBinAddr: 0x2D17C, symSize: 0x10 }
  - { offset: 0x20EFAE, size: 0x8, addend: 0x0, symName: __ZN8facebook3jsi20WithRuntimeDecoratorIN8worklets23WorkletsReentrancyCheckENS0_7RuntimeES4_E18evaluateJavaScriptERKNSt3__110shared_ptrIKNS0_6BufferEEERKNS6_12basic_stringIcNS6_11char_traitsIcEENS6_9allocatorIcEEEE, symObjAddr: 0xE8, symBinAddr: 0x2D17C, symSize: 0x10 }
  - { offset: 0x20EFDB, size: 0x8, addend: 0x0, symName: __ZN8facebook3jsi20WithRuntimeDecoratorIN8worklets23WorkletsReentrancyCheckENS0_7RuntimeES4_E18evaluateJavaScriptERKNSt3__110shared_ptrIKNS0_6BufferEEERKNS6_12basic_stringIcNS6_11char_traitsIcEENS6_9allocatorIcEEEE, symObjAddr: 0xE8, symBinAddr: 0x2D17C, symSize: 0x10 }
  - { offset: 0x20F12E, size: 0x8, addend: 0x0, symName: __ZN8facebook3jsi20WithRuntimeDecoratorIN8worklets23WorkletsReentrancyCheckENS0_7RuntimeES4_E17prepareJavaScriptERKNSt3__110shared_ptrIKNS0_6BufferEEENS6_12basic_stringIcNS6_11char_traitsIcEENS6_9allocatorIcEEEE, symObjAddr: 0xF8, symBinAddr: 0x2D18C, symSize: 0x6C }
  - { offset: 0x20F3EB, size: 0x8, addend: 0x0, symName: __ZN8facebook3jsi16RuntimeDecoratorINS0_7RuntimeES2_E17prepareJavaScriptERKNSt3__110shared_ptrIKNS0_6BufferEEENS4_12basic_stringIcNS4_11char_traitsIcEENS4_9allocatorIcEEEE, symObjAddr: 0xE98, symBinAddr: 0x2DF2C, symSize: 0x78 }
  - { offset: 0x20F6CC, size: 0x8, addend: 0x0, symName: __ZN8facebook3jsi20WithRuntimeDecoratorIN8worklets23WorkletsReentrancyCheckENS0_7RuntimeES4_E26evaluatePreparedJavaScriptERKNSt3__110shared_ptrIKNS0_18PreparedJavaScriptEEE, symObjAddr: 0x164, symBinAddr: 0x2D1F8, symSize: 0x10 }
  - { offset: 0x20F711, size: 0x8, addend: 0x0, symName: __ZN8facebook3jsi20WithRuntimeDecoratorIN8worklets23WorkletsReentrancyCheckENS0_7RuntimeES4_E26evaluatePreparedJavaScriptERKNSt3__110shared_ptrIKNS0_18PreparedJavaScriptEEE, symObjAddr: 0x164, symBinAddr: 0x2D1F8, symSize: 0x10 }
  - { offset: 0x20F737, size: 0x8, addend: 0x0, symName: __ZN8facebook3jsi20WithRuntimeDecoratorIN8worklets23WorkletsReentrancyCheckENS0_7RuntimeES4_E26evaluatePreparedJavaScriptERKNSt3__110shared_ptrIKNS0_18PreparedJavaScriptEEE, symObjAddr: 0x164, symBinAddr: 0x2D1F8, symSize: 0x10 }
  - { offset: 0x20F790, size: 0x8, addend: 0x0, symName: __ZN8facebook3jsi20WithRuntimeDecoratorIN8worklets23WorkletsReentrancyCheckENS0_7RuntimeES4_E14queueMicrotaskERKNS0_8FunctionE, symObjAddr: 0x174, symBinAddr: 0x2D208, symSize: 0x10 }
  - { offset: 0x20F7D5, size: 0x8, addend: 0x0, symName: __ZN8facebook3jsi20WithRuntimeDecoratorIN8worklets23WorkletsReentrancyCheckENS0_7RuntimeES4_E14queueMicrotaskERKNS0_8FunctionE, symObjAddr: 0x174, symBinAddr: 0x2D208, symSize: 0x10 }
  - { offset: 0x20F7FB, size: 0x8, addend: 0x0, symName: __ZN8facebook3jsi20WithRuntimeDecoratorIN8worklets23WorkletsReentrancyCheckENS0_7RuntimeES4_E14queueMicrotaskERKNS0_8FunctionE, symObjAddr: 0x174, symBinAddr: 0x2D208, symSize: 0x10 }
  - { offset: 0x20F84C, size: 0x8, addend: 0x0, symName: __ZN8facebook3jsi20WithRuntimeDecoratorIN8worklets23WorkletsReentrancyCheckENS0_7RuntimeES4_E15drainMicrotasksEi, symObjAddr: 0x184, symBinAddr: 0x2D218, symSize: 0x10 }
  - { offset: 0x20F891, size: 0x8, addend: 0x0, symName: __ZN8facebook3jsi20WithRuntimeDecoratorIN8worklets23WorkletsReentrancyCheckENS0_7RuntimeES4_E15drainMicrotasksEi, symObjAddr: 0x184, symBinAddr: 0x2D218, symSize: 0x10 }
  - { offset: 0x20F8B7, size: 0x8, addend: 0x0, symName: __ZN8facebook3jsi20WithRuntimeDecoratorIN8worklets23WorkletsReentrancyCheckENS0_7RuntimeES4_E15drainMicrotasksEi, symObjAddr: 0x184, symBinAddr: 0x2D218, symSize: 0x10 }
  - { offset: 0x20F8FD, size: 0x8, addend: 0x0, symName: __ZN8facebook3jsi20WithRuntimeDecoratorIN8worklets23WorkletsReentrancyCheckENS0_7RuntimeES4_E6globalEv, symObjAddr: 0x194, symBinAddr: 0x2D228, symSize: 0x10 }
  - { offset: 0x20F933, size: 0x8, addend: 0x0, symName: __ZN8facebook3jsi20WithRuntimeDecoratorIN8worklets23WorkletsReentrancyCheckENS0_7RuntimeES4_E6globalEv, symObjAddr: 0x194, symBinAddr: 0x2D228, symSize: 0x10 }
  - { offset: 0x20F952, size: 0x8, addend: 0x0, symName: __ZN8facebook3jsi20WithRuntimeDecoratorIN8worklets23WorkletsReentrancyCheckENS0_7RuntimeES4_E6globalEv, symObjAddr: 0x194, symBinAddr: 0x2D228, symSize: 0x10 }
  - { offset: 0x20F998, size: 0x8, addend: 0x0, symName: __ZN8facebook3jsi20WithRuntimeDecoratorIN8worklets23WorkletsReentrancyCheckENS0_7RuntimeES4_E11descriptionEv, symObjAddr: 0x1A4, symBinAddr: 0x2D238, symSize: 0x10 }
  - { offset: 0x20F9CE, size: 0x8, addend: 0x0, symName: __ZN8facebook3jsi20WithRuntimeDecoratorIN8worklets23WorkletsReentrancyCheckENS0_7RuntimeES4_E11descriptionEv, symObjAddr: 0x1A4, symBinAddr: 0x2D238, symSize: 0x10 }
  - { offset: 0x20F9ED, size: 0x8, addend: 0x0, symName: __ZN8facebook3jsi20WithRuntimeDecoratorIN8worklets23WorkletsReentrancyCheckENS0_7RuntimeES4_E11descriptionEv, symObjAddr: 0x1A4, symBinAddr: 0x2D238, symSize: 0x10 }
  - { offset: 0x20FA33, size: 0x8, addend: 0x0, symName: __ZN8facebook3jsi20WithRuntimeDecoratorIN8worklets23WorkletsReentrancyCheckENS0_7RuntimeES4_E13isInspectableEv, symObjAddr: 0x1B4, symBinAddr: 0x2D248, symSize: 0x10 }
  - { offset: 0x20FA69, size: 0x8, addend: 0x0, symName: __ZN8facebook3jsi20WithRuntimeDecoratorIN8worklets23WorkletsReentrancyCheckENS0_7RuntimeES4_E13isInspectableEv, symObjAddr: 0x1B4, symBinAddr: 0x2D248, symSize: 0x10 }
  - { offset: 0x20FA88, size: 0x8, addend: 0x0, symName: __ZN8facebook3jsi20WithRuntimeDecoratorIN8worklets23WorkletsReentrancyCheckENS0_7RuntimeES4_E13isInspectableEv, symObjAddr: 0x1B4, symBinAddr: 0x2D248, symSize: 0x10 }
  - { offset: 0x20FAC5, size: 0x8, addend: 0x0, symName: __ZN8facebook3jsi20WithRuntimeDecoratorIN8worklets23WorkletsReentrancyCheckENS0_7RuntimeES4_E15instrumentationEv, symObjAddr: 0x1C4, symBinAddr: 0x2D258, symSize: 0x8 }
  - { offset: 0x20FAFB, size: 0x8, addend: 0x0, symName: __ZN8facebook3jsi20WithRuntimeDecoratorIN8worklets23WorkletsReentrancyCheckENS0_7RuntimeES4_E15instrumentationEv, symObjAddr: 0x1C4, symBinAddr: 0x2D258, symSize: 0x8 }
  - { offset: 0x20FB50, size: 0x8, addend: 0x0, symName: __ZN8facebook3jsi20WithRuntimeDecoratorIN8worklets23WorkletsReentrancyCheckENS0_7RuntimeES4_E18setRuntimeDataImplERKNS0_4UUIDEPKvPFvSA_E, symObjAddr: 0x1CC, symBinAddr: 0x2D260, symSize: 0x10 }
  - { offset: 0x20FBB3, size: 0x8, addend: 0x0, symName: __ZN8facebook3jsi20WithRuntimeDecoratorIN8worklets23WorkletsReentrancyCheckENS0_7RuntimeES4_E18setRuntimeDataImplERKNS0_4UUIDEPKvPFvSA_E, symObjAddr: 0x1CC, symBinAddr: 0x2D260, symSize: 0x10 }
  - { offset: 0x20FC2D, size: 0x8, addend: 0x0, symName: __ZN8facebook3jsi20WithRuntimeDecoratorIN8worklets23WorkletsReentrancyCheckENS0_7RuntimeES4_E18getRuntimeDataImplERKNS0_4UUIDE, symObjAddr: 0x1DC, symBinAddr: 0x2D270, symSize: 0x10 }
  - { offset: 0x20FC72, size: 0x8, addend: 0x0, symName: __ZN8facebook3jsi20WithRuntimeDecoratorIN8worklets23WorkletsReentrancyCheckENS0_7RuntimeES4_E18getRuntimeDataImplERKNS0_4UUIDE, symObjAddr: 0x1DC, symBinAddr: 0x2D270, symSize: 0x10 }
  - { offset: 0x20FCCD, size: 0x8, addend: 0x0, symName: __ZN8facebook3jsi20WithRuntimeDecoratorIN8worklets23WorkletsReentrancyCheckENS0_7RuntimeES4_E11cloneSymbolEPKNS4_12PointerValueE, symObjAddr: 0x1EC, symBinAddr: 0x2D280, symSize: 0x10 }
  - { offset: 0x20FD12, size: 0x8, addend: 0x0, symName: __ZN8facebook3jsi20WithRuntimeDecoratorIN8worklets23WorkletsReentrancyCheckENS0_7RuntimeES4_E11cloneSymbolEPKNS4_12PointerValueE, symObjAddr: 0x1EC, symBinAddr: 0x2D280, symSize: 0x10 }
  - { offset: 0x20FD6D, size: 0x8, addend: 0x0, symName: __ZN8facebook3jsi20WithRuntimeDecoratorIN8worklets23WorkletsReentrancyCheckENS0_7RuntimeES4_E11cloneBigIntEPKNS4_12PointerValueE, symObjAddr: 0x1FC, symBinAddr: 0x2D290, symSize: 0x10 }
  - { offset: 0x20FDB2, size: 0x8, addend: 0x0, symName: __ZN8facebook3jsi20WithRuntimeDecoratorIN8worklets23WorkletsReentrancyCheckENS0_7RuntimeES4_E11cloneBigIntEPKNS4_12PointerValueE, symObjAddr: 0x1FC, symBinAddr: 0x2D290, symSize: 0x10 }
  - { offset: 0x20FE0D, size: 0x8, addend: 0x0, symName: __ZN8facebook3jsi20WithRuntimeDecoratorIN8worklets23WorkletsReentrancyCheckENS0_7RuntimeES4_E11cloneStringEPKNS4_12PointerValueE, symObjAddr: 0x20C, symBinAddr: 0x2D2A0, symSize: 0x10 }
  - { offset: 0x20FE52, size: 0x8, addend: 0x0, symName: __ZN8facebook3jsi20WithRuntimeDecoratorIN8worklets23WorkletsReentrancyCheckENS0_7RuntimeES4_E11cloneStringEPKNS4_12PointerValueE, symObjAddr: 0x20C, symBinAddr: 0x2D2A0, symSize: 0x10 }
  - { offset: 0x20FEAD, size: 0x8, addend: 0x0, symName: __ZN8facebook3jsi20WithRuntimeDecoratorIN8worklets23WorkletsReentrancyCheckENS0_7RuntimeES4_E11cloneObjectEPKNS4_12PointerValueE, symObjAddr: 0x21C, symBinAddr: 0x2D2B0, symSize: 0x10 }
  - { offset: 0x20FEF2, size: 0x8, addend: 0x0, symName: __ZN8facebook3jsi20WithRuntimeDecoratorIN8worklets23WorkletsReentrancyCheckENS0_7RuntimeES4_E11cloneObjectEPKNS4_12PointerValueE, symObjAddr: 0x21C, symBinAddr: 0x2D2B0, symSize: 0x10 }
  - { offset: 0x20FF4D, size: 0x8, addend: 0x0, symName: __ZN8facebook3jsi20WithRuntimeDecoratorIN8worklets23WorkletsReentrancyCheckENS0_7RuntimeES4_E15clonePropNameIDEPKNS4_12PointerValueE, symObjAddr: 0x22C, symBinAddr: 0x2D2C0, symSize: 0x10 }
  - { offset: 0x20FF92, size: 0x8, addend: 0x0, symName: __ZN8facebook3jsi20WithRuntimeDecoratorIN8worklets23WorkletsReentrancyCheckENS0_7RuntimeES4_E15clonePropNameIDEPKNS4_12PointerValueE, symObjAddr: 0x22C, symBinAddr: 0x2D2C0, symSize: 0x10 }
  - { offset: 0x20FFF8, size: 0x8, addend: 0x0, symName: __ZN8facebook3jsi20WithRuntimeDecoratorIN8worklets23WorkletsReentrancyCheckENS0_7RuntimeES4_E25createPropNameIDFromAsciiEPKcm, symObjAddr: 0x23C, symBinAddr: 0x2D2D0, symSize: 0x10 }
  - { offset: 0x21004C, size: 0x8, addend: 0x0, symName: __ZN8facebook3jsi20WithRuntimeDecoratorIN8worklets23WorkletsReentrancyCheckENS0_7RuntimeES4_E25createPropNameIDFromAsciiEPKcm, symObjAddr: 0x23C, symBinAddr: 0x2D2D0, symSize: 0x10 }
  - { offset: 0x2100C9, size: 0x8, addend: 0x0, symName: __ZN8facebook3jsi20WithRuntimeDecoratorIN8worklets23WorkletsReentrancyCheckENS0_7RuntimeES4_E24createPropNameIDFromUtf8EPKhm, symObjAddr: 0x24C, symBinAddr: 0x2D2E0, symSize: 0x10 }
  - { offset: 0x21011D, size: 0x8, addend: 0x0, symName: __ZN8facebook3jsi20WithRuntimeDecoratorIN8worklets23WorkletsReentrancyCheckENS0_7RuntimeES4_E24createPropNameIDFromUtf8EPKhm, symObjAddr: 0x24C, symBinAddr: 0x2D2E0, symSize: 0x10 }
  - { offset: 0x21019A, size: 0x8, addend: 0x0, symName: __ZN8facebook3jsi20WithRuntimeDecoratorIN8worklets23WorkletsReentrancyCheckENS0_7RuntimeES4_E25createPropNameIDFromUtf16EPKDsm, symObjAddr: 0x25C, symBinAddr: 0x2D2F0, symSize: 0x10 }
  - { offset: 0x2101EE, size: 0x8, addend: 0x0, symName: __ZN8facebook3jsi20WithRuntimeDecoratorIN8worklets23WorkletsReentrancyCheckENS0_7RuntimeES4_E25createPropNameIDFromUtf16EPKDsm, symObjAddr: 0x25C, symBinAddr: 0x2D2F0, symSize: 0x10 }
  - { offset: 0x210260, size: 0x8, addend: 0x0, symName: __ZN8facebook3jsi20WithRuntimeDecoratorIN8worklets23WorkletsReentrancyCheckENS0_7RuntimeES4_E26createPropNameIDFromStringERKNS0_6StringE, symObjAddr: 0x26C, symBinAddr: 0x2D300, symSize: 0x10 }
  - { offset: 0x2102A5, size: 0x8, addend: 0x0, symName: __ZN8facebook3jsi20WithRuntimeDecoratorIN8worklets23WorkletsReentrancyCheckENS0_7RuntimeES4_E26createPropNameIDFromStringERKNS0_6StringE, symObjAddr: 0x26C, symBinAddr: 0x2D300, symSize: 0x10 }
  - { offset: 0x210308, size: 0x8, addend: 0x0, symName: __ZN8facebook3jsi20WithRuntimeDecoratorIN8worklets23WorkletsReentrancyCheckENS0_7RuntimeES4_E26createPropNameIDFromSymbolERKNS0_6SymbolE, symObjAddr: 0x27C, symBinAddr: 0x2D310, symSize: 0x10 }
  - { offset: 0x21034D, size: 0x8, addend: 0x0, symName: __ZN8facebook3jsi20WithRuntimeDecoratorIN8worklets23WorkletsReentrancyCheckENS0_7RuntimeES4_E26createPropNameIDFromSymbolERKNS0_6SymbolE, symObjAddr: 0x27C, symBinAddr: 0x2D310, symSize: 0x10 }
  - { offset: 0x2103B0, size: 0x8, addend: 0x0, symName: __ZN8facebook3jsi20WithRuntimeDecoratorIN8worklets23WorkletsReentrancyCheckENS0_7RuntimeES4_E4utf8ERKNS0_10PropNameIDE, symObjAddr: 0x28C, symBinAddr: 0x2D320, symSize: 0x10 }
  - { offset: 0x2103F5, size: 0x8, addend: 0x0, symName: __ZN8facebook3jsi20WithRuntimeDecoratorIN8worklets23WorkletsReentrancyCheckENS0_7RuntimeES4_E4utf8ERKNS0_10PropNameIDE, symObjAddr: 0x28C, symBinAddr: 0x2D320, symSize: 0x10 }
  - { offset: 0x210463, size: 0x8, addend: 0x0, symName: __ZN8facebook3jsi20WithRuntimeDecoratorIN8worklets23WorkletsReentrancyCheckENS0_7RuntimeES4_E7compareERKNS0_10PropNameIDES8_, symObjAddr: 0x29C, symBinAddr: 0x2D330, symSize: 0x10 }
  - { offset: 0x2104B7, size: 0x8, addend: 0x0, symName: __ZN8facebook3jsi20WithRuntimeDecoratorIN8worklets23WorkletsReentrancyCheckENS0_7RuntimeES4_E7compareERKNS0_10PropNameIDES8_, symObjAddr: 0x29C, symBinAddr: 0x2D330, symSize: 0x10 }
  - { offset: 0x210521, size: 0x8, addend: 0x0, symName: __ZN8facebook3jsi20WithRuntimeDecoratorIN8worklets23WorkletsReentrancyCheckENS0_7RuntimeES4_E14symbolToStringERKNS0_6SymbolE, symObjAddr: 0x2AC, symBinAddr: 0x2D340, symSize: 0x10 }
  - { offset: 0x210566, size: 0x8, addend: 0x0, symName: __ZN8facebook3jsi20WithRuntimeDecoratorIN8worklets23WorkletsReentrancyCheckENS0_7RuntimeES4_E14symbolToStringERKNS0_6SymbolE, symObjAddr: 0x2AC, symBinAddr: 0x2D340, symSize: 0x10 }
  - { offset: 0x2105C9, size: 0x8, addend: 0x0, symName: __ZN8facebook3jsi20WithRuntimeDecoratorIN8worklets23WorkletsReentrancyCheckENS0_7RuntimeES4_E21createBigIntFromInt64Ex, symObjAddr: 0x2BC, symBinAddr: 0x2D350, symSize: 0x10 }
  - { offset: 0x21060E, size: 0x8, addend: 0x0, symName: __ZN8facebook3jsi20WithRuntimeDecoratorIN8worklets23WorkletsReentrancyCheckENS0_7RuntimeES4_E21createBigIntFromInt64Ex, symObjAddr: 0x2BC, symBinAddr: 0x2D350, symSize: 0x10 }
  - { offset: 0x210671, size: 0x8, addend: 0x0, symName: __ZN8facebook3jsi20WithRuntimeDecoratorIN8worklets23WorkletsReentrancyCheckENS0_7RuntimeES4_E22createBigIntFromUint64Ey, symObjAddr: 0x2CC, symBinAddr: 0x2D360, symSize: 0x10 }
  - { offset: 0x2106B6, size: 0x8, addend: 0x0, symName: __ZN8facebook3jsi20WithRuntimeDecoratorIN8worklets23WorkletsReentrancyCheckENS0_7RuntimeES4_E22createBigIntFromUint64Ey, symObjAddr: 0x2CC, symBinAddr: 0x2D360, symSize: 0x10 }
  - { offset: 0x210719, size: 0x8, addend: 0x0, symName: __ZN8facebook3jsi20WithRuntimeDecoratorIN8worklets23WorkletsReentrancyCheckENS0_7RuntimeES4_E13bigintIsInt64ERKNS0_6BigIntE, symObjAddr: 0x2DC, symBinAddr: 0x2D370, symSize: 0x10 }
  - { offset: 0x21075E, size: 0x8, addend: 0x0, symName: __ZN8facebook3jsi20WithRuntimeDecoratorIN8worklets23WorkletsReentrancyCheckENS0_7RuntimeES4_E13bigintIsInt64ERKNS0_6BigIntE, symObjAddr: 0x2DC, symBinAddr: 0x2D370, symSize: 0x10 }
  - { offset: 0x2107B9, size: 0x8, addend: 0x0, symName: __ZN8facebook3jsi20WithRuntimeDecoratorIN8worklets23WorkletsReentrancyCheckENS0_7RuntimeES4_E14bigintIsUint64ERKNS0_6BigIntE, symObjAddr: 0x2EC, symBinAddr: 0x2D380, symSize: 0x10 }
  - { offset: 0x2107FE, size: 0x8, addend: 0x0, symName: __ZN8facebook3jsi20WithRuntimeDecoratorIN8worklets23WorkletsReentrancyCheckENS0_7RuntimeES4_E14bigintIsUint64ERKNS0_6BigIntE, symObjAddr: 0x2EC, symBinAddr: 0x2D380, symSize: 0x10 }
  - { offset: 0x210859, size: 0x8, addend: 0x0, symName: __ZN8facebook3jsi20WithRuntimeDecoratorIN8worklets23WorkletsReentrancyCheckENS0_7RuntimeES4_E8truncateERKNS0_6BigIntE, symObjAddr: 0x2FC, symBinAddr: 0x2D390, symSize: 0x10 }
  - { offset: 0x21089E, size: 0x8, addend: 0x0, symName: __ZN8facebook3jsi20WithRuntimeDecoratorIN8worklets23WorkletsReentrancyCheckENS0_7RuntimeES4_E8truncateERKNS0_6BigIntE, symObjAddr: 0x2FC, symBinAddr: 0x2D390, symSize: 0x10 }
  - { offset: 0x210904, size: 0x8, addend: 0x0, symName: __ZN8facebook3jsi20WithRuntimeDecoratorIN8worklets23WorkletsReentrancyCheckENS0_7RuntimeES4_E14bigintToStringERKNS0_6BigIntEi, symObjAddr: 0x30C, symBinAddr: 0x2D3A0, symSize: 0x10 }
  - { offset: 0x210958, size: 0x8, addend: 0x0, symName: __ZN8facebook3jsi20WithRuntimeDecoratorIN8worklets23WorkletsReentrancyCheckENS0_7RuntimeES4_E14bigintToStringERKNS0_6BigIntEi, symObjAddr: 0x30C, symBinAddr: 0x2D3A0, symSize: 0x10 }
  - { offset: 0x2109D5, size: 0x8, addend: 0x0, symName: __ZN8facebook3jsi20WithRuntimeDecoratorIN8worklets23WorkletsReentrancyCheckENS0_7RuntimeES4_E21createStringFromAsciiEPKcm, symObjAddr: 0x31C, symBinAddr: 0x2D3B0, symSize: 0x10 }
  - { offset: 0x210A29, size: 0x8, addend: 0x0, symName: __ZN8facebook3jsi20WithRuntimeDecoratorIN8worklets23WorkletsReentrancyCheckENS0_7RuntimeES4_E21createStringFromAsciiEPKcm, symObjAddr: 0x31C, symBinAddr: 0x2D3B0, symSize: 0x10 }
  - { offset: 0x210AA6, size: 0x8, addend: 0x0, symName: __ZN8facebook3jsi20WithRuntimeDecoratorIN8worklets23WorkletsReentrancyCheckENS0_7RuntimeES4_E20createStringFromUtf8EPKhm, symObjAddr: 0x32C, symBinAddr: 0x2D3C0, symSize: 0x10 }
  - { offset: 0x210AFA, size: 0x8, addend: 0x0, symName: __ZN8facebook3jsi20WithRuntimeDecoratorIN8worklets23WorkletsReentrancyCheckENS0_7RuntimeES4_E20createStringFromUtf8EPKhm, symObjAddr: 0x32C, symBinAddr: 0x2D3C0, symSize: 0x10 }
  - { offset: 0x210B77, size: 0x8, addend: 0x0, symName: __ZN8facebook3jsi20WithRuntimeDecoratorIN8worklets23WorkletsReentrancyCheckENS0_7RuntimeES4_E21createStringFromUtf16EPKDsm, symObjAddr: 0x33C, symBinAddr: 0x2D3D0, symSize: 0x10 }
  - { offset: 0x210BCB, size: 0x8, addend: 0x0, symName: __ZN8facebook3jsi20WithRuntimeDecoratorIN8worklets23WorkletsReentrancyCheckENS0_7RuntimeES4_E21createStringFromUtf16EPKDsm, symObjAddr: 0x33C, symBinAddr: 0x2D3D0, symSize: 0x10 }
  - { offset: 0x210C3D, size: 0x8, addend: 0x0, symName: __ZN8facebook3jsi20WithRuntimeDecoratorIN8worklets23WorkletsReentrancyCheckENS0_7RuntimeES4_E4utf8ERKNS0_6StringE, symObjAddr: 0x34C, symBinAddr: 0x2D3E0, symSize: 0x10 }
  - { offset: 0x210C82, size: 0x8, addend: 0x0, symName: __ZN8facebook3jsi20WithRuntimeDecoratorIN8worklets23WorkletsReentrancyCheckENS0_7RuntimeES4_E4utf8ERKNS0_6StringE, symObjAddr: 0x34C, symBinAddr: 0x2D3E0, symSize: 0x10 }
  - { offset: 0x210CC4, size: 0x8, addend: 0x0, symName: __ZN8facebook3jsi20WithRuntimeDecoratorIN8worklets23WorkletsReentrancyCheckENS0_7RuntimeES4_E23createValueFromJsonUtf8EPKhm, symObjAddr: 0x35C, symBinAddr: 0x2D3F0, symSize: 0x4 }
  - { offset: 0x210D2A, size: 0x8, addend: 0x0, symName: __ZN8facebook3jsi20WithRuntimeDecoratorIN8worklets23WorkletsReentrancyCheckENS0_7RuntimeES4_E12createObjectEv, symObjAddr: 0x360, symBinAddr: 0x2D3F4, symSize: 0x10 }
  - { offset: 0x210D60, size: 0x8, addend: 0x0, symName: __ZN8facebook3jsi20WithRuntimeDecoratorIN8worklets23WorkletsReentrancyCheckENS0_7RuntimeES4_E12createObjectEv, symObjAddr: 0x360, symBinAddr: 0x2D3F4, symSize: 0x10 }
  - { offset: 0x210E49, size: 0x8, addend: 0x0, symName: __ZN8facebook3jsi20WithRuntimeDecoratorIN8worklets23WorkletsReentrancyCheckENS0_7RuntimeES4_E12createObjectENSt3__110shared_ptrINS0_10HostObjectEEE, symObjAddr: 0x370, symBinAddr: 0x2D404, symSize: 0x80 }
  - { offset: 0x210FCF, size: 0x8, addend: 0x0, symName: __ZN8facebook3jsi16RuntimeDecoratorINS0_7RuntimeES2_E12createObjectENSt3__110shared_ptrINS0_10HostObjectEEE, symObjAddr: 0xF10, symBinAddr: 0x2DFA4, symSize: 0xEC }
  - { offset: 0x2112C8, size: 0x8, addend: 0x0, symName: __ZN8facebook3jsi20WithRuntimeDecoratorIN8worklets23WorkletsReentrancyCheckENS0_7RuntimeES4_E13getHostObjectERKNS0_6ObjectE, symObjAddr: 0x3F0, symBinAddr: 0x2D484, symSize: 0x4 }
  - { offset: 0x21130C, size: 0x8, addend: 0x0, symName: __ZN8facebook3jsi20WithRuntimeDecoratorIN8worklets23WorkletsReentrancyCheckENS0_7RuntimeES4_E13getHostObjectERKNS0_6ObjectE, symObjAddr: 0x3F0, symBinAddr: 0x2D484, symSize: 0x4 }
  - { offset: 0x211330, size: 0x8, addend: 0x0, symName: __ZN8facebook3jsi16RuntimeDecoratorINS0_7RuntimeES2_E13getHostObjectERKNS0_6ObjectE, symObjAddr: 0xFFC, symBinAddr: 0x2E090, symSize: 0x94 }
  - { offset: 0x211573, size: 0x8, addend: 0x0, symName: __ZN8facebook3jsi20WithRuntimeDecoratorIN8worklets23WorkletsReentrancyCheckENS0_7RuntimeES4_E15getHostFunctionERKNS0_8FunctionE, symObjAddr: 0x3F4, symBinAddr: 0x2D488, symSize: 0x3C }
  - { offset: 0x21166E, size: 0x8, addend: 0x0, symName: __ZN8facebook3jsi20WithRuntimeDecoratorIN8worklets23WorkletsReentrancyCheckENS0_7RuntimeES4_E25createObjectWithPrototypeERKNS0_5ValueE, symObjAddr: 0x430, symBinAddr: 0x2D4C4, symSize: 0x10 }
  - { offset: 0x2116B3, size: 0x8, addend: 0x0, symName: __ZN8facebook3jsi20WithRuntimeDecoratorIN8worklets23WorkletsReentrancyCheckENS0_7RuntimeES4_E25createObjectWithPrototypeERKNS0_5ValueE, symObjAddr: 0x430, symBinAddr: 0x2D4C4, symSize: 0x10 }
  - { offset: 0x211717, size: 0x8, addend: 0x0, symName: __ZN8facebook3jsi20WithRuntimeDecoratorIN8worklets23WorkletsReentrancyCheckENS0_7RuntimeES4_E14hasNativeStateERKNS0_6ObjectE, symObjAddr: 0x440, symBinAddr: 0x2D4D4, symSize: 0x10 }
  - { offset: 0x21175C, size: 0x8, addend: 0x0, symName: __ZN8facebook3jsi20WithRuntimeDecoratorIN8worklets23WorkletsReentrancyCheckENS0_7RuntimeES4_E14hasNativeStateERKNS0_6ObjectE, symObjAddr: 0x440, symBinAddr: 0x2D4D4, symSize: 0x10 }
  - { offset: 0x2117B8, size: 0x8, addend: 0x0, symName: __ZN8facebook3jsi20WithRuntimeDecoratorIN8worklets23WorkletsReentrancyCheckENS0_7RuntimeES4_E14getNativeStateERKNS0_6ObjectE, symObjAddr: 0x450, symBinAddr: 0x2D4E4, symSize: 0x10 }
  - { offset: 0x2117FD, size: 0x8, addend: 0x0, symName: __ZN8facebook3jsi20WithRuntimeDecoratorIN8worklets23WorkletsReentrancyCheckENS0_7RuntimeES4_E14getNativeStateERKNS0_6ObjectE, symObjAddr: 0x450, symBinAddr: 0x2D4E4, symSize: 0x10 }
  - { offset: 0x2118F0, size: 0x8, addend: 0x0, symName: __ZN8facebook3jsi20WithRuntimeDecoratorIN8worklets23WorkletsReentrancyCheckENS0_7RuntimeES4_E14setNativeStateERKNS0_6ObjectENSt3__110shared_ptrINS0_11NativeStateEEE, symObjAddr: 0x460, symBinAddr: 0x2D4F4, symSize: 0x94 }
  - { offset: 0x211AD1, size: 0x8, addend: 0x0, symName: __ZN8facebook3jsi16RuntimeDecoratorINS0_7RuntimeES2_E14setNativeStateERKNS0_6ObjectENSt3__110shared_ptrINS0_11NativeStateEEE, symObjAddr: 0x1090, symBinAddr: 0x2E124, symSize: 0xA0 }
  - { offset: 0x211D26, size: 0x8, addend: 0x0, symName: __ZN8facebook3jsi20WithRuntimeDecoratorIN8worklets23WorkletsReentrancyCheckENS0_7RuntimeES4_E14setPrototypeOfERKNS0_6ObjectERKNS0_5ValueE, symObjAddr: 0x4F4, symBinAddr: 0x2D588, symSize: 0x10 }
  - { offset: 0x211D7A, size: 0x8, addend: 0x0, symName: __ZN8facebook3jsi20WithRuntimeDecoratorIN8worklets23WorkletsReentrancyCheckENS0_7RuntimeES4_E14setPrototypeOfERKNS0_6ObjectERKNS0_5ValueE, symObjAddr: 0x4F4, symBinAddr: 0x2D588, symSize: 0x10 }
  - { offset: 0x211DE5, size: 0x8, addend: 0x0, symName: __ZN8facebook3jsi20WithRuntimeDecoratorIN8worklets23WorkletsReentrancyCheckENS0_7RuntimeES4_E14getPrototypeOfERKNS0_6ObjectE, symObjAddr: 0x504, symBinAddr: 0x2D598, symSize: 0x10 }
  - { offset: 0x211E2A, size: 0x8, addend: 0x0, symName: __ZN8facebook3jsi20WithRuntimeDecoratorIN8worklets23WorkletsReentrancyCheckENS0_7RuntimeES4_E14getPrototypeOfERKNS0_6ObjectE, symObjAddr: 0x504, symBinAddr: 0x2D598, symSize: 0x10 }
  - { offset: 0x211E9A, size: 0x8, addend: 0x0, symName: __ZN8facebook3jsi20WithRuntimeDecoratorIN8worklets23WorkletsReentrancyCheckENS0_7RuntimeES4_E11getPropertyERKNS0_6ObjectERKNS0_10PropNameIDE, symObjAddr: 0x514, symBinAddr: 0x2D5A8, symSize: 0x10 }
  - { offset: 0x211EEE, size: 0x8, addend: 0x0, symName: __ZN8facebook3jsi20WithRuntimeDecoratorIN8worklets23WorkletsReentrancyCheckENS0_7RuntimeES4_E11getPropertyERKNS0_6ObjectERKNS0_10PropNameIDE, symObjAddr: 0x514, symBinAddr: 0x2D5A8, symSize: 0x10 }
  - { offset: 0x211F6D, size: 0x8, addend: 0x0, symName: __ZN8facebook3jsi20WithRuntimeDecoratorIN8worklets23WorkletsReentrancyCheckENS0_7RuntimeES4_E11getPropertyERKNS0_6ObjectERKNS0_6StringE, symObjAddr: 0x524, symBinAddr: 0x2D5B8, symSize: 0x10 }
  - { offset: 0x211FC1, size: 0x8, addend: 0x0, symName: __ZN8facebook3jsi20WithRuntimeDecoratorIN8worklets23WorkletsReentrancyCheckENS0_7RuntimeES4_E11getPropertyERKNS0_6ObjectERKNS0_6StringE, symObjAddr: 0x524, symBinAddr: 0x2D5B8, symSize: 0x10 }
  - { offset: 0x212040, size: 0x8, addend: 0x0, symName: __ZN8facebook3jsi20WithRuntimeDecoratorIN8worklets23WorkletsReentrancyCheckENS0_7RuntimeES4_E11hasPropertyERKNS0_6ObjectERKNS0_10PropNameIDE, symObjAddr: 0x534, symBinAddr: 0x2D5C8, symSize: 0x10 }
  - { offset: 0x212094, size: 0x8, addend: 0x0, symName: __ZN8facebook3jsi20WithRuntimeDecoratorIN8worklets23WorkletsReentrancyCheckENS0_7RuntimeES4_E11hasPropertyERKNS0_6ObjectERKNS0_10PropNameIDE, symObjAddr: 0x534, symBinAddr: 0x2D5C8, symSize: 0x10 }
  - { offset: 0x21210B, size: 0x8, addend: 0x0, symName: __ZN8facebook3jsi20WithRuntimeDecoratorIN8worklets23WorkletsReentrancyCheckENS0_7RuntimeES4_E11hasPropertyERKNS0_6ObjectERKNS0_6StringE, symObjAddr: 0x544, symBinAddr: 0x2D5D8, symSize: 0x10 }
  - { offset: 0x21215F, size: 0x8, addend: 0x0, symName: __ZN8facebook3jsi20WithRuntimeDecoratorIN8worklets23WorkletsReentrancyCheckENS0_7RuntimeES4_E11hasPropertyERKNS0_6ObjectERKNS0_6StringE, symObjAddr: 0x544, symBinAddr: 0x2D5D8, symSize: 0x10 }
  - { offset: 0x2121E2, size: 0x8, addend: 0x0, symName: __ZN8facebook3jsi20WithRuntimeDecoratorIN8worklets23WorkletsReentrancyCheckENS0_7RuntimeES4_E16setPropertyValueERKNS0_6ObjectERKNS0_10PropNameIDERKNS0_5ValueE, symObjAddr: 0x554, symBinAddr: 0x2D5E8, symSize: 0x10 }
  - { offset: 0x212245, size: 0x8, addend: 0x0, symName: __ZN8facebook3jsi20WithRuntimeDecoratorIN8worklets23WorkletsReentrancyCheckENS0_7RuntimeES4_E16setPropertyValueERKNS0_6ObjectERKNS0_10PropNameIDERKNS0_5ValueE, symObjAddr: 0x554, symBinAddr: 0x2D5E8, symSize: 0x10 }
  - { offset: 0x2122D7, size: 0x8, addend: 0x0, symName: __ZN8facebook3jsi20WithRuntimeDecoratorIN8worklets23WorkletsReentrancyCheckENS0_7RuntimeES4_E16setPropertyValueERKNS0_6ObjectERKNS0_6StringERKNS0_5ValueE, symObjAddr: 0x564, symBinAddr: 0x2D5F8, symSize: 0x10 }
  - { offset: 0x21233A, size: 0x8, addend: 0x0, symName: __ZN8facebook3jsi20WithRuntimeDecoratorIN8worklets23WorkletsReentrancyCheckENS0_7RuntimeES4_E16setPropertyValueERKNS0_6ObjectERKNS0_6StringERKNS0_5ValueE, symObjAddr: 0x564, symBinAddr: 0x2D5F8, symSize: 0x10 }
  - { offset: 0x2123B9, size: 0x8, addend: 0x0, symName: __ZNK8facebook3jsi20WithRuntimeDecoratorIN8worklets23WorkletsReentrancyCheckENS0_7RuntimeES4_E7isArrayERKNS0_6ObjectE, symObjAddr: 0x574, symBinAddr: 0x2D608, symSize: 0x10 }
  - { offset: 0x2123FE, size: 0x8, addend: 0x0, symName: __ZNK8facebook3jsi20WithRuntimeDecoratorIN8worklets23WorkletsReentrancyCheckENS0_7RuntimeES4_E7isArrayERKNS0_6ObjectE, symObjAddr: 0x574, symBinAddr: 0x2D608, symSize: 0x10 }
  - { offset: 0x21245A, size: 0x8, addend: 0x0, symName: __ZNK8facebook3jsi20WithRuntimeDecoratorIN8worklets23WorkletsReentrancyCheckENS0_7RuntimeES4_E13isArrayBufferERKNS0_6ObjectE, symObjAddr: 0x584, symBinAddr: 0x2D618, symSize: 0x10 }
  - { offset: 0x21249F, size: 0x8, addend: 0x0, symName: __ZNK8facebook3jsi20WithRuntimeDecoratorIN8worklets23WorkletsReentrancyCheckENS0_7RuntimeES4_E13isArrayBufferERKNS0_6ObjectE, symObjAddr: 0x584, symBinAddr: 0x2D618, symSize: 0x10 }
  - { offset: 0x2124FB, size: 0x8, addend: 0x0, symName: __ZNK8facebook3jsi20WithRuntimeDecoratorIN8worklets23WorkletsReentrancyCheckENS0_7RuntimeES4_E10isFunctionERKNS0_6ObjectE, symObjAddr: 0x594, symBinAddr: 0x2D628, symSize: 0x10 }
  - { offset: 0x212540, size: 0x8, addend: 0x0, symName: __ZNK8facebook3jsi20WithRuntimeDecoratorIN8worklets23WorkletsReentrancyCheckENS0_7RuntimeES4_E10isFunctionERKNS0_6ObjectE, symObjAddr: 0x594, symBinAddr: 0x2D628, symSize: 0x10 }
  - { offset: 0x21259C, size: 0x8, addend: 0x0, symName: __ZNK8facebook3jsi20WithRuntimeDecoratorIN8worklets23WorkletsReentrancyCheckENS0_7RuntimeES4_E12isHostObjectERKNS0_6ObjectE, symObjAddr: 0x5A4, symBinAddr: 0x2D638, symSize: 0x10 }
  - { offset: 0x2125E1, size: 0x8, addend: 0x0, symName: __ZNK8facebook3jsi20WithRuntimeDecoratorIN8worklets23WorkletsReentrancyCheckENS0_7RuntimeES4_E12isHostObjectERKNS0_6ObjectE, symObjAddr: 0x5A4, symBinAddr: 0x2D638, symSize: 0x10 }
  - { offset: 0x21263D, size: 0x8, addend: 0x0, symName: __ZNK8facebook3jsi20WithRuntimeDecoratorIN8worklets23WorkletsReentrancyCheckENS0_7RuntimeES4_E14isHostFunctionERKNS0_8FunctionE, symObjAddr: 0x5B4, symBinAddr: 0x2D648, symSize: 0x10 }
  - { offset: 0x212682, size: 0x8, addend: 0x0, symName: __ZNK8facebook3jsi20WithRuntimeDecoratorIN8worklets23WorkletsReentrancyCheckENS0_7RuntimeES4_E14isHostFunctionERKNS0_8FunctionE, symObjAddr: 0x5B4, symBinAddr: 0x2D648, symSize: 0x10 }
  - { offset: 0x2126DE, size: 0x8, addend: 0x0, symName: __ZN8facebook3jsi20WithRuntimeDecoratorIN8worklets23WorkletsReentrancyCheckENS0_7RuntimeES4_E16getPropertyNamesERKNS0_6ObjectE, symObjAddr: 0x5C4, symBinAddr: 0x2D658, symSize: 0x10 }
  - { offset: 0x212723, size: 0x8, addend: 0x0, symName: __ZN8facebook3jsi20WithRuntimeDecoratorIN8worklets23WorkletsReentrancyCheckENS0_7RuntimeES4_E16getPropertyNamesERKNS0_6ObjectE, symObjAddr: 0x5C4, symBinAddr: 0x2D658, symSize: 0x10 }
  - { offset: 0x212787, size: 0x8, addend: 0x0, symName: __ZN8facebook3jsi20WithRuntimeDecoratorIN8worklets23WorkletsReentrancyCheckENS0_7RuntimeES4_E16createWeakObjectERKNS0_6ObjectE, symObjAddr: 0x5D4, symBinAddr: 0x2D668, symSize: 0x10 }
  - { offset: 0x2127CC, size: 0x8, addend: 0x0, symName: __ZN8facebook3jsi20WithRuntimeDecoratorIN8worklets23WorkletsReentrancyCheckENS0_7RuntimeES4_E16createWeakObjectERKNS0_6ObjectE, symObjAddr: 0x5D4, symBinAddr: 0x2D668, symSize: 0x10 }
  - { offset: 0x212830, size: 0x8, addend: 0x0, symName: __ZN8facebook3jsi20WithRuntimeDecoratorIN8worklets23WorkletsReentrancyCheckENS0_7RuntimeES4_E14lockWeakObjectERKNS0_10WeakObjectE, symObjAddr: 0x5E4, symBinAddr: 0x2D678, symSize: 0x10 }
  - { offset: 0x212875, size: 0x8, addend: 0x0, symName: __ZN8facebook3jsi20WithRuntimeDecoratorIN8worklets23WorkletsReentrancyCheckENS0_7RuntimeES4_E14lockWeakObjectERKNS0_10WeakObjectE, symObjAddr: 0x5E4, symBinAddr: 0x2D678, symSize: 0x10 }
  - { offset: 0x2128D9, size: 0x8, addend: 0x0, symName: __ZN8facebook3jsi20WithRuntimeDecoratorIN8worklets23WorkletsReentrancyCheckENS0_7RuntimeES4_E11createArrayEm, symObjAddr: 0x5F4, symBinAddr: 0x2D688, symSize: 0x10 }
  - { offset: 0x21291E, size: 0x8, addend: 0x0, symName: __ZN8facebook3jsi20WithRuntimeDecoratorIN8worklets23WorkletsReentrancyCheckENS0_7RuntimeES4_E11createArrayEm, symObjAddr: 0x5F4, symBinAddr: 0x2D688, symSize: 0x10 }
  - { offset: 0x2129E5, size: 0x8, addend: 0x0, symName: __ZN8facebook3jsi20WithRuntimeDecoratorIN8worklets23WorkletsReentrancyCheckENS0_7RuntimeES4_E17createArrayBufferENSt3__110shared_ptrINS0_13MutableBufferEEE, symObjAddr: 0x604, symBinAddr: 0x2D698, symSize: 0x80 }
  - { offset: 0x212B5E, size: 0x8, addend: 0x0, symName: __ZN8facebook3jsi16RuntimeDecoratorINS0_7RuntimeES2_E17createArrayBufferENSt3__110shared_ptrINS0_13MutableBufferEEE, symObjAddr: 0x1130, symBinAddr: 0x2E1C4, symSize: 0x8C }
  - { offset: 0x212D44, size: 0x8, addend: 0x0, symName: __ZN8facebook3jsi20WithRuntimeDecoratorIN8worklets23WorkletsReentrancyCheckENS0_7RuntimeES4_E4sizeERKNS0_5ArrayE, symObjAddr: 0x684, symBinAddr: 0x2D718, symSize: 0x10 }
  - { offset: 0x212D89, size: 0x8, addend: 0x0, symName: __ZN8facebook3jsi20WithRuntimeDecoratorIN8worklets23WorkletsReentrancyCheckENS0_7RuntimeES4_E4sizeERKNS0_5ArrayE, symObjAddr: 0x684, symBinAddr: 0x2D718, symSize: 0x10 }
  - { offset: 0x212DE5, size: 0x8, addend: 0x0, symName: __ZN8facebook3jsi20WithRuntimeDecoratorIN8worklets23WorkletsReentrancyCheckENS0_7RuntimeES4_E4sizeERKNS0_11ArrayBufferE, symObjAddr: 0x694, symBinAddr: 0x2D728, symSize: 0x10 }
  - { offset: 0x212E2A, size: 0x8, addend: 0x0, symName: __ZN8facebook3jsi20WithRuntimeDecoratorIN8worklets23WorkletsReentrancyCheckENS0_7RuntimeES4_E4sizeERKNS0_11ArrayBufferE, symObjAddr: 0x694, symBinAddr: 0x2D728, symSize: 0x10 }
  - { offset: 0x212E86, size: 0x8, addend: 0x0, symName: __ZN8facebook3jsi20WithRuntimeDecoratorIN8worklets23WorkletsReentrancyCheckENS0_7RuntimeES4_E4dataERKNS0_11ArrayBufferE, symObjAddr: 0x6A4, symBinAddr: 0x2D738, symSize: 0x10 }
  - { offset: 0x212ECB, size: 0x8, addend: 0x0, symName: __ZN8facebook3jsi20WithRuntimeDecoratorIN8worklets23WorkletsReentrancyCheckENS0_7RuntimeES4_E4dataERKNS0_11ArrayBufferE, symObjAddr: 0x6A4, symBinAddr: 0x2D738, symSize: 0x10 }
  - { offset: 0x212F33, size: 0x8, addend: 0x0, symName: __ZN8facebook3jsi20WithRuntimeDecoratorIN8worklets23WorkletsReentrancyCheckENS0_7RuntimeES4_E15getValueAtIndexERKNS0_5ArrayEm, symObjAddr: 0x6B4, symBinAddr: 0x2D748, symSize: 0x10 }
  - { offset: 0x212F87, size: 0x8, addend: 0x0, symName: __ZN8facebook3jsi20WithRuntimeDecoratorIN8worklets23WorkletsReentrancyCheckENS0_7RuntimeES4_E15getValueAtIndexERKNS0_5ArrayEm, symObjAddr: 0x6B4, symBinAddr: 0x2D748, symSize: 0x10 }
  - { offset: 0x213012, size: 0x8, addend: 0x0, symName: __ZN8facebook3jsi20WithRuntimeDecoratorIN8worklets23WorkletsReentrancyCheckENS0_7RuntimeES4_E19setValueAtIndexImplERKNS0_5ArrayEmRKNS0_5ValueE, symObjAddr: 0x6C4, symBinAddr: 0x2D758, symSize: 0x10 }
  - { offset: 0x213075, size: 0x8, addend: 0x0, symName: __ZN8facebook3jsi20WithRuntimeDecoratorIN8worklets23WorkletsReentrancyCheckENS0_7RuntimeES4_E19setValueAtIndexImplERKNS0_5ArrayEmRKNS0_5ValueE, symObjAddr: 0x6C4, symBinAddr: 0x2D758, symSize: 0x10 }
  - { offset: 0x2131B4, size: 0x8, addend: 0x0, symName: __ZN8facebook3jsi20WithRuntimeDecoratorIN8worklets23WorkletsReentrancyCheckENS0_7RuntimeES4_E30createFunctionFromHostFunctionERKNS0_10PropNameIDEjNSt3__18functionIFNS0_5ValueERS4_RKSB_PSD_mEEE, symObjAddr: 0x6D4, symBinAddr: 0x2D768, symSize: 0xF0 }
  - { offset: 0x21341F, size: 0x8, addend: 0x0, symName: __ZN8facebook3jsi16RuntimeDecoratorINS0_7RuntimeES2_E30createFunctionFromHostFunctionERKNS0_10PropNameIDEjNSt3__18functionIFNS0_5ValueERS2_RKS9_PSB_mEEE, symObjAddr: 0x11BC, symBinAddr: 0x2E250, symSize: 0x1F4 }
  - { offset: 0x213C50, size: 0x8, addend: 0x0, symName: __ZN8facebook3jsi20WithRuntimeDecoratorIN8worklets23WorkletsReentrancyCheckENS0_7RuntimeES4_E4callERKNS0_8FunctionERKNS0_5ValueEPSA_m, symObjAddr: 0x7C4, symBinAddr: 0x2D858, symSize: 0x10 }
  - { offset: 0x213CC2, size: 0x8, addend: 0x0, symName: __ZN8facebook3jsi20WithRuntimeDecoratorIN8worklets23WorkletsReentrancyCheckENS0_7RuntimeES4_E4callERKNS0_8FunctionERKNS0_5ValueEPSA_m, symObjAddr: 0x7C4, symBinAddr: 0x2D858, symSize: 0x10 }
  - { offset: 0x213D6B, size: 0x8, addend: 0x0, symName: __ZN8facebook3jsi20WithRuntimeDecoratorIN8worklets23WorkletsReentrancyCheckENS0_7RuntimeES4_E17callAsConstructorERKNS0_8FunctionEPKNS0_5ValueEm, symObjAddr: 0x7D4, symBinAddr: 0x2D868, symSize: 0x10 }
  - { offset: 0x213DCE, size: 0x8, addend: 0x0, symName: __ZN8facebook3jsi20WithRuntimeDecoratorIN8worklets23WorkletsReentrancyCheckENS0_7RuntimeES4_E17callAsConstructorERKNS0_8FunctionEPKNS0_5ValueEm, symObjAddr: 0x7D4, symBinAddr: 0x2D868, symSize: 0x10 }
  - { offset: 0x213E44, size: 0x8, addend: 0x0, symName: __ZN8facebook3jsi20WithRuntimeDecoratorIN8worklets23WorkletsReentrancyCheckENS0_7RuntimeES4_E9pushScopeEv, symObjAddr: 0x7E4, symBinAddr: 0x2D878, symSize: 0x10 }
  - { offset: 0x213E7A, size: 0x8, addend: 0x0, symName: __ZN8facebook3jsi20WithRuntimeDecoratorIN8worklets23WorkletsReentrancyCheckENS0_7RuntimeES4_E9pushScopeEv, symObjAddr: 0x7E4, symBinAddr: 0x2D878, symSize: 0x10 }
  - { offset: 0x213EC6, size: 0x8, addend: 0x0, symName: __ZN8facebook3jsi20WithRuntimeDecoratorIN8worklets23WorkletsReentrancyCheckENS0_7RuntimeES4_E8popScopeEPNS4_10ScopeStateE, symObjAddr: 0x7F4, symBinAddr: 0x2D888, symSize: 0x10 }
  - { offset: 0x213F0B, size: 0x8, addend: 0x0, symName: __ZN8facebook3jsi20WithRuntimeDecoratorIN8worklets23WorkletsReentrancyCheckENS0_7RuntimeES4_E8popScopeEPNS4_10ScopeStateE, symObjAddr: 0x7F4, symBinAddr: 0x2D888, symSize: 0x10 }
  - { offset: 0x213F73, size: 0x8, addend: 0x0, symName: __ZNK8facebook3jsi20WithRuntimeDecoratorIN8worklets23WorkletsReentrancyCheckENS0_7RuntimeES4_E12strictEqualsERKNS0_6SymbolES8_, symObjAddr: 0x804, symBinAddr: 0x2D898, symSize: 0x10 }
  - { offset: 0x213FC7, size: 0x8, addend: 0x0, symName: __ZNK8facebook3jsi20WithRuntimeDecoratorIN8worklets23WorkletsReentrancyCheckENS0_7RuntimeES4_E12strictEqualsERKNS0_6SymbolES8_, symObjAddr: 0x804, symBinAddr: 0x2D898, symSize: 0x10 }
  - { offset: 0x21403E, size: 0x8, addend: 0x0, symName: __ZNK8facebook3jsi20WithRuntimeDecoratorIN8worklets23WorkletsReentrancyCheckENS0_7RuntimeES4_E12strictEqualsERKNS0_6BigIntES8_, symObjAddr: 0x814, symBinAddr: 0x2D8A8, symSize: 0x10 }
  - { offset: 0x214092, size: 0x8, addend: 0x0, symName: __ZNK8facebook3jsi20WithRuntimeDecoratorIN8worklets23WorkletsReentrancyCheckENS0_7RuntimeES4_E12strictEqualsERKNS0_6BigIntES8_, symObjAddr: 0x814, symBinAddr: 0x2D8A8, symSize: 0x10 }
  - { offset: 0x214109, size: 0x8, addend: 0x0, symName: __ZNK8facebook3jsi20WithRuntimeDecoratorIN8worklets23WorkletsReentrancyCheckENS0_7RuntimeES4_E12strictEqualsERKNS0_6StringES8_, symObjAddr: 0x824, symBinAddr: 0x2D8B8, symSize: 0x10 }
  - { offset: 0x21415D, size: 0x8, addend: 0x0, symName: __ZNK8facebook3jsi20WithRuntimeDecoratorIN8worklets23WorkletsReentrancyCheckENS0_7RuntimeES4_E12strictEqualsERKNS0_6StringES8_, symObjAddr: 0x824, symBinAddr: 0x2D8B8, symSize: 0x10 }
  - { offset: 0x2141D4, size: 0x8, addend: 0x0, symName: __ZNK8facebook3jsi20WithRuntimeDecoratorIN8worklets23WorkletsReentrancyCheckENS0_7RuntimeES4_E12strictEqualsERKNS0_6ObjectES8_, symObjAddr: 0x834, symBinAddr: 0x2D8C8, symSize: 0x10 }
  - { offset: 0x214228, size: 0x8, addend: 0x0, symName: __ZNK8facebook3jsi20WithRuntimeDecoratorIN8worklets23WorkletsReentrancyCheckENS0_7RuntimeES4_E12strictEqualsERKNS0_6ObjectES8_, symObjAddr: 0x834, symBinAddr: 0x2D8C8, symSize: 0x10 }
  - { offset: 0x21429F, size: 0x8, addend: 0x0, symName: __ZN8facebook3jsi20WithRuntimeDecoratorIN8worklets23WorkletsReentrancyCheckENS0_7RuntimeES4_E10instanceOfERKNS0_6ObjectERKNS0_8FunctionE, symObjAddr: 0x844, symBinAddr: 0x2D8D8, symSize: 0x10 }
  - { offset: 0x2142F3, size: 0x8, addend: 0x0, symName: __ZN8facebook3jsi20WithRuntimeDecoratorIN8worklets23WorkletsReentrancyCheckENS0_7RuntimeES4_E10instanceOfERKNS0_6ObjectERKNS0_8FunctionE, symObjAddr: 0x844, symBinAddr: 0x2D8D8, symSize: 0x10 }
  - { offset: 0x21436A, size: 0x8, addend: 0x0, symName: __ZN8facebook3jsi20WithRuntimeDecoratorIN8worklets23WorkletsReentrancyCheckENS0_7RuntimeES4_E25setExternalMemoryPressureERKNS0_6ObjectEm, symObjAddr: 0x854, symBinAddr: 0x2D8E8, symSize: 0x10 }
  - { offset: 0x2143BE, size: 0x8, addend: 0x0, symName: __ZN8facebook3jsi20WithRuntimeDecoratorIN8worklets23WorkletsReentrancyCheckENS0_7RuntimeES4_E25setExternalMemoryPressureERKNS0_6ObjectEm, symObjAddr: 0x854, symBinAddr: 0x2D8E8, symSize: 0x10 }
  - { offset: 0x214428, size: 0x8, addend: 0x0, symName: __ZN8facebook3jsi20WithRuntimeDecoratorIN8worklets23WorkletsReentrancyCheckENS0_7RuntimeES4_E5utf16ERKNS0_6StringE, symObjAddr: 0x864, symBinAddr: 0x2D8F8, symSize: 0x10 }
  - { offset: 0x21446D, size: 0x8, addend: 0x0, symName: __ZN8facebook3jsi20WithRuntimeDecoratorIN8worklets23WorkletsReentrancyCheckENS0_7RuntimeES4_E5utf16ERKNS0_6StringE, symObjAddr: 0x864, symBinAddr: 0x2D8F8, symSize: 0x10 }
  - { offset: 0x2144D0, size: 0x8, addend: 0x0, symName: __ZN8facebook3jsi20WithRuntimeDecoratorIN8worklets23WorkletsReentrancyCheckENS0_7RuntimeES4_E5utf16ERKNS0_10PropNameIDE, symObjAddr: 0x874, symBinAddr: 0x2D908, symSize: 0x10 }
  - { offset: 0x214515, size: 0x8, addend: 0x0, symName: __ZN8facebook3jsi20WithRuntimeDecoratorIN8worklets23WorkletsReentrancyCheckENS0_7RuntimeES4_E5utf16ERKNS0_10PropNameIDE, symObjAddr: 0x874, symBinAddr: 0x2D908, symSize: 0x10 }
  - { offset: 0x21458E, size: 0x8, addend: 0x0, symName: __ZN8facebook3jsi20WithRuntimeDecoratorIN8worklets23WorkletsReentrancyCheckENS0_7RuntimeES4_E13getStringDataERKNS0_6StringEPvPFvS9_bPKvmE, symObjAddr: 0x884, symBinAddr: 0x2D918, symSize: 0x10 }
  - { offset: 0x2145F1, size: 0x8, addend: 0x0, symName: __ZN8facebook3jsi20WithRuntimeDecoratorIN8worklets23WorkletsReentrancyCheckENS0_7RuntimeES4_E13getStringDataERKNS0_6StringEPvPFvS9_bPKvmE, symObjAddr: 0x884, symBinAddr: 0x2D918, symSize: 0x10 }
  - { offset: 0x214682, size: 0x8, addend: 0x0, symName: __ZN8facebook3jsi20WithRuntimeDecoratorIN8worklets23WorkletsReentrancyCheckENS0_7RuntimeES4_E17getPropNameIdDataERKNS0_10PropNameIDEPvPFvS9_bPKvmE, symObjAddr: 0x894, symBinAddr: 0x2D928, symSize: 0x10 }
  - { offset: 0x2146E5, size: 0x8, addend: 0x0, symName: __ZN8facebook3jsi20WithRuntimeDecoratorIN8worklets23WorkletsReentrancyCheckENS0_7RuntimeES4_E17getPropNameIdDataERKNS0_10PropNameIDEPvPFvS9_bPKvmE, symObjAddr: 0x894, symBinAddr: 0x2D928, symSize: 0x10 }
  - { offset: 0x21473D, size: 0x8, addend: 0x0, symName: __ZN8facebook3jsi16RuntimeDecoratorINS0_7RuntimeES2_E18getRecordedGCStatsEv, symObjAddr: 0x8A4, symBinAddr: 0x2D938, symSize: 0x38 }
  - { offset: 0x214795, size: 0x8, addend: 0x0, symName: __ZN8facebook3jsi16RuntimeDecoratorINS0_7RuntimeES2_E11getHeapInfoEb, symObjAddr: 0x8DC, symBinAddr: 0x2D970, symSize: 0x40 }
  - { offset: 0x2147F7, size: 0x8, addend: 0x0, symName: __ZN8facebook3jsi16RuntimeDecoratorINS0_7RuntimeES2_E14collectGarbageENSt3__112basic_stringIcNS4_11char_traitsIcEENS4_9allocatorIcEEEE, symObjAddr: 0x91C, symBinAddr: 0x2D9B0, symSize: 0x88 }
  - { offset: 0x214B93, size: 0x8, addend: 0x0, symName: __ZN8facebook3jsi16RuntimeDecoratorINS0_7RuntimeES2_E34startTrackingHeapObjectStackTracesENSt3__18functionIFvyNS4_6chrono8durationIxNS4_5ratioILl1ELl1000000EEEEENS4_6vectorINS4_5tupleIJyyyEEENS4_9allocatorISD_EEEEEEE, symObjAddr: 0x9A4, symBinAddr: 0x2DA38, symSize: 0xEC }
  - { offset: 0x214DAC, size: 0x8, addend: 0x0, symName: __ZNSt3__110__function12__value_funcIFvyNS_6chrono8durationIxNS_5ratioILl1ELl1000000EEEEENS_6vectorINS_5tupleIJyyyEEENS_9allocatorIS9_EEEEEEC2B8ne200100EOSE_, symObjAddr: 0x1AE8, symBinAddr: 0x2E8AC, symSize: 0x64 }
  - { offset: 0x214DFB, size: 0x8, addend: 0x0, symName: __ZN8facebook3jsi16RuntimeDecoratorINS0_7RuntimeES2_E33stopTrackingHeapObjectStackTracesEv, symObjAddr: 0xA90, symBinAddr: 0x2DB24, symSize: 0x28 }
  - { offset: 0x214E53, size: 0x8, addend: 0x0, symName: __ZN8facebook3jsi16RuntimeDecoratorINS0_7RuntimeES2_E17startHeapSamplingEm, symObjAddr: 0xAB8, symBinAddr: 0x2DB4C, symSize: 0x38 }
  - { offset: 0x214EB5, size: 0x8, addend: 0x0, symName: __ZN8facebook3jsi16RuntimeDecoratorINS0_7RuntimeES2_E16stopHeapSamplingERNSt3__113basic_ostreamIcNS4_11char_traitsIcEEEE, symObjAddr: 0xAF0, symBinAddr: 0x2DB84, symSize: 0x38 }
  - { offset: 0x214F17, size: 0x8, addend: 0x0, symName: __ZN8facebook3jsi16RuntimeDecoratorINS0_7RuntimeES2_E20createSnapshotToFileERKNSt3__112basic_stringIcNS4_11char_traitsIcEENS4_9allocatorIcEEEERKNS0_15Instrumentation19HeapSnapshotOptionsE, symObjAddr: 0xB28, symBinAddr: 0x2DBBC, symSize: 0x40 }
  - { offset: 0x214F83, size: 0x8, addend: 0x0, symName: __ZN8facebook3jsi16RuntimeDecoratorINS0_7RuntimeES2_E22createSnapshotToStreamERNSt3__113basic_ostreamIcNS4_11char_traitsIcEEEERKNS0_15Instrumentation19HeapSnapshotOptionsE, symObjAddr: 0xB68, symBinAddr: 0x2DBFC, symSize: 0x40 }
  - { offset: 0x214FEF, size: 0x8, addend: 0x0, symName: __ZN8facebook3jsi16RuntimeDecoratorINS0_7RuntimeES2_E33flushAndDisableBridgeTrafficTraceEv, symObjAddr: 0xBA8, symBinAddr: 0x2DC3C, symSize: 0x38 }
  - { offset: 0x21505D, size: 0x8, addend: 0x0, symName: __ZNK8facebook3jsi16RuntimeDecoratorINS0_7RuntimeES2_E33writeBasicBlockProfileTraceToFileERKNSt3__112basic_stringIcNS4_11char_traitsIcEENS4_9allocatorIcEEEE, symObjAddr: 0xBE0, symBinAddr: 0x2DC74, symSize: 0x38 }
  - { offset: 0x2150BF, size: 0x8, addend: 0x0, symName: __ZNK8facebook3jsi16RuntimeDecoratorINS0_7RuntimeES2_E25dumpProfilerSymbolsToFileERKNSt3__112basic_stringIcNS4_11char_traitsIcEENS4_9allocatorIcEEEE, symObjAddr: 0xC18, symBinAddr: 0x2DCAC, symSize: 0x38 }
  - { offset: 0x215137, size: 0x8, addend: 0x0, symName: __ZThn8_N8facebook3jsi16RuntimeDecoratorINS0_7RuntimeES2_E18getRecordedGCStatsEv, symObjAddr: 0xC50, symBinAddr: 0x2DCE4, symSize: 0x38 }
  - { offset: 0x2151C7, size: 0x8, addend: 0x0, symName: __ZThn8_N8facebook3jsi16RuntimeDecoratorINS0_7RuntimeES2_E11getHeapInfoEb, symObjAddr: 0xC88, symBinAddr: 0x2DD1C, symSize: 0x40 }
  - { offset: 0x21523F, size: 0x8, addend: 0x0, symName: __ZThn8_N8facebook3jsi16RuntimeDecoratorINS0_7RuntimeES2_E14collectGarbageENSt3__112basic_stringIcNS4_11char_traitsIcEENS4_9allocatorIcEEEE, symObjAddr: 0xCC8, symBinAddr: 0x2DD5C, symSize: 0x8 }
  - { offset: 0x21526E, size: 0x8, addend: 0x0, symName: __ZThn8_N8facebook3jsi16RuntimeDecoratorINS0_7RuntimeES2_E34startTrackingHeapObjectStackTracesENSt3__18functionIFvyNS4_6chrono8durationIxNS4_5ratioILl1ELl1000000EEEEENS4_6vectorINS4_5tupleIJyyyEEENS4_9allocatorISD_EEEEEEE, symObjAddr: 0xCD0, symBinAddr: 0x2DD64, symSize: 0x8 }
  - { offset: 0x2152B3, size: 0x8, addend: 0x0, symName: __ZThn8_N8facebook3jsi16RuntimeDecoratorINS0_7RuntimeES2_E33stopTrackingHeapObjectStackTracesEv, symObjAddr: 0xCD8, symBinAddr: 0x2DD6C, symSize: 0x28 }
  - { offset: 0x215343, size: 0x8, addend: 0x0, symName: __ZThn8_N8facebook3jsi16RuntimeDecoratorINS0_7RuntimeES2_E17startHeapSamplingEm, symObjAddr: 0xD00, symBinAddr: 0x2DD94, symSize: 0x38 }
  - { offset: 0x2153DD, size: 0x8, addend: 0x0, symName: __ZThn8_N8facebook3jsi16RuntimeDecoratorINS0_7RuntimeES2_E16stopHeapSamplingERNSt3__113basic_ostreamIcNS4_11char_traitsIcEEEE, symObjAddr: 0xD38, symBinAddr: 0x2DDCC, symSize: 0x38 }
  - { offset: 0x215483, size: 0x8, addend: 0x0, symName: __ZThn8_N8facebook3jsi16RuntimeDecoratorINS0_7RuntimeES2_E20createSnapshotToFileERKNSt3__112basic_stringIcNS4_11char_traitsIcEENS4_9allocatorIcEEEERKNS0_15Instrumentation19HeapSnapshotOptionsE, symObjAddr: 0xD70, symBinAddr: 0x2DE04, symSize: 0x40 }
  - { offset: 0x215533, size: 0x8, addend: 0x0, symName: __ZThn8_N8facebook3jsi16RuntimeDecoratorINS0_7RuntimeES2_E22createSnapshotToStreamERNSt3__113basic_ostreamIcNS4_11char_traitsIcEEEERKNS0_15Instrumentation19HeapSnapshotOptionsE, symObjAddr: 0xDB0, symBinAddr: 0x2DE44, symSize: 0x40 }
  - { offset: 0x2155CB, size: 0x8, addend: 0x0, symName: __ZThn8_N8facebook3jsi16RuntimeDecoratorINS0_7RuntimeES2_E33flushAndDisableBridgeTrafficTraceEv, symObjAddr: 0xDF0, symBinAddr: 0x2DE84, symSize: 0x38 }
  - { offset: 0x21565B, size: 0x8, addend: 0x0, symName: __ZThn8_NK8facebook3jsi16RuntimeDecoratorINS0_7RuntimeES2_E33writeBasicBlockProfileTraceToFileERKNSt3__112basic_stringIcNS4_11char_traitsIcEENS4_9allocatorIcEEEE, symObjAddr: 0xE28, symBinAddr: 0x2DEBC, symSize: 0x38 }
  - { offset: 0x2156F5, size: 0x8, addend: 0x0, symName: __ZThn8_NK8facebook3jsi16RuntimeDecoratorINS0_7RuntimeES2_E25dumpProfilerSymbolsToFileERKNSt3__112basic_stringIcNS4_11char_traitsIcEENS4_9allocatorIcEEEE, symObjAddr: 0xE60, symBinAddr: 0x2DEF4, symSize: 0x38 }
  - { offset: 0x215E8E, size: 0x8, addend: 0x0, symName: __ZNSt3__120__shared_ptr_emplaceIN8facebook3jsi19DecoratedHostObjectENS_9allocatorIS3_EEEC2B8ne200100IJRNS2_16RuntimeDecoratorINS2_7RuntimeES9_EENS_10shared_ptrINS2_10HostObjectEEEES5_Li0EEES5_DpOT_, symObjAddr: 0x1420, symBinAddr: 0x2E4A4, symSize: 0x4C }
  - { offset: 0x21607E, size: 0x8, addend: 0x0, symName: __ZNSt3__120__shared_ptr_emplaceIN8facebook3jsi19DecoratedHostObjectENS_9allocatorIS3_EEED1Ev, symObjAddr: 0x146C, symBinAddr: 0x2E4F0, symSize: 0x14 }
  - { offset: 0x2160A0, size: 0x8, addend: 0x0, symName: __ZNSt3__120__shared_ptr_emplaceIN8facebook3jsi19DecoratedHostObjectENS_9allocatorIS3_EEED1Ev, symObjAddr: 0x146C, symBinAddr: 0x2E4F0, symSize: 0x14 }
  - { offset: 0x2160D6, size: 0x8, addend: 0x0, symName: __ZNSt3__120__shared_ptr_emplaceIN8facebook3jsi19DecoratedHostObjectENS_9allocatorIS3_EEED0Ev, symObjAddr: 0x1480, symBinAddr: 0x2E504, symSize: 0x24 }
  - { offset: 0x2161A2, size: 0x8, addend: 0x0, symName: __ZNSt3__120__shared_ptr_emplaceIN8facebook3jsi19DecoratedHostObjectENS_9allocatorIS3_EEE16__on_zero_sharedEv, symObjAddr: 0x14A4, symBinAddr: 0x2E528, symSize: 0xC }
  - { offset: 0x2161CB, size: 0x8, addend: 0x0, symName: __ZNSt3__120__shared_ptr_emplaceIN8facebook3jsi19DecoratedHostObjectENS_9allocatorIS3_EEE16__on_zero_sharedEv, symObjAddr: 0x14A4, symBinAddr: 0x2E528, symSize: 0xC }
  - { offset: 0x2161E9, size: 0x8, addend: 0x0, symName: __ZNSt3__120__shared_ptr_emplaceIN8facebook3jsi19DecoratedHostObjectENS_9allocatorIS3_EEE16__on_zero_sharedEv, symObjAddr: 0x14A4, symBinAddr: 0x2E528, symSize: 0xC }
  - { offset: 0x216207, size: 0x8, addend: 0x0, symName: __ZNSt3__120__shared_ptr_emplaceIN8facebook3jsi19DecoratedHostObjectENS_9allocatorIS3_EEE16__on_zero_sharedEv, symObjAddr: 0x14A4, symBinAddr: 0x2E528, symSize: 0xC }
  - { offset: 0x216233, size: 0x8, addend: 0x0, symName: __ZNSt3__120__shared_ptr_emplaceIN8facebook3jsi19DecoratedHostObjectENS_9allocatorIS3_EEE21__on_zero_shared_weakEv, symObjAddr: 0x14B0, symBinAddr: 0x2E534, symSize: 0x4 }
  - { offset: 0x216266, size: 0x8, addend: 0x0, symName: __ZNSt3__120__shared_ptr_emplaceIN8facebook3jsi19DecoratedHostObjectENS_9allocatorIS3_EEE21__on_zero_shared_weakEv, symObjAddr: 0x14B0, symBinAddr: 0x2E534, symSize: 0x4 }
  - { offset: 0x216287, size: 0x8, addend: 0x0, symName: __ZNSt3__120__shared_ptr_emplaceIN8facebook3jsi19DecoratedHostObjectENS_9allocatorIS3_EEE21__on_zero_shared_weakEv, symObjAddr: 0x14B0, symBinAddr: 0x2E534, symSize: 0x4 }
  - { offset: 0x2162A9, size: 0x8, addend: 0x0, symName: __ZNSt3__120__shared_ptr_emplaceIN8facebook3jsi19DecoratedHostObjectENS_9allocatorIS3_EEE21__on_zero_shared_weakEv, symObjAddr: 0x14B0, symBinAddr: 0x2E534, symSize: 0x4 }
  - { offset: 0x2162DB, size: 0x8, addend: 0x0, symName: __ZNSt3__120__shared_ptr_emplaceIN8facebook3jsi19DecoratedHostObjectENS_9allocatorIS3_EEE21__on_zero_shared_weakEv, symObjAddr: 0x14B0, symBinAddr: 0x2E534, symSize: 0x4 }
  - { offset: 0x21637F, size: 0x8, addend: 0x0, symName: __ZN8facebook3jsi19DecoratedHostObjectD1Ev, symObjAddr: 0x1534, symBinAddr: 0x2E5B8, symSize: 0x34 }
  - { offset: 0x216407, size: 0x8, addend: 0x0, symName: __ZN8facebook3jsi19DecoratedHostObjectD0Ev, symObjAddr: 0x1568, symBinAddr: 0x2E5EC, symSize: 0x38 }
  - { offset: 0x2164AC, size: 0x8, addend: 0x0, symName: __ZN8facebook3jsi19DecoratedHostObject3getERNS0_7RuntimeERKNS0_10PropNameIDE, symObjAddr: 0x15A0, symBinAddr: 0x2E624, symSize: 0x14 }
  - { offset: 0x2164EF, size: 0x8, addend: 0x0, symName: __ZN8facebook3jsi19DecoratedHostObject3getERNS0_7RuntimeERKNS0_10PropNameIDE, symObjAddr: 0x15A0, symBinAddr: 0x2E624, symSize: 0x14 }
  - { offset: 0x216528, size: 0x8, addend: 0x0, symName: __ZN8facebook3jsi19DecoratedHostObject3setERNS0_7RuntimeERKNS0_10PropNameIDERKNS0_5ValueE, symObjAddr: 0x15B4, symBinAddr: 0x2E638, symSize: 0x14 }
  - { offset: 0x216579, size: 0x8, addend: 0x0, symName: __ZN8facebook3jsi19DecoratedHostObject3setERNS0_7RuntimeERKNS0_10PropNameIDERKNS0_5ValueE, symObjAddr: 0x15B4, symBinAddr: 0x2E638, symSize: 0x14 }
  - { offset: 0x2165B2, size: 0x8, addend: 0x0, symName: __ZN8facebook3jsi19DecoratedHostObject16getPropertyNamesERNS0_7RuntimeE, symObjAddr: 0x15C8, symBinAddr: 0x2E64C, symSize: 0x14 }
  - { offset: 0x2165E7, size: 0x8, addend: 0x0, symName: __ZN8facebook3jsi19DecoratedHostObject16getPropertyNamesERNS0_7RuntimeE, symObjAddr: 0x15C8, symBinAddr: 0x2E64C, symSize: 0x14 }
  - { offset: 0x21666D, size: 0x8, addend: 0x0, symName: __ZNSt3__110__function6__funcIN8facebook3jsi21DecoratedHostFunctionENS_9allocatorIS4_EEFNS3_5ValueERNS3_7RuntimeERKS7_PSA_mEED1Ev, symObjAddr: 0x17A0, symBinAddr: 0x2E660, symSize: 0x5C }
  - { offset: 0x2167CE, size: 0x8, addend: 0x0, symName: __ZNSt3__110__function6__funcIN8facebook3jsi21DecoratedHostFunctionENS_9allocatorIS4_EEFNS3_5ValueERNS3_7RuntimeERKS7_PSA_mEED0Ev, symObjAddr: 0x17FC, symBinAddr: 0x2E6BC, symSize: 0x5C }
  - { offset: 0x216BCF, size: 0x8, addend: 0x0, symName: __ZNKSt3__110__function6__funcIN8facebook3jsi21DecoratedHostFunctionENS_9allocatorIS4_EEFNS3_5ValueERNS3_7RuntimeERKS7_PSA_mEE7__cloneEv, symObjAddr: 0x1858, symBinAddr: 0x2E718, symSize: 0x5C }
  - { offset: 0x216F8E, size: 0x8, addend: 0x0, symName: __ZNKSt3__110__function6__funcIN8facebook3jsi21DecoratedHostFunctionENS_9allocatorIS4_EEFNS3_5ValueERNS3_7RuntimeERKS7_PSA_mEE7__cloneEPNS0_6__baseISD_EE, symObjAddr: 0x18B4, symBinAddr: 0x2E774, symSize: 0x24 }
  - { offset: 0x21712B, size: 0x8, addend: 0x0, symName: __ZNSt3__110__function6__funcIN8facebook3jsi21DecoratedHostFunctionENS_9allocatorIS4_EEFNS3_5ValueERNS3_7RuntimeERKS7_PSA_mEE7destroyEv, symObjAddr: 0x18D8, symBinAddr: 0x2E798, symSize: 0x30 }
  - { offset: 0x217154, size: 0x8, addend: 0x0, symName: __ZNSt3__110__function6__funcIN8facebook3jsi21DecoratedHostFunctionENS_9allocatorIS4_EEFNS3_5ValueERNS3_7RuntimeERKS7_PSA_mEE7destroyEv, symObjAddr: 0x18D8, symBinAddr: 0x2E798, symSize: 0x30 }
  - { offset: 0x217173, size: 0x8, addend: 0x0, symName: __ZNSt3__110__function6__funcIN8facebook3jsi21DecoratedHostFunctionENS_9allocatorIS4_EEFNS3_5ValueERNS3_7RuntimeERKS7_PSA_mEE7destroyEv, symObjAddr: 0x18D8, symBinAddr: 0x2E798, symSize: 0x30 }
  - { offset: 0x217191, size: 0x8, addend: 0x0, symName: __ZNSt3__110__function6__funcIN8facebook3jsi21DecoratedHostFunctionENS_9allocatorIS4_EEFNS3_5ValueERNS3_7RuntimeERKS7_PSA_mEE7destroyEv, symObjAddr: 0x18D8, symBinAddr: 0x2E798, symSize: 0x30 }
  - { offset: 0x21723B, size: 0x8, addend: 0x0, symName: __ZNSt3__110__function6__funcIN8facebook3jsi21DecoratedHostFunctionENS_9allocatorIS4_EEFNS3_5ValueERNS3_7RuntimeERKS7_PSA_mEE18destroy_deallocateEv, symObjAddr: 0x1908, symBinAddr: 0x2E7C8, symSize: 0x4C }
  - { offset: 0x2174D5, size: 0x8, addend: 0x0, symName: __ZNSt3__110__function6__funcIN8facebook3jsi21DecoratedHostFunctionENS_9allocatorIS4_EEFNS3_5ValueERNS3_7RuntimeERKS7_PSA_mEEclES9_SB_OSC_Om, symObjAddr: 0x1954, symBinAddr: 0x2E814, symSize: 0x14 }
  - { offset: 0x21753D, size: 0x8, addend: 0x0, symName: __ZNSt3__110__function6__funcIN8facebook3jsi21DecoratedHostFunctionENS_9allocatorIS4_EEFNS3_5ValueERNS3_7RuntimeERKS7_PSA_mEEclES9_SB_OSC_Om, symObjAddr: 0x1954, symBinAddr: 0x2E814, symSize: 0x14 }
  - { offset: 0x217577, size: 0x8, addend: 0x0, symName: __ZNSt3__110__function6__funcIN8facebook3jsi21DecoratedHostFunctionENS_9allocatorIS4_EEFNS3_5ValueERNS3_7RuntimeERKS7_PSA_mEEclES9_SB_OSC_Om, symObjAddr: 0x1954, symBinAddr: 0x2E814, symSize: 0x14 }
  - { offset: 0x2175B0, size: 0x8, addend: 0x0, symName: __ZNSt3__110__function6__funcIN8facebook3jsi21DecoratedHostFunctionENS_9allocatorIS4_EEFNS3_5ValueERNS3_7RuntimeERKS7_PSA_mEEclES9_SB_OSC_Om, symObjAddr: 0x1954, symBinAddr: 0x2E814, symSize: 0x14 }
  - { offset: 0x2175EA, size: 0x8, addend: 0x0, symName: __ZNSt3__110__function6__funcIN8facebook3jsi21DecoratedHostFunctionENS_9allocatorIS4_EEFNS3_5ValueERNS3_7RuntimeERKS7_PSA_mEEclES9_SB_OSC_Om, symObjAddr: 0x1954, symBinAddr: 0x2E814, symSize: 0x14 }
  - { offset: 0x217696, size: 0x8, addend: 0x0, symName: __ZNKSt3__18functionIFN8facebook3jsi5ValueERNS2_7RuntimeERKS3_PS6_mEEclES5_S7_S8_m, symObjAddr: 0x1A14, symBinAddr: 0x2E870, symSize: 0x3C }
  - { offset: 0x217755, size: 0x8, addend: 0x0, symName: __ZNKSt3__110__function6__funcIN8facebook3jsi21DecoratedHostFunctionENS_9allocatorIS4_EEFNS3_5ValueERNS3_7RuntimeERKS7_PSA_mEE6targetERKSt9type_info, symObjAddr: 0x1968, symBinAddr: 0x2E828, symSize: 0x3C }
  - { offset: 0x217808, size: 0x8, addend: 0x0, symName: __ZNKSt3__110__function6__funcIN8facebook3jsi21DecoratedHostFunctionENS_9allocatorIS4_EEFNS3_5ValueERNS3_7RuntimeERKS7_PSA_mEE11target_typeEv, symObjAddr: 0x19A4, symBinAddr: 0x2E864, symSize: 0xC }
  - { offset: 0x22B3C8, size: 0x8, addend: 0x0, symName: __ZNSt3__115allocate_sharedB8ne200100INS_15recursive_mutexENS_9allocatorIS1_EEJELi0EEENS_10shared_ptrIT_EERKT0_DpOT1_, symObjAddr: 0x6574, symBinAddr: 0x327CC, symSize: 0x48 }
  - { offset: 0x22B610, size: 0x8, addend: 0x0, symName: __ZNSt3__115allocate_sharedB8ne200100IN8worklets20WorkletHermesRuntimeENS_9allocatorIS2_EEJNS_10unique_ptrIN8facebook6hermes13HermesRuntimeENS_14default_deleteIS8_EEEERKNS_10shared_ptrINS6_5react18MessageQueueThreadEEERKNS_12basic_stringIcNS_11char_traitsIcEENS3_IcEEEEELi0EEENSC_IT_EERKT0_DpOT1_, symObjAddr: 0x1A0C, symBinAddr: 0x2FF64, symSize: 0x70 }
  - { offset: 0x22B8C1, size: 0x8, addend: 0x0, symName: __ZNSt3__115allocate_sharedB8ne200100IN8worklets15LockableRuntimeENS_9allocatorIS2_EEJRNS_10shared_ptrIN8facebook3jsi7RuntimeEEERKNS5_INS_15recursive_mutexEEEELi0EEENS5_IT_EERKT0_DpOT1_, symObjAddr: 0x1BC0, symBinAddr: 0x300E0, symSize: 0x60 }
  - { offset: 0x22BB4F, size: 0x8, addend: 0x0, symName: __ZNSt3__115allocate_sharedB8ne200100IN8worklets9EventLoopENS_9allocatorIS2_EEJRKNS_12basic_stringIcNS_11char_traitsIcEENS3_IcEEEERKNS_10shared_ptrIN8facebook3jsi7RuntimeEEERNSC_INS1_10AsyncQueueEEEELi0EEENSC_IT_EERKT0_DpOT1_, symObjAddr: 0x66FC, symBinAddr: 0x328A4, symSize: 0x78 }
  - { offset: 0x22C430, size: 0x8, addend: 0x0, symName: __ZNSt3__115allocate_sharedB8ne200100IKN8facebook3jsi12StringBufferENS_9allocatorIS3_EEJRA_KcELi0EEENS_10shared_ptrIT_EERKT0_DpOT1_, symObjAddr: 0x6954, symBinAddr: 0x32A4C, symSize: 0x58 }
  - { offset: 0x22D681, size: 0x8, addend: 0x0, symName: __ZNSt3__112construct_atB8ne200100IN8worklets20WorkletHermesRuntimeEJNS_10unique_ptrIN8facebook6hermes13HermesRuntimeENS_14default_deleteIS6_EEEERKNS_10shared_ptrINS4_5react18MessageQueueThreadEEERKNS_12basic_stringIcNS_11char_traitsIcEENS_9allocatorIcEEEEEPS2_EEPT_SQ_DpOT0_, symObjAddr: 0x1B38, symBinAddr: 0x30068, symSize: 0x78 }
  - { offset: 0x23032D, size: 0x8, addend: 0x0, symName: __ZNSt3__112construct_atB8ne200100IN8worklets9EventLoopEJRKNS_12basic_stringIcNS_11char_traitsIcEENS_9allocatorIcEEEERKNS_10shared_ptrIN8facebook3jsi7RuntimeEEERNSB_INS1_10AsyncQueueEEEEPS2_EEPT_SN_DpOT0_, symObjAddr: 0x6804, symBinAddr: 0x329AC, symSize: 0xA0 }
  - { offset: 0x232EFB, size: 0x8, addend: 0x0, symName: __ZN8worklets21extractWorkletRuntimeERN8facebook3jsi7RuntimeERKNS1_5ValueE, symObjAddr: 0x14A8, symBinAddr: 0x2FAA4, symSize: 0x90 }
  - { offset: 0x233187, size: 0x8, addend: 0x0, symName: __ZN8worklets17scheduleOnRuntimeERN8facebook3jsi7RuntimeERKNS1_5ValueES6_, symObjAddr: 0x1538, symBinAddr: 0x2FB34, symSize: 0x11C }
  - { offset: 0x235A80, size: 0x8, addend: 0x0, symName: __ZN8worklets14WorkletRuntime15runAsyncGuardedERKNSt3__110shared_ptrINS_19SerializableWorkletEEE, symObjAddr: 0xAC4, symBinAddr: 0x2F1F4, symSize: 0x19C }
  - { offset: 0x2361E5, size: 0x8, addend: 0x0, symName: __ZN8worklets14WorkletRuntime3getERN8facebook3jsi7RuntimeERKNS2_10PropNameIDE, symObjAddr: 0xF94, symBinAddr: 0x2F590, symSize: 0x2B4 }
  - { offset: 0x237E54, size: 0x8, addend: 0x0, symName: __ZN8worklets14WorkletRuntimeC2EyRKNSt3__110shared_ptrIN8facebook5react18MessageQueueThreadEEERKNS1_12basic_stringIcNS1_11char_traitsIcEENS1_9allocatorIcEEEERKNS2_INS_10AsyncQueueEEEb, symObjAddr: 0x0, symBinAddr: 0x2E910, symSize: 0x554 }
  - { offset: 0x239331, size: 0x8, addend: 0x0, symName: __ZNSt3__110shared_ptrIN6hermes2vm12CrashManagerEEC2B8ne200100INS2_15NopCrashManagerELi0EEEPT_, symObjAddr: 0x1890, symBinAddr: 0x2FE8C, symSize: 0x64 }
  - { offset: 0x239995, size: 0x8, addend: 0x0, symName: __ZN6hermes2vm13RuntimeConfigD1Ev, symObjAddr: 0x1720, symBinAddr: 0x2FD1C, symSize: 0xBC }
  - { offset: 0x239DC3, size: 0x8, addend: 0x0, symName: __ZN6hermes2vm8GCConfigD1Ev, symObjAddr: 0x17DC, symBinAddr: 0x2FDD8, symSize: 0xB4 }
  - { offset: 0x23A66D, size: 0x8, addend: 0x0, symName: __ZN8worklets14WorkletRuntimeC1EyRKNSt3__110shared_ptrIN8facebook5react18MessageQueueThreadEEERKNS1_12basic_stringIcNS1_11char_traitsIcEENS1_9allocatorIcEEEERKNS2_INS_10AsyncQueueEEEb, symObjAddr: 0x734, symBinAddr: 0x2EE64, symSize: 0x4 }
  - { offset: 0x23A6E6, size: 0x8, addend: 0x0, symName: __ZN8worklets14WorkletRuntimeC1EyRKNSt3__110shared_ptrIN8facebook5react18MessageQueueThreadEEERKNS1_12basic_stringIcNS1_11char_traitsIcEENS1_9allocatorIcEEEERKNS2_INS_10AsyncQueueEEEb, symObjAddr: 0x734, symBinAddr: 0x2EE64, symSize: 0x4 }
  - { offset: 0x23A979, size: 0x8, addend: 0x0, symName: __ZN8worklets14WorkletRuntime4initENSt3__110shared_ptrINS_22JSIWorkletsModuleProxyEEE, symObjAddr: 0x738, symBinAddr: 0x2EE68, symSize: 0x38C }
  - { offset: 0x23C04D, size: 0x8, addend: 0x0, symName: __ZNK8worklets14WorkletRuntime11executeSyncERN8facebook3jsi7RuntimeERKNS2_5ValueE, symObjAddr: 0xC8C, symBinAddr: 0x2F390, symSize: 0x200 }
  - { offset: 0x23D169, size: 0x8, addend: 0x0, symName: __ZN8worklets14WorkletRuntime16getPropertyNamesERN8facebook3jsi7RuntimeE, symObjAddr: 0x1248, symBinAddr: 0x2F844, symSize: 0x170 }
  - { offset: 0x23D80F, size: 0x8, addend: 0x0, symName: __ZNSt3__16vectorIN8facebook3jsi10PropNameIDENS_9allocatorIS3_EEE9push_backB8ne200100EOS3_, symObjAddr: 0x13B8, symBinAddr: 0x2F9B4, symSize: 0xF0 }
  - { offset: 0x23E459, size: 0x8, addend: 0x0, symName: __ZN8worklets14WorkletRuntimeD1Ev, symObjAddr: 0x1654, symBinAddr: 0x2FC50, symSize: 0x64 }
  - { offset: 0x23E6C0, size: 0x8, addend: 0x0, symName: __ZN8worklets14WorkletRuntimeD0Ev, symObjAddr: 0x16B8, symBinAddr: 0x2FCB4, symSize: 0x68 }
  - { offset: 0x23EB22, size: 0x8, addend: 0x0, symName: __ZNSt3__120__shared_ptr_pointerIPN6hermes2vm15NopCrashManagerENS_10shared_ptrINS2_12CrashManagerEE27__shared_ptr_default_deleteIS6_S3_EENS_9allocatorIS3_EEED1Ev, symObjAddr: 0x18F4, symBinAddr: 0x2FEF0, symSize: 0x4 }
  - { offset: 0x23EB44, size: 0x8, addend: 0x0, symName: __ZNSt3__120__shared_ptr_pointerIPN6hermes2vm15NopCrashManagerENS_10shared_ptrINS2_12CrashManagerEE27__shared_ptr_default_deleteIS6_S3_EENS_9allocatorIS3_EEED1Ev, symObjAddr: 0x18F4, symBinAddr: 0x2FEF0, symSize: 0x4 }
  - { offset: 0x23EB7A, size: 0x8, addend: 0x0, symName: __ZNSt3__120__shared_ptr_pointerIPN6hermes2vm15NopCrashManagerENS_10shared_ptrINS2_12CrashManagerEE27__shared_ptr_default_deleteIS6_S3_EENS_9allocatorIS3_EEED0Ev, symObjAddr: 0x18F8, symBinAddr: 0x2FEF4, symSize: 0x14 }
  - { offset: 0x23EBDD, size: 0x8, addend: 0x0, symName: __ZNSt3__120__shared_ptr_pointerIPN6hermes2vm15NopCrashManagerENS_10shared_ptrINS2_12CrashManagerEE27__shared_ptr_default_deleteIS6_S3_EENS_9allocatorIS3_EEE16__on_zero_sharedEv, symObjAddr: 0x190C, symBinAddr: 0x2FF08, symSize: 0x20 }
  - { offset: 0x23EC20, size: 0x8, addend: 0x0, symName: __ZNKSt3__120__shared_ptr_pointerIPN6hermes2vm15NopCrashManagerENS_10shared_ptrINS2_12CrashManagerEE27__shared_ptr_default_deleteIS6_S3_EENS_9allocatorIS3_EEE13__get_deleterERKSt9type_info, symObjAddr: 0x192C, symBinAddr: 0x2FF28, symSize: 0x38 }
  - { offset: 0x23ED13, size: 0x8, addend: 0x0, symName: __ZNSt3__120__shared_ptr_pointerIPN6hermes2vm15NopCrashManagerENS_10shared_ptrINS2_12CrashManagerEE27__shared_ptr_default_deleteIS6_S3_EENS_9allocatorIS3_EEE21__on_zero_shared_weakEv, symObjAddr: 0x1964, symBinAddr: 0x2FF60, symSize: 0x4 }
  - { offset: 0x23ED46, size: 0x8, addend: 0x0, symName: __ZNSt3__120__shared_ptr_pointerIPN6hermes2vm15NopCrashManagerENS_10shared_ptrINS2_12CrashManagerEE27__shared_ptr_default_deleteIS6_S3_EENS_9allocatorIS3_EEE21__on_zero_shared_weakEv, symObjAddr: 0x1964, symBinAddr: 0x2FF60, symSize: 0x4 }
  - { offset: 0x23ED67, size: 0x8, addend: 0x0, symName: __ZNSt3__120__shared_ptr_pointerIPN6hermes2vm15NopCrashManagerENS_10shared_ptrINS2_12CrashManagerEE27__shared_ptr_default_deleteIS6_S3_EENS_9allocatorIS3_EEE21__on_zero_shared_weakEv, symObjAddr: 0x1964, symBinAddr: 0x2FF60, symSize: 0x4 }
  - { offset: 0x23ED99, size: 0x8, addend: 0x0, symName: __ZNSt3__120__shared_ptr_pointerIPN6hermes2vm15NopCrashManagerENS_10shared_ptrINS2_12CrashManagerEE27__shared_ptr_default_deleteIS6_S3_EENS_9allocatorIS3_EEE21__on_zero_shared_weakEv, symObjAddr: 0x1964, symBinAddr: 0x2FF60, symSize: 0x4 }
  - { offset: 0x23F059, size: 0x8, addend: 0x0, symName: __ZNSt3__120__shared_ptr_emplaceIN8worklets20WorkletHermesRuntimeENS_9allocatorIS2_EEEC2B8ne200100IJNS_10unique_ptrIN8facebook6hermes13HermesRuntimeENS_14default_deleteISA_EEEERKNS_10shared_ptrINS8_5react18MessageQueueThreadEEERKNS_12basic_stringIcNS_11char_traitsIcEENS3_IcEEEEES4_Li0EEES4_DpOT_, symObjAddr: 0x1AA4, symBinAddr: 0x2FFD4, symSize: 0x4C }
  - { offset: 0x23F260, size: 0x8, addend: 0x0, symName: __ZNSt3__120__shared_ptr_emplaceIN8worklets20WorkletHermesRuntimeENS_9allocatorIS2_EEED1Ev, symObjAddr: 0x1AF0, symBinAddr: 0x30020, symSize: 0x14 }
  - { offset: 0x23F282, size: 0x8, addend: 0x0, symName: __ZNSt3__120__shared_ptr_emplaceIN8worklets20WorkletHermesRuntimeENS_9allocatorIS2_EEED1Ev, symObjAddr: 0x1AF0, symBinAddr: 0x30020, symSize: 0x14 }
  - { offset: 0x23F2B8, size: 0x8, addend: 0x0, symName: __ZNSt3__120__shared_ptr_emplaceIN8worklets20WorkletHermesRuntimeENS_9allocatorIS2_EEED0Ev, symObjAddr: 0x1B04, symBinAddr: 0x30034, symSize: 0x24 }
  - { offset: 0x23F384, size: 0x8, addend: 0x0, symName: __ZNSt3__120__shared_ptr_emplaceIN8worklets20WorkletHermesRuntimeENS_9allocatorIS2_EEE16__on_zero_sharedEv, symObjAddr: 0x1B28, symBinAddr: 0x30058, symSize: 0xC }
  - { offset: 0x23F3AD, size: 0x8, addend: 0x0, symName: __ZNSt3__120__shared_ptr_emplaceIN8worklets20WorkletHermesRuntimeENS_9allocatorIS2_EEE16__on_zero_sharedEv, symObjAddr: 0x1B28, symBinAddr: 0x30058, symSize: 0xC }
  - { offset: 0x23F3CB, size: 0x8, addend: 0x0, symName: __ZNSt3__120__shared_ptr_emplaceIN8worklets20WorkletHermesRuntimeENS_9allocatorIS2_EEE16__on_zero_sharedEv, symObjAddr: 0x1B28, symBinAddr: 0x30058, symSize: 0xC }
  - { offset: 0x23F3E9, size: 0x8, addend: 0x0, symName: __ZNSt3__120__shared_ptr_emplaceIN8worklets20WorkletHermesRuntimeENS_9allocatorIS2_EEE16__on_zero_sharedEv, symObjAddr: 0x1B28, symBinAddr: 0x30058, symSize: 0xC }
  - { offset: 0x23F415, size: 0x8, addend: 0x0, symName: __ZNSt3__120__shared_ptr_emplaceIN8worklets20WorkletHermesRuntimeENS_9allocatorIS2_EEE21__on_zero_shared_weakEv, symObjAddr: 0x1B34, symBinAddr: 0x30064, symSize: 0x4 }
  - { offset: 0x23F448, size: 0x8, addend: 0x0, symName: __ZNSt3__120__shared_ptr_emplaceIN8worklets20WorkletHermesRuntimeENS_9allocatorIS2_EEE21__on_zero_shared_weakEv, symObjAddr: 0x1B34, symBinAddr: 0x30064, symSize: 0x4 }
  - { offset: 0x23F469, size: 0x8, addend: 0x0, symName: __ZNSt3__120__shared_ptr_emplaceIN8worklets20WorkletHermesRuntimeENS_9allocatorIS2_EEE21__on_zero_shared_weakEv, symObjAddr: 0x1B34, symBinAddr: 0x30064, symSize: 0x4 }
  - { offset: 0x23F48B, size: 0x8, addend: 0x0, symName: __ZNSt3__120__shared_ptr_emplaceIN8worklets20WorkletHermesRuntimeENS_9allocatorIS2_EEE21__on_zero_shared_weakEv, symObjAddr: 0x1B34, symBinAddr: 0x30064, symSize: 0x4 }
  - { offset: 0x23F4BD, size: 0x8, addend: 0x0, symName: __ZNSt3__120__shared_ptr_emplaceIN8worklets20WorkletHermesRuntimeENS_9allocatorIS2_EEE21__on_zero_shared_weakEv, symObjAddr: 0x1B34, symBinAddr: 0x30064, symSize: 0x4 }
  - { offset: 0x23F793, size: 0x8, addend: 0x0, symName: __ZNSt3__120__shared_ptr_emplaceIN8worklets15LockableRuntimeENS_9allocatorIS2_EEEC2B8ne200100IJRNS_10shared_ptrIN8facebook3jsi7RuntimeEEERKNS7_INS_15recursive_mutexEEEES4_Li0EEES4_DpOT_, symObjAddr: 0x1C20, symBinAddr: 0x30140, symSize: 0x64 }
  - { offset: 0x23FC67, size: 0x8, addend: 0x0, symName: __ZNSt3__120__shared_ptr_emplaceIN8worklets15LockableRuntimeENS_9allocatorIS2_EEED1Ev, symObjAddr: 0x1C84, symBinAddr: 0x301A4, symSize: 0x14 }
  - { offset: 0x23FC89, size: 0x8, addend: 0x0, symName: __ZNSt3__120__shared_ptr_emplaceIN8worklets15LockableRuntimeENS_9allocatorIS2_EEED1Ev, symObjAddr: 0x1C84, symBinAddr: 0x301A4, symSize: 0x14 }
  - { offset: 0x23FCBF, size: 0x8, addend: 0x0, symName: __ZNSt3__120__shared_ptr_emplaceIN8worklets15LockableRuntimeENS_9allocatorIS2_EEED0Ev, symObjAddr: 0x1C98, symBinAddr: 0x301B8, symSize: 0x24 }
  - { offset: 0x23FD8B, size: 0x8, addend: 0x0, symName: __ZNSt3__120__shared_ptr_emplaceIN8worklets15LockableRuntimeENS_9allocatorIS2_EEE16__on_zero_sharedEv, symObjAddr: 0x1CBC, symBinAddr: 0x301DC, symSize: 0xC }
  - { offset: 0x23FDB4, size: 0x8, addend: 0x0, symName: __ZNSt3__120__shared_ptr_emplaceIN8worklets15LockableRuntimeENS_9allocatorIS2_EEE16__on_zero_sharedEv, symObjAddr: 0x1CBC, symBinAddr: 0x301DC, symSize: 0xC }
  - { offset: 0x23FDD2, size: 0x8, addend: 0x0, symName: __ZNSt3__120__shared_ptr_emplaceIN8worklets15LockableRuntimeENS_9allocatorIS2_EEE16__on_zero_sharedEv, symObjAddr: 0x1CBC, symBinAddr: 0x301DC, symSize: 0xC }
  - { offset: 0x23FDF0, size: 0x8, addend: 0x0, symName: __ZNSt3__120__shared_ptr_emplaceIN8worklets15LockableRuntimeENS_9allocatorIS2_EEE16__on_zero_sharedEv, symObjAddr: 0x1CBC, symBinAddr: 0x301DC, symSize: 0xC }
  - { offset: 0x23FE1C, size: 0x8, addend: 0x0, symName: __ZNSt3__120__shared_ptr_emplaceIN8worklets15LockableRuntimeENS_9allocatorIS2_EEE21__on_zero_shared_weakEv, symObjAddr: 0x1CC8, symBinAddr: 0x301E8, symSize: 0x4 }
  - { offset: 0x23FE4F, size: 0x8, addend: 0x0, symName: __ZNSt3__120__shared_ptr_emplaceIN8worklets15LockableRuntimeENS_9allocatorIS2_EEE21__on_zero_shared_weakEv, symObjAddr: 0x1CC8, symBinAddr: 0x301E8, symSize: 0x4 }
  - { offset: 0x23FE70, size: 0x8, addend: 0x0, symName: __ZNSt3__120__shared_ptr_emplaceIN8worklets15LockableRuntimeENS_9allocatorIS2_EEE21__on_zero_shared_weakEv, symObjAddr: 0x1CC8, symBinAddr: 0x301E8, symSize: 0x4 }
  - { offset: 0x23FE92, size: 0x8, addend: 0x0, symName: __ZNSt3__120__shared_ptr_emplaceIN8worklets15LockableRuntimeENS_9allocatorIS2_EEE21__on_zero_shared_weakEv, symObjAddr: 0x1CC8, symBinAddr: 0x301E8, symSize: 0x4 }
  - { offset: 0x23FEC4, size: 0x8, addend: 0x0, symName: __ZNSt3__120__shared_ptr_emplaceIN8worklets15LockableRuntimeENS_9allocatorIS2_EEE21__on_zero_shared_weakEv, symObjAddr: 0x1CC8, symBinAddr: 0x301E8, symSize: 0x4 }
  - { offset: 0x240021, size: 0x8, addend: 0x0, symName: __ZN8facebook3jsi20WithRuntimeDecoratorIN8worklets10AroundLockENS0_7RuntimeES4_E13castInterfaceERKNS0_4UUIDE, symObjAddr: 0x1CCC, symBinAddr: 0x301EC, symSize: 0x6C }
  - { offset: 0x2402DD, size: 0x8, addend: 0x0, symName: __ZN8worklets15LockableRuntimeD1Ev, symObjAddr: 0x1D38, symBinAddr: 0x30258, symSize: 0x40 }
  - { offset: 0x2403F1, size: 0x8, addend: 0x0, symName: __ZN8worklets15LockableRuntimeD0Ev, symObjAddr: 0x1D78, symBinAddr: 0x30298, symSize: 0x44 }
  - { offset: 0x240528, size: 0x8, addend: 0x0, symName: __ZN8facebook3jsi20WithRuntimeDecoratorIN8worklets10AroundLockENS0_7RuntimeES4_E18evaluateJavaScriptERKNSt3__110shared_ptrIKNS0_6BufferEEERKNS6_12basic_stringIcNS6_11char_traitsIcEENS6_9allocatorIcEEEE, symObjAddr: 0x1DBC, symBinAddr: 0x302DC, symSize: 0x78 }
  - { offset: 0x2407CE, size: 0x8, addend: 0x0, symName: __ZN8facebook3jsi20WithRuntimeDecoratorIN8worklets10AroundLockENS0_7RuntimeES4_E17prepareJavaScriptERKNSt3__110shared_ptrIKNS0_6BufferEEENS6_12basic_stringIcNS6_11char_traitsIcEENS6_9allocatorIcEEEE, symObjAddr: 0x1E34, symBinAddr: 0x30354, symSize: 0xB4 }
  - { offset: 0x240DF4, size: 0x8, addend: 0x0, symName: __ZN8facebook3jsi20WithRuntimeDecoratorIN8worklets10AroundLockENS0_7RuntimeES4_E26evaluatePreparedJavaScriptERKNSt3__110shared_ptrIKNS0_18PreparedJavaScriptEEE, symObjAddr: 0x1EE8, symBinAddr: 0x30408, symSize: 0x68 }
  - { offset: 0x241051, size: 0x8, addend: 0x0, symName: __ZN8facebook3jsi20WithRuntimeDecoratorIN8worklets10AroundLockENS0_7RuntimeES4_E14queueMicrotaskERKNS0_8FunctionE, symObjAddr: 0x1F50, symBinAddr: 0x30470, symSize: 0x60 }
  - { offset: 0x2412A7, size: 0x8, addend: 0x0, symName: __ZN8facebook3jsi20WithRuntimeDecoratorIN8worklets10AroundLockENS0_7RuntimeES4_E15drainMicrotasksEi, symObjAddr: 0x1FB0, symBinAddr: 0x304D0, symSize: 0x6C }
  - { offset: 0x2414EC, size: 0x8, addend: 0x0, symName: __ZN8facebook3jsi20WithRuntimeDecoratorIN8worklets10AroundLockENS0_7RuntimeES4_E6globalEv, symObjAddr: 0x201C, symBinAddr: 0x3053C, symSize: 0x60 }
  - { offset: 0x241720, size: 0x8, addend: 0x0, symName: __ZN8facebook3jsi20WithRuntimeDecoratorIN8worklets10AroundLockENS0_7RuntimeES4_E11descriptionEv, symObjAddr: 0x207C, symBinAddr: 0x3059C, symSize: 0x60 }
  - { offset: 0x241954, size: 0x8, addend: 0x0, symName: __ZN8facebook3jsi20WithRuntimeDecoratorIN8worklets10AroundLockENS0_7RuntimeES4_E13isInspectableEv, symObjAddr: 0x20DC, symBinAddr: 0x305FC, symSize: 0x5C }
  - { offset: 0x241B7A, size: 0x8, addend: 0x0, symName: __ZN8facebook3jsi20WithRuntimeDecoratorIN8worklets10AroundLockENS0_7RuntimeES4_E15instrumentationEv, symObjAddr: 0x2138, symBinAddr: 0x30658, symSize: 0x34 }
  - { offset: 0x241D1A, size: 0x8, addend: 0x0, symName: __ZN8facebook3jsi20WithRuntimeDecoratorIN8worklets10AroundLockENS0_7RuntimeES4_E18setRuntimeDataImplERKNS0_4UUIDEPKvPFvSA_E, symObjAddr: 0x216C, symBinAddr: 0x3068C, symSize: 0x78 }
  - { offset: 0x241F91, size: 0x8, addend: 0x0, symName: __ZN8facebook3jsi20WithRuntimeDecoratorIN8worklets10AroundLockENS0_7RuntimeES4_E18getRuntimeDataImplERKNS0_4UUIDE, symObjAddr: 0x21E4, symBinAddr: 0x30704, symSize: 0x6C }
  - { offset: 0x2421C5, size: 0x8, addend: 0x0, symName: __ZN8facebook3jsi20WithRuntimeDecoratorIN8worklets10AroundLockENS0_7RuntimeES4_E11cloneSymbolEPKNS4_12PointerValueE, symObjAddr: 0x2250, symBinAddr: 0x30770, symSize: 0x6C }
  - { offset: 0x2423F9, size: 0x8, addend: 0x0, symName: __ZN8facebook3jsi20WithRuntimeDecoratorIN8worklets10AroundLockENS0_7RuntimeES4_E11cloneBigIntEPKNS4_12PointerValueE, symObjAddr: 0x22BC, symBinAddr: 0x307DC, symSize: 0x6C }
  - { offset: 0x24262D, size: 0x8, addend: 0x0, symName: __ZN8facebook3jsi20WithRuntimeDecoratorIN8worklets10AroundLockENS0_7RuntimeES4_E11cloneStringEPKNS4_12PointerValueE, symObjAddr: 0x2328, symBinAddr: 0x30848, symSize: 0x6C }
  - { offset: 0x242861, size: 0x8, addend: 0x0, symName: __ZN8facebook3jsi20WithRuntimeDecoratorIN8worklets10AroundLockENS0_7RuntimeES4_E11cloneObjectEPKNS4_12PointerValueE, symObjAddr: 0x2394, symBinAddr: 0x308B4, symSize: 0x6C }
  - { offset: 0x242A95, size: 0x8, addend: 0x0, symName: __ZN8facebook3jsi20WithRuntimeDecoratorIN8worklets10AroundLockENS0_7RuntimeES4_E15clonePropNameIDEPKNS4_12PointerValueE, symObjAddr: 0x2400, symBinAddr: 0x30920, symSize: 0x6C }
  - { offset: 0x242CD4, size: 0x8, addend: 0x0, symName: __ZN8facebook3jsi20WithRuntimeDecoratorIN8worklets10AroundLockENS0_7RuntimeES4_E25createPropNameIDFromAsciiEPKcm, symObjAddr: 0x246C, symBinAddr: 0x3098C, symSize: 0x78 }
  - { offset: 0x242F3E, size: 0x8, addend: 0x0, symName: __ZN8facebook3jsi20WithRuntimeDecoratorIN8worklets10AroundLockENS0_7RuntimeES4_E24createPropNameIDFromUtf8EPKhm, symObjAddr: 0x24E4, symBinAddr: 0x30A04, symSize: 0x78 }
  - { offset: 0x2431A8, size: 0x8, addend: 0x0, symName: __ZN8facebook3jsi20WithRuntimeDecoratorIN8worklets10AroundLockENS0_7RuntimeES4_E25createPropNameIDFromUtf16EPKDsm, symObjAddr: 0x255C, symBinAddr: 0x30A7C, symSize: 0x78 }
  - { offset: 0x243407, size: 0x8, addend: 0x0, symName: __ZN8facebook3jsi20WithRuntimeDecoratorIN8worklets10AroundLockENS0_7RuntimeES4_E26createPropNameIDFromStringERKNS0_6StringE, symObjAddr: 0x25D4, symBinAddr: 0x30AF4, symSize: 0x68 }
  - { offset: 0x243648, size: 0x8, addend: 0x0, symName: __ZN8facebook3jsi20WithRuntimeDecoratorIN8worklets10AroundLockENS0_7RuntimeES4_E26createPropNameIDFromSymbolERKNS0_6SymbolE, symObjAddr: 0x263C, symBinAddr: 0x30B5C, symSize: 0x68 }
  - { offset: 0x243889, size: 0x8, addend: 0x0, symName: __ZN8facebook3jsi20WithRuntimeDecoratorIN8worklets10AroundLockENS0_7RuntimeES4_E4utf8ERKNS0_10PropNameIDE, symObjAddr: 0x26A4, symBinAddr: 0x30BC4, symSize: 0x68 }
  - { offset: 0x243AD5, size: 0x8, addend: 0x0, symName: __ZN8facebook3jsi20WithRuntimeDecoratorIN8worklets10AroundLockENS0_7RuntimeES4_E7compareERKNS0_10PropNameIDES8_, symObjAddr: 0x270C, symBinAddr: 0x30C2C, symSize: 0x74 }
  - { offset: 0x243D27, size: 0x8, addend: 0x0, symName: __ZN8facebook3jsi20WithRuntimeDecoratorIN8worklets10AroundLockENS0_7RuntimeES4_E14symbolToStringERKNS0_6SymbolE, symObjAddr: 0x2780, symBinAddr: 0x30CA0, symSize: 0x68 }
  - { offset: 0x243F68, size: 0x8, addend: 0x0, symName: __ZN8facebook3jsi20WithRuntimeDecoratorIN8worklets10AroundLockENS0_7RuntimeES4_E21createBigIntFromInt64Ex, symObjAddr: 0x27E8, symBinAddr: 0x30D08, symSize: 0x68 }
  - { offset: 0x2441A9, size: 0x8, addend: 0x0, symName: __ZN8facebook3jsi20WithRuntimeDecoratorIN8worklets10AroundLockENS0_7RuntimeES4_E22createBigIntFromUint64Ey, symObjAddr: 0x2850, symBinAddr: 0x30D70, symSize: 0x68 }
  - { offset: 0x2443EA, size: 0x8, addend: 0x0, symName: __ZN8facebook3jsi20WithRuntimeDecoratorIN8worklets10AroundLockENS0_7RuntimeES4_E13bigintIsInt64ERKNS0_6BigIntE, symObjAddr: 0x28B8, symBinAddr: 0x30DD8, symSize: 0x6C }
  - { offset: 0x24461E, size: 0x8, addend: 0x0, symName: __ZN8facebook3jsi20WithRuntimeDecoratorIN8worklets10AroundLockENS0_7RuntimeES4_E14bigintIsUint64ERKNS0_6BigIntE, symObjAddr: 0x2924, symBinAddr: 0x30E44, symSize: 0x6C }
  - { offset: 0x244852, size: 0x8, addend: 0x0, symName: __ZN8facebook3jsi20WithRuntimeDecoratorIN8worklets10AroundLockENS0_7RuntimeES4_E8truncateERKNS0_6BigIntE, symObjAddr: 0x2990, symBinAddr: 0x30EB0, symSize: 0x6C }
  - { offset: 0x244A91, size: 0x8, addend: 0x0, symName: __ZN8facebook3jsi20WithRuntimeDecoratorIN8worklets10AroundLockENS0_7RuntimeES4_E14bigintToStringERKNS0_6BigIntEi, symObjAddr: 0x29FC, symBinAddr: 0x30F1C, symSize: 0x78 }
  - { offset: 0x244CFB, size: 0x8, addend: 0x0, symName: __ZN8facebook3jsi20WithRuntimeDecoratorIN8worklets10AroundLockENS0_7RuntimeES4_E21createStringFromAsciiEPKcm, symObjAddr: 0x2A74, symBinAddr: 0x30F94, symSize: 0x78 }
  - { offset: 0x244F65, size: 0x8, addend: 0x0, symName: __ZN8facebook3jsi20WithRuntimeDecoratorIN8worklets10AroundLockENS0_7RuntimeES4_E20createStringFromUtf8EPKhm, symObjAddr: 0x2AEC, symBinAddr: 0x3100C, symSize: 0x78 }
  - { offset: 0x2451CF, size: 0x8, addend: 0x0, symName: __ZN8facebook3jsi20WithRuntimeDecoratorIN8worklets10AroundLockENS0_7RuntimeES4_E21createStringFromUtf16EPKDsm, symObjAddr: 0x2B64, symBinAddr: 0x31084, symSize: 0x78 }
  - { offset: 0x24542E, size: 0x8, addend: 0x0, symName: __ZN8facebook3jsi20WithRuntimeDecoratorIN8worklets10AroundLockENS0_7RuntimeES4_E4utf8ERKNS0_6StringE, symObjAddr: 0x2BDC, symBinAddr: 0x310FC, symSize: 0x68 }
  - { offset: 0x24564E, size: 0x8, addend: 0x0, symName: __ZN8facebook3jsi20WithRuntimeDecoratorIN8worklets10AroundLockENS0_7RuntimeES4_E23createValueFromJsonUtf8EPKhm, symObjAddr: 0x2C44, symBinAddr: 0x31164, symSize: 0x70 }
  - { offset: 0x245855, size: 0x8, addend: 0x0, symName: __ZN8facebook3jsi20WithRuntimeDecoratorIN8worklets10AroundLockENS0_7RuntimeES4_E12createObjectEv, symObjAddr: 0x2CB4, symBinAddr: 0x311D4, symSize: 0x60 }
  - { offset: 0x245AA3, size: 0x8, addend: 0x0, symName: __ZN8facebook3jsi20WithRuntimeDecoratorIN8worklets10AroundLockENS0_7RuntimeES4_E12createObjectENSt3__110shared_ptrINS0_10HostObjectEEE, symObjAddr: 0x2D14, symBinAddr: 0x31234, symSize: 0xB8 }
  - { offset: 0x245F76, size: 0x8, addend: 0x0, symName: __ZN8facebook3jsi20WithRuntimeDecoratorIN8worklets10AroundLockENS0_7RuntimeES4_E13getHostObjectERKNS0_6ObjectE, symObjAddr: 0x2DCC, symBinAddr: 0x312EC, symSize: 0x60 }
  - { offset: 0x246307, size: 0x8, addend: 0x0, symName: __ZN8facebook3jsi20WithRuntimeDecoratorIN8worklets10AroundLockENS0_7RuntimeES4_E15getHostFunctionERKNS0_8FunctionE, symObjAddr: 0x2E2C, symBinAddr: 0x3134C, symSize: 0x84 }
  - { offset: 0x24658E, size: 0x8, addend: 0x0, symName: __ZN8facebook3jsi20WithRuntimeDecoratorIN8worklets10AroundLockENS0_7RuntimeES4_E25createObjectWithPrototypeERKNS0_5ValueE, symObjAddr: 0x2EB0, symBinAddr: 0x313D0, symSize: 0x68 }
  - { offset: 0x2467D0, size: 0x8, addend: 0x0, symName: __ZN8facebook3jsi20WithRuntimeDecoratorIN8worklets10AroundLockENS0_7RuntimeES4_E14hasNativeStateERKNS0_6ObjectE, symObjAddr: 0x2F18, symBinAddr: 0x31438, symSize: 0x6C }
  - { offset: 0x246A05, size: 0x8, addend: 0x0, symName: __ZN8facebook3jsi20WithRuntimeDecoratorIN8worklets10AroundLockENS0_7RuntimeES4_E14getNativeStateERKNS0_6ObjectE, symObjAddr: 0x2F84, symBinAddr: 0x314A4, symSize: 0x68 }
  - { offset: 0x246CAA, size: 0x8, addend: 0x0, symName: __ZN8facebook3jsi20WithRuntimeDecoratorIN8worklets10AroundLockENS0_7RuntimeES4_E14setNativeStateERKNS0_6ObjectENSt3__110shared_ptrINS0_11NativeStateEEE, symObjAddr: 0x2FEC, symBinAddr: 0x3150C, symSize: 0xCC }
  - { offset: 0x2471D9, size: 0x8, addend: 0x0, symName: __ZN8facebook3jsi20WithRuntimeDecoratorIN8worklets10AroundLockENS0_7RuntimeES4_E14setPrototypeOfERKNS0_6ObjectERKNS0_5ValueE, symObjAddr: 0x30B8, symBinAddr: 0x315D8, symSize: 0x68 }
  - { offset: 0x247432, size: 0x8, addend: 0x0, symName: __ZN8facebook3jsi20WithRuntimeDecoratorIN8worklets10AroundLockENS0_7RuntimeES4_E14getPrototypeOfERKNS0_6ObjectE, symObjAddr: 0x3120, symBinAddr: 0x31640, symSize: 0x68 }
  - { offset: 0x247680, size: 0x8, addend: 0x0, symName: __ZN8facebook3jsi20WithRuntimeDecoratorIN8worklets10AroundLockENS0_7RuntimeES4_E11getPropertyERKNS0_6ObjectERKNS0_10PropNameIDE, symObjAddr: 0x3188, symBinAddr: 0x316A8, symSize: 0x78 }
  - { offset: 0x2478EC, size: 0x8, addend: 0x0, symName: __ZN8facebook3jsi20WithRuntimeDecoratorIN8worklets10AroundLockENS0_7RuntimeES4_E11getPropertyERKNS0_6ObjectERKNS0_6StringE, symObjAddr: 0x3200, symBinAddr: 0x31720, symSize: 0x78 }
  - { offset: 0x247B58, size: 0x8, addend: 0x0, symName: __ZN8facebook3jsi20WithRuntimeDecoratorIN8worklets10AroundLockENS0_7RuntimeES4_E11hasPropertyERKNS0_6ObjectERKNS0_10PropNameIDE, symObjAddr: 0x3278, symBinAddr: 0x31798, symSize: 0x74 }
  - { offset: 0x247DB7, size: 0x8, addend: 0x0, symName: __ZN8facebook3jsi20WithRuntimeDecoratorIN8worklets10AroundLockENS0_7RuntimeES4_E11hasPropertyERKNS0_6ObjectERKNS0_6StringE, symObjAddr: 0x32EC, symBinAddr: 0x3180C, symSize: 0x74 }
  - { offset: 0x248022, size: 0x8, addend: 0x0, symName: __ZN8facebook3jsi20WithRuntimeDecoratorIN8worklets10AroundLockENS0_7RuntimeES4_E16setPropertyValueERKNS0_6ObjectERKNS0_10PropNameIDERKNS0_5ValueE, symObjAddr: 0x3360, symBinAddr: 0x31880, symSize: 0x78 }
  - { offset: 0x2482B1, size: 0x8, addend: 0x0, symName: __ZN8facebook3jsi20WithRuntimeDecoratorIN8worklets10AroundLockENS0_7RuntimeES4_E16setPropertyValueERKNS0_6ObjectERKNS0_6StringERKNS0_5ValueE, symObjAddr: 0x33D8, symBinAddr: 0x318F8, symSize: 0x78 }
  - { offset: 0x24852D, size: 0x8, addend: 0x0, symName: __ZNK8facebook3jsi20WithRuntimeDecoratorIN8worklets10AroundLockENS0_7RuntimeES4_E7isArrayERKNS0_6ObjectE, symObjAddr: 0x3450, symBinAddr: 0x31970, symSize: 0x6C }
  - { offset: 0x248762, size: 0x8, addend: 0x0, symName: __ZNK8facebook3jsi20WithRuntimeDecoratorIN8worklets10AroundLockENS0_7RuntimeES4_E13isArrayBufferERKNS0_6ObjectE, symObjAddr: 0x34BC, symBinAddr: 0x319DC, symSize: 0x6C }
  - { offset: 0x248997, size: 0x8, addend: 0x0, symName: __ZNK8facebook3jsi20WithRuntimeDecoratorIN8worklets10AroundLockENS0_7RuntimeES4_E10isFunctionERKNS0_6ObjectE, symObjAddr: 0x3528, symBinAddr: 0x31A48, symSize: 0x6C }
  - { offset: 0x248BCC, size: 0x8, addend: 0x0, symName: __ZNK8facebook3jsi20WithRuntimeDecoratorIN8worklets10AroundLockENS0_7RuntimeES4_E12isHostObjectERKNS0_6ObjectE, symObjAddr: 0x3594, symBinAddr: 0x31AB4, symSize: 0x6C }
  - { offset: 0x248E01, size: 0x8, addend: 0x0, symName: __ZNK8facebook3jsi20WithRuntimeDecoratorIN8worklets10AroundLockENS0_7RuntimeES4_E14isHostFunctionERKNS0_8FunctionE, symObjAddr: 0x3600, symBinAddr: 0x31B20, symSize: 0x6C }
  - { offset: 0x249036, size: 0x8, addend: 0x0, symName: __ZN8facebook3jsi20WithRuntimeDecoratorIN8worklets10AroundLockENS0_7RuntimeES4_E16getPropertyNamesERKNS0_6ObjectE, symObjAddr: 0x366C, symBinAddr: 0x31B8C, symSize: 0x68 }
  - { offset: 0x249278, size: 0x8, addend: 0x0, symName: __ZN8facebook3jsi20WithRuntimeDecoratorIN8worklets10AroundLockENS0_7RuntimeES4_E16createWeakObjectERKNS0_6ObjectE, symObjAddr: 0x36D4, symBinAddr: 0x31BF4, symSize: 0x68 }
  - { offset: 0x2494BA, size: 0x8, addend: 0x0, symName: __ZN8facebook3jsi20WithRuntimeDecoratorIN8worklets10AroundLockENS0_7RuntimeES4_E14lockWeakObjectERKNS0_10WeakObjectE, symObjAddr: 0x373C, symBinAddr: 0x31C5C, symSize: 0x68 }
  - { offset: 0x2496FC, size: 0x8, addend: 0x0, symName: __ZN8facebook3jsi20WithRuntimeDecoratorIN8worklets10AroundLockENS0_7RuntimeES4_E11createArrayEm, symObjAddr: 0x37A4, symBinAddr: 0x31CC4, symSize: 0x68 }
  - { offset: 0x2499A1, size: 0x8, addend: 0x0, symName: __ZN8facebook3jsi20WithRuntimeDecoratorIN8worklets10AroundLockENS0_7RuntimeES4_E17createArrayBufferENSt3__110shared_ptrINS0_13MutableBufferEEE, symObjAddr: 0x380C, symBinAddr: 0x31D2C, symSize: 0x80 }
  - { offset: 0x249C80, size: 0x8, addend: 0x0, symName: __ZN8facebook3jsi20WithRuntimeDecoratorIN8worklets10AroundLockENS0_7RuntimeES4_E4sizeERKNS0_5ArrayE, symObjAddr: 0x388C, symBinAddr: 0x31DAC, symSize: 0x6C }
  - { offset: 0x249EB5, size: 0x8, addend: 0x0, symName: __ZN8facebook3jsi20WithRuntimeDecoratorIN8worklets10AroundLockENS0_7RuntimeES4_E4sizeERKNS0_11ArrayBufferE, symObjAddr: 0x38F8, symBinAddr: 0x31E18, symSize: 0x6C }
  - { offset: 0x24A0EA, size: 0x8, addend: 0x0, symName: __ZN8facebook3jsi20WithRuntimeDecoratorIN8worklets10AroundLockENS0_7RuntimeES4_E4dataERKNS0_11ArrayBufferE, symObjAddr: 0x3964, symBinAddr: 0x31E84, symSize: 0x6C }
  - { offset: 0x24A32B, size: 0x8, addend: 0x0, symName: __ZN8facebook3jsi20WithRuntimeDecoratorIN8worklets10AroundLockENS0_7RuntimeES4_E15getValueAtIndexERKNS0_5ArrayEm, symObjAddr: 0x39D0, symBinAddr: 0x31EF0, symSize: 0x78 }
  - { offset: 0x24A5A3, size: 0x8, addend: 0x0, symName: __ZN8facebook3jsi20WithRuntimeDecoratorIN8worklets10AroundLockENS0_7RuntimeES4_E19setValueAtIndexImplERKNS0_5ArrayEmRKNS0_5ValueE, symObjAddr: 0x3A48, symBinAddr: 0x31F68, symSize: 0x78 }
  - { offset: 0x24A7F8, size: 0x8, addend: 0x0, symName: __ZN8facebook3jsi20WithRuntimeDecoratorIN8worklets10AroundLockENS0_7RuntimeES4_E30createFunctionFromHostFunctionERKNS0_10PropNameIDEjNSt3__18functionIFNS0_5ValueERS4_RKSB_PSD_mEEE, symObjAddr: 0x3AC0, symBinAddr: 0x31FE0, symSize: 0x118 }
  - { offset: 0x24B0E7, size: 0x8, addend: 0x0, symName: __ZN8facebook3jsi20WithRuntimeDecoratorIN8worklets10AroundLockENS0_7RuntimeES4_E4callERKNS0_8FunctionERKNS0_5ValueEPSA_m, symObjAddr: 0x3BD8, symBinAddr: 0x320F8, symSize: 0x90 }
  - { offset: 0x24B39B, size: 0x8, addend: 0x0, symName: __ZN8facebook3jsi20WithRuntimeDecoratorIN8worklets10AroundLockENS0_7RuntimeES4_E17callAsConstructorERKNS0_8FunctionEPKNS0_5ValueEm, symObjAddr: 0x3C68, symBinAddr: 0x32188, symSize: 0x80 }
  - { offset: 0x24B60D, size: 0x8, addend: 0x0, symName: __ZN8facebook3jsi20WithRuntimeDecoratorIN8worklets10AroundLockENS0_7RuntimeES4_E9pushScopeEv, symObjAddr: 0x3CE8, symBinAddr: 0x32208, symSize: 0x5C }
  - { offset: 0x24B823, size: 0x8, addend: 0x0, symName: __ZN8facebook3jsi20WithRuntimeDecoratorIN8worklets10AroundLockENS0_7RuntimeES4_E8popScopeEPNS4_10ScopeStateE, symObjAddr: 0x3D44, symBinAddr: 0x32264, symSize: 0x60 }
  - { offset: 0x24BA6A, size: 0x8, addend: 0x0, symName: __ZNK8facebook3jsi20WithRuntimeDecoratorIN8worklets10AroundLockENS0_7RuntimeES4_E12strictEqualsERKNS0_6SymbolES8_, symObjAddr: 0x3DA4, symBinAddr: 0x322C4, symSize: 0x74 }
  - { offset: 0x24BCC9, size: 0x8, addend: 0x0, symName: __ZNK8facebook3jsi20WithRuntimeDecoratorIN8worklets10AroundLockENS0_7RuntimeES4_E12strictEqualsERKNS0_6BigIntES8_, symObjAddr: 0x3E18, symBinAddr: 0x32338, symSize: 0x74 }
  - { offset: 0x24BF28, size: 0x8, addend: 0x0, symName: __ZNK8facebook3jsi20WithRuntimeDecoratorIN8worklets10AroundLockENS0_7RuntimeES4_E12strictEqualsERKNS0_6StringES8_, symObjAddr: 0x3E8C, symBinAddr: 0x323AC, symSize: 0x74 }
  - { offset: 0x24C187, size: 0x8, addend: 0x0, symName: __ZNK8facebook3jsi20WithRuntimeDecoratorIN8worklets10AroundLockENS0_7RuntimeES4_E12strictEqualsERKNS0_6ObjectES8_, symObjAddr: 0x3F00, symBinAddr: 0x32420, symSize: 0x74 }
  - { offset: 0x24C3E6, size: 0x8, addend: 0x0, symName: __ZN8facebook3jsi20WithRuntimeDecoratorIN8worklets10AroundLockENS0_7RuntimeES4_E10instanceOfERKNS0_6ObjectERKNS0_8FunctionE, symObjAddr: 0x3F74, symBinAddr: 0x32494, symSize: 0x74 }
  - { offset: 0x24C645, size: 0x8, addend: 0x0, symName: __ZN8facebook3jsi20WithRuntimeDecoratorIN8worklets10AroundLockENS0_7RuntimeES4_E25setExternalMemoryPressureERKNS0_6ObjectEm, symObjAddr: 0x3FE8, symBinAddr: 0x32508, symSize: 0x68 }
  - { offset: 0x24C89D, size: 0x8, addend: 0x0, symName: __ZN8facebook3jsi20WithRuntimeDecoratorIN8worklets10AroundLockENS0_7RuntimeES4_E5utf16ERKNS0_6StringE, symObjAddr: 0x4050, symBinAddr: 0x32570, symSize: 0x68 }
  - { offset: 0x24CADE, size: 0x8, addend: 0x0, symName: __ZN8facebook3jsi20WithRuntimeDecoratorIN8worklets10AroundLockENS0_7RuntimeES4_E5utf16ERKNS0_10PropNameIDE, symObjAddr: 0x40B8, symBinAddr: 0x325D8, symSize: 0x68 }
  - { offset: 0x24CD35, size: 0x8, addend: 0x0, symName: __ZN8facebook3jsi20WithRuntimeDecoratorIN8worklets10AroundLockENS0_7RuntimeES4_E13getStringDataERKNS0_6StringEPvPFvS9_bPKvmE, symObjAddr: 0x4120, symBinAddr: 0x32640, symSize: 0x78 }
  - { offset: 0x24CFC3, size: 0x8, addend: 0x0, symName: __ZN8facebook3jsi20WithRuntimeDecoratorIN8worklets10AroundLockENS0_7RuntimeES4_E17getPropNameIdDataERKNS0_10PropNameIDEPvPFvS9_bPKvmE, symObjAddr: 0x4198, symBinAddr: 0x326B8, symSize: 0x78 }
  - { offset: 0x24D218, size: 0x8, addend: 0x0, symName: __ZThn8_N8worklets15LockableRuntimeD1Ev, symObjAddr: 0x45BC, symBinAddr: 0x32730, symSize: 0x4C }
  - { offset: 0x24D354, size: 0x8, addend: 0x0, symName: __ZThn8_N8worklets15LockableRuntimeD0Ev, symObjAddr: 0x4608, symBinAddr: 0x3277C, symSize: 0x50 }
  - { offset: 0x24EE3A, size: 0x8, addend: 0x0, symName: __ZNSt3__120__shared_ptr_emplaceINS_15recursive_mutexENS_9allocatorIS1_EEEC2B8ne200100IJES3_Li0EEES3_DpOT_, symObjAddr: 0x65BC, symBinAddr: 0x32814, symSize: 0x4C }
  - { offset: 0x24EF6F, size: 0x8, addend: 0x0, symName: __ZNSt3__120__shared_ptr_emplaceINS_15recursive_mutexENS_9allocatorIS1_EEED1Ev, symObjAddr: 0x6608, symBinAddr: 0x32860, symSize: 0x14 }
  - { offset: 0x24EF91, size: 0x8, addend: 0x0, symName: __ZNSt3__120__shared_ptr_emplaceINS_15recursive_mutexENS_9allocatorIS1_EEED1Ev, symObjAddr: 0x6608, symBinAddr: 0x32860, symSize: 0x14 }
