---
triple:          'arm64-apple-darwin'
binary-path:     '/Users/uk-aplatts/Development/InjuryIQ/ios/DerivedData/Build/Intermediates.noindex/ArchiveIntermediates/InjuryIQ/IntermediateBuildFilesPath/UninstalledProducts/iphoneos/ReactCommon.framework/ReactCommon'
relocations:
  - { offset: 0x33, size: 0x8, addend: 0x0, symName: _ReactCommonVersionString, symObjAddr: 0x0, symBinAddr: 0xF598, symSize: 0x0 }
  - { offset: 0x67, size: 0x8, addend: 0x0, symName: _ReactCommonVersionNumber, symObjAddr: 0x30, symBinAddr: 0xF5C8, symSize: 0x0 }
  - { offset: 0xB9, size: 0x8, addend: 0x0, symName: __ZN8facebook5react31globalExportedCxxTurboModuleMapEv, symObjAddr: 0x0, symBinAddr: 0x4000, symSize: 0x30 }
  - { offset: 0xE2, size: 0x8, addend: 0x0, symName: __MergedGlobals, symObjAddr: 0x78B68, symBinAddr: 0x1C128, symSize: 0x0 }
  - { offset: 0x40B, size: 0x8, addend: 0x0, symName: __ZN8facebook5react34registerCxxModuleToGlobalModuleMapENSt3__112basic_stringIcNS1_11char_traitsIcEENS1_9allocatorIcEEEENS1_8functionIFNS1_10shared_ptrINS0_11TurboModuleEEENS9_INS0_11CallInvokerEEEEEE, symObjAddr: 0x34, symBinAddr: 0x4034, symSize: 0x5C }
  - { offset: 0x1061F, size: 0x8, addend: 0x0, symName: __ZNSt3__119piecewise_constructE, symObjAddr: 0x1094, symBinAddr: 0xF5D0, symSize: 0x0 }
  - { offset: 0x10C9A, size: 0x8, addend: 0x0, symName: __ZNSt3__112__destroy_atB8ne200100INS_4pairIKNS_12basic_stringIcNS_11char_traitsIcEENS_9allocatorIcEEEENS_8functionIFNS_10shared_ptrIN8facebook5react11TurboModuleEEENSA_INSC_11CallInvokerEEEEEEEELi0EEEvPT_, symObjAddr: 0x1A8, symBinAddr: 0x41A8, symSize: 0x60 }
  - { offset: 0x1132E, size: 0x8, addend: 0x0, symName: __ZNSt3__120__throw_length_errorB8ne200100EPKc, symObjAddr: 0xAE4, symBinAddr: 0x4AE4, symSize: 0x50 }
  - { offset: 0x126EF, size: 0x8, addend: 0x0, symName: __ZSt28__throw_bad_array_new_lengthB8ne200100v, symObjAddr: 0xA28, symBinAddr: 0x4A28, symSize: 0x28 }
  - { offset: 0x13D0B, size: 0x8, addend: 0x0, symName: __ZN8facebook5react31globalExportedCxxTurboModuleMapEv.cold.1, symObjAddr: 0xF9C, symBinAddr: 0xF07C, symSize: 0x68 }
  - { offset: 0x13E1E, size: 0x8, addend: 0x0, symName: __ZNSt3__113unordered_mapINS_12basic_stringIcNS_11char_traitsIcEENS_9allocatorIcEEEENS_8functionIFNS_10shared_ptrIN8facebook5react11TurboModuleEEENS8_INSA_11CallInvokerEEEEEENS_4hashIS6_EENS_8equal_toIS6_EENS4_INS_4pairIKS6_SG_EEEEED1B8ne200100Ev, symObjAddr: 0x30, symBinAddr: 0x4030, symSize: 0x4 }
  - { offset: 0x13E49, size: 0x8, addend: 0x0, symName: __ZNSt3__113unordered_mapINS_12basic_stringIcNS_11char_traitsIcEENS_9allocatorIcEEEENS_8functionIFNS_10shared_ptrIN8facebook5react11TurboModuleEEENS8_INSA_11CallInvokerEEEEEENS_4hashIS6_EENS_8equal_toIS6_EENS4_INS_4pairIKS6_SG_EEEEED1B8ne200100Ev, symObjAddr: 0x30, symBinAddr: 0x4030, symSize: 0x4 }
  - { offset: 0x13E65, size: 0x8, addend: 0x0, symName: __ZNSt3__113unordered_mapINS_12basic_stringIcNS_11char_traitsIcEENS_9allocatorIcEEEENS_8functionIFNS_10shared_ptrIN8facebook5react11TurboModuleEEENS8_INSA_11CallInvokerEEEEEENS_4hashIS6_EENS_8equal_toIS6_EENS4_INS_4pairIKS6_SG_EEEEED1B8ne200100Ev, symObjAddr: 0x30, symBinAddr: 0x4030, symSize: 0x4 }
  - { offset: 0x13E84, size: 0x8, addend: 0x0, symName: __ZNSt3__113unordered_mapINS_12basic_stringIcNS_11char_traitsIcEENS_9allocatorIcEEEENS_8functionIFNS_10shared_ptrIN8facebook5react11TurboModuleEEENS8_INSA_11CallInvokerEEEEEENS_4hashIS6_EENS_8equal_toIS6_EENS4_INS_4pairIKS6_SG_EEEEED1B8ne200100Ev, symObjAddr: 0x30, symBinAddr: 0x4030, symSize: 0x4 }
  - { offset: 0x13E97, size: 0x8, addend: 0x0, symName: __ZNSt3__112__hash_tableINS_17__hash_value_typeINS_12basic_stringIcNS_11char_traitsIcEENS_9allocatorIcEEEENS_8functionIFNS_10shared_ptrIN8facebook5react11TurboModuleEEENS9_INSB_11CallInvokerEEEEEEEENS_22__unordered_map_hasherIS7_SI_NS_4hashIS7_EENS_8equal_toIS7_EELb1EEENS_21__unordered_map_equalIS7_SI_SN_SL_Lb1EEENS5_ISI_EEED2Ev, symObjAddr: 0x124, symBinAddr: 0x4124, symSize: 0x38 }
  - { offset: 0x1402C, size: 0x8, addend: 0x0, symName: __ZNSt3__112__hash_tableINS_17__hash_value_typeINS_12basic_stringIcNS_11char_traitsIcEENS_9allocatorIcEEEENS_8functionIFNS_10shared_ptrIN8facebook5react11TurboModuleEEENS9_INSB_11CallInvokerEEEEEEEENS_22__unordered_map_hasherIS7_SI_NS_4hashIS7_EENS_8equal_toIS7_EELb1EEENS_21__unordered_map_equalIS7_SI_SN_SL_Lb1EEENS5_ISI_EEE25__emplace_unique_key_argsIS7_JRKNS_21piecewise_construct_tENS_5tupleIJRKS7_EEENSX_IJEEEEEENS_4pairINS_15__hash_iteratorIPNS_11__hash_nodeISI_PvEEEEbEERKT_DpOT0_, symObjAddr: 0x208, symBinAddr: 0x4208, symSize: 0x268 }
  - { offset: 0x144F3, size: 0x8, addend: 0x0, symName: __ZNSt3__18functionIFNS_10shared_ptrIN8facebook5react11TurboModuleEEENS1_INS3_11CallInvokerEEEEEaSERKS9_, symObjAddr: 0x90, symBinAddr: 0x4090, symSize: 0x94 }
  - { offset: 0x14793, size: 0x8, addend: 0x0, symName: __ZNSt3__110__function12__value_funcIFNS_10shared_ptrIN8facebook5react11TurboModuleEEENS2_INS4_11CallInvokerEEEEEC2B8ne200100ERKSA_, symObjAddr: 0xDCC, symBinAddr: 0x4DCC, symSize: 0x64 }
  - { offset: 0x147ED, size: 0x8, addend: 0x0, symName: __ZNSt3__110__function12__value_funcIFNS_10shared_ptrIN8facebook5react11TurboModuleEEENS2_INS4_11CallInvokerEEEEE4swapB8ne200100ERSA_, symObjAddr: 0xE30, symBinAddr: 0x4E30, symSize: 0x16C }
  - { offset: 0x14A18, size: 0x8, addend: 0x0, symName: __ZNSt3__112__hash_tableINS_17__hash_value_typeINS_12basic_stringIcNS_11char_traitsIcEENS_9allocatorIcEEEENS_8functionIFNS_10shared_ptrIN8facebook5react11TurboModuleEEENS9_INSB_11CallInvokerEEEEEEEENS_22__unordered_map_hasherIS7_SI_NS_4hashIS7_EENS_8equal_toIS7_EELb1EEENS_21__unordered_map_equalIS7_SI_SN_SL_Lb1EEENS5_ISI_EEE17__deallocate_nodeEPNS_16__hash_node_baseIPNS_11__hash_nodeISI_PvEEEE, symObjAddr: 0x15C, symBinAddr: 0x415C, symSize: 0x3C }
  - { offset: 0x14E75, size: 0x8, addend: 0x0, symName: __ZNKSt3__113__string_hashIcNS_9allocatorIcEEEclB8ne200100ERKNS_12basic_stringIcNS_11char_traitsIcEES2_EE, symObjAddr: 0x510, symBinAddr: 0x4510, symSize: 0x3C }
  - { offset: 0x14F45, size: 0x8, addend: 0x0, symName: __ZNKSt3__18equal_toINS_12basic_stringIcNS_11char_traitsIcEENS_9allocatorIcEEEEEclB8ne200100ERKS6_S9_, symObjAddr: 0x9B8, symBinAddr: 0x49B8, symSize: 0x70 }
  - { offset: 0x14F90, size: 0x8, addend: 0x0, symName: __ZNKSt3__18equal_toINS_12basic_stringIcNS_11char_traitsIcEENS_9allocatorIcEEEEEclB8ne200100ERKS6_S9_, symObjAddr: 0x9B8, symBinAddr: 0x49B8, symSize: 0x70 }
  - { offset: 0x14FC1, size: 0x8, addend: 0x0, symName: __ZNKSt3__18equal_toINS_12basic_stringIcNS_11char_traitsIcEENS_9allocatorIcEEEEEclB8ne200100ERKS6_S9_, symObjAddr: 0x9B8, symBinAddr: 0x49B8, symSize: 0x70 }
  - { offset: 0x14FDD, size: 0x8, addend: 0x0, symName: __ZNKSt3__18equal_toINS_12basic_stringIcNS_11char_traitsIcEENS_9allocatorIcEEEEEclB8ne200100ERKS6_S9_, symObjAddr: 0x9B8, symBinAddr: 0x49B8, symSize: 0x70 }
  - { offset: 0x150E0, size: 0x8, addend: 0x0, symName: __ZNSt3__112__hash_tableINS_17__hash_value_typeINS_12basic_stringIcNS_11char_traitsIcEENS_9allocatorIcEEEENS_8functionIFNS_10shared_ptrIN8facebook5react11TurboModuleEEENS9_INSB_11CallInvokerEEEEEEEENS_22__unordered_map_hasherIS7_SI_NS_4hashIS7_EENS_8equal_toIS7_EELb1EEENS_21__unordered_map_equalIS7_SI_SN_SL_Lb1EEENS5_ISI_EEE21__construct_node_hashIRKNS_21piecewise_construct_tEJNS_5tupleIJRKS7_EEENSX_IJEEEEEENS_10unique_ptrINS_11__hash_nodeISI_PvEENS_22__hash_node_destructorINS5_IS15_EEEEEEmOT_DpOT0_, symObjAddr: 0x470, symBinAddr: 0x4470, symSize: 0xA0 }
  - { offset: 0x154F2, size: 0x8, addend: 0x0, symName: __ZNSt3__112__hash_tableINS_17__hash_value_typeINS_12basic_stringIcNS_11char_traitsIcEENS_9allocatorIcEEEENS_8functionIFNS_10shared_ptrIN8facebook5react11TurboModuleEEENS9_INSB_11CallInvokerEEEEEEEENS_22__unordered_map_hasherIS7_SI_NS_4hashIS7_EENS_8equal_toIS7_EELb1EEENS_21__unordered_map_equalIS7_SI_SN_SL_Lb1EEENS5_ISI_EEE8__rehashILb1EEEvm, symObjAddr: 0xB58, symBinAddr: 0x4B58, symSize: 0xDC }
  - { offset: 0x155EA, size: 0x8, addend: 0x0, symName: __ZNSt3__110unique_ptrINS_11__hash_nodeINS_17__hash_value_typeINS_12basic_stringIcNS_11char_traitsIcEENS_9allocatorIcEEEENS_8functionIFNS_10shared_ptrIN8facebook5react11TurboModuleEEENSA_INSC_11CallInvokerEEEEEEEEPvEENS_22__hash_node_destructorINS6_ISL_EEEEE5resetB8ne200100EPSL_, symObjAddr: 0xD84, symBinAddr: 0x4D84, symSize: 0x48 }
  - { offset: 0x15B29, size: 0x8, addend: 0x0, symName: __ZNSt3__112basic_stringIcNS_11char_traitsIcEENS_9allocatorIcEEE25__init_copy_ctor_externalEPKcm, symObjAddr: 0xA50, symBinAddr: 0x4A50, symSize: 0x80 }
  - { offset: 0x15CFD, size: 0x8, addend: 0x0, symName: __ZNSt3__112basic_stringIcNS_11char_traitsIcEENS_9allocatorIcEEE20__throw_length_errorB8ne200100Ev, symObjAddr: 0xAD0, symBinAddr: 0x4AD0, symSize: 0x14 }
  - { offset: 0x15D34, size: 0x8, addend: 0x0, symName: __ZNKSt3__121__murmur2_or_cityhashImLm64EEclB8ne200100EPKvm, symObjAddr: 0x54C, symBinAddr: 0x454C, symSize: 0x208 }
  - { offset: 0x163A0, size: 0x8, addend: 0x0, symName: __ZNSt3__121__murmur2_or_cityhashImLm64EE18__hash_len_0_to_16B8ne200100EPKcm, symObjAddr: 0x754, symBinAddr: 0x4754, symSize: 0xF8 }
  - { offset: 0x165AD, size: 0x8, addend: 0x0, symName: __ZNSt3__121__murmur2_or_cityhashImLm64EE19__hash_len_33_to_64B8ne200100EPKcm, symObjAddr: 0x8F8, symBinAddr: 0x48F8, symSize: 0xC0 }
  - { offset: 0x1681B, size: 0x8, addend: 0x0, symName: __ZNSt3__121__murmur2_or_cityhashImLm64EE19__hash_len_17_to_32B8ne200100EPKcm, symObjAddr: 0x84C, symBinAddr: 0x484C, symSize: 0xAC }
  - { offset: 0x16AC7, size: 0x8, addend: 0x0, symName: __ZNSt3__112basic_stringIcNS_11char_traitsIcEENS_9allocatorIcEEE20__throw_length_errorB8ne200100Ev, symObjAddr: 0xAD0, symBinAddr: 0x4AD0, symSize: 0x14 }
  - { offset: 0x16ADE, size: 0x8, addend: 0x0, symName: __ZNSt3__120__throw_length_errorB8ne200100EPKc, symObjAddr: 0xAE4, symBinAddr: 0x4AE4, symSize: 0x50 }
  - { offset: 0x16AE9, size: 0x8, addend: 0x0, symName: __ZNSt12length_errorC1B8ne200100EPKc, symObjAddr: 0xB34, symBinAddr: 0x4B34, symSize: 0x24 }
  - { offset: 0x16B71, size: 0x8, addend: 0x0, symName: __ZNSt3__112__hash_tableINS_17__hash_value_typeINS_12basic_stringIcNS_11char_traitsIcEENS_9allocatorIcEEEENS_8functionIFNS_10shared_ptrIN8facebook5react11TurboModuleEEENS9_INSB_11CallInvokerEEEEEEEENS_22__unordered_map_hasherIS7_SI_NS_4hashIS7_EENS_8equal_toIS7_EELb1EEENS_21__unordered_map_equalIS7_SI_SN_SL_Lb1EEENS5_ISI_EEE11__do_rehashILb1EEEvm, symObjAddr: 0xC34, symBinAddr: 0x4C34, symSize: 0x150 }
  - { offset: 0x16F7B, size: 0x8, addend: 0x0, symName: __ZNSt3__110unique_ptrINS_11__hash_nodeINS_17__hash_value_typeINS_12basic_stringIcNS_11char_traitsIcEENS_9allocatorIcEEEENS_8functionIFNS_10shared_ptrIN8facebook5react11TurboModuleEEENSA_INSC_11CallInvokerEEEEEEEEPvEENS_22__hash_node_destructorINS6_ISL_EEEEE5resetB8ne200100EPSL_, symObjAddr: 0xD84, symBinAddr: 0x4D84, symSize: 0x48 }
  - { offset: 0x1948D, size: 0x8, addend: 0x0, symName: __ZN8facebook5react25LongLivedObjectCollection3getERNS_3jsi7RuntimeE, symObjAddr: 0x0, symBinAddr: 0x4F9C, symSize: 0x168 }
  - { offset: 0x257D3, size: 0x8, addend: 0x0, symName: __ZN8facebook5react25LongLivedObjectCollection3getERNS_3jsi7RuntimeE, symObjAddr: 0x0, symBinAddr: 0x4F9C, symSize: 0x168 }
  - { offset: 0x257F4, size: 0x8, addend: 0x0, symName: __MergedGlobals, symObjAddr: 0x5BF30, symBinAddr: 0x1C160, symSize: 0x0 }
  - { offset: 0x2580B, size: 0x8, addend: 0x0, symName: __ZZN8facebook5react25LongLivedObjectCollection3getERNS_3jsi7RuntimeEE14instancesMutex, symObjAddr: 0x12A0, symBinAddr: 0x1C0E0, symSize: 0x0 }
  - { offset: 0x266C0, size: 0x8, addend: 0x0, symName: __ZNSt3__112__hash_tableINS_17__hash_value_typeIPvNS_10shared_ptrIN8facebook5react25LongLivedObjectCollectionEEEEENS_22__unordered_map_hasherIS2_S8_NS_4hashIS2_EENS_8equal_toIS2_EELb1EEENS_21__unordered_map_equalIS2_S8_SD_SB_Lb1EEENS_9allocatorIS8_EEE4findIS2_EENS_15__hash_iteratorIPNS_11__hash_nodeIS8_S2_EEEERKT_, symObjAddr: 0x324, symBinAddr: 0x52C0, symSize: 0xEC }
  - { offset: 0x2671A, size: 0x8, addend: 0x0, symName: __ZNSt3__112__hash_tableINS_17__hash_value_typeIPvNS_10shared_ptrIN8facebook5react25LongLivedObjectCollectionEEEEENS_22__unordered_map_hasherIS2_S8_NS_4hashIS2_EENS_8equal_toIS2_EELb1EEENS_21__unordered_map_equalIS2_S8_SD_SB_Lb1EEENS_9allocatorIS8_EEE4findIS2_EENS_15__hash_iteratorIPNS_11__hash_nodeIS8_S2_EEEERKT_, symObjAddr: 0x324, symBinAddr: 0x52C0, symSize: 0xEC }
  - { offset: 0x26736, size: 0x8, addend: 0x0, symName: __ZNSt3__112__hash_tableINS_17__hash_value_typeIPvNS_10shared_ptrIN8facebook5react25LongLivedObjectCollectionEEEEENS_22__unordered_map_hasherIS2_S8_NS_4hashIS2_EENS_8equal_toIS2_EELb1EEENS_21__unordered_map_equalIS2_S8_SD_SB_Lb1EEENS_9allocatorIS8_EEE4findIS2_EENS_15__hash_iteratorIPNS_11__hash_nodeIS8_S2_EEEERKT_, symObjAddr: 0x324, symBinAddr: 0x52C0, symSize: 0xEC }
  - { offset: 0x26850, size: 0x8, addend: 0x0, symName: __ZNSt3__112__hash_tableINS_17__hash_value_typeIPvNS_10shared_ptrIN8facebook5react25LongLivedObjectCollectionEEEEENS_22__unordered_map_hasherIS2_S8_NS_4hashIS2_EENS_8equal_toIS2_EELb1EEENS_21__unordered_map_equalIS2_S8_SD_SB_Lb1EEENS_9allocatorIS8_EEE25__emplace_unique_key_argsIS2_JRS2_S7_EEENS_4pairINS_15__hash_iteratorIPNS_11__hash_nodeIS8_S2_EEEEbEERKT_DpOT0_, symObjAddr: 0x5C0, symBinAddr: 0x54DC, symSize: 0x280 }
  - { offset: 0x2703B, size: 0x8, addend: 0x0, symName: __ZN8facebook5react25LongLivedObjectCollection3getERNS_3jsi7RuntimeE.cold.1, symObjAddr: 0x117C, symBinAddr: 0xF0E4, symSize: 0x68 }
  - { offset: 0x2710C, size: 0x8, addend: 0x0, symName: __ZN8facebook5react25LongLivedObjectCollection3getERNS_3jsi7RuntimeE.cold.2, symObjAddr: 0x11E4, symBinAddr: 0xF14C, symSize: 0x4C }
  - { offset: 0x271AE, size: 0x8, addend: 0x0, symName: __ZNSt3__113unordered_mapIPvNS_10shared_ptrIN8facebook5react25LongLivedObjectCollectionEEENS_4hashIS1_EENS_8equal_toIS1_EENS_9allocatorINS_4pairIKS1_S6_EEEEED1B8ne200100Ev, symObjAddr: 0x168, symBinAddr: 0x5104, symSize: 0x4 }
  - { offset: 0x271D9, size: 0x8, addend: 0x0, symName: __ZNSt3__113unordered_mapIPvNS_10shared_ptrIN8facebook5react25LongLivedObjectCollectionEEENS_4hashIS1_EENS_8equal_toIS1_EENS_9allocatorINS_4pairIKS1_S6_EEEEED1B8ne200100Ev, symObjAddr: 0x168, symBinAddr: 0x5104, symSize: 0x4 }
  - { offset: 0x271F5, size: 0x8, addend: 0x0, symName: __ZNSt3__113unordered_mapIPvNS_10shared_ptrIN8facebook5react25LongLivedObjectCollectionEEENS_4hashIS1_EENS_8equal_toIS1_EENS_9allocatorINS_4pairIKS1_S6_EEEEED1B8ne200100Ev, symObjAddr: 0x168, symBinAddr: 0x5104, symSize: 0x4 }
  - { offset: 0x27214, size: 0x8, addend: 0x0, symName: __ZNSt3__113unordered_mapIPvNS_10shared_ptrIN8facebook5react25LongLivedObjectCollectionEEENS_4hashIS1_EENS_8equal_toIS1_EENS_9allocatorINS_4pairIKS1_S6_EEEEED1B8ne200100Ev, symObjAddr: 0x168, symBinAddr: 0x5104, symSize: 0x4 }
  - { offset: 0x27227, size: 0x8, addend: 0x0, symName: __ZNSt3__112__hash_tableINS_17__hash_value_typeIPvNS_10shared_ptrIN8facebook5react25LongLivedObjectCollectionEEEEENS_22__unordered_map_hasherIS2_S8_NS_4hashIS2_EENS_8equal_toIS2_EELb1EEENS_21__unordered_map_equalIS2_S8_SD_SB_Lb1EEENS_9allocatorIS8_EEED2Ev, symObjAddr: 0x2B0, symBinAddr: 0x524C, symSize: 0x38 }
  - { offset: 0x273C4, size: 0x8, addend: 0x0, symName: __ZN8facebook5react25LongLivedObjectCollection3addENSt3__110shared_ptrINS0_15LongLivedObjectEEE, symObjAddr: 0x16C, symBinAddr: 0x5108, symSize: 0x50 }
  - { offset: 0x274EF, size: 0x8, addend: 0x0, symName: __ZNSt3__112__hash_tableINS_10shared_ptrIN8facebook5react15LongLivedObjectEEENS_4hashIS5_EENS_8equal_toIS5_EENS_9allocatorIS5_EEE25__emplace_unique_key_argsIS5_JS5_EEENS_4pairINS_15__hash_iteratorIPNS_11__hash_nodeIS5_PvEEEEbEERKT_DpOT0_, symObjAddr: 0xAB4, symBinAddr: 0x57A4, symSize: 0x26C }
  - { offset: 0x27CE4, size: 0x8, addend: 0x0, symName: __ZN8facebook5react25LongLivedObjectCollection6removeEPKNS0_15LongLivedObjectE, symObjAddr: 0x1BC, symBinAddr: 0x5158, symSize: 0x60 }
  - { offset: 0x27E55, size: 0x8, addend: 0x0, symName: __ZNSt3__112__hash_tableINS_10shared_ptrIN8facebook5react15LongLivedObjectEEENS_4hashIS5_EENS_8equal_toIS5_EENS_9allocatorIS5_EEE5eraseENS_21__hash_const_iteratorIPNS_11__hash_nodeIS5_PvEEEE, symObjAddr: 0xF94, symBinAddr: 0x5A58, symSize: 0x58 }
  - { offset: 0x2809C, size: 0x8, addend: 0x0, symName: __ZN8facebook5react25LongLivedObjectCollection5clearEv, symObjAddr: 0x21C, symBinAddr: 0x51B8, symSize: 0x30 }
  - { offset: 0x28156, size: 0x8, addend: 0x0, symName: __ZNSt3__112__hash_tableINS_10shared_ptrIN8facebook5react15LongLivedObjectEEENS_4hashIS5_EENS_8equal_toIS5_EENS_9allocatorIS5_EEE5clearEv, symObjAddr: 0x1128, symBinAddr: 0x5BEC, symSize: 0x54 }
  - { offset: 0x28264, size: 0x8, addend: 0x0, symName: __ZNK8facebook5react25LongLivedObjectCollection4sizeEv, symObjAddr: 0x24C, symBinAddr: 0x51E8, symSize: 0x34 }
  - { offset: 0x28327, size: 0x8, addend: 0x0, symName: __ZN8facebook5react15LongLivedObject12allowReleaseEv, symObjAddr: 0x280, symBinAddr: 0x521C, symSize: 0x28 }
  - { offset: 0x2836B, size: 0x8, addend: 0x0, symName: __ZN8facebook5react15LongLivedObjectD1Ev, symObjAddr: 0x2A8, symBinAddr: 0x5244, symSize: 0x4 }
  - { offset: 0x28394, size: 0x8, addend: 0x0, symName: __ZN8facebook5react15LongLivedObjectD0Ev, symObjAddr: 0x2AC, symBinAddr: 0x5248, symSize: 0x4 }
  - { offset: 0x284AE, size: 0x8, addend: 0x0, symName: __ZNSt3__112__hash_tableINS_17__hash_value_typeIPvNS_10shared_ptrIN8facebook5react25LongLivedObjectCollectionEEEEENS_22__unordered_map_hasherIS2_S8_NS_4hashIS2_EENS_8equal_toIS2_EELb1EEENS_21__unordered_map_equalIS2_S8_SD_SB_Lb1EEENS_9allocatorIS8_EEE17__deallocate_nodeEPNS_16__hash_node_baseIPNS_11__hash_nodeIS8_S2_EEEE, symObjAddr: 0x2E8, symBinAddr: 0x5284, symSize: 0x3C }
  - { offset: 0x2882C, size: 0x8, addend: 0x0, symName: __ZNSt3__120__shared_ptr_emplaceIN8facebook5react25LongLivedObjectCollectionENS_9allocatorIS3_EEED1Ev, symObjAddr: 0x438, symBinAddr: 0x53AC, symSize: 0x14 }
  - { offset: 0x2884E, size: 0x8, addend: 0x0, symName: __ZNSt3__120__shared_ptr_emplaceIN8facebook5react25LongLivedObjectCollectionENS_9allocatorIS3_EEED1Ev, symObjAddr: 0x438, symBinAddr: 0x53AC, symSize: 0x14 }
  - { offset: 0x28884, size: 0x8, addend: 0x0, symName: __ZNSt3__120__shared_ptr_emplaceIN8facebook5react25LongLivedObjectCollectionENS_9allocatorIS3_EEED0Ev, symObjAddr: 0x44C, symBinAddr: 0x53C0, symSize: 0x24 }
  - { offset: 0x289ED, size: 0x8, addend: 0x0, symName: __ZNSt3__120__shared_ptr_emplaceIN8facebook5react25LongLivedObjectCollectionENS_9allocatorIS3_EEE16__on_zero_sharedEv, symObjAddr: 0x470, symBinAddr: 0x53E4, symSize: 0x28 }
  - { offset: 0x28AD2, size: 0x8, addend: 0x0, symName: __ZNSt3__112__hash_tableINS_10shared_ptrIN8facebook5react15LongLivedObjectEEENS_4hashIS5_EENS_8equal_toIS5_EENS_9allocatorIS5_EEED2Ev, symObjAddr: 0x49C, symBinAddr: 0x5410, symSize: 0x38 }
  - { offset: 0x28C89, size: 0x8, addend: 0x0, symName: __ZNSt3__120__shared_ptr_emplaceIN8facebook5react25LongLivedObjectCollectionENS_9allocatorIS3_EEE21__on_zero_shared_weakEv, symObjAddr: 0x498, symBinAddr: 0x540C, symSize: 0x4 }
  - { offset: 0x28CBB, size: 0x8, addend: 0x0, symName: __ZNSt3__120__shared_ptr_emplaceIN8facebook5react25LongLivedObjectCollectionENS_9allocatorIS3_EEE21__on_zero_shared_weakEv, symObjAddr: 0x498, symBinAddr: 0x540C, symSize: 0x4 }
  - { offset: 0x28CDC, size: 0x8, addend: 0x0, symName: __ZNSt3__120__shared_ptr_emplaceIN8facebook5react25LongLivedObjectCollectionENS_9allocatorIS3_EEE21__on_zero_shared_weakEv, symObjAddr: 0x498, symBinAddr: 0x540C, symSize: 0x4 }
  - { offset: 0x28CFE, size: 0x8, addend: 0x0, symName: __ZNSt3__120__shared_ptr_emplaceIN8facebook5react25LongLivedObjectCollectionENS_9allocatorIS3_EEE21__on_zero_shared_weakEv, symObjAddr: 0x498, symBinAddr: 0x540C, symSize: 0x4 }
  - { offset: 0x28D32, size: 0x8, addend: 0x0, symName: __ZNSt3__120__shared_ptr_emplaceIN8facebook5react25LongLivedObjectCollectionENS_9allocatorIS3_EEE21__on_zero_shared_weakEv, symObjAddr: 0x498, symBinAddr: 0x540C, symSize: 0x4 }
  - { offset: 0x28E4B, size: 0x8, addend: 0x0, symName: __ZNSt3__112__hash_tableINS_10shared_ptrIN8facebook5react15LongLivedObjectEEENS_4hashIS5_EENS_8equal_toIS5_EENS_9allocatorIS5_EEE17__deallocate_nodeEPNS_16__hash_node_baseIPNS_11__hash_nodeIS5_PvEEEE, symObjAddr: 0x4D4, symBinAddr: 0x5448, symSize: 0x3C }
  - { offset: 0x2906B, size: 0x8, addend: 0x0, symName: __ZNSt3__110shared_ptrIN8facebook5react15LongLivedObjectEED2B8ne200100Ev, symObjAddr: 0x510, symBinAddr: 0x5484, symSize: 0x58 }
  - { offset: 0x296F0, size: 0x8, addend: 0x0, symName: __ZNSt3__110unique_ptrINS_11__hash_nodeINS_17__hash_value_typeIPvNS_10shared_ptrIN8facebook5react25LongLivedObjectCollectionEEEEES3_EENS_22__hash_node_destructorINS_9allocatorISA_EEEEE5resetB8ne200100EPSA_, symObjAddr: 0xA6C, symBinAddr: 0x575C, symSize: 0x48 }
  - { offset: 0x29B20, size: 0x8, addend: 0x0, symName: __ZNSt3__110unique_ptrINS_11__hash_nodeINS_17__hash_value_typeIPvNS_10shared_ptrIN8facebook5react25LongLivedObjectCollectionEEEEES3_EENS_22__hash_node_destructorINS_9allocatorISA_EEEEE5resetB8ne200100EPSA_, symObjAddr: 0xA6C, symBinAddr: 0x575C, symSize: 0x48 }
  - { offset: 0x2A084, size: 0x8, addend: 0x0, symName: __ZNSt3__110unique_ptrINS_11__hash_nodeINS_10shared_ptrIN8facebook5react15LongLivedObjectEEEPvEENS_22__hash_node_destructorINS_9allocatorIS8_EEEEE5resetB8ne200100EPS8_, symObjAddr: 0xF4C, symBinAddr: 0x5A10, symSize: 0x48 }
  - { offset: 0x2A46F, size: 0x8, addend: 0x0, symName: __ZNSt3__110unique_ptrINS_11__hash_nodeINS_10shared_ptrIN8facebook5react15LongLivedObjectEEEPvEENS_22__hash_node_destructorINS_9allocatorIS8_EEEEE5resetB8ne200100EPS8_, symObjAddr: 0xF4C, symBinAddr: 0x5A10, symSize: 0x48 }
  - { offset: 0x2A58A, size: 0x8, addend: 0x0, symName: __ZNSt3__112__hash_tableINS_10shared_ptrIN8facebook5react15LongLivedObjectEEENS_4hashIS5_EENS_8equal_toIS5_EENS_9allocatorIS5_EEE6removeENS_21__hash_const_iteratorIPNS_11__hash_nodeIS5_PvEEEE, symObjAddr: 0xFEC, symBinAddr: 0x5AB0, symSize: 0x13C }
  - { offset: 0x2A604, size: 0x8, addend: 0x0, symName: __ZNSt3__112__hash_tableINS_10shared_ptrIN8facebook5react15LongLivedObjectEEENS_4hashIS5_EENS_8equal_toIS5_EENS_9allocatorIS5_EEE6removeENS_21__hash_const_iteratorIPNS_11__hash_nodeIS5_PvEEEE, symObjAddr: 0xFEC, symBinAddr: 0x5AB0, symSize: 0x13C }
  - { offset: 0x2A620, size: 0x8, addend: 0x0, symName: __ZNSt3__112__hash_tableINS_10shared_ptrIN8facebook5react15LongLivedObjectEEENS_4hashIS5_EENS_8equal_toIS5_EENS_9allocatorIS5_EEE6removeENS_21__hash_const_iteratorIPNS_11__hash_nodeIS5_PvEEEE, symObjAddr: 0xFEC, symBinAddr: 0x5AB0, symSize: 0x13C }
  - { offset: 0x440EB, size: 0x8, addend: 0x0, symName: __ZNSt3__124__put_character_sequenceB8ne200100IcNS_11char_traitsIcEEEERNS_13basic_ostreamIT_T0_EES7_PKS4_m, symObjAddr: 0x3C7C, symBinAddr: 0x8E64, symSize: 0x168 }
  - { offset: 0x453DD, size: 0x8, addend: 0x0, symName: __ZNSt3__119__allocate_at_leastB8ne200100INS_9allocatorIN8facebook3jsi10PropNameIDEEEEENS_19__allocation_resultINS_16allocator_traitsIT_E7pointerEEERS8_m, symObjAddr: 0x3040, symBinAddr: 0x8450, symSize: 0x34 }
  - { offset: 0x45483, size: 0x8, addend: 0x0, symName: __ZNSt3__114__split_bufferIN8facebook3jsi10PropNameIDERNS_9allocatorIS3_EEED2Ev, symObjAddr: 0x3074, symBinAddr: 0x8484, symSize: 0x58 }
  - { offset: 0x45CCB, size: 0x8, addend: 0x0, symName: __ZNSt3__1plB8ne200100IcNS_11char_traitsIcEENS_9allocatorIcEEEENS_12basic_stringIT_T0_T1_EEOS9_PKS6_, symObjAddr: 0x1A98, symBinAddr: 0x76D8, symSize: 0x5C }
  - { offset: 0x45DE4, size: 0x8, addend: 0x0, symName: __ZNSt3__125__throw_bad_function_callB8ne200100Ev, symObjAddr: 0x4FBC, symBinAddr: 0xA138, symSize: 0x34 }
  - { offset: 0x45E4D, size: 0x8, addend: 0x0, symName: __ZNSt3__1plB8ne200100IcNS_11char_traitsIcEENS_9allocatorIcEEEENS_12basic_stringIT_T0_T1_EEPKS6_OS9_, symObjAddr: 0x1AF4, symBinAddr: 0x7734, symSize: 0x5C }
  - { offset: 0x46B31, size: 0x8, addend: 0x0, symName: __ZNSt3__112__destroy_atB8ne200100INS_4pairIKNS_12basic_stringIcNS_11char_traitsIcEENS_9allocatorIcEEEENS_10shared_ptrIN8facebook5react18IAsyncEventEmitterEEEEELi0EEEvPT_, symObjAddr: 0x24A4, symBinAddr: 0x804C, symSize: 0x3C }
  - { offset: 0x475B4, size: 0x8, addend: 0x0, symName: __ZNSt3__119__allocate_at_leastB8ne200100INS_9allocatorIN5folly7dynamicEEEEENS_19__allocation_resultINS_16allocator_traitsIT_E7pointerEEERS7_m, symObjAddr: 0x3508, symBinAddr: 0x87A0, symSize: 0x44 }
  - { offset: 0x4765A, size: 0x8, addend: 0x0, symName: __ZNSt3__134__uninitialized_allocator_relocateB8ne200100INS_9allocatorIN5folly7dynamicEEEPS3_EEvRT_T0_S8_S8_, symObjAddr: 0x354C, symBinAddr: 0x87E4, symSize: 0x68 }
  - { offset: 0x4766E, size: 0x8, addend: 0x0, symName: __ZNSt3__134__uninitialized_allocator_relocateB8ne200100INS_9allocatorIN5folly7dynamicEEEPS3_EEvRT_T0_S8_S8_, symObjAddr: 0x354C, symBinAddr: 0x87E4, symSize: 0x68 }
  - { offset: 0x476CD, size: 0x8, addend: 0x0, symName: __ZNSt3__134__uninitialized_allocator_relocateB8ne200100INS_9allocatorIN5folly7dynamicEEEPS3_EEvRT_T0_S8_S8_, symObjAddr: 0x354C, symBinAddr: 0x87E4, symSize: 0x68 }
  - { offset: 0x4840A, size: 0x8, addend: 0x0, symName: __ZNSt3__1lsB8ne200100INS_11char_traitsIcEEEERNS_13basic_ostreamIcT_EES6_PKc, symObjAddr: 0x3C04, symBinAddr: 0x8DEC, symSize: 0x34 }
  - { offset: 0x4896D, size: 0x8, addend: 0x0, symName: __ZNSt3__116__pad_and_outputB8ne200100IcNS_11char_traitsIcEEEENS_19ostreambuf_iteratorIT_T0_EES6_PKS4_S8_S8_RNS_8ios_baseES4_, symObjAddr: 0x3DE4, symBinAddr: 0x8FCC, symSize: 0x13C }
  - { offset: 0x48FE6, size: 0x8, addend: 0x0, symName: __ZNSt3__135__uninitialized_allocator_copy_implB8ne200100INS_9allocatorIN5folly7dynamicEEEPS3_S5_S5_EET2_RT_T0_T1_S6_, symObjAddr: 0x4088, symBinAddr: 0x9270, symSize: 0x84 }
  - { offset: 0x495C9, size: 0x8, addend: 0x0, symName: __ZNSt3__119__allocate_at_leastB8ne200100INS_9allocatorIN8facebook3jsi5ValueEEEEENS_19__allocation_resultINS_16allocator_traitsIT_E7pointerEEERS8_m, symObjAddr: 0x4698, symBinAddr: 0x986C, symSize: 0x34 }
  - { offset: 0x4966F, size: 0x8, addend: 0x0, symName: __ZNSt3__134__uninitialized_allocator_relocateB8ne200100INS_9allocatorIN8facebook3jsi5ValueEEEPS4_EEvRT_T0_S9_S9_, symObjAddr: 0x46CC, symBinAddr: 0x98A0, symSize: 0x68 }
  - { offset: 0x49683, size: 0x8, addend: 0x0, symName: __ZNSt3__134__uninitialized_allocator_relocateB8ne200100INS_9allocatorIN8facebook3jsi5ValueEEEPS4_EEvRT_T0_S9_S9_, symObjAddr: 0x46CC, symBinAddr: 0x98A0, symSize: 0x68 }
  - { offset: 0x496E2, size: 0x8, addend: 0x0, symName: __ZNSt3__134__uninitialized_allocator_relocateB8ne200100INS_9allocatorIN8facebook3jsi5ValueEEEPS4_EEvRT_T0_S9_S9_, symObjAddr: 0x46CC, symBinAddr: 0x98A0, symSize: 0x68 }
  - { offset: 0x49A7C, size: 0x8, addend: 0x0, symName: __ZNSt3__112__destroy_atB8ne200100IN8facebook5xplat6module9CxxModule6MethodELi0EEEvPT_, symObjAddr: 0x4968, symBinAddr: 0x9B3C, symSize: 0x8C }
  - { offset: 0x4A049, size: 0x8, addend: 0x0, symName: __ZNSt3__112__destroy_atB8ne200100INS_4pairIKNS_12basic_stringIcNS_11char_traitsIcEENS_9allocatorIcEEEEN5folly7dynamicEEELi0EEEvPT_, symObjAddr: 0x4DB0, symBinAddr: 0x9F2C, symSize: 0x3C }
  - { offset: 0x4DDEB, size: 0x8, addend: 0x0, symName: __ZN8facebook5react12_GLOBAL__N_126makeTurboCxxModuleCallbackERNS_3jsi7RuntimeENSt3__18weak_ptrINS0_15CallbackWrapperEEE, symObjAddr: 0x1CB4, symBinAddr: 0x78F4, symSize: 0x78 }
  - { offset: 0x51042, size: 0x8, addend: 0x0, symName: __ZN5folly6detail16throw_exception_INS_9TypeErrorEJPKcNS_7dynamic4TypeEEEEvDpT0_, symObjAddr: 0x32F4, symBinAddr: 0xF198, symSize: 0x68 }
  - { offset: 0x520B3, size: 0x8, addend: 0x0, symName: __ZN5folly15throw_exceptionINS_9TypeErrorEEEvOT_, symObjAddr: 0x335C, symBinAddr: 0xF200, symSize: 0x34 }
  - { offset: 0x537A5, size: 0x8, addend: 0x0, symName: __ZN8facebook5react11TurboModule6createERNS_3jsi7RuntimeERKNS2_10PropNameIDE, symObjAddr: 0x2198, symBinAddr: 0x7D50, symSize: 0x240 }
  - { offset: 0x54C5F, size: 0x8, addend: 0x0, symName: __ZN8facebook5react14TurboCxxModule6createERNS_3jsi7RuntimeERKNS2_10PropNameIDE, symObjAddr: 0x174, symBinAddr: 0x5DB4, symSize: 0x424 }
  - { offset: 0x56186, size: 0x8, addend: 0x0, symName: __ZN8facebook5react14TurboCxxModule12invokeMethodERNS_3jsi7RuntimeERKNSt3__112basic_stringIcNS5_11char_traitsIcEENS5_9allocatorIcEEEEPKNS2_5ValueEm, symObjAddr: 0x8C0, symBinAddr: 0x6500, symSize: 0x1150 }
  - { offset: 0x5ACC9, size: 0x8, addend: 0x0, symName: __ZN8facebook5react14TurboCxxModuleC2ENSt3__110unique_ptrINS_5xplat6module9CxxModuleENS2_14default_deleteIS6_EEEENS2_10shared_ptrINS0_11CallInvokerEEE, symObjAddr: 0x0, symBinAddr: 0x5C40, symSize: 0x110 }
  - { offset: 0x5B112, size: 0x8, addend: 0x0, symName: __ZN8facebook5react11TurboModuleD2Ev, symObjAddr: 0x110, symBinAddr: 0x5D50, symSize: 0x60 }
  - { offset: 0x5B491, size: 0x8, addend: 0x0, symName: __ZNSt3__110unique_ptrIN8facebook3jsi10WeakObjectENS_14default_deleteIS3_EEE5resetB8ne200100EPS3_, symObjAddr: 0x23D8, symBinAddr: 0x7F90, symSize: 0x48 }
  - { offset: 0x5B55A, size: 0x8, addend: 0x0, symName: __ZNSt3__112__hash_tableINS_17__hash_value_typeINS_12basic_stringIcNS_11char_traitsIcEENS_9allocatorIcEEEENS_10shared_ptrIN8facebook5react18IAsyncEventEmitterEEEEENS_22__unordered_map_hasherIS7_SD_NS_4hashIS7_EENS_8equal_toIS7_EELb1EEENS_21__unordered_map_equalIS7_SD_SI_SG_Lb1EEENS5_ISD_EEED2Ev, symObjAddr: 0x2420, symBinAddr: 0x7FD8, symSize: 0x38 }
  - { offset: 0x5B6B3, size: 0x8, addend: 0x0, symName: __ZNSt3__112__hash_tableINS_17__hash_value_typeINS_12basic_stringIcNS_11char_traitsIcEENS_9allocatorIcEEEEN8facebook5react11TurboModule14MethodMetadataEEENS_22__unordered_map_hasherIS7_SC_NS_4hashIS7_EENS_8equal_toIS7_EELb1EEENS_21__unordered_map_equalIS7_SC_SH_SF_Lb1EEENS5_ISC_EEED2Ev, symObjAddr: 0x2538, symBinAddr: 0x8088, symSize: 0x38 }
  - { offset: 0x5B80C, size: 0x8, addend: 0x0, symName: __ZN8facebook5react14TurboCxxModuleC1ENSt3__110unique_ptrINS_5xplat6module9CxxModuleENS2_14default_deleteIS6_EEEENS2_10shared_ptrINS0_11CallInvokerEEE, symObjAddr: 0x170, symBinAddr: 0x5DB0, symSize: 0x4 }
  - { offset: 0x5B858, size: 0x8, addend: 0x0, symName: __ZN8facebook5react14TurboCxxModuleC1ENSt3__110unique_ptrINS_5xplat6module9CxxModuleENS2_14default_deleteIS6_EEEENS2_10shared_ptrINS0_11CallInvokerEEE, symObjAddr: 0x170, symBinAddr: 0x5DB0, symSize: 0x4 }
  - { offset: 0x5C1A5, size: 0x8, addend: 0x0, symName: __ZNSt3__110__function12__value_funcIFN8facebook3jsi5ValueERNS3_7RuntimeERKS4_PS7_mEEC2B8ne200100EOSB_, symObjAddr: 0x2E04, symBinAddr: 0x831C, symSize: 0x64 }
  - { offset: 0x5C4DD, size: 0x8, addend: 0x0, symName: __ZN8facebook5react14TurboCxxModule16getPropertyNamesERNS_3jsi7RuntimeE, symObjAddr: 0x598, symBinAddr: 0x61D8, symSize: 0x1AC }
  - { offset: 0x5CBC6, size: 0x8, addend: 0x0, symName: __ZNSt3__16vectorIN8facebook3jsi10PropNameIDENS_9allocatorIS3_EEE7reserveEm, symObjAddr: 0x744, symBinAddr: 0x6384, symSize: 0x8C }
  - { offset: 0x5CD5B, size: 0x8, addend: 0x0, symName: __ZNSt3__112basic_stringIcNS_11char_traitsIcEENS_9allocatorIcEEEC2B8ne200100ILi0EEEPKc, symObjAddr: 0x30CC, symBinAddr: 0x84DC, symSize: 0xA4 }
  - { offset: 0x5CFB6, size: 0x8, addend: 0x0, symName: __ZNSt3__16vectorIN8facebook3jsi10PropNameIDENS_9allocatorIS3_EEE16__destroy_vectorclB8ne200100Ev, symObjAddr: 0x3170, symBinAddr: 0x8580, symSize: 0x78 }
  - { offset: 0x5CFC7, size: 0x8, addend: 0x0, symName: __ZNSt3__16vectorIN8facebook3jsi10PropNameIDENS_9allocatorIS3_EEE9push_backB8ne200100EOS3_, symObjAddr: 0x7D0, symBinAddr: 0x6410, symSize: 0xF0 }
  - { offset: 0x5D360, size: 0x8, addend: 0x0, symName: __ZNSt3__16vectorIN8facebook3jsi10PropNameIDENS_9allocatorIS3_EEE16__destroy_vectorclB8ne200100Ev, symObjAddr: 0x3170, symBinAddr: 0x8580, symSize: 0x78 }
  - { offset: 0x5D5E7, size: 0x8, addend: 0x0, symName: __ZNSt3__16vectorIN8facebook3jsi10PropNameIDENS_9allocatorIS3_EEE26__swap_out_circular_bufferERNS_14__split_bufferIS3_RS5_EE, symObjAddr: 0x2F84, symBinAddr: 0x8394, symSize: 0xBC }
  - { offset: 0x5D8CB, size: 0x8, addend: 0x0, symName: __ZNSt3__114__split_bufferIN8facebook3jsi10PropNameIDERNS_9allocatorIS3_EEED2Ev, symObjAddr: 0x3074, symBinAddr: 0x8484, symSize: 0x58 }
  - { offset: 0x5DA4E, size: 0x8, addend: 0x0, symName: __ZNSt3__16vectorIN8facebook3jsi10PropNameIDENS_9allocatorIS3_EEE20__throw_length_errorB8ne200100Ev, symObjAddr: 0x2F70, symBinAddr: 0x8380, symSize: 0x14 }
  - { offset: 0x5DA65, size: 0x8, addend: 0x0, symName: __ZNSt3__16vectorIN8facebook3jsi10PropNameIDENS_9allocatorIS3_EEE26__swap_out_circular_bufferERNS_14__split_bufferIS3_RS5_EE, symObjAddr: 0x2F84, symBinAddr: 0x8394, symSize: 0xBC }
  - { offset: 0x5ED5A, size: 0x8, addend: 0x0, symName: __ZNSt3__16vectorIN5folly7dynamicENS_9allocatorIS2_EEE16__destroy_vectorclB8ne200100Ev, symObjAddr: 0x410C, symBinAddr: 0x92F4, symSize: 0x70 }
  - { offset: 0x5EED9, size: 0x8, addend: 0x0, symName: __ZNSt3__16vectorIN5folly7dynamicENS_9allocatorIS2_EEE9push_backB8ne200100EOS2_, symObjAddr: 0x32B0, symBinAddr: 0x85F8, symSize: 0x44 }
  - { offset: 0x5EFF7, size: 0x8, addend: 0x0, symName: __ZN8facebook5react15CallbackWrapper10createWeakEONS_3jsi8FunctionERNS2_7RuntimeENSt3__110shared_ptrINS0_11CallInvokerEEE, symObjAddr: 0x1B50, symBinAddr: 0x7790, symSize: 0x164 }
  - { offset: 0x5F53B, size: 0x8, addend: 0x0, symName: __ZNSt3__110__function12__value_funcIFvNS_6vectorIN5folly7dynamicENS_9allocatorIS4_EEEEEEaSB8ne200100EOS9_, symObjAddr: 0x5008, symBinAddr: 0xA184, symSize: 0x8C }
  - { offset: 0x5F5BE, size: 0x8, addend: 0x0, symName: __ZNSt3__110__function12__value_funcIFvN5folly7dynamicENS_8functionIFvNS_6vectorIS3_NS_9allocatorIS3_EEEEEEESA_EEC2B8ne200100EOSC_, symObjAddr: 0x5A00, symBinAddr: 0xAB7C, symSize: 0x64 }
  - { offset: 0x5F60D, size: 0x8, addend: 0x0, symName: __ZNSt3__110__function12__value_funcIFN5folly7dynamicES3_EEC2B8ne200100EOS5_, symObjAddr: 0x5A64, symBinAddr: 0xABE0, symSize: 0x64 }
  - { offset: 0x5F7D6, size: 0x8, addend: 0x0, symName: __ZN8facebook5xplat6module9CxxModule6MethodD1Ev, symObjAddr: 0x1A10, symBinAddr: 0x7650, symSize: 0x88 }
  - { offset: 0x5FCE4, size: 0x8, addend: 0x0, symName: __ZNSt3__110shared_ptrIN8facebook5react15CallbackWrapperEEC2B8ne200100IS3_Li0EEEPT_, symObjAddr: 0x3690, symBinAddr: 0x8928, symSize: 0x68 }
  - { offset: 0x60374, size: 0x8, addend: 0x0, symName: __ZN8facebook5react14TurboCxxModuleD1Ev, symObjAddr: 0x1DB4, symBinAddr: 0x796C, symSize: 0xA4 }
  - { offset: 0x60725, size: 0x8, addend: 0x0, symName: __ZNSt3__16vectorIN8facebook5xplat6module9CxxModule6MethodENS_9allocatorIS5_EEE16__destroy_vectorclB8ne200100Ev, symObjAddr: 0x48F8, symBinAddr: 0x9ACC, symSize: 0x70 }
  - { offset: 0x6087E, size: 0x8, addend: 0x0, symName: __ZN8facebook5react14TurboCxxModuleD0Ev, symObjAddr: 0x1E58, symBinAddr: 0x7A10, symSize: 0xA8 }
  - { offset: 0x60CBA, size: 0x8, addend: 0x0, symName: __ZN8facebook5react11TurboModule3getERNS_3jsi7RuntimeERKNS2_10PropNameIDE, symObjAddr: 0x1F00, symBinAddr: 0x7AB8, symSize: 0xF0 }
  - { offset: 0x60E86, size: 0x8, addend: 0x0, symName: __ZNK8facebook3jsi6Object11setPropertyIRNS0_5ValueEEEvRNS0_7RuntimeERKNS0_10PropNameIDEOT_, symObjAddr: 0x49F4, symBinAddr: 0x9BC8, symSize: 0x78 }
  - { offset: 0x60F5C, size: 0x8, addend: 0x0, symName: __ZN8facebook5react11TurboModuleD1Ev, symObjAddr: 0x1FF0, symBinAddr: 0x7BA8, symSize: 0x60 }
  - { offset: 0x611CF, size: 0x8, addend: 0x0, symName: __ZN8facebook5react11TurboModuleD0Ev, symObjAddr: 0x2050, symBinAddr: 0x7C08, symSize: 0x64 }
  - { offset: 0x61483, size: 0x8, addend: 0x0, symName: __ZN8facebook5react11TurboModule16getPropertyNamesERNS_3jsi7RuntimeE, symObjAddr: 0x20B4, symBinAddr: 0x7C6C, symSize: 0xE4 }
  - { offset: 0x61ABF, size: 0x8, addend: 0x0, symName: __ZNSt3__112__hash_tableINS_17__hash_value_typeINS_12basic_stringIcNS_11char_traitsIcEENS_9allocatorIcEEEEN8facebook5react11TurboModule14MethodMetadataEEENS_22__unordered_map_hasherIS7_SC_NS_4hashIS7_EENS_8equal_toIS7_EELb1EEENS_21__unordered_map_equalIS7_SC_SH_SF_Lb1EEENS5_ISC_EEE4findIS7_EENS_15__hash_iteratorIPNS_11__hash_nodeISC_PvEEEERKT_, symObjAddr: 0x25B4, symBinAddr: 0x8104, symSize: 0xF8 }
  - { offset: 0x61F4A, size: 0x8, addend: 0x0, symName: __ZNSt3__112__hash_tableINS_17__hash_value_typeINS_12basic_stringIcNS_11char_traitsIcEENS_9allocatorIcEEEENS_10shared_ptrIN8facebook5react18IAsyncEventEmitterEEEEENS_22__unordered_map_hasherIS7_SD_NS_4hashIS7_EENS_8equal_toIS7_EELb1EEENS_21__unordered_map_equalIS7_SD_SI_SG_Lb1EEENS5_ISD_EEE17__deallocate_nodeEPNS_16__hash_node_baseIPNS_11__hash_nodeISD_PvEEEE, symObjAddr: 0x2458, symBinAddr: 0x8010, symSize: 0x3C }
  - { offset: 0x622C2, size: 0x8, addend: 0x0, symName: __ZNSt3__112__hash_tableINS_17__hash_value_typeINS_12basic_stringIcNS_11char_traitsIcEENS_9allocatorIcEEEEN8facebook5react11TurboModule14MethodMetadataEEENS_22__unordered_map_hasherIS7_SC_NS_4hashIS7_EENS_8equal_toIS7_EELb1EEENS_21__unordered_map_equalIS7_SC_SH_SF_Lb1EEENS5_ISC_EEE17__deallocate_nodeEPNS_16__hash_node_baseIPNS_11__hash_nodeISC_PvEEEE, symObjAddr: 0x2570, symBinAddr: 0x80C0, symSize: 0x44 }
  - { offset: 0x630C6, size: 0x8, addend: 0x0, symName: __ZNSt3__110__function6__funcIZN8facebook5react11TurboModule6createERNS2_3jsi7RuntimeERKNS5_10PropNameIDEEUlS7_RKNS5_5ValueEPSC_mE_NS_9allocatorISF_EEFSB_S7_SD_SE_mEED1Ev, symObjAddr: 0x2BEC, symBinAddr: 0x81FC, symSize: 0x4 }
  - { offset: 0x630F2, size: 0x8, addend: 0x0, symName: __ZNSt3__110__function6__funcIZN8facebook5react11TurboModule6createERNS2_3jsi7RuntimeERKNS5_10PropNameIDEEUlS7_RKNS5_5ValueEPSC_mE_NS_9allocatorISF_EEFSB_S7_SD_SE_mEED0Ev, symObjAddr: 0x2BF0, symBinAddr: 0x8200, symSize: 0x4 }
  - { offset: 0x631E2, size: 0x8, addend: 0x0, symName: __ZNKSt3__110__function6__funcIZN8facebook5react11TurboModule6createERNS2_3jsi7RuntimeERKNS5_10PropNameIDEEUlS7_RKNS5_5ValueEPSC_mE_NS_9allocatorISF_EEFSB_S7_SD_SE_mEE7__cloneEv, symObjAddr: 0x2BF4, symBinAddr: 0x8204, symSize: 0x40 }
  - { offset: 0x633F0, size: 0x8, addend: 0x0, symName: __ZNKSt3__110__function6__funcIZN8facebook5react11TurboModule6createERNS2_3jsi7RuntimeERKNS5_10PropNameIDEEUlS7_RKNS5_5ValueEPSC_mE_NS_9allocatorISF_EEFSB_S7_SD_SE_mEE7__cloneEPNS0_6__baseISI_EE, symObjAddr: 0x2C34, symBinAddr: 0x8244, symSize: 0x20 }
  - { offset: 0x63426, size: 0x8, addend: 0x0, symName: __ZNKSt3__110__function6__funcIZN8facebook5react11TurboModule6createERNS2_3jsi7RuntimeERKNS5_10PropNameIDEEUlS7_RKNS5_5ValueEPSC_mE_NS_9allocatorISF_EEFSB_S7_SD_SE_mEE7__cloneEPNS0_6__baseISI_EE, symObjAddr: 0x2C34, symBinAddr: 0x8244, symSize: 0x20 }
  - { offset: 0x63454, size: 0x8, addend: 0x0, symName: __ZNKSt3__110__function6__funcIZN8facebook5react11TurboModule6createERNS2_3jsi7RuntimeERKNS5_10PropNameIDEEUlS7_RKNS5_5ValueEPSC_mE_NS_9allocatorISF_EEFSB_S7_SD_SE_mEE7__cloneEPNS0_6__baseISI_EE, symObjAddr: 0x2C34, symBinAddr: 0x8244, symSize: 0x20 }
  - { offset: 0x634E3, size: 0x8, addend: 0x0, symName: __ZNSt3__110__function6__funcIZN8facebook5react11TurboModule6createERNS2_3jsi7RuntimeERKNS5_10PropNameIDEEUlS7_RKNS5_5ValueEPSC_mE_NS_9allocatorISF_EEFSB_S7_SD_SE_mEE7destroyEv, symObjAddr: 0x2C54, symBinAddr: 0x8264, symSize: 0x4 }
  - { offset: 0x6353A, size: 0x8, addend: 0x0, symName: __ZNSt3__110__function6__funcIZN8facebook5react11TurboModule6createERNS2_3jsi7RuntimeERKNS5_10PropNameIDEEUlS7_RKNS5_5ValueEPSC_mE_NS_9allocatorISF_EEFSB_S7_SD_SE_mEE18destroy_deallocateEv, symObjAddr: 0x2C58, symBinAddr: 0x8268, symSize: 0x4 }
  - { offset: 0x6356D, size: 0x8, addend: 0x0, symName: __ZNSt3__110__function6__funcIZN8facebook5react11TurboModule6createERNS2_3jsi7RuntimeERKNS5_10PropNameIDEEUlS7_RKNS5_5ValueEPSC_mE_NS_9allocatorISF_EEFSB_S7_SD_SE_mEE18destroy_deallocateEv, symObjAddr: 0x2C58, symBinAddr: 0x8268, symSize: 0x4 }
  - { offset: 0x6358F, size: 0x8, addend: 0x0, symName: __ZNSt3__110__function6__funcIZN8facebook5react11TurboModule6createERNS2_3jsi7RuntimeERKNS5_10PropNameIDEEUlS7_RKNS5_5ValueEPSC_mE_NS_9allocatorISF_EEFSB_S7_SD_SE_mEE18destroy_deallocateEv, symObjAddr: 0x2C58, symBinAddr: 0x8268, symSize: 0x4 }
  - { offset: 0x635C2, size: 0x8, addend: 0x0, symName: __ZNSt3__110__function6__funcIZN8facebook5react11TurboModule6createERNS2_3jsi7RuntimeERKNS5_10PropNameIDEEUlS7_RKNS5_5ValueEPSC_mE_NS_9allocatorISF_EEFSB_S7_SD_SE_mEE18destroy_deallocateEv, symObjAddr: 0x2C58, symBinAddr: 0x8268, symSize: 0x4 }
  - { offset: 0x636E2, size: 0x8, addend: 0x0, symName: __ZNSt3__110__function6__funcIZN8facebook5react11TurboModule6createERNS2_3jsi7RuntimeERKNS5_10PropNameIDEEUlS7_RKNS5_5ValueEPSC_mE_NS_9allocatorISF_EEFSB_S7_SD_SE_mEEclES7_SD_OSE_Om, symObjAddr: 0x2C5C, symBinAddr: 0x826C, symSize: 0x1C }
  - { offset: 0x63879, size: 0x8, addend: 0x0, symName: __ZNKSt3__110__function6__funcIZN8facebook5react11TurboModule6createERNS2_3jsi7RuntimeERKNS5_10PropNameIDEEUlS7_RKNS5_5ValueEPSC_mE_NS_9allocatorISF_EEFSB_S7_SD_SE_mEE6targetERKSt9type_info, symObjAddr: 0x2C78, symBinAddr: 0x8288, symSize: 0x3C }
  - { offset: 0x638C6, size: 0x8, addend: 0x0, symName: __ZNKSt9type_infoeqB8ne200100ERKS_, symObjAddr: 0x2CC0, symBinAddr: 0x82D0, symSize: 0x4C }
  - { offset: 0x63963, size: 0x8, addend: 0x0, symName: __ZNKSt3__110__function6__funcIZN8facebook5react11TurboModule6createERNS2_3jsi7RuntimeERKNS5_10PropNameIDEEUlS7_RKNS5_5ValueEPSC_mE_NS_9allocatorISF_EEFSB_S7_SD_SE_mEE11target_typeEv, symObjAddr: 0x2CB4, symBinAddr: 0x82C4, symSize: 0xC }
  - { offset: 0x63EB7, size: 0x8, addend: 0x0, symName: __ZNSt3__16vectorIN5folly7dynamicENS_9allocatorIS2_EEE24__emplace_back_slow_pathIJS2_EEEPS2_DpOT_, symObjAddr: 0x33CC, symBinAddr: 0x8678, symSize: 0x128 }
  - { offset: 0x641DA, size: 0x8, addend: 0x0, symName: __ZN5folly9TypeErrorC1EOS0_, symObjAddr: 0x3394, symBinAddr: 0x8640, symSize: 0x24 }
  - { offset: 0x64234, size: 0x8, addend: 0x0, symName: __ZN5folly9TypeErrorD1Ev, symObjAddr: 0x3390, symBinAddr: 0x863C, symSize: 0x4 }
  - { offset: 0x64256, size: 0x8, addend: 0x0, symName: __ZN5folly9TypeErrorD1Ev, symObjAddr: 0x3390, symBinAddr: 0x863C, symSize: 0x4 }
  - { offset: 0x64291, size: 0x8, addend: 0x0, symName: __ZN5folly9TypeErrorD0Ev, symObjAddr: 0x33B8, symBinAddr: 0x8664, symSize: 0x14 }
  - { offset: 0x64438, size: 0x8, addend: 0x0, symName: __ZNSt3__114__split_bufferIN5folly7dynamicERNS_9allocatorIS2_EEED2Ev, symObjAddr: 0x35B4, symBinAddr: 0x884C, symSize: 0x4C }
  - { offset: 0x645BA, size: 0x8, addend: 0x0, symName: __ZNSt3__119__allocate_at_leastB8ne200100INS_9allocatorIN5folly7dynamicEEEEENS_19__allocation_resultINS_16allocator_traitsIT_E7pointerEEERS7_m, symObjAddr: 0x3508, symBinAddr: 0x87A0, symSize: 0x44 }
  - { offset: 0x646F3, size: 0x8, addend: 0x0, symName: __ZN8facebook5react15CallbackWrapperD1Ev, symObjAddr: 0x3600, symBinAddr: 0x8898, symSize: 0x48 }
  - { offset: 0x647F5, size: 0x8, addend: 0x0, symName: __ZN8facebook5react15CallbackWrapperD0Ev, symObjAddr: 0x3648, symBinAddr: 0x88E0, symSize: 0x48 }
  - { offset: 0x64AAE, size: 0x8, addend: 0x0, symName: __ZNSt3__120__shared_ptr_pointerIPN8facebook5react15CallbackWrapperENS_10shared_ptrIS3_E27__shared_ptr_default_deleteIS3_S3_EENS_9allocatorIS3_EEED1Ev, symObjAddr: 0x36F8, symBinAddr: 0x8990, symSize: 0x4 }
  - { offset: 0x64AD0, size: 0x8, addend: 0x0, symName: __ZNSt3__120__shared_ptr_pointerIPN8facebook5react15CallbackWrapperENS_10shared_ptrIS3_E27__shared_ptr_default_deleteIS3_S3_EENS_9allocatorIS3_EEED1Ev, symObjAddr: 0x36F8, symBinAddr: 0x8990, symSize: 0x4 }
  - { offset: 0x64B06, size: 0x8, addend: 0x0, symName: __ZNSt3__120__shared_ptr_pointerIPN8facebook5react15CallbackWrapperENS_10shared_ptrIS3_E27__shared_ptr_default_deleteIS3_S3_EENS_9allocatorIS3_EEED0Ev, symObjAddr: 0x36FC, symBinAddr: 0x8994, symSize: 0x14 }
  - { offset: 0x64B69, size: 0x8, addend: 0x0, symName: __ZNSt3__120__shared_ptr_pointerIPN8facebook5react15CallbackWrapperENS_10shared_ptrIS3_E27__shared_ptr_default_deleteIS3_S3_EENS_9allocatorIS3_EEE16__on_zero_sharedEv, symObjAddr: 0x3710, symBinAddr: 0x89A8, symSize: 0x18 }
  - { offset: 0x64BB8, size: 0x8, addend: 0x0, symName: __ZNKSt3__120__shared_ptr_pointerIPN8facebook5react15CallbackWrapperENS_10shared_ptrIS3_E27__shared_ptr_default_deleteIS3_S3_EENS_9allocatorIS3_EEE13__get_deleterERKSt9type_info, symObjAddr: 0x3728, symBinAddr: 0x89C0, symSize: 0x38 }
  - { offset: 0x64C47, size: 0x8, addend: 0x0, symName: __ZNSt3__120__shared_ptr_pointerIPN8facebook5react15CallbackWrapperENS_10shared_ptrIS3_E27__shared_ptr_default_deleteIS3_S3_EENS_9allocatorIS3_EEE21__on_zero_shared_weakEv, symObjAddr: 0x3760, symBinAddr: 0x89F8, symSize: 0x4 }
  - { offset: 0x64C79, size: 0x8, addend: 0x0, symName: __ZNSt3__120__shared_ptr_pointerIPN8facebook5react15CallbackWrapperENS_10shared_ptrIS3_E27__shared_ptr_default_deleteIS3_S3_EENS_9allocatorIS3_EEE21__on_zero_shared_weakEv, symObjAddr: 0x3760, symBinAddr: 0x89F8, symSize: 0x4 }
  - { offset: 0x64C9A, size: 0x8, addend: 0x0, symName: __ZNSt3__120__shared_ptr_pointerIPN8facebook5react15CallbackWrapperENS_10shared_ptrIS3_E27__shared_ptr_default_deleteIS3_S3_EENS_9allocatorIS3_EEE21__on_zero_shared_weakEv, symObjAddr: 0x3760, symBinAddr: 0x89F8, symSize: 0x4 }
  - { offset: 0x64CCD, size: 0x8, addend: 0x0, symName: __ZNSt3__120__shared_ptr_pointerIPN8facebook5react15CallbackWrapperENS_10shared_ptrIS3_E27__shared_ptr_default_deleteIS3_S3_EENS_9allocatorIS3_EEE21__on_zero_shared_weakEv, symObjAddr: 0x3760, symBinAddr: 0x89F8, symSize: 0x4 }
  - { offset: 0x64D49, size: 0x8, addend: 0x0, symName: '__ZNSt3__110__function6__funcIZN8facebook5react12_GLOBAL__N_126makeTurboCxxModuleCallbackERNS2_3jsi7RuntimeENS_8weak_ptrINS3_15CallbackWrapperEEEE3$_0NS_9allocatorISB_EEFvNS_6vectorIN5folly7dynamicENSC_ISG_EEEEEED1Ev', symObjAddr: 0x3814, symBinAddr: 0x89FC, symSize: 0x38 }
  - { offset: 0x64E5B, size: 0x8, addend: 0x0, symName: '__ZNSt3__110__function6__funcIZN8facebook5react12_GLOBAL__N_126makeTurboCxxModuleCallbackERNS2_3jsi7RuntimeENS_8weak_ptrINS3_15CallbackWrapperEEEE3$_0NS_9allocatorISB_EEFvNS_6vectorIN5folly7dynamicENSC_ISG_EEEEEED0Ev', symObjAddr: 0x384C, symBinAddr: 0x8A34, symSize: 0x38 }
  - { offset: 0x650C3, size: 0x8, addend: 0x0, symName: '__ZNKSt3__110__function6__funcIZN8facebook5react12_GLOBAL__N_126makeTurboCxxModuleCallbackERNS2_3jsi7RuntimeENS_8weak_ptrINS3_15CallbackWrapperEEEE3$_0NS_9allocatorISB_EEFvNS_6vectorIN5folly7dynamicENSC_ISG_EEEEEE7__cloneEv', symObjAddr: 0x3884, symBinAddr: 0x8A6C, symSize: 0x60 }
  - { offset: 0x653B5, size: 0x8, addend: 0x0, symName: '__ZNKSt3__110__function6__funcIZN8facebook5react12_GLOBAL__N_126makeTurboCxxModuleCallbackERNS2_3jsi7RuntimeENS_8weak_ptrINS3_15CallbackWrapperEEEE3$_0NS_9allocatorISB_EEFvNS_6vectorIN5folly7dynamicENSC_ISG_EEEEEE7__cloneEPNS0_6__baseISJ_EE', symObjAddr: 0x38E4, symBinAddr: 0x8ACC, symSize: 0x40 }
  - { offset: 0x653EB, size: 0x8, addend: 0x0, symName: '__ZNKSt3__110__function6__funcIZN8facebook5react12_GLOBAL__N_126makeTurboCxxModuleCallbackERNS2_3jsi7RuntimeENS_8weak_ptrINS3_15CallbackWrapperEEEE3$_0NS_9allocatorISB_EEFvNS_6vectorIN5folly7dynamicENSC_ISG_EEEEEE7__cloneEPNS0_6__baseISJ_EE', symObjAddr: 0x38E4, symBinAddr: 0x8ACC, symSize: 0x40 }
  - { offset: 0x65419, size: 0x8, addend: 0x0, symName: '__ZNKSt3__110__function6__funcIZN8facebook5react12_GLOBAL__N_126makeTurboCxxModuleCallbackERNS2_3jsi7RuntimeENS_8weak_ptrINS3_15CallbackWrapperEEEE3$_0NS_9allocatorISB_EEFvNS_6vectorIN5folly7dynamicENSC_ISG_EEEEEE7__cloneEPNS0_6__baseISJ_EE', symObjAddr: 0x38E4, symBinAddr: 0x8ACC, symSize: 0x40 }
  - { offset: 0x655A2, size: 0x8, addend: 0x0, symName: '__ZNSt3__110__function6__funcIZN8facebook5react12_GLOBAL__N_126makeTurboCxxModuleCallbackERNS2_3jsi7RuntimeENS_8weak_ptrINS3_15CallbackWrapperEEEE3$_0NS_9allocatorISB_EEFvNS_6vectorIN5folly7dynamicENSC_ISG_EEEEEE7destroyEv', symObjAddr: 0x3924, symBinAddr: 0x8B0C, symSize: 0x10 }
  - { offset: 0x655CB, size: 0x8, addend: 0x0, symName: '__ZNSt3__110__function6__funcIZN8facebook5react12_GLOBAL__N_126makeTurboCxxModuleCallbackERNS2_3jsi7RuntimeENS_8weak_ptrINS3_15CallbackWrapperEEEE3$_0NS_9allocatorISB_EEFvNS_6vectorIN5folly7dynamicENSC_ISG_EEEEEE7destroyEv', symObjAddr: 0x3924, symBinAddr: 0x8B0C, symSize: 0x10 }
  - { offset: 0x655E9, size: 0x8, addend: 0x0, symName: '__ZNSt3__110__function6__funcIZN8facebook5react12_GLOBAL__N_126makeTurboCxxModuleCallbackERNS2_3jsi7RuntimeENS_8weak_ptrINS3_15CallbackWrapperEEEE3$_0NS_9allocatorISB_EEFvNS_6vectorIN5folly7dynamicENSC_ISG_EEEEEE7destroyEv', symObjAddr: 0x3924, symBinAddr: 0x8B0C, symSize: 0x10 }
  - { offset: 0x65606, size: 0x8, addend: 0x0, symName: '__ZNSt3__110__function6__funcIZN8facebook5react12_GLOBAL__N_126makeTurboCxxModuleCallbackERNS2_3jsi7RuntimeENS_8weak_ptrINS3_15CallbackWrapperEEEE3$_0NS_9allocatorISB_EEFvNS_6vectorIN5folly7dynamicENSC_ISG_EEEEEE7destroyEv', symObjAddr: 0x3924, symBinAddr: 0x8B0C, symSize: 0x10 }
  - { offset: 0x65623, size: 0x8, addend: 0x0, symName: '__ZNSt3__110__function6__funcIZN8facebook5react12_GLOBAL__N_126makeTurboCxxModuleCallbackERNS2_3jsi7RuntimeENS_8weak_ptrINS3_15CallbackWrapperEEEE3$_0NS_9allocatorISB_EEFvNS_6vectorIN5folly7dynamicENSC_ISG_EEEEEE7destroyEv', symObjAddr: 0x3924, symBinAddr: 0x8B0C, symSize: 0x10 }
  - { offset: 0x65640, size: 0x8, addend: 0x0, symName: '__ZNSt3__110__function6__funcIZN8facebook5react12_GLOBAL__N_126makeTurboCxxModuleCallbackERNS2_3jsi7RuntimeENS_8weak_ptrINS3_15CallbackWrapperEEEE3$_0NS_9allocatorISB_EEFvNS_6vectorIN5folly7dynamicENSC_ISG_EEEEEE7destroyEv', symObjAddr: 0x3924, symBinAddr: 0x8B0C, symSize: 0x10 }
  - { offset: 0x65693, size: 0x8, addend: 0x0, symName: '__ZNSt3__110__function6__funcIZN8facebook5react12_GLOBAL__N_126makeTurboCxxModuleCallbackERNS2_3jsi7RuntimeENS_8weak_ptrINS3_15CallbackWrapperEEEE3$_0NS_9allocatorISB_EEFvNS_6vectorIN5folly7dynamicENSC_ISG_EEEEEE18destroy_deallocateEv', symObjAddr: 0x3934, symBinAddr: 0x8B1C, symSize: 0x2C }
  - { offset: 0x65C8C, size: 0x8, addend: 0x0, symName: '__ZNSt3__110__function6__funcIZN8facebook5react12_GLOBAL__N_126makeTurboCxxModuleCallbackERNS2_3jsi7RuntimeENS_8weak_ptrINS3_15CallbackWrapperEEEE3$_0NS_9allocatorISB_EEFvNS_6vectorIN5folly7dynamicENSC_ISG_EEEEEEclEOSI_', symObjAddr: 0x3960, symBinAddr: 0x8B48, symSize: 0x25C }
  - { offset: 0x665EF, size: 0x8, addend: 0x0, symName: __ZNSt3__16vectorIN5folly7dynamicENS_9allocatorIS2_EEE16__init_with_sizeB8ne200100IPS2_S7_EEvT_T0_m, symObjAddr: 0x3FBC, symBinAddr: 0x91A4, symSize: 0x84 }
  - { offset: 0x6684F, size: 0x8, addend: 0x0, symName: '__ZZZN8facebook5react12_GLOBAL__N_126makeTurboCxxModuleCallbackERNS_3jsi7RuntimeENSt3__18weak_ptrINS0_15CallbackWrapperEEEEN3$_0clENS5_6vectorIN5folly7dynamicENS5_9allocatorISC_EEEEENUlS4_E_D1Ev', symObjAddr: 0x3C38, symBinAddr: 0x8E20, symSize: 0x44 }
  - { offset: 0x6695E, size: 0x8, addend: 0x0, symName: '__ZNKSt3__110__function6__funcIZN8facebook5react12_GLOBAL__N_126makeTurboCxxModuleCallbackERNS2_3jsi7RuntimeENS_8weak_ptrINS3_15CallbackWrapperEEEE3$_0NS_9allocatorISB_EEFvNS_6vectorIN5folly7dynamicENSC_ISG_EEEEEE6targetERKSt9type_info', symObjAddr: 0x3BBC, symBinAddr: 0x8DA4, symSize: 0x3C }
  - { offset: 0x669AB, size: 0x8, addend: 0x0, symName: '__ZNKSt3__110__function6__funcIZN8facebook5react12_GLOBAL__N_126makeTurboCxxModuleCallbackERNS2_3jsi7RuntimeENS_8weak_ptrINS3_15CallbackWrapperEEEE3$_0NS_9allocatorISB_EEFvNS_6vectorIN5folly7dynamicENSC_ISG_EEEEEE11target_typeEv', symObjAddr: 0x3BF8, symBinAddr: 0x8DE0, symSize: 0xC }
  - { offset: 0x66CBE, size: 0x8, addend: 0x0, symName: __ZNSt3__112basic_stringIcNS_11char_traitsIcEENS_9allocatorIcEEEC2B8ne200100Emc, symObjAddr: 0x3F20, symBinAddr: 0x9108, symSize: 0x9C }
  - { offset: 0x66EF2, size: 0x8, addend: 0x0, symName: __ZNSt3__16vectorIN5folly7dynamicENS_9allocatorIS2_EEE16__init_with_sizeB8ne200100IPS2_S7_EEvT_T0_m, symObjAddr: 0x3FBC, symBinAddr: 0x91A4, symSize: 0x84 }
  - { offset: 0x67109, size: 0x8, addend: 0x0, symName: __ZNSt3__16vectorIN5folly7dynamicENS_9allocatorIS2_EEE11__vallocateB8ne200100Em, symObjAddr: 0x4040, symBinAddr: 0x9228, symSize: 0x48 }
  - { offset: 0x67161, size: 0x8, addend: 0x0, symName: __ZNSt3__135__uninitialized_allocator_copy_implB8ne200100INS_9allocatorIN5folly7dynamicEEEPS3_S5_S5_EET2_RT_T0_T1_S6_, symObjAddr: 0x4088, symBinAddr: 0x9270, symSize: 0x84 }
  - { offset: 0x672B1, size: 0x8, addend: 0x0, symName: '__ZNSt3__110__function6__funcIZZN8facebook5react12_GLOBAL__N_126makeTurboCxxModuleCallbackERNS2_3jsi7RuntimeENS_8weak_ptrINS3_15CallbackWrapperEEEEN3$_0clENS_6vectorIN5folly7dynamicENS_9allocatorISE_EEEEEUlS7_E_NSF_ISI_EEFvS7_EED1Ev', symObjAddr: 0x417C, symBinAddr: 0x9364, symSize: 0x50 }
  - { offset: 0x6745B, size: 0x8, addend: 0x0, symName: '__ZNSt3__110__function6__funcIZZN8facebook5react12_GLOBAL__N_126makeTurboCxxModuleCallbackERNS2_3jsi7RuntimeENS_8weak_ptrINS3_15CallbackWrapperEEEEN3$_0clENS_6vectorIN5folly7dynamicENS_9allocatorISE_EEEEEUlS7_E_NSF_ISI_EEFvS7_EED0Ev', symObjAddr: 0x41CC, symBinAddr: 0x93B4, symSize: 0x54 }
  - { offset: 0x6783A, size: 0x8, addend: 0x0, symName: '__ZNKSt3__110__function6__funcIZZN8facebook5react12_GLOBAL__N_126makeTurboCxxModuleCallbackERNS2_3jsi7RuntimeENS_8weak_ptrINS3_15CallbackWrapperEEEEN3$_0clENS_6vectorIN5folly7dynamicENS_9allocatorISE_EEEEEUlS7_E_NSF_ISI_EEFvS7_EE7__cloneEv', symObjAddr: 0x4220, symBinAddr: 0x9408, symSize: 0xA0 }
  - { offset: 0x67C77, size: 0x8, addend: 0x0, symName: '__ZNKSt3__110__function6__funcIZZN8facebook5react12_GLOBAL__N_126makeTurboCxxModuleCallbackERNS2_3jsi7RuntimeENS_8weak_ptrINS3_15CallbackWrapperEEEEN3$_0clENS_6vectorIN5folly7dynamicENS_9allocatorISE_EEEEEUlS7_E_NSF_ISI_EEFvS7_EE7__cloneEPNS0_6__baseISK_EE', symObjAddr: 0x42C0, symBinAddr: 0x94A8, symSize: 0x8C }
  - { offset: 0x67EB9, size: 0x8, addend: 0x0, symName: '__ZNSt3__110__function6__funcIZZN8facebook5react12_GLOBAL__N_126makeTurboCxxModuleCallbackERNS2_3jsi7RuntimeENS_8weak_ptrINS3_15CallbackWrapperEEEEN3$_0clENS_6vectorIN5folly7dynamicENS_9allocatorISE_EEEEEUlS7_E_NSF_ISI_EEFvS7_EE7destroyEv', symObjAddr: 0x434C, symBinAddr: 0x9534, symSize: 0x8 }
  - { offset: 0x67EEE, size: 0x8, addend: 0x0, symName: '__ZNSt3__110__function12__alloc_funcIZZN8facebook5react12_GLOBAL__N_126makeTurboCxxModuleCallbackERNS2_3jsi7RuntimeENS_8weak_ptrINS3_15CallbackWrapperEEEEN3$_0clENS_6vectorIN5folly7dynamicENS_9allocatorISE_EEEEEUlS7_E_NSF_ISI_EEFvS7_EE7destroyB8ne200100Ev', symObjAddr: 0x4548, symBinAddr: 0x9730, symSize: 0x40 }
  - { offset: 0x6801E, size: 0x8, addend: 0x0, symName: '__ZNSt3__110__function6__funcIZZN8facebook5react12_GLOBAL__N_126makeTurboCxxModuleCallbackERNS2_3jsi7RuntimeENS_8weak_ptrINS3_15CallbackWrapperEEEEN3$_0clENS_6vectorIN5folly7dynamicENS_9allocatorISE_EEEEEUlS7_E_NSF_ISI_EEFvS7_EE18destroy_deallocateEv', symObjAddr: 0x4354, symBinAddr: 0x953C, symSize: 0x28 }
  - { offset: 0x6833D, size: 0x8, addend: 0x0, symName: '__ZNSt3__110__function6__funcIZZN8facebook5react12_GLOBAL__N_126makeTurboCxxModuleCallbackERNS2_3jsi7RuntimeENS_8weak_ptrINS3_15CallbackWrapperEEEEN3$_0clENS_6vectorIN5folly7dynamicENS_9allocatorISE_EEEEEUlS7_E_NSF_ISI_EEFvS7_EEclES7_', symObjAddr: 0x437C, symBinAddr: 0x9564, symSize: 0x184 }
  - { offset: 0x6889F, size: 0x8, addend: 0x0, symName: __ZNSt3__16vectorIN8facebook3jsi5ValueENS_9allocatorIS3_EEE7reserveEm, symObjAddr: 0x4588, symBinAddr: 0x9770, symSize: 0xB8 }
  - { offset: 0x68AC2, size: 0x8, addend: 0x0, symName: __ZNSt3__16vectorIN8facebook3jsi5ValueENS_9allocatorIS3_EEE9push_backB8ne200100EOS3_, symObjAddr: 0x4640, symBinAddr: 0x9828, symSize: 0x44 }
  - { offset: 0x68BE0, size: 0x8, addend: 0x0, symName: __ZNSt3__16vectorIN8facebook3jsi5ValueENS_9allocatorIS3_EEE16__destroy_vectorclB8ne200100Ev, symObjAddr: 0x4888, symBinAddr: 0x9A5C, symSize: 0x70 }
  - { offset: 0x68D26, size: 0x8, addend: 0x0, symName: '__ZNKSt3__110__function6__funcIZZN8facebook5react12_GLOBAL__N_126makeTurboCxxModuleCallbackERNS2_3jsi7RuntimeENS_8weak_ptrINS3_15CallbackWrapperEEEEN3$_0clENS_6vectorIN5folly7dynamicENS_9allocatorISE_EEEEEUlS7_E_NSF_ISI_EEFvS7_EE6targetERKSt9type_info', symObjAddr: 0x4500, symBinAddr: 0x96E8, symSize: 0x3C }
  - { offset: 0x68D73, size: 0x8, addend: 0x0, symName: '__ZNKSt3__110__function6__funcIZZN8facebook5react12_GLOBAL__N_126makeTurboCxxModuleCallbackERNS2_3jsi7RuntimeENS_8weak_ptrINS3_15CallbackWrapperEEEEN3$_0clENS_6vectorIN5folly7dynamicENS_9allocatorISE_EEEEEUlS7_E_NSF_ISI_EEFvS7_EE11target_typeEv', symObjAddr: 0x453C, symBinAddr: 0x9724, symSize: 0xC }
  - { offset: 0x68E7E, size: 0x8, addend: 0x0, symName: __ZNSt3__114__split_bufferIN8facebook3jsi5ValueERNS_9allocatorIS3_EEED2Ev, symObjAddr: 0x4734, symBinAddr: 0x9908, symSize: 0x4C }
  - { offset: 0x68FC7, size: 0x8, addend: 0x0, symName: __ZNSt3__119__allocate_at_leastB8ne200100INS_9allocatorIN8facebook3jsi5ValueEEEEENS_19__allocation_resultINS_16allocator_traitsIT_E7pointerEEERS8_m, symObjAddr: 0x4698, symBinAddr: 0x986C, symSize: 0x34 }
  - { offset: 0x690A6, size: 0x8, addend: 0x0, symName: __ZNSt3__16vectorIN8facebook3jsi5ValueENS_9allocatorIS3_EEE24__emplace_back_slow_pathIJS3_EEEPS3_DpOT_, symObjAddr: 0x4780, symBinAddr: 0x9954, symSize: 0x108 }
  - { offset: 0x69648, size: 0x8, addend: 0x0, symName: '__ZNSt3__110__function6__funcIZN8facebook5react14TurboCxxModule6createERNS2_3jsi7RuntimeERKNS5_10PropNameIDEE3$_0NS_9allocatorISB_EEFNS5_5ValueES7_RKSE_PSF_mEED1Ev', symObjAddr: 0x4AC4, symBinAddr: 0x9C40, symSize: 0x4 }
  - { offset: 0x69674, size: 0x8, addend: 0x0, symName: '__ZNSt3__110__function6__funcIZN8facebook5react14TurboCxxModule6createERNS2_3jsi7RuntimeERKNS5_10PropNameIDEE3$_0NS_9allocatorISB_EEFNS5_5ValueES7_RKSE_PSF_mEED0Ev', symObjAddr: 0x4AC8, symBinAddr: 0x9C44, symSize: 0x4 }
  - { offset: 0x6978B, size: 0x8, addend: 0x0, symName: '__ZNKSt3__110__function6__funcIZN8facebook5react14TurboCxxModule6createERNS2_3jsi7RuntimeERKNS5_10PropNameIDEE3$_0NS_9allocatorISB_EEFNS5_5ValueES7_RKSE_PSF_mEE7__cloneEv', symObjAddr: 0x4ACC, symBinAddr: 0x9C48, symSize: 0x34 }
  - { offset: 0x69987, size: 0x8, addend: 0x0, symName: '__ZNKSt3__110__function6__funcIZN8facebook5react14TurboCxxModule6createERNS2_3jsi7RuntimeERKNS5_10PropNameIDEE3$_0NS_9allocatorISB_EEFNS5_5ValueES7_RKSE_PSF_mEE7__cloneEPNS0_6__baseISI_EE', symObjAddr: 0x4B00, symBinAddr: 0x9C7C, symSize: 0x14 }
  - { offset: 0x699BD, size: 0x8, addend: 0x0, symName: '__ZNKSt3__110__function6__funcIZN8facebook5react14TurboCxxModule6createERNS2_3jsi7RuntimeERKNS5_10PropNameIDEE3$_0NS_9allocatorISB_EEFNS5_5ValueES7_RKSE_PSF_mEE7__cloneEPNS0_6__baseISI_EE', symObjAddr: 0x4B00, symBinAddr: 0x9C7C, symSize: 0x14 }
  - { offset: 0x699EB, size: 0x8, addend: 0x0, symName: '__ZNKSt3__110__function6__funcIZN8facebook5react14TurboCxxModule6createERNS2_3jsi7RuntimeERKNS5_10PropNameIDEE3$_0NS_9allocatorISB_EEFNS5_5ValueES7_RKSE_PSF_mEE7__cloneEPNS0_6__baseISI_EE', symObjAddr: 0x4B00, symBinAddr: 0x9C7C, symSize: 0x14 }
  - { offset: 0x69A19, size: 0x8, addend: 0x0, symName: '__ZNKSt3__110__function6__funcIZN8facebook5react14TurboCxxModule6createERNS2_3jsi7RuntimeERKNS5_10PropNameIDEE3$_0NS_9allocatorISB_EEFNS5_5ValueES7_RKSE_PSF_mEE7__cloneEPNS0_6__baseISI_EE', symObjAddr: 0x4B00, symBinAddr: 0x9C7C, symSize: 0x14 }
  - { offset: 0x69A2F, size: 0x8, addend: 0x0, symName: '__ZNKSt3__110__function6__funcIZN8facebook5react14TurboCxxModule6createERNS2_3jsi7RuntimeERKNS5_10PropNameIDEE3$_0NS_9allocatorISB_EEFNS5_5ValueES7_RKSE_PSF_mEE7__cloneEPNS0_6__baseISI_EE', symObjAddr: 0x4B00, symBinAddr: 0x9C7C, symSize: 0x14 }
  - { offset: 0x69A44, size: 0x8, addend: 0x0, symName: '__ZNSt3__110__function6__funcIZN8facebook5react14TurboCxxModule6createERNS2_3jsi7RuntimeERKNS5_10PropNameIDEE3$_0NS_9allocatorISB_EEFNS5_5ValueES7_RKSE_PSF_mEE7destroyEv', symObjAddr: 0x4B14, symBinAddr: 0x9C90, symSize: 0x4 }
  - { offset: 0x69A99, size: 0x8, addend: 0x0, symName: '__ZNSt3__110__function6__funcIZN8facebook5react14TurboCxxModule6createERNS2_3jsi7RuntimeERKNS5_10PropNameIDEE3$_0NS_9allocatorISB_EEFNS5_5ValueES7_RKSE_PSF_mEE18destroy_deallocateEv', symObjAddr: 0x4B18, symBinAddr: 0x9C94, symSize: 0x4 }
  - { offset: 0x69ACC, size: 0x8, addend: 0x0, symName: '__ZNSt3__110__function6__funcIZN8facebook5react14TurboCxxModule6createERNS2_3jsi7RuntimeERKNS5_10PropNameIDEE3$_0NS_9allocatorISB_EEFNS5_5ValueES7_RKSE_PSF_mEE18destroy_deallocateEv', symObjAddr: 0x4B18, symBinAddr: 0x9C94, symSize: 0x4 }
  - { offset: 0x69AEE, size: 0x8, addend: 0x0, symName: '__ZNSt3__110__function6__funcIZN8facebook5react14TurboCxxModule6createERNS2_3jsi7RuntimeERKNS5_10PropNameIDEE3$_0NS_9allocatorISB_EEFNS5_5ValueES7_RKSE_PSF_mEE18destroy_deallocateEv', symObjAddr: 0x4B18, symBinAddr: 0x9C94, symSize: 0x4 }
  - { offset: 0x69B20, size: 0x8, addend: 0x0, symName: '__ZNSt3__110__function6__funcIZN8facebook5react14TurboCxxModule6createERNS2_3jsi7RuntimeERKNS5_10PropNameIDEE3$_0NS_9allocatorISB_EEFNS5_5ValueES7_RKSE_PSF_mEE18destroy_deallocateEv', symObjAddr: 0x4B18, symBinAddr: 0x9C94, symSize: 0x4 }
  - { offset: 0x69E31, size: 0x8, addend: 0x0, symName: '__ZNSt3__110__function6__funcIZN8facebook5react14TurboCxxModule6createERNS2_3jsi7RuntimeERKNS5_10PropNameIDEE3$_0NS_9allocatorISB_EEFNS5_5ValueES7_RKSE_PSF_mEEclES7_SG_OSH_Om', symObjAddr: 0x4B1C, symBinAddr: 0x9C98, symSize: 0x158 }
  - { offset: 0x6A516, size: 0x8, addend: 0x0, symName: __ZNK8facebook3jsi6Object11setPropertyINS0_5ValueEEEvRNS0_7RuntimeEPKcOT_, symObjAddr: 0x4CBC, symBinAddr: 0x9E38, symSize: 0xAC }
  - { offset: 0x6A74E, size: 0x8, addend: 0x0, symName: __ZNSt3__16__treeINS_12__value_typeINS_12basic_stringIcNS_11char_traitsIcEENS_9allocatorIcEEEEN5folly7dynamicEEENS_19__map_value_compareIS7_SA_NS_4lessIS7_EELb1EEENS5_ISA_EEE7destroyEPNS_11__tree_nodeISA_PvEE, symObjAddr: 0x4D68, symBinAddr: 0x9EE4, symSize: 0x48 }
  - { offset: 0x6A88C, size: 0x8, addend: 0x0, symName: '__ZNKSt3__110__function6__funcIZN8facebook5react14TurboCxxModule6createERNS2_3jsi7RuntimeERKNS5_10PropNameIDEE3$_0NS_9allocatorISB_EEFNS5_5ValueES7_RKSE_PSF_mEE6targetERKSt9type_info', symObjAddr: 0x4C74, symBinAddr: 0x9DF0, symSize: 0x3C }
  - { offset: 0x6A8D9, size: 0x8, addend: 0x0, symName: '__ZNKSt3__110__function6__funcIZN8facebook5react14TurboCxxModule6createERNS2_3jsi7RuntimeERKNS5_10PropNameIDEE3$_0NS_9allocatorISB_EEFNS5_5ValueES7_RKSE_PSF_mEE11target_typeEv', symObjAddr: 0x4CB0, symBinAddr: 0x9E2C, symSize: 0xC }
  - { offset: 0x6AB29, size: 0x8, addend: 0x0, symName: '__ZNSt3__110__function6__funcIZN8facebook5react14TurboCxxModule6createERNS2_3jsi7RuntimeERKNS5_10PropNameIDEE3$_1NS_9allocatorISB_EEFNS5_5ValueES7_RKSE_PSF_mEED1Ev', symObjAddr: 0x4DEC, symBinAddr: 0x9F68, symSize: 0x3C }
  - { offset: 0x6AD03, size: 0x8, addend: 0x0, symName: '__ZNSt3__110__function6__funcIZN8facebook5react14TurboCxxModule6createERNS2_3jsi7RuntimeERKNS5_10PropNameIDEE3$_1NS_9allocatorISB_EEFNS5_5ValueES7_RKSE_PSF_mEED0Ev', symObjAddr: 0x4E28, symBinAddr: 0x9FA4, symSize: 0x3C }
  - { offset: 0x6B112, size: 0x8, addend: 0x0, symName: '__ZNKSt3__110__function6__funcIZN8facebook5react14TurboCxxModule6createERNS2_3jsi7RuntimeERKNS5_10PropNameIDEE3$_1NS_9allocatorISB_EEFNS5_5ValueES7_RKSE_PSF_mEE7__cloneEv', symObjAddr: 0x4E64, symBinAddr: 0x9FE0, symSize: 0x78 }
  - { offset: 0x6B48D, size: 0x8, addend: 0x0, symName: '__ZNKSt3__110__function6__funcIZN8facebook5react14TurboCxxModule6createERNS2_3jsi7RuntimeERKNS5_10PropNameIDEE3$_1NS_9allocatorISB_EEFNS5_5ValueES7_RKSE_PSF_mEE7__cloneEPNS0_6__baseISI_EE', symObjAddr: 0x4EDC, symBinAddr: 0xA058, symSize: 0x3C }
  - { offset: 0x6B611, size: 0x8, addend: 0x0, symName: '__ZNSt3__110__function6__funcIZN8facebook5react14TurboCxxModule6createERNS2_3jsi7RuntimeERKNS5_10PropNameIDEE3$_1NS_9allocatorISB_EEFNS5_5ValueES7_RKSE_PSF_mEE7destroyEv', symObjAddr: 0x4F18, symBinAddr: 0xA094, symSize: 0x14 }
  - { offset: 0x6B6A5, size: 0x8, addend: 0x0, symName: '__ZNSt3__110__function6__funcIZN8facebook5react14TurboCxxModule6createERNS2_3jsi7RuntimeERKNS5_10PropNameIDEE3$_1NS_9allocatorISB_EEFNS5_5ValueES7_RKSE_PSF_mEE7destroyEv', symObjAddr: 0x4F18, symBinAddr: 0xA094, symSize: 0x14 }
  - { offset: 0x6B75E, size: 0x8, addend: 0x0, symName: '__ZNSt3__110__function6__funcIZN8facebook5react14TurboCxxModule6createERNS2_3jsi7RuntimeERKNS5_10PropNameIDEE3$_1NS_9allocatorISB_EEFNS5_5ValueES7_RKSE_PSF_mEE18destroy_deallocateEv', symObjAddr: 0x4F2C, symBinAddr: 0xA0A8, symSize: 0x30 }
  - { offset: 0x6BA6E, size: 0x8, addend: 0x0, symName: '__ZNSt3__110__function6__funcIZN8facebook5react14TurboCxxModule6createERNS2_3jsi7RuntimeERKNS5_10PropNameIDEE3$_1NS_9allocatorISB_EEFNS5_5ValueES7_RKSE_PSF_mEEclES7_SG_OSH_Om', symObjAddr: 0x4F5C, symBinAddr: 0xA0D8, symSize: 0x18 }
  - { offset: 0x6BAD4, size: 0x8, addend: 0x0, symName: '__ZNSt3__110__function6__funcIZN8facebook5react14TurboCxxModule6createERNS2_3jsi7RuntimeERKNS5_10PropNameIDEE3$_1NS_9allocatorISB_EEFNS5_5ValueES7_RKSE_PSF_mEEclES7_SG_OSH_Om', symObjAddr: 0x4F5C, symBinAddr: 0xA0D8, symSize: 0x18 }
  - { offset: 0x6BB0B, size: 0x8, addend: 0x0, symName: '__ZNSt3__110__function6__funcIZN8facebook5react14TurboCxxModule6createERNS2_3jsi7RuntimeERKNS5_10PropNameIDEE3$_1NS_9allocatorISB_EEFNS5_5ValueES7_RKSE_PSF_mEEclES7_SG_OSH_Om', symObjAddr: 0x4F5C, symBinAddr: 0xA0D8, symSize: 0x18 }
  - { offset: 0x6BB41, size: 0x8, addend: 0x0, symName: '__ZNSt3__110__function6__funcIZN8facebook5react14TurboCxxModule6createERNS2_3jsi7RuntimeERKNS5_10PropNameIDEE3$_1NS_9allocatorISB_EEFNS5_5ValueES7_RKSE_PSF_mEEclES7_SG_OSH_Om', symObjAddr: 0x4F5C, symBinAddr: 0xA0D8, symSize: 0x18 }
  - { offset: 0x6BB78, size: 0x8, addend: 0x0, symName: '__ZNSt3__110__function6__funcIZN8facebook5react14TurboCxxModule6createERNS2_3jsi7RuntimeERKNS5_10PropNameIDEE3$_1NS_9allocatorISB_EEFNS5_5ValueES7_RKSE_PSF_mEEclES7_SG_OSH_Om', symObjAddr: 0x4F5C, symBinAddr: 0xA0D8, symSize: 0x18 }
  - { offset: 0x6BC00, size: 0x8, addend: 0x0, symName: '__ZNKSt3__110__function6__funcIZN8facebook5react14TurboCxxModule6createERNS2_3jsi7RuntimeERKNS5_10PropNameIDEE3$_1NS_9allocatorISB_EEFNS5_5ValueES7_RKSE_PSF_mEE6targetERKSt9type_info', symObjAddr: 0x4F74, symBinAddr: 0xA0F0, symSize: 0x3C }
  - { offset: 0x6BC4D, size: 0x8, addend: 0x0, symName: '__ZNKSt3__110__function6__funcIZN8facebook5react14TurboCxxModule6createERNS2_3jsi7RuntimeERKNS5_10PropNameIDEE3$_1NS_9allocatorISB_EEFNS5_5ValueES7_RKSE_PSF_mEE11target_typeEv', symObjAddr: 0x4FB0, symBinAddr: 0xA12C, symSize: 0xC }
  - { offset: 0x6BCDC, size: 0x8, addend: 0x0, symName: __ZNSt3__117bad_function_callD1Ev, symObjAddr: 0x4FF0, symBinAddr: 0xA16C, symSize: 0x4 }
  - { offset: 0x6BCFE, size: 0x8, addend: 0x0, symName: __ZNSt3__117bad_function_callD1Ev, symObjAddr: 0x4FF0, symBinAddr: 0xA16C, symSize: 0x4 }
  - { offset: 0x6BD32, size: 0x8, addend: 0x0, symName: __ZNSt3__117bad_function_callD0Ev, symObjAddr: 0x4FF4, symBinAddr: 0xA170, symSize: 0x14 }
  - { offset: 0x6BE13, size: 0x8, addend: 0x0, symName: '__ZNSt3__110__function6__funcIZN8facebook5react14TurboCxxModule12invokeMethodERNS2_3jsi7RuntimeERKNS_12basic_stringIcNS_11char_traitsIcEENS_9allocatorIcEEEEPKNS5_5ValueEmE3$_0NSB_ISJ_EEFvS7_NS_10shared_ptrINS3_7PromiseEEEEED1Ev', symObjAddr: 0x5094, symBinAddr: 0xA210, symSize: 0x94 }
  - { offset: 0x6C135, size: 0x8, addend: 0x0, symName: '__ZNSt3__110__function6__funcIZN8facebook5react14TurboCxxModule12invokeMethodERNS2_3jsi7RuntimeERKNS_12basic_stringIcNS_11char_traitsIcEENS_9allocatorIcEEEEPKNS5_5ValueEmE3$_0NSB_ISJ_EEFvS7_NS_10shared_ptrINS3_7PromiseEEEEED0Ev', symObjAddr: 0x5128, symBinAddr: 0xA2A4, symSize: 0x94 }
  - { offset: 0x6C68C, size: 0x8, addend: 0x0, symName: '__ZNKSt3__110__function6__funcIZN8facebook5react14TurboCxxModule12invokeMethodERNS2_3jsi7RuntimeERKNS_12basic_stringIcNS_11char_traitsIcEENS_9allocatorIcEEEEPKNS5_5ValueEmE3$_0NSB_ISJ_EEFvS7_NS_10shared_ptrINS3_7PromiseEEEEE7__cloneEv', symObjAddr: 0x51BC, symBinAddr: 0xA338, symSize: 0x104 }
  - { offset: 0x6CC47, size: 0x8, addend: 0x0, symName: '__ZNKSt3__110__function6__funcIZN8facebook5react14TurboCxxModule12invokeMethodERNS2_3jsi7RuntimeERKNS_12basic_stringIcNS_11char_traitsIcEENS_9allocatorIcEEEEPKNS5_5ValueEmE3$_0NSB_ISJ_EEFvS7_NS_10shared_ptrINS3_7PromiseEEEEE7__cloneEPNS0_6__baseISO_EE', symObjAddr: 0x52C0, symBinAddr: 0xA43C, symSize: 0xE8 }
  - { offset: 0x6CFE1, size: 0x8, addend: 0x0, symName: '__ZNSt3__110__function6__funcIZN8facebook5react14TurboCxxModule12invokeMethodERNS2_3jsi7RuntimeERKNS_12basic_stringIcNS_11char_traitsIcEENS_9allocatorIcEEEEPKNS5_5ValueEmE3$_0NSB_ISJ_EEFvS7_NS_10shared_ptrINS3_7PromiseEEEEE7destroyEv', symObjAddr: 0x53A8, symBinAddr: 0xA524, symSize: 0x8 }
  - { offset: 0x6D192, size: 0x8, addend: 0x0, symName: '__ZNSt3__110__function6__funcIZN8facebook5react14TurboCxxModule12invokeMethodERNS2_3jsi7RuntimeERKNS_12basic_stringIcNS_11char_traitsIcEENS_9allocatorIcEEEEPKNS5_5ValueEmE3$_0NSB_ISJ_EEFvS7_NS_10shared_ptrINS3_7PromiseEEEEE18destroy_deallocateEv', symObjAddr: 0x53B0, symBinAddr: 0xA52C, symSize: 0x28 }
  - { offset: 0x6D40D, size: 0x8, addend: 0x0, symName: '__ZNSt3__110__function6__funcIZN8facebook5react14TurboCxxModule12invokeMethodERNS2_3jsi7RuntimeERKNS_12basic_stringIcNS_11char_traitsIcEENS_9allocatorIcEEEEPKNS5_5ValueEmE3$_0NSB_ISJ_EEFvS7_NS_10shared_ptrINS3_7PromiseEEEEEclES7_OSN_', symObjAddr: 0x53D8, symBinAddr: 0xA554, symSize: 0x5E0 }
  - { offset: 0x6ECB9, size: 0x8, addend: 0x0, symName: '__ZNKSt3__110__function6__funcIZN8facebook5react14TurboCxxModule12invokeMethodERNS2_3jsi7RuntimeERKNS_12basic_stringIcNS_11char_traitsIcEENS_9allocatorIcEEEEPKNS5_5ValueEmE3$_0NSB_ISJ_EEFvS7_NS_10shared_ptrINS3_7PromiseEEEEE6targetERKSt9type_info', symObjAddr: 0x59B8, symBinAddr: 0xAB34, symSize: 0x3C }
  - { offset: 0x6ED06, size: 0x8, addend: 0x0, symName: '__ZNKSt3__110__function6__funcIZN8facebook5react14TurboCxxModule12invokeMethodERNS2_3jsi7RuntimeERKNS_12basic_stringIcNS_11char_traitsIcEENS_9allocatorIcEEEEPKNS5_5ValueEmE3$_0NSB_ISJ_EEFvS7_NS_10shared_ptrINS3_7PromiseEEEEE11target_typeEv', symObjAddr: 0x59F4, symBinAddr: 0xAB70, symSize: 0xC }
  - { offset: 0x7BC1A, size: 0x8, addend: 0x0, symName: __ZN8facebook5react29getTurboModuleMethodValueKindERNS_3jsi7RuntimeEPKNS1_5ValueE, symObjAddr: 0x0, symBinAddr: 0xAC44, symSize: 0xFC }
  - { offset: 0x7E32C, size: 0x8, addend: 0x0, symName: __ZN8facebook5react11TurboModule15emitDeviceEventERKNSt3__112basic_stringIcNS2_11char_traitsIcEENS2_9allocatorIcEEEENS2_8functionIFvRNS_3jsi7RuntimeERNS2_6vectorINSC_5ValueENS6_ISG_EEEEEEE, symObjAddr: 0x1AC, symBinAddr: 0xADF0, symSize: 0x1A4 }
  - { offset: 0x7EFB2, size: 0x8, addend: 0x0, symName: __ZN8facebook5react11TurboModuleC2ENSt3__112basic_stringIcNS2_11char_traitsIcEENS2_9allocatorIcEEEENS2_10shared_ptrINS0_11CallInvokerEEE, symObjAddr: 0xFC, symBinAddr: 0xAD40, symSize: 0x58 }
  - { offset: 0x7F266, size: 0x8, addend: 0x0, symName: __ZN8facebook5react11TurboModuleC1ENSt3__112basic_stringIcNS2_11char_traitsIcEENS2_9allocatorIcEEEENS2_10shared_ptrINS0_11CallInvokerEEE, symObjAddr: 0x154, symBinAddr: 0xAD98, symSize: 0x58 }
  - { offset: 0x7F2B1, size: 0x8, addend: 0x0, symName: __ZN8facebook5react11TurboModuleC1ENSt3__112basic_stringIcNS2_11char_traitsIcEENS2_9allocatorIcEEEENS2_10shared_ptrINS0_11CallInvokerEEE, symObjAddr: 0x154, symBinAddr: 0xAD98, symSize: 0x58 }
  - { offset: 0x7FDB4, size: 0x8, addend: 0x0, symName: __ZNSt3__110__function12__value_funcIFvRN8facebook3jsi7RuntimeERNS_6vectorINS3_5ValueENS_9allocatorIS7_EEEEEEC2B8ne200100EOSD_, symObjAddr: 0xF5C, symBinAddr: 0xB524, symSize: 0x64 }
  - { offset: 0x7FE03, size: 0x8, addend: 0x0, symName: '__ZZN8facebook5react11TurboModule15emitDeviceEventERKNSt3__112basic_stringIcNS2_11char_traitsIcEENS2_9allocatorIcEEEENS2_8functionIFvRNS_3jsi7RuntimeERNS2_6vectorINSC_5ValueENS6_ISG_EEEEEEEEN3$_0D1Ev', symObjAddr: 0x350, symBinAddr: 0xAF94, symSize: 0x5C }
  - { offset: 0x80214, size: 0x8, addend: 0x0, symName: '__ZNSt3__110__function6__funcIZN8facebook5react11TurboModule15emitDeviceEventERKNS_12basic_stringIcNS_11char_traitsIcEENS_9allocatorIcEEEENS_8functionIFvRNS2_3jsi7RuntimeERNS_6vectorINSE_5ValueENS8_ISI_EEEEEEEE3$_0NS8_ISO_EEFvSG_EED1Ev', symObjAddr: 0xA28, symBinAddr: 0xAFF0, symSize: 0x68 }
  - { offset: 0x80474, size: 0x8, addend: 0x0, symName: '__ZNSt3__110__function6__funcIZN8facebook5react11TurboModule15emitDeviceEventERKNS_12basic_stringIcNS_11char_traitsIcEENS_9allocatorIcEEEENS_8functionIFvRNS2_3jsi7RuntimeERNS_6vectorINSE_5ValueENS8_ISI_EEEEEEEE3$_0NS8_ISO_EEFvSG_EED0Ev', symObjAddr: 0xA90, symBinAddr: 0xB058, symSize: 0x68 }
  - { offset: 0x80884, size: 0x8, addend: 0x0, symName: '__ZNKSt3__110__function6__funcIZN8facebook5react11TurboModule15emitDeviceEventERKNS_12basic_stringIcNS_11char_traitsIcEENS_9allocatorIcEEEENS_8functionIFvRNS2_3jsi7RuntimeERNS_6vectorINSE_5ValueENS8_ISI_EEEEEEEE3$_0NS8_ISO_EEFvSG_EE7__cloneEv', symObjAddr: 0xAF8, symBinAddr: 0xB0C0, symSize: 0xA4 }
  - { offset: 0x80D21, size: 0x8, addend: 0x0, symName: '__ZNKSt3__110__function6__funcIZN8facebook5react11TurboModule15emitDeviceEventERKNS_12basic_stringIcNS_11char_traitsIcEENS_9allocatorIcEEEENS_8functionIFvRNS2_3jsi7RuntimeERNS_6vectorINSE_5ValueENS8_ISI_EEEEEEEE3$_0NS8_ISO_EEFvSG_EE7__cloneEPNS0_6__baseISQ_EE', symObjAddr: 0xB9C, symBinAddr: 0xB164, symSize: 0x88 }
  - { offset: 0x80F9F, size: 0x8, addend: 0x0, symName: '__ZNSt3__110__function6__funcIZN8facebook5react11TurboModule15emitDeviceEventERKNS_12basic_stringIcNS_11char_traitsIcEENS_9allocatorIcEEEENS_8functionIFvRNS2_3jsi7RuntimeERNS_6vectorINSE_5ValueENS8_ISI_EEEEEEEE3$_0NS8_ISO_EEFvSG_EE7destroyEv', symObjAddr: 0xC24, symBinAddr: 0xB1EC, symSize: 0x8 }
  - { offset: 0x810E2, size: 0x8, addend: 0x0, symName: '__ZNSt3__110__function6__funcIZN8facebook5react11TurboModule15emitDeviceEventERKNS_12basic_stringIcNS_11char_traitsIcEENS_9allocatorIcEEEENS_8functionIFvRNS2_3jsi7RuntimeERNS_6vectorINSE_5ValueENS8_ISI_EEEEEEEE3$_0NS8_ISO_EEFvSG_EE18destroy_deallocateEv', symObjAddr: 0xC2C, symBinAddr: 0xB1F4, symSize: 0x28 }
  - { offset: 0x8163D, size: 0x8, addend: 0x0, symName: '__ZNSt3__110__function6__funcIZN8facebook5react11TurboModule15emitDeviceEventERKNS_12basic_stringIcNS_11char_traitsIcEENS_9allocatorIcEEEENS_8functionIFvRNS2_3jsi7RuntimeERNS_6vectorINSE_5ValueENS8_ISI_EEEEEEEE3$_0NS8_ISO_EEFvSG_EEclESG_', symObjAddr: 0xC54, symBinAddr: 0xB21C, symSize: 0x2C0 }
  - { offset: 0x8215D, size: 0x8, addend: 0x0, symName: __ZNSt3__16vectorIN8facebook3jsi5ValueENS_9allocatorIS3_EEE24__emplace_back_slow_pathIJNS2_6StringEEEEPS3_DpOT_, symObjAddr: 0x1020, symBinAddr: 0xB588, symSize: 0x11C }
  - { offset: 0x82597, size: 0x8, addend: 0x0, symName: '__ZNKSt3__110__function6__funcIZN8facebook5react11TurboModule15emitDeviceEventERKNS_12basic_stringIcNS_11char_traitsIcEENS_9allocatorIcEEEENS_8functionIFvRNS2_3jsi7RuntimeERNS_6vectorINSE_5ValueENS8_ISI_EEEEEEEE3$_0NS8_ISO_EEFvSG_EE6targetERKSt9type_info', symObjAddr: 0xF14, symBinAddr: 0xB4DC, symSize: 0x3C }
  - { offset: 0x82649, size: 0x8, addend: 0x0, symName: '__ZNKSt3__110__function6__funcIZN8facebook5react11TurboModule15emitDeviceEventERKNS_12basic_stringIcNS_11char_traitsIcEENS_9allocatorIcEEEENS_8functionIFvRNS2_3jsi7RuntimeERNS_6vectorINSE_5ValueENS8_ISI_EEEEEEEE3$_0NS8_ISO_EEFvSG_EE11target_typeEv', symObjAddr: 0xF50, symBinAddr: 0xB518, symSize: 0xC }
  - { offset: 0x904E9, size: 0x8, addend: 0x0, symName: __ZNSt3__115allocate_sharedB8ne200100IN8facebook5react27BridgelessNativeModuleProxyENS_9allocatorIS3_EEJRNS1_3jsi7RuntimeENS_8functionIFNS_10shared_ptrINS2_11TurboModuleEEERKNS_12basic_stringIcNS_11char_traitsIcEENS4_IcEEEEEEESL_RNSA_INS2_25LongLivedObjectCollectionEEEELi0EEENSA_IT_EERKT0_DpOT1_, symObjAddr: 0x13A0, symBinAddr: 0xC678, symSize: 0x78 }
  - { offset: 0x91113, size: 0x8, addend: 0x0, symName: __ZNSt3__112construct_atB8ne200100IN8facebook5react27BridgelessNativeModuleProxyEJRNS1_3jsi7RuntimeENS_8functionIFNS_10shared_ptrINS2_11TurboModuleEEERKNS_12basic_stringIcNS_11char_traitsIcEENS_9allocatorIcEEEEEEESK_RNS8_INS2_25LongLivedObjectCollectionEEEEPS3_EEPT_SQ_DpOT0_, symObjAddr: 0x14AC, symBinAddr: 0xC784, symSize: 0xA0 }
  - { offset: 0x9180E, size: 0x8, addend: 0x0, symName: __ZNSt3__117__call_once_proxyB8ne200100INS_5tupleIJOZN8facebook5react8systraceL31getOrCreateInstrumentsLogHandleEvEUlvE_EEEEEvPv, symObjAddr: 0x1E10, symBinAddr: 0xD038, symSize: 0x40 }
  - { offset: 0x91FF9, size: 0x8, addend: 0x0, symName: __ZNSt3__135__uninitialized_allocator_copy_implB8ne200100INS_9allocatorINS_12basic_stringIcNS_11char_traitsIcEENS1_IcEEEEEEPKS6_S9_PS6_EET2_RT_T0_T1_SB_, symObjAddr: 0x2850, symBinAddr: 0xD724, symSize: 0xBC }
  - { offset: 0x92277, size: 0x8, addend: 0x0, symName: __ZNSt3__119__allocate_at_leastB8ne200100INS_9allocatorINS_12basic_stringIcNS_11char_traitsIcEENS1_IcEEEEEEEENS_19__allocation_resultINS_16allocator_traitsIT_E7pointerEEERSA_m, symObjAddr: 0x280C, symBinAddr: 0xD6E0, symSize: 0x44 }
  - { offset: 0x9231D, size: 0x8, addend: 0x0, symName: __ZNSt3__135__uninitialized_allocator_copy_implB8ne200100INS_9allocatorINS_12basic_stringIcNS_11char_traitsIcEENS1_IcEEEEEEPKS6_S9_PS6_EET2_RT_T0_T1_SB_, symObjAddr: 0x2850, symBinAddr: 0xD724, symSize: 0xBC }
  - { offset: 0x9340D, size: 0x8, addend: 0x0, symName: __ZN8facebook5react8systrace20instrumentsLogHandleE, symObjAddr: 0x3588, symBinAddr: 0x1C120, symSize: 0x0 }
  - { offset: 0x93428, size: 0x8, addend: 0x0, symName: __ZZN8facebook5react8systraceL31getOrCreateInstrumentsLogHandleEvE4flag, symObjAddr: 0xA4CB8, symBinAddr: 0x1C190, symSize: 0x0 }
  - { offset: 0x9523F, size: 0x8, addend: 0x0, symName: __ZN8facebook5react12TraceSectionD2Ev, symObjAddr: 0xD78, symBinAddr: 0xC1B0, symSize: 0xC8 }
  - { offset: 0x9542A, size: 0x8, addend: 0x0, symName: __ZN8facebook5react12TraceSectionC2IJRA7_KcRKNSt3__112basic_stringIcNS6_11char_traitsIcEENS6_9allocatorIcEEEEEEEPS3_DpOT_, symObjAddr: 0x19C0, symBinAddr: 0xCBE8, symSize: 0x450 }
  - { offset: 0x97635, size: 0x8, addend: 0x0, symName: __ZN8facebook5react18TurboModuleBinding7installERNS_3jsi7RuntimeEONSt3__18functionIFNS5_10shared_ptrINS0_11TurboModuleEEERKNS5_12basic_stringIcNS5_11char_traitsIcEENS5_9allocatorIcEEEEEEESK_NS7_INS0_25LongLivedObjectCollectionEEE, symObjAddr: 0x88, symBinAddr: 0xB72C, symSize: 0x568 }
  - { offset: 0x99331, size: 0x8, addend: 0x0, symName: __ZN8facebook5react18TurboModuleBindingC2ERNS_3jsi7RuntimeEONSt3__18functionIFNS5_10shared_ptrINS0_11TurboModuleEEERKNS5_12basic_stringIcNS5_11char_traitsIcEENS5_9allocatorIcEEEEEEENS7_INS0_25LongLivedObjectCollectionEEE, symObjAddr: 0x0, symBinAddr: 0xB6A4, symSize: 0x44 }
  - { offset: 0x99424, size: 0x8, addend: 0x0, symName: __ZNSt3__110__function12__value_funcIFNS_10shared_ptrIN8facebook5react11TurboModuleEEERKNS_12basic_stringIcNS_11char_traitsIcEENS_9allocatorIcEEEEEEC2B8ne200100EOSG_, symObjAddr: 0xF80, symBinAddr: 0xC308, symSize: 0x64 }
  - { offset: 0x994B0, size: 0x8, addend: 0x0, symName: __ZN8facebook5react18TurboModuleBindingC1ERNS_3jsi7RuntimeEONSt3__18functionIFNS5_10shared_ptrINS0_11TurboModuleEEERKNS5_12basic_stringIcNS5_11char_traitsIcEENS5_9allocatorIcEEEEEEENS7_INS0_25LongLivedObjectCollectionEEE, symObjAddr: 0x44, symBinAddr: 0xB6E8, symSize: 0x44 }
  - { offset: 0x9A3B7, size: 0x8, addend: 0x0, symName: __ZN8facebook3jsi6Object20createFromHostObjectERNS0_7RuntimeENSt3__110shared_ptrINS0_10HostObjectEEE, symObjAddr: 0x694, symBinAddr: 0xBD38, symSize: 0x9C }
  - { offset: 0x9A5AC, size: 0x8, addend: 0x0, symName: __ZNK8facebook3jsi6Object11setPropertyINS0_8FunctionEEEvRNS0_7RuntimeEPKcOT_, symObjAddr: 0x5F0, symBinAddr: 0xBC94, symSize: 0xA4 }
  - { offset: 0x9A77F, size: 0x8, addend: 0x0, symName: __ZN8facebook5react18TurboModuleBindingD2Ev, symObjAddr: 0x730, symBinAddr: 0xBDD4, symSize: 0x80 }
  - { offset: 0x9A99B, size: 0x8, addend: 0x0, symName: __ZNK8facebook3jsi6Object11setPropertyINS0_8FunctionEEEvRNS0_7RuntimeERKNS0_6StringEOT_, symObjAddr: 0xE98, symBinAddr: 0xC278, symSize: 0x90 }
  - { offset: 0x9AC3F, size: 0x8, addend: 0x0, symName: __ZN8facebook5react18TurboModuleBindingD1Ev, symObjAddr: 0x7C0, symBinAddr: 0xBE54, symSize: 0x4 }
  - { offset: 0x9AC62, size: 0x8, addend: 0x0, symName: __ZN8facebook5react18TurboModuleBindingD1Ev, symObjAddr: 0x7C0, symBinAddr: 0xBE54, symSize: 0x4 }
  - { offset: 0x9AC75, size: 0x8, addend: 0x0, symName: __ZN8facebook5react18TurboModuleBindingD0Ev, symObjAddr: 0x7C4, symBinAddr: 0xBE58, symSize: 0x14 }
  - { offset: 0x9B0C5, size: 0x8, addend: 0x0, symName: __ZNK8facebook5react18TurboModuleBinding9getModuleERNS_3jsi7RuntimeERKNSt3__112basic_stringIcNS5_11char_traitsIcEENS5_9allocatorIcEEEE, symObjAddr: 0x7D8, symBinAddr: 0xBE6C, symSize: 0x344 }
  - { offset: 0x9C32C, size: 0x8, addend: 0x0, symName: '__ZNSt3__110__function6__funcIZN8facebook5react18TurboModuleBinding7installERNS2_3jsi7RuntimeEONS_8functionIFNS_10shared_ptrINS3_11TurboModuleEEERKNS_12basic_stringIcNS_11char_traitsIcEENS_9allocatorIcEEEEEEESM_NS9_INS3_25LongLivedObjectCollectionEEEE3$_0NSF_ISP_EEFNS5_5ValueES7_RKSR_PSS_mEED1Ev', symObjAddr: 0xFE4, symBinAddr: 0xC36C, symSize: 0x30 }
  - { offset: 0x9C422, size: 0x8, addend: 0x0, symName: '__ZNSt3__110__function6__funcIZN8facebook5react18TurboModuleBinding7installERNS2_3jsi7RuntimeEONS_8functionIFNS_10shared_ptrINS3_11TurboModuleEEERKNS_12basic_stringIcNS_11char_traitsIcEENS_9allocatorIcEEEEEEESM_NS9_INS3_25LongLivedObjectCollectionEEEE3$_0NSF_ISP_EEFNS5_5ValueES7_RKSR_PSS_mEED0Ev', symObjAddr: 0x1014, symBinAddr: 0xC39C, symSize: 0x30 }
  - { offset: 0x9C6C8, size: 0x8, addend: 0x0, symName: '__ZNKSt3__110__function6__funcIZN8facebook5react18TurboModuleBinding7installERNS2_3jsi7RuntimeEONS_8functionIFNS_10shared_ptrINS3_11TurboModuleEEERKNS_12basic_stringIcNS_11char_traitsIcEENS_9allocatorIcEEEEEEESM_NS9_INS3_25LongLivedObjectCollectionEEEE3$_0NSF_ISP_EEFNS5_5ValueES7_RKSR_PSS_mEE7__cloneEv', symObjAddr: 0x1044, symBinAddr: 0xC3CC, symSize: 0x88 }
  - { offset: 0x9CB57, size: 0x8, addend: 0x0, symName: '__ZNKSt3__110__function6__funcIZN8facebook5react18TurboModuleBinding7installERNS2_3jsi7RuntimeEONS_8functionIFNS_10shared_ptrINS3_11TurboModuleEEERKNS_12basic_stringIcNS_11char_traitsIcEENS_9allocatorIcEEEEEEESM_NS9_INS3_25LongLivedObjectCollectionEEEE3$_0NSF_ISP_EEFNS5_5ValueES7_RKSR_PSS_mEE7__cloneEPNS0_6__baseISV_EE', symObjAddr: 0x10CC, symBinAddr: 0xC454, symSize: 0x68 }
  - { offset: 0x9CDCD, size: 0x8, addend: 0x0, symName: '__ZNSt3__110__function6__funcIZN8facebook5react18TurboModuleBinding7installERNS2_3jsi7RuntimeEONS_8functionIFNS_10shared_ptrINS3_11TurboModuleEEERKNS_12basic_stringIcNS_11char_traitsIcEENS_9allocatorIcEEEEEEESM_NS9_INS3_25LongLivedObjectCollectionEEEE3$_0NSF_ISP_EEFNS5_5ValueES7_RKSR_PSS_mEE7destroyEv', symObjAddr: 0x1134, symBinAddr: 0xC4BC, symSize: 0x8 }
  - { offset: 0x9CE57, size: 0x8, addend: 0x0, symName: '__ZNSt3__110__function6__funcIZN8facebook5react18TurboModuleBinding7installERNS2_3jsi7RuntimeEONS_8functionIFNS_10shared_ptrINS3_11TurboModuleEEERKNS_12basic_stringIcNS_11char_traitsIcEENS_9allocatorIcEEEEEEESM_NS9_INS3_25LongLivedObjectCollectionEEEE3$_0NSF_ISP_EEFNS5_5ValueES7_RKSR_PSS_mEE18destroy_deallocateEv', symObjAddr: 0x113C, symBinAddr: 0xC4C4, symSize: 0x28 }
  - { offset: 0x9D0FF, size: 0x8, addend: 0x0, symName: '__ZNSt3__110__function6__funcIZN8facebook5react18TurboModuleBinding7installERNS2_3jsi7RuntimeEONS_8functionIFNS_10shared_ptrINS3_11TurboModuleEEERKNS_12basic_stringIcNS_11char_traitsIcEENS_9allocatorIcEEEEEEESM_NS9_INS3_25LongLivedObjectCollectionEEEE3$_0NSF_ISP_EEFNS5_5ValueES7_RKSR_PSS_mEEclES7_ST_OSU_Om', symObjAddr: 0x1164, symBinAddr: 0xC4EC, symSize: 0x120 }
  - { offset: 0x9D5D4, size: 0x8, addend: 0x0, symName: __ZNSt16invalid_argumentC1B8ne200100EPKc, symObjAddr: 0x1330, symBinAddr: 0xC654, symSize: 0x24 }
  - { offset: 0x9D631, size: 0x8, addend: 0x0, symName: '__ZNKSt3__110__function6__funcIZN8facebook5react18TurboModuleBinding7installERNS2_3jsi7RuntimeEONS_8functionIFNS_10shared_ptrINS3_11TurboModuleEEERKNS_12basic_stringIcNS_11char_traitsIcEENS_9allocatorIcEEEEEEESM_NS9_INS3_25LongLivedObjectCollectionEEEE3$_0NSF_ISP_EEFNS5_5ValueES7_RKSR_PSS_mEE6targetERKSt9type_info', symObjAddr: 0x1284, symBinAddr: 0xC60C, symSize: 0x3C }
  - { offset: 0x9D6E3, size: 0x8, addend: 0x0, symName: '__ZNKSt3__110__function6__funcIZN8facebook5react18TurboModuleBinding7installERNS2_3jsi7RuntimeEONS_8functionIFNS_10shared_ptrINS3_11TurboModuleEEERKNS_12basic_stringIcNS_11char_traitsIcEENS_9allocatorIcEEEEEEESM_NS9_INS3_25LongLivedObjectCollectionEEEE3$_0NSF_ISP_EEFNS5_5ValueES7_RKSR_PSS_mEE11target_typeEv', symObjAddr: 0x12C0, symBinAddr: 0xC648, symSize: 0xC }
  - { offset: 0x9D9E4, size: 0x8, addend: 0x0, symName: __ZNSt3__120__shared_ptr_emplaceIN8facebook5react27BridgelessNativeModuleProxyENS_9allocatorIS3_EEEC2B8ne200100IJRNS1_3jsi7RuntimeENS_8functionIFNS_10shared_ptrINS2_11TurboModuleEEERKNS_12basic_stringIcNS_11char_traitsIcEENS4_IcEEEEEEESN_RNSC_INS2_25LongLivedObjectCollectionEEEES5_Li0EEES5_DpOT_, symObjAddr: 0x1418, symBinAddr: 0xC6F0, symSize: 0x4C }
  - { offset: 0x9DC42, size: 0x8, addend: 0x0, symName: __ZNSt3__120__shared_ptr_emplaceIN8facebook5react27BridgelessNativeModuleProxyENS_9allocatorIS3_EEED1Ev, symObjAddr: 0x1464, symBinAddr: 0xC73C, symSize: 0x14 }
  - { offset: 0x9DC64, size: 0x8, addend: 0x0, symName: __ZNSt3__120__shared_ptr_emplaceIN8facebook5react27BridgelessNativeModuleProxyENS_9allocatorIS3_EEED1Ev, symObjAddr: 0x1464, symBinAddr: 0xC73C, symSize: 0x14 }
  - { offset: 0x9DC9A, size: 0x8, addend: 0x0, symName: __ZNSt3__120__shared_ptr_emplaceIN8facebook5react27BridgelessNativeModuleProxyENS_9allocatorIS3_EEED0Ev, symObjAddr: 0x1478, symBinAddr: 0xC750, symSize: 0x24 }
  - { offset: 0x9DD65, size: 0x8, addend: 0x0, symName: __ZNSt3__120__shared_ptr_emplaceIN8facebook5react27BridgelessNativeModuleProxyENS_9allocatorIS3_EEE16__on_zero_sharedEv, symObjAddr: 0x149C, symBinAddr: 0xC774, symSize: 0xC }
  - { offset: 0x9DD8E, size: 0x8, addend: 0x0, symName: __ZNSt3__120__shared_ptr_emplaceIN8facebook5react27BridgelessNativeModuleProxyENS_9allocatorIS3_EEE16__on_zero_sharedEv, symObjAddr: 0x149C, symBinAddr: 0xC774, symSize: 0xC }
  - { offset: 0x9DDAB, size: 0x8, addend: 0x0, symName: __ZNSt3__120__shared_ptr_emplaceIN8facebook5react27BridgelessNativeModuleProxyENS_9allocatorIS3_EEE16__on_zero_sharedEv, symObjAddr: 0x149C, symBinAddr: 0xC774, symSize: 0xC }
  - { offset: 0x9DDC8, size: 0x8, addend: 0x0, symName: __ZNSt3__120__shared_ptr_emplaceIN8facebook5react27BridgelessNativeModuleProxyENS_9allocatorIS3_EEE16__on_zero_sharedEv, symObjAddr: 0x149C, symBinAddr: 0xC774, symSize: 0xC }
  - { offset: 0x9DDF3, size: 0x8, addend: 0x0, symName: __ZNSt3__120__shared_ptr_emplaceIN8facebook5react27BridgelessNativeModuleProxyENS_9allocatorIS3_EEE21__on_zero_shared_weakEv, symObjAddr: 0x14A8, symBinAddr: 0xC780, symSize: 0x4 }
  - { offset: 0x9DE25, size: 0x8, addend: 0x0, symName: __ZNSt3__120__shared_ptr_emplaceIN8facebook5react27BridgelessNativeModuleProxyENS_9allocatorIS3_EEE21__on_zero_shared_weakEv, symObjAddr: 0x14A8, symBinAddr: 0xC780, symSize: 0x4 }
  - { offset: 0x9DE46, size: 0x8, addend: 0x0, symName: __ZNSt3__120__shared_ptr_emplaceIN8facebook5react27BridgelessNativeModuleProxyENS_9allocatorIS3_EEE21__on_zero_shared_weakEv, symObjAddr: 0x14A8, symBinAddr: 0xC780, symSize: 0x4 }
  - { offset: 0x9DE68, size: 0x8, addend: 0x0, symName: __ZNSt3__120__shared_ptr_emplaceIN8facebook5react27BridgelessNativeModuleProxyENS_9allocatorIS3_EEE21__on_zero_shared_weakEv, symObjAddr: 0x14A8, symBinAddr: 0xC780, symSize: 0x4 }
  - { offset: 0x9DE9B, size: 0x8, addend: 0x0, symName: __ZNSt3__120__shared_ptr_emplaceIN8facebook5react27BridgelessNativeModuleProxyENS_9allocatorIS3_EEE21__on_zero_shared_weakEv, symObjAddr: 0x14A8, symBinAddr: 0xC780, symSize: 0x4 }
  - { offset: 0x9DF23, size: 0x8, addend: 0x0, symName: __ZN8facebook5react27BridgelessNativeModuleProxyC2ERNS_3jsi7RuntimeEONSt3__18functionIFNS5_10shared_ptrINS0_11TurboModuleEEERKNS5_12basic_stringIcNS5_11char_traitsIcEENS5_9allocatorIcEEEEEEESK_NS7_INS0_25LongLivedObjectCollectionEEE, symObjAddr: 0x154C, symBinAddr: 0xC824, symSize: 0xFC }
  - { offset: 0x9E418, size: 0x8, addend: 0x0, symName: __ZN8facebook5react27BridgelessNativeModuleProxyD1Ev, symObjAddr: 0x1648, symBinAddr: 0xC920, symSize: 0x50 }
  - { offset: 0x9E53E, size: 0x8, addend: 0x0, symName: __ZN8facebook5react27BridgelessNativeModuleProxyD0Ev, symObjAddr: 0x1698, symBinAddr: 0xC970, symSize: 0x54 }
  - { offset: 0x9E7C2, size: 0x8, addend: 0x0, symName: __ZN8facebook5react27BridgelessNativeModuleProxy3getERNS_3jsi7RuntimeERKNS2_10PropNameIDE, symObjAddr: 0x16EC, symBinAddr: 0xC9C4, symSize: 0x158 }
  - { offset: 0x9ECFF, size: 0x8, addend: 0x0, symName: __ZN8facebook5react27BridgelessNativeModuleProxy3setERNS_3jsi7RuntimeERKNS2_10PropNameIDERKNS2_5ValueE, symObjAddr: 0x1844, symBinAddr: 0xCB1C, symSize: 0x58 }
  - { offset: 0x9EDBB, size: 0x8, addend: 0x0, symName: __ZN8facebook3jsi7JSErrorC1ERNS0_7RuntimeEPKc, symObjAddr: 0x189C, symBinAddr: 0xCB74, symSize: 0x74 }
  - { offset: 0x9F55B, size: 0x8, addend: 0x0, symName: __ZN8facebook5react8systrace8rendererIA7_cvE6renderERA7_Kc, symObjAddr: 0x1E50, symBinAddr: 0xD078, symSize: 0xE4 }
  - { offset: 0x9F81E, size: 0x8, addend: 0x0, symName: __ZN8facebook5react8systrace8rendererINSt3__112basic_stringIcNS3_11char_traitsIcEENS3_9allocatorIcEEEEvE6renderERKS9_, symObjAddr: 0x2640, symBinAddr: 0xD528, symSize: 0xEC }
  - { offset: 0x9FAE5, size: 0x8, addend: 0x0, symName: __ZNSt3__16vectorINS_12basic_stringIcNS_11char_traitsIcEENS_9allocatorIcEEEENS4_IS6_EEE16__init_with_sizeB8ne200100IPKS6_SB_EEvT_T0_m, symObjAddr: 0x272C, symBinAddr: 0xD614, symSize: 0x84 }
  - { offset: 0x9FD45, size: 0x8, addend: 0x0, symName: __ZNSt3__112basic_stringIcNS_11char_traitsIcEENS_9allocatorIcEEEC2B8ne200100ENS_24__uninitialized_size_tagEmRKS4_, symObjAddr: 0x2A90, symBinAddr: 0xD8E4, symSize: 0x78 }
  - { offset: 0x9FF07, size: 0x8, addend: 0x0, symName: __ZNSt3__16vectorINS_12basic_stringIcNS_11char_traitsIcEENS_9allocatorIcEEEENS4_IS6_EEE16__destroy_vectorclB8ne200100Ev, symObjAddr: 0x2A04, symBinAddr: 0xD858, symSize: 0x40 }
  - { offset: 0xA0152, size: 0x8, addend: 0x0, symName: __ZNSt3__119basic_ostringstreamIcNS_11char_traitsIcEENS_9allocatorIcEEEC1B8ne200100Ev, symObjAddr: 0x1F34, symBinAddr: 0xD15C, symSize: 0xC4 }
  - { offset: 0xA0246, size: 0x8, addend: 0x0, symName: __ZNKSt3__115basic_stringbufIcNS_11char_traitsIcEENS_9allocatorIcEEE3strB8ne200100IS4_EENS_12basic_stringIcS2_T_EERKS8_, symObjAddr: 0x2564, symBinAddr: 0xD44C, symSize: 0x90 }
  - { offset: 0xA0491, size: 0x8, addend: 0x0, symName: __ZNKSt3__115basic_stringbufIcNS_11char_traitsIcEENS_9allocatorIcEEE4viewB8ne200100Ev, symObjAddr: 0x25F4, symBinAddr: 0xD4DC, symSize: 0x4C }
  - { offset: 0xA04A5, size: 0x8, addend: 0x0, symName: __ZNSt3__119basic_ostringstreamIcNS_11char_traitsIcEENS_9allocatorIcEEED1Ev, symObjAddr: 0x1FF8, symBinAddr: 0xD220, symSize: 0x88 }
  - { offset: 0xA072E, size: 0x8, addend: 0x0, symName: __ZNSt3__115basic_stringbufIcNS_11char_traitsIcEENS_9allocatorIcEEEC2B8ne200100Ej, symObjAddr: 0x2080, symBinAddr: 0xD2A8, symSize: 0xA0 }
  - { offset: 0xA08B0, size: 0x8, addend: 0x0, symName: __ZNSt3__115basic_stringbufIcNS_11char_traitsIcEENS_9allocatorIcEEE15__init_buf_ptrsB8ne200100Ev, symObjAddr: 0x2120, symBinAddr: 0xD348, symSize: 0x104 }
  - { offset: 0xA0F60, size: 0x8, addend: 0x0, symName: __ZNKSt3__115basic_stringbufIcNS_11char_traitsIcEENS_9allocatorIcEEE3strB8ne200100IS4_EENS_12basic_stringIcS2_T_EERKS8_, symObjAddr: 0x2564, symBinAddr: 0xD44C, symSize: 0x90 }
  - { offset: 0xA106F, size: 0x8, addend: 0x0, symName: __ZNKSt3__115basic_stringbufIcNS_11char_traitsIcEENS_9allocatorIcEEE4viewB8ne200100Ev, symObjAddr: 0x25F4, symBinAddr: 0xD4DC, symSize: 0x4C }
  - { offset: 0xA141F, size: 0x8, addend: 0x0, symName: __ZNSt3__16vectorINS_12basic_stringIcNS_11char_traitsIcEENS_9allocatorIcEEEENS4_IS6_EEE11__vallocateB8ne200100Em, symObjAddr: 0x27B0, symBinAddr: 0xD698, symSize: 0x48 }
  - { offset: 0xA148B, size: 0x8, addend: 0x0, symName: __ZNSt3__119__allocate_at_leastB8ne200100INS_9allocatorINS_12basic_stringIcNS_11char_traitsIcEENS1_IcEEEEEEEENS_19__allocation_resultINS_16allocator_traitsIT_E7pointerEEERSA_m, symObjAddr: 0x280C, symBinAddr: 0xD6E0, symSize: 0x44 }
  - { offset: 0xA16EE, size: 0x8, addend: 0x0, symName: __ZNSt3__128__exception_guard_exceptionsINS_29_AllocatorDestroyRangeReverseINS_9allocatorINS_12basic_stringIcNS_11char_traitsIcEENS2_IcEEEEEEPS7_EEED2B8ne200100Ev, symObjAddr: 0x298C, symBinAddr: 0xD7E0, symSize: 0x34 }
  - { offset: 0xA16F9, size: 0x8, addend: 0x0, symName: __ZNSt3__128__exception_guard_exceptionsINS_29_AllocatorDestroyRangeReverseINS_9allocatorINS_12basic_stringIcNS_11char_traitsIcEENS2_IcEEEEEEPS7_EEED2B8ne200100Ev, symObjAddr: 0x298C, symBinAddr: 0xD7E0, symSize: 0x34 }
  - { offset: 0xA1738, size: 0x8, addend: 0x0, symName: __ZNKSt3__129_AllocatorDestroyRangeReverseINS_9allocatorINS_12basic_stringIcNS_11char_traitsIcEENS1_IcEEEEEEPS6_EclB8ne200100Ev, symObjAddr: 0x29C0, symBinAddr: 0xD814, symSize: 0x44 }
  - { offset: 0xA19B6, size: 0x8, addend: 0x0, symName: __ZNSt3__16vectorINS_12basic_stringIcNS_11char_traitsIcEENS_9allocatorIcEEEENS4_IS6_EEE5clearB8ne200100Ev, symObjAddr: 0x2A44, symBinAddr: 0xD898, symSize: 0x4C }
  - { offset: 0xA3B7C, size: 0x8, addend: 0x0, symName: __ZN8facebook5react21TurboModulePerfLogger12g_perfLoggerE, symObjAddr: 0xD460, symBinAddr: 0x1C198, symSize: 0x0 }
  - { offset: 0xA3B8A, size: 0x8, addend: 0x0, symName: __ZN8facebook5react21TurboModulePerfLogger13enableLoggingEONSt3__110unique_ptrINS0_22NativeModulePerfLoggerENS2_14default_deleteIS4_EEEE, symObjAddr: 0x38, symBinAddr: 0xD994, symSize: 0x28 }
  - { offset: 0xA3BB6, size: 0x8, addend: 0x0, symName: __ZN8facebook5react21TurboModulePerfLogger13enableLoggingEONSt3__110unique_ptrINS0_22NativeModulePerfLoggerENS2_14default_deleteIS4_EEEE, symObjAddr: 0x38, symBinAddr: 0xD994, symSize: 0x28 }
  - { offset: 0xA3BD3, size: 0x8, addend: 0x0, symName: __ZN8facebook5react21TurboModulePerfLogger13enableLoggingEONSt3__110unique_ptrINS0_22NativeModulePerfLoggerENS2_14default_deleteIS4_EEEE, symObjAddr: 0x38, symBinAddr: 0xD994, symSize: 0x28 }
  - { offset: 0xA3C49, size: 0x8, addend: 0x0, symName: __ZN8facebook5react21TurboModulePerfLogger14disableLoggingEv, symObjAddr: 0x60, symBinAddr: 0xD9BC, symSize: 0x20 }
  - { offset: 0xA3C66, size: 0x8, addend: 0x0, symName: __ZN8facebook5react21TurboModulePerfLogger14disableLoggingEv, symObjAddr: 0x60, symBinAddr: 0xD9BC, symSize: 0x20 }
  - { offset: 0xA3C80, size: 0x8, addend: 0x0, symName: __ZN8facebook5react21TurboModulePerfLogger14disableLoggingEv, symObjAddr: 0x60, symBinAddr: 0xD9BC, symSize: 0x20 }
  - { offset: 0xA3CCE, size: 0x8, addend: 0x0, symName: __ZN8facebook5react21TurboModulePerfLogger21moduleDataCreateStartEPKci, symObjAddr: 0x80, symBinAddr: 0xD9DC, symSize: 0x24 }
  - { offset: 0xA3D38, size: 0x8, addend: 0x0, symName: __ZN8facebook5react21TurboModulePerfLogger19moduleDataCreateEndEPKci, symObjAddr: 0xA4, symBinAddr: 0xDA00, symSize: 0x24 }
  - { offset: 0xA3DA2, size: 0x8, addend: 0x0, symName: __ZN8facebook5react21TurboModulePerfLogger17moduleCreateStartEPKci, symObjAddr: 0xC8, symBinAddr: 0xDA24, symSize: 0x24 }
  - { offset: 0xA3E0C, size: 0x8, addend: 0x0, symName: __ZN8facebook5react21TurboModulePerfLogger20moduleCreateCacheHitEPKci, symObjAddr: 0xEC, symBinAddr: 0xDA48, symSize: 0x24 }
  - { offset: 0xA3E76, size: 0x8, addend: 0x0, symName: __ZN8facebook5react21TurboModulePerfLogger26moduleCreateConstructStartEPKci, symObjAddr: 0x110, symBinAddr: 0xDA6C, symSize: 0x24 }
  - { offset: 0xA3EE0, size: 0x8, addend: 0x0, symName: __ZN8facebook5react21TurboModulePerfLogger24moduleCreateConstructEndEPKci, symObjAddr: 0x134, symBinAddr: 0xDA90, symSize: 0x24 }
  - { offset: 0xA3F4A, size: 0x8, addend: 0x0, symName: __ZN8facebook5react21TurboModulePerfLogger22moduleCreateSetUpStartEPKci, symObjAddr: 0x158, symBinAddr: 0xDAB4, symSize: 0x24 }
  - { offset: 0xA3FB4, size: 0x8, addend: 0x0, symName: __ZN8facebook5react21TurboModulePerfLogger20moduleCreateSetUpEndEPKci, symObjAddr: 0x17C, symBinAddr: 0xDAD8, symSize: 0x24 }
  - { offset: 0xA401E, size: 0x8, addend: 0x0, symName: __ZN8facebook5react21TurboModulePerfLogger15moduleCreateEndEPKci, symObjAddr: 0x1A0, symBinAddr: 0xDAFC, symSize: 0x24 }
  - { offset: 0xA4088, size: 0x8, addend: 0x0, symName: __ZN8facebook5react21TurboModulePerfLogger16moduleCreateFailEPKci, symObjAddr: 0x1C4, symBinAddr: 0xDB20, symSize: 0x24 }
  - { offset: 0xA40F2, size: 0x8, addend: 0x0, symName: __ZN8facebook5react21TurboModulePerfLogger29moduleJSRequireBeginningStartEPKc, symObjAddr: 0x1E8, symBinAddr: 0xDB44, symSize: 0x20 }
  - { offset: 0xA414D, size: 0x8, addend: 0x0, symName: __ZN8facebook5react21TurboModulePerfLogger32moduleJSRequireBeginningCacheHitEPKc, symObjAddr: 0x208, symBinAddr: 0xDB64, symSize: 0x20 }
  - { offset: 0xA41A8, size: 0x8, addend: 0x0, symName: __ZN8facebook5react21TurboModulePerfLogger27moduleJSRequireBeginningEndEPKc, symObjAddr: 0x228, symBinAddr: 0xDB84, symSize: 0x20 }
  - { offset: 0xA4203, size: 0x8, addend: 0x0, symName: __ZN8facebook5react21TurboModulePerfLogger28moduleJSRequireBeginningFailEPKc, symObjAddr: 0x248, symBinAddr: 0xDBA4, symSize: 0x20 }
  - { offset: 0xA425E, size: 0x8, addend: 0x0, symName: __ZN8facebook5react21TurboModulePerfLogger26moduleJSRequireEndingStartEPKc, symObjAddr: 0x268, symBinAddr: 0xDBC4, symSize: 0x20 }
  - { offset: 0xA42B9, size: 0x8, addend: 0x0, symName: __ZN8facebook5react21TurboModulePerfLogger24moduleJSRequireEndingEndEPKc, symObjAddr: 0x288, symBinAddr: 0xDBE4, symSize: 0x20 }
  - { offset: 0xA4314, size: 0x8, addend: 0x0, symName: __ZN8facebook5react21TurboModulePerfLogger25moduleJSRequireEndingFailEPKc, symObjAddr: 0x2A8, symBinAddr: 0xDC04, symSize: 0x20 }
  - { offset: 0xA436F, size: 0x8, addend: 0x0, symName: __ZN8facebook5react21TurboModulePerfLogger19syncMethodCallStartEPKcS3_, symObjAddr: 0x2C8, symBinAddr: 0xDC24, symSize: 0x24 }
  - { offset: 0xA43D9, size: 0x8, addend: 0x0, symName: __ZN8facebook5react21TurboModulePerfLogger32syncMethodCallArgConversionStartEPKcS3_, symObjAddr: 0x2EC, symBinAddr: 0xDC48, symSize: 0x24 }
  - { offset: 0xA4443, size: 0x8, addend: 0x0, symName: __ZN8facebook5react21TurboModulePerfLogger30syncMethodCallArgConversionEndEPKcS3_, symObjAddr: 0x310, symBinAddr: 0xDC6C, symSize: 0x24 }
  - { offset: 0xA44AD, size: 0x8, addend: 0x0, symName: __ZN8facebook5react21TurboModulePerfLogger28syncMethodCallExecutionStartEPKcS3_, symObjAddr: 0x334, symBinAddr: 0xDC90, symSize: 0x24 }
  - { offset: 0xA4517, size: 0x8, addend: 0x0, symName: __ZN8facebook5react21TurboModulePerfLogger26syncMethodCallExecutionEndEPKcS3_, symObjAddr: 0x358, symBinAddr: 0xDCB4, symSize: 0x24 }
  - { offset: 0xA4581, size: 0x8, addend: 0x0, symName: __ZN8facebook5react21TurboModulePerfLogger35syncMethodCallReturnConversionStartEPKcS3_, symObjAddr: 0x37C, symBinAddr: 0xDCD8, symSize: 0x24 }
  - { offset: 0xA45EB, size: 0x8, addend: 0x0, symName: __ZN8facebook5react21TurboModulePerfLogger33syncMethodCallReturnConversionEndEPKcS3_, symObjAddr: 0x3A0, symBinAddr: 0xDCFC, symSize: 0x24 }
  - { offset: 0xA4655, size: 0x8, addend: 0x0, symName: __ZN8facebook5react21TurboModulePerfLogger17syncMethodCallEndEPKcS3_, symObjAddr: 0x3C4, symBinAddr: 0xDD20, symSize: 0x24 }
  - { offset: 0xA46BF, size: 0x8, addend: 0x0, symName: __ZN8facebook5react21TurboModulePerfLogger18syncMethodCallFailEPKcS3_, symObjAddr: 0x3E8, symBinAddr: 0xDD44, symSize: 0x24 }
  - { offset: 0xA4729, size: 0x8, addend: 0x0, symName: __ZN8facebook5react21TurboModulePerfLogger20asyncMethodCallStartEPKcS3_, symObjAddr: 0x40C, symBinAddr: 0xDD68, symSize: 0x24 }
  - { offset: 0xA4793, size: 0x8, addend: 0x0, symName: __ZN8facebook5react21TurboModulePerfLogger33asyncMethodCallArgConversionStartEPKcS3_, symObjAddr: 0x430, symBinAddr: 0xDD8C, symSize: 0x24 }
  - { offset: 0xA47FD, size: 0x8, addend: 0x0, symName: __ZN8facebook5react21TurboModulePerfLogger31asyncMethodCallArgConversionEndEPKcS3_, symObjAddr: 0x454, symBinAddr: 0xDDB0, symSize: 0x24 }
  - { offset: 0xA4867, size: 0x8, addend: 0x0, symName: __ZN8facebook5react21TurboModulePerfLogger23asyncMethodCallDispatchEPKcS3_, symObjAddr: 0x478, symBinAddr: 0xDDD4, symSize: 0x24 }
  - { offset: 0xA48D1, size: 0x8, addend: 0x0, symName: __ZN8facebook5react21TurboModulePerfLogger18asyncMethodCallEndEPKcS3_, symObjAddr: 0x49C, symBinAddr: 0xDDF8, symSize: 0x24 }
  - { offset: 0xA493B, size: 0x8, addend: 0x0, symName: __ZN8facebook5react21TurboModulePerfLogger19asyncMethodCallFailEPKcS3_, symObjAddr: 0x4C0, symBinAddr: 0xDE1C, symSize: 0x24 }
  - { offset: 0xA49A5, size: 0x8, addend: 0x0, symName: __ZN8facebook5react21TurboModulePerfLogger35asyncMethodCallBatchPreprocessStartEv, symObjAddr: 0x4E4, symBinAddr: 0xDE40, symSize: 0x1C }
  - { offset: 0xA49D5, size: 0x8, addend: 0x0, symName: __ZN8facebook5react21TurboModulePerfLogger35asyncMethodCallBatchPreprocessStartEv, symObjAddr: 0x4E4, symBinAddr: 0xDE40, symSize: 0x1C }
  - { offset: 0xA49F4, size: 0x8, addend: 0x0, symName: __ZN8facebook5react21TurboModulePerfLogger33asyncMethodCallBatchPreprocessEndEi, symObjAddr: 0x500, symBinAddr: 0xDE5C, symSize: 0x20 }
  - { offset: 0xA4A54, size: 0x8, addend: 0x0, symName: __ZN8facebook5react21TurboModulePerfLogger29asyncMethodCallExecutionStartEPKcS3_i, symObjAddr: 0x520, symBinAddr: 0xDE7C, symSize: 0x28 }
  - { offset: 0xA4AD6, size: 0x8, addend: 0x0, symName: __ZN8facebook5react21TurboModulePerfLogger42asyncMethodCallExecutionArgConversionStartEPKcS3_i, symObjAddr: 0x548, symBinAddr: 0xDEA4, symSize: 0x28 }
  - { offset: 0xA4B58, size: 0x8, addend: 0x0, symName: __ZN8facebook5react21TurboModulePerfLogger40asyncMethodCallExecutionArgConversionEndEPKcS3_i, symObjAddr: 0x570, symBinAddr: 0xDECC, symSize: 0x28 }
  - { offset: 0xA4BDA, size: 0x8, addend: 0x0, symName: __ZN8facebook5react21TurboModulePerfLogger27asyncMethodCallExecutionEndEPKcS3_i, symObjAddr: 0x598, symBinAddr: 0xDEF4, symSize: 0x28 }
  - { offset: 0xA4C5C, size: 0x8, addend: 0x0, symName: __ZN8facebook5react21TurboModulePerfLogger28asyncMethodCallExecutionFailEPKcS3_i, symObjAddr: 0x5C0, symBinAddr: 0xDF1C, symSize: 0x28 }
  - { offset: 0xA623B, size: 0x8, addend: 0x0, symName: __ZNSt3__110unique_ptrIN8facebook5react22NativeModulePerfLoggerENS_14default_deleteIS3_EEED1B8ne200100Ev, symObjAddr: 0x0, symBinAddr: 0xD95C, symSize: 0x38 }
  - { offset: 0xA6364, size: 0x8, addend: 0x0, symName: __GLOBAL__sub_I_TurboModulePerfLogger.cpp, symObjAddr: 0x5E8, symBinAddr: 0xDF44, symSize: 0x1C }
  - { offset: 0xA637C, size: 0x8, addend: 0x0, symName: __GLOBAL__sub_I_TurboModulePerfLogger.cpp, symObjAddr: 0x5E8, symBinAddr: 0xDF44, symSize: 0x1C }
  - { offset: 0xAA30B, size: 0x8, addend: 0x0, symName: __ZN8facebook5react23createPromiseAsJSIValueERNS_3jsi7RuntimeEONSt3__18functionIFvS3_NS4_10shared_ptrINS0_7PromiseEEEEEE, symObjAddr: 0x824, symBinAddr: 0xE784, symSize: 0x31C }
  - { offset: 0xAB138, size: 0x8, addend: 0x0, symName: __ZN8facebook5react17deepCopyJSIObjectERNS_3jsi7RuntimeERKNS1_6ObjectE, symObjAddr: 0x0, symBinAddr: 0xDF60, symSize: 0x1B8 }
  - { offset: 0xAB64F, size: 0x8, addend: 0x0, symName: __ZN8facebook5reactL16deepCopyJSIValueERNS_3jsi7RuntimeERKNS1_5ValueE, symObjAddr: 0x1B8, symBinAddr: 0xE118, symSize: 0x1EC }
  - { offset: 0xAC0A5, size: 0x8, addend: 0x0, symName: __ZN8facebook5react16deepCopyJSIArrayERNS_3jsi7RuntimeERKNS1_5ArrayE, symObjAddr: 0x3A4, symBinAddr: 0xE304, symSize: 0x110 }
  - { offset: 0xB34BE, size: 0x8, addend: 0x0, symName: __ZN8facebook5react7PromiseC2ERNS_3jsi7RuntimeENS2_8FunctionES5_, symObjAddr: 0x4B4, symBinAddr: 0xE414, symSize: 0x2C }
  - { offset: 0xB3683, size: 0x8, addend: 0x0, symName: __ZN8facebook5react7PromiseC1ERNS_3jsi7RuntimeENS2_8FunctionES5_, symObjAddr: 0x4E0, symBinAddr: 0xE440, symSize: 0x2C }
  - { offset: 0xB36BC, size: 0x8, addend: 0x0, symName: __ZN8facebook5react7PromiseC1ERNS_3jsi7RuntimeENS2_8FunctionES5_, symObjAddr: 0x4E0, symBinAddr: 0xE440, symSize: 0x2C }
  - { offset: 0xB38EB, size: 0x8, addend: 0x0, symName: __ZN8facebook5react7Promise7resolveERKNS_3jsi5ValueE, symObjAddr: 0x50C, symBinAddr: 0xE46C, symSize: 0xC8 }
  - { offset: 0xB3B31, size: 0x8, addend: 0x0, symName: __ZN8facebook5react7Promise6rejectERKNSt3__112basic_stringIcNS2_11char_traitsIcEENS2_9allocatorIcEEEE, symObjAddr: 0x5D4, symBinAddr: 0xE534, symSize: 0x1AC }
  - { offset: 0xB401B, size: 0x8, addend: 0x0, symName: __ZNK8facebook3jsi6Object11setPropertyINS0_6StringEEEvRNS0_7RuntimeEPKcOT_, symObjAddr: 0x780, symBinAddr: 0xE6E0, symSize: 0xA4 }
  - { offset: 0xB424C, size: 0x8, addend: 0x0, symName: __ZNK8facebook3jsi6Object11setPropertyINS0_6StringEEEvRNS0_7RuntimeERKS3_OT_, symObjAddr: 0xC64, symBinAddr: 0xEB50, symSize: 0x90 }
  - { offset: 0xB4A8E, size: 0x8, addend: 0x0, symName: __ZNSt3__110__function12__value_funcIFvRN8facebook3jsi7RuntimeENS_10shared_ptrINS2_5react7PromiseEEEEEC2B8ne200100EOSB_, symObjAddr: 0xCF4, symBinAddr: 0xEBE0, symSize: 0x64 }
  - { offset: 0xB4B30, size: 0x8, addend: 0x0, symName: __ZN8facebook5react7PromiseD1Ev, symObjAddr: 0xB40, symBinAddr: 0xEAA0, symSize: 0x58 }
  - { offset: 0xB4C96, size: 0x8, addend: 0x0, symName: __ZN8facebook5react7PromiseD0Ev, symObjAddr: 0xB98, symBinAddr: 0xEAF8, symSize: 0x58 }
  - { offset: 0xB4ED2, size: 0x8, addend: 0x0, symName: '__ZNSt3__110__function6__funcIZN8facebook5react23createPromiseAsJSIValueERNS2_3jsi7RuntimeEONS_8functionIFvS6_NS_10shared_ptrINS3_7PromiseEEEEEEE3$_0NS_9allocatorISE_EEFNS4_5ValueES6_RKSH_PSI_mEED1Ev', symObjAddr: 0xD58, symBinAddr: 0xEC44, symSize: 0x58 }
  - { offset: 0xB502D, size: 0x8, addend: 0x0, symName: '__ZNSt3__110__function6__funcIZN8facebook5react23createPromiseAsJSIValueERNS2_3jsi7RuntimeEONS_8functionIFvS6_NS_10shared_ptrINS3_7PromiseEEEEEEE3$_0NS_9allocatorISE_EEFNS4_5ValueES6_RKSH_PSI_mEED0Ev', symObjAddr: 0xDB0, symBinAddr: 0xEC9C, symSize: 0x58 }
  - { offset: 0xB5433, size: 0x8, addend: 0x0, symName: '__ZNKSt3__110__function6__funcIZN8facebook5react23createPromiseAsJSIValueERNS2_3jsi7RuntimeEONS_8functionIFvS6_NS_10shared_ptrINS3_7PromiseEEEEEEE3$_0NS_9allocatorISE_EEFNS4_5ValueES6_RKSH_PSI_mEE7__cloneEv', symObjAddr: 0xE08, symBinAddr: 0xECF4, symSize: 0x54 }
  - { offset: 0xB57D1, size: 0x8, addend: 0x0, symName: '__ZNKSt3__110__function6__funcIZN8facebook5react23createPromiseAsJSIValueERNS2_3jsi7RuntimeEONS_8functionIFvS6_NS_10shared_ptrINS3_7PromiseEEEEEEE3$_0NS_9allocatorISE_EEFNS4_5ValueES6_RKSH_PSI_mEE7__cloneEPNS0_6__baseISL_EE', symObjAddr: 0xE5C, symBinAddr: 0xED48, symSize: 0x1C }
  - { offset: 0xB5922, size: 0x8, addend: 0x0, symName: '__ZNSt3__110__function6__funcIZN8facebook5react23createPromiseAsJSIValueERNS2_3jsi7RuntimeEONS_8functionIFvS6_NS_10shared_ptrINS3_7PromiseEEEEEEE3$_0NS_9allocatorISE_EEFNS4_5ValueES6_RKSH_PSI_mEE7destroyEv', symObjAddr: 0xE78, symBinAddr: 0xED64, symSize: 0x30 }
  - { offset: 0xB5A2B, size: 0x8, addend: 0x0, symName: '__ZNSt3__110__function6__funcIZN8facebook5react23createPromiseAsJSIValueERNS2_3jsi7RuntimeEONS_8functionIFvS6_NS_10shared_ptrINS3_7PromiseEEEEEEE3$_0NS_9allocatorISE_EEFNS4_5ValueES6_RKSH_PSI_mEE18destroy_deallocateEv', symObjAddr: 0xEA8, symBinAddr: 0xED94, symSize: 0x4C }
  - { offset: 0xB612A, size: 0x8, addend: 0x0, symName: '__ZNSt3__110__function6__funcIZN8facebook5react23createPromiseAsJSIValueERNS2_3jsi7RuntimeEONS_8functionIFvS6_NS_10shared_ptrINS3_7PromiseEEEEEEE3$_0NS_9allocatorISE_EEFNS4_5ValueES6_RKSH_PSI_mEEclES6_SJ_OSK_Om', symObjAddr: 0xEF4, symBinAddr: 0xEDE0, symSize: 0x1B4 }
  - { offset: 0xB69D3, size: 0x8, addend: 0x0, symName: '__ZNKSt3__110__function6__funcIZN8facebook5react23createPromiseAsJSIValueERNS2_3jsi7RuntimeEONS_8functionIFvS6_NS_10shared_ptrINS3_7PromiseEEEEEEE3$_0NS_9allocatorISE_EEFNS4_5ValueES6_RKSH_PSI_mEE6targetERKSt9type_info', symObjAddr: 0x10A8, symBinAddr: 0xEF94, symSize: 0x3C }
  - { offset: 0xB6A85, size: 0x8, addend: 0x0, symName: '__ZNKSt3__110__function6__funcIZN8facebook5react23createPromiseAsJSIValueERNS2_3jsi7RuntimeEONS_8functionIFvS6_NS_10shared_ptrINS3_7PromiseEEEEEEE3$_0NS_9allocatorISE_EEFNS4_5ValueES6_RKSH_PSI_mEE11target_typeEv', symObjAddr: 0x10E4, symBinAddr: 0xEFD0, symSize: 0xC }
  - { offset: 0xB6AC4, size: 0x8, addend: 0x0, symName: __ZNSt3__120__shared_ptr_emplaceIN8facebook5react7PromiseENS_9allocatorIS3_EEED1Ev, symObjAddr: 0x1154, symBinAddr: 0xEFDC, symSize: 0x14 }
  - { offset: 0xB6AE6, size: 0x8, addend: 0x0, symName: __ZNSt3__120__shared_ptr_emplaceIN8facebook5react7PromiseENS_9allocatorIS3_EEED1Ev, symObjAddr: 0x1154, symBinAddr: 0xEFDC, symSize: 0x14 }
  - { offset: 0xB6B1C, size: 0x8, addend: 0x0, symName: __ZNSt3__120__shared_ptr_emplaceIN8facebook5react7PromiseENS_9allocatorIS3_EEED0Ev, symObjAddr: 0x1168, symBinAddr: 0xEFF0, symSize: 0x24 }
  - { offset: 0xB6BE7, size: 0x8, addend: 0x0, symName: __ZNSt3__120__shared_ptr_emplaceIN8facebook5react7PromiseENS_9allocatorIS3_EEE16__on_zero_sharedEv, symObjAddr: 0x118C, symBinAddr: 0xF014, symSize: 0xC }
  - { offset: 0xB6C10, size: 0x8, addend: 0x0, symName: __ZNSt3__120__shared_ptr_emplaceIN8facebook5react7PromiseENS_9allocatorIS3_EEE16__on_zero_sharedEv, symObjAddr: 0x118C, symBinAddr: 0xF014, symSize: 0xC }
  - { offset: 0xB6C2D, size: 0x8, addend: 0x0, symName: __ZNSt3__120__shared_ptr_emplaceIN8facebook5react7PromiseENS_9allocatorIS3_EEE16__on_zero_sharedEv, symObjAddr: 0x118C, symBinAddr: 0xF014, symSize: 0xC }
  - { offset: 0xB6C4A, size: 0x8, addend: 0x0, symName: __ZNSt3__120__shared_ptr_emplaceIN8facebook5react7PromiseENS_9allocatorIS3_EEE16__on_zero_sharedEv, symObjAddr: 0x118C, symBinAddr: 0xF014, symSize: 0xC }
  - { offset: 0xB6CD3, size: 0x8, addend: 0x0, symName: __ZNSt3__120__shared_ptr_emplaceIN8facebook5react7PromiseENS_9allocatorIS3_EEE21__on_zero_shared_weakEv, symObjAddr: 0x1198, symBinAddr: 0xF020, symSize: 0x4 }
  - { offset: 0xB6D05, size: 0x8, addend: 0x0, symName: __ZNSt3__120__shared_ptr_emplaceIN8facebook5react7PromiseENS_9allocatorIS3_EEE21__on_zero_shared_weakEv, symObjAddr: 0x1198, symBinAddr: 0xF020, symSize: 0x4 }
  - { offset: 0xB6D26, size: 0x8, addend: 0x0, symName: __ZNSt3__120__shared_ptr_emplaceIN8facebook5react7PromiseENS_9allocatorIS3_EEE21__on_zero_shared_weakEv, symObjAddr: 0x1198, symBinAddr: 0xF020, symSize: 0x4 }
  - { offset: 0xB6D48, size: 0x8, addend: 0x0, symName: __ZNSt3__120__shared_ptr_emplaceIN8facebook5react7PromiseENS_9allocatorIS3_EEE21__on_zero_shared_weakEv, symObjAddr: 0x1198, symBinAddr: 0xF020, symSize: 0x4 }
  - { offset: 0xB6D7B, size: 0x8, addend: 0x0, symName: __ZNSt3__120__shared_ptr_emplaceIN8facebook5react7PromiseENS_9allocatorIS3_EEE21__on_zero_shared_weakEv, symObjAddr: 0x1198, symBinAddr: 0xF020, symSize: 0x4 }
  - { offset: 0xB8D1B, size: 0x8, addend: 0x0, symName: __ZN8facebook5react26TurboModuleWithJSIBindings18installJSIBindingsERKNSt3__110shared_ptrINS0_11TurboModuleEEERNS_3jsi7RuntimeE, symObjAddr: 0x0, symBinAddr: 0xF024, symSize: 0x58 }
  - { offset: 0xC2E6C, size: 0x8, addend: 0x0, symName: __ZN8facebook5react26TurboModuleWithJSIBindings18installJSIBindingsERKNSt3__110shared_ptrINS0_11TurboModuleEEERNS_3jsi7RuntimeE, symObjAddr: 0x0, symBinAddr: 0xF024, symSize: 0x58 }
...
