---
triple:          'arm64-apple-darwin'
binary-path:     '/Users/uk-aplatts/Development/InjuryIQ/ios/DerivedData/Build/Intermediates.noindex/ArchiveIntermediates/InjuryIQ/IntermediateBuildFilesPath/UninstalledProducts/iphoneos/fmt.framework/fmt'
relocations:
  - { offset: 0x33, size: 0x8, addend: 0x0, symName: _fmtVersionString, symObjAddr: 0x0, symBinAddr: 0x14D30, symSize: 0x0 }
  - { offset: 0x67, size: 0x8, addend: 0x0, symName: _fmtVersionNumber, symObjAddr: 0x28, symBinAddr: 0x14D58, symSize: 0x0 }
  - { offset: 0xD1, size: 0x8, addend: 0x0, symName: __ZN3fmt3v116detail17format_error_codeERNS1_6bufferIcEEiNS0_17basic_string_viewIcEE, symObjAddr: 0x34, symBinAddr: 0x4034, symSize: 0xCC }
  - { offset: 0xF6, size: 0x8, addend: 0x0, symName: __ZZN3fmt3v116detail17format_error_codeERNS1_6bufferIcEEiNS0_17basic_string_viewIcEEE3SEP, symObjAddr: 0x114A7, symBinAddr: 0x14EC7, symSize: 0x0 }
  - { offset: 0x10B, size: 0x8, addend: 0x0, symName: __ZZN3fmt3v116detail17format_error_codeERNS1_6bufferIcEEiNS0_17basic_string_viewIcEEE9ERROR_STR, symObjAddr: 0x114AA, symBinAddr: 0x14ECA, symSize: 0x0 }
  - { offset: 0x330, size: 0x8, addend: 0x0, symName: __ZN3fmt3v116detail12is_printableEj, symObjAddr: 0xF28, symBinAddr: 0x4F28, symSize: 0x204 }
  - { offset: 0x35B, size: 0x8, addend: 0x0, symName: __ZZN3fmt3v116detail12is_printableEjE11singletons0, symObjAddr: 0x114CA, symBinAddr: 0x14EEA, symSize: 0x0 }
  - { offset: 0x371, size: 0x8, addend: 0x0, symName: __ZZN3fmt3v116detail12is_printableEjE17singletons0_lower, symObjAddr: 0x1151C, symBinAddr: 0x14F3C, symSize: 0x0 }
  - { offset: 0x387, size: 0x8, addend: 0x0, symName: __ZZN3fmt3v116detail12is_printableEjE11singletons1, symObjAddr: 0x1163E, symBinAddr: 0x1505E, symSize: 0x0 }
  - { offset: 0x39D, size: 0x8, addend: 0x0, symName: __ZZN3fmt3v116detail12is_printableEjE17singletons1_lower, symObjAddr: 0x1168A, symBinAddr: 0x150AA, symSize: 0x0 }
  - { offset: 0x3B3, size: 0x8, addend: 0x0, symName: __ZZN3fmt3v116detail12is_printableEjE7normal0, symObjAddr: 0x11739, symBinAddr: 0x15159, symSize: 0x0 }
  - { offset: 0x3C9, size: 0x8, addend: 0x0, symName: __ZZN3fmt3v116detail12is_printableEjE7normal1, symObjAddr: 0x1186E, symBinAddr: 0x1528E, symSize: 0x0 }
  - { offset: 0x909, size: 0x8, addend: 0x0, symName: __ZN3fmt3v116detail9dragonbox10to_decimalIfEENS2_10decimal_fpIT_EES5_, symObjAddr: 0x112C, symBinAddr: 0x512C, symSize: 0x2B4 }
  - { offset: 0xA6F, size: 0x8, addend: 0x0, symName: __ZN3fmt3v116detail9dragonbox10to_decimalIfEENS2_10decimal_fpIT_EES5_, symObjAddr: 0x112C, symBinAddr: 0x512C, symSize: 0x2B4 }
  - { offset: 0xE1F, size: 0x8, addend: 0x0, symName: __ZN3fmt3v116detail9dragonbox10to_decimalIdEENS2_10decimal_fpIT_EES5_, symObjAddr: 0x13E0, symBinAddr: 0x53E0, symSize: 0x3EC }
  - { offset: 0x15CE, size: 0x8, addend: 0x0, symName: __ZN3fmt3v116detail9dragonbox16get_cached_powerEi, symObjAddr: 0x800, symBinAddr: 0x4800, symSize: 0x4 }
  - { offset: 0x15EC, size: 0x8, addend: 0x0, symName: __ZN3fmt3v116detail9dragonbox16get_cached_powerEi, symObjAddr: 0x800, symBinAddr: 0x4800, symSize: 0x4 }
  - { offset: 0x2475, size: 0x8, addend: 0x0, symName: __ZN3fmt3v116detail9write_locENS0_14basic_appenderIcEENS0_9loc_valueERKNS0_12format_specsENS1_10locale_refE, symObjAddr: 0x1D8, symBinAddr: 0x41D8, symSize: 0x188 }
  - { offset: 0x2BA4, size: 0x8, addend: 0x0, symName: __ZN3fmt3v116detail5writeIcNS0_14basic_appenderIcEEfLi0EEET0_S5_T1_, symObjAddr: 0x47E4, symBinAddr: 0x87B4, symSize: 0x9C }
  - { offset: 0x2D00, size: 0x8, addend: 0x0, symName: __ZN3fmt3v116detail5writeIcNS0_14basic_appenderIcEEdLi0EEET0_S5_T1_, symObjAddr: 0x60C4, symBinAddr: 0xA094, symSize: 0x9C }
  - { offset: 0x2F60, size: 0x8, addend: 0x0, symName: __ZN3fmt3v116detail23parse_replacement_fieldIcRZNS1_10vformat_toIcEEvRNS1_6bufferIT_EENS0_17basic_string_viewIS5_EENS1_12vformat_argsIS5_E4typeENS1_10locale_refEE14format_handlerEEPKS5_SH_SH_OT0_, symObjAddr: 0x7624, symBinAddr: 0xB558, symSize: 0x35C }
  - { offset: 0x3851, size: 0x8, addend: 0x0, symName: __ZZN3fmt3v116detail19parse_format_stringILb0EcZNS1_10vformat_toIcEEvRNS1_6bufferIT_EENS0_17basic_string_viewIS5_EENS1_12vformat_argsIS5_E4typeENS1_10locale_refEE14format_handlerEEvNS8_IT0_EEOT1_EN6writerclEPKcSL_, symObjAddr: 0x7980, symBinAddr: 0xB8B4, symSize: 0xD8 }
  - { offset: 0x386D, size: 0x8, addend: 0x0, symName: __ZN3fmt3v116detail10vformat_toIcEEvRNS1_6bufferIT_EENS0_17basic_string_viewIS4_EENS1_12vformat_argsIS4_E4typeENS1_10locale_refE, symObjAddr: 0xAF8, symBinAddr: 0x4AF8, symSize: 0x1C4 }
  - { offset: 0x3F2F, size: 0x8, addend: 0x0, symName: __ZN3fmt3v116detail13write_consoleEiNS0_17basic_string_viewIcEE, symObjAddr: 0xCBC, symBinAddr: 0x4CBC, symSize: 0x8 }
  - { offset: 0x4078, size: 0x8, addend: 0x0, symName: __ZN3fmt3v116detail5writeIcNS0_14basic_appenderIcEEEET0_S5_T_RKNS0_12format_specsENS1_10locale_refE, symObjAddr: 0xAD24, symBinAddr: 0xEC58, symSize: 0x160 }
  - { offset: 0x429D, size: 0x8, addend: 0x0, symName: __ZN3fmt3v116detail5writeIcNS0_14basic_appenderIcEEfLi0EEET0_S5_T1_NS0_12format_specsENS1_10locale_refE, symObjAddr: 0xAE84, symBinAddr: 0xEDB8, symSize: 0xAC }
  - { offset: 0x42F7, size: 0x8, addend: 0x0, symName: __ZN3fmt3v116detail15format_hexfloatIdLi0EEEvT_NS0_12format_specsERNS1_6bufferIcEE, symObjAddr: 0xB258, symBinAddr: 0xF18C, symSize: 0x394 }
  - { offset: 0x4EB1, size: 0x8, addend: 0x0, symName: __ZN3fmt3v116detail11assert_failEPKciS3_, symObjAddr: 0x0, symBinAddr: 0x4000, symSize: 0x34 }
  - { offset: 0x4F08, size: 0x8, addend: 0x0, symName: __ZN3fmt3v116detail17format_error_codeERNS1_6bufferIcEEiNS0_17basic_string_viewIcEE, symObjAddr: 0x34, symBinAddr: 0x4034, symSize: 0xCC }
  - { offset: 0x50A5, size: 0x8, addend: 0x0, symName: __ZN3fmt3v116detail12report_errorEPFvRNS1_6bufferIcEEiPKcEiS6_, symObjAddr: 0x110, symBinAddr: 0x4110, symSize: 0xC8 }
  - { offset: 0x583D, size: 0x8, addend: 0x0, symName: __ZN3fmt3v116detail5writeIcNS0_14basic_appenderIcEEEET0_S5_PKT_, symObjAddr: 0xAA0, symBinAddr: 0x4AA0, symSize: 0x44 }
  - { offset: 0x5910, size: 0x8, addend: 0x0, symName: __ZN3fmt3v1119report_system_errorEiPKc, symObjAddr: 0xAE4, symBinAddr: 0x4AE4, symSize: 0x14 }
  - { offset: 0x5968, size: 0x8, addend: 0x0, symName: __ZN3fmt3v116detail13copy_noinlineIcPKcNS0_14basic_appenderIcEEEET1_T0_S8_S7_, symObjAddr: 0x223C, symBinAddr: 0x623C, symSize: 0x30 }
  - { offset: 0x5CAF, size: 0x8, addend: 0x0, symName: __ZN3fmt3v116detail19parse_format_stringILb0EcZNS1_10vformat_toIcEEvRNS1_6bufferIT_EENS0_17basic_string_viewIS5_EENS1_12vformat_argsIS5_E4typeENS1_10locale_refEE14format_handlerEEvNS8_IT0_EEOT1_, symObjAddr: 0x1A3C, symBinAddr: 0x5A3C, symSize: 0x154 }
  - { offset: 0x604F, size: 0x8, addend: 0x0, symName: __ZN3fmt3v116detail18thousands_sep_implIwEENS1_20thousands_sep_resultIT_EENS1_10locale_refE, symObjAddr: 0x1B90, symBinAddr: 0x5B90, symSize: 0xE0 }
  - { offset: 0x6075, size: 0x8, addend: 0x0, symName: __ZN3fmt3v116detail5writeIcNS0_14basic_appenderIcEEiLi0EEET0_S5_T1_, symObjAddr: 0x231C, symBinAddr: 0x631C, symSize: 0x150 }
  - { offset: 0x631A, size: 0x8, addend: 0x0, symName: __ZN3fmt3v116detail5writeIcNS0_14basic_appenderIcEEnLi0EEET0_S5_T1_, symObjAddr: 0x28FC, symBinAddr: 0x68CC, symSize: 0x1F8 }
  - { offset: 0x65E6, size: 0x8, addend: 0x0, symName: __ZN3fmt3v116detail5writeIcNS0_14basic_appenderIcEExLi0EEET0_S5_T1_, symObjAddr: 0x2610, symBinAddr: 0x65E0, symSize: 0x15C }
  - { offset: 0x6892, size: 0x8, addend: 0x0, symName: __ZN3fmt3v116detail5writeIcNS0_14basic_appenderIcEEyLi0EEET0_S5_T1_, symObjAddr: 0x27F0, symBinAddr: 0x67C0, symSize: 0x10C }
  - { offset: 0x6AD9, size: 0x8, addend: 0x0, symName: __ZN3fmt3v116detail5writeIcNS0_14basic_appenderIcEEEET0_S5_T_, symObjAddr: 0x4774, symBinAddr: 0x8744, symSize: 0x70 }
  - { offset: 0x6C2B, size: 0x8, addend: 0x0, symName: __ZN3fmt3v116detail5writeIcNS0_14basic_appenderIcEEjLi0EEET0_S5_T1_, symObjAddr: 0x2514, symBinAddr: 0x64E4, symSize: 0xFC }
  - { offset: 0x6E70, size: 0x8, addend: 0x0, symName: __ZN3fmt3v116detail5writeIcNS0_14basic_appenderIcEEoLi0EEET0_S5_T1_, symObjAddr: 0x2BC8, symBinAddr: 0x6B98, symSize: 0x19C }
  - { offset: 0x70B7, size: 0x8, addend: 0x0, symName: __ZN3fmt3v116detail13write_consoleEiNS0_17basic_string_viewIcEE, symObjAddr: 0xCBC, symBinAddr: 0x4CBC, symSize: 0x8 }
  - { offset: 0x7123, size: 0x8, addend: 0x0, symName: __ZN3fmt3v116detail5printEP7__sFILENS0_17basic_string_viewIcEE, symObjAddr: 0xCC4, symBinAddr: 0x4CC4, symSize: 0x88 }
  - { offset: 0x7398, size: 0x8, addend: 0x0, symName: __ZN3fmt3v116detail18thousands_sep_implIcEENS1_20thousands_sep_resultIT_EENS1_10locale_refE, symObjAddr: 0x17DC, symBinAddr: 0x57DC, symSize: 0xE0 }
  - { offset: 0x7643, size: 0x8, addend: 0x0, symName: __ZN3fmt3v116detail18decimal_point_implIcEET_NS1_10locale_refE, symObjAddr: 0x18BC, symBinAddr: 0x58BC, symSize: 0x7C }
  - { offset: 0x7731, size: 0x8, addend: 0x0, symName: __ZN3fmt3v116detail18thousands_sep_implIwEENS1_20thousands_sep_resultIT_EENS1_10locale_refE, symObjAddr: 0x1B90, symBinAddr: 0x5B90, symSize: 0xE0 }
  - { offset: 0x79DC, size: 0x8, addend: 0x0, symName: __ZN3fmt3v116detail18decimal_point_implIwEET_NS1_10locale_refE, symObjAddr: 0x1C70, symBinAddr: 0x5C70, symSize: 0x7C }
  - { offset: 0x7B41, size: 0x8, addend: 0x0, symName: __ZN3fmt3v116detail5writeIcNS0_14basic_appenderIcEEbLi0EEET0_S5_T1_RKNS0_12format_specsENS1_10locale_refE, symObjAddr: 0x2D64, symBinAddr: 0x6D34, symSize: 0x134 }
  - { offset: 0x7DD1, size: 0x8, addend: 0x0, symName: __ZN3fmt3v116detail9write_ptrIcNS0_14basic_appenderIcEEmEET0_S5_T1_PKNS0_12format_specsE, symObjAddr: 0x7218, symBinAddr: 0xB14C, symSize: 0x1F0 }
  - { offset: 0x8313, size: 0x8, addend: 0x0, symName: __ZN3fmt3v116detail14format_decimalIcjEENS1_21format_decimal_resultIPT_EES5_T0_i, symObjAddr: 0x246C, symBinAddr: 0x646C, symSize: 0x78 }
  - { offset: 0x856E, size: 0x8, addend: 0x0, symName: __ZN3fmt3v116detail14format_decimalIcyEENS1_21format_decimal_resultIPT_EES5_T0_i, symObjAddr: 0x276C, symBinAddr: 0x673C, symSize: 0x84 }
  - { offset: 0x86C7, size: 0x8, addend: 0x0, symName: __ZN3fmt3v116detail14format_decimalIcoEENS1_21format_decimal_resultIPT_EES5_T0_i, symObjAddr: 0x2AF4, symBinAddr: 0x6AC4, symSize: 0xD4 }
  - { offset: 0x896A, size: 0x8, addend: 0x0, symName: __ZN3fmt3v116detail12write_paddedIcLNS0_5align4typeE1ENS0_14basic_appenderIcEERZNS1_11write_bytesIcLS4_1ES6_EET1_S8_NS0_17basic_string_viewIcEERKNS0_12format_specsEEUlS6_E_EES8_S8_SD_mmOT2_, symObjAddr: 0x46A4, symBinAddr: 0x8674, symSize: 0xD0 }
  - { offset: 0x8B89, size: 0x8, addend: 0x0, symName: __ZN3fmt3v116detail18write_int_noinlineIcNS0_14basic_appenderIcEEjEET0_S5_NS1_13write_int_argIT1_EERKNS0_12format_specsENS1_10locale_refE, symObjAddr: 0x2E98, symBinAddr: 0x6E68, symSize: 0x790 }
  - { offset: 0xA756, size: 0x8, addend: 0x0, symName: __ZN3fmt3v116detail12write_paddedIcLNS0_5align4typeE2ENS0_14basic_appenderIcEERZNS1_9write_intIcS6_ZNS1_9write_intIcS6_jEET0_S9_NS1_13write_int_argIT1_EERKNS0_12format_specsENS1_10locale_refEEUlS6_E1_EES9_S9_ijSF_SB_EUlS6_E_EESB_SB_SF_mmOT2_, symObjAddr: 0x3AF4, symBinAddr: 0x7AC4, symSize: 0xC4 }
  - { offset: 0xA90D, size: 0x8, addend: 0x0, symName: __ZN3fmt3v116detail12write_paddedIcLNS0_5align4typeE1ENS0_14basic_appenderIcEERZNS1_10write_charIcS6_EET0_S8_T_RKNS0_12format_specsEEUlS6_E_EET1_SF_SC_mmOT2_, symObjAddr: 0x3F80, symBinAddr: 0x7F50, symSize: 0x114 }
  - { offset: 0xAB5C, size: 0x8, addend: 0x0, symName: __ZN3fmt3v116detail12write_paddedIcLNS0_5align4typeE2ENS0_14basic_appenderIcEERZNS1_9write_intIcS6_ZNS1_9write_intIcS6_jEET0_S9_NS1_13write_int_argIT1_EERKNS0_12format_specsENS1_10locale_refEEUlS6_E_EES9_S9_ijSF_SB_EUlS6_E_EESB_SB_SF_mmOT2_, symObjAddr: 0x3628, symBinAddr: 0x75F8, symSize: 0x164 }
  - { offset: 0xAE5B, size: 0x8, addend: 0x0, symName: __ZN3fmt3v116detail12write_paddedIcLNS0_5align4typeE2ENS0_14basic_appenderIcEERZNS1_9write_intIcS6_ZNS1_9write_intIcS6_jEET0_S9_NS1_13write_int_argIT1_EERKNS0_12format_specsENS1_10locale_refEEUlS6_E0_EES9_S9_ijSF_SB_EUlS6_E_EESB_SB_SF_mmOT2_, symObjAddr: 0x387C, symBinAddr: 0x784C, symSize: 0xC4 }
  - { offset: 0xB012, size: 0x8, addend: 0x0, symName: __ZN3fmt3v116detail12write_paddedIcLNS0_5align4typeE2ENS0_14basic_appenderIcEERZNS1_9write_intIcS6_ZNS1_9write_intIcS6_jEET0_S9_NS1_13write_int_argIT1_EERKNS0_12format_specsENS1_10locale_refEEUlS6_E2_EES9_S9_ijSF_SB_EUlS6_E_EESB_SB_SF_mmOT2_, symObjAddr: 0x3D38, symBinAddr: 0x7D08, symSize: 0xC4 }
  - { offset: 0xB1C9, size: 0x8, addend: 0x0, symName: __ZN3fmt3v116detail4fillIcNS0_14basic_appenderIcEEEET0_S5_mRKNS1_6fill_tE, symObjAddr: 0x378C, symBinAddr: 0x775C, symSize: 0x80 }
  - { offset: 0xB30A, size: 0x8, addend: 0x0, symName: __ZN3fmt3v116detail6fill_nINS0_14basic_appenderIcEEmcEET_S5_T0_RKT1_, symObjAddr: 0x380C, symBinAddr: 0x77DC, symSize: 0x70 }
  - { offset: 0xB3FB, size: 0x8, addend: 0x0, symName: __ZN3fmt3v116detail18write_escaped_charIcNS0_14basic_appenderIcEEEET0_S5_T_, symObjAddr: 0x4094, symBinAddr: 0x8064, symSize: 0x134 }
  - { offset: 0xB60C, size: 0x8, addend: 0x0, symName: __ZN3fmt3v116detail16write_escaped_cpINS0_14basic_appenderIcEEcEET_S5_RKNS1_18find_escape_resultIT0_EE, symObjAddr: 0x41C8, symBinAddr: 0x8198, symSize: 0x204 }
  - { offset: 0xB963, size: 0x8, addend: 0x0, symName: __ZN3fmt3v116detail15write_codepointILm2EcNS0_14basic_appenderIcEEEET1_S5_cj, symObjAddr: 0x43CC, symBinAddr: 0x839C, symSize: 0xE4 }
  - { offset: 0xBB66, size: 0x8, addend: 0x0, symName: __ZN3fmt3v116detail15write_codepointILm4EcNS0_14basic_appenderIcEEEET1_S5_cj, symObjAddr: 0x44B0, symBinAddr: 0x8480, symSize: 0xE4 }
  - { offset: 0xBD69, size: 0x8, addend: 0x0, symName: __ZN3fmt3v116detail15write_codepointILm8EcNS0_14basic_appenderIcEEEET1_S5_cj, symObjAddr: 0x4594, symBinAddr: 0x8564, symSize: 0x110 }
  - { offset: 0xC077, size: 0x8, addend: 0x0, symName: __ZN3fmt3v116detail15write_nonfiniteIcNS0_14basic_appenderIcEEEET0_S5_bNS0_12format_specsENS0_4sign4typeE, symObjAddr: 0x4880, symBinAddr: 0x8850, symSize: 0x98 }
  - { offset: 0xC1C7, size: 0x8, addend: 0x0, symName: __ZN3fmt3v116detail14do_write_floatIcNS0_14basic_appenderIcEENS1_9dragonbox10decimal_fpIfEENS1_14digit_groupingIcEEEET0_SA_RKT1_RKNS0_12format_specsENS1_11float_specsENS1_10locale_refE, symObjAddr: 0x4A30, symBinAddr: 0x8A00, symSize: 0x40C }
  - { offset: 0xCA8C, size: 0x8, addend: 0x0, symName: __ZN3fmt3v116detail12write_paddedIcLNS0_5align4typeE1ENS0_14basic_appenderIcEERZNS1_15write_nonfiniteIcS6_EET0_S8_bNS0_12format_specsENS0_4sign4typeEEUlS6_E_EET1_SE_RKS9_mmOT2_, symObjAddr: 0x4918, symBinAddr: 0x88E8, symSize: 0x118 }
  - { offset: 0xD04E, size: 0x8, addend: 0x0, symName: __ZN3fmt3v116detail12write_paddedIcLNS0_5align4typeE2ENS0_14basic_appenderIcEERZNS1_14do_write_floatIcS6_NS1_9dragonbox10decimal_fpIfEENS1_14digit_groupingIcEEEET0_SD_RKT1_RKNS0_12format_specsENS1_11float_specsENS1_10locale_refEEUlS6_E1_EESE_SE_SJ_mmOT2_, symObjAddr: 0x5AB0, symBinAddr: 0x9A80, symSize: 0x140 }
  - { offset: 0xD2B9, size: 0x8, addend: 0x0, symName: __ZN3fmt3v116detail12write_paddedIcLNS0_5align4typeE2ENS0_14basic_appenderIcEERZNS1_14do_write_floatIcS6_NS1_9dragonbox10decimal_fpIfEENS1_14digit_groupingIcEEEET0_SD_RKT1_RKNS0_12format_specsENS1_11float_specsENS1_10locale_refEEUlS6_E_EESE_SE_SJ_mmOT2_, symObjAddr: 0x50C0, symBinAddr: 0x9090, symSize: 0xC4 }
  - { offset: 0xD470, size: 0x8, addend: 0x0, symName: __ZN3fmt3v116detail12write_paddedIcLNS0_5align4typeE2ENS0_14basic_appenderIcEERZNS1_14do_write_floatIcS6_NS1_9dragonbox10decimal_fpIfEENS1_14digit_groupingIcEEEET0_SD_RKT1_RKNS0_12format_specsENS1_11float_specsENS1_10locale_refEEUlS6_E0_EESE_SE_SJ_mmOT2_, symObjAddr: 0x5540, symBinAddr: 0x9510, symSize: 0xC4 }
  - { offset: 0xD627, size: 0x8, addend: 0x0, symName: __ZN3fmt3v116detail12write_paddedIcLNS0_5align4typeE2ENS0_14basic_appenderIcEERZNS1_14do_write_floatIcS6_NS1_9dragonbox10decimal_fpIfEENS1_14digit_groupingIcEEEET0_SD_RKT1_RKNS0_12format_specsENS1_11float_specsENS1_10locale_refEEUlS6_E2_EESE_SE_SJ_mmOT2_, symObjAddr: 0x5E98, symBinAddr: 0x9E68, symSize: 0xC4 }
  - { offset: 0xD8F1, size: 0x8, addend: 0x0, symName: __ZN3fmt3v116detail6fill_nINS0_14basic_appenderIcEEicEET_S5_T0_RKT1_, symObjAddr: 0x5184, symBinAddr: 0x9154, symSize: 0x74 }
  - { offset: 0xD9E2, size: 0x8, addend: 0x0, symName: __ZN3fmt3v116detail14write_exponentIcNS0_14basic_appenderIcEEEET0_iS5_, symObjAddr: 0x51F8, symBinAddr: 0x91C8, symSize: 0x1A8 }
  - { offset: 0xDDC4, size: 0x8, addend: 0x0, symName: __ZN3fmt3v116detail17write_significandIcNS0_14basic_appenderIcEEjNS1_14digit_groupingIcEEEET0_S7_T1_iiRKT2_, symObjAddr: 0x5708, symBinAddr: 0x96D8, symSize: 0x160 }
  - { offset: 0xE56D, size: 0x8, addend: 0x0, symName: __ZN3fmt3v116detail17write_significandINS0_14basic_appenderIcEEcjNS1_14digit_groupingIcEEEET_S7_T1_iiT0_RKT2_, symObjAddr: 0x5BF0, symBinAddr: 0x9BC0, symSize: 0x2A8 }
  - { offset: 0xEC03, size: 0x8, addend: 0x0, symName: __ZN3fmt3v116detail14do_write_floatIcNS0_14basic_appenderIcEENS1_9dragonbox10decimal_fpIdEENS1_14digit_groupingIcEEEET0_SA_RKT1_RKNS0_12format_specsENS1_11float_specsENS1_10locale_refE, symObjAddr: 0x6160, symBinAddr: 0xA130, symSize: 0x41C }
  - { offset: 0xF62A, size: 0x8, addend: 0x0, symName: __ZN3fmt3v116detail12write_paddedIcLNS0_5align4typeE2ENS0_14basic_appenderIcEERZNS1_14do_write_floatIcS6_NS1_9dragonbox10decimal_fpIdEENS1_14digit_groupingIcEEEET0_SD_RKT1_RKNS0_12format_specsENS1_11float_specsENS1_10locale_refEEUlS6_E1_EESE_SE_SJ_mmOT2_, symObjAddr: 0x6B50, symBinAddr: 0xAB20, symSize: 0x140 }
  - { offset: 0xF895, size: 0x8, addend: 0x0, symName: __ZN3fmt3v116detail12write_paddedIcLNS0_5align4typeE2ENS0_14basic_appenderIcEERZNS1_14do_write_floatIcS6_NS1_9dragonbox10decimal_fpIdEENS1_14digit_groupingIcEEEET0_SD_RKT1_RKNS0_12format_specsENS1_11float_specsENS1_10locale_refEEUlS6_E_EESE_SE_SJ_mmOT2_, symObjAddr: 0x6764, symBinAddr: 0xA734, symSize: 0xC4 }
  - { offset: 0xFA4C, size: 0x8, addend: 0x0, symName: __ZN3fmt3v116detail12write_paddedIcLNS0_5align4typeE2ENS0_14basic_appenderIcEERZNS1_14do_write_floatIcS6_NS1_9dragonbox10decimal_fpIdEENS1_14digit_groupingIcEEEET0_SD_RKT1_RKNS0_12format_specsENS1_11float_specsENS1_10locale_refEEUlS6_E0_EESE_SE_SJ_mmOT2_, symObjAddr: 0x6828, symBinAddr: 0xA7F8, symSize: 0xC4 }
  - { offset: 0xFC03, size: 0x8, addend: 0x0, symName: __ZN3fmt3v116detail12write_paddedIcLNS0_5align4typeE2ENS0_14basic_appenderIcEERZNS1_14do_write_floatIcS6_NS1_9dragonbox10decimal_fpIdEENS1_14digit_groupingIcEEEET0_SD_RKT1_RKNS0_12format_specsENS1_11float_specsENS1_10locale_refEEUlS6_E2_EESE_SE_SJ_mmOT2_, symObjAddr: 0x6F50, symBinAddr: 0xAF20, symSize: 0xC4 }
  - { offset: 0xFECD, size: 0x8, addend: 0x0, symName: __ZN3fmt3v116detail17write_significandIcNS0_14basic_appenderIcEEyNS1_14digit_groupingIcEEEET0_S7_T1_iiRKT2_, symObjAddr: 0x69F0, symBinAddr: 0xA9C0, symSize: 0x160 }
  - { offset: 0x10464, size: 0x8, addend: 0x0, symName: __ZN3fmt3v116detail17write_significandINS0_14basic_appenderIcEEcyNS1_14digit_groupingIcEEEET_S7_T1_iiT0_RKT2_, symObjAddr: 0x6C90, symBinAddr: 0xAC60, symSize: 0x2C0 }
  - { offset: 0x10C71, size: 0x8, addend: 0x0, symName: __ZN3fmt3v116detail12write_paddedIcLNS0_5align4typeE2ENS0_14basic_appenderIcEERZNS1_9write_ptrIcS6_mEET0_S8_T1_PKNS0_12format_specsEEUlS6_E_EES9_S9_RSB_mmOT2_, symObjAddr: 0x7408, symBinAddr: 0xB33C, symSize: 0x21C }
  - { offset: 0x110D3, size: 0x8, addend: 0x0, symName: __ZN3fmt3v116detail7get_argINS0_7contextEiEEDTcldtfp_3argfp0_EERT_T0_, symObjAddr: 0x7F18, symBinAddr: 0xBE4C, symSize: 0x38 }
  - { offset: 0x11184, size: 0x8, addend: 0x0, symName: __ZN3fmt3v116detail15do_parse_arg_idIcRZNS1_23parse_replacement_fieldIcRZNS1_10vformat_toIcEEvRNS1_6bufferIT_EENS0_17basic_string_viewIS6_EENS1_12vformat_argsIS6_E4typeENS1_10locale_refEE14format_handlerEEPKS6_SI_SI_OT0_E10id_adapterEESI_SI_SI_SK_, symObjAddr: 0x7F50, symBinAddr: 0xBE84, symSize: 0x11C }
  - { offset: 0x111A0, size: 0x8, addend: 0x0, symName: __ZN3fmt3v116detail12parse_arg_idIcRZNS1_23parse_replacement_fieldIcRZNS1_10vformat_toIcEEvRNS1_6bufferIT_EENS0_17basic_string_viewIS6_EENS1_12vformat_argsIS6_E4typeENS1_10locale_refEE14format_handlerEEPKS6_SI_SI_OT0_E10id_adapterEESI_SI_SI_SK_, symObjAddr: 0x7A58, symBinAddr: 0xB98C, symSize: 0x48 }
  - { offset: 0x11254, size: 0x8, addend: 0x0, symName: __ZZN3fmt3v116detail10vformat_toIcEEvRNS1_6bufferIT_EENS0_17basic_string_viewIS4_EENS1_12vformat_argsIS4_E4typeENS1_10locale_refEEN14format_handler15on_format_specsEiPKcSF_, symObjAddr: 0x7AA0, symBinAddr: 0xB9D4, symSize: 0x478 }
  - { offset: 0x11270, size: 0x8, addend: 0x0, symName: __ZN3fmt3v116detail15do_parse_arg_idIcRZNS1_23parse_replacement_fieldIcRZNS1_10vformat_toIcEEvRNS1_6bufferIT_EENS0_17basic_string_viewIS6_EENS1_12vformat_argsIS6_E4typeENS1_10locale_refEE14format_handlerEEPKS6_SI_SI_OT0_E10id_adapterEESI_SI_SI_SK_, symObjAddr: 0x7F50, symBinAddr: 0xBE84, symSize: 0x11C }
  - { offset: 0x113BA, size: 0x8, addend: 0x0, symName: __ZN3fmt3v116detail21parse_nonnegative_intIcEEiRPKT_S5_i, symObjAddr: 0x806C, symBinAddr: 0xBFA0, symSize: 0x84 }
  - { offset: 0x11BC6, size: 0x8, addend: 0x0, symName: __ZN3fmt3v116detail18parse_format_specsIcEEPKT_S5_S5_RNS1_20dynamic_format_specsIS3_EERNS0_26basic_format_parse_contextIS3_EENS1_4typeE, symObjAddr: 0x81D0, symBinAddr: 0xC104, symSize: 0x460 }
  - { offset: 0x122D7, size: 0x8, addend: 0x0, symName: __ZN3fmt3v116detail19handle_dynamic_specINS1_13width_checkerENS0_7contextEEEvRiNS1_7arg_refINT0_9char_typeEEERS7_, symObjAddr: 0x8630, symBinAddr: 0xC564, symSize: 0x9C }
  - { offset: 0x122EA, size: 0x8, addend: 0x0, symName: __ZN3fmt3v116detail19handle_dynamic_specINS1_13width_checkerENS0_7contextEEEvRiNS1_7arg_refINT0_9char_typeEEERS7_, symObjAddr: 0x8630, symBinAddr: 0xC564, symSize: 0x9C }
  - { offset: 0x12383, size: 0x8, addend: 0x0, symName: __ZN3fmt3v116detail19handle_dynamic_specINS1_17precision_checkerENS0_7contextEEEvRiNS1_7arg_refINT0_9char_typeEEERS7_, symObjAddr: 0x86CC, symBinAddr: 0xC600, symSize: 0x9C }
  - { offset: 0x1241C, size: 0x8, addend: 0x0, symName: __ZN3fmt3v116detail5writeIcNS0_14basic_appenderIcEEEET0_S5_PKT_RKNS0_12format_specsENS1_10locale_refE, symObjAddr: 0xE758, symBinAddr: 0x1268C, symSize: 0x7C }
  - { offset: 0x12510, size: 0x8, addend: 0x0, symName: __ZN3fmt3v116detail5writeIcNS0_14basic_appenderIcEEEET0_S5_NS0_17basic_string_viewIT_EERKNS0_12format_specsE, symObjAddr: 0xE7D4, symBinAddr: 0x12708, symSize: 0x100 }
  - { offset: 0x1252C, size: 0x8, addend: 0x0, symName: __ZN3fmt3v116detail5writeIcNS0_14basic_appenderIcEEEET0_S5_NS0_17basic_string_viewIT_EERKNS0_12format_specsE, symObjAddr: 0xE7D4, symBinAddr: 0x12708, symSize: 0x100 }
  - { offset: 0x126F1, size: 0x8, addend: 0x0, symName: __ZN3fmt3v116detail5writeIcNS0_14basic_appenderIcEEdLi0EEET0_S5_T1_NS0_12format_specsENS1_10locale_refE, symObjAddr: 0xDFB8, symBinAddr: 0x11EEC, symSize: 0xAC }
  - { offset: 0x1281C, size: 0x8, addend: 0x0, symName: __ZN3fmt3v116detail18write_int_noinlineIcNS0_14basic_appenderIcEEoEET0_S5_NS1_13write_int_argIT1_EERKNS0_12format_specsENS1_10locale_refE, symObjAddr: 0x9BA0, symBinAddr: 0xDAD4, symSize: 0x8BC }
  - { offset: 0x13728, size: 0x8, addend: 0x0, symName: __ZN3fmt3v116detail5writeIcNS0_14basic_appenderIcEEeLi0EEET0_S5_T1_NS0_12format_specsENS1_10locale_refE, symObjAddr: 0xE388, symBinAddr: 0x122BC, symSize: 0xAC }
  - { offset: 0x13853, size: 0x8, addend: 0x0, symName: __ZN3fmt3v116detail5writeIcNS0_14basic_appenderIcEEfLi0EEET0_S5_T1_NS0_12format_specsENS1_10locale_refE, symObjAddr: 0xAE84, symBinAddr: 0xEDB8, symSize: 0xAC }
  - { offset: 0x13993, size: 0x8, addend: 0x0, symName: __ZN3fmt3v116detail18write_int_noinlineIcNS0_14basic_appenderIcEEyEET0_S5_NS1_13write_int_argIT1_EERKNS0_12format_specsENS1_10locale_refE, symObjAddr: 0x8B68, symBinAddr: 0xCA9C, symSize: 0x7BC }
  - { offset: 0x148B3, size: 0x8, addend: 0x0, symName: __ZN3fmt3v116detail21parse_nonnegative_intIcEEiRPKT_S5_i, symObjAddr: 0x806C, symBinAddr: 0xBFA0, symSize: 0x84 }
  - { offset: 0x14A23, size: 0x8, addend: 0x0, symName: __ZN3fmt3v116detail18parse_dynamic_specIcEEPKT_S5_S5_RiRNS1_7arg_refIS3_EERNS0_26basic_format_parse_contextIS3_EE, symObjAddr: 0x8768, symBinAddr: 0xC69C, symSize: 0xB4 }
  - { offset: 0x14B01, size: 0x8, addend: 0x0, symName: __ZN3fmt3v116detail15parse_precisionIcEEPKT_S5_S5_RiRNS1_7arg_refIS3_EERNS0_26basic_format_parse_contextIS3_EE, symObjAddr: 0x881C, symBinAddr: 0xC750, symSize: 0x30 }
  - { offset: 0x14B14, size: 0x8, addend: 0x0, symName: __ZN3fmt3v116detail15parse_precisionIcEEPKT_S5_S5_RiRNS1_7arg_refIS3_EERNS0_26basic_format_parse_contextIS3_EE, symObjAddr: 0x881C, symBinAddr: 0xC750, symSize: 0x30 }
  - { offset: 0x14B93, size: 0x8, addend: 0x0, symName: __ZN3fmt3v116detail12parse_arg_idIcRNS1_23dynamic_spec_id_handlerIcEEEEPKT_S8_S8_OT0_, symObjAddr: 0x884C, symBinAddr: 0xC780, symSize: 0x54 }
  - { offset: 0x14BA6, size: 0x8, addend: 0x0, symName: __ZN3fmt3v116detail7get_argINS0_7contextENS0_17basic_string_viewIcEEEEDTcldtfp_3argfp0_EERT_T0_, symObjAddr: 0x8A60, symBinAddr: 0xC994, symSize: 0x38 }
  - { offset: 0x14C53, size: 0x8, addend: 0x0, symName: __ZNK3fmt3v1117basic_format_argsINS0_7contextEE3getIcEENS0_16basic_format_argIS2_EENS0_17basic_string_viewIT_EE, symObjAddr: 0x8A98, symBinAddr: 0xC9CC, symSize: 0x44 }
  - { offset: 0x14C6F, size: 0x8, addend: 0x0, symName: __ZN3fmt3v116detail16get_dynamic_specINS1_13width_checkerENS0_16basic_format_argINS0_7contextEEEEEiT0_, symObjAddr: 0x89D4, symBinAddr: 0xC908, symSize: 0x8C }
  - { offset: 0x14D1E, size: 0x8, addend: 0x0, symName: __ZN3fmt3v116detail7get_argINS0_7contextENS0_17basic_string_viewIcEEEEDTcldtfp_3argfp0_EERT_T0_, symObjAddr: 0x8A60, symBinAddr: 0xC994, symSize: 0x38 }
  - { offset: 0x14D3A, size: 0x8, addend: 0x0, symName: __ZN3fmt3v116detail16get_dynamic_specINS1_17precision_checkerENS0_16basic_format_argINS0_7contextEEEEEiT0_, symObjAddr: 0x8ADC, symBinAddr: 0xCA10, symSize: 0x8C }
  - { offset: 0x14DE9, size: 0x8, addend: 0x0, symName: __ZN3fmt3v116detail18write_int_noinlineIcNS0_14basic_appenderIcEEyEET0_S5_NS1_13write_int_argIT1_EERKNS0_12format_specsENS1_10locale_refE, symObjAddr: 0x8B68, symBinAddr: 0xCA9C, symSize: 0x7BC }
  - { offset: 0x14E05, size: 0x8, addend: 0x0, symName: __ZN3fmt3v116detail12parse_arg_idIcRNS1_23dynamic_spec_id_handlerIcEEEEPKT_S8_S8_OT0_, symObjAddr: 0x884C, symBinAddr: 0xC780, symSize: 0x54 }
  - { offset: 0x14EAB, size: 0x8, addend: 0x0, symName: __ZN3fmt3v116detail15do_parse_arg_idIcRNS1_23dynamic_spec_id_handlerIcEEEEPKT_S8_S8_OT0_, symObjAddr: 0x88A0, symBinAddr: 0xC7D4, symSize: 0x134 }
  - { offset: 0x14EC7, size: 0x8, addend: 0x0, symName: __ZN3fmt3v116detail15do_parse_arg_idIcRNS1_23dynamic_spec_id_handlerIcEEEEPKT_S8_S8_OT0_, symObjAddr: 0x88A0, symBinAddr: 0xC7D4, symSize: 0x134 }
  - { offset: 0x14FFA, size: 0x8, addend: 0x0, symName: __ZN3fmt3v116detail16get_dynamic_specINS1_13width_checkerENS0_16basic_format_argINS0_7contextEEEEEiT0_, symObjAddr: 0x89D4, symBinAddr: 0xC908, symSize: 0x8C }
  - { offset: 0x15B6B, size: 0x8, addend: 0x0, symName: __ZN3fmt3v116detail12write_paddedIcLNS0_5align4typeE2ENS0_14basic_appenderIcEERZNS1_9write_intIcS6_ZNS1_9write_intIcS6_yEET0_S9_NS1_13write_int_argIT1_EERKNS0_12format_specsENS1_10locale_refEEUlS6_E1_EES9_S9_ijSF_SB_EUlS6_E_EESB_SB_SF_mmOT2_, symObjAddr: 0x9708, symBinAddr: 0xD63C, symSize: 0xC4 }
  - { offset: 0x15D22, size: 0x8, addend: 0x0, symName: __ZN3fmt3v116detail12write_paddedIcLNS0_5align4typeE2ENS0_14basic_appenderIcEERZNS1_9write_intIcS6_ZNS1_9write_intIcS6_yEET0_S9_NS1_13write_int_argIT1_EERKNS0_12format_specsENS1_10locale_refEEUlS6_E_EES9_S9_ijSF_SB_EUlS6_E_EESB_SB_SF_mmOT2_, symObjAddr: 0x9324, symBinAddr: 0xD258, symSize: 0x168 }
  - { offset: 0x16021, size: 0x8, addend: 0x0, symName: __ZN3fmt3v116detail12write_paddedIcLNS0_5align4typeE2ENS0_14basic_appenderIcEERZNS1_9write_intIcS6_ZNS1_9write_intIcS6_yEET0_S9_NS1_13write_int_argIT1_EERKNS0_12format_specsENS1_10locale_refEEUlS6_E0_EES9_S9_ijSF_SB_EUlS6_E_EESB_SB_SF_mmOT2_, symObjAddr: 0x948C, symBinAddr: 0xD3C0, symSize: 0xC4 }
  - { offset: 0x161D8, size: 0x8, addend: 0x0, symName: __ZN3fmt3v116detail12write_paddedIcLNS0_5align4typeE2ENS0_14basic_appenderIcEERZNS1_9write_intIcS6_ZNS1_9write_intIcS6_yEET0_S9_NS1_13write_int_argIT1_EERKNS0_12format_specsENS1_10locale_refEEUlS6_E2_EES9_S9_ijSF_SB_EUlS6_E_EESB_SB_SF_mmOT2_, symObjAddr: 0x9950, symBinAddr: 0xD884, symSize: 0xC4 }
  - { offset: 0x16E26, size: 0x8, addend: 0x0, symName: __ZN3fmt3v116detail12write_paddedIcLNS0_5align4typeE2ENS0_14basic_appenderIcEERZNS1_9write_intIcS6_ZNS1_9write_intIcS6_oEET0_S9_NS1_13write_int_argIT1_EERKNS0_12format_specsENS1_10locale_refEEUlS6_E1_EES9_S9_ijSF_SB_EUlS6_E_EESB_SB_SF_mmOT2_, symObjAddr: 0xA860, symBinAddr: 0xE794, symSize: 0xC4 }
  - { offset: 0x16FDD, size: 0x8, addend: 0x0, symName: __ZN3fmt3v116detail12write_paddedIcLNS0_5align4typeE2ENS0_14basic_appenderIcEERZNS1_9write_intIcS6_ZNS1_9write_intIcS6_oEET0_S9_NS1_13write_int_argIT1_EERKNS0_12format_specsENS1_10locale_refEEUlS6_E0_EES9_S9_ijSF_SB_EUlS6_E_EESB_SB_SF_mmOT2_, symObjAddr: 0xA5C8, symBinAddr: 0xE4FC, symSize: 0xC4 }
  - { offset: 0x17194, size: 0x8, addend: 0x0, symName: __ZN3fmt3v116detail12write_paddedIcLNS0_5align4typeE2ENS0_14basic_appenderIcEERZNS1_9write_intIcS6_ZNS1_9write_intIcS6_oEET0_S9_NS1_13write_int_argIT1_EERKNS0_12format_specsENS1_10locale_refEEUlS6_E2_EES9_S9_ijSF_SB_EUlS6_E_EESB_SB_SF_mmOT2_, symObjAddr: 0xAABC, symBinAddr: 0xE9F0, symSize: 0xC4 }
  - { offset: 0x1734B, size: 0x8, addend: 0x0, symName: __ZN3fmt3v116detail12write_paddedIcLNS0_5align4typeE2ENS0_14basic_appenderIcEERZNS1_9write_intIcS6_ZNS1_9write_intIcS6_oEET0_S9_NS1_13write_int_argIT1_EERKNS0_12format_specsENS1_10locale_refEEUlS6_E_EES9_S9_ijSF_SB_EUlS6_E_EESB_SB_SF_mmOT2_, symObjAddr: 0xA45C, symBinAddr: 0xE390, symSize: 0x16C }
  - { offset: 0x17813, size: 0x8, addend: 0x0, symName: __ZN3fmt3v116detail11write_floatIcNS0_14basic_appenderIcEEfEET0_S5_T1_NS0_12format_specsENS1_10locale_refE, symObjAddr: 0xAF30, symBinAddr: 0xEE64, symSize: 0x328 }
  - { offset: 0x180B8, size: 0x8, addend: 0x0, symName: __ZN3fmt3v116detail12write_paddedIcLNS0_5align4typeE2ENS0_14basic_appenderIcEERZNS1_11write_bytesIcLS4_2ES6_EET1_S8_NS0_17basic_string_viewIcEERKNS0_12format_specsEEUlS6_E_EES8_S8_SD_mmOT2_, symObjAddr: 0xBD60, symBinAddr: 0xFC94, symSize: 0xD0 }
  - { offset: 0x182D7, size: 0x8, addend: 0x0, symName: __ZN3fmt3v116detail12format_floatIdEEiT_iNS1_11float_specsERNS1_6bufferIcEE, symObjAddr: 0xB5EC, symBinAddr: 0xF520, symSize: 0x774 }
  - { offset: 0x18D5E, size: 0x8, addend: 0x0, symName: __ZN3fmt3v116detail14do_write_floatIcNS0_14basic_appenderIcEENS1_14big_decimal_fpENS1_14digit_groupingIcEEEET0_S8_RKT1_RKNS0_12format_specsENS1_11float_specsENS1_10locale_refE, symObjAddr: 0xD164, symBinAddr: 0x11098, symSize: 0x4C8 }
  - { offset: 0x198E6, size: 0x8, addend: 0x0, symName: __ZN3fmt3v116detail13format_dragonENS1_8basic_fpIoEEjiRNS1_6bufferIcEERi, symObjAddr: 0xBE30, symBinAddr: 0xFD64, symSize: 0x884 }
  - { offset: 0x1B492, size: 0x8, addend: 0x0, symName: __ZN3fmt3v116detail11add_compareERKNS1_6bigintES4_S4_, symObjAddr: 0xC8F8, symBinAddr: 0x1082C, symSize: 0x120 }
  - { offset: 0x1B5B4, size: 0x8, addend: 0x0, symName: __ZN3fmt3v116detail11add_compareERKNS1_6bigintES4_S4_, symObjAddr: 0xC8F8, symBinAddr: 0x1082C, symSize: 0x120 }
  - { offset: 0x1B5D0, size: 0x8, addend: 0x0, symName: __ZN3fmt3v116detail11add_compareERKNS1_6bigintES4_S4_, symObjAddr: 0xC8F8, symBinAddr: 0x1082C, symSize: 0x120 }
  - { offset: 0x1B7CC, size: 0x8, addend: 0x0, symName: __ZN3fmt3v116detail7compareERKNS1_6bigintES4_, symObjAddr: 0xCA84, symBinAddr: 0x109B8, symSize: 0x88 }
  - { offset: 0x1B85C, size: 0x8, addend: 0x0, symName: __ZN3fmt3v116detail7compareERKNS1_6bigintES4_, symObjAddr: 0xCA84, symBinAddr: 0x109B8, symSize: 0x88 }
  - { offset: 0x1B878, size: 0x8, addend: 0x0, symName: __ZN3fmt3v116detail7compareERKNS1_6bigintES4_, symObjAddr: 0xCA84, symBinAddr: 0x109B8, symSize: 0x88 }
  - { offset: 0x1BB85, size: 0x8, addend: 0x0, symName: __ZN3fmt3v116detail12write_paddedIcLNS0_5align4typeE2ENS0_14basic_appenderIcEERZNS1_14do_write_floatIcS6_NS1_14big_decimal_fpENS1_14digit_groupingIcEEEET0_SB_RKT1_RKNS0_12format_specsENS1_11float_specsENS1_10locale_refEEUlS6_E1_EESC_SC_SH_mmOT2_, symObjAddr: 0xDB54, symBinAddr: 0x11A88, symSize: 0x140 }
  - { offset: 0x1BDF0, size: 0x8, addend: 0x0, symName: __ZN3fmt3v116detail12write_paddedIcLNS0_5align4typeE2ENS0_14basic_appenderIcEERZNS1_14do_write_floatIcS6_NS1_14big_decimal_fpENS1_14digit_groupingIcEEEET0_SB_RKT1_RKNS0_12format_specsENS1_11float_specsENS1_10locale_refEEUlS6_E_EESC_SC_SH_mmOT2_, symObjAddr: 0xD62C, symBinAddr: 0x11560, symSize: 0x178 }
  - { offset: 0x1C0E8, size: 0x8, addend: 0x0, symName: __ZN3fmt3v116detail17write_significandINS0_14basic_appenderIcEEcEET_S5_PKciiT0_, symObjAddr: 0xD7A4, symBinAddr: 0x116D8, symSize: 0xA4 }
  - { offset: 0x1C208, size: 0x8, addend: 0x0, symName: __ZN3fmt3v116detail12write_paddedIcLNS0_5align4typeE2ENS0_14basic_appenderIcEERZNS1_14do_write_floatIcS6_NS1_14big_decimal_fpENS1_14digit_groupingIcEEEET0_SB_RKT1_RKNS0_12format_specsENS1_11float_specsENS1_10locale_refEEUlS6_E0_EESC_SC_SH_mmOT2_, symObjAddr: 0xD848, symBinAddr: 0x1177C, symSize: 0xC4 }
  - { offset: 0x1C3BF, size: 0x8, addend: 0x0, symName: __ZN3fmt3v116detail12write_paddedIcLNS0_5align4typeE2ENS0_14basic_appenderIcEERZNS1_14do_write_floatIcS6_NS1_14big_decimal_fpENS1_14digit_groupingIcEEEET0_SB_RKT1_RKNS0_12format_specsENS1_11float_specsENS1_10locale_refEEUlS6_E2_EESC_SC_SH_mmOT2_, symObjAddr: 0xDDD8, symBinAddr: 0x11D0C, symSize: 0xC4 }
  - { offset: 0x1C576, size: 0x8, addend: 0x0, symName: __ZN3fmt3v116detail17write_significandIcNS0_14basic_appenderIcEEPKcNS1_14digit_groupingIcEEEET0_S9_T1_iiRKT2_, symObjAddr: 0xDA10, symBinAddr: 0x11944, symSize: 0x144 }
  - { offset: 0x1CAAA, size: 0x8, addend: 0x0, symName: __ZN3fmt3v116detail17write_significandINS0_14basic_appenderIcEEcPKcNS1_14digit_groupingIcEEEET_S9_T1_iiT0_RKT2_, symObjAddr: 0xDC94, symBinAddr: 0x11BC8, symSize: 0x144 }
  - { offset: 0x1CF17, size: 0x8, addend: 0x0, symName: __ZN3fmt3v116detail11write_floatIcNS0_14basic_appenderIcEEdEET0_S5_T1_NS0_12format_specsENS1_10locale_refE, symObjAddr: 0xE064, symBinAddr: 0x11F98, symSize: 0x324 }
  - { offset: 0x1D626, size: 0x8, addend: 0x0, symName: __ZN3fmt3v116detail11write_floatIcNS0_14basic_appenderIcEEeEET0_S5_T1_NS0_12format_specsENS1_10locale_refE, symObjAddr: 0xE434, symBinAddr: 0x12368, symSize: 0x324 }
  - { offset: 0x1DDB1, size: 0x8, addend: 0x0, symName: __ZN3fmt3v116detail18for_each_codepointIZNS1_16code_point_indexENS0_17basic_string_viewIcEEmEUljS4_E_EEvS4_T_, symObjAddr: 0xEA48, symBinAddr: 0x1297C, symSize: 0x2B4 }
  - { offset: 0x1E005, size: 0x8, addend: 0x0, symName: __ZN3fmt3v116detail20write_escaped_stringIcNS1_17counting_iteratorEEET0_S4_NS0_17basic_string_viewIT_EE, symObjAddr: 0xE8D4, symBinAddr: 0x12808, symSize: 0x84 }
  - { offset: 0x1E1A3, size: 0x8, addend: 0x0, symName: __ZN3fmt3v116detail18for_each_codepointIZNS1_13compute_widthENS0_17basic_string_viewIcEEE17count_code_pointsEEvS4_T_, symObjAddr: 0xF0E8, symBinAddr: 0x1301C, symSize: 0x2B8 }
  - { offset: 0x1E402, size: 0x8, addend: 0x0, symName: __ZN3fmt3v116detail12write_paddedIcLNS0_5align4typeE1ENS0_14basic_appenderIcEEZNS1_5writeIcS6_EET0_S8_NS0_17basic_string_viewIT_EERKNS0_12format_specsEEUlS6_E_EET1_SG_SE_mmOT2_, symObjAddr: 0xE958, symBinAddr: 0x1288C, symSize: 0xF0 }
  - { offset: 0x1E763, size: 0x8, addend: 0x0, symName: __ZN3fmt3v116detail18for_each_codepointIZNS1_11find_escapeEPKcS4_EUljNS0_17basic_string_viewIcEEE_EEvS6_T_, symObjAddr: 0xEEA0, symBinAddr: 0x12DD4, symSize: 0xD4 }
  - { offset: 0x1E8F2, size: 0x8, addend: 0x0, symName: __ZN3fmt3v116detail16write_escaped_cpINS1_17counting_iteratorEcEET_S4_RKNS1_18find_escape_resultIT0_EE, symObjAddr: 0xECFC, symBinAddr: 0x12C30, symSize: 0x1A4 }
  - { offset: 0x1EBFE, size: 0x8, addend: 0x0, symName: __ZN3fmt3v116detail20write_escaped_stringIcNS0_14basic_appenderIcEEEET0_S5_NS0_17basic_string_viewIT_EE, symObjAddr: 0xF474, symBinAddr: 0x133A8, symSize: 0xEC }
  - { offset: 0x1EF3E, size: 0x8, addend: 0x0, symName: __ZN3fmt3v116detail9write_intINS0_14basic_appenderIcEEycEET_S5_T0_jRKNS0_12format_specsERKNS1_14digit_groupingIT1_EE, symObjAddr: 0xFF64, symBinAddr: 0x13E98, symSize: 0x4D0 }
  - { offset: 0x1F9A9, size: 0x8, addend: 0x0, symName: __ZN3fmt3v116detail9write_intINS0_14basic_appenderIcEEocEET_S5_T0_jRKNS0_12format_specsERKNS1_14digit_groupingIT1_EE, symObjAddr: 0x1054C, symBinAddr: 0x14480, symSize: 0x5E0 }
  - { offset: 0x2040E, size: 0x8, addend: 0x0, symName: __ZN3fmt3v116detail12write_paddedIcLNS0_5align4typeE2ENS0_14basic_appenderIcEEZNS1_9write_intIS6_ycEET_S8_T0_jRKNS0_12format_specsERKNS1_14digit_groupingIT1_EEEUlS6_E_EESE_SE_SC_mmOT2_, symObjAddr: 0x10434, symBinAddr: 0x14368, symSize: 0x118 }
  - { offset: 0x208E8, size: 0x8, addend: 0x0, symName: __ZN3fmt3v1112format_facetINSt3__16localeEE2idE, symObjAddr: 0x12578, symBinAddr: 0x1C0E0, symSize: 0x0 }
  - { offset: 0x21BAA, size: 0x8, addend: 0x0, symName: __ZN3fmt3v1112report_errorEPKc, symObjAddr: 0x3D8, symBinAddr: 0x43D8, symSize: 0x50 }
  - { offset: 0x21BE7, size: 0x8, addend: 0x0, symName: __ZN3fmt3v1113vsystem_errorEiNS0_17basic_string_viewIcEENS0_17basic_format_argsINS0_7contextEEE, symObjAddr: 0x67C, symBinAddr: 0x467C, symSize: 0xB4 }
  - { offset: 0x21EC2, size: 0x8, addend: 0x0, symName: __ZN3fmt3v117vformatENS0_17basic_string_viewIcEENS0_17basic_format_argsINS0_7contextEEE, symObjAddr: 0x730, symBinAddr: 0x4730, symSize: 0xD0 }
  - { offset: 0x22500, size: 0x8, addend: 0x0, symName: __ZN3fmt3v1119format_system_errorERNS0_6detail6bufferIcEEiPKc, symObjAddr: 0x9F4, symBinAddr: 0x49F4, symSize: 0xAC }
  - { offset: 0x22638, size: 0x8, addend: 0x0, symName: __ZN3fmt3v1119report_system_errorEiPKc, symObjAddr: 0xAE4, symBinAddr: 0x4AE4, symSize: 0x14 }
  - { offset: 0x2268F, size: 0x8, addend: 0x0, symName: __ZN3fmt3v1112system_errorIJEEENSt3__112system_errorEiNS0_19basic_format_stringIcJDpNS0_13type_identityIT_E4typeEEEEDpOS6_, symObjAddr: 0x226C, symBinAddr: 0x626C, symSize: 0x24 }
  - { offset: 0x22705, size: 0x8, addend: 0x0, symName: __ZN3fmt3v1115vprint_bufferedEP7__sFILENS0_17basic_string_viewIcEENS0_17basic_format_argsINS0_7contextEEE, symObjAddr: 0xD4C, symBinAddr: 0x4D4C, symSize: 0xC0 }
  - { offset: 0x22A10, size: 0x8, addend: 0x0, symName: __ZN3fmt3v116vprintEP7__sFILENS0_17basic_string_viewIcEENS0_17basic_format_argsINS0_7contextEEE, symObjAddr: 0xE0C, symBinAddr: 0x4E0C, symSize: 0x4 }
  - { offset: 0x22A3E, size: 0x8, addend: 0x0, symName: __ZN3fmt3v116vprintEP7__sFILENS0_17basic_string_viewIcEENS0_17basic_format_argsINS0_7contextEEE, symObjAddr: 0xE0C, symBinAddr: 0x4E0C, symSize: 0x4 }
  - { offset: 0x22A6C, size: 0x8, addend: 0x0, symName: __ZN3fmt3v118vprintlnEP7__sFILENS0_17basic_string_viewIcEENS0_17basic_format_argsINS0_7contextEEE, symObjAddr: 0xE10, symBinAddr: 0x4E10, symSize: 0xF8 }
  - { offset: 0x22E09, size: 0x8, addend: 0x0, symName: __ZN3fmt3v116vprintENS0_17basic_string_viewIcEENS0_17basic_format_argsINS0_7contextEEE, symObjAddr: 0xF08, symBinAddr: 0x4F08, symSize: 0x20 }
  - { offset: 0x28A08, size: 0x8, addend: 0x0, symName: __ZNSt3__120__throw_length_errorB8ne200100EPKc, symObjAddr: 0x1F38, symBinAddr: 0x5F38, symSize: 0x50 }
  - { offset: 0x2A082, size: 0x8, addend: 0x0, symName: __ZSt28__throw_bad_array_new_lengthB8ne200100v, symObjAddr: 0x1E04, symBinAddr: 0x5E04, symSize: 0x28 }
  - { offset: 0x2A0F7, size: 0x8, addend: 0x0, symName: __ZN3fmt3v116detail9dragonbox14cache_accessorIdE16get_cached_powerEi, symObjAddr: 0x804, symBinAddr: 0x4804, symSize: 0xB0 }
  - { offset: 0x2A118, size: 0x8, addend: 0x0, symName: __ZZN3fmt3v116detail9dragonbox14cache_accessorIdE16get_cached_powerEiE18pow10_significands, symObjAddr: 0x11B48, symBinAddr: 0x15568, symSize: 0x0 }
  - { offset: 0x2A12F, size: 0x8, addend: 0x0, symName: __ZZN3fmt3v116detail9dragonbox14cache_accessorIdE16get_cached_powerEiE14powers_of_5_64, symObjAddr: 0x11CC8, symBinAddr: 0x156E8, symSize: 0x0 }
  - { offset: 0x2AA6B, size: 0x8, addend: 0x0, symName: __ZN3fmt3v116detail6bigint8multiplyIoLi0EEEvT_, symObjAddr: 0xCEC0, symBinAddr: 0x10DF4, symSize: 0xE0 }
  - { offset: 0x2AAE5, size: 0x8, addend: 0x0, symName: __ZN3fmt3v116detail6bigint8multiplyIoLi0EEEvT_, symObjAddr: 0xCEC0, symBinAddr: 0x10DF4, symSize: 0xE0 }
  - { offset: 0x2AB16, size: 0x8, addend: 0x0, symName: __ZN3fmt3v116detail6bigint8multiplyIoLi0EEEvT_, symObjAddr: 0xCEC0, symBinAddr: 0x10DF4, symSize: 0xE0 }
  - { offset: 0x2AFC3, size: 0x8, addend: 0x0, symName: __ZN3fmt3v1112format_facetINSt3__16localeEEC2ERS3_, symObjAddr: 0xF560, symBinAddr: 0x13494, symSize: 0x138 }
  - { offset: 0x2B692, size: 0x8, addend: 0x0, symName: __ZN3fmt3v1112format_facetINSt3__16localeEED1Ev, symObjAddr: 0x378, symBinAddr: 0x4378, symSize: 0x60 }
  - { offset: 0x2B9EB, size: 0x8, addend: 0x0, symName: __ZNK3fmt3v116detail10locale_ref3getINSt3__16localeEEET_v, symObjAddr: 0x360, symBinAddr: 0x4360, symSize: 0x18 }
  - { offset: 0x2BA13, size: 0x8, addend: 0x0, symName: __ZN3fmt3v1112format_errorCI1St13runtime_errorEPKc, symObjAddr: 0x428, symBinAddr: 0x4428, symSize: 0x24 }
  - { offset: 0x2BAA7, size: 0x8, addend: 0x0, symName: __ZN3fmt3v1112format_errorD1Ev, symObjAddr: 0x44C, symBinAddr: 0x444C, symSize: 0x4 }
  - { offset: 0x2BAC9, size: 0x8, addend: 0x0, symName: __ZN3fmt3v1112format_errorD1Ev, symObjAddr: 0x44C, symBinAddr: 0x444C, symSize: 0x4 }
  - { offset: 0x2BB8C, size: 0x8, addend: 0x0, symName: __ZNK3fmt3v1112format_facetINSt3__16localeEE6do_putENS0_14basic_appenderIcEENS0_9loc_valueERKNS0_12format_specsE, symObjAddr: 0x450, symBinAddr: 0x4450, symSize: 0x138 }
  - { offset: 0x2C1AF, size: 0x8, addend: 0x0, symName: __ZNSt3__112basic_stringIcNS_11char_traitsIcEENS_9allocatorIcEEE25__init_copy_ctor_externalEPKcm, symObjAddr: 0x1EA4, symBinAddr: 0x5EA4, symSize: 0x80 }
  - { offset: 0x2C37B, size: 0x8, addend: 0x0, symName: __ZNSt3__112basic_stringIcNS_11char_traitsIcEENS_9allocatorIcEEE20__throw_length_errorB8ne200100Ev, symObjAddr: 0x1F24, symBinAddr: 0x5F24, symSize: 0x14 }
  - { offset: 0x2C392, size: 0x8, addend: 0x0, symName: __ZN3fmt3v119loc_value5visitINS0_6detail10loc_writerIcEEEEDTclfp_Li0EEEOT_, symObjAddr: 0x588, symBinAddr: 0x4588, symSize: 0xA4 }
  - { offset: 0x2C440, size: 0x8, addend: 0x0, symName: __ZN3fmt3v116detail10loc_writerIcED1Ev, symObjAddr: 0x62C, symBinAddr: 0x462C, symSize: 0x50 }
  - { offset: 0x2C7CE, size: 0x8, addend: 0x0, symName: __ZN3fmt3v116detail10loc_writerIcEclIxLi0EEEbT_, symObjAddr: 0xF980, symBinAddr: 0x138B4, symSize: 0x180 }
  - { offset: 0x2D0C2, size: 0x8, addend: 0x0, symName: __ZN3fmt3v116detail10loc_writerIcEclIoLi0EEEbT_, symObjAddr: 0xFDF4, symBinAddr: 0x13D28, symSize: 0x170 }
  - { offset: 0x2D9B2, size: 0x8, addend: 0x0, symName: __ZN3fmt3v116detail10loc_writerIcEclIiLi0EEEbT_, symObjAddr: 0xF698, symBinAddr: 0x135CC, symSize: 0x180 }
  - { offset: 0x2E286, size: 0x8, addend: 0x0, symName: __ZN3fmt3v116detail10loc_writerIcEclIyLi0EEEbT_, symObjAddr: 0xFB00, symBinAddr: 0x13A34, symSize: 0x168 }
  - { offset: 0x2EB70, size: 0x8, addend: 0x0, symName: __ZN3fmt3v116detail10loc_writerIcEclIjLi0EEEbT_, symObjAddr: 0xF818, symBinAddr: 0x1374C, symSize: 0x168 }
  - { offset: 0x2F448, size: 0x8, addend: 0x0, symName: __ZN3fmt3v116detail10loc_writerIcEclInLi0EEEbT_, symObjAddr: 0xFC68, symBinAddr: 0x13B9C, symSize: 0x18C }
  - { offset: 0x2FE7C, size: 0x8, addend: 0x0, symName: __ZNSt3__112basic_stringIcNS_11char_traitsIcEENS_9allocatorIcEEEC2B8ne200100EPKcm, symObjAddr: 0x10C44, symBinAddr: 0x14A60, symSize: 0x9C }
  - { offset: 0x30317, size: 0x8, addend: 0x0, symName: __ZN3fmt3v116detail13utf8_to_utf16C1ENS0_17basic_string_viewIcEE, symObjAddr: 0x9F0, symBinAddr: 0x49F0, symSize: 0x4 }
  - { offset: 0x30382, size: 0x8, addend: 0x0, symName: __ZN3fmt3v116detail13utf8_to_utf16C1ENS0_17basic_string_viewIcEE, symObjAddr: 0x9F0, symBinAddr: 0x49F0, symSize: 0x4 }
  - { offset: 0x30496, size: 0x8, addend: 0x0, symName: __ZN3fmt3v116detail13utf8_to_utf16C2ENS0_17basic_string_viewIcEE, symObjAddr: 0x8B4, symBinAddr: 0x48B4, symSize: 0x13C }
  - { offset: 0x3078B, size: 0x8, addend: 0x0, symName: '__ZZN3fmt3v116detail18for_each_codepointIZNS1_13utf8_to_utf16C1ENS0_17basic_string_viewIcEEE3$_0EEvS5_T_ENKUlPKcS9_E_clES9_S9_', symObjAddr: 0x204C, symBinAddr: 0x604C, symSize: 0x1F0 }
  - { offset: 0x30E65, size: 0x8, addend: 0x0, symName: __ZN3fmt3v116detail21default_arg_formatterIcEclIPKvEENS0_14basic_appenderIcEET_, symObjAddr: 0x22D8, symBinAddr: 0x62D8, symSize: 0x44 }
  - { offset: 0x30F41, size: 0x8, addend: 0x0, symName: __ZN3fmt3v116detail21default_arg_formatterIcEclIbEENS0_14basic_appenderIcEET_, symObjAddr: 0x2290, symBinAddr: 0x6290, symSize: 0x48 }
  - { offset: 0x3125A, size: 0x8, addend: 0x0, symName: __ZN3fmt3v116detail10locale_refC2INSt3__16localeEEERKT_, symObjAddr: 0x17CC, symBinAddr: 0x57CC, symSize: 0x8 }
  - { offset: 0x312B5, size: 0x8, addend: 0x0, symName: __ZN3fmt3v116detail10locale_refC1INSt3__16localeEEERKT_, symObjAddr: 0x17D4, symBinAddr: 0x57D4, symSize: 0x8 }
  - { offset: 0x312EE, size: 0x8, addend: 0x0, symName: __ZN3fmt3v116detail10locale_refC1INSt3__16localeEEERKT_, symObjAddr: 0x17D4, symBinAddr: 0x57D4, symSize: 0x8 }
  - { offset: 0x313EF, size: 0x8, addend: 0x0, symName: __ZN3fmt3v116detail6bufferIcE6appendIcEEvPKT_S7_, symObjAddr: 0x1938, symBinAddr: 0x5938, symSize: 0xA4 }
  - { offset: 0x31519, size: 0x8, addend: 0x0, symName: __ZNK3fmt3v1117basic_format_argsINS0_7contextEE3getEi, symObjAddr: 0x19DC, symBinAddr: 0x59DC, symSize: 0x60 }
  - { offset: 0x3154A, size: 0x8, addend: 0x0, symName: __ZNK3fmt3v1117basic_format_argsINS0_7contextEE3getEi, symObjAddr: 0x19DC, symBinAddr: 0x59DC, symSize: 0x60 }
  - { offset: 0x31566, size: 0x8, addend: 0x0, symName: __ZNK3fmt3v1117basic_format_argsINS0_7contextEE3getEi, symObjAddr: 0x19DC, symBinAddr: 0x59DC, symSize: 0x60 }
  - { offset: 0x316A9, size: 0x8, addend: 0x0, symName: __ZZN3fmt3v116detail19parse_format_stringILb0EcZNS1_10vformat_toIcEEvRNS1_6bufferIT_EENS0_17basic_string_viewIS5_EENS1_12vformat_argsIS5_E4typeENS1_10locale_refEE14format_handlerEEvNS8_IT0_EEOT1_EN6writerclEPKcSL_, symObjAddr: 0x7980, symBinAddr: 0xB8B4, symSize: 0xD8 }
  - { offset: 0x318E8, size: 0x8, addend: 0x0, symName: __ZN3fmt3v116detail12parse_arg_idIcRZNS1_23parse_replacement_fieldIcRZNS1_10vformat_toIcEEvRNS1_6bufferIT_EENS0_17basic_string_viewIS6_EENS1_12vformat_argsIS6_E4typeENS1_10locale_refEE14format_handlerEEPKS6_SI_SI_OT0_E10id_adapterEESI_SI_SI_SK_, symObjAddr: 0x7A58, symBinAddr: 0xB98C, symSize: 0x48 }
  - { offset: 0x31952, size: 0x8, addend: 0x0, symName: __ZN3fmt3v116detail6bufferIwE6appendIwEEvPKT_S7_, symObjAddr: 0x1CEC, symBinAddr: 0x5CEC, symSize: 0xA0 }
  - { offset: 0x31A63, size: 0x8, addend: 0x0, symName: __ZN3fmt3v1119basic_memory_bufferIcLm500ENSt3__19allocatorIcEEE4growERNS0_6detail6bufferIcEEm, symObjAddr: 0x1D8C, symBinAddr: 0x5D8C, symSize: 0x78 }
  - { offset: 0x31C4A, size: 0x8, addend: 0x0, symName: __ZN3fmt3v1112format_facetINSt3__16localeEED0Ev, symObjAddr: 0x1E2C, symBinAddr: 0x5E2C, symSize: 0x64 }
  - { offset: 0x31FE7, size: 0x8, addend: 0x0, symName: __ZN3fmt3v1112format_errorD0Ev, symObjAddr: 0x1E90, symBinAddr: 0x5E90, symSize: 0x14 }
  - { offset: 0x3210E, size: 0x8, addend: 0x0, symName: __ZNSt3__112basic_stringIcNS_11char_traitsIcEENS_9allocatorIcEEE20__throw_length_errorB8ne200100Ev, symObjAddr: 0x1F24, symBinAddr: 0x5F24, symSize: 0x14 }
  - { offset: 0x32125, size: 0x8, addend: 0x0, symName: __ZNSt3__120__throw_length_errorB8ne200100EPKc, symObjAddr: 0x1F38, symBinAddr: 0x5F38, symSize: 0x50 }
  - { offset: 0x32130, size: 0x8, addend: 0x0, symName: __ZNSt12length_errorC1B8ne200100EPKc, symObjAddr: 0x1F88, symBinAddr: 0x5F88, symSize: 0x24 }
  - { offset: 0x3220B, size: 0x8, addend: 0x0, symName: __ZN3fmt3v1119basic_memory_bufferIwLm500ENSt3__19allocatorIwEEE4growERNS0_6detail6bufferIwEEm, symObjAddr: 0x1FAC, symBinAddr: 0x5FAC, symSize: 0xA0 }
  - { offset: 0x323D6, size: 0x8, addend: 0x0, symName: '__ZZN3fmt3v116detail18for_each_codepointIZNS1_13utf8_to_utf16C1ENS0_17basic_string_viewIcEEE3$_0EEvS5_T_ENKUlPKcS9_E_clES9_S9_', symObjAddr: 0x204C, symBinAddr: 0x604C, symSize: 0x1F0 }
  - { offset: 0x327E2, size: 0x8, addend: 0x0, symName: __ZZN3fmt3v116detail9write_intIcNS0_14basic_appenderIcEEZNS1_9write_intIcS4_jEET0_S6_NS1_13write_int_argIT1_EERKNS0_12format_specsENS1_10locale_refEEUlS4_E0_EES6_S6_ijSC_S8_ENKUlS4_E_clES4_, symObjAddr: 0x3940, symBinAddr: 0x7910, symSize: 0x1B4 }
  - { offset: 0x32A86, size: 0x8, addend: 0x0, symName: __ZZN3fmt3v116detail9write_intIcNS0_14basic_appenderIcEEZNS1_9write_intIcS4_jEET0_S6_NS1_13write_int_argIT1_EERKNS0_12format_specsENS1_10locale_refEEUlS4_E1_EES6_S6_ijSC_S8_ENKUlS4_E_clES4_, symObjAddr: 0x3BB8, symBinAddr: 0x7B88, symSize: 0x180 }
  - { offset: 0x32D34, size: 0x8, addend: 0x0, symName: __ZZN3fmt3v116detail9write_intIcNS0_14basic_appenderIcEEZNS1_9write_intIcS4_jEET0_S6_NS1_13write_int_argIT1_EERKNS0_12format_specsENS1_10locale_refEEUlS4_E2_EES6_S6_ijSC_S8_ENKUlS4_E_clES4_, symObjAddr: 0x3DFC, symBinAddr: 0x7DCC, symSize: 0x184 }
  - { offset: 0x331D3, size: 0x8, addend: 0x0, symName: __ZN3fmt3v116detail14digit_groupingIcEC2ENS1_10locale_refEb, symObjAddr: 0x53A0, symBinAddr: 0x9370, symSize: 0x114 }
  - { offset: 0x33919, size: 0x8, addend: 0x0, symName: __ZNK3fmt3v116detail14digit_groupingIcE16count_separatorsEi, symObjAddr: 0x5018, symBinAddr: 0x8FE8, symSize: 0x68 }
  - { offset: 0x33A25, size: 0x8, addend: 0x0, symName: __ZZN3fmt3v116detail14do_write_floatIcNS0_14basic_appenderIcEENS1_9dragonbox10decimal_fpIfEENS1_14digit_groupingIcEEEET0_SA_RKT1_RKNS0_12format_specsENS1_11float_specsENS1_10locale_refEENKUlS4_E_clES4_, symObjAddr: 0x4E3C, symBinAddr: 0x8E0C, symSize: 0x1DC }
  - { offset: 0x33C5D, size: 0x8, addend: 0x0, symName: __ZN3fmt3v116detail14digit_groupingIcED1Ev, symObjAddr: 0x5080, symBinAddr: 0x9050, symSize: 0x40 }
  - { offset: 0x33EE4, size: 0x8, addend: 0x0, symName: __ZNK3fmt3v116detail14digit_groupingIcE4nextERNS3_10next_stateE, symObjAddr: 0x54B4, symBinAddr: 0x9484, symSize: 0x8C }
  - { offset: 0x33F47, size: 0x8, addend: 0x0, symName: __ZNK3fmt3v116detail14digit_groupingIcE4nextERNS3_10next_stateE, symObjAddr: 0x54B4, symBinAddr: 0x9484, symSize: 0x8C }
  - { offset: 0x341A1, size: 0x8, addend: 0x0, symName: __ZZN3fmt3v116detail14do_write_floatIcNS0_14basic_appenderIcEENS1_9dragonbox10decimal_fpIfEENS1_14digit_groupingIcEEEET0_SA_RKT1_RKNS0_12format_specsENS1_11float_specsENS1_10locale_refEENKUlS4_E0_clES4_, symObjAddr: 0x5604, symBinAddr: 0x95D4, symSize: 0x104 }
  - { offset: 0x34303, size: 0x8, addend: 0x0, symName: __ZNK3fmt3v116detail14digit_groupingIcE5applyINS0_14basic_appenderIcEEcEET_S7_NS0_17basic_string_viewIT0_EE, symObjAddr: 0x5868, symBinAddr: 0x9838, symSize: 0x1A8 }
  - { offset: 0x34B8B, size: 0x8, addend: 0x0, symName: __ZN3fmt3v1119basic_memory_bufferIiLm500ENSt3__19allocatorIiEEE4growERNS0_6detail6bufferIiEEm, symObjAddr: 0x5A10, symBinAddr: 0x99E0, symSize: 0xA0 }
  - { offset: 0x34D56, size: 0x8, addend: 0x0, symName: __ZN3fmt3v116detail12write_paddedIcLNS0_5align4typeE2ENS0_14basic_appenderIcEERZNS1_14do_write_floatIcS6_NS1_9dragonbox10decimal_fpIfEENS1_14digit_groupingIcEEEET0_SD_RKT1_RKNS0_12format_specsENS1_11float_specsENS1_10locale_refEEUlS6_E1_EESE_SE_SJ_mmOT2_, symObjAddr: 0x5AB0, symBinAddr: 0x9A80, symSize: 0x140 }
  - { offset: 0x34DB9, size: 0x8, addend: 0x0, symName: __ZZN3fmt3v116detail14do_write_floatIcNS0_14basic_appenderIcEENS1_9dragonbox10decimal_fpIfEENS1_14digit_groupingIcEEEET0_SA_RKT1_RKNS0_12format_specsENS1_11float_specsENS1_10locale_refEENKUlS4_E2_clES4_, symObjAddr: 0x5F5C, symBinAddr: 0x9F2C, symSize: 0x168 }
  - { offset: 0x3507B, size: 0x8, addend: 0x0, symName: __ZZN3fmt3v116detail14do_write_floatIcNS0_14basic_appenderIcEENS1_9dragonbox10decimal_fpIdEENS1_14digit_groupingIcEEEET0_SA_RKT1_RKNS0_12format_specsENS1_11float_specsENS1_10locale_refEENKUlS4_E_clES4_, symObjAddr: 0x657C, symBinAddr: 0xA54C, symSize: 0x1E8 }
  - { offset: 0x352CC, size: 0x8, addend: 0x0, symName: __ZZN3fmt3v116detail14do_write_floatIcNS0_14basic_appenderIcEENS1_9dragonbox10decimal_fpIdEENS1_14digit_groupingIcEEEET0_SA_RKT1_RKNS0_12format_specsENS1_11float_specsENS1_10locale_refEENKUlS4_E0_clES4_, symObjAddr: 0x68EC, symBinAddr: 0xA8BC, symSize: 0x104 }
  - { offset: 0x3545A, size: 0x8, addend: 0x0, symName: __ZZN3fmt3v116detail14do_write_floatIcNS0_14basic_appenderIcEENS1_9dragonbox10decimal_fpIdEENS1_14digit_groupingIcEEEET0_SA_RKT1_RKNS0_12format_specsENS1_11float_specsENS1_10locale_refEENKUlS4_E2_clES4_, symObjAddr: 0x7014, symBinAddr: 0xAFE4, symSize: 0x168 }
  - { offset: 0x35815, size: 0x8, addend: 0x0, symName: __ZZN3fmt3v116detail10vformat_toIcEEvRNS1_6bufferIT_EENS0_17basic_string_viewIS4_EENS1_12vformat_argsIS4_E4typeENS1_10locale_refEEN14format_handler15on_format_specsEiPKcSF_, symObjAddr: 0x7AA0, symBinAddr: 0xB9D4, symSize: 0x478 }
  - { offset: 0x36B72, size: 0x8, addend: 0x0, symName: __ZZN3fmt3v116detail10vformat_toIcEEvRNS1_6bufferIT_EENS0_17basic_string_viewIS4_EENS1_12vformat_argsIS4_E4typeENS1_10locale_refEEN14format_handler9on_arg_idENS7_IcEE, symObjAddr: 0x80F0, symBinAddr: 0xC024, symSize: 0x30 }
  - { offset: 0x36C13, size: 0x8, addend: 0x0, symName: __ZNK3fmt3v1117basic_format_argsINS0_7contextEE6get_idIcEEiNS0_17basic_string_viewIT_EE, symObjAddr: 0x8120, symBinAddr: 0xC054, symSize: 0xB0 }
  - { offset: 0x36C5E, size: 0x8, addend: 0x0, symName: __ZNK3fmt3v1117basic_format_argsINS0_7contextEE6get_idIcEEiNS0_17basic_string_viewIT_EE, symObjAddr: 0x8120, symBinAddr: 0xC054, symSize: 0xB0 }
  - { offset: 0x36CA3, size: 0x8, addend: 0x0, symName: __ZNK3fmt3v1117basic_format_argsINS0_7contextEE6get_idIcEEiNS0_17basic_string_viewIT_EE, symObjAddr: 0x8120, symBinAddr: 0xC054, symSize: 0xB0 }
  - { offset: 0x37042, size: 0x8, addend: 0x0, symName: __ZNK3fmt3v1117basic_format_argsINS0_7contextEE3getIcEENS0_16basic_format_argIS2_EENS0_17basic_string_viewIT_EE, symObjAddr: 0x8A98, symBinAddr: 0xC9CC, symSize: 0x44 }
  - { offset: 0x373C0, size: 0x8, addend: 0x0, symName: __ZZN3fmt3v116detail9write_intIcNS0_14basic_appenderIcEEZNS1_9write_intIcS4_yEET0_S6_NS1_13write_int_argIT1_EERKNS0_12format_specsENS1_10locale_refEEUlS4_E0_EES6_S6_ijSC_S8_ENKUlS4_E_clES4_, symObjAddr: 0x9550, symBinAddr: 0xD484, symSize: 0x1B8 }
  - { offset: 0x37664, size: 0x8, addend: 0x0, symName: __ZZN3fmt3v116detail9write_intIcNS0_14basic_appenderIcEEZNS1_9write_intIcS4_yEET0_S6_NS1_13write_int_argIT1_EERKNS0_12format_specsENS1_10locale_refEEUlS4_E1_EES6_S6_ijSC_S8_ENKUlS4_E_clES4_, symObjAddr: 0x97CC, symBinAddr: 0xD700, symSize: 0x184 }
  - { offset: 0x37912, size: 0x8, addend: 0x0, symName: __ZZN3fmt3v116detail9write_intIcNS0_14basic_appenderIcEEZNS1_9write_intIcS4_yEET0_S6_NS1_13write_int_argIT1_EERKNS0_12format_specsENS1_10locale_refEEUlS4_E2_EES6_S6_ijSC_S8_ENKUlS4_E_clES4_, symObjAddr: 0x9A14, symBinAddr: 0xD948, symSize: 0x18C }
  - { offset: 0x37DDE, size: 0x8, addend: 0x0, symName: __ZZN3fmt3v116detail9write_intIcNS0_14basic_appenderIcEEZNS1_9write_intIcS4_oEET0_S6_NS1_13write_int_argIT1_EERKNS0_12format_specsENS1_10locale_refEEUlS4_E0_EES6_S6_ijSC_S8_ENKUlS4_E_clES4_, symObjAddr: 0xA68C, symBinAddr: 0xE5C0, symSize: 0x1D4 }
  - { offset: 0x3808B, size: 0x8, addend: 0x0, symName: __ZZN3fmt3v116detail9write_intIcNS0_14basic_appenderIcEEZNS1_9write_intIcS4_oEET0_S6_NS1_13write_int_argIT1_EERKNS0_12format_specsENS1_10locale_refEEUlS4_E1_EES6_S6_ijSC_S8_ENKUlS4_E_clES4_, symObjAddr: 0xA924, symBinAddr: 0xE858, symSize: 0x198 }
  - { offset: 0x38342, size: 0x8, addend: 0x0, symName: __ZZN3fmt3v116detail9write_intIcNS0_14basic_appenderIcEEZNS1_9write_intIcS4_oEET0_S6_NS1_13write_int_argIT1_EERKNS0_12format_specsENS1_10locale_refEEUlS4_E2_EES6_S6_ijSC_S8_ENKUlS4_E_clES4_, symObjAddr: 0xAB80, symBinAddr: 0xEAB4, symSize: 0x1A4 }
  - { offset: 0x38D71, size: 0x8, addend: 0x0, symName: __ZN3fmt3v1119basic_memory_bufferIjLm32ENSt3__19allocatorIjEEE4growERNS0_6detail6bufferIjEEm, symObjAddr: 0xCB0C, symBinAddr: 0x10A40, symSize: 0xA0 }
  - { offset: 0x38F3C, size: 0x8, addend: 0x0, symName: __ZN3fmt3v116detail6bigint6squareEv, symObjAddr: 0xCBAC, symBinAddr: 0x10AE0, symSize: 0x1BC }
  - { offset: 0x38F47, size: 0x8, addend: 0x0, symName: __ZN3fmt3v116detail6bigintlSEi, symObjAddr: 0xC6B4, symBinAddr: 0x105E8, symSize: 0xB4 }
  - { offset: 0x3904A, size: 0x8, addend: 0x0, symName: __ZN3fmt3v116detail6bigint12assign_pow10Ei, symObjAddr: 0xC768, symBinAddr: 0x1069C, symSize: 0x108 }
  - { offset: 0x3927D, size: 0x8, addend: 0x0, symName: __ZN3fmt3v116detail6bigint8multiplyEj, symObjAddr: 0xCFA0, symBinAddr: 0x10ED4, symSize: 0x84 }
  - { offset: 0x392D2, size: 0x8, addend: 0x0, symName: __ZN3fmt3v116detail6bigint8multiplyEj, symObjAddr: 0xCFA0, symBinAddr: 0x10ED4, symSize: 0x84 }
  - { offset: 0x39303, size: 0x8, addend: 0x0, symName: __ZN3fmt3v116detail6bigint8multiplyEj, symObjAddr: 0xCFA0, symBinAddr: 0x10ED4, symSize: 0x84 }
  - { offset: 0x39390, size: 0x8, addend: 0x0, symName: __ZN3fmt3v116detail6bigint13divmod_assignERKS2_, symObjAddr: 0xCA18, symBinAddr: 0x1094C, symSize: 0x6C }
  - { offset: 0x39441, size: 0x8, addend: 0x0, symName: __ZN3fmt3v116detail6bigint6assignERKS2_, symObjAddr: 0xC870, symBinAddr: 0x107A4, symSize: 0x88 }
  - { offset: 0x395BD, size: 0x8, addend: 0x0, symName: __ZN3fmt3v116detail6bigint6squareEv, symObjAddr: 0xCBAC, symBinAddr: 0x10AE0, symSize: 0x1BC }
  - { offset: 0x39AAE, size: 0x8, addend: 0x0, symName: __ZN3fmt3v116detail6bigint5alignERKS2_, symObjAddr: 0xD024, symBinAddr: 0x10F58, symSize: 0xB0 }
  - { offset: 0x39BE9, size: 0x8, addend: 0x0, symName: __ZN3fmt3v116detail6bigint16subtract_alignedERKS2_, symObjAddr: 0xD0D4, symBinAddr: 0x11008, symSize: 0x90 }
  - { offset: 0x39D5A, size: 0x8, addend: 0x0, symName: __ZN3fmt3v1119basic_memory_bufferIjLm32ENSt3__19allocatorIjEEEC2EOS5_, symObjAddr: 0xCDEC, symBinAddr: 0x10D20, symSize: 0x38 }
  - { offset: 0x39DE9, size: 0x8, addend: 0x0, symName: __ZN3fmt3v116detail6bigint20remove_leading_zerosEv, symObjAddr: 0xCD68, symBinAddr: 0x10C9C, symSize: 0x84 }
  - { offset: 0x39F5A, size: 0x8, addend: 0x0, symName: __ZN3fmt3v1119basic_memory_bufferIjLm32ENSt3__19allocatorIjEEE4moveERS5_, symObjAddr: 0xCE24, symBinAddr: 0x10D58, symSize: 0x9C }
  - { offset: 0x3A23A, size: 0x8, addend: 0x0, symName: __ZZN3fmt3v116detail14do_write_floatIcNS0_14basic_appenderIcEENS1_14big_decimal_fpENS1_14digit_groupingIcEEEET0_S8_RKT1_RKNS0_12format_specsENS1_11float_specsENS1_10locale_refEENKUlS4_E0_clES4_, symObjAddr: 0xD90C, symBinAddr: 0x11840, symSize: 0x104 }
  - { offset: 0x3A3C8, size: 0x8, addend: 0x0, symName: __ZZN3fmt3v116detail14do_write_floatIcNS0_14basic_appenderIcEENS1_14big_decimal_fpENS1_14digit_groupingIcEEEET0_S8_RKT1_RKNS0_12format_specsENS1_11float_specsENS1_10locale_refEENKUlS4_E2_clES4_, symObjAddr: 0xDE9C, symBinAddr: 0x11DD0, symSize: 0x11C }
  - { offset: 0x3A81D, size: 0x8, addend: 0x0, symName: __ZZN3fmt3v116detail18for_each_codepointIZNS1_11find_escapeEPKcS4_EUljNS0_17basic_string_viewIcEEE_EEvS6_T_ENKUlS4_S4_E_clES4_S4_, symObjAddr: 0xEF74, symBinAddr: 0x12EA8, symSize: 0x174 }
  - { offset: 0x3A9D7, size: 0x8, addend: 0x0, symName: __ZZN3fmt3v116detail13compute_widthENS0_17basic_string_viewIcEEENK17count_code_pointsclEjS3_, symObjAddr: 0xF3A0, symBinAddr: 0x132D4, symSize: 0xD4 }
...
