---
triple:          'arm64-apple-darwin'
binary-path:     '/Users/uk-aplatts/Development/InjuryIQ/ios/DerivedData/Build/Intermediates.noindex/ArchiveIntermediates/InjuryIQ/IntermediateBuildFilesPath/UninstalledProducts/iphoneos/React_performancetimeline.framework/React_performancetimeline'
relocations:
  - { offset: 0x33, size: 0x8, addend: 0x0, symName: _React_performancetimelineVersionString, symObjAddr: 0x0, symBinAddr: 0xB4A0, symSize: 0x0 }
  - { offset: 0x67, size: 0x8, addend: 0x0, symName: _React_performancetimelineVersionNumber, symObjAddr: 0x38, symBinAddr: 0xB4D8, symSize: 0x0 }
  - { offset: 0x7F77, size: 0x8, addend: 0x0, symName: __ZNSt3__125__throw_bad_function_callB8ne200100Ev, symObjAddr: 0x16A0, symBinAddr: 0x56A0, symSize: 0x34 }
  - { offset: 0x83F6, size: 0x8, addend: 0x0, symName: __ZNSt3__119__allocate_at_leastB8ne200100INS_9allocatorINS_7variantIJN8facebook5react15PerformanceMarkENS4_18PerformanceMeasureENS4_22PerformanceEventTimingENS4_25PerformanceLongTaskTimingENS4_25PerformanceResourceTimingEEEEEEEENS_19__allocation_resultINS_16allocator_traitsIT_E7pointerEEERSE_m, symObjAddr: 0xC4C, symBinAddr: 0x4C4C, symSize: 0x40 }
  - { offset: 0x84A3, size: 0x8, addend: 0x0, symName: __ZNSt3__134__uninitialized_allocator_relocateB8ne200100INS_9allocatorINS_7variantIJN8facebook5react15PerformanceMarkENS4_18PerformanceMeasureENS4_22PerformanceEventTimingENS4_25PerformanceLongTaskTimingENS4_25PerformanceResourceTimingEEEEEEPSA_EEvRT_T0_SF_SF_, symObjAddr: 0xC8C, symBinAddr: 0x4C8C, symSize: 0x68 }
  - { offset: 0x84B7, size: 0x8, addend: 0x0, symName: __ZNSt3__134__uninitialized_allocator_relocateB8ne200100INS_9allocatorINS_7variantIJN8facebook5react15PerformanceMarkENS4_18PerformanceMeasureENS4_22PerformanceEventTimingENS4_25PerformanceLongTaskTimingENS4_25PerformanceResourceTimingEEEEEEPSA_EEvRT_T0_SF_SF_, symObjAddr: 0xC8C, symBinAddr: 0x4C8C, symSize: 0x68 }
  - { offset: 0x8516, size: 0x8, addend: 0x0, symName: __ZNSt3__134__uninitialized_allocator_relocateB8ne200100INS_9allocatorINS_7variantIJN8facebook5react15PerformanceMarkENS4_18PerformanceMeasureENS4_22PerformanceEventTimingENS4_25PerformanceLongTaskTimingENS4_25PerformanceResourceTimingEEEEEEPSA_EEvRT_T0_SF_SF_, symObjAddr: 0xC8C, symBinAddr: 0x4C8C, symSize: 0x68 }
  - { offset: 0x8E64, size: 0x8, addend: 0x0, symName: __ZNSt3__120__throw_length_errorB8ne200100EPKc, symObjAddr: 0xB9C, symBinAddr: 0x4B9C, symSize: 0x50 }
  - { offset: 0x9981, size: 0x8, addend: 0x0, symName: __ZNSt3__126__throw_bad_variant_accessB8ne200100Ev, symObjAddr: 0x17D8, symBinAddr: 0x57D8, symSize: 0x34 }
  - { offset: 0xB6BB, size: 0x8, addend: 0x0, symName: __ZSt28__throw_bad_array_new_lengthB8ne200100v, symObjAddr: 0xC10, symBinAddr: 0x4C10, symSize: 0x28 }
  - { offset: 0xCA4F, size: 0x8, addend: 0x0, symName: __ZNK8facebook5react30PerformanceEntryCircularBuffer10getEntriesERNSt3__16vectorINS2_7variantIJNS0_15PerformanceMarkENS0_18PerformanceMeasureENS0_22PerformanceEventTimingENS0_25PerformanceLongTaskTimingENS0_25PerformanceResourceTimingEEEENS2_9allocatorISA_EEEERKNS2_12basic_stringIcNS2_11char_traitsIcEENSB_IcEEEE, symObjAddr: 0x1E8, symBinAddr: 0x41E8, symSize: 0xCC }
  - { offset: 0xCE0E, size: 0x8, addend: 0x0, symName: __ZN8facebook5react30PerformanceEntryCircularBuffer5clearERKNSt3__112basic_stringIcNS2_11char_traitsIcEENS2_9allocatorIcEEEE, symObjAddr: 0x3B8, symBinAddr: 0x43B8, symSize: 0xCC }
  - { offset: 0xD1B5, size: 0x8, addend: 0x0, symName: __ZN8facebook5react30PerformanceEntryCircularBuffer3addERKNSt3__17variantIJNS0_15PerformanceMarkENS0_18PerformanceMeasureENS0_22PerformanceEventTimingENS0_25PerformanceLongTaskTimingENS0_25PerformanceResourceTimingEEEE, symObjAddr: 0x0, symBinAddr: 0x4000, symSize: 0x34 }
  - { offset: 0xD205, size: 0x8, addend: 0x0, symName: __ZN8facebook5react14CircularBufferINSt3__17variantIJNS0_15PerformanceMarkENS0_18PerformanceMeasureENS0_22PerformanceEventTimingENS0_25PerformanceLongTaskTimingENS0_25PerformanceResourceTimingEEEEE3addERKS9_, symObjAddr: 0x34, symBinAddr: 0x4034, symSize: 0xC4 }
  - { offset: 0xD83E, size: 0x8, addend: 0x0, symName: __ZNSt3__116__variant_detail12__assignmentINS0_8__traitsIJN8facebook5react15PerformanceMarkENS4_18PerformanceMeasureENS4_22PerformanceEventTimingENS4_25PerformanceLongTaskTimingENS4_25PerformanceResourceTimingEEEEE16__generic_assignB8ne200100IRKNS0_17__copy_assignmentISA_LNS0_6_TraitE1EEEEEvOT_, symObjAddr: 0xEDC, symBinAddr: 0x4EDC, symSize: 0x5C }
  - { offset: 0xDA25, size: 0x8, addend: 0x0, symName: __ZNSt3__116__variant_detail18__copy_constructorINS0_8__traitsIJN8facebook5react15PerformanceMarkENS4_18PerformanceMeasureENS4_22PerformanceEventTimingENS4_25PerformanceLongTaskTimingENS4_25PerformanceResourceTimingEEEELNS0_6_TraitE1EEC2B8ne200100ERKSC_, symObjAddr: 0x894, symBinAddr: 0x4894, symSize: 0x44 }
  - { offset: 0xDBE0, size: 0x8, addend: 0x0, symName: __ZNSt3__16vectorINS_7variantIJN8facebook5react15PerformanceMarkENS3_18PerformanceMeasureENS3_22PerformanceEventTimingENS3_25PerformanceLongTaskTimingENS3_25PerformanceResourceTimingEEEENS_9allocatorIS9_EEE24__emplace_back_slow_pathIJRKS9_EEEPS9_DpOT_, symObjAddr: 0x768, symBinAddr: 0x4768, symSize: 0x12C }
  - { offset: 0xDFEA, size: 0x8, addend: 0x0, symName: __ZNK8facebook5react30PerformanceEntryCircularBuffer10getEntriesERNSt3__16vectorINS2_7variantIJNS0_15PerformanceMarkENS0_18PerformanceMeasureENS0_22PerformanceEventTimingENS0_25PerformanceLongTaskTimingENS0_25PerformanceResourceTimingEEEENS2_9allocatorISA_EEEE, symObjAddr: 0xF8, symBinAddr: 0x40F8, symSize: 0x8 }
  - { offset: 0xE038, size: 0x8, addend: 0x0, symName: __ZNK8facebook5react14CircularBufferINSt3__17variantIJNS0_15PerformanceMarkENS0_18PerformanceMeasureENS0_22PerformanceEventTimingENS0_25PerformanceLongTaskTimingENS0_25PerformanceResourceTimingEEEEE10getEntriesERNS2_6vectorIS9_NS2_9allocatorIS9_EEEE, symObjAddr: 0x100, symBinAddr: 0x4100, symSize: 0xE8 }
  - { offset: 0xE5CB, size: 0x8, addend: 0x0, symName: __ZNSt3__16vectorINS_7variantIJN8facebook5react15PerformanceMarkENS3_18PerformanceMeasureENS3_22PerformanceEventTimingENS3_25PerformanceLongTaskTimingENS3_25PerformanceResourceTimingEEEENS_9allocatorIS9_EEE6resizeEm, symObjAddr: 0x143C, symBinAddr: 0x543C, symSize: 0x84 }
  - { offset: 0xEA66, size: 0x8, addend: 0x0, symName: __ZNK8facebook5react14CircularBufferINSt3__17variantIJNS0_15PerformanceMarkENS0_18PerformanceMeasureENS0_22PerformanceEventTimingENS0_25PerformanceLongTaskTimingENS0_25PerformanceResourceTimingEEEEE10getEntriesERNS2_6vectorIS9_NS2_9allocatorIS9_EEEENS2_8functionIFbRKS9_EEE, symObjAddr: 0x2B4, symBinAddr: 0x42B4, symSize: 0xBC }
  - { offset: 0xEB6C, size: 0x8, addend: 0x0, symName: __ZN8facebook5react30PerformanceEntryCircularBuffer5clearEv, symObjAddr: 0x370, symBinAddr: 0x4370, symSize: 0x48 }
  - { offset: 0xEBCB, size: 0x8, addend: 0x0, symName: __ZNSt3__16vectorINS_7variantIJN8facebook5react15PerformanceMarkENS3_18PerformanceMeasureENS3_22PerformanceEventTimingENS3_25PerformanceLongTaskTimingENS3_25PerformanceResourceTimingEEEENS_9allocatorIS9_EEE9push_backB8ne200100ERKS9_, symObjAddr: 0x1650, symBinAddr: 0x5650, symSize: 0x50 }
  - { offset: 0xF03D, size: 0x8, addend: 0x0, symName: __ZN8facebook5react30PerformanceEntryCircularBuffer5clearEv, symObjAddr: 0x370, symBinAddr: 0x4370, symSize: 0x48 }
  - { offset: 0xF29A, size: 0x8, addend: 0x0, symName: __ZNSt3__116__variant_detail6__dtorINS0_8__traitsIJN8facebook5react15PerformanceMarkENS4_18PerformanceMeasureENS4_22PerformanceEventTimingENS4_25PerformanceLongTaskTimingENS4_25PerformanceResourceTimingEEEELNS0_6_TraitE1EE9__destroyB8ne200100Ev, symObjAddr: 0x6B0, symBinAddr: 0x46B0, symSize: 0x54 }
  - { offset: 0xF5CD, size: 0x8, addend: 0x0, symName: __ZN8facebook5react14CircularBufferINSt3__17variantIJNS0_15PerformanceMarkENS0_18PerformanceMeasureENS0_22PerformanceEventTimingENS0_25PerformanceLongTaskTimingENS0_25PerformanceResourceTimingEEEEE5clearENS2_8functionIFbRKS9_EEE, symObjAddr: 0x484, symBinAddr: 0x4484, symSize: 0x120 }
  - { offset: 0xF970, size: 0x8, addend: 0x0, symName: __ZNSt3__16vectorINS_7variantIJN8facebook5react15PerformanceMarkENS3_18PerformanceMeasureENS3_22PerformanceEventTimingENS3_25PerformanceLongTaskTimingENS3_25PerformanceResourceTimingEEEENS_9allocatorIS9_EEE7reserveEm, symObjAddr: 0x1AA0, symBinAddr: 0x5AA0, symSize: 0xD4 }
  - { offset: 0xFBAC, size: 0x8, addend: 0x0, symName: __ZNSt3__16vectorINS_7variantIJN8facebook5react15PerformanceMarkENS3_18PerformanceMeasureENS3_22PerformanceEventTimingENS3_25PerformanceLongTaskTimingENS3_25PerformanceResourceTimingEEEENS_9allocatorIS9_EEE9push_backB8ne200100EOS9_, symObjAddr: 0x1B74, symBinAddr: 0x5B74, symSize: 0x44 }
  - { offset: 0xFE06, size: 0x8, addend: 0x0, symName: __ZNSt3__16vectorINS_7variantIJN8facebook5react15PerformanceMarkENS3_18PerformanceMeasureENS3_22PerformanceEventTimingENS3_25PerformanceLongTaskTimingENS3_25PerformanceResourceTimingEEEENS_9allocatorIS9_EEE16__destroy_vectorclB8ne200100Ev, symObjAddr: 0x640, symBinAddr: 0x4640, symSize: 0x70 }
  - { offset: 0x1010C, size: 0x8, addend: 0x0, symName: __ZN8facebook5react30PerformanceEntryCircularBufferD1Ev, symObjAddr: 0x5A4, symBinAddr: 0x45A4, symSize: 0x44 }
  - { offset: 0x10239, size: 0x8, addend: 0x0, symName: __ZN8facebook5react30PerformanceEntryCircularBufferD0Ev, symObjAddr: 0x5E8, symBinAddr: 0x45E8, symSize: 0x48 }
  - { offset: 0x106DF, size: 0x8, addend: 0x0, symName: __ZNSt3__116__variant_detail12__visitation6__base12__dispatcherIJLm0EEE10__dispatchB8ne200100IOZNS0_6__dtorINS0_8__traitsIJN8facebook5react15PerformanceMarkENS9_18PerformanceMeasureENS9_22PerformanceEventTimingENS9_25PerformanceLongTaskTimingENS9_25PerformanceResourceTimingEEEELNS0_6_TraitE1EE9__destroyB8ne200100EvEUlRT_E_JRNS0_6__baseILSG_1EJSA_SB_SC_SD_SE_EEEEEEDcSI_DpT0_, symObjAddr: 0x704, symBinAddr: 0x4704, symSize: 0x14 }
  - { offset: 0x107FF, size: 0x8, addend: 0x0, symName: __ZNSt3__116__variant_detail12__visitation6__base12__dispatcherIJLm0EEE10__dispatchB8ne200100IOZNS0_6__dtorINS0_8__traitsIJN8facebook5react15PerformanceMarkENS9_18PerformanceMeasureENS9_22PerformanceEventTimingENS9_25PerformanceLongTaskTimingENS9_25PerformanceResourceTimingEEEELNS0_6_TraitE1EE9__destroyB8ne200100EvEUlRT_E_JRNS0_6__baseILSG_1EJSA_SB_SC_SD_SE_EEEEEEDcSI_DpT0_, symObjAddr: 0x704, symBinAddr: 0x4704, symSize: 0x14 }
  - { offset: 0x10990, size: 0x8, addend: 0x0, symName: __ZNSt3__116__variant_detail12__visitation6__base12__dispatcherIJLm1EEE10__dispatchB8ne200100IOZNS0_6__dtorINS0_8__traitsIJN8facebook5react15PerformanceMarkENS9_18PerformanceMeasureENS9_22PerformanceEventTimingENS9_25PerformanceLongTaskTimingENS9_25PerformanceResourceTimingEEEELNS0_6_TraitE1EE9__destroyB8ne200100EvEUlRT_E_JRNS0_6__baseILSG_1EJSA_SB_SC_SD_SE_EEEEEEDcSI_DpT0_, symObjAddr: 0x718, symBinAddr: 0x4718, symSize: 0x14 }
  - { offset: 0x10AB0, size: 0x8, addend: 0x0, symName: __ZNSt3__116__variant_detail12__visitation6__base12__dispatcherIJLm1EEE10__dispatchB8ne200100IOZNS0_6__dtorINS0_8__traitsIJN8facebook5react15PerformanceMarkENS9_18PerformanceMeasureENS9_22PerformanceEventTimingENS9_25PerformanceLongTaskTimingENS9_25PerformanceResourceTimingEEEELNS0_6_TraitE1EE9__destroyB8ne200100EvEUlRT_E_JRNS0_6__baseILSG_1EJSA_SB_SC_SD_SE_EEEEEEDcSI_DpT0_, symObjAddr: 0x718, symBinAddr: 0x4718, symSize: 0x14 }
  - { offset: 0x10C41, size: 0x8, addend: 0x0, symName: __ZNSt3__116__variant_detail12__visitation6__base12__dispatcherIJLm2EEE10__dispatchB8ne200100IOZNS0_6__dtorINS0_8__traitsIJN8facebook5react15PerformanceMarkENS9_18PerformanceMeasureENS9_22PerformanceEventTimingENS9_25PerformanceLongTaskTimingENS9_25PerformanceResourceTimingEEEELNS0_6_TraitE1EE9__destroyB8ne200100EvEUlRT_E_JRNS0_6__baseILSG_1EJSA_SB_SC_SD_SE_EEEEEEDcSI_DpT0_, symObjAddr: 0x72C, symBinAddr: 0x472C, symSize: 0x14 }
  - { offset: 0x10D61, size: 0x8, addend: 0x0, symName: __ZNSt3__116__variant_detail12__visitation6__base12__dispatcherIJLm2EEE10__dispatchB8ne200100IOZNS0_6__dtorINS0_8__traitsIJN8facebook5react15PerformanceMarkENS9_18PerformanceMeasureENS9_22PerformanceEventTimingENS9_25PerformanceLongTaskTimingENS9_25PerformanceResourceTimingEEEELNS0_6_TraitE1EE9__destroyB8ne200100EvEUlRT_E_JRNS0_6__baseILSG_1EJSA_SB_SC_SD_SE_EEEEEEDcSI_DpT0_, symObjAddr: 0x72C, symBinAddr: 0x472C, symSize: 0x14 }
  - { offset: 0x10EF2, size: 0x8, addend: 0x0, symName: __ZNSt3__116__variant_detail12__visitation6__base12__dispatcherIJLm3EEE10__dispatchB8ne200100IOZNS0_6__dtorINS0_8__traitsIJN8facebook5react15PerformanceMarkENS9_18PerformanceMeasureENS9_22PerformanceEventTimingENS9_25PerformanceLongTaskTimingENS9_25PerformanceResourceTimingEEEELNS0_6_TraitE1EE9__destroyB8ne200100EvEUlRT_E_JRNS0_6__baseILSG_1EJSA_SB_SC_SD_SE_EEEEEEDcSI_DpT0_, symObjAddr: 0x740, symBinAddr: 0x4740, symSize: 0x14 }
  - { offset: 0x11012, size: 0x8, addend: 0x0, symName: __ZNSt3__116__variant_detail12__visitation6__base12__dispatcherIJLm3EEE10__dispatchB8ne200100IOZNS0_6__dtorINS0_8__traitsIJN8facebook5react15PerformanceMarkENS9_18PerformanceMeasureENS9_22PerformanceEventTimingENS9_25PerformanceLongTaskTimingENS9_25PerformanceResourceTimingEEEELNS0_6_TraitE1EE9__destroyB8ne200100EvEUlRT_E_JRNS0_6__baseILSG_1EJSA_SB_SC_SD_SE_EEEEEEDcSI_DpT0_, symObjAddr: 0x740, symBinAddr: 0x4740, symSize: 0x14 }
  - { offset: 0x111A3, size: 0x8, addend: 0x0, symName: __ZNSt3__116__variant_detail12__visitation6__base12__dispatcherIJLm4EEE10__dispatchB8ne200100IOZNS0_6__dtorINS0_8__traitsIJN8facebook5react15PerformanceMarkENS9_18PerformanceMeasureENS9_22PerformanceEventTimingENS9_25PerformanceLongTaskTimingENS9_25PerformanceResourceTimingEEEELNS0_6_TraitE1EE9__destroyB8ne200100EvEUlRT_E_JRNS0_6__baseILSG_1EJSA_SB_SC_SD_SE_EEEEEEDcSI_DpT0_, symObjAddr: 0x754, symBinAddr: 0x4754, symSize: 0x14 }
  - { offset: 0x112C3, size: 0x8, addend: 0x0, symName: __ZNSt3__116__variant_detail12__visitation6__base12__dispatcherIJLm4EEE10__dispatchB8ne200100IOZNS0_6__dtorINS0_8__traitsIJN8facebook5react15PerformanceMarkENS9_18PerformanceMeasureENS9_22PerformanceEventTimingENS9_25PerformanceLongTaskTimingENS9_25PerformanceResourceTimingEEEELNS0_6_TraitE1EE9__destroyB8ne200100EvEUlRT_E_JRNS0_6__baseILSG_1EJSA_SB_SC_SD_SE_EEEEEEDcSI_DpT0_, symObjAddr: 0x754, symBinAddr: 0x4754, symSize: 0x14 }
  - { offset: 0x114CC, size: 0x8, addend: 0x0, symName: __ZNSt3__114__split_bufferINS_7variantIJN8facebook5react15PerformanceMarkENS3_18PerformanceMeasureENS3_22PerformanceEventTimingENS3_25PerformanceLongTaskTimingENS3_25PerformanceResourceTimingEEEERNS_9allocatorIS9_EEED2Ev, symObjAddr: 0xE90, symBinAddr: 0x4E90, symSize: 0x4C }
  - { offset: 0x1176A, size: 0x8, addend: 0x0, symName: __ZNSt3__16vectorINS_7variantIJN8facebook5react15PerformanceMarkENS3_18PerformanceMeasureENS3_22PerformanceEventTimingENS3_25PerformanceLongTaskTimingENS3_25PerformanceResourceTimingEEEENS_9allocatorIS9_EEE20__throw_length_errorB8ne200100Ev, symObjAddr: 0xC38, symBinAddr: 0x4C38, symSize: 0x14 }
  - { offset: 0x11782, size: 0x8, addend: 0x0, symName: __ZNSt3__119__allocate_at_leastB8ne200100INS_9allocatorINS_7variantIJN8facebook5react15PerformanceMarkENS4_18PerformanceMeasureENS4_22PerformanceEventTimingENS4_25PerformanceLongTaskTimingENS4_25PerformanceResourceTimingEEEEEEEENS_19__allocation_resultINS_16allocator_traitsIT_E7pointerEEERSE_m, symObjAddr: 0xC4C, symBinAddr: 0x4C4C, symSize: 0x40 }
  - { offset: 0x11894, size: 0x8, addend: 0x0, symName: __ZNSt3__116__variant_detail6__ctorINS0_8__traitsIJN8facebook5react15PerformanceMarkENS4_18PerformanceMeasureENS4_22PerformanceEventTimingENS4_25PerformanceLongTaskTimingENS4_25PerformanceResourceTimingEEEEE19__generic_constructB8ne200100IRKNS0_18__copy_constructorISA_LNS0_6_TraitE1EEEEEvRSB_OT_, symObjAddr: 0x8D8, symBinAddr: 0x48D8, symSize: 0x60 }
  - { offset: 0x11D30, size: 0x8, addend: 0x0, symName: __ZNSt3__116__variant_detail12__visitation6__base12__dispatcherIJLm0EEE10__dispatchB8ne200100IOZNS0_6__ctorINS0_8__traitsIJN8facebook5react15PerformanceMarkENS9_18PerformanceMeasureENS9_22PerformanceEventTimingENS9_25PerformanceLongTaskTimingENS9_25PerformanceResourceTimingEEEEE19__generic_constructB8ne200100IRKNS0_18__copy_constructorISF_LNS0_6_TraitE1EEEEEvRSG_OT_EUlSP_E_JRKNS0_6__baseILSJ_1EJSA_SB_SC_SD_SE_EEEEEEDcSO_DpT0_, symObjAddr: 0x938, symBinAddr: 0x4938, symSize: 0x50 }
  - { offset: 0x11FA8, size: 0x8, addend: 0x0, symName: __ZNSt3__112basic_stringIcNS_11char_traitsIcEENS_9allocatorIcEEE25__init_copy_ctor_externalEPKcm, symObjAddr: 0xB08, symBinAddr: 0x4B08, symSize: 0x80 }
  - { offset: 0x12188, size: 0x8, addend: 0x0, symName: __ZNSt3__112basic_stringIcNS_11char_traitsIcEENS_9allocatorIcEEE20__throw_length_errorB8ne200100Ev, symObjAddr: 0xB88, symBinAddr: 0x4B88, symSize: 0x14 }
  - { offset: 0x1239F, size: 0x8, addend: 0x0, symName: __ZNSt3__116__variant_detail12__visitation6__base12__dispatcherIJLm1EEE10__dispatchB8ne200100IOZNS0_6__ctorINS0_8__traitsIJN8facebook5react15PerformanceMarkENS9_18PerformanceMeasureENS9_22PerformanceEventTimingENS9_25PerformanceLongTaskTimingENS9_25PerformanceResourceTimingEEEEE19__generic_constructB8ne200100IRKNS0_18__copy_constructorISF_LNS0_6_TraitE1EEEEEvRSG_OT_EUlSP_E_JRKNS0_6__baseILSJ_1EJSA_SB_SC_SD_SE_EEEEEEDcSO_DpT0_, symObjAddr: 0x988, symBinAddr: 0x4988, symSize: 0x50 }
  - { offset: 0x128F7, size: 0x8, addend: 0x0, symName: __ZNSt3__116__variant_detail12__visitation6__base12__dispatcherIJLm2EEE10__dispatchB8ne200100IOZNS0_6__ctorINS0_8__traitsIJN8facebook5react15PerformanceMarkENS9_18PerformanceMeasureENS9_22PerformanceEventTimingENS9_25PerformanceLongTaskTimingENS9_25PerformanceResourceTimingEEEEE19__generic_constructB8ne200100IRKNS0_18__copy_constructorISF_LNS0_6_TraitE1EEEEEvRSG_OT_EUlSP_E_JRKNS0_6__baseILSJ_1EJSA_SB_SC_SD_SE_EEEEEEDcSO_DpT0_, symObjAddr: 0x9D8, symBinAddr: 0x49D8, symSize: 0x60 }
  - { offset: 0x12F23, size: 0x8, addend: 0x0, symName: __ZNSt3__116__variant_detail12__visitation6__base12__dispatcherIJLm3EEE10__dispatchB8ne200100IOZNS0_6__ctorINS0_8__traitsIJN8facebook5react15PerformanceMarkENS9_18PerformanceMeasureENS9_22PerformanceEventTimingENS9_25PerformanceLongTaskTimingENS9_25PerformanceResourceTimingEEEEE19__generic_constructB8ne200100IRKNS0_18__copy_constructorISF_LNS0_6_TraitE1EEEEEvRSG_OT_EUlSP_E_JRKNS0_6__baseILSJ_1EJSA_SB_SC_SD_SE_EEEEEEDcSO_DpT0_, symObjAddr: 0xA38, symBinAddr: 0x4A38, symSize: 0x50 }
  - { offset: 0x13623, size: 0x8, addend: 0x0, symName: __ZNSt3__116__variant_detail12__visitation6__base12__dispatcherIJLm4EEE10__dispatchB8ne200100IOZNS0_6__ctorINS0_8__traitsIJN8facebook5react15PerformanceMarkENS9_18PerformanceMeasureENS9_22PerformanceEventTimingENS9_25PerformanceLongTaskTimingENS9_25PerformanceResourceTimingEEEEE19__generic_constructB8ne200100IRKNS0_18__copy_constructorISF_LNS0_6_TraitE1EEEEEvRSG_OT_EUlSP_E_JRKNS0_6__baseILSJ_1EJSA_SB_SC_SD_SE_EEEEEEDcSO_DpT0_, symObjAddr: 0xA88, symBinAddr: 0x4A88, symSize: 0x80 }
  - { offset: 0x13AAB, size: 0x8, addend: 0x0, symName: __ZNSt3__112basic_stringIcNS_11char_traitsIcEENS_9allocatorIcEEE20__throw_length_errorB8ne200100Ev, symObjAddr: 0xB88, symBinAddr: 0x4B88, symSize: 0x14 }
  - { offset: 0x13AC3, size: 0x8, addend: 0x0, symName: __ZNSt3__120__throw_length_errorB8ne200100EPKc, symObjAddr: 0xB9C, symBinAddr: 0x4B9C, symSize: 0x50 }
  - { offset: 0x13ACE, size: 0x8, addend: 0x0, symName: __ZNSt12length_errorC1B8ne200100EPKc, symObjAddr: 0xBEC, symBinAddr: 0x4BEC, symSize: 0x24 }
  - { offset: 0x13CDC, size: 0x8, addend: 0x0, symName: __ZNSt3__116__variant_detail18__move_constructorINS0_8__traitsIJN8facebook5react15PerformanceMarkENS4_18PerformanceMeasureENS4_22PerformanceEventTimingENS4_25PerformanceLongTaskTimingENS4_25PerformanceResourceTimingEEEELNS0_6_TraitE1EEC2B8ne200100EOSC_, symObjAddr: 0xCF4, symBinAddr: 0x4CF4, symSize: 0x34 }
  - { offset: 0x13DEB, size: 0x8, addend: 0x0, symName: __ZNSt3__116__variant_detail6__ctorINS0_8__traitsIJN8facebook5react15PerformanceMarkENS4_18PerformanceMeasureENS4_22PerformanceEventTimingENS4_25PerformanceLongTaskTimingENS4_25PerformanceResourceTimingEEEEE19__generic_constructB8ne200100INS0_18__move_constructorISA_LNS0_6_TraitE1EEEEEvRSB_OT_, symObjAddr: 0xD28, symBinAddr: 0x4D28, symSize: 0x60 }
  - { offset: 0x14259, size: 0x8, addend: 0x0, symName: __ZNSt3__116__variant_detail12__visitation6__base12__dispatcherIJLm0EEE10__dispatchB8ne200100IOZNS0_6__ctorINS0_8__traitsIJN8facebook5react15PerformanceMarkENS9_18PerformanceMeasureENS9_22PerformanceEventTimingENS9_25PerformanceLongTaskTimingENS9_25PerformanceResourceTimingEEEEE19__generic_constructB8ne200100INS0_18__move_constructorISF_LNS0_6_TraitE1EEEEEvRSG_OT_EUlSN_E_JONS0_6__baseILSJ_1EJSA_SB_SC_SD_SE_EEEEEEDcSM_DpT0_, symObjAddr: 0xD88, symBinAddr: 0x4D88, symSize: 0x28 }
  - { offset: 0x1428F, size: 0x8, addend: 0x0, symName: __ZNSt3__116__variant_detail12__visitation6__base12__dispatcherIJLm0EEE10__dispatchB8ne200100IOZNS0_6__ctorINS0_8__traitsIJN8facebook5react15PerformanceMarkENS9_18PerformanceMeasureENS9_22PerformanceEventTimingENS9_25PerformanceLongTaskTimingENS9_25PerformanceResourceTimingEEEEE19__generic_constructB8ne200100INS0_18__move_constructorISF_LNS0_6_TraitE1EEEEEvRSG_OT_EUlSN_E_JONS0_6__baseILSJ_1EJSA_SB_SC_SD_SE_EEEEEEDcSM_DpT0_, symObjAddr: 0xD88, symBinAddr: 0x4D88, symSize: 0x28 }
  - { offset: 0x142B2, size: 0x8, addend: 0x0, symName: __ZNSt3__116__variant_detail12__visitation6__base12__dispatcherIJLm0EEE10__dispatchB8ne200100IOZNS0_6__ctorINS0_8__traitsIJN8facebook5react15PerformanceMarkENS9_18PerformanceMeasureENS9_22PerformanceEventTimingENS9_25PerformanceLongTaskTimingENS9_25PerformanceResourceTimingEEEEE19__generic_constructB8ne200100INS0_18__move_constructorISF_LNS0_6_TraitE1EEEEEvRSG_OT_EUlSN_E_JONS0_6__baseILSJ_1EJSA_SB_SC_SD_SE_EEEEEEDcSM_DpT0_, symObjAddr: 0xD88, symBinAddr: 0x4D88, symSize: 0x28 }
  - { offset: 0x14669, size: 0x8, addend: 0x0, symName: __ZNSt3__116__variant_detail12__visitation6__base12__dispatcherIJLm1EEE10__dispatchB8ne200100IOZNS0_6__ctorINS0_8__traitsIJN8facebook5react15PerformanceMarkENS9_18PerformanceMeasureENS9_22PerformanceEventTimingENS9_25PerformanceLongTaskTimingENS9_25PerformanceResourceTimingEEEEE19__generic_constructB8ne200100INS0_18__move_constructorISF_LNS0_6_TraitE1EEEEEvRSG_OT_EUlSN_E_JONS0_6__baseILSJ_1EJSA_SB_SC_SD_SE_EEEEEEDcSM_DpT0_, symObjAddr: 0xDB0, symBinAddr: 0x4DB0, symSize: 0x28 }
  - { offset: 0x1469F, size: 0x8, addend: 0x0, symName: __ZNSt3__116__variant_detail12__visitation6__base12__dispatcherIJLm1EEE10__dispatchB8ne200100IOZNS0_6__ctorINS0_8__traitsIJN8facebook5react15PerformanceMarkENS9_18PerformanceMeasureENS9_22PerformanceEventTimingENS9_25PerformanceLongTaskTimingENS9_25PerformanceResourceTimingEEEEE19__generic_constructB8ne200100INS0_18__move_constructorISF_LNS0_6_TraitE1EEEEEvRSG_OT_EUlSN_E_JONS0_6__baseILSJ_1EJSA_SB_SC_SD_SE_EEEEEEDcSM_DpT0_, symObjAddr: 0xDB0, symBinAddr: 0x4DB0, symSize: 0x28 }
  - { offset: 0x146C2, size: 0x8, addend: 0x0, symName: __ZNSt3__116__variant_detail12__visitation6__base12__dispatcherIJLm1EEE10__dispatchB8ne200100IOZNS0_6__ctorINS0_8__traitsIJN8facebook5react15PerformanceMarkENS9_18PerformanceMeasureENS9_22PerformanceEventTimingENS9_25PerformanceLongTaskTimingENS9_25PerformanceResourceTimingEEEEE19__generic_constructB8ne200100INS0_18__move_constructorISF_LNS0_6_TraitE1EEEEEvRSG_OT_EUlSN_E_JONS0_6__baseILSJ_1EJSA_SB_SC_SD_SE_EEEEEEDcSM_DpT0_, symObjAddr: 0xDB0, symBinAddr: 0x4DB0, symSize: 0x28 }
  - { offset: 0x14B4D, size: 0x8, addend: 0x0, symName: __ZNSt3__116__variant_detail12__visitation6__base12__dispatcherIJLm2EEE10__dispatchB8ne200100IOZNS0_6__ctorINS0_8__traitsIJN8facebook5react15PerformanceMarkENS9_18PerformanceMeasureENS9_22PerformanceEventTimingENS9_25PerformanceLongTaskTimingENS9_25PerformanceResourceTimingEEEEE19__generic_constructB8ne200100INS0_18__move_constructorISF_LNS0_6_TraitE1EEEEEvRSG_OT_EUlSN_E_JONS0_6__baseILSJ_1EJSA_SB_SC_SD_SE_EEEEEEDcSM_DpT0_, symObjAddr: 0xDD8, symBinAddr: 0x4DD8, symSize: 0x38 }
  - { offset: 0x14B83, size: 0x8, addend: 0x0, symName: __ZNSt3__116__variant_detail12__visitation6__base12__dispatcherIJLm2EEE10__dispatchB8ne200100IOZNS0_6__ctorINS0_8__traitsIJN8facebook5react15PerformanceMarkENS9_18PerformanceMeasureENS9_22PerformanceEventTimingENS9_25PerformanceLongTaskTimingENS9_25PerformanceResourceTimingEEEEE19__generic_constructB8ne200100INS0_18__move_constructorISF_LNS0_6_TraitE1EEEEEvRSG_OT_EUlSN_E_JONS0_6__baseILSJ_1EJSA_SB_SC_SD_SE_EEEEEEDcSM_DpT0_, symObjAddr: 0xDD8, symBinAddr: 0x4DD8, symSize: 0x38 }
  - { offset: 0x14BA6, size: 0x8, addend: 0x0, symName: __ZNSt3__116__variant_detail12__visitation6__base12__dispatcherIJLm2EEE10__dispatchB8ne200100IOZNS0_6__ctorINS0_8__traitsIJN8facebook5react15PerformanceMarkENS9_18PerformanceMeasureENS9_22PerformanceEventTimingENS9_25PerformanceLongTaskTimingENS9_25PerformanceResourceTimingEEEEE19__generic_constructB8ne200100INS0_18__move_constructorISF_LNS0_6_TraitE1EEEEEvRSG_OT_EUlSN_E_JONS0_6__baseILSJ_1EJSA_SB_SC_SD_SE_EEEEEEDcSM_DpT0_, symObjAddr: 0xDD8, symBinAddr: 0x4DD8, symSize: 0x38 }
  - { offset: 0x15105, size: 0x8, addend: 0x0, symName: __ZNSt3__116__variant_detail12__visitation6__base12__dispatcherIJLm3EEE10__dispatchB8ne200100IOZNS0_6__ctorINS0_8__traitsIJN8facebook5react15PerformanceMarkENS9_18PerformanceMeasureENS9_22PerformanceEventTimingENS9_25PerformanceLongTaskTimingENS9_25PerformanceResourceTimingEEEEE19__generic_constructB8ne200100INS0_18__move_constructorISF_LNS0_6_TraitE1EEEEEvRSG_OT_EUlSN_E_JONS0_6__baseILSJ_1EJSA_SB_SC_SD_SE_EEEEEEDcSM_DpT0_, symObjAddr: 0xE10, symBinAddr: 0x4E10, symSize: 0x28 }
  - { offset: 0x1513B, size: 0x8, addend: 0x0, symName: __ZNSt3__116__variant_detail12__visitation6__base12__dispatcherIJLm3EEE10__dispatchB8ne200100IOZNS0_6__ctorINS0_8__traitsIJN8facebook5react15PerformanceMarkENS9_18PerformanceMeasureENS9_22PerformanceEventTimingENS9_25PerformanceLongTaskTimingENS9_25PerformanceResourceTimingEEEEE19__generic_constructB8ne200100INS0_18__move_constructorISF_LNS0_6_TraitE1EEEEEvRSG_OT_EUlSN_E_JONS0_6__baseILSJ_1EJSA_SB_SC_SD_SE_EEEEEEDcSM_DpT0_, symObjAddr: 0xE10, symBinAddr: 0x4E10, symSize: 0x28 }
  - { offset: 0x1515E, size: 0x8, addend: 0x0, symName: __ZNSt3__116__variant_detail12__visitation6__base12__dispatcherIJLm3EEE10__dispatchB8ne200100IOZNS0_6__ctorINS0_8__traitsIJN8facebook5react15PerformanceMarkENS9_18PerformanceMeasureENS9_22PerformanceEventTimingENS9_25PerformanceLongTaskTimingENS9_25PerformanceResourceTimingEEEEE19__generic_constructB8ne200100INS0_18__move_constructorISF_LNS0_6_TraitE1EEEEEvRSG_OT_EUlSN_E_JONS0_6__baseILSJ_1EJSA_SB_SC_SD_SE_EEEEEEDcSM_DpT0_, symObjAddr: 0xE10, symBinAddr: 0x4E10, symSize: 0x28 }
  - { offset: 0x15791, size: 0x8, addend: 0x0, symName: __ZNSt3__116__variant_detail12__visitation6__base12__dispatcherIJLm4EEE10__dispatchB8ne200100IOZNS0_6__ctorINS0_8__traitsIJN8facebook5react15PerformanceMarkENS9_18PerformanceMeasureENS9_22PerformanceEventTimingENS9_25PerformanceLongTaskTimingENS9_25PerformanceResourceTimingEEEEE19__generic_constructB8ne200100INS0_18__move_constructorISF_LNS0_6_TraitE1EEEEEvRSG_OT_EUlSN_E_JONS0_6__baseILSJ_1EJSA_SB_SC_SD_SE_EEEEEEDcSM_DpT0_, symObjAddr: 0xE38, symBinAddr: 0x4E38, symSize: 0x58 }
  - { offset: 0x157C7, size: 0x8, addend: 0x0, symName: __ZNSt3__116__variant_detail12__visitation6__base12__dispatcherIJLm4EEE10__dispatchB8ne200100IOZNS0_6__ctorINS0_8__traitsIJN8facebook5react15PerformanceMarkENS9_18PerformanceMeasureENS9_22PerformanceEventTimingENS9_25PerformanceLongTaskTimingENS9_25PerformanceResourceTimingEEEEE19__generic_constructB8ne200100INS0_18__move_constructorISF_LNS0_6_TraitE1EEEEEvRSG_OT_EUlSN_E_JONS0_6__baseILSJ_1EJSA_SB_SC_SD_SE_EEEEEEDcSM_DpT0_, symObjAddr: 0xE38, symBinAddr: 0x4E38, symSize: 0x58 }
  - { offset: 0x157EA, size: 0x8, addend: 0x0, symName: __ZNSt3__116__variant_detail12__visitation6__base12__dispatcherIJLm4EEE10__dispatchB8ne200100IOZNS0_6__ctorINS0_8__traitsIJN8facebook5react15PerformanceMarkENS9_18PerformanceMeasureENS9_22PerformanceEventTimingENS9_25PerformanceLongTaskTimingENS9_25PerformanceResourceTimingEEEEE19__generic_constructB8ne200100INS0_18__move_constructorISF_LNS0_6_TraitE1EEEEEvRSG_OT_EUlSN_E_JONS0_6__baseILSJ_1EJSA_SB_SC_SD_SE_EEEEEEDcSM_DpT0_, symObjAddr: 0xE38, symBinAddr: 0x4E38, symSize: 0x58 }
  - { offset: 0x15C76, size: 0x8, addend: 0x0, symName: __ZNSt3__116__variant_detail12__visitation6__base12__dispatcherIJLm0ELm0EEE10__dispatchB8ne200100IOZNS0_12__assignmentINS0_8__traitsIJN8facebook5react15PerformanceMarkENS9_18PerformanceMeasureENS9_22PerformanceEventTimingENS9_25PerformanceLongTaskTimingENS9_25PerformanceResourceTimingEEEEE16__generic_assignB8ne200100IRKNS0_17__copy_assignmentISF_LNS0_6_TraitE1EEEEEvOT_EUlRSN_OT0_E_JRNS0_6__baseILSJ_1EJSA_SB_SC_SD_SE_EEERKSV_EEEDcSN_DpT0_, symObjAddr: 0xF38, symBinAddr: 0x4F38, symSize: 0x8 }
  - { offset: 0x15D3A, size: 0x8, addend: 0x0, symName: __ZNSt3__116__variant_detail12__assignmentINS0_8__traitsIJN8facebook5react15PerformanceMarkENS4_18PerformanceMeasureENS4_22PerformanceEventTimingENS4_25PerformanceLongTaskTimingENS4_25PerformanceResourceTimingEEEEE12__assign_altB8ne200100ILm0ES5_RKS5_EEvRNS0_5__altIXT_ET0_EEOT1_, symObjAddr: 0xF60, symBinAddr: 0x4F60, symSize: 0x54 }
  - { offset: 0x15EC8, size: 0x8, addend: 0x0, symName: __ZNSt3__116__variant_detail12__visitation6__base12__dispatcherIJLm1ELm1EEE10__dispatchB8ne200100IOZNS0_12__assignmentINS0_8__traitsIJN8facebook5react15PerformanceMarkENS9_18PerformanceMeasureENS9_22PerformanceEventTimingENS9_25PerformanceLongTaskTimingENS9_25PerformanceResourceTimingEEEEE16__generic_assignB8ne200100IRKNS0_17__copy_assignmentISF_LNS0_6_TraitE1EEEEEvOT_EUlRSN_OT0_E_JRNS0_6__baseILSJ_1EJSA_SB_SC_SD_SE_EEERKSV_EEEDcSN_DpT0_, symObjAddr: 0xF40, symBinAddr: 0x4F40, symSize: 0x8 }
  - { offset: 0x15F8C, size: 0x8, addend: 0x0, symName: __ZNSt3__116__variant_detail12__assignmentINS0_8__traitsIJN8facebook5react15PerformanceMarkENS4_18PerformanceMeasureENS4_22PerformanceEventTimingENS4_25PerformanceLongTaskTimingENS4_25PerformanceResourceTimingEEEEE12__assign_altB8ne200100ILm1ES6_RKS6_EEvRNS0_5__altIXT_ET0_EEOT1_, symObjAddr: 0x102C, symBinAddr: 0x502C, symSize: 0x58 }
  - { offset: 0x1611A, size: 0x8, addend: 0x0, symName: __ZNSt3__116__variant_detail12__visitation6__base12__dispatcherIJLm2ELm2EEE10__dispatchB8ne200100IOZNS0_12__assignmentINS0_8__traitsIJN8facebook5react15PerformanceMarkENS9_18PerformanceMeasureENS9_22PerformanceEventTimingENS9_25PerformanceLongTaskTimingENS9_25PerformanceResourceTimingEEEEE16__generic_assignB8ne200100IRKNS0_17__copy_assignmentISF_LNS0_6_TraitE1EEEEEvOT_EUlRSN_OT0_E_JRNS0_6__baseILSJ_1EJSA_SB_SC_SD_SE_EEERKSV_EEEDcSN_DpT0_, symObjAddr: 0xF48, symBinAddr: 0x4F48, symSize: 0x8 }
  - { offset: 0x161DE, size: 0x8, addend: 0x0, symName: __ZNSt3__116__variant_detail12__assignmentINS0_8__traitsIJN8facebook5react15PerformanceMarkENS4_18PerformanceMeasureENS4_22PerformanceEventTimingENS4_25PerformanceLongTaskTimingENS4_25PerformanceResourceTimingEEEEE12__assign_altB8ne200100ILm2ES7_RKS7_EEvRNS0_5__altIXT_ET0_EEOT1_, symObjAddr: 0x1100, symBinAddr: 0x5100, symSize: 0x68 }
  - { offset: 0x1636C, size: 0x8, addend: 0x0, symName: __ZNSt3__116__variant_detail12__visitation6__base12__dispatcherIJLm3ELm3EEE10__dispatchB8ne200100IOZNS0_12__assignmentINS0_8__traitsIJN8facebook5react15PerformanceMarkENS9_18PerformanceMeasureENS9_22PerformanceEventTimingENS9_25PerformanceLongTaskTimingENS9_25PerformanceResourceTimingEEEEE16__generic_assignB8ne200100IRKNS0_17__copy_assignmentISF_LNS0_6_TraitE1EEEEEvOT_EUlRSN_OT0_E_JRNS0_6__baseILSJ_1EJSA_SB_SC_SD_SE_EEERKSV_EEEDcSN_DpT0_, symObjAddr: 0xF50, symBinAddr: 0x4F50, symSize: 0x8 }
  - { offset: 0x16430, size: 0x8, addend: 0x0, symName: __ZNSt3__116__variant_detail12__assignmentINS0_8__traitsIJN8facebook5react15PerformanceMarkENS4_18PerformanceMeasureENS4_22PerformanceEventTimingENS4_25PerformanceLongTaskTimingENS4_25PerformanceResourceTimingEEEEE12__assign_altB8ne200100ILm3ES8_RKS8_EEvRNS0_5__altIXT_ET0_EEOT1_, symObjAddr: 0x1204, symBinAddr: 0x5204, symSize: 0x58 }
  - { offset: 0x165BE, size: 0x8, addend: 0x0, symName: __ZNSt3__116__variant_detail12__visitation6__base12__dispatcherIJLm4ELm4EEE10__dispatchB8ne200100IOZNS0_12__assignmentINS0_8__traitsIJN8facebook5react15PerformanceMarkENS9_18PerformanceMeasureENS9_22PerformanceEventTimingENS9_25PerformanceLongTaskTimingENS9_25PerformanceResourceTimingEEEEE16__generic_assignB8ne200100IRKNS0_17__copy_assignmentISF_LNS0_6_TraitE1EEEEEvOT_EUlRSN_OT0_E_JRNS0_6__baseILSJ_1EJSA_SB_SC_SD_SE_EEERKSV_EEEDcSN_DpT0_, symObjAddr: 0xF58, symBinAddr: 0x4F58, symSize: 0x8 }
  - { offset: 0x16682, size: 0x8, addend: 0x0, symName: __ZNSt3__116__variant_detail12__assignmentINS0_8__traitsIJN8facebook5react15PerformanceMarkENS4_18PerformanceMeasureENS4_22PerformanceEventTimingENS4_25PerformanceLongTaskTimingENS4_25PerformanceResourceTimingEEEEE12__assign_altB8ne200100ILm4ES9_RKS9_EEvRNS0_5__altIXT_ET0_EEOT1_, symObjAddr: 0x12D8, symBinAddr: 0x52D8, symSize: 0x88 }
  - { offset: 0x1681C, size: 0x8, addend: 0x0, symName: __ZZNSt3__116__variant_detail12__assignmentINS0_8__traitsIJN8facebook5react15PerformanceMarkENS4_18PerformanceMeasureENS4_22PerformanceEventTimingENS4_25PerformanceLongTaskTimingENS4_25PerformanceResourceTimingEEEEE12__assign_altB8ne200100ILm0ES5_RKS5_EEvRNS0_5__altIXT_ET0_EEOT1_ENKUt_clENS_17integral_constantIbLb0EEE, symObjAddr: 0xFB4, symBinAddr: 0x4FB4, symSize: 0x78 }
  - { offset: 0x16B84, size: 0x8, addend: 0x0, symName: __ZZNSt3__116__variant_detail12__assignmentINS0_8__traitsIJN8facebook5react15PerformanceMarkENS4_18PerformanceMeasureENS4_22PerformanceEventTimingENS4_25PerformanceLongTaskTimingENS4_25PerformanceResourceTimingEEEEE12__assign_altB8ne200100ILm1ES6_RKS6_EEvRNS0_5__altIXT_ET0_EEOT1_ENKUt_clENS_17integral_constantIbLb0EEE, symObjAddr: 0x1084, symBinAddr: 0x5084, symSize: 0x7C }
  - { offset: 0x16F36, size: 0x8, addend: 0x0, symName: __ZZNSt3__116__variant_detail12__assignmentINS0_8__traitsIJN8facebook5react15PerformanceMarkENS4_18PerformanceMeasureENS4_22PerformanceEventTimingENS4_25PerformanceLongTaskTimingENS4_25PerformanceResourceTimingEEEEE12__assign_altB8ne200100ILm2ES7_RKS7_EEvRNS0_5__altIXT_ET0_EEOT1_ENKUt_clENS_17integral_constantIbLb0EEE, symObjAddr: 0x1168, symBinAddr: 0x5168, symSize: 0x9C }
  - { offset: 0x17332, size: 0x8, addend: 0x0, symName: __ZZNSt3__116__variant_detail12__assignmentINS0_8__traitsIJN8facebook5react15PerformanceMarkENS4_18PerformanceMeasureENS4_22PerformanceEventTimingENS4_25PerformanceLongTaskTimingENS4_25PerformanceResourceTimingEEEEE12__assign_altB8ne200100ILm3ES8_RKS8_EEvRNS0_5__altIXT_ET0_EEOT1_ENKUt_clENS_17integral_constantIbLb0EEE, symObjAddr: 0x125C, symBinAddr: 0x525C, symSize: 0x7C }
  - { offset: 0x17778, size: 0x8, addend: 0x0, symName: __ZZNSt3__116__variant_detail12__assignmentINS0_8__traitsIJN8facebook5react15PerformanceMarkENS4_18PerformanceMeasureENS4_22PerformanceEventTimingENS4_25PerformanceLongTaskTimingENS4_25PerformanceResourceTimingEEEEE12__assign_altB8ne200100ILm4ES9_RKS9_EEvRNS0_5__altIXT_ET0_EEOT1_ENKUt_clENS_17integral_constantIbLb0EEE, symObjAddr: 0x1360, symBinAddr: 0x5360, symSize: 0xDC }
  - { offset: 0x17C09, size: 0x8, addend: 0x0, symName: __ZNSt3__16vectorINS_7variantIJN8facebook5react15PerformanceMarkENS3_18PerformanceMeasureENS3_22PerformanceEventTimingENS3_25PerformanceLongTaskTimingENS3_25PerformanceResourceTimingEEEENS_9allocatorIS9_EEE8__appendEm, symObjAddr: 0x14C0, symBinAddr: 0x54C0, symSize: 0x190 }
  - { offset: 0x18A9C, size: 0x8, addend: 0x0, symName: __ZNSt3__117bad_function_callD1Ev, symObjAddr: 0x16D4, symBinAddr: 0x56D4, symSize: 0x4 }
  - { offset: 0x18ABE, size: 0x8, addend: 0x0, symName: __ZNSt3__117bad_function_callD1Ev, symObjAddr: 0x16D4, symBinAddr: 0x56D4, symSize: 0x4 }
  - { offset: 0x18AF2, size: 0x8, addend: 0x0, symName: __ZNSt3__117bad_function_callD0Ev, symObjAddr: 0x16D8, symBinAddr: 0x56D8, symSize: 0x14 }
  - { offset: 0x18B53, size: 0x8, addend: 0x0, symName: '__ZNSt3__110__function6__funcIZNK8facebook5react30PerformanceEntryCircularBuffer10getEntriesERNS_6vectorINS_7variantIJNS3_15PerformanceMarkENS3_18PerformanceMeasureENS3_22PerformanceEventTimingENS3_25PerformanceLongTaskTimingENS3_25PerformanceResourceTimingEEEENS_9allocatorISC_EEEERKNS_12basic_stringIcNS_11char_traitsIcEENSD_IcEEEEE3$_0NSD_ISO_EEFbRKSC_EED1Ev', symObjAddr: 0x16EC, symBinAddr: 0x56EC, symSize: 0x4 }
  - { offset: 0x18B7F, size: 0x8, addend: 0x0, symName: '__ZNSt3__110__function6__funcIZNK8facebook5react30PerformanceEntryCircularBuffer10getEntriesERNS_6vectorINS_7variantIJNS3_15PerformanceMarkENS3_18PerformanceMeasureENS3_22PerformanceEventTimingENS3_25PerformanceLongTaskTimingENS3_25PerformanceResourceTimingEEEENS_9allocatorISC_EEEERKNS_12basic_stringIcNS_11char_traitsIcEENSD_IcEEEEE3$_0NSD_ISO_EEFbRKSC_EED0Ev', symObjAddr: 0x16F0, symBinAddr: 0x56F0, symSize: 0x4 }
  - { offset: 0x18C9A, size: 0x8, addend: 0x0, symName: '__ZNKSt3__110__function6__funcIZNK8facebook5react30PerformanceEntryCircularBuffer10getEntriesERNS_6vectorINS_7variantIJNS3_15PerformanceMarkENS3_18PerformanceMeasureENS3_22PerformanceEventTimingENS3_25PerformanceLongTaskTimingENS3_25PerformanceResourceTimingEEEENS_9allocatorISC_EEEERKNS_12basic_stringIcNS_11char_traitsIcEENSD_IcEEEEE3$_0NSD_ISO_EEFbRKSC_EE7__cloneEv', symObjAddr: 0x16F4, symBinAddr: 0x56F4, symSize: 0x34 }
  - { offset: 0x18EA3, size: 0x8, addend: 0x0, symName: '__ZNKSt3__110__function6__funcIZNK8facebook5react30PerformanceEntryCircularBuffer10getEntriesERNS_6vectorINS_7variantIJNS3_15PerformanceMarkENS3_18PerformanceMeasureENS3_22PerformanceEventTimingENS3_25PerformanceLongTaskTimingENS3_25PerformanceResourceTimingEEEENS_9allocatorISC_EEEERKNS_12basic_stringIcNS_11char_traitsIcEENSD_IcEEEEE3$_0NSD_ISO_EEFbRKSC_EE7__cloneEPNS0_6__baseISS_EE', symObjAddr: 0x1728, symBinAddr: 0x5728, symSize: 0x14 }
  - { offset: 0x18EDA, size: 0x8, addend: 0x0, symName: '__ZNKSt3__110__function6__funcIZNK8facebook5react30PerformanceEntryCircularBuffer10getEntriesERNS_6vectorINS_7variantIJNS3_15PerformanceMarkENS3_18PerformanceMeasureENS3_22PerformanceEventTimingENS3_25PerformanceLongTaskTimingENS3_25PerformanceResourceTimingEEEENS_9allocatorISC_EEEERKNS_12basic_stringIcNS_11char_traitsIcEENSD_IcEEEEE3$_0NSD_ISO_EEFbRKSC_EE7__cloneEPNS0_6__baseISS_EE', symObjAddr: 0x1728, symBinAddr: 0x5728, symSize: 0x14 }
  - { offset: 0x18F09, size: 0x8, addend: 0x0, symName: '__ZNKSt3__110__function6__funcIZNK8facebook5react30PerformanceEntryCircularBuffer10getEntriesERNS_6vectorINS_7variantIJNS3_15PerformanceMarkENS3_18PerformanceMeasureENS3_22PerformanceEventTimingENS3_25PerformanceLongTaskTimingENS3_25PerformanceResourceTimingEEEENS_9allocatorISC_EEEERKNS_12basic_stringIcNS_11char_traitsIcEENSD_IcEEEEE3$_0NSD_ISO_EEFbRKSC_EE7__cloneEPNS0_6__baseISS_EE', symObjAddr: 0x1728, symBinAddr: 0x5728, symSize: 0x14 }
  - { offset: 0x18F38, size: 0x8, addend: 0x0, symName: '__ZNKSt3__110__function6__funcIZNK8facebook5react30PerformanceEntryCircularBuffer10getEntriesERNS_6vectorINS_7variantIJNS3_15PerformanceMarkENS3_18PerformanceMeasureENS3_22PerformanceEventTimingENS3_25PerformanceLongTaskTimingENS3_25PerformanceResourceTimingEEEENS_9allocatorISC_EEEERKNS_12basic_stringIcNS_11char_traitsIcEENSD_IcEEEEE3$_0NSD_ISO_EEFbRKSC_EE7__cloneEPNS0_6__baseISS_EE', symObjAddr: 0x1728, symBinAddr: 0x5728, symSize: 0x14 }
  - { offset: 0x18F4E, size: 0x8, addend: 0x0, symName: '__ZNKSt3__110__function6__funcIZNK8facebook5react30PerformanceEntryCircularBuffer10getEntriesERNS_6vectorINS_7variantIJNS3_15PerformanceMarkENS3_18PerformanceMeasureENS3_22PerformanceEventTimingENS3_25PerformanceLongTaskTimingENS3_25PerformanceResourceTimingEEEENS_9allocatorISC_EEEERKNS_12basic_stringIcNS_11char_traitsIcEENSD_IcEEEEE3$_0NSD_ISO_EEFbRKSC_EE7__cloneEPNS0_6__baseISS_EE', symObjAddr: 0x1728, symBinAddr: 0x5728, symSize: 0x14 }
  - { offset: 0x18F63, size: 0x8, addend: 0x0, symName: '__ZNSt3__110__function6__funcIZNK8facebook5react30PerformanceEntryCircularBuffer10getEntriesERNS_6vectorINS_7variantIJNS3_15PerformanceMarkENS3_18PerformanceMeasureENS3_22PerformanceEventTimingENS3_25PerformanceLongTaskTimingENS3_25PerformanceResourceTimingEEEENS_9allocatorISC_EEEERKNS_12basic_stringIcNS_11char_traitsIcEENSD_IcEEEEE3$_0NSD_ISO_EEFbRKSC_EE7destroyEv', symObjAddr: 0x173C, symBinAddr: 0x573C, symSize: 0x4 }
  - { offset: 0x18FB8, size: 0x8, addend: 0x0, symName: '__ZNSt3__110__function6__funcIZNK8facebook5react30PerformanceEntryCircularBuffer10getEntriesERNS_6vectorINS_7variantIJNS3_15PerformanceMarkENS3_18PerformanceMeasureENS3_22PerformanceEventTimingENS3_25PerformanceLongTaskTimingENS3_25PerformanceResourceTimingEEEENS_9allocatorISC_EEEERKNS_12basic_stringIcNS_11char_traitsIcEENSD_IcEEEEE3$_0NSD_ISO_EEFbRKSC_EE18destroy_deallocateEv', symObjAddr: 0x1740, symBinAddr: 0x5740, symSize: 0x4 }
  - { offset: 0x18FED, size: 0x8, addend: 0x0, symName: '__ZNSt3__110__function6__funcIZNK8facebook5react30PerformanceEntryCircularBuffer10getEntriesERNS_6vectorINS_7variantIJNS3_15PerformanceMarkENS3_18PerformanceMeasureENS3_22PerformanceEventTimingENS3_25PerformanceLongTaskTimingENS3_25PerformanceResourceTimingEEEENS_9allocatorISC_EEEERKNS_12basic_stringIcNS_11char_traitsIcEENSD_IcEEEEE3$_0NSD_ISO_EEFbRKSC_EE18destroy_deallocateEv', symObjAddr: 0x1740, symBinAddr: 0x5740, symSize: 0x4 }
  - { offset: 0x19010, size: 0x8, addend: 0x0, symName: '__ZNSt3__110__function6__funcIZNK8facebook5react30PerformanceEntryCircularBuffer10getEntriesERNS_6vectorINS_7variantIJNS3_15PerformanceMarkENS3_18PerformanceMeasureENS3_22PerformanceEventTimingENS3_25PerformanceLongTaskTimingENS3_25PerformanceResourceTimingEEEENS_9allocatorISC_EEEERKNS_12basic_stringIcNS_11char_traitsIcEENSD_IcEEEEE3$_0NSD_ISO_EEFbRKSC_EE18destroy_deallocateEv', symObjAddr: 0x1740, symBinAddr: 0x5740, symSize: 0x4 }
  - { offset: 0x19044, size: 0x8, addend: 0x0, symName: '__ZNSt3__110__function6__funcIZNK8facebook5react30PerformanceEntryCircularBuffer10getEntriesERNS_6vectorINS_7variantIJNS3_15PerformanceMarkENS3_18PerformanceMeasureENS3_22PerformanceEventTimingENS3_25PerformanceLongTaskTimingENS3_25PerformanceResourceTimingEEEENS_9allocatorISC_EEEERKNS_12basic_stringIcNS_11char_traitsIcEENSD_IcEEEEE3$_0NSD_ISO_EEFbRKSC_EE18destroy_deallocateEv', symObjAddr: 0x1740, symBinAddr: 0x5740, symSize: 0x4 }
  - { offset: 0x1926F, size: 0x8, addend: 0x0, symName: '__ZNSt3__110__function6__funcIZNK8facebook5react30PerformanceEntryCircularBuffer10getEntriesERNS_6vectorINS_7variantIJNS3_15PerformanceMarkENS3_18PerformanceMeasureENS3_22PerformanceEventTimingENS3_25PerformanceLongTaskTimingENS3_25PerformanceResourceTimingEEEENS_9allocatorISC_EEEERKNS_12basic_stringIcNS_11char_traitsIcEENSD_IcEEEEE3$_0NSD_ISO_EEFbRKSC_EEclESR_', symObjAddr: 0x1744, symBinAddr: 0x5744, symSize: 0x4C }
  - { offset: 0x194AE, size: 0x8, addend: 0x0, symName: '__ZNKSt3__110__function6__funcIZNK8facebook5react30PerformanceEntryCircularBuffer10getEntriesERNS_6vectorINS_7variantIJNS3_15PerformanceMarkENS3_18PerformanceMeasureENS3_22PerformanceEventTimingENS3_25PerformanceLongTaskTimingENS3_25PerformanceResourceTimingEEEENS_9allocatorISC_EEEERKNS_12basic_stringIcNS_11char_traitsIcEENSD_IcEEEEE3$_0NSD_ISO_EEFbRKSC_EE6targetERKSt9type_info', symObjAddr: 0x1790, symBinAddr: 0x5790, symSize: 0x3C }
  - { offset: 0x194B9, size: 0x8, addend: 0x0, symName: '__ZNKSt3__110__function6__funcIZNK8facebook5react30PerformanceEntryCircularBuffer10getEntriesERNS_6vectorINS_7variantIJNS3_15PerformanceMarkENS3_18PerformanceMeasureENS3_22PerformanceEventTimingENS3_25PerformanceLongTaskTimingENS3_25PerformanceResourceTimingEEEENS_9allocatorISC_EEEERKNS_12basic_stringIcNS_11char_traitsIcEENSD_IcEEEEE3$_0NSD_ISO_EEFbRKSC_EE6targetERKSt9type_info', symObjAddr: 0x1790, symBinAddr: 0x5790, symSize: 0x3C }
  - { offset: 0x19508, size: 0x8, addend: 0x0, symName: __ZNKSt9type_infoeqB8ne200100ERKS_, symObjAddr: 0x1A54, symBinAddr: 0x5A54, symSize: 0x4C }
  - { offset: 0x195A9, size: 0x8, addend: 0x0, symName: '__ZNKSt3__110__function6__funcIZNK8facebook5react30PerformanceEntryCircularBuffer10getEntriesERNS_6vectorINS_7variantIJNS3_15PerformanceMarkENS3_18PerformanceMeasureENS3_22PerformanceEventTimingENS3_25PerformanceLongTaskTimingENS3_25PerformanceResourceTimingEEEENS_9allocatorISC_EEEERKNS_12basic_stringIcNS_11char_traitsIcEENSD_IcEEEEE3$_0NSD_ISO_EEFbRKSC_EE11target_typeEv', symObjAddr: 0x17CC, symBinAddr: 0x57CC, symSize: 0xC }
  - { offset: 0x1963B, size: 0x8, addend: 0x0, symName: __ZNSt18bad_variant_accessD1Ev, symObjAddr: 0x180C, symBinAddr: 0x580C, symSize: 0x4 }
  - { offset: 0x1966A, size: 0x8, addend: 0x0, symName: __ZNSt18bad_variant_accessD1Ev, symObjAddr: 0x180C, symBinAddr: 0x580C, symSize: 0x4 }
  - { offset: 0x19770, size: 0x8, addend: 0x0, symName: '__ZNSt3__116__variant_detail12__visitation6__base12__dispatcherIJLm0EEE10__dispatchB8ne200100IONS1_9__variant15__value_visitorIZZNK8facebook5react30PerformanceEntryCircularBuffer10getEntriesERNS_6vectorINS_7variantIJNS9_15PerformanceMarkENS9_18PerformanceMeasureENS9_22PerformanceEventTimingENS9_25PerformanceLongTaskTimingENS9_25PerformanceResourceTimingEEEENS_9allocatorISI_EEEERKNS_12basic_stringIcNS_11char_traitsIcEENSJ_IcEEEEENK3$_0clERKSI_EUlRKT_E_EEJRKNS0_6__baseILNS0_6_TraitE1EJSD_SE_SF_SG_SH_EEEEEEDcSX_DpT0_', symObjAddr: 0x1810, symBinAddr: 0x5810, symSize: 0x74 }
  - { offset: 0x197AA, size: 0x8, addend: 0x0, symName: '__ZNSt3__116__variant_detail12__visitation6__base12__dispatcherIJLm0EEE10__dispatchB8ne200100IONS1_9__variant15__value_visitorIZZNK8facebook5react30PerformanceEntryCircularBuffer10getEntriesERNS_6vectorINS_7variantIJNS9_15PerformanceMarkENS9_18PerformanceMeasureENS9_22PerformanceEventTimingENS9_25PerformanceLongTaskTimingENS9_25PerformanceResourceTimingEEEENS_9allocatorISI_EEEERKNS_12basic_stringIcNS_11char_traitsIcEENSJ_IcEEEEENK3$_0clERKSI_EUlRKT_E_EEJRKNS0_6__baseILNS0_6_TraitE1EJSD_SE_SF_SG_SH_EEEEEEDcSX_DpT0_', symObjAddr: 0x1810, symBinAddr: 0x5810, symSize: 0x74 }
  - { offset: 0x197D3, size: 0x8, addend: 0x0, symName: '__ZNSt3__116__variant_detail12__visitation6__base12__dispatcherIJLm0EEE10__dispatchB8ne200100IONS1_9__variant15__value_visitorIZZNK8facebook5react30PerformanceEntryCircularBuffer10getEntriesERNS_6vectorINS_7variantIJNS9_15PerformanceMarkENS9_18PerformanceMeasureENS9_22PerformanceEventTimingENS9_25PerformanceLongTaskTimingENS9_25PerformanceResourceTimingEEEENS_9allocatorISI_EEEERKNS_12basic_stringIcNS_11char_traitsIcEENSJ_IcEEEEENK3$_0clERKSI_EUlRKT_E_EEJRKNS0_6__baseILNS0_6_TraitE1EJSD_SE_SF_SG_SH_EEEEEEDcSX_DpT0_', symObjAddr: 0x1810, symBinAddr: 0x5810, symSize: 0x74 }
  - { offset: 0x19A38, size: 0x8, addend: 0x0, symName: '__ZNSt3__116__variant_detail12__visitation6__base12__dispatcherIJLm1EEE10__dispatchB8ne200100IONS1_9__variant15__value_visitorIZZNK8facebook5react30PerformanceEntryCircularBuffer10getEntriesERNS_6vectorINS_7variantIJNS9_15PerformanceMarkENS9_18PerformanceMeasureENS9_22PerformanceEventTimingENS9_25PerformanceLongTaskTimingENS9_25PerformanceResourceTimingEEEENS_9allocatorISI_EEEERKNS_12basic_stringIcNS_11char_traitsIcEENSJ_IcEEEEENK3$_0clERKSI_EUlRKT_E_EEJRKNS0_6__baseILNS0_6_TraitE1EJSD_SE_SF_SG_SH_EEEEEEDcSX_DpT0_', symObjAddr: 0x1884, symBinAddr: 0x5884, symSize: 0x74 }
  - { offset: 0x19A72, size: 0x8, addend: 0x0, symName: '__ZNSt3__116__variant_detail12__visitation6__base12__dispatcherIJLm1EEE10__dispatchB8ne200100IONS1_9__variant15__value_visitorIZZNK8facebook5react30PerformanceEntryCircularBuffer10getEntriesERNS_6vectorINS_7variantIJNS9_15PerformanceMarkENS9_18PerformanceMeasureENS9_22PerformanceEventTimingENS9_25PerformanceLongTaskTimingENS9_25PerformanceResourceTimingEEEENS_9allocatorISI_EEEERKNS_12basic_stringIcNS_11char_traitsIcEENSJ_IcEEEEENK3$_0clERKSI_EUlRKT_E_EEJRKNS0_6__baseILNS0_6_TraitE1EJSD_SE_SF_SG_SH_EEEEEEDcSX_DpT0_', symObjAddr: 0x1884, symBinAddr: 0x5884, symSize: 0x74 }
  - { offset: 0x19A9B, size: 0x8, addend: 0x0, symName: '__ZNSt3__116__variant_detail12__visitation6__base12__dispatcherIJLm1EEE10__dispatchB8ne200100IONS1_9__variant15__value_visitorIZZNK8facebook5react30PerformanceEntryCircularBuffer10getEntriesERNS_6vectorINS_7variantIJNS9_15PerformanceMarkENS9_18PerformanceMeasureENS9_22PerformanceEventTimingENS9_25PerformanceLongTaskTimingENS9_25PerformanceResourceTimingEEEENS_9allocatorISI_EEEERKNS_12basic_stringIcNS_11char_traitsIcEENSJ_IcEEEEENK3$_0clERKSI_EUlRKT_E_EEJRKNS0_6__baseILNS0_6_TraitE1EJSD_SE_SF_SG_SH_EEEEEEDcSX_DpT0_', symObjAddr: 0x1884, symBinAddr: 0x5884, symSize: 0x74 }
  - { offset: 0x19CE4, size: 0x8, addend: 0x0, symName: '__ZNSt3__116__variant_detail12__visitation6__base12__dispatcherIJLm2EEE10__dispatchB8ne200100IONS1_9__variant15__value_visitorIZZNK8facebook5react30PerformanceEntryCircularBuffer10getEntriesERNS_6vectorINS_7variantIJNS9_15PerformanceMarkENS9_18PerformanceMeasureENS9_22PerformanceEventTimingENS9_25PerformanceLongTaskTimingENS9_25PerformanceResourceTimingEEEENS_9allocatorISI_EEEERKNS_12basic_stringIcNS_11char_traitsIcEENSJ_IcEEEEENK3$_0clERKSI_EUlRKT_E_EEJRKNS0_6__baseILNS0_6_TraitE1EJSD_SE_SF_SG_SH_EEEEEEDcSX_DpT0_', symObjAddr: 0x18F8, symBinAddr: 0x58F8, symSize: 0x74 }
  - { offset: 0x19D1E, size: 0x8, addend: 0x0, symName: '__ZNSt3__116__variant_detail12__visitation6__base12__dispatcherIJLm2EEE10__dispatchB8ne200100IONS1_9__variant15__value_visitorIZZNK8facebook5react30PerformanceEntryCircularBuffer10getEntriesERNS_6vectorINS_7variantIJNS9_15PerformanceMarkENS9_18PerformanceMeasureENS9_22PerformanceEventTimingENS9_25PerformanceLongTaskTimingENS9_25PerformanceResourceTimingEEEENS_9allocatorISI_EEEERKNS_12basic_stringIcNS_11char_traitsIcEENSJ_IcEEEEENK3$_0clERKSI_EUlRKT_E_EEJRKNS0_6__baseILNS0_6_TraitE1EJSD_SE_SF_SG_SH_EEEEEEDcSX_DpT0_', symObjAddr: 0x18F8, symBinAddr: 0x58F8, symSize: 0x74 }
  - { offset: 0x19D47, size: 0x8, addend: 0x0, symName: '__ZNSt3__116__variant_detail12__visitation6__base12__dispatcherIJLm2EEE10__dispatchB8ne200100IONS1_9__variant15__value_visitorIZZNK8facebook5react30PerformanceEntryCircularBuffer10getEntriesERNS_6vectorINS_7variantIJNS9_15PerformanceMarkENS9_18PerformanceMeasureENS9_22PerformanceEventTimingENS9_25PerformanceLongTaskTimingENS9_25PerformanceResourceTimingEEEENS_9allocatorISI_EEEERKNS_12basic_stringIcNS_11char_traitsIcEENSJ_IcEEEEENK3$_0clERKSI_EUlRKT_E_EEJRKNS0_6__baseILNS0_6_TraitE1EJSD_SE_SF_SG_SH_EEEEEEDcSX_DpT0_', symObjAddr: 0x18F8, symBinAddr: 0x58F8, symSize: 0x74 }
  - { offset: 0x19F90, size: 0x8, addend: 0x0, symName: '__ZNSt3__116__variant_detail12__visitation6__base12__dispatcherIJLm3EEE10__dispatchB8ne200100IONS1_9__variant15__value_visitorIZZNK8facebook5react30PerformanceEntryCircularBuffer10getEntriesERNS_6vectorINS_7variantIJNS9_15PerformanceMarkENS9_18PerformanceMeasureENS9_22PerformanceEventTimingENS9_25PerformanceLongTaskTimingENS9_25PerformanceResourceTimingEEEENS_9allocatorISI_EEEERKNS_12basic_stringIcNS_11char_traitsIcEENSJ_IcEEEEENK3$_0clERKSI_EUlRKT_E_EEJRKNS0_6__baseILNS0_6_TraitE1EJSD_SE_SF_SG_SH_EEEEEEDcSX_DpT0_', symObjAddr: 0x196C, symBinAddr: 0x596C, symSize: 0x74 }
  - { offset: 0x19FCA, size: 0x8, addend: 0x0, symName: '__ZNSt3__116__variant_detail12__visitation6__base12__dispatcherIJLm3EEE10__dispatchB8ne200100IONS1_9__variant15__value_visitorIZZNK8facebook5react30PerformanceEntryCircularBuffer10getEntriesERNS_6vectorINS_7variantIJNS9_15PerformanceMarkENS9_18PerformanceMeasureENS9_22PerformanceEventTimingENS9_25PerformanceLongTaskTimingENS9_25PerformanceResourceTimingEEEENS_9allocatorISI_EEEERKNS_12basic_stringIcNS_11char_traitsIcEENSJ_IcEEEEENK3$_0clERKSI_EUlRKT_E_EEJRKNS0_6__baseILNS0_6_TraitE1EJSD_SE_SF_SG_SH_EEEEEEDcSX_DpT0_', symObjAddr: 0x196C, symBinAddr: 0x596C, symSize: 0x74 }
  - { offset: 0x19FF3, size: 0x8, addend: 0x0, symName: '__ZNSt3__116__variant_detail12__visitation6__base12__dispatcherIJLm3EEE10__dispatchB8ne200100IONS1_9__variant15__value_visitorIZZNK8facebook5react30PerformanceEntryCircularBuffer10getEntriesERNS_6vectorINS_7variantIJNS9_15PerformanceMarkENS9_18PerformanceMeasureENS9_22PerformanceEventTimingENS9_25PerformanceLongTaskTimingENS9_25PerformanceResourceTimingEEEENS_9allocatorISI_EEEERKNS_12basic_stringIcNS_11char_traitsIcEENSJ_IcEEEEENK3$_0clERKSI_EUlRKT_E_EEJRKNS0_6__baseILNS0_6_TraitE1EJSD_SE_SF_SG_SH_EEEEEEDcSX_DpT0_', symObjAddr: 0x196C, symBinAddr: 0x596C, symSize: 0x74 }
  - { offset: 0x1A23C, size: 0x8, addend: 0x0, symName: '__ZNSt3__116__variant_detail12__visitation6__base12__dispatcherIJLm4EEE10__dispatchB8ne200100IONS1_9__variant15__value_visitorIZZNK8facebook5react30PerformanceEntryCircularBuffer10getEntriesERNS_6vectorINS_7variantIJNS9_15PerformanceMarkENS9_18PerformanceMeasureENS9_22PerformanceEventTimingENS9_25PerformanceLongTaskTimingENS9_25PerformanceResourceTimingEEEENS_9allocatorISI_EEEERKNS_12basic_stringIcNS_11char_traitsIcEENSJ_IcEEEEENK3$_0clERKSI_EUlRKT_E_EEJRKNS0_6__baseILNS0_6_TraitE1EJSD_SE_SF_SG_SH_EEEEEEDcSX_DpT0_', symObjAddr: 0x19E0, symBinAddr: 0x59E0, symSize: 0x74 }
  - { offset: 0x1A276, size: 0x8, addend: 0x0, symName: '__ZNSt3__116__variant_detail12__visitation6__base12__dispatcherIJLm4EEE10__dispatchB8ne200100IONS1_9__variant15__value_visitorIZZNK8facebook5react30PerformanceEntryCircularBuffer10getEntriesERNS_6vectorINS_7variantIJNS9_15PerformanceMarkENS9_18PerformanceMeasureENS9_22PerformanceEventTimingENS9_25PerformanceLongTaskTimingENS9_25PerformanceResourceTimingEEEENS_9allocatorISI_EEEERKNS_12basic_stringIcNS_11char_traitsIcEENSJ_IcEEEEENK3$_0clERKSI_EUlRKT_E_EEJRKNS0_6__baseILNS0_6_TraitE1EJSD_SE_SF_SG_SH_EEEEEEDcSX_DpT0_', symObjAddr: 0x19E0, symBinAddr: 0x59E0, symSize: 0x74 }
  - { offset: 0x1A29F, size: 0x8, addend: 0x0, symName: '__ZNSt3__116__variant_detail12__visitation6__base12__dispatcherIJLm4EEE10__dispatchB8ne200100IONS1_9__variant15__value_visitorIZZNK8facebook5react30PerformanceEntryCircularBuffer10getEntriesERNS_6vectorINS_7variantIJNS9_15PerformanceMarkENS9_18PerformanceMeasureENS9_22PerformanceEventTimingENS9_25PerformanceLongTaskTimingENS9_25PerformanceResourceTimingEEEENS_9allocatorISI_EEEERKNS_12basic_stringIcNS_11char_traitsIcEENSJ_IcEEEEENK3$_0clERKSI_EUlRKT_E_EEJRKNS0_6__baseILNS0_6_TraitE1EJSD_SE_SF_SG_SH_EEEEEEDcSX_DpT0_', symObjAddr: 0x19E0, symBinAddr: 0x59E0, symSize: 0x74 }
  - { offset: 0x1A54A, size: 0x8, addend: 0x0, symName: __ZNSt3__16vectorINS_7variantIJN8facebook5react15PerformanceMarkENS3_18PerformanceMeasureENS3_22PerformanceEventTimingENS3_25PerformanceLongTaskTimingENS3_25PerformanceResourceTimingEEEENS_9allocatorIS9_EEE24__emplace_back_slow_pathIJS9_EEEPS9_DpOT_, symObjAddr: 0x1BB8, symBinAddr: 0x5BB8, symSize: 0x128 }
  - { offset: 0x1A986, size: 0x8, addend: 0x0, symName: '__ZNSt3__110__function6__funcIZN8facebook5react30PerformanceEntryCircularBuffer5clearERKNS_12basic_stringIcNS_11char_traitsIcEENS_9allocatorIcEEEEE3$_0NS8_ISD_EEFbRKNS_7variantIJNS3_15PerformanceMarkENS3_18PerformanceMeasureENS3_22PerformanceEventTimingENS3_25PerformanceLongTaskTimingENS3_25PerformanceResourceTimingEEEEEED1Ev', symObjAddr: 0x1CE0, symBinAddr: 0x5CE0, symSize: 0x4 }
  - { offset: 0x1A9B2, size: 0x8, addend: 0x0, symName: '__ZNSt3__110__function6__funcIZN8facebook5react30PerformanceEntryCircularBuffer5clearERKNS_12basic_stringIcNS_11char_traitsIcEENS_9allocatorIcEEEEE3$_0NS8_ISD_EEFbRKNS_7variantIJNS3_15PerformanceMarkENS3_18PerformanceMeasureENS3_22PerformanceEventTimingENS3_25PerformanceLongTaskTimingENS3_25PerformanceResourceTimingEEEEEED0Ev', symObjAddr: 0x1CE4, symBinAddr: 0x5CE4, symSize: 0x4 }
  - { offset: 0x1AACD, size: 0x8, addend: 0x0, symName: '__ZNKSt3__110__function6__funcIZN8facebook5react30PerformanceEntryCircularBuffer5clearERKNS_12basic_stringIcNS_11char_traitsIcEENS_9allocatorIcEEEEE3$_0NS8_ISD_EEFbRKNS_7variantIJNS3_15PerformanceMarkENS3_18PerformanceMeasureENS3_22PerformanceEventTimingENS3_25PerformanceLongTaskTimingENS3_25PerformanceResourceTimingEEEEEE7__cloneEv', symObjAddr: 0x1CE8, symBinAddr: 0x5CE8, symSize: 0x34 }
  - { offset: 0x1ACD6, size: 0x8, addend: 0x0, symName: '__ZNKSt3__110__function6__funcIZN8facebook5react30PerformanceEntryCircularBuffer5clearERKNS_12basic_stringIcNS_11char_traitsIcEENS_9allocatorIcEEEEE3$_0NS8_ISD_EEFbRKNS_7variantIJNS3_15PerformanceMarkENS3_18PerformanceMeasureENS3_22PerformanceEventTimingENS3_25PerformanceLongTaskTimingENS3_25PerformanceResourceTimingEEEEEE7__cloneEPNS0_6__baseISO_EE', symObjAddr: 0x1D1C, symBinAddr: 0x5D1C, symSize: 0x14 }
  - { offset: 0x1AD0D, size: 0x8, addend: 0x0, symName: '__ZNKSt3__110__function6__funcIZN8facebook5react30PerformanceEntryCircularBuffer5clearERKNS_12basic_stringIcNS_11char_traitsIcEENS_9allocatorIcEEEEE3$_0NS8_ISD_EEFbRKNS_7variantIJNS3_15PerformanceMarkENS3_18PerformanceMeasureENS3_22PerformanceEventTimingENS3_25PerformanceLongTaskTimingENS3_25PerformanceResourceTimingEEEEEE7__cloneEPNS0_6__baseISO_EE', symObjAddr: 0x1D1C, symBinAddr: 0x5D1C, symSize: 0x14 }
  - { offset: 0x1AD3C, size: 0x8, addend: 0x0, symName: '__ZNKSt3__110__function6__funcIZN8facebook5react30PerformanceEntryCircularBuffer5clearERKNS_12basic_stringIcNS_11char_traitsIcEENS_9allocatorIcEEEEE3$_0NS8_ISD_EEFbRKNS_7variantIJNS3_15PerformanceMarkENS3_18PerformanceMeasureENS3_22PerformanceEventTimingENS3_25PerformanceLongTaskTimingENS3_25PerformanceResourceTimingEEEEEE7__cloneEPNS0_6__baseISO_EE', symObjAddr: 0x1D1C, symBinAddr: 0x5D1C, symSize: 0x14 }
  - { offset: 0x1AD6B, size: 0x8, addend: 0x0, symName: '__ZNKSt3__110__function6__funcIZN8facebook5react30PerformanceEntryCircularBuffer5clearERKNS_12basic_stringIcNS_11char_traitsIcEENS_9allocatorIcEEEEE3$_0NS8_ISD_EEFbRKNS_7variantIJNS3_15PerformanceMarkENS3_18PerformanceMeasureENS3_22PerformanceEventTimingENS3_25PerformanceLongTaskTimingENS3_25PerformanceResourceTimingEEEEEE7__cloneEPNS0_6__baseISO_EE', symObjAddr: 0x1D1C, symBinAddr: 0x5D1C, symSize: 0x14 }
  - { offset: 0x1AD81, size: 0x8, addend: 0x0, symName: '__ZNKSt3__110__function6__funcIZN8facebook5react30PerformanceEntryCircularBuffer5clearERKNS_12basic_stringIcNS_11char_traitsIcEENS_9allocatorIcEEEEE3$_0NS8_ISD_EEFbRKNS_7variantIJNS3_15PerformanceMarkENS3_18PerformanceMeasureENS3_22PerformanceEventTimingENS3_25PerformanceLongTaskTimingENS3_25PerformanceResourceTimingEEEEEE7__cloneEPNS0_6__baseISO_EE', symObjAddr: 0x1D1C, symBinAddr: 0x5D1C, symSize: 0x14 }
  - { offset: 0x1AD96, size: 0x8, addend: 0x0, symName: '__ZNSt3__110__function6__funcIZN8facebook5react30PerformanceEntryCircularBuffer5clearERKNS_12basic_stringIcNS_11char_traitsIcEENS_9allocatorIcEEEEE3$_0NS8_ISD_EEFbRKNS_7variantIJNS3_15PerformanceMarkENS3_18PerformanceMeasureENS3_22PerformanceEventTimingENS3_25PerformanceLongTaskTimingENS3_25PerformanceResourceTimingEEEEEE7destroyEv', symObjAddr: 0x1D30, symBinAddr: 0x5D30, symSize: 0x4 }
  - { offset: 0x1ADEB, size: 0x8, addend: 0x0, symName: '__ZNSt3__110__function6__funcIZN8facebook5react30PerformanceEntryCircularBuffer5clearERKNS_12basic_stringIcNS_11char_traitsIcEENS_9allocatorIcEEEEE3$_0NS8_ISD_EEFbRKNS_7variantIJNS3_15PerformanceMarkENS3_18PerformanceMeasureENS3_22PerformanceEventTimingENS3_25PerformanceLongTaskTimingENS3_25PerformanceResourceTimingEEEEEE18destroy_deallocateEv', symObjAddr: 0x1D34, symBinAddr: 0x5D34, symSize: 0x4 }
  - { offset: 0x1AE20, size: 0x8, addend: 0x0, symName: '__ZNSt3__110__function6__funcIZN8facebook5react30PerformanceEntryCircularBuffer5clearERKNS_12basic_stringIcNS_11char_traitsIcEENS_9allocatorIcEEEEE3$_0NS8_ISD_EEFbRKNS_7variantIJNS3_15PerformanceMarkENS3_18PerformanceMeasureENS3_22PerformanceEventTimingENS3_25PerformanceLongTaskTimingENS3_25PerformanceResourceTimingEEEEEE18destroy_deallocateEv', symObjAddr: 0x1D34, symBinAddr: 0x5D34, symSize: 0x4 }
  - { offset: 0x1AE43, size: 0x8, addend: 0x0, symName: '__ZNSt3__110__function6__funcIZN8facebook5react30PerformanceEntryCircularBuffer5clearERKNS_12basic_stringIcNS_11char_traitsIcEENS_9allocatorIcEEEEE3$_0NS8_ISD_EEFbRKNS_7variantIJNS3_15PerformanceMarkENS3_18PerformanceMeasureENS3_22PerformanceEventTimingENS3_25PerformanceLongTaskTimingENS3_25PerformanceResourceTimingEEEEEE18destroy_deallocateEv', symObjAddr: 0x1D34, symBinAddr: 0x5D34, symSize: 0x4 }
  - { offset: 0x1AE77, size: 0x8, addend: 0x0, symName: '__ZNSt3__110__function6__funcIZN8facebook5react30PerformanceEntryCircularBuffer5clearERKNS_12basic_stringIcNS_11char_traitsIcEENS_9allocatorIcEEEEE3$_0NS8_ISD_EEFbRKNS_7variantIJNS3_15PerformanceMarkENS3_18PerformanceMeasureENS3_22PerformanceEventTimingENS3_25PerformanceLongTaskTimingENS3_25PerformanceResourceTimingEEEEEE18destroy_deallocateEv', symObjAddr: 0x1D34, symBinAddr: 0x5D34, symSize: 0x4 }
  - { offset: 0x1B08C, size: 0x8, addend: 0x0, symName: '__ZNSt3__110__function6__funcIZN8facebook5react30PerformanceEntryCircularBuffer5clearERKNS_12basic_stringIcNS_11char_traitsIcEENS_9allocatorIcEEEEE3$_0NS8_ISD_EEFbRKNS_7variantIJNS3_15PerformanceMarkENS3_18PerformanceMeasureENS3_22PerformanceEventTimingENS3_25PerformanceLongTaskTimingENS3_25PerformanceResourceTimingEEEEEEclESN_', symObjAddr: 0x1D38, symBinAddr: 0x5D38, symSize: 0x4C }
  - { offset: 0x1B2CB, size: 0x8, addend: 0x0, symName: '__ZNKSt3__110__function6__funcIZN8facebook5react30PerformanceEntryCircularBuffer5clearERKNS_12basic_stringIcNS_11char_traitsIcEENS_9allocatorIcEEEEE3$_0NS8_ISD_EEFbRKNS_7variantIJNS3_15PerformanceMarkENS3_18PerformanceMeasureENS3_22PerformanceEventTimingENS3_25PerformanceLongTaskTimingENS3_25PerformanceResourceTimingEEEEEE6targetERKSt9type_info', symObjAddr: 0x1D84, symBinAddr: 0x5D84, symSize: 0x3C }
  - { offset: 0x1B2D6, size: 0x8, addend: 0x0, symName: '__ZNKSt3__110__function6__funcIZN8facebook5react30PerformanceEntryCircularBuffer5clearERKNS_12basic_stringIcNS_11char_traitsIcEENS_9allocatorIcEEEEE3$_0NS8_ISD_EEFbRKNS_7variantIJNS3_15PerformanceMarkENS3_18PerformanceMeasureENS3_22PerformanceEventTimingENS3_25PerformanceLongTaskTimingENS3_25PerformanceResourceTimingEEEEEE6targetERKSt9type_info', symObjAddr: 0x1D84, symBinAddr: 0x5D84, symSize: 0x3C }
  - { offset: 0x1B325, size: 0x8, addend: 0x0, symName: '__ZNKSt3__110__function6__funcIZN8facebook5react30PerformanceEntryCircularBuffer5clearERKNS_12basic_stringIcNS_11char_traitsIcEENS_9allocatorIcEEEEE3$_0NS8_ISD_EEFbRKNS_7variantIJNS3_15PerformanceMarkENS3_18PerformanceMeasureENS3_22PerformanceEventTimingENS3_25PerformanceLongTaskTimingENS3_25PerformanceResourceTimingEEEEEE11target_typeEv', symObjAddr: 0x1DC0, symBinAddr: 0x5DC0, symSize: 0xC }
  - { offset: 0x1B3C8, size: 0x8, addend: 0x0, symName: '__ZNSt3__116__variant_detail12__visitation6__base12__dispatcherIJLm0EEE10__dispatchB8ne200100IONS1_9__variant15__value_visitorIZZN8facebook5react30PerformanceEntryCircularBuffer5clearERKNS_12basic_stringIcNS_11char_traitsIcEENS_9allocatorIcEEEEENK3$_0clERKNS_7variantIJNS9_15PerformanceMarkENS9_18PerformanceMeasureENS9_22PerformanceEventTimingENS9_25PerformanceLongTaskTimingENS9_25PerformanceResourceTimingEEEEEUlRKT_E_EEJRKNS0_6__baseILNS0_6_TraitE1EJSL_SM_SN_SO_SP_EEEEEEDcST_DpT0_', symObjAddr: 0x1DCC, symBinAddr: 0x5DCC, symSize: 0x74 }
  - { offset: 0x1B402, size: 0x8, addend: 0x0, symName: '__ZNSt3__116__variant_detail12__visitation6__base12__dispatcherIJLm0EEE10__dispatchB8ne200100IONS1_9__variant15__value_visitorIZZN8facebook5react30PerformanceEntryCircularBuffer5clearERKNS_12basic_stringIcNS_11char_traitsIcEENS_9allocatorIcEEEEENK3$_0clERKNS_7variantIJNS9_15PerformanceMarkENS9_18PerformanceMeasureENS9_22PerformanceEventTimingENS9_25PerformanceLongTaskTimingENS9_25PerformanceResourceTimingEEEEEUlRKT_E_EEJRKNS0_6__baseILNS0_6_TraitE1EJSL_SM_SN_SO_SP_EEEEEEDcST_DpT0_', symObjAddr: 0x1DCC, symBinAddr: 0x5DCC, symSize: 0x74 }
  - { offset: 0x1B42B, size: 0x8, addend: 0x0, symName: '__ZNSt3__116__variant_detail12__visitation6__base12__dispatcherIJLm0EEE10__dispatchB8ne200100IONS1_9__variant15__value_visitorIZZN8facebook5react30PerformanceEntryCircularBuffer5clearERKNS_12basic_stringIcNS_11char_traitsIcEENS_9allocatorIcEEEEENK3$_0clERKNS_7variantIJNS9_15PerformanceMarkENS9_18PerformanceMeasureENS9_22PerformanceEventTimingENS9_25PerformanceLongTaskTimingENS9_25PerformanceResourceTimingEEEEEUlRKT_E_EEJRKNS0_6__baseILNS0_6_TraitE1EJSL_SM_SN_SO_SP_EEEEEEDcST_DpT0_', symObjAddr: 0x1DCC, symBinAddr: 0x5DCC, symSize: 0x74 }
  - { offset: 0x1B674, size: 0x8, addend: 0x0, symName: '__ZNSt3__116__variant_detail12__visitation6__base12__dispatcherIJLm1EEE10__dispatchB8ne200100IONS1_9__variant15__value_visitorIZZN8facebook5react30PerformanceEntryCircularBuffer5clearERKNS_12basic_stringIcNS_11char_traitsIcEENS_9allocatorIcEEEEENK3$_0clERKNS_7variantIJNS9_15PerformanceMarkENS9_18PerformanceMeasureENS9_22PerformanceEventTimingENS9_25PerformanceLongTaskTimingENS9_25PerformanceResourceTimingEEEEEUlRKT_E_EEJRKNS0_6__baseILNS0_6_TraitE1EJSL_SM_SN_SO_SP_EEEEEEDcST_DpT0_', symObjAddr: 0x1E40, symBinAddr: 0x5E40, symSize: 0x74 }
  - { offset: 0x1B6AE, size: 0x8, addend: 0x0, symName: '__ZNSt3__116__variant_detail12__visitation6__base12__dispatcherIJLm1EEE10__dispatchB8ne200100IONS1_9__variant15__value_visitorIZZN8facebook5react30PerformanceEntryCircularBuffer5clearERKNS_12basic_stringIcNS_11char_traitsIcEENS_9allocatorIcEEEEENK3$_0clERKNS_7variantIJNS9_15PerformanceMarkENS9_18PerformanceMeasureENS9_22PerformanceEventTimingENS9_25PerformanceLongTaskTimingENS9_25PerformanceResourceTimingEEEEEUlRKT_E_EEJRKNS0_6__baseILNS0_6_TraitE1EJSL_SM_SN_SO_SP_EEEEEEDcST_DpT0_', symObjAddr: 0x1E40, symBinAddr: 0x5E40, symSize: 0x74 }
  - { offset: 0x1B6D7, size: 0x8, addend: 0x0, symName: '__ZNSt3__116__variant_detail12__visitation6__base12__dispatcherIJLm1EEE10__dispatchB8ne200100IONS1_9__variant15__value_visitorIZZN8facebook5react30PerformanceEntryCircularBuffer5clearERKNS_12basic_stringIcNS_11char_traitsIcEENS_9allocatorIcEEEEENK3$_0clERKNS_7variantIJNS9_15PerformanceMarkENS9_18PerformanceMeasureENS9_22PerformanceEventTimingENS9_25PerformanceLongTaskTimingENS9_25PerformanceResourceTimingEEEEEUlRKT_E_EEJRKNS0_6__baseILNS0_6_TraitE1EJSL_SM_SN_SO_SP_EEEEEEDcST_DpT0_', symObjAddr: 0x1E40, symBinAddr: 0x5E40, symSize: 0x74 }
  - { offset: 0x1B920, size: 0x8, addend: 0x0, symName: '__ZNSt3__116__variant_detail12__visitation6__base12__dispatcherIJLm2EEE10__dispatchB8ne200100IONS1_9__variant15__value_visitorIZZN8facebook5react30PerformanceEntryCircularBuffer5clearERKNS_12basic_stringIcNS_11char_traitsIcEENS_9allocatorIcEEEEENK3$_0clERKNS_7variantIJNS9_15PerformanceMarkENS9_18PerformanceMeasureENS9_22PerformanceEventTimingENS9_25PerformanceLongTaskTimingENS9_25PerformanceResourceTimingEEEEEUlRKT_E_EEJRKNS0_6__baseILNS0_6_TraitE1EJSL_SM_SN_SO_SP_EEEEEEDcST_DpT0_', symObjAddr: 0x1EB4, symBinAddr: 0x5EB4, symSize: 0x74 }
  - { offset: 0x1B95A, size: 0x8, addend: 0x0, symName: '__ZNSt3__116__variant_detail12__visitation6__base12__dispatcherIJLm2EEE10__dispatchB8ne200100IONS1_9__variant15__value_visitorIZZN8facebook5react30PerformanceEntryCircularBuffer5clearERKNS_12basic_stringIcNS_11char_traitsIcEENS_9allocatorIcEEEEENK3$_0clERKNS_7variantIJNS9_15PerformanceMarkENS9_18PerformanceMeasureENS9_22PerformanceEventTimingENS9_25PerformanceLongTaskTimingENS9_25PerformanceResourceTimingEEEEEUlRKT_E_EEJRKNS0_6__baseILNS0_6_TraitE1EJSL_SM_SN_SO_SP_EEEEEEDcST_DpT0_', symObjAddr: 0x1EB4, symBinAddr: 0x5EB4, symSize: 0x74 }
  - { offset: 0x1B983, size: 0x8, addend: 0x0, symName: '__ZNSt3__116__variant_detail12__visitation6__base12__dispatcherIJLm2EEE10__dispatchB8ne200100IONS1_9__variant15__value_visitorIZZN8facebook5react30PerformanceEntryCircularBuffer5clearERKNS_12basic_stringIcNS_11char_traitsIcEENS_9allocatorIcEEEEENK3$_0clERKNS_7variantIJNS9_15PerformanceMarkENS9_18PerformanceMeasureENS9_22PerformanceEventTimingENS9_25PerformanceLongTaskTimingENS9_25PerformanceResourceTimingEEEEEUlRKT_E_EEJRKNS0_6__baseILNS0_6_TraitE1EJSL_SM_SN_SO_SP_EEEEEEDcST_DpT0_', symObjAddr: 0x1EB4, symBinAddr: 0x5EB4, symSize: 0x74 }
  - { offset: 0x1BBCC, size: 0x8, addend: 0x0, symName: '__ZNSt3__116__variant_detail12__visitation6__base12__dispatcherIJLm3EEE10__dispatchB8ne200100IONS1_9__variant15__value_visitorIZZN8facebook5react30PerformanceEntryCircularBuffer5clearERKNS_12basic_stringIcNS_11char_traitsIcEENS_9allocatorIcEEEEENK3$_0clERKNS_7variantIJNS9_15PerformanceMarkENS9_18PerformanceMeasureENS9_22PerformanceEventTimingENS9_25PerformanceLongTaskTimingENS9_25PerformanceResourceTimingEEEEEUlRKT_E_EEJRKNS0_6__baseILNS0_6_TraitE1EJSL_SM_SN_SO_SP_EEEEEEDcST_DpT0_', symObjAddr: 0x1F28, symBinAddr: 0x5F28, symSize: 0x74 }
  - { offset: 0x1BC06, size: 0x8, addend: 0x0, symName: '__ZNSt3__116__variant_detail12__visitation6__base12__dispatcherIJLm3EEE10__dispatchB8ne200100IONS1_9__variant15__value_visitorIZZN8facebook5react30PerformanceEntryCircularBuffer5clearERKNS_12basic_stringIcNS_11char_traitsIcEENS_9allocatorIcEEEEENK3$_0clERKNS_7variantIJNS9_15PerformanceMarkENS9_18PerformanceMeasureENS9_22PerformanceEventTimingENS9_25PerformanceLongTaskTimingENS9_25PerformanceResourceTimingEEEEEUlRKT_E_EEJRKNS0_6__baseILNS0_6_TraitE1EJSL_SM_SN_SO_SP_EEEEEEDcST_DpT0_', symObjAddr: 0x1F28, symBinAddr: 0x5F28, symSize: 0x74 }
  - { offset: 0x1BC2F, size: 0x8, addend: 0x0, symName: '__ZNSt3__116__variant_detail12__visitation6__base12__dispatcherIJLm3EEE10__dispatchB8ne200100IONS1_9__variant15__value_visitorIZZN8facebook5react30PerformanceEntryCircularBuffer5clearERKNS_12basic_stringIcNS_11char_traitsIcEENS_9allocatorIcEEEEENK3$_0clERKNS_7variantIJNS9_15PerformanceMarkENS9_18PerformanceMeasureENS9_22PerformanceEventTimingENS9_25PerformanceLongTaskTimingENS9_25PerformanceResourceTimingEEEEEUlRKT_E_EEJRKNS0_6__baseILNS0_6_TraitE1EJSL_SM_SN_SO_SP_EEEEEEDcST_DpT0_', symObjAddr: 0x1F28, symBinAddr: 0x5F28, symSize: 0x74 }
  - { offset: 0x1BE78, size: 0x8, addend: 0x0, symName: '__ZNSt3__116__variant_detail12__visitation6__base12__dispatcherIJLm4EEE10__dispatchB8ne200100IONS1_9__variant15__value_visitorIZZN8facebook5react30PerformanceEntryCircularBuffer5clearERKNS_12basic_stringIcNS_11char_traitsIcEENS_9allocatorIcEEEEENK3$_0clERKNS_7variantIJNS9_15PerformanceMarkENS9_18PerformanceMeasureENS9_22PerformanceEventTimingENS9_25PerformanceLongTaskTimingENS9_25PerformanceResourceTimingEEEEEUlRKT_E_EEJRKNS0_6__baseILNS0_6_TraitE1EJSL_SM_SN_SO_SP_EEEEEEDcST_DpT0_', symObjAddr: 0x1F9C, symBinAddr: 0x5F9C, symSize: 0x74 }
  - { offset: 0x1BEB2, size: 0x8, addend: 0x0, symName: '__ZNSt3__116__variant_detail12__visitation6__base12__dispatcherIJLm4EEE10__dispatchB8ne200100IONS1_9__variant15__value_visitorIZZN8facebook5react30PerformanceEntryCircularBuffer5clearERKNS_12basic_stringIcNS_11char_traitsIcEENS_9allocatorIcEEEEENK3$_0clERKNS_7variantIJNS9_15PerformanceMarkENS9_18PerformanceMeasureENS9_22PerformanceEventTimingENS9_25PerformanceLongTaskTimingENS9_25PerformanceResourceTimingEEEEEUlRKT_E_EEJRKNS0_6__baseILNS0_6_TraitE1EJSL_SM_SN_SO_SP_EEEEEEDcST_DpT0_', symObjAddr: 0x1F9C, symBinAddr: 0x5F9C, symSize: 0x74 }
  - { offset: 0x1BEDB, size: 0x8, addend: 0x0, symName: '__ZNSt3__116__variant_detail12__visitation6__base12__dispatcherIJLm4EEE10__dispatchB8ne200100IONS1_9__variant15__value_visitorIZZN8facebook5react30PerformanceEntryCircularBuffer5clearERKNS_12basic_stringIcNS_11char_traitsIcEENS_9allocatorIcEEEEENK3$_0clERKNS_7variantIJNS9_15PerformanceMarkENS9_18PerformanceMeasureENS9_22PerformanceEventTimingENS9_25PerformanceLongTaskTimingENS9_25PerformanceResourceTimingEEEEEUlRKT_E_EEJRKNS0_6__baseILNS0_6_TraitE1EJSL_SM_SN_SO_SP_EEEEEEDcST_DpT0_', symObjAddr: 0x1F9C, symBinAddr: 0x5F9C, symSize: 0x74 }
  - { offset: 0x274A2, size: 0x8, addend: 0x0, symName: __ZNSt3__135__uninitialized_allocator_copy_implB8ne200100INS_9allocatorINS_7variantIJN8facebook5react15PerformanceMarkENS4_18PerformanceMeasureENS4_22PerformanceEventTimingENS4_25PerformanceLongTaskTimingENS4_25PerformanceResourceTimingEEEEEEPKSA_SD_PSA_EET2_RT_T0_T1_SF_, symObjAddr: 0xD04, symBinAddr: 0x64E4, symSize: 0x84 }
  - { offset: 0x281A6, size: 0x8, addend: 0x0, symName: __ZNSt3__112__destroy_atB8ne200100INS_4pairIKNS_12basic_stringIcNS_11char_traitsIcEENS_9allocatorIcEEEENS_6vectorINS_7variantIJN8facebook5react15PerformanceMarkENSC_18PerformanceMeasureENSC_22PerformanceEventTimingENSC_25PerformanceLongTaskTimingENSC_25PerformanceResourceTimingEEEENS5_ISI_EEEEEELi0EEEvPT_, symObjAddr: 0x1C2C, symBinAddr: 0x6DA8, symSize: 0x44 }
  - { offset: 0x2A291, size: 0x8, addend: 0x0, symName: __ZN8facebook5react27PerformanceEntryKeyedBuffer3addERKNSt3__17variantIJNS0_15PerformanceMarkENS0_18PerformanceMeasureENS0_22PerformanceEventTimingENS0_25PerformanceLongTaskTimingENS0_25PerformanceResourceTimingEEEE, symObjAddr: 0x0, symBinAddr: 0x6010, symSize: 0x160 }
  - { offset: 0x2B51E, size: 0x8, addend: 0x0, symName: __ZNSt3__112__hash_tableINS_17__hash_value_typeINS_12basic_stringIcNS_11char_traitsIcEENS_9allocatorIcEEEENS_6vectorINS_7variantIJN8facebook5react15PerformanceMarkENSB_18PerformanceMeasureENSB_22PerformanceEventTimingENSB_25PerformanceLongTaskTimingENSB_25PerformanceResourceTimingEEEENS5_ISH_EEEEEENS_22__unordered_map_hasherIS7_SK_NS_4hashIS7_EENS_8equal_toIS7_EELb1EEENS_21__unordered_map_equalIS7_SK_SP_SN_Lb1EEENS5_ISK_EEE4findIS7_EENS_15__hash_iteratorIPNS_11__hash_nodeISK_PvEEEERKT_, symObjAddr: 0x1C70, symBinAddr: 0x6DEC, symSize: 0xF8 }
  - { offset: 0x2B9CC, size: 0x8, addend: 0x0, symName: __ZNSt3__16vectorINS_7variantIJN8facebook5react15PerformanceMarkENS3_18PerformanceMeasureENS3_22PerformanceEventTimingENS3_25PerformanceLongTaskTimingENS3_25PerformanceResourceTimingEEEENS_9allocatorIS9_EEE16__init_with_sizeB8ne200100IPKS9_SF_EEvT_T0_m, symObjAddr: 0xC3C, symBinAddr: 0x641C, symSize: 0x84 }
  - { offset: 0x2BC3F, size: 0x8, addend: 0x0, symName: __ZNSt3__112__hash_tableINS_17__hash_value_typeINS_12basic_stringIcNS_11char_traitsIcEENS_9allocatorIcEEEENS_6vectorINS_7variantIJN8facebook5react15PerformanceMarkENSB_18PerformanceMeasureENSB_22PerformanceEventTimingENSB_25PerformanceLongTaskTimingENSB_25PerformanceResourceTimingEEEENS5_ISH_EEEEEENS_22__unordered_map_hasherIS7_SK_NS_4hashIS7_EENS_8equal_toIS7_EELb1EEENS_21__unordered_map_equalIS7_SK_SP_SN_Lb1EEENS5_ISK_EEE25__emplace_unique_key_argsIS7_JRS7_SJ_EEENS_4pairINS_15__hash_iteratorIPNS_11__hash_nodeISK_PvEEEEbEERKT_DpOT0_, symObjAddr: 0x2280, symBinAddr: 0x73FC, symSize: 0x258 }
  - { offset: 0x2C804, size: 0x8, addend: 0x0, symName: __ZNK8facebook5react27PerformanceEntryKeyedBuffer10getEntriesERNSt3__16vectorINS2_7variantIJNS0_15PerformanceMarkENS0_18PerformanceMeasureENS0_22PerformanceEventTimingENS0_25PerformanceLongTaskTimingENS0_25PerformanceResourceTimingEEEENS2_9allocatorISA_EEEE, symObjAddr: 0x1B0, symBinAddr: 0x6170, symSize: 0x58 }
  - { offset: 0x2C978, size: 0x8, addend: 0x0, symName: __ZNSt3__16vectorINS_7variantIJN8facebook5react15PerformanceMarkENS3_18PerformanceMeasureENS3_22PerformanceEventTimingENS3_25PerformanceLongTaskTimingENS3_25PerformanceResourceTimingEEEENS_9allocatorIS9_EEE18__insert_with_sizeB8ne200100INS_11__wrap_iterIPKS9_EESH_EENSE_IPS9_EESH_T_T0_l, symObjAddr: 0xDF8, symBinAddr: 0x6568, symSize: 0x228 }
  - { offset: 0x2D2FB, size: 0x8, addend: 0x0, symName: __ZNK8facebook5react27PerformanceEntryKeyedBuffer10getEntriesERNSt3__16vectorINS2_7variantIJNS0_15PerformanceMarkENS0_18PerformanceMeasureENS0_22PerformanceEventTimingENS0_25PerformanceLongTaskTimingENS0_25PerformanceResourceTimingEEEENS2_9allocatorISA_EEEERKNS2_12basic_stringIcNS2_11char_traitsIcEENSB_IcEEEE, symObjAddr: 0x208, symBinAddr: 0x61C8, symSize: 0xB4 }
  - { offset: 0x2D84C, size: 0x8, addend: 0x0, symName: __ZNSt3__112__hash_tableINS_17__hash_value_typeINS_12basic_stringIcNS_11char_traitsIcEENS_9allocatorIcEEEENS_6vectorINS_7variantIJN8facebook5react15PerformanceMarkENSB_18PerformanceMeasureENSB_22PerformanceEventTimingENSB_25PerformanceLongTaskTimingENSB_25PerformanceResourceTimingEEEENS5_ISH_EEEEEENS_22__unordered_map_hasherIS7_SK_NS_4hashIS7_EENS_8equal_toIS7_EELb1EEENS_21__unordered_map_equalIS7_SK_SP_SN_Lb1EEENS5_ISK_EEED2Ev, symObjAddr: 0x1BB8, symBinAddr: 0x6D34, symSize: 0x38 }
  - { offset: 0x2D857, size: 0x8, addend: 0x0, symName: __ZNKSt3__112__hash_tableINS_17__hash_value_typeINS_12basic_stringIcNS_11char_traitsIcEENS_9allocatorIcEEEENS_6vectorINS_7variantIJN8facebook5react15PerformanceMarkENSB_18PerformanceMeasureENSB_22PerformanceEventTimingENSB_25PerformanceLongTaskTimingENSB_25PerformanceResourceTimingEEEENS5_ISH_EEEEEENS_22__unordered_map_hasherIS7_SK_NS_4hashIS7_EENS_8equal_toIS7_EELb1EEENS_21__unordered_map_equalIS7_SK_SP_SN_Lb1EEENS5_ISK_EEE4findIS7_EENS_21__hash_const_iteratorIPNS_11__hash_nodeISK_PvEEEERKT_, symObjAddr: 0x2838, symBinAddr: 0x79B4, symSize: 0xF8 }
  - { offset: 0x2DA73, size: 0x8, addend: 0x0, symName: __ZN8facebook5react27PerformanceEntryKeyedBuffer5clearEv, symObjAddr: 0x2BC, symBinAddr: 0x627C, symSize: 0x8 }
  - { offset: 0x2DABF, size: 0x8, addend: 0x0, symName: __ZNSt3__112__hash_tableINS_17__hash_value_typeINS_12basic_stringIcNS_11char_traitsIcEENS_9allocatorIcEEEENS_6vectorINS_7variantIJN8facebook5react15PerformanceMarkENSB_18PerformanceMeasureENSB_22PerformanceEventTimingENSB_25PerformanceLongTaskTimingENSB_25PerformanceResourceTimingEEEENS5_ISH_EEEEEENS_22__unordered_map_hasherIS7_SK_NS_4hashIS7_EENS_8equal_toIS7_EELb1EEENS_21__unordered_map_equalIS7_SK_SP_SN_Lb1EEENS5_ISK_EEE5clearEv, symObjAddr: 0x2930, symBinAddr: 0x7AAC, symSize: 0x54 }
  - { offset: 0x2DBBC, size: 0x8, addend: 0x0, symName: __ZN8facebook5react27PerformanceEntryKeyedBuffer5clearERKNSt3__112basic_stringIcNS2_11char_traitsIcEENS2_9allocatorIcEEEE, symObjAddr: 0x2C4, symBinAddr: 0x6284, symSize: 0x8 }
  - { offset: 0x2DC26, size: 0x8, addend: 0x0, symName: __ZNSt3__112__hash_tableINS_17__hash_value_typeINS_12basic_stringIcNS_11char_traitsIcEENS_9allocatorIcEEEENS_6vectorINS_7variantIJN8facebook5react15PerformanceMarkENSB_18PerformanceMeasureENSB_22PerformanceEventTimingENSB_25PerformanceLongTaskTimingENSB_25PerformanceResourceTimingEEEENS5_ISH_EEEEEENS_22__unordered_map_hasherIS7_SK_NS_4hashIS7_EENS_8equal_toIS7_EELb1EEENS_21__unordered_map_equalIS7_SK_SP_SN_Lb1EEENS5_ISK_EEE14__erase_uniqueIS7_EEmRKT_, symObjAddr: 0x2984, symBinAddr: 0x7B00, symSize: 0x34 }
  - { offset: 0x2DF70, size: 0x8, addend: 0x0, symName: __ZNK8facebook5react27PerformanceEntryKeyedBuffer4findERKNSt3__112basic_stringIcNS2_11char_traitsIcEENS2_9allocatorIcEEEE, symObjAddr: 0x2CC, symBinAddr: 0x628C, symSize: 0x54 }
  - { offset: 0x2E41B, size: 0x8, addend: 0x0, symName: __ZN8facebook5react27PerformanceEntryKeyedBufferD1Ev, symObjAddr: 0x320, symBinAddr: 0x62E0, symSize: 0x30 }
  - { offset: 0x2E4C0, size: 0x8, addend: 0x0, symName: __ZNSt3__112__hash_tableINS_17__hash_value_typeINS_12basic_stringIcNS_11char_traitsIcEENS_9allocatorIcEEEENS_6vectorINS_7variantIJN8facebook5react15PerformanceMarkENSB_18PerformanceMeasureENSB_22PerformanceEventTimingENSB_25PerformanceLongTaskTimingENSB_25PerformanceResourceTimingEEEENS5_ISH_EEEEEENS_22__unordered_map_hasherIS7_SK_NS_4hashIS7_EENS_8equal_toIS7_EELb1EEENS_21__unordered_map_equalIS7_SK_SP_SN_Lb1EEENS5_ISK_EEED2Ev, symObjAddr: 0x1BB8, symBinAddr: 0x6D34, symSize: 0x38 }
  - { offset: 0x2E63F, size: 0x8, addend: 0x0, symName: __ZN8facebook5react27PerformanceEntryKeyedBufferD0Ev, symObjAddr: 0x350, symBinAddr: 0x6310, symSize: 0x30 }
  - { offset: 0x2E7F4, size: 0x8, addend: 0x0, symName: '__ZNSt3__116__variant_detail12__visitation6__base12__dispatcherIJLm0EEE10__dispatchB8ne200100IONS1_9__variant15__value_visitorIZN8facebook5react27PerformanceEntryKeyedBuffer3addERKNS_7variantIJNS9_15PerformanceMarkENS9_18PerformanceMeasureENS9_22PerformanceEventTimingENS9_25PerformanceLongTaskTimingENS9_25PerformanceResourceTimingEEEEE3$_0EEJRKNS0_6__baseILNS0_6_TraitE1EJSC_SD_SE_SF_SG_EEEEEEDcT_DpT0_', symObjAddr: 0x3B8, symBinAddr: 0x6340, symSize: 0x2C }
  - { offset: 0x2E8C5, size: 0x8, addend: 0x0, symName: '__ZNSt3__116__variant_detail12__visitation6__base12__dispatcherIJLm0EEE10__dispatchB8ne200100IONS1_9__variant15__value_visitorIZN8facebook5react27PerformanceEntryKeyedBuffer3addERKNS_7variantIJNS9_15PerformanceMarkENS9_18PerformanceMeasureENS9_22PerformanceEventTimingENS9_25PerformanceLongTaskTimingENS9_25PerformanceResourceTimingEEEEE3$_0EEJRKNS0_6__baseILNS0_6_TraitE1EJSC_SD_SE_SF_SG_EEEEEEDcT_DpT0_', symObjAddr: 0x3B8, symBinAddr: 0x6340, symSize: 0x2C }
  - { offset: 0x2E99A, size: 0x8, addend: 0x0, symName: '__ZNSt3__116__variant_detail12__visitation6__base12__dispatcherIJLm1EEE10__dispatchB8ne200100IONS1_9__variant15__value_visitorIZN8facebook5react27PerformanceEntryKeyedBuffer3addERKNS_7variantIJNS9_15PerformanceMarkENS9_18PerformanceMeasureENS9_22PerformanceEventTimingENS9_25PerformanceLongTaskTimingENS9_25PerformanceResourceTimingEEEEE3$_0EEJRKNS0_6__baseILNS0_6_TraitE1EJSC_SD_SE_SF_SG_EEEEEEDcT_DpT0_', symObjAddr: 0x3E4, symBinAddr: 0x636C, symSize: 0x2C }
  - { offset: 0x2EA6B, size: 0x8, addend: 0x0, symName: '__ZNSt3__116__variant_detail12__visitation6__base12__dispatcherIJLm1EEE10__dispatchB8ne200100IONS1_9__variant15__value_visitorIZN8facebook5react27PerformanceEntryKeyedBuffer3addERKNS_7variantIJNS9_15PerformanceMarkENS9_18PerformanceMeasureENS9_22PerformanceEventTimingENS9_25PerformanceLongTaskTimingENS9_25PerformanceResourceTimingEEEEE3$_0EEJRKNS0_6__baseILNS0_6_TraitE1EJSC_SD_SE_SF_SG_EEEEEEDcT_DpT0_', symObjAddr: 0x3E4, symBinAddr: 0x636C, symSize: 0x2C }
  - { offset: 0x2EB40, size: 0x8, addend: 0x0, symName: '__ZNSt3__116__variant_detail12__visitation6__base12__dispatcherIJLm2EEE10__dispatchB8ne200100IONS1_9__variant15__value_visitorIZN8facebook5react27PerformanceEntryKeyedBuffer3addERKNS_7variantIJNS9_15PerformanceMarkENS9_18PerformanceMeasureENS9_22PerformanceEventTimingENS9_25PerformanceLongTaskTimingENS9_25PerformanceResourceTimingEEEEE3$_0EEJRKNS0_6__baseILNS0_6_TraitE1EJSC_SD_SE_SF_SG_EEEEEEDcT_DpT0_', symObjAddr: 0x410, symBinAddr: 0x6398, symSize: 0x2C }
  - { offset: 0x2EC11, size: 0x8, addend: 0x0, symName: '__ZNSt3__116__variant_detail12__visitation6__base12__dispatcherIJLm2EEE10__dispatchB8ne200100IONS1_9__variant15__value_visitorIZN8facebook5react27PerformanceEntryKeyedBuffer3addERKNS_7variantIJNS9_15PerformanceMarkENS9_18PerformanceMeasureENS9_22PerformanceEventTimingENS9_25PerformanceLongTaskTimingENS9_25PerformanceResourceTimingEEEEE3$_0EEJRKNS0_6__baseILNS0_6_TraitE1EJSC_SD_SE_SF_SG_EEEEEEDcT_DpT0_', symObjAddr: 0x410, symBinAddr: 0x6398, symSize: 0x2C }
  - { offset: 0x2ECE6, size: 0x8, addend: 0x0, symName: '__ZNSt3__116__variant_detail12__visitation6__base12__dispatcherIJLm3EEE10__dispatchB8ne200100IONS1_9__variant15__value_visitorIZN8facebook5react27PerformanceEntryKeyedBuffer3addERKNS_7variantIJNS9_15PerformanceMarkENS9_18PerformanceMeasureENS9_22PerformanceEventTimingENS9_25PerformanceLongTaskTimingENS9_25PerformanceResourceTimingEEEEE3$_0EEJRKNS0_6__baseILNS0_6_TraitE1EJSC_SD_SE_SF_SG_EEEEEEDcT_DpT0_', symObjAddr: 0x43C, symBinAddr: 0x63C4, symSize: 0x2C }
  - { offset: 0x2EDB7, size: 0x8, addend: 0x0, symName: '__ZNSt3__116__variant_detail12__visitation6__base12__dispatcherIJLm3EEE10__dispatchB8ne200100IONS1_9__variant15__value_visitorIZN8facebook5react27PerformanceEntryKeyedBuffer3addERKNS_7variantIJNS9_15PerformanceMarkENS9_18PerformanceMeasureENS9_22PerformanceEventTimingENS9_25PerformanceLongTaskTimingENS9_25PerformanceResourceTimingEEEEE3$_0EEJRKNS0_6__baseILNS0_6_TraitE1EJSC_SD_SE_SF_SG_EEEEEEDcT_DpT0_', symObjAddr: 0x43C, symBinAddr: 0x63C4, symSize: 0x2C }
  - { offset: 0x2EE8C, size: 0x8, addend: 0x0, symName: '__ZNSt3__116__variant_detail12__visitation6__base12__dispatcherIJLm4EEE10__dispatchB8ne200100IONS1_9__variant15__value_visitorIZN8facebook5react27PerformanceEntryKeyedBuffer3addERKNS_7variantIJNS9_15PerformanceMarkENS9_18PerformanceMeasureENS9_22PerformanceEventTimingENS9_25PerformanceLongTaskTimingENS9_25PerformanceResourceTimingEEEEE3$_0EEJRKNS0_6__baseILNS0_6_TraitE1EJSC_SD_SE_SF_SG_EEEEEEDcT_DpT0_', symObjAddr: 0x468, symBinAddr: 0x63F0, symSize: 0x2C }
  - { offset: 0x2EF5D, size: 0x8, addend: 0x0, symName: '__ZNSt3__116__variant_detail12__visitation6__base12__dispatcherIJLm4EEE10__dispatchB8ne200100IONS1_9__variant15__value_visitorIZN8facebook5react27PerformanceEntryKeyedBuffer3addERKNS_7variantIJNS9_15PerformanceMarkENS9_18PerformanceMeasureENS9_22PerformanceEventTimingENS9_25PerformanceLongTaskTimingENS9_25PerformanceResourceTimingEEEEE3$_0EEJRKNS0_6__baseILNS0_6_TraitE1EJSC_SD_SE_SF_SG_EEEEEEDcT_DpT0_', symObjAddr: 0x468, symBinAddr: 0x63F0, symSize: 0x2C }
  - { offset: 0x30A18, size: 0x8, addend: 0x0, symName: __ZNSt3__16vectorINS_7variantIJN8facebook5react15PerformanceMarkENS3_18PerformanceMeasureENS3_22PerformanceEventTimingENS3_25PerformanceLongTaskTimingENS3_25PerformanceResourceTimingEEEENS_9allocatorIS9_EEE11__vallocateB8ne200100Em, symObjAddr: 0xCC0, symBinAddr: 0x64A0, symSize: 0x44 }
  - { offset: 0x30A72, size: 0x8, addend: 0x0, symName: __ZNSt3__135__uninitialized_allocator_copy_implB8ne200100INS_9allocatorINS_7variantIJN8facebook5react15PerformanceMarkENS4_18PerformanceMeasureENS4_22PerformanceEventTimingENS4_25PerformanceLongTaskTimingENS4_25PerformanceResourceTimingEEEEEEPKSA_SD_PSA_EET2_RT_T0_T1_SF_, symObjAddr: 0xD04, symBinAddr: 0x64E4, symSize: 0x84 }
  - { offset: 0x30DA1, size: 0x8, addend: 0x0, symName: __ZNSt3__16vectorINS_7variantIJN8facebook5react15PerformanceMarkENS3_18PerformanceMeasureENS3_22PerformanceEventTimingENS3_25PerformanceLongTaskTimingENS3_25PerformanceResourceTimingEEEENS_9allocatorIS9_EEE12__move_rangeEPS9_SD_SD_, symObjAddr: 0x1020, symBinAddr: 0x6790, symSize: 0x8C }
  - { offset: 0x3128D, size: 0x8, addend: 0x0, symName: __ZNSt3__16vectorINS_7variantIJN8facebook5react15PerformanceMarkENS3_18PerformanceMeasureENS3_22PerformanceEventTimingENS3_25PerformanceLongTaskTimingENS3_25PerformanceResourceTimingEEEENS_9allocatorIS9_EEE26__swap_out_circular_bufferERNS_14__split_bufferIS9_RSB_EEPS9_, symObjAddr: 0x10AC, symBinAddr: 0x681C, symSize: 0xB8 }
  - { offset: 0x313F9, size: 0x8, addend: 0x0, symName: __ZNKSt3__120__move_backward_implINS_17_ClassicAlgPolicyEEclB8ne200100IPNS_7variantIJN8facebook5react15PerformanceMarkENS6_18PerformanceMeasureENS6_22PerformanceEventTimingENS6_25PerformanceLongTaskTimingENS6_25PerformanceResourceTimingEEEESD_SD_EENS_4pairIT_T1_EESF_T0_SG_, symObjAddr: 0x1164, symBinAddr: 0x68D4, symSize: 0x6C }
  - { offset: 0x315AC, size: 0x8, addend: 0x0, symName: __ZNSt3__116__variant_detail12__assignmentINS0_8__traitsIJN8facebook5react15PerformanceMarkENS4_18PerformanceMeasureENS4_22PerformanceEventTimingENS4_25PerformanceLongTaskTimingENS4_25PerformanceResourceTimingEEEEE16__generic_assignB8ne200100INS0_17__move_assignmentISA_LNS0_6_TraitE1EEEEEvOT_, symObjAddr: 0x11D0, symBinAddr: 0x6940, symSize: 0x5C }
  - { offset: 0x318D2, size: 0x8, addend: 0x0, symName: __ZNSt3__116__variant_detail12__visitation6__base12__dispatcherIJLm0ELm0EEE10__dispatchB8ne200100IOZNS0_12__assignmentINS0_8__traitsIJN8facebook5react15PerformanceMarkENS9_18PerformanceMeasureENS9_22PerformanceEventTimingENS9_25PerformanceLongTaskTimingENS9_25PerformanceResourceTimingEEEEE16__generic_assignB8ne200100INS0_17__move_assignmentISF_LNS0_6_TraitE1EEEEEvOT_EUlRSL_OT0_E_JRNS0_6__baseILSJ_1EJSA_SB_SC_SD_SE_EEEOST_EEEDcSL_DpT0_, symObjAddr: 0x122C, symBinAddr: 0x699C, symSize: 0x8 }
  - { offset: 0x31996, size: 0x8, addend: 0x0, symName: __ZNSt3__116__variant_detail12__assignmentINS0_8__traitsIJN8facebook5react15PerformanceMarkENS4_18PerformanceMeasureENS4_22PerformanceEventTimingENS4_25PerformanceLongTaskTimingENS4_25PerformanceResourceTimingEEEEE12__assign_altB8ne200100ILm0ES5_S5_EEvRNS0_5__altIXT_ET0_EEOT1_, symObjAddr: 0x1254, symBinAddr: 0x69C4, symSize: 0x90 }
  - { offset: 0x31E36, size: 0x8, addend: 0x0, symName: __ZNSt3__116__variant_detail12__visitation6__base12__dispatcherIJLm1ELm1EEE10__dispatchB8ne200100IOZNS0_12__assignmentINS0_8__traitsIJN8facebook5react15PerformanceMarkENS9_18PerformanceMeasureENS9_22PerformanceEventTimingENS9_25PerformanceLongTaskTimingENS9_25PerformanceResourceTimingEEEEE16__generic_assignB8ne200100INS0_17__move_assignmentISF_LNS0_6_TraitE1EEEEEvOT_EUlRSL_OT0_E_JRNS0_6__baseILSJ_1EJSA_SB_SC_SD_SE_EEEOST_EEEDcSL_DpT0_, symObjAddr: 0x1234, symBinAddr: 0x69A4, symSize: 0x8 }
  - { offset: 0x31EFA, size: 0x8, addend: 0x0, symName: __ZNSt3__116__variant_detail12__assignmentINS0_8__traitsIJN8facebook5react15PerformanceMarkENS4_18PerformanceMeasureENS4_22PerformanceEventTimingENS4_25PerformanceLongTaskTimingENS4_25PerformanceResourceTimingEEEEE12__assign_altB8ne200100ILm1ES6_S6_EEvRNS0_5__altIXT_ET0_EEOT1_, symObjAddr: 0x12E4, symBinAddr: 0x6A54, symSize: 0x98 }
  - { offset: 0x323E4, size: 0x8, addend: 0x0, symName: __ZNSt3__116__variant_detail12__visitation6__base12__dispatcherIJLm2ELm2EEE10__dispatchB8ne200100IOZNS0_12__assignmentINS0_8__traitsIJN8facebook5react15PerformanceMarkENS9_18PerformanceMeasureENS9_22PerformanceEventTimingENS9_25PerformanceLongTaskTimingENS9_25PerformanceResourceTimingEEEEE16__generic_assignB8ne200100INS0_17__move_assignmentISF_LNS0_6_TraitE1EEEEEvOT_EUlRSL_OT0_E_JRNS0_6__baseILSJ_1EJSA_SB_SC_SD_SE_EEEOST_EEEDcSL_DpT0_, symObjAddr: 0x123C, symBinAddr: 0x69AC, symSize: 0x8 }
  - { offset: 0x324A8, size: 0x8, addend: 0x0, symName: __ZNSt3__116__variant_detail12__assignmentINS0_8__traitsIJN8facebook5react15PerformanceMarkENS4_18PerformanceMeasureENS4_22PerformanceEventTimingENS4_25PerformanceLongTaskTimingENS4_25PerformanceResourceTimingEEEEE12__assign_altB8ne200100ILm2ES7_S7_EEvRNS0_5__altIXT_ET0_EEOT1_, symObjAddr: 0x137C, symBinAddr: 0x6AEC, symSize: 0xB8 }
  - { offset: 0x329DC, size: 0x8, addend: 0x0, symName: __ZNSt3__116__variant_detail12__visitation6__base12__dispatcherIJLm3ELm3EEE10__dispatchB8ne200100IOZNS0_12__assignmentINS0_8__traitsIJN8facebook5react15PerformanceMarkENS9_18PerformanceMeasureENS9_22PerformanceEventTimingENS9_25PerformanceLongTaskTimingENS9_25PerformanceResourceTimingEEEEE16__generic_assignB8ne200100INS0_17__move_assignmentISF_LNS0_6_TraitE1EEEEEvOT_EUlRSL_OT0_E_JRNS0_6__baseILSJ_1EJSA_SB_SC_SD_SE_EEEOST_EEEDcSL_DpT0_, symObjAddr: 0x1244, symBinAddr: 0x69B4, symSize: 0x8 }
  - { offset: 0x32AA0, size: 0x8, addend: 0x0, symName: __ZNSt3__116__variant_detail12__assignmentINS0_8__traitsIJN8facebook5react15PerformanceMarkENS4_18PerformanceMeasureENS4_22PerformanceEventTimingENS4_25PerformanceLongTaskTimingENS4_25PerformanceResourceTimingEEEEE12__assign_altB8ne200100ILm3ES8_S8_EEvRNS0_5__altIXT_ET0_EEOT1_, symObjAddr: 0x1434, symBinAddr: 0x6BA4, symSize: 0x98 }
  - { offset: 0x3301E, size: 0x8, addend: 0x0, symName: __ZNSt3__116__variant_detail12__visitation6__base12__dispatcherIJLm4ELm4EEE10__dispatchB8ne200100IOZNS0_12__assignmentINS0_8__traitsIJN8facebook5react15PerformanceMarkENS9_18PerformanceMeasureENS9_22PerformanceEventTimingENS9_25PerformanceLongTaskTimingENS9_25PerformanceResourceTimingEEEEE16__generic_assignB8ne200100INS0_17__move_assignmentISF_LNS0_6_TraitE1EEEEEvOT_EUlRSL_OT0_E_JRNS0_6__baseILSJ_1EJSA_SB_SC_SD_SE_EEEOST_EEEDcSL_DpT0_, symObjAddr: 0x124C, symBinAddr: 0x69BC, symSize: 0x8 }
  - { offset: 0x330E2, size: 0x8, addend: 0x0, symName: __ZNSt3__116__variant_detail12__assignmentINS0_8__traitsIJN8facebook5react15PerformanceMarkENS4_18PerformanceMeasureENS4_22PerformanceEventTimingENS4_25PerformanceLongTaskTimingENS4_25PerformanceResourceTimingEEEEE12__assign_altB8ne200100ILm4ES9_S9_EEvRNS0_5__altIXT_ET0_EEOT1_, symObjAddr: 0x14CC, symBinAddr: 0x6C3C, symSize: 0xF8 }
  - { offset: 0x33C86, size: 0x8, addend: 0x0, symName: __ZNSt3__112__hash_tableINS_17__hash_value_typeINS_12basic_stringIcNS_11char_traitsIcEENS_9allocatorIcEEEENS_6vectorINS_7variantIJN8facebook5react15PerformanceMarkENSB_18PerformanceMeasureENSB_22PerformanceEventTimingENSB_25PerformanceLongTaskTimingENSB_25PerformanceResourceTimingEEEENS5_ISH_EEEEEENS_22__unordered_map_hasherIS7_SK_NS_4hashIS7_EENS_8equal_toIS7_EELb1EEENS_21__unordered_map_equalIS7_SK_SP_SN_Lb1EEENS5_ISK_EEE17__deallocate_nodeEPNS_16__hash_node_baseIPNS_11__hash_nodeISK_PvEEEE, symObjAddr: 0x1BF0, symBinAddr: 0x6D6C, symSize: 0x3C }
  - { offset: 0x33F89, size: 0x8, addend: 0x0, symName: __ZNKSt3__113__string_hashIcNS_9allocatorIcEEEclB8ne200100ERKNS_12basic_stringIcNS_11char_traitsIcEES2_EE, symObjAddr: 0x1D68, symBinAddr: 0x6EE4, symSize: 0x3C }
  - { offset: 0x34061, size: 0x8, addend: 0x0, symName: __ZNKSt3__18equal_toINS_12basic_stringIcNS_11char_traitsIcEENS_9allocatorIcEEEEEclB8ne200100ERKS6_S9_, symObjAddr: 0x2210, symBinAddr: 0x738C, symSize: 0x70 }
  - { offset: 0x340AD, size: 0x8, addend: 0x0, symName: __ZNKSt3__18equal_toINS_12basic_stringIcNS_11char_traitsIcEENS_9allocatorIcEEEEEclB8ne200100ERKS6_S9_, symObjAddr: 0x2210, symBinAddr: 0x738C, symSize: 0x70 }
  - { offset: 0x340E1, size: 0x8, addend: 0x0, symName: __ZNKSt3__18equal_toINS_12basic_stringIcNS_11char_traitsIcEENS_9allocatorIcEEEEEclB8ne200100ERKS6_S9_, symObjAddr: 0x2210, symBinAddr: 0x738C, symSize: 0x70 }
  - { offset: 0x340FE, size: 0x8, addend: 0x0, symName: __ZNKSt3__18equal_toINS_12basic_stringIcNS_11char_traitsIcEENS_9allocatorIcEEEEEclB8ne200100ERKS6_S9_, symObjAddr: 0x2210, symBinAddr: 0x738C, symSize: 0x70 }
  - { offset: 0x34235, size: 0x8, addend: 0x0, symName: __ZNKSt3__121__murmur2_or_cityhashImLm64EEclB8ne200100EPKvm, symObjAddr: 0x1DA4, symBinAddr: 0x6F20, symSize: 0x208 }
  - { offset: 0x348BB, size: 0x8, addend: 0x0, symName: __ZNSt3__121__murmur2_or_cityhashImLm64EE18__hash_len_0_to_16B8ne200100EPKcm, symObjAddr: 0x1FAC, symBinAddr: 0x7128, symSize: 0xF8 }
  - { offset: 0x34ACD, size: 0x8, addend: 0x0, symName: __ZNSt3__121__murmur2_or_cityhashImLm64EE19__hash_len_33_to_64B8ne200100EPKcm, symObjAddr: 0x2150, symBinAddr: 0x72CC, symSize: 0xC0 }
  - { offset: 0x34D3C, size: 0x8, addend: 0x0, symName: __ZNSt3__121__murmur2_or_cityhashImLm64EE19__hash_len_17_to_32B8ne200100EPKcm, symObjAddr: 0x20A4, symBinAddr: 0x7220, symSize: 0xAC }
  - { offset: 0x34FA5, size: 0x8, addend: 0x0, symName: __ZNSt3__112__hash_tableINS_17__hash_value_typeINS_12basic_stringIcNS_11char_traitsIcEENS_9allocatorIcEEEENS_6vectorINS_7variantIJN8facebook5react15PerformanceMarkENSB_18PerformanceMeasureENSB_22PerformanceEventTimingENSB_25PerformanceLongTaskTimingENSB_25PerformanceResourceTimingEEEENS5_ISH_EEEEEENS_22__unordered_map_hasherIS7_SK_NS_4hashIS7_EENS_8equal_toIS7_EELb1EEENS_21__unordered_map_equalIS7_SK_SP_SN_Lb1EEENS5_ISK_EEE21__construct_node_hashIRS7_JSJ_EEENS_10unique_ptrINS_11__hash_nodeISK_PvEENS_22__hash_node_destructorINS5_IS10_EEEEEEmOT_DpOT0_, symObjAddr: 0x24D8, symBinAddr: 0x7654, symSize: 0x7C }
  - { offset: 0x352FF, size: 0x8, addend: 0x0, symName: __ZNSt3__112__hash_tableINS_17__hash_value_typeINS_12basic_stringIcNS_11char_traitsIcEENS_9allocatorIcEEEENS_6vectorINS_7variantIJN8facebook5react15PerformanceMarkENSB_18PerformanceMeasureENSB_22PerformanceEventTimingENSB_25PerformanceLongTaskTimingENSB_25PerformanceResourceTimingEEEENS5_ISH_EEEEEENS_22__unordered_map_hasherIS7_SK_NS_4hashIS7_EENS_8equal_toIS7_EELb1EEENS_21__unordered_map_equalIS7_SK_SP_SN_Lb1EEENS5_ISK_EEE8__rehashILb1EEEvm, symObjAddr: 0x25C4, symBinAddr: 0x7740, symSize: 0xDC }
  - { offset: 0x353FE, size: 0x8, addend: 0x0, symName: __ZNSt3__110unique_ptrINS_11__hash_nodeINS_17__hash_value_typeINS_12basic_stringIcNS_11char_traitsIcEENS_9allocatorIcEEEENS_6vectorINS_7variantIJN8facebook5react15PerformanceMarkENSC_18PerformanceMeasureENSC_22PerformanceEventTimingENSC_25PerformanceLongTaskTimingENSC_25PerformanceResourceTimingEEEENS6_ISI_EEEEEEPvEENS_22__hash_node_destructorINS6_ISN_EEEEE5resetB8ne200100EPSN_, symObjAddr: 0x27F0, symBinAddr: 0x796C, symSize: 0x48 }
  - { offset: 0x35786, size: 0x8, addend: 0x0, symName: __ZNSt3__14pairIKNS_12basic_stringIcNS_11char_traitsIcEENS_9allocatorIcEEEENS_6vectorINS_7variantIJN8facebook5react15PerformanceMarkENSB_18PerformanceMeasureENSB_22PerformanceEventTimingENSB_25PerformanceLongTaskTimingENSB_25PerformanceResourceTimingEEEENS4_ISH_EEEEEC2B8ne200100IRS6_SJ_Li0EEEOT_OT0_, symObjAddr: 0x2554, symBinAddr: 0x76D0, symSize: 0x70 }
  - { offset: 0x35927, size: 0x8, addend: 0x0, symName: __ZNSt3__112__hash_tableINS_17__hash_value_typeINS_12basic_stringIcNS_11char_traitsIcEENS_9allocatorIcEEEENS_6vectorINS_7variantIJN8facebook5react15PerformanceMarkENSB_18PerformanceMeasureENSB_22PerformanceEventTimingENSB_25PerformanceLongTaskTimingENSB_25PerformanceResourceTimingEEEENS5_ISH_EEEEEENS_22__unordered_map_hasherIS7_SK_NS_4hashIS7_EENS_8equal_toIS7_EELb1EEENS_21__unordered_map_equalIS7_SK_SP_SN_Lb1EEENS5_ISK_EEE11__do_rehashILb1EEEvm, symObjAddr: 0x26A0, symBinAddr: 0x781C, symSize: 0x150 }
  - { offset: 0x35D4F, size: 0x8, addend: 0x0, symName: __ZNSt3__110unique_ptrINS_11__hash_nodeINS_17__hash_value_typeINS_12basic_stringIcNS_11char_traitsIcEENS_9allocatorIcEEEENS_6vectorINS_7variantIJN8facebook5react15PerformanceMarkENSC_18PerformanceMeasureENSC_22PerformanceEventTimingENSC_25PerformanceLongTaskTimingENSC_25PerformanceResourceTimingEEEENS6_ISI_EEEEEEPvEENS_22__hash_node_destructorINS6_ISN_EEEEE5resetB8ne200100EPSN_, symObjAddr: 0x27F0, symBinAddr: 0x796C, symSize: 0x48 }
  - { offset: 0x35E0F, size: 0x8, addend: 0x0, symName: __ZNSt3__112__hash_tableINS_17__hash_value_typeINS_12basic_stringIcNS_11char_traitsIcEENS_9allocatorIcEEEENS_6vectorINS_7variantIJN8facebook5react15PerformanceMarkENSB_18PerformanceMeasureENSB_22PerformanceEventTimingENSB_25PerformanceLongTaskTimingENSB_25PerformanceResourceTimingEEEENS5_ISH_EEEEEENS_22__unordered_map_hasherIS7_SK_NS_4hashIS7_EENS_8equal_toIS7_EELb1EEENS_21__unordered_map_equalIS7_SK_SP_SN_Lb1EEENS5_ISK_EEE5eraseENS_21__hash_const_iteratorIPNS_11__hash_nodeISK_PvEEEE, symObjAddr: 0x29B8, symBinAddr: 0x7B34, symSize: 0x58 }
  - { offset: 0x36073, size: 0x8, addend: 0x0, symName: __ZNSt3__112__hash_tableINS_17__hash_value_typeINS_12basic_stringIcNS_11char_traitsIcEENS_9allocatorIcEEEENS_6vectorINS_7variantIJN8facebook5react15PerformanceMarkENSB_18PerformanceMeasureENSB_22PerformanceEventTimingENSB_25PerformanceLongTaskTimingENSB_25PerformanceResourceTimingEEEENS5_ISH_EEEEEENS_22__unordered_map_hasherIS7_SK_NS_4hashIS7_EENS_8equal_toIS7_EELb1EEENS_21__unordered_map_equalIS7_SK_SP_SN_Lb1EEENS5_ISK_EEE6removeENS_21__hash_const_iteratorIPNS_11__hash_nodeISK_PvEEEE, symObjAddr: 0x2A10, symBinAddr: 0x7B8C, symSize: 0x13C }
  - { offset: 0x360EE, size: 0x8, addend: 0x0, symName: __ZNSt3__112__hash_tableINS_17__hash_value_typeINS_12basic_stringIcNS_11char_traitsIcEENS_9allocatorIcEEEENS_6vectorINS_7variantIJN8facebook5react15PerformanceMarkENSB_18PerformanceMeasureENSB_22PerformanceEventTimingENSB_25PerformanceLongTaskTimingENSB_25PerformanceResourceTimingEEEENS5_ISH_EEEEEENS_22__unordered_map_hasherIS7_SK_NS_4hashIS7_EENS_8equal_toIS7_EELb1EEENS_21__unordered_map_equalIS7_SK_SP_SN_Lb1EEENS5_ISK_EEE6removeENS_21__hash_const_iteratorIPNS_11__hash_nodeISK_PvEEEE, symObjAddr: 0x2A10, symBinAddr: 0x7B8C, symSize: 0x13C }
  - { offset: 0x3610B, size: 0x8, addend: 0x0, symName: __ZNSt3__112__hash_tableINS_17__hash_value_typeINS_12basic_stringIcNS_11char_traitsIcEENS_9allocatorIcEEEENS_6vectorINS_7variantIJN8facebook5react15PerformanceMarkENSB_18PerformanceMeasureENSB_22PerformanceEventTimingENSB_25PerformanceLongTaskTimingENSB_25PerformanceResourceTimingEEEENS5_ISH_EEEEEENS_22__unordered_map_hasherIS7_SK_NS_4hashIS7_EENS_8equal_toIS7_EELb1EEENS_21__unordered_map_equalIS7_SK_SP_SN_Lb1EEENS5_ISK_EEE6removeENS_21__hash_const_iteratorIPNS_11__hash_nodeISK_PvEEEE, symObjAddr: 0x2A10, symBinAddr: 0x7B8C, symSize: 0x13C }
  - { offset: 0x39086, size: 0x8, addend: 0x0, symName: __ZN8facebook5react12_GLOBAL__N_112TRACK_PREFIXE, symObjAddr: 0x3920, symBinAddr: 0xBAD0, symSize: 0x0 }
  - { offset: 0x39094, size: 0x8, addend: 0x0, symName: __ZN8facebook5react12_GLOBAL__N_130getSupportedEntryTypesInternalEv, symObjAddr: 0x310, symBinAddr: 0x7FD8, symSize: 0x190 }
  - { offset: 0x3953B, size: 0x8, addend: 0x0, symName: __ZN8facebook5react12_GLOBAL__N_114parseTrackNameERKNSt3__112basic_stringIcNS2_11char_traitsIcEENS2_9allocatorIcEEEE, symObjAddr: 0x17B4, symBinAddr: 0x946C, symSize: 0x15C }
  - { offset: 0x475BC, size: 0x8, addend: 0x0, symName: __ZNSt3__119piecewise_constructE, symObjAddr: 0x3997, symBinAddr: 0xBB47, symSize: 0x0 }
  - { offset: 0x4F180, size: 0x8, addend: 0x0, symName: __ZNSt3__115allocate_sharedB8ne200100IN8facebook5react24PerformanceEntryReporterENS_9allocatorIS3_EEJELi0EEENS_10shared_ptrIT_EERKT0_DpOT1_, symObjAddr: 0x23F0, symBinAddr: 0x9A8C, symSize: 0x48 }
  - { offset: 0x4F607, size: 0x8, addend: 0x0, symName: __ZNSt3__119__allocate_at_leastB8ne200100INS_9allocatorIN8facebook5react20PerformanceEntryTypeEEEEENS_19__allocation_resultINS_16allocator_traitsIT_E7pointerEEERS8_m, symObjAddr: 0x1EE8, symBinAddr: 0x96C0, symSize: 0x34 }
  - { offset: 0x4F6B4, size: 0x8, addend: 0x0, symName: __ZNSt3__16vectorIN8facebook5react20PerformanceEntryTypeENS_9allocatorIS3_EEE16__init_with_sizeB8ne200100IPS3_S8_EEvT_T0_m, symObjAddr: 0x1F1C, symBinAddr: 0x96F4, symSize: 0x78 }
  - { offset: 0x554E5, size: 0x8, addend: 0x0, symName: __ZNSt3__120__throw_out_of_rangeB8ne200100EPKc, symObjAddr: 0x22D4, symBinAddr: 0x9970, symSize: 0x50 }
  - { offset: 0x594D0, size: 0x8, addend: 0x0, symName: __ZN8facebook5react24PerformanceEntryReporter11getInstanceEv, symObjAddr: 0x0, symBinAddr: 0x7CC8, symSize: 0x9C }
  - { offset: 0x594F2, size: 0x8, addend: 0x0, symName: __ZZN8facebook5react24PerformanceEntryReporter11getInstanceEvE8instance, symObjAddr: 0x11CDD0, symBinAddr: 0x140E0, symSize: 0x0 }
  - { offset: 0x59528, size: 0x8, addend: 0x0, symName: __ZN8facebook5react24PerformanceEntryReporter22getSupportedEntryTypesEv, symObjAddr: 0x26C, symBinAddr: 0x7F34, symSize: 0xA4 }
  - { offset: 0x5954A, size: 0x8, addend: 0x0, symName: __ZZN8facebook5react24PerformanceEntryReporter22getSupportedEntryTypesEvE16supportedEntries, symObjAddr: 0x11CDE8, symBinAddr: 0x140F8, symSize: 0x0 }
  - { offset: 0x5D87A, size: 0x8, addend: 0x0, symName: __ZNK8facebook5react24PerformanceEntryReporter11getMarkTimeERKNSt3__112basic_stringIcNS2_11char_traitsIcEENS2_9allocatorIcEEEE, symObjAddr: 0x11C0, symBinAddr: 0x8E78, symSize: 0x114 }
  - { offset: 0x5E1DB, size: 0x8, addend: 0x0, symName: __ZNSt3__110shared_ptrIN8facebook5react24PerformanceEntryReporterEED1B8ne200100Ev, symObjAddr: 0x9C, symBinAddr: 0x7D64, symSize: 0x4 }
  - { offset: 0x5E207, size: 0x8, addend: 0x0, symName: __ZNSt3__110shared_ptrIN8facebook5react24PerformanceEntryReporterEED1B8ne200100Ev, symObjAddr: 0x9C, symBinAddr: 0x7D64, symSize: 0x4 }
  - { offset: 0x5E21B, size: 0x8, addend: 0x0, symName: __ZNSt3__110shared_ptrIN8facebook5react24PerformanceEntryReporterEED2B8ne200100Ev, symObjAddr: 0x26F0, symBinAddr: 0x9CD4, symSize: 0x58 }
  - { offset: 0x5E85D, size: 0x8, addend: 0x0, symName: __ZN8facebook5react24PerformanceEntryReporterC2Ev, symObjAddr: 0xA0, symBinAddr: 0x7D68, symSize: 0x180 }
  - { offset: 0x5F247, size: 0x8, addend: 0x0, symName: __ZN8facebook5react14CircularBufferINSt3__17variantIJNS0_15PerformanceMarkENS0_18PerformanceMeasureENS0_22PerformanceEventTimingENS0_25PerformanceLongTaskTimingENS0_25PerformanceResourceTimingEEEEEC2Em, symObjAddr: 0x1910, symBinAddr: 0x95C8, symSize: 0x50 }
  - { offset: 0x5F50C, size: 0x8, addend: 0x0, symName: __ZNSt3__112shared_mutexD1B8ne200100Ev, symObjAddr: 0x220, symBinAddr: 0x7EE8, symSize: 0x30 }
  - { offset: 0x5F58C, size: 0x8, addend: 0x0, symName: __ZNKSt3__114default_deleteIN8facebook5react27PerformanceObserverRegistryEEclB8ne200100EPS3_, symObjAddr: 0x2748, symBinAddr: 0x9D2C, symSize: 0x38 }
  - { offset: 0x5F6B7, size: 0x8, addend: 0x0, symName: __ZN8facebook5react24PerformanceEntryReporterC1Ev, symObjAddr: 0x250, symBinAddr: 0x7F18, symSize: 0x4 }
  - { offset: 0x5F6DA, size: 0x8, addend: 0x0, symName: __ZN8facebook5react24PerformanceEntryReporterC1Ev, symObjAddr: 0x250, symBinAddr: 0x7F18, symSize: 0x4 }
  - { offset: 0x5F75B, size: 0x8, addend: 0x0, symName: __ZNK8facebook5react24PerformanceEntryReporter19getCurrentTimeStampEv, symObjAddr: 0x254, symBinAddr: 0x7F1C, symSize: 0x18 }
  - { offset: 0x5F780, size: 0x8, addend: 0x0, symName: __ZNK8facebook5react24PerformanceEntryReporter19getCurrentTimeStampEv, symObjAddr: 0x254, symBinAddr: 0x7F1C, symSize: 0x18 }
  - { offset: 0x5F7A6, size: 0x8, addend: 0x0, symName: __ZNK8facebook5react24PerformanceEntryReporter19getCurrentTimeStampEv, symObjAddr: 0x254, symBinAddr: 0x7F1C, symSize: 0x18 }
  - { offset: 0x5F7C6, size: 0x8, addend: 0x0, symName: __ZNK8facebook5react24PerformanceEntryReporter19getCurrentTimeStampEv, symObjAddr: 0x254, symBinAddr: 0x7F1C, symSize: 0x18 }
  - { offset: 0x5F8A2, size: 0x8, addend: 0x0, symName: __ZNSt3__16vectorIN8facebook5react20PerformanceEntryTypeENS_9allocatorIS3_EEE16__init_with_sizeB8ne200100IPS3_S8_EEvT_T0_m, symObjAddr: 0x1F1C, symBinAddr: 0x96F4, symSize: 0x78 }
  - { offset: 0x6004E, size: 0x8, addend: 0x0, symName: __ZNSt3__16vectorIN8facebook5react20PerformanceEntryTypeENS_9allocatorIS3_EEE16__init_with_sizeB8ne200100IPKS3_S9_EEvT_T0_m, symObjAddr: 0x1E2C, symBinAddr: 0x9618, symSize: 0x70 }
  - { offset: 0x60375, size: 0x8, addend: 0x0, symName: __ZNSt3__119__allocate_at_leastB8ne200100INS_9allocatorIN8facebook5react20PerformanceEntryTypeEEEEENS_19__allocation_resultINS_16allocator_traitsIT_E7pointerEEERS8_m, symObjAddr: 0x1EE8, symBinAddr: 0x96C0, symSize: 0x34 }
  - { offset: 0x60380, size: 0x8, addend: 0x0, symName: __ZNSt3__16vectorIN8facebook5react20PerformanceEntryTypeENS_9allocatorIS3_EEED1B8ne200100Ev, symObjAddr: 0x4A0, symBinAddr: 0x8168, symSize: 0x30 }
  - { offset: 0x60584, size: 0x8, addend: 0x0, symName: __ZNK8facebook5react24PerformanceEntryReporter22getDroppedEntriesCountENS0_20PerformanceEntryTypeE, symObjAddr: 0x4D0, symBinAddr: 0x8198, symSize: 0x4C }
  - { offset: 0x6065F, size: 0x8, addend: 0x0, symName: __ZNK8facebook5react24PerformanceEntryReporter9getBufferENS0_20PerformanceEntryTypeE, symObjAddr: 0x52C, symBinAddr: 0x81E4, symSize: 0xDC }
  - { offset: 0x606CA, size: 0x8, addend: 0x0, symName: __ZNK8facebook5react24PerformanceEntryReporter10getEntriesEv, symObjAddr: 0x608, symBinAddr: 0x82C0, symSize: 0x4C }
  - { offset: 0x607F6, size: 0x8, addend: 0x0, symName: __ZNK8facebook5react24PerformanceEntryReporter10getEntriesERNSt3__16vectorINS2_7variantIJNS0_15PerformanceMarkENS0_18PerformanceMeasureENS0_22PerformanceEventTimingENS0_25PerformanceLongTaskTimingENS0_25PerformanceResourceTimingEEEENS2_9allocatorISA_EEEE, symObjAddr: 0x654, symBinAddr: 0x830C, symSize: 0xD8 }
  - { offset: 0x60C6C, size: 0x8, addend: 0x0, symName: __ZNSt3__111shared_lockINS_12shared_mutexEED2B8ne200100Ev, symObjAddr: 0x2820, symBinAddr: 0x9DAC, symSize: 0x38 }
  - { offset: 0x60CAD, size: 0x8, addend: 0x0, symName: __ZNK8facebook5react24PerformanceEntryReporter10getEntriesENS0_20PerformanceEntryTypeE, symObjAddr: 0x72C, symBinAddr: 0x83E4, symSize: 0x50 }
  - { offset: 0x60DF1, size: 0x8, addend: 0x0, symName: __ZNK8facebook5react24PerformanceEntryReporter10getEntriesERNSt3__16vectorINS2_7variantIJNS0_15PerformanceMarkENS0_18PerformanceMeasureENS0_22PerformanceEventTimingENS0_25PerformanceLongTaskTimingENS0_25PerformanceResourceTimingEEEENS2_9allocatorISA_EEEENS0_20PerformanceEntryTypeE, symObjAddr: 0x77C, symBinAddr: 0x8434, symSize: 0x88 }
  - { offset: 0x60F61, size: 0x8, addend: 0x0, symName: __ZNK8facebook5react24PerformanceEntryReporter10getEntriesENS0_20PerformanceEntryTypeERKNSt3__112basic_stringIcNS3_11char_traitsIcEENS3_9allocatorIcEEEE, symObjAddr: 0x804, symBinAddr: 0x84BC, symSize: 0x54 }
  - { offset: 0x610BD, size: 0x8, addend: 0x0, symName: __ZNK8facebook5react24PerformanceEntryReporter10getEntriesERNSt3__16vectorINS2_7variantIJNS0_15PerformanceMarkENS0_18PerformanceMeasureENS0_22PerformanceEventTimingENS0_25PerformanceLongTaskTimingENS0_25PerformanceResourceTimingEEEENS2_9allocatorISA_EEEENS0_20PerformanceEntryTypeERKNS2_12basic_stringIcNS2_11char_traitsIcEENSB_IcEEEE, symObjAddr: 0x858, symBinAddr: 0x8510, symSize: 0x98 }
  - { offset: 0x61324, size: 0x8, addend: 0x0, symName: __ZN8facebook5react24PerformanceEntryReporter12clearEntriesEv, symObjAddr: 0x8F0, symBinAddr: 0x85A8, symSize: 0xC8 }
  - { offset: 0x61749, size: 0x8, addend: 0x0, symName: __ZN8facebook5react24PerformanceEntryReporter12getBufferRefENS0_20PerformanceEntryTypeE, symObjAddr: 0x9B8, symBinAddr: 0x8670, symSize: 0xDC }
  - { offset: 0x61780, size: 0x8, addend: 0x0, symName: __ZNSt3__111unique_lockINS_12shared_mutexEED2B8ne200100Ev, symObjAddr: 0x2858, symBinAddr: 0x9DE4, symSize: 0x38 }
  - { offset: 0x617BF, size: 0x8, addend: 0x0, symName: __ZN8facebook5react24PerformanceEntryReporter12clearEntriesENS0_20PerformanceEntryTypeE, symObjAddr: 0xA94, symBinAddr: 0x874C, symSize: 0x80 }
  - { offset: 0x61910, size: 0x8, addend: 0x0, symName: __ZN8facebook5react24PerformanceEntryReporter12clearEntriesENS0_20PerformanceEntryTypeERKNSt3__112basic_stringIcNS3_11char_traitsIcEENS3_9allocatorIcEEEE, symObjAddr: 0xB14, symBinAddr: 0x87CC, symSize: 0x88 }
  - { offset: 0x621AF, size: 0x8, addend: 0x0, symName: __ZN8facebook5react24PerformanceEntryReporter10reportMarkERKNSt3__112basic_stringIcNS2_11char_traitsIcEENS2_9allocatorIcEEEERKNS2_8optionalINS0_16HighResTimeStampEEE, symObjAddr: 0xB9C, symBinAddr: 0x8854, symSize: 0x1B8 }
  - { offset: 0x6338D, size: 0x8, addend: 0x0, symName: __ZNK8facebook5react24PerformanceEntryReporter9traceMarkERKNS0_15PerformanceMarkE, symObjAddr: 0xD54, symBinAddr: 0x8A0C, symSize: 0x130 }
  - { offset: 0x64FAB, size: 0x8, addend: 0x0, symName: __ZN8facebook5react24PerformanceEntryReporter13reportMeasureERKNSt3__112basic_stringIcNS2_11char_traitsIcEENS2_9allocatorIcEEEENS0_16HighResTimeStampESB_RKNS2_8optionalINS0_18jsinspector_modern25DevToolsTrackEntryPayloadEEE, symObjAddr: 0xE84, symBinAddr: 0x8B3C, symSize: 0x194 }
  - { offset: 0x66027, size: 0x8, addend: 0x0, symName: __ZNK8facebook5react24PerformanceEntryReporter12traceMeasureERKNS0_18PerformanceMeasureE, symObjAddr: 0x1018, symBinAddr: 0x8CD0, symSize: 0x1A8 }
  - { offset: 0x67C25, size: 0x8, addend: 0x0, symName: __ZN8facebook5react24PerformanceEntryReporter11reportEventENSt3__112basic_stringIcNS2_11char_traitsIcEENS2_9allocatorIcEEEENS0_16HighResTimeStampENS0_15HighResDurationES9_S9_j, symObjAddr: 0x12D4, symBinAddr: 0x8F8C, symSize: 0x1EC }
  - { offset: 0x68CC2, size: 0x8, addend: 0x0, symName: __ZNSt3__112__hash_tableINS_17__hash_value_typeINS_12basic_stringIcNS_11char_traitsIcEENS_9allocatorIcEEEEjEENS_22__unordered_map_hasherIS7_S8_NS_4hashIS7_EENS_8equal_toIS7_EELb1EEENS_21__unordered_map_equalIS7_S8_SD_SB_Lb1EEENS5_IS8_EEE25__emplace_unique_key_argsIS7_JRKNS_21piecewise_construct_tENS_5tupleIJRKS7_EEENSN_IJEEEEEENS_4pairINS_15__hash_iteratorIPNS_11__hash_nodeIS8_PvEEEEbEERKT_DpOT0_, symObjAddr: 0x2890, symBinAddr: 0x9E1C, symSize: 0x274 }
  - { offset: 0x69797, size: 0x8, addend: 0x0, symName: __ZN8facebook5react24PerformanceEntryReporter14reportLongTaskENS0_16HighResTimeStampENS0_15HighResDurationE, symObjAddr: 0x14C0, symBinAddr: 0x9178, symSize: 0x16C }
  - { offset: 0x6AACF, size: 0x8, addend: 0x0, symName: __ZNSt3__112basic_stringIcNS_11char_traitsIcEENS_9allocatorIcEEEC2B8ne200100ILi0EEEPKc, symObjAddr: 0x20F8, symBinAddr: 0x9794, symSize: 0xA4 }
  - { offset: 0x6AD40, size: 0x8, addend: 0x0, symName: __ZNSt3__116__variant_detail6__baseILNS0_6_TraitE1EJN8facebook5react15PerformanceMarkENS4_18PerformanceMeasureENS4_22PerformanceEventTimingENS4_25PerformanceLongTaskTimingENS4_25PerformanceResourceTimingEEEC2B8ne200100ILm4EJRKS9_EEENS_16in_place_index_tIXT_EEEDpOT0_, symObjAddr: 0x219C, symBinAddr: 0x9838, symSize: 0x8C }
  - { offset: 0x6B162, size: 0x8, addend: 0x0, symName: __ZN8facebook5react24PerformanceEntryReporter20reportResourceTimingERKNSt3__112basic_stringIcNS2_11char_traitsIcEENS2_9allocatorIcEEEENS0_16HighResTimeStampESB_NS2_8optionalISB_EESD_SB_SB_RKNSC_IiEE, symObjAddr: 0x162C, symBinAddr: 0x92E4, symSize: 0x188 }
  - { offset: 0x6C09A, size: 0x8, addend: 0x0, symName: __ZNSt3__116__variant_detail6__baseILNS0_6_TraitE1EJN8facebook5react15PerformanceMarkENS4_18PerformanceMeasureENS4_22PerformanceEventTimingENS4_25PerformanceLongTaskTimingENS4_25PerformanceResourceTimingEEEC2B8ne200100ILm4EJRKS9_EEENS_16in_place_index_tIXT_EEEDpOT0_, symObjAddr: 0x219C, symBinAddr: 0x9838, symSize: 0x8C }
  - { offset: 0x6C915, size: 0x8, addend: 0x0, symName: __ZNKSt3__117basic_string_viewIcNS_11char_traitsIcEEE11starts_withB8ne200100ES3_, symObjAddr: 0x2228, symBinAddr: 0x98C4, symSize: 0x40 }
  - { offset: 0x6C980, size: 0x8, addend: 0x0, symName: __ZNSt3__120__optional_copy_baseINS_12basic_stringIcNS_11char_traitsIcEENS_9allocatorIcEEEELb0EEC2B8ne200100ERKS7_, symObjAddr: 0x2348, symBinAddr: 0x99E4, symSize: 0x4C }
  - { offset: 0x6D825, size: 0x8, addend: 0x0, symName: __ZNSt3__16vectorIN8facebook5react20PerformanceEntryTypeENS_9allocatorIS3_EEE11__vallocateB8ne200100Em, symObjAddr: 0x1E9C, symBinAddr: 0x9688, symSize: 0x38 }
  - { offset: 0x6DBAE, size: 0x8, addend: 0x0, symName: '__ZNSt3__116__variant_detail12__visitation6__base12__dispatcherIJLm0EEE10__dispatchB8ne200100IONS1_9__variant15__value_visitorIZNK8facebook5react24PerformanceEntryReporter11getMarkTimeERKNS_12basic_stringIcNS_11char_traitsIcEENS_9allocatorIcEEEEE3$_0EEJRNS0_6__baseILNS0_6_TraitE1EJNS9_15PerformanceMarkENS9_18PerformanceMeasureENS9_22PerformanceEventTimingENS9_25PerformanceLongTaskTimingENS9_25PerformanceResourceTimingEEEEEEEDcT_DpT0_', symObjAddr: 0x20D0, symBinAddr: 0x976C, symSize: 0x8 }
  - { offset: 0x6DBE2, size: 0x8, addend: 0x0, symName: '__ZNSt3__116__variant_detail12__visitation6__base12__dispatcherIJLm0EEE10__dispatchB8ne200100IONS1_9__variant15__value_visitorIZNK8facebook5react24PerformanceEntryReporter11getMarkTimeERKNS_12basic_stringIcNS_11char_traitsIcEENS_9allocatorIcEEEEE3$_0EEJRNS0_6__baseILNS0_6_TraitE1EJNS9_15PerformanceMarkENS9_18PerformanceMeasureENS9_22PerformanceEventTimingENS9_25PerformanceLongTaskTimingENS9_25PerformanceResourceTimingEEEEEEEDcT_DpT0_', symObjAddr: 0x20D0, symBinAddr: 0x976C, symSize: 0x8 }
  - { offset: 0x6DBFE, size: 0x8, addend: 0x0, symName: '__ZNSt3__116__variant_detail12__visitation6__base12__dispatcherIJLm0EEE10__dispatchB8ne200100IONS1_9__variant15__value_visitorIZNK8facebook5react24PerformanceEntryReporter11getMarkTimeERKNS_12basic_stringIcNS_11char_traitsIcEENS_9allocatorIcEEEEE3$_0EEJRNS0_6__baseILNS0_6_TraitE1EJNS9_15PerformanceMarkENS9_18PerformanceMeasureENS9_22PerformanceEventTimingENS9_25PerformanceLongTaskTimingENS9_25PerformanceResourceTimingEEEEEEEDcT_DpT0_', symObjAddr: 0x20D0, symBinAddr: 0x976C, symSize: 0x8 }
  - { offset: 0x6DC1A, size: 0x8, addend: 0x0, symName: '__ZNSt3__116__variant_detail12__visitation6__base12__dispatcherIJLm0EEE10__dispatchB8ne200100IONS1_9__variant15__value_visitorIZNK8facebook5react24PerformanceEntryReporter11getMarkTimeERKNS_12basic_stringIcNS_11char_traitsIcEENS_9allocatorIcEEEEE3$_0EEJRNS0_6__baseILNS0_6_TraitE1EJNS9_15PerformanceMarkENS9_18PerformanceMeasureENS9_22PerformanceEventTimingENS9_25PerformanceLongTaskTimingENS9_25PerformanceResourceTimingEEEEEEEDcT_DpT0_', symObjAddr: 0x20D0, symBinAddr: 0x976C, symSize: 0x8 }
  - { offset: 0x6DC36, size: 0x8, addend: 0x0, symName: '__ZNSt3__116__variant_detail12__visitation6__base12__dispatcherIJLm0EEE10__dispatchB8ne200100IONS1_9__variant15__value_visitorIZNK8facebook5react24PerformanceEntryReporter11getMarkTimeERKNS_12basic_stringIcNS_11char_traitsIcEENS_9allocatorIcEEEEE3$_0EEJRNS0_6__baseILNS0_6_TraitE1EJNS9_15PerformanceMarkENS9_18PerformanceMeasureENS9_22PerformanceEventTimingENS9_25PerformanceLongTaskTimingENS9_25PerformanceResourceTimingEEEEEEEDcT_DpT0_', symObjAddr: 0x20D0, symBinAddr: 0x976C, symSize: 0x8 }
  - { offset: 0x6DCC9, size: 0x8, addend: 0x0, symName: '__ZNSt3__116__variant_detail12__visitation6__base12__dispatcherIJLm1EEE10__dispatchB8ne200100IONS1_9__variant15__value_visitorIZNK8facebook5react24PerformanceEntryReporter11getMarkTimeERKNS_12basic_stringIcNS_11char_traitsIcEENS_9allocatorIcEEEEE3$_0EEJRNS0_6__baseILNS0_6_TraitE1EJNS9_15PerformanceMarkENS9_18PerformanceMeasureENS9_22PerformanceEventTimingENS9_25PerformanceLongTaskTimingENS9_25PerformanceResourceTimingEEEEEEEDcT_DpT0_', symObjAddr: 0x20D8, symBinAddr: 0x9774, symSize: 0x8 }
  - { offset: 0x6DCFD, size: 0x8, addend: 0x0, symName: '__ZNSt3__116__variant_detail12__visitation6__base12__dispatcherIJLm1EEE10__dispatchB8ne200100IONS1_9__variant15__value_visitorIZNK8facebook5react24PerformanceEntryReporter11getMarkTimeERKNS_12basic_stringIcNS_11char_traitsIcEENS_9allocatorIcEEEEE3$_0EEJRNS0_6__baseILNS0_6_TraitE1EJNS9_15PerformanceMarkENS9_18PerformanceMeasureENS9_22PerformanceEventTimingENS9_25PerformanceLongTaskTimingENS9_25PerformanceResourceTimingEEEEEEEDcT_DpT0_', symObjAddr: 0x20D8, symBinAddr: 0x9774, symSize: 0x8 }
  - { offset: 0x6DD19, size: 0x8, addend: 0x0, symName: '__ZNSt3__116__variant_detail12__visitation6__base12__dispatcherIJLm1EEE10__dispatchB8ne200100IONS1_9__variant15__value_visitorIZNK8facebook5react24PerformanceEntryReporter11getMarkTimeERKNS_12basic_stringIcNS_11char_traitsIcEENS_9allocatorIcEEEEE3$_0EEJRNS0_6__baseILNS0_6_TraitE1EJNS9_15PerformanceMarkENS9_18PerformanceMeasureENS9_22PerformanceEventTimingENS9_25PerformanceLongTaskTimingENS9_25PerformanceResourceTimingEEEEEEEDcT_DpT0_', symObjAddr: 0x20D8, symBinAddr: 0x9774, symSize: 0x8 }
  - { offset: 0x6DD35, size: 0x8, addend: 0x0, symName: '__ZNSt3__116__variant_detail12__visitation6__base12__dispatcherIJLm1EEE10__dispatchB8ne200100IONS1_9__variant15__value_visitorIZNK8facebook5react24PerformanceEntryReporter11getMarkTimeERKNS_12basic_stringIcNS_11char_traitsIcEENS_9allocatorIcEEEEE3$_0EEJRNS0_6__baseILNS0_6_TraitE1EJNS9_15PerformanceMarkENS9_18PerformanceMeasureENS9_22PerformanceEventTimingENS9_25PerformanceLongTaskTimingENS9_25PerformanceResourceTimingEEEEEEEDcT_DpT0_', symObjAddr: 0x20D8, symBinAddr: 0x9774, symSize: 0x8 }
  - { offset: 0x6DD51, size: 0x8, addend: 0x0, symName: '__ZNSt3__116__variant_detail12__visitation6__base12__dispatcherIJLm1EEE10__dispatchB8ne200100IONS1_9__variant15__value_visitorIZNK8facebook5react24PerformanceEntryReporter11getMarkTimeERKNS_12basic_stringIcNS_11char_traitsIcEENS_9allocatorIcEEEEE3$_0EEJRNS0_6__baseILNS0_6_TraitE1EJNS9_15PerformanceMarkENS9_18PerformanceMeasureENS9_22PerformanceEventTimingENS9_25PerformanceLongTaskTimingENS9_25PerformanceResourceTimingEEEEEEEDcT_DpT0_', symObjAddr: 0x20D8, symBinAddr: 0x9774, symSize: 0x8 }
  - { offset: 0x6DDE4, size: 0x8, addend: 0x0, symName: '__ZNSt3__116__variant_detail12__visitation6__base12__dispatcherIJLm2EEE10__dispatchB8ne200100IONS1_9__variant15__value_visitorIZNK8facebook5react24PerformanceEntryReporter11getMarkTimeERKNS_12basic_stringIcNS_11char_traitsIcEENS_9allocatorIcEEEEE3$_0EEJRNS0_6__baseILNS0_6_TraitE1EJNS9_15PerformanceMarkENS9_18PerformanceMeasureENS9_22PerformanceEventTimingENS9_25PerformanceLongTaskTimingENS9_25PerformanceResourceTimingEEEEEEEDcT_DpT0_', symObjAddr: 0x20E0, symBinAddr: 0x977C, symSize: 0x8 }
  - { offset: 0x6DE18, size: 0x8, addend: 0x0, symName: '__ZNSt3__116__variant_detail12__visitation6__base12__dispatcherIJLm2EEE10__dispatchB8ne200100IONS1_9__variant15__value_visitorIZNK8facebook5react24PerformanceEntryReporter11getMarkTimeERKNS_12basic_stringIcNS_11char_traitsIcEENS_9allocatorIcEEEEE3$_0EEJRNS0_6__baseILNS0_6_TraitE1EJNS9_15PerformanceMarkENS9_18PerformanceMeasureENS9_22PerformanceEventTimingENS9_25PerformanceLongTaskTimingENS9_25PerformanceResourceTimingEEEEEEEDcT_DpT0_', symObjAddr: 0x20E0, symBinAddr: 0x977C, symSize: 0x8 }
  - { offset: 0x6DE34, size: 0x8, addend: 0x0, symName: '__ZNSt3__116__variant_detail12__visitation6__base12__dispatcherIJLm2EEE10__dispatchB8ne200100IONS1_9__variant15__value_visitorIZNK8facebook5react24PerformanceEntryReporter11getMarkTimeERKNS_12basic_stringIcNS_11char_traitsIcEENS_9allocatorIcEEEEE3$_0EEJRNS0_6__baseILNS0_6_TraitE1EJNS9_15PerformanceMarkENS9_18PerformanceMeasureENS9_22PerformanceEventTimingENS9_25PerformanceLongTaskTimingENS9_25PerformanceResourceTimingEEEEEEEDcT_DpT0_', symObjAddr: 0x20E0, symBinAddr: 0x977C, symSize: 0x8 }
  - { offset: 0x6DE50, size: 0x8, addend: 0x0, symName: '__ZNSt3__116__variant_detail12__visitation6__base12__dispatcherIJLm2EEE10__dispatchB8ne200100IONS1_9__variant15__value_visitorIZNK8facebook5react24PerformanceEntryReporter11getMarkTimeERKNS_12basic_stringIcNS_11char_traitsIcEENS_9allocatorIcEEEEE3$_0EEJRNS0_6__baseILNS0_6_TraitE1EJNS9_15PerformanceMarkENS9_18PerformanceMeasureENS9_22PerformanceEventTimingENS9_25PerformanceLongTaskTimingENS9_25PerformanceResourceTimingEEEEEEEDcT_DpT0_', symObjAddr: 0x20E0, symBinAddr: 0x977C, symSize: 0x8 }
  - { offset: 0x6DE6C, size: 0x8, addend: 0x0, symName: '__ZNSt3__116__variant_detail12__visitation6__base12__dispatcherIJLm2EEE10__dispatchB8ne200100IONS1_9__variant15__value_visitorIZNK8facebook5react24PerformanceEntryReporter11getMarkTimeERKNS_12basic_stringIcNS_11char_traitsIcEENS_9allocatorIcEEEEE3$_0EEJRNS0_6__baseILNS0_6_TraitE1EJNS9_15PerformanceMarkENS9_18PerformanceMeasureENS9_22PerformanceEventTimingENS9_25PerformanceLongTaskTimingENS9_25PerformanceResourceTimingEEEEEEEDcT_DpT0_', symObjAddr: 0x20E0, symBinAddr: 0x977C, symSize: 0x8 }
  - { offset: 0x6DEFF, size: 0x8, addend: 0x0, symName: '__ZNSt3__116__variant_detail12__visitation6__base12__dispatcherIJLm3EEE10__dispatchB8ne200100IONS1_9__variant15__value_visitorIZNK8facebook5react24PerformanceEntryReporter11getMarkTimeERKNS_12basic_stringIcNS_11char_traitsIcEENS_9allocatorIcEEEEE3$_0EEJRNS0_6__baseILNS0_6_TraitE1EJNS9_15PerformanceMarkENS9_18PerformanceMeasureENS9_22PerformanceEventTimingENS9_25PerformanceLongTaskTimingENS9_25PerformanceResourceTimingEEEEEEEDcT_DpT0_', symObjAddr: 0x20E8, symBinAddr: 0x9784, symSize: 0x8 }
  - { offset: 0x6DF33, size: 0x8, addend: 0x0, symName: '__ZNSt3__116__variant_detail12__visitation6__base12__dispatcherIJLm3EEE10__dispatchB8ne200100IONS1_9__variant15__value_visitorIZNK8facebook5react24PerformanceEntryReporter11getMarkTimeERKNS_12basic_stringIcNS_11char_traitsIcEENS_9allocatorIcEEEEE3$_0EEJRNS0_6__baseILNS0_6_TraitE1EJNS9_15PerformanceMarkENS9_18PerformanceMeasureENS9_22PerformanceEventTimingENS9_25PerformanceLongTaskTimingENS9_25PerformanceResourceTimingEEEEEEEDcT_DpT0_', symObjAddr: 0x20E8, symBinAddr: 0x9784, symSize: 0x8 }
  - { offset: 0x6DF4F, size: 0x8, addend: 0x0, symName: '__ZNSt3__116__variant_detail12__visitation6__base12__dispatcherIJLm3EEE10__dispatchB8ne200100IONS1_9__variant15__value_visitorIZNK8facebook5react24PerformanceEntryReporter11getMarkTimeERKNS_12basic_stringIcNS_11char_traitsIcEENS_9allocatorIcEEEEE3$_0EEJRNS0_6__baseILNS0_6_TraitE1EJNS9_15PerformanceMarkENS9_18PerformanceMeasureENS9_22PerformanceEventTimingENS9_25PerformanceLongTaskTimingENS9_25PerformanceResourceTimingEEEEEEEDcT_DpT0_', symObjAddr: 0x20E8, symBinAddr: 0x9784, symSize: 0x8 }
  - { offset: 0x6DF6B, size: 0x8, addend: 0x0, symName: '__ZNSt3__116__variant_detail12__visitation6__base12__dispatcherIJLm3EEE10__dispatchB8ne200100IONS1_9__variant15__value_visitorIZNK8facebook5react24PerformanceEntryReporter11getMarkTimeERKNS_12basic_stringIcNS_11char_traitsIcEENS_9allocatorIcEEEEE3$_0EEJRNS0_6__baseILNS0_6_TraitE1EJNS9_15PerformanceMarkENS9_18PerformanceMeasureENS9_22PerformanceEventTimingENS9_25PerformanceLongTaskTimingENS9_25PerformanceResourceTimingEEEEEEEDcT_DpT0_', symObjAddr: 0x20E8, symBinAddr: 0x9784, symSize: 0x8 }
  - { offset: 0x6DF87, size: 0x8, addend: 0x0, symName: '__ZNSt3__116__variant_detail12__visitation6__base12__dispatcherIJLm3EEE10__dispatchB8ne200100IONS1_9__variant15__value_visitorIZNK8facebook5react24PerformanceEntryReporter11getMarkTimeERKNS_12basic_stringIcNS_11char_traitsIcEENS_9allocatorIcEEEEE3$_0EEJRNS0_6__baseILNS0_6_TraitE1EJNS9_15PerformanceMarkENS9_18PerformanceMeasureENS9_22PerformanceEventTimingENS9_25PerformanceLongTaskTimingENS9_25PerformanceResourceTimingEEEEEEEDcT_DpT0_', symObjAddr: 0x20E8, symBinAddr: 0x9784, symSize: 0x8 }
  - { offset: 0x6E01A, size: 0x8, addend: 0x0, symName: '__ZNSt3__116__variant_detail12__visitation6__base12__dispatcherIJLm4EEE10__dispatchB8ne200100IONS1_9__variant15__value_visitorIZNK8facebook5react24PerformanceEntryReporter11getMarkTimeERKNS_12basic_stringIcNS_11char_traitsIcEENS_9allocatorIcEEEEE3$_0EEJRNS0_6__baseILNS0_6_TraitE1EJNS9_15PerformanceMarkENS9_18PerformanceMeasureENS9_22PerformanceEventTimingENS9_25PerformanceLongTaskTimingENS9_25PerformanceResourceTimingEEEEEEEDcT_DpT0_', symObjAddr: 0x20F0, symBinAddr: 0x978C, symSize: 0x8 }
  - { offset: 0x6E04E, size: 0x8, addend: 0x0, symName: '__ZNSt3__116__variant_detail12__visitation6__base12__dispatcherIJLm4EEE10__dispatchB8ne200100IONS1_9__variant15__value_visitorIZNK8facebook5react24PerformanceEntryReporter11getMarkTimeERKNS_12basic_stringIcNS_11char_traitsIcEENS_9allocatorIcEEEEE3$_0EEJRNS0_6__baseILNS0_6_TraitE1EJNS9_15PerformanceMarkENS9_18PerformanceMeasureENS9_22PerformanceEventTimingENS9_25PerformanceLongTaskTimingENS9_25PerformanceResourceTimingEEEEEEEDcT_DpT0_', symObjAddr: 0x20F0, symBinAddr: 0x978C, symSize: 0x8 }
  - { offset: 0x6E06A, size: 0x8, addend: 0x0, symName: '__ZNSt3__116__variant_detail12__visitation6__base12__dispatcherIJLm4EEE10__dispatchB8ne200100IONS1_9__variant15__value_visitorIZNK8facebook5react24PerformanceEntryReporter11getMarkTimeERKNS_12basic_stringIcNS_11char_traitsIcEENS_9allocatorIcEEEEE3$_0EEJRNS0_6__baseILNS0_6_TraitE1EJNS9_15PerformanceMarkENS9_18PerformanceMeasureENS9_22PerformanceEventTimingENS9_25PerformanceLongTaskTimingENS9_25PerformanceResourceTimingEEEEEEEDcT_DpT0_', symObjAddr: 0x20F0, symBinAddr: 0x978C, symSize: 0x8 }
  - { offset: 0x6E086, size: 0x8, addend: 0x0, symName: '__ZNSt3__116__variant_detail12__visitation6__base12__dispatcherIJLm4EEE10__dispatchB8ne200100IONS1_9__variant15__value_visitorIZNK8facebook5react24PerformanceEntryReporter11getMarkTimeERKNS_12basic_stringIcNS_11char_traitsIcEENS_9allocatorIcEEEEE3$_0EEJRNS0_6__baseILNS0_6_TraitE1EJNS9_15PerformanceMarkENS9_18PerformanceMeasureENS9_22PerformanceEventTimingENS9_25PerformanceLongTaskTimingENS9_25PerformanceResourceTimingEEEEEEEDcT_DpT0_', symObjAddr: 0x20F0, symBinAddr: 0x978C, symSize: 0x8 }
  - { offset: 0x6E0A2, size: 0x8, addend: 0x0, symName: '__ZNSt3__116__variant_detail12__visitation6__base12__dispatcherIJLm4EEE10__dispatchB8ne200100IONS1_9__variant15__value_visitorIZNK8facebook5react24PerformanceEntryReporter11getMarkTimeERKNS_12basic_stringIcNS_11char_traitsIcEENS_9allocatorIcEEEEE3$_0EEJRNS0_6__baseILNS0_6_TraitE1EJNS9_15PerformanceMarkENS9_18PerformanceMeasureENS9_22PerformanceEventTimingENS9_25PerformanceLongTaskTimingENS9_25PerformanceResourceTimingEEEEEEEDcT_DpT0_', symObjAddr: 0x20F0, symBinAddr: 0x978C, symSize: 0x8 }
  - { offset: 0x6E4CE, size: 0x8, addend: 0x0, symName: __ZNKSt3__117basic_string_viewIcNS_11char_traitsIcEEE7compareB8ne200100EmmS3_, symObjAddr: 0x2268, symBinAddr: 0x9904, symSize: 0x6C }
  - { offset: 0x6E5F0, size: 0x8, addend: 0x0, symName: __ZNSt3__120__throw_out_of_rangeB8ne200100EPKc, symObjAddr: 0x22D4, symBinAddr: 0x9970, symSize: 0x50 }
  - { offset: 0x6E693, size: 0x8, addend: 0x0, symName: __ZNSt12out_of_rangeC1B8ne200100EPKc, symObjAddr: 0x2324, symBinAddr: 0x99C0, symSize: 0x24 }
  - { offset: 0x6E71D, size: 0x8, addend: 0x0, symName: __ZNSt3__123__optional_storage_baseINS_12basic_stringIcNS_11char_traitsIcEENS_9allocatorIcEEEELb0EE16__construct_fromB8ne200100IRKNS_20__optional_copy_baseIS6_Lb0EEEEEvOT_, symObjAddr: 0x2394, symBinAddr: 0x9A30, symSize: 0x5C }
  - { offset: 0x6E758, size: 0x8, addend: 0x0, symName: __ZNSt3__123__optional_storage_baseINS_12basic_stringIcNS_11char_traitsIcEENS_9allocatorIcEEEELb0EE16__construct_fromB8ne200100IRKNS_20__optional_copy_baseIS6_Lb0EEEEEvOT_, symObjAddr: 0x2394, symBinAddr: 0x9A30, symSize: 0x5C }
  - { offset: 0x6E892, size: 0x8, addend: 0x0, symName: __ZNSt3__120__optional_copy_baseINS_12basic_stringIcNS_11char_traitsIcEENS_9allocatorIcEEEELb0EEC2B8ne200100ERKS7_.cold.1, symObjAddr: 0x3344, symBinAddr: 0xB25C, symSize: 0x14 }
  - { offset: 0x6E8AE, size: 0x8, addend: 0x0, symName: __ZNSt3__120__optional_copy_baseINS_12basic_stringIcNS_11char_traitsIcEENS_9allocatorIcEEEELb0EEC2B8ne200100ERKS7_.cold.1, symObjAddr: 0x3344, symBinAddr: 0xB25C, symSize: 0x14 }
  - { offset: 0x6E8C4, size: 0x8, addend: 0x0, symName: __ZNSt3__120__optional_copy_baseINS_12basic_stringIcNS_11char_traitsIcEENS_9allocatorIcEEEELb0EEC2B8ne200100ERKS7_.cold.1, symObjAddr: 0x3344, symBinAddr: 0xB25C, symSize: 0x14 }
  - { offset: 0x6E8DA, size: 0x8, addend: 0x0, symName: __ZNSt3__120__optional_copy_baseINS_12basic_stringIcNS_11char_traitsIcEENS_9allocatorIcEEEELb0EEC2B8ne200100ERKS7_.cold.1, symObjAddr: 0x3344, symBinAddr: 0xB25C, symSize: 0x14 }
  - { offset: 0x6E8F0, size: 0x8, addend: 0x0, symName: __ZNSt3__120__optional_copy_baseINS_12basic_stringIcNS_11char_traitsIcEENS_9allocatorIcEEEELb0EEC2B8ne200100ERKS7_.cold.1, symObjAddr: 0x3344, symBinAddr: 0xB25C, symSize: 0x14 }
  - { offset: 0x6E906, size: 0x8, addend: 0x0, symName: __ZNSt3__120__optional_copy_baseINS_12basic_stringIcNS_11char_traitsIcEENS_9allocatorIcEEEELb0EEC2B8ne200100ERKS7_.cold.1, symObjAddr: 0x3344, symBinAddr: 0xB25C, symSize: 0x14 }
  - { offset: 0x6EC0E, size: 0x8, addend: 0x0, symName: __ZNSt3__120__shared_ptr_emplaceIN8facebook5react24PerformanceEntryReporterENS_9allocatorIS3_EEEC2B8ne200100IJES5_Li0EEES5_DpOT_, symObjAddr: 0x2438, symBinAddr: 0x9AD4, symSize: 0x4C }
  - { offset: 0x6EDD2, size: 0x8, addend: 0x0, symName: __ZNSt3__120__shared_ptr_emplaceIN8facebook5react24PerformanceEntryReporterENS_9allocatorIS3_EEED1Ev, symObjAddr: 0x2484, symBinAddr: 0x9B20, symSize: 0x14 }
  - { offset: 0x6EDF4, size: 0x8, addend: 0x0, symName: __ZNSt3__120__shared_ptr_emplaceIN8facebook5react24PerformanceEntryReporterENS_9allocatorIS3_EEED1Ev, symObjAddr: 0x2484, symBinAddr: 0x9B20, symSize: 0x14 }
  - { offset: 0x6EE2A, size: 0x8, addend: 0x0, symName: __ZNSt3__120__shared_ptr_emplaceIN8facebook5react24PerformanceEntryReporterENS_9allocatorIS3_EEED0Ev, symObjAddr: 0x2498, symBinAddr: 0x9B34, symSize: 0x24 }
  - { offset: 0x6EF12, size: 0x8, addend: 0x0, symName: __ZNSt3__120__shared_ptr_emplaceIN8facebook5react24PerformanceEntryReporterENS_9allocatorIS3_EEE16__on_zero_sharedEv, symObjAddr: 0x24BC, symBinAddr: 0x9B58, symSize: 0x8 }
  - { offset: 0x6EF3B, size: 0x8, addend: 0x0, symName: __ZNSt3__120__shared_ptr_emplaceIN8facebook5react24PerformanceEntryReporterENS_9allocatorIS3_EEE16__on_zero_sharedEv, symObjAddr: 0x24BC, symBinAddr: 0x9B58, symSize: 0x8 }
  - { offset: 0x6EF59, size: 0x8, addend: 0x0, symName: __ZNSt3__120__shared_ptr_emplaceIN8facebook5react24PerformanceEntryReporterENS_9allocatorIS3_EEE16__on_zero_sharedEv, symObjAddr: 0x24BC, symBinAddr: 0x9B58, symSize: 0x8 }
  - { offset: 0x6EFC3, size: 0x8, addend: 0x0, symName: __ZN8facebook5react24PerformanceEntryReporterD2Ev, symObjAddr: 0x24C8, symBinAddr: 0x9B64, symSize: 0xF4 }
  - { offset: 0x6F5F1, size: 0x8, addend: 0x0, symName: __ZNSt3__120__shared_ptr_emplaceIN8facebook5react24PerformanceEntryReporterENS_9allocatorIS3_EEE21__on_zero_shared_weakEv, symObjAddr: 0x24C4, symBinAddr: 0x9B60, symSize: 0x4 }
  - { offset: 0x6F623, size: 0x8, addend: 0x0, symName: __ZNSt3__120__shared_ptr_emplaceIN8facebook5react24PerformanceEntryReporterENS_9allocatorIS3_EEE21__on_zero_shared_weakEv, symObjAddr: 0x24C4, symBinAddr: 0x9B60, symSize: 0x4 }
  - { offset: 0x6F646, size: 0x8, addend: 0x0, symName: __ZNSt3__120__shared_ptr_emplaceIN8facebook5react24PerformanceEntryReporterENS_9allocatorIS3_EEE21__on_zero_shared_weakEv, symObjAddr: 0x24C4, symBinAddr: 0x9B60, symSize: 0x4 }
  - { offset: 0x6F669, size: 0x8, addend: 0x0, symName: __ZNSt3__120__shared_ptr_emplaceIN8facebook5react24PerformanceEntryReporterENS_9allocatorIS3_EEE21__on_zero_shared_weakEv, symObjAddr: 0x24C4, symBinAddr: 0x9B60, symSize: 0x4 }
  - { offset: 0x6F69F, size: 0x8, addend: 0x0, symName: __ZNSt3__120__shared_ptr_emplaceIN8facebook5react24PerformanceEntryReporterENS_9allocatorIS3_EEE21__on_zero_shared_weakEv, symObjAddr: 0x24C4, symBinAddr: 0x9B60, symSize: 0x4 }
  - { offset: 0x6F825, size: 0x8, addend: 0x0, symName: __ZNSt3__112__hash_tableINS_17__hash_value_typeINS_12basic_stringIcNS_11char_traitsIcEENS_9allocatorIcEEEEjEENS_22__unordered_map_hasherIS7_S8_NS_4hashIS7_EENS_8equal_toIS7_EELb1EEENS_21__unordered_map_equalIS7_S8_SD_SB_Lb1EEENS5_IS8_EEED2Ev, symObjAddr: 0x25BC, symBinAddr: 0x9C58, symSize: 0x38 }
  - { offset: 0x6FB5A, size: 0x8, addend: 0x0, symName: __ZNSt3__112__hash_tableINS_17__hash_value_typeINS_12basic_stringIcNS_11char_traitsIcEENS_9allocatorIcEEEEjEENS_22__unordered_map_hasherIS7_S8_NS_4hashIS7_EENS_8equal_toIS7_EELb1EEENS_21__unordered_map_equalIS7_S8_SD_SB_Lb1EEENS5_IS8_EEE17__deallocate_nodeEPNS_16__hash_node_baseIPNS_11__hash_nodeIS8_PvEEEE, symObjAddr: 0x25F4, symBinAddr: 0x9C90, symSize: 0x44 }
  - { offset: 0x7024B, size: 0x8, addend: 0x0, symName: __ZNSt3__16__treeINS_10shared_ptrIN8facebook5react19PerformanceObserverEEENS_10owner_lessIS5_EENS_9allocatorIS5_EEE7destroyEPNS_11__tree_nodeIS5_PvEE, symObjAddr: 0x2780, symBinAddr: 0x9D64, symSize: 0x48 }
  - { offset: 0x70814, size: 0x8, addend: 0x0, symName: __ZNSt3__112__hash_tableINS_17__hash_value_typeINS_12basic_stringIcNS_11char_traitsIcEENS_9allocatorIcEEEEjEENS_22__unordered_map_hasherIS7_S8_NS_4hashIS7_EENS_8equal_toIS7_EELb1EEENS_21__unordered_map_equalIS7_S8_SD_SB_Lb1EEENS5_IS8_EEE21__construct_node_hashIRKNS_21piecewise_construct_tEJNS_5tupleIJRKS7_EEENSN_IJEEEEEENS_10unique_ptrINS_11__hash_nodeIS8_PvEENS_22__hash_node_destructorINS5_ISV_EEEEEEmOT_DpOT0_, symObjAddr: 0x2B04, symBinAddr: 0xA090, symSize: 0xAC }
  - { offset: 0x70CCA, size: 0x8, addend: 0x0, symName: __ZNSt3__122__hash_node_destructorINS_9allocatorINS_11__hash_nodeINS_17__hash_value_typeINS_12basic_stringIcNS_11char_traitsIcEENS1_IcEEEEjEEPvEEEEEclB8ne200100EPSB_, symObjAddr: 0x32F4, symBinAddr: 0xA13C, symSize: 0x50 }
  - { offset: 0x71D43, size: 0x8, addend: 0x0, symName: __ZNSt3__122__hash_node_destructorINS_9allocatorINS_11__hash_nodeINS_17__hash_value_typeINS_12basic_stringIcNS_11char_traitsIcEENS1_IcEEEEjEEPvEEEEEclB8ne200100EPSB_, symObjAddr: 0x32F4, symBinAddr: 0xA13C, symSize: 0x50 }
  - { offset: 0x7F2BD, size: 0x8, addend: 0x0, symName: __ZNSt3__120__throw_bad_weak_ptrB8ne200100Ev, symObjAddr: 0x12F0, symBinAddr: 0xA8C4, symSize: 0x34 }
  - { offset: 0x8132F, size: 0x8, addend: 0x0, symName: __ZN8facebook5react19PerformanceObserver11handleEntryERKNSt3__17variantIJNS0_15PerformanceMarkENS0_18PerformanceMeasureENS0_22PerformanceEventTimingENS0_25PerformanceLongTaskTimingENS0_25PerformanceResourceTimingEEEE, symObjAddr: 0x0, symBinAddr: 0xA18C, symSize: 0xB8 }
  - { offset: 0x81942, size: 0x8, addend: 0x0, symName: __ZNKSt3__112__hash_tableIN8facebook5react20PerformanceEntryTypeENS_4hashIS3_EENS_8equal_toIS3_EENS_9allocatorIS3_EEE4findIS3_EENS_21__hash_const_iteratorIPNS_11__hash_nodeIS3_PvEEEERKT_, symObjAddr: 0xDB8, symBinAddr: 0xA5B8, symSize: 0xB4 }
  - { offset: 0x8199D, size: 0x8, addend: 0x0, symName: __ZNKSt3__112__hash_tableIN8facebook5react20PerformanceEntryTypeENS_4hashIS3_EENS_8equal_toIS3_EENS_9allocatorIS3_EEE4findIS3_EENS_21__hash_const_iteratorIPNS_11__hash_nodeIS3_PvEEEERKT_, symObjAddr: 0xDB8, symBinAddr: 0xA5B8, symSize: 0xB4 }
  - { offset: 0x819BA, size: 0x8, addend: 0x0, symName: __ZNKSt3__112__hash_tableIN8facebook5react20PerformanceEntryTypeENS_4hashIS3_EENS_8equal_toIS3_EENS_9allocatorIS3_EEE4findIS3_EENS_21__hash_const_iteratorIPNS_11__hash_nodeIS3_PvEEEERKT_, symObjAddr: 0xDB8, symBinAddr: 0xA5B8, symSize: 0xB4 }
  - { offset: 0x82239, size: 0x8, addend: 0x0, symName: __ZN8facebook5react19PerformanceObserver19scheduleFlushBufferEv, symObjAddr: 0x108, symBinAddr: 0xA244, symSize: 0x34 }
  - { offset: 0x822AB, size: 0x8, addend: 0x0, symName: __ZN8facebook5react19PerformanceObserver11takeRecordsEv, symObjAddr: 0x13C, symBinAddr: 0xA278, symSize: 0x20 }
  - { offset: 0x822D9, size: 0x8, addend: 0x0, symName: __ZN8facebook5react19PerformanceObserver11takeRecordsEv, symObjAddr: 0x13C, symBinAddr: 0xA278, symSize: 0x20 }
  - { offset: 0x82311, size: 0x8, addend: 0x0, symName: __ZN8facebook5react19PerformanceObserver11takeRecordsEv, symObjAddr: 0x13C, symBinAddr: 0xA278, symSize: 0x20 }
  - { offset: 0x82337, size: 0x8, addend: 0x0, symName: __ZN8facebook5react19PerformanceObserver11takeRecordsEv, symObjAddr: 0x13C, symBinAddr: 0xA278, symSize: 0x20 }
  - { offset: 0x82A37, size: 0x8, addend: 0x0, symName: __ZN8facebook5react19PerformanceObserver7observeENS0_20PerformanceEntryTypeENS0_39PerformanceObserverObserveSingleOptionsE, symObjAddr: 0x15C, symBinAddr: 0xA298, symSize: 0x11C }
  - { offset: 0x82E4F, size: 0x8, addend: 0x0, symName: __ZNSt3__112__hash_tableIN8facebook5react20PerformanceEntryTypeENS_4hashIS3_EENS_8equal_toIS3_EENS_9allocatorIS3_EEE25__emplace_unique_key_argsIS3_JRKS3_EEENS_4pairINS_15__hash_iteratorIPNS_11__hash_nodeIS3_PvEEEEbEERKT_DpOT0_, symObjAddr: 0xE6C, symBinAddr: 0xA66C, symSize: 0x218 }
  - { offset: 0x83627, size: 0x8, addend: 0x0, symName: __ZNSt3__110shared_ptrIN8facebook5react19PerformanceObserverEEC2B8ne200100IS3_Li0EEERKNS_8weak_ptrIT_EE, symObjAddr: 0x12B0, symBinAddr: 0xA884, symSize: 0x40 }
  - { offset: 0x83666, size: 0x8, addend: 0x0, symName: __ZNSt3__120__throw_bad_weak_ptrB8ne200100Ev, symObjAddr: 0x12F0, symBinAddr: 0xA8C4, symSize: 0x34 }
  - { offset: 0x8371E, size: 0x8, addend: 0x0, symName: __ZN8facebook5react19PerformanceObserver7observeENSt3__113unordered_setINS0_20PerformanceEntryTypeENS2_4hashIS4_EENS2_8equal_toIS4_EENS2_9allocatorIS4_EEEE, symObjAddr: 0x278, symBinAddr: 0xA3B4, symSize: 0x98 }
  - { offset: 0x838DC, size: 0x8, addend: 0x0, symName: __ZNSt3__112__hash_tableIN8facebook5react20PerformanceEntryTypeENS_4hashIS3_EENS_8equal_toIS3_EENS_9allocatorIS3_EEE13__move_assignERSA_NS_17integral_constantIbLb1EEE, symObjAddr: 0x1324, symBinAddr: 0xA8F8, symSize: 0xA0 }
  - { offset: 0x83B9E, size: 0x8, addend: 0x0, symName: __ZN8facebook5react19PerformanceObserver22getDroppedEntriesCountEv, symObjAddr: 0x310, symBinAddr: 0xA44C, symSize: 0xCC }
  - { offset: 0x83D69, size: 0x8, addend: 0x0, symName: __ZN8facebook5react19PerformanceObserver10disconnectEv, symObjAddr: 0x3EC, symBinAddr: 0xA518, symSize: 0x78 }
  - { offset: 0x83EE7, size: 0x8, addend: 0x0, symName: '__ZNSt3__116__variant_detail12__visitation6__base12__dispatcherIJLm0EEE10__dispatchB8ne200100IONS1_9__variant15__value_visitorIZN8facebook5react19PerformanceObserver11handleEntryERKNS_7variantIJNS9_15PerformanceMarkENS9_18PerformanceMeasureENS9_22PerformanceEventTimingENS9_25PerformanceLongTaskTimingENS9_25PerformanceResourceTimingEEEEE3$_0EEJRKNS0_6__baseILNS0_6_TraitE1EJSC_SD_SE_SF_SG_EEEEEEDcT_DpT0_', symObjAddr: 0x49C, symBinAddr: 0xA590, symSize: 0x8 }
  - { offset: 0x83F2A, size: 0x8, addend: 0x0, symName: '__ZNSt3__116__variant_detail12__visitation6__base12__dispatcherIJLm1EEE10__dispatchB8ne200100IONS1_9__variant15__value_visitorIZN8facebook5react19PerformanceObserver11handleEntryERKNS_7variantIJNS9_15PerformanceMarkENS9_18PerformanceMeasureENS9_22PerformanceEventTimingENS9_25PerformanceLongTaskTimingENS9_25PerformanceResourceTimingEEEEE3$_0EEJRKNS0_6__baseILNS0_6_TraitE1EJSC_SD_SE_SF_SG_EEEEEEDcT_DpT0_', symObjAddr: 0x4A4, symBinAddr: 0xA598, symSize: 0x8 }
  - { offset: 0x83F6D, size: 0x8, addend: 0x0, symName: '__ZNSt3__116__variant_detail12__visitation6__base12__dispatcherIJLm2EEE10__dispatchB8ne200100IONS1_9__variant15__value_visitorIZN8facebook5react19PerformanceObserver11handleEntryERKNS_7variantIJNS9_15PerformanceMarkENS9_18PerformanceMeasureENS9_22PerformanceEventTimingENS9_25PerformanceLongTaskTimingENS9_25PerformanceResourceTimingEEEEE3$_0EEJRKNS0_6__baseILNS0_6_TraitE1EJSC_SD_SE_SF_SG_EEEEEEDcT_DpT0_', symObjAddr: 0x4AC, symBinAddr: 0xA5A0, symSize: 0x8 }
  - { offset: 0x83FB0, size: 0x8, addend: 0x0, symName: '__ZNSt3__116__variant_detail12__visitation6__base12__dispatcherIJLm3EEE10__dispatchB8ne200100IONS1_9__variant15__value_visitorIZN8facebook5react19PerformanceObserver11handleEntryERKNS_7variantIJNS9_15PerformanceMarkENS9_18PerformanceMeasureENS9_22PerformanceEventTimingENS9_25PerformanceLongTaskTimingENS9_25PerformanceResourceTimingEEEEE3$_0EEJRKNS0_6__baseILNS0_6_TraitE1EJSC_SD_SE_SF_SG_EEEEEEDcT_DpT0_', symObjAddr: 0x4B4, symBinAddr: 0xA5A8, symSize: 0x8 }
  - { offset: 0x83FF3, size: 0x8, addend: 0x0, symName: '__ZNSt3__116__variant_detail12__visitation6__base12__dispatcherIJLm4EEE10__dispatchB8ne200100IONS1_9__variant15__value_visitorIZN8facebook5react19PerformanceObserver11handleEntryERKNS_7variantIJNS9_15PerformanceMarkENS9_18PerformanceMeasureENS9_22PerformanceEventTimingENS9_25PerformanceLongTaskTimingENS9_25PerformanceResourceTimingEEEEE3$_0EEJRKNS0_6__baseILNS0_6_TraitE1EJSC_SD_SE_SF_SG_EEEEEEDcT_DpT0_', symObjAddr: 0x4BC, symBinAddr: 0xA5B0, symSize: 0x8 }
  - { offset: 0x85682, size: 0x8, addend: 0x0, symName: __ZNSt3__110shared_ptrIN8facebook5react19PerformanceObserverEEC2B8ne200100IS3_Li0EEERKNS_8weak_ptrIT_EE, symObjAddr: 0x12B0, symBinAddr: 0xA884, symSize: 0x40 }
  - { offset: 0x8582A, size: 0x8, addend: 0x0, symName: __ZNSt3__112__hash_tableIN8facebook5react20PerformanceEntryTypeENS_4hashIS3_EENS_8equal_toIS3_EENS_9allocatorIS3_EEE5clearEv, symObjAddr: 0x13C4, symBinAddr: 0xA998, symSize: 0x64 }
  - { offset: 0x8798D, size: 0x8, addend: 0x0, symName: __ZN8facebook5react27PerformanceObserverRegistry11addObserverENSt3__110shared_ptrINS0_19PerformanceObserverEEE, symObjAddr: 0x0, symBinAddr: 0xA9FC, symSize: 0x4C }
  - { offset: 0x8B516, size: 0x8, addend: 0x0, symName: __ZNSt3__127__tree_balance_after_insertB8ne200100IPNS_16__tree_node_baseIPvEEEEvT_S5_, symObjAddr: 0x250, symBinAddr: 0xAC4C, symSize: 0x19C }
  - { offset: 0x8B98E, size: 0x8, addend: 0x0, symName: __ZNSt3__113__tree_removeB8ne200100IPNS_16__tree_node_baseIPvEEEEvT_S5_, symObjAddr: 0x538, symBinAddr: 0xAEDC, symSize: 0x380 }
  - { offset: 0x8D228, size: 0x8, addend: 0x0, symName: __ZN8facebook5react27PerformanceObserverRegistry11addObserverENSt3__110shared_ptrINS0_19PerformanceObserverEEE, symObjAddr: 0x0, symBinAddr: 0xA9FC, symSize: 0x4C }
  - { offset: 0x8D35C, size: 0x8, addend: 0x0, symName: __ZNSt3__16__treeINS_10shared_ptrIN8facebook5react19PerformanceObserverEEENS_10owner_lessIS5_EENS_9allocatorIS5_EEE25__emplace_unique_key_argsIS5_JRKS5_EEENS_4pairINS_15__tree_iteratorIS5_PNS_11__tree_nodeIS5_PvEElEEbEERKT_DpOT0_, symObjAddr: 0x12C, symBinAddr: 0xAB28, symSize: 0xD0 }
  - { offset: 0x8D6EE, size: 0x8, addend: 0x0, symName: __ZN8facebook5react27PerformanceObserverRegistry14removeObserverENSt3__110shared_ptrINS0_19PerformanceObserverEEE, symObjAddr: 0x4C, symBinAddr: 0xAA48, symSize: 0x48 }
  - { offset: 0x8D7FD, size: 0x8, addend: 0x0, symName: __ZNSt3__16__treeINS_10shared_ptrIN8facebook5react19PerformanceObserverEEENS_10owner_lessIS5_EENS_9allocatorIS5_EEE14__erase_uniqueIS5_EEmRKT_, symObjAddr: 0x444, symBinAddr: 0xADE8, symSize: 0x84 }
  - { offset: 0x8D849, size: 0x8, addend: 0x0, symName: __ZNSt3__16__treeINS_10shared_ptrIN8facebook5react19PerformanceObserverEEENS_10owner_lessIS5_EENS_9allocatorIS5_EEE14__erase_uniqueIS5_EEmRKT_, symObjAddr: 0x444, symBinAddr: 0xADE8, symSize: 0x84 }
  - { offset: 0x8D87A, size: 0x8, addend: 0x0, symName: __ZNSt3__16__treeINS_10shared_ptrIN8facebook5react19PerformanceObserverEEENS_10owner_lessIS5_EENS_9allocatorIS5_EEE14__erase_uniqueIS5_EEmRKT_, symObjAddr: 0x444, symBinAddr: 0xADE8, symSize: 0x84 }
  - { offset: 0x8DB4D, size: 0x8, addend: 0x0, symName: __ZN8facebook5react27PerformanceObserverRegistry21queuePerformanceEntryERKNSt3__17variantIJNS0_15PerformanceMarkENS0_18PerformanceMeasureENS0_22PerformanceEventTimingENS0_25PerformanceLongTaskTimingENS0_25PerformanceResourceTimingEEEE, symObjAddr: 0x94, symBinAddr: 0xAA90, symSize: 0x98 }
  - { offset: 0x8DFDC, size: 0x8, addend: 0x0, symName: __ZNSt3__16__treeINS_10shared_ptrIN8facebook5react19PerformanceObserverEEENS_10owner_lessIS5_EENS_9allocatorIS5_EEE16__insert_node_atEPNS_15__tree_end_nodeIPNS_16__tree_node_baseIPvEEEERSF_SF_, symObjAddr: 0x1FC, symBinAddr: 0xABF8, symSize: 0x54 }
  - { offset: 0x8E29D, size: 0x8, addend: 0x0, symName: __ZNSt3__16__treeINS_10shared_ptrIN8facebook5react19PerformanceObserverEEENS_10owner_lessIS5_EENS_9allocatorIS5_EEE21__remove_node_pointerEPNS_11__tree_nodeIS5_PvEE, symObjAddr: 0x4C8, symBinAddr: 0xAE6C, symSize: 0x70 }
...
