---
triple:          'arm64-apple-darwin'
binary-path:     '/Users/uk-aplatts/Development/InjuryIQ/ios/DerivedData/Build/Intermediates.noindex/ArchiveIntermediates/InjuryIQ/IntermediateBuildFilesPath/UninstalledProducts/iphoneos/React_Mapbuffer.framework/React_Mapbuffer'
relocations:
  - { offset: 0x33, size: 0x8, addend: 0x0, symName: _React_MapbufferVersionString, symObjAddr: 0x0, symBinAddr: 0x75C8, symSize: 0x0 }
  - { offset: 0x67, size: 0x8, addend: 0x0, symName: _React_MapbufferVersionNumber, symObjAddr: 0x30, symBinAddr: 0x75F8, symSize: 0x0 }
  - { offset: 0x582B, size: 0x8, addend: 0x0, symName: __ZNSt3__124__put_character_sequenceB8ne200100IcNS_11char_traitsIcEEEERNS_13basic_ostreamIT_T0_EES7_PKS4_m, symObjAddr: 0xB28, symBinAddr: 0x4B14, symSize: 0x168 }
  - { offset: 0x6AE7, size: 0x8, addend: 0x0, symName: __ZNSt3__112construct_atB8ne200100IN8facebook5react9MapBufferEJNS_6vectorIhNS_9allocatorIhEEEEEPS3_EEPT_SA_DpOT0_, symObjAddr: 0x814, symBinAddr: 0x4814, symSize: 0x6C }
  - { offset: 0x6E32, size: 0x8, addend: 0x0, symName: __ZNSt3__120__throw_length_errorB8ne200100EPKc, symObjAddr: 0x5AC, symBinAddr: 0x45AC, symSize: 0x50 }
  - { offset: 0x7017, size: 0x8, addend: 0x0, symName: __ZNSt3__119__allocate_at_leastB8ne200100INS_9allocatorIN8facebook5react9MapBufferEEEEENS_19__allocation_resultINS_16allocator_traitsIT_E7pointerEEERS8_m, symObjAddr: 0x894, symBinAddr: 0x4880, symSize: 0x34 }
  - { offset: 0x70BC, size: 0x8, addend: 0x0, symName: __ZNSt3__134__uninitialized_allocator_relocateB8ne200100INS_9allocatorIN8facebook5react9MapBufferEEEPS4_EEvRT_T0_S9_S9_, symObjAddr: 0x8C8, symBinAddr: 0x48B4, symSize: 0xC0 }
  - { offset: 0x70CF, size: 0x8, addend: 0x0, symName: __ZNSt3__134__uninitialized_allocator_relocateB8ne200100INS_9allocatorIN8facebook5react9MapBufferEEEPS4_EEvRT_T0_S9_S9_, symObjAddr: 0x8C8, symBinAddr: 0x48B4, symSize: 0xC0 }
  - { offset: 0x7BA2, size: 0x8, addend: 0x0, symName: __ZNSt3__116__pad_and_outputB8ne200100IcNS_11char_traitsIcEEEENS_19ostreambuf_iteratorIT_T0_EES6_PKS4_S8_S8_RNS_8ios_baseES4_, symObjAddr: 0xC90, symBinAddr: 0x4C7C, symSize: 0x13C }
  - { offset: 0x90BA, size: 0x8, addend: 0x0, symName: __ZSt28__throw_bad_array_new_lengthB8ne200100v, symObjAddr: 0x620, symBinAddr: 0x4620, symSize: 0x28 }
  - { offset: 0x9BBC, size: 0x8, addend: 0x0, symName: __ZN8facebook5react9MapBufferC2ENSt3__16vectorIhNS2_9allocatorIhEEEE, symObjAddr: 0x0, symBinAddr: 0x4000, symSize: 0xF0 }
  - { offset: 0x9E34, size: 0x8, addend: 0x0, symName: __ZN8facebook5react9MapBufferC1ENSt3__16vectorIhNS2_9allocatorIhEEEE, symObjAddr: 0xF0, symBinAddr: 0x40F0, symSize: 0x4 }
  - { offset: 0x9E5F, size: 0x8, addend: 0x0, symName: __ZN8facebook5react9MapBufferC1ENSt3__16vectorIhNS2_9allocatorIhEEEE, symObjAddr: 0xF0, symBinAddr: 0x40F0, symSize: 0x4 }
  - { offset: 0x9E79, size: 0x8, addend: 0x0, symName: __ZNK8facebook5react9MapBuffer12getKeyBucketEt, symObjAddr: 0xF4, symBinAddr: 0x40F4, symSize: 0x54 }
  - { offset: 0x9F28, size: 0x8, addend: 0x0, symName: __ZNK8facebook5react9MapBuffer6getIntEt, symObjAddr: 0x148, symBinAddr: 0x4148, symSize: 0x34 }
  - { offset: 0x9FB0, size: 0x8, addend: 0x0, symName: __ZNK8facebook5react9MapBuffer7getLongEt, symObjAddr: 0x17C, symBinAddr: 0x417C, symSize: 0x34 }
  - { offset: 0xA079, size: 0x8, addend: 0x0, symName: __ZNK8facebook5react9MapBuffer7getBoolEt, symObjAddr: 0x1B0, symBinAddr: 0x41B0, symSize: 0x3C }
  - { offset: 0xA133, size: 0x8, addend: 0x0, symName: __ZNK8facebook5react9MapBuffer9getDoubleEt, symObjAddr: 0x1EC, symBinAddr: 0x41EC, symSize: 0x34 }
  - { offset: 0xA1CE, size: 0x8, addend: 0x0, symName: __ZNK8facebook5react9MapBuffer20getDynamicDataOffsetEv, symObjAddr: 0x220, symBinAddr: 0x4220, symSize: 0x14 }
  - { offset: 0xA2FC, size: 0x8, addend: 0x0, symName: __ZNK8facebook5react9MapBuffer9getStringEt, symObjAddr: 0x234, symBinAddr: 0x4234, symSize: 0x5C }
  - { offset: 0xA489, size: 0x8, addend: 0x0, symName: __ZNSt3__112basic_stringIcNS_11char_traitsIcEENS_9allocatorIcEEE16__init_with_sizeB8ne200100IPKhS8_EEvT_T0_m, symObjAddr: 0x500, symBinAddr: 0x4500, symSize: 0x98 }
  - { offset: 0xA6A3, size: 0x8, addend: 0x0, symName: __ZNSt3__112basic_stringIcNS_11char_traitsIcEENS_9allocatorIcEEE20__throw_length_errorB8ne200100Ev, symObjAddr: 0x598, symBinAddr: 0x4598, symSize: 0x14 }
  - { offset: 0xA70C, size: 0x8, addend: 0x0, symName: __ZNK8facebook5react9MapBuffer12getMapBufferEt, symObjAddr: 0x290, symBinAddr: 0x4290, symSize: 0xF4 }
  - { offset: 0xAD10, size: 0x8, addend: 0x0, symName: __ZNSt3__16vectorIhNS_9allocatorIhEEEC2B8ne200100Em, symObjAddr: 0x648, symBinAddr: 0x4648, symSize: 0x70 }
  - { offset: 0xB13D, size: 0x8, addend: 0x0, symName: __ZNK8facebook5react9MapBuffer16getMapBufferListEt, symObjAddr: 0x384, symBinAddr: 0x4384, symSize: 0x150 }
  - { offset: 0xB73F, size: 0x8, addend: 0x0, symName: __ZNSt3__16vectorIN8facebook5react9MapBufferENS_9allocatorIS3_EEE24__emplace_back_slow_pathIJNS0_IhNS4_IhEEEEEEEPS3_DpOT_, symObjAddr: 0x708, symBinAddr: 0x4708, symSize: 0x10C }
  - { offset: 0xBA04, size: 0x8, addend: 0x0, symName: __ZNSt3__16vectorIN8facebook5react9MapBufferENS_9allocatorIS3_EEE16__destroy_vectorclB8ne200100Ev, symObjAddr: 0xA94, symBinAddr: 0x4A80, symSize: 0x40 }
  - { offset: 0xBAAF, size: 0x8, addend: 0x0, symName: __ZNK8facebook5react9MapBuffer4sizeEv, symObjAddr: 0x4D4, symBinAddr: 0x44D4, symSize: 0xC }
  - { offset: 0xBADA, size: 0x8, addend: 0x0, symName: __ZNK8facebook5react9MapBuffer4sizeEv, symObjAddr: 0x4D4, symBinAddr: 0x44D4, symSize: 0xC }
  - { offset: 0xBAF4, size: 0x8, addend: 0x0, symName: __ZNK8facebook5react9MapBuffer4dataEv, symObjAddr: 0x4E0, symBinAddr: 0x44E0, symSize: 0x8 }
  - { offset: 0xBB1F, size: 0x8, addend: 0x0, symName: __ZNK8facebook5react9MapBuffer4dataEv, symObjAddr: 0x4E0, symBinAddr: 0x44E0, symSize: 0x8 }
  - { offset: 0xBB39, size: 0x8, addend: 0x0, symName: __ZNK8facebook5react9MapBuffer5countEv, symObjAddr: 0x4E8, symBinAddr: 0x44E8, symSize: 0x8 }
  - { offset: 0xBC7F, size: 0x8, addend: 0x0, symName: __ZNSt3__112basic_stringIcNS_11char_traitsIcEENS_9allocatorIcEEE20__throw_length_errorB8ne200100Ev, symObjAddr: 0x598, symBinAddr: 0x4598, symSize: 0x14 }
  - { offset: 0xBC96, size: 0x8, addend: 0x0, symName: __ZNSt3__120__throw_length_errorB8ne200100EPKc, symObjAddr: 0x5AC, symBinAddr: 0x45AC, symSize: 0x50 }
  - { offset: 0xBCA1, size: 0x8, addend: 0x0, symName: __ZNSt12length_errorC1B8ne200100EPKc, symObjAddr: 0x5FC, symBinAddr: 0x45FC, symSize: 0x24 }
  - { offset: 0xBE9A, size: 0x8, addend: 0x0, symName: __ZNSt3__16vectorIhNS_9allocatorIhEEE11__vallocateB8ne200100Em, symObjAddr: 0x6B8, symBinAddr: 0x46B8, symSize: 0x3C }
  - { offset: 0xBF70, size: 0x8, addend: 0x0, symName: __ZNSt3__16vectorIhNS_9allocatorIhEEE20__throw_length_errorB8ne200100Ev, symObjAddr: 0x6F4, symBinAddr: 0x46F4, symSize: 0x14 }
  - { offset: 0xBFA2, size: 0x8, addend: 0x0, symName: __ZNSt3__16vectorIhNS_9allocatorIhEEE20__throw_length_errorB8ne200100Ev, symObjAddr: 0x6F4, symBinAddr: 0x46F4, symSize: 0x14 }
  - { offset: 0xBFB9, size: 0x8, addend: 0x0, symName: __ZNSt3__16vectorIN8facebook5react9MapBufferENS_9allocatorIS3_EEE24__emplace_back_slow_pathIJNS0_IhNS4_IhEEEEEEEPS3_DpOT_, symObjAddr: 0x708, symBinAddr: 0x4708, symSize: 0x10C }
  - { offset: 0xC10B, size: 0x8, addend: 0x0, symName: __ZNSt3__114__split_bufferIN8facebook5react9MapBufferERNS_9allocatorIS3_EEED2Ev, symObjAddr: 0xA08, symBinAddr: 0x49F4, symSize: 0x34 }
  - { offset: 0xC1E9, size: 0x8, addend: 0x0, symName: __ZNSt3__119__allocate_at_leastB8ne200100INS_9allocatorIN8facebook5react9MapBufferEEEEENS_19__allocation_resultINS_16allocator_traitsIT_E7pointerEEERS8_m, symObjAddr: 0x894, symBinAddr: 0x4880, symSize: 0x34 }
  - { offset: 0xC344, size: 0x8, addend: 0x0, symName: __ZNSt3__128__exception_guard_exceptionsINS_29_AllocatorDestroyRangeReverseINS_9allocatorIN8facebook5react9MapBufferEEEPS5_EEED2B8ne200100Ev, symObjAddr: 0x988, symBinAddr: 0x4974, symSize: 0x34 }
  - { offset: 0xC383, size: 0x8, addend: 0x0, symName: __ZNKSt3__129_AllocatorDestroyRangeReverseINS_9allocatorIN8facebook5react9MapBufferEEEPS4_EclB8ne200100Ev, symObjAddr: 0x9BC, symBinAddr: 0x49A8, symSize: 0x4C }
  - { offset: 0xC5D8, size: 0x8, addend: 0x0, symName: __ZNSt3__114__split_bufferIN8facebook5react9MapBufferERNS_9allocatorIS3_EEE17__destruct_at_endB8ne200100EPS3_, symObjAddr: 0xA3C, symBinAddr: 0x4A28, symSize: 0x58 }
  - { offset: 0xC610, size: 0x8, addend: 0x0, symName: __ZNSt3__114__split_bufferIN8facebook5react9MapBufferERNS_9allocatorIS3_EEE17__destruct_at_endB8ne200100EPS3_, symObjAddr: 0xA3C, symBinAddr: 0x4A28, symSize: 0x58 }
  - { offset: 0xC79C, size: 0x8, addend: 0x0, symName: __ZNSt3__16vectorIN8facebook5react9MapBufferENS_9allocatorIS3_EEE5clearB8ne200100Ev, symObjAddr: 0xAD4, symBinAddr: 0x4AC0, symSize: 0x54 }
  - { offset: 0xCD97, size: 0x8, addend: 0x0, symName: __ZNSt3__112basic_stringIcNS_11char_traitsIcEENS_9allocatorIcEEEC2B8ne200100Emc, symObjAddr: 0xDCC, symBinAddr: 0x4DB8, symSize: 0x9C }
  - { offset: 0xF981, size: 0x8, addend: 0x0, symName: __ZN8facebook5reactL14compareBucketsERKNS0_9MapBuffer6BucketES4_, symObjAddr: 0x894, symBinAddr: 0x56E8, symSize: 0x14 }
  - { offset: 0x150D5, size: 0x8, addend: 0x0, symName: __ZNSt3__111__introsortINS_17_ClassicAlgPolicyERPFbRKN8facebook5react9MapBuffer6BucketES7_EPS5_Lb0EEEvT1_SC_T0_NS_15iterator_traitsISC_E15difference_typeEb, symObjAddr: 0xACC, symBinAddr: 0x584C, symSize: 0xBAC }
  - { offset: 0x1656B, size: 0x8, addend: 0x0, symName: __ZNSt3__126__insertion_sort_unguardedB8ne200100INS_17_ClassicAlgPolicyERPFbRKN8facebook5react9MapBuffer6BucketES7_EPS5_EEvT1_SC_T0_, symObjAddr: 0x1A10, symBinAddr: 0x6790, symSize: 0xC8 }
  - { offset: 0x16687, size: 0x8, addend: 0x0, symName: __ZNSt3__111__sift_downB8ne200100INS_17_ClassicAlgPolicyERPFbRKN8facebook5react9MapBuffer6BucketES7_EPS5_EEvT1_OT0_NS_15iterator_traitsISC_E15difference_typeESC_, symObjAddr: 0x24D4, symBinAddr: 0x7254, symSize: 0x164 }
  - { offset: 0x167A9, size: 0x8, addend: 0x0, symName: __ZNSt3__131__partition_with_equals_on_leftB8ne200100INS_17_ClassicAlgPolicyEPN8facebook5react9MapBuffer6BucketERPFbRKS5_S8_EEET0_SC_SC_T1_, symObjAddr: 0x1AD8, symBinAddr: 0x6858, symSize: 0x15C }
  - { offset: 0x16957, size: 0x8, addend: 0x0, symName: __ZNSt3__132__partition_with_equals_on_rightB8ne200100INS_17_ClassicAlgPolicyEPN8facebook5react9MapBuffer6BucketERPFbRKS5_S8_EEENS_4pairIT0_bEESD_SD_T1_, symObjAddr: 0x1C34, symBinAddr: 0x69B4, symSize: 0x15C }
  - { offset: 0x16AFD, size: 0x8, addend: 0x0, symName: __ZNSt3__127__insertion_sort_incompleteB8ne200100INS_17_ClassicAlgPolicyERPFbRKN8facebook5react9MapBuffer6BucketES7_EPS5_EEbT1_SC_T0_, symObjAddr: 0x1D90, symBinAddr: 0x6B10, symSize: 0x50C }
  - { offset: 0x17F9C, size: 0x8, addend: 0x0, symName: __ZNSt3__119__allocate_at_leastB8ne200100INS_9allocatorIN8facebook5react9MapBuffer6BucketEEEEENS_19__allocation_resultINS_16allocator_traitsIT_E7pointerEEERS9_m, symObjAddr: 0x940, symBinAddr: 0x56FC, symSize: 0x44 }
  - { offset: 0x1858A, size: 0x8, addend: 0x0, symName: __ZNSt3__17__sort5B8ne200100INS_17_ClassicAlgPolicyERPFbRKN8facebook5react9MapBuffer6BucketES7_EPS5_Li0EEEvT1_SC_SC_SC_SC_T0_, symObjAddr: 0x1678, symBinAddr: 0x63F8, symSize: 0x2B4 }
  - { offset: 0x18C8B, size: 0x8, addend: 0x0, symName: __ZNSt3__116__insertion_sortB8ne200100INS_17_ClassicAlgPolicyERPFbRKN8facebook5react9MapBuffer6BucketES7_EPS5_EEvT1_SC_T0_, symObjAddr: 0x192C, symBinAddr: 0x66AC, symSize: 0xE4 }
  - { offset: 0x18D71, size: 0x8, addend: 0x0, symName: __ZNSt3__119__partial_sort_implB8ne200100INS_17_ClassicAlgPolicyERPFbRKN8facebook5react9MapBuffer6BucketES7_EPS5_SB_EET1_SC_SC_T2_OT0_, symObjAddr: 0x229C, symBinAddr: 0x701C, symSize: 0x238 }
  - { offset: 0x19237, size: 0x8, addend: 0x0, symName: __ZNSt3__19__sift_upB8ne200100INS_17_ClassicAlgPolicyERPFbRKN8facebook5react9MapBuffer6BucketES7_EPS5_EEvT1_SC_OT0_NS_15iterator_traitsISC_E15difference_typeE, symObjAddr: 0x2638, symBinAddr: 0x73B8, symSize: 0xCC }
  - { offset: 0x1AC18, size: 0x8, addend: 0x0, symName: __ZN8facebook5react16MapBufferBuilder5EMPTYEv, symObjAddr: 0x0, symBinAddr: 0x4E54, symSize: 0x70 }
  - { offset: 0x1AEEC, size: 0x8, addend: 0x0, symName: __ZN8facebook5react16MapBufferBuilderC2Ej, symObjAddr: 0x1F8, symBinAddr: 0x504C, symSize: 0x88 }
  - { offset: 0x1B1BF, size: 0x8, addend: 0x0, symName: __ZN8facebook5react16MapBufferBuilder5buildEv, symObjAddr: 0x74, symBinAddr: 0x4EC8, symSize: 0x144 }
  - { offset: 0x1B8A5, size: 0x8, addend: 0x0, symName: __ZN8facebook5react16MapBufferBuilderD1Ev, symObjAddr: 0x1B8, symBinAddr: 0x500C, symSize: 0x40 }
  - { offset: 0x1BB23, size: 0x8, addend: 0x0, symName: __ZN8facebook5react16MapBufferBuilderC1Ej, symObjAddr: 0x70, symBinAddr: 0x4EC4, symSize: 0x4 }
  - { offset: 0x1BB4D, size: 0x8, addend: 0x0, symName: __ZN8facebook5react16MapBufferBuilderC1Ej, symObjAddr: 0x70, symBinAddr: 0x4EC4, symSize: 0x4 }
  - { offset: 0x1BE33, size: 0x8, addend: 0x0, symName: __ZNSt3__16vectorIN8facebook5react9MapBuffer6BucketENS_9allocatorIS4_EEE7reserveEm, symObjAddr: 0x280, symBinAddr: 0x50D4, symSize: 0xAC }
  - { offset: 0x1C046, size: 0x8, addend: 0x0, symName: __ZN8facebook5react16MapBufferBuilder13storeKeyValueEtNS0_9MapBuffer8DataTypeEPKhj, symObjAddr: 0x32C, symBinAddr: 0x5180, symSize: 0x1BC }
  - { offset: 0x1C3D4, size: 0x8, addend: 0x0, symName: __ZN8facebook5react16MapBufferBuilder13storeKeyValueEtNS0_9MapBuffer8DataTypeEPKhj, symObjAddr: 0x32C, symBinAddr: 0x5180, symSize: 0x1BC }
  - { offset: 0x1C852, size: 0x8, addend: 0x0, symName: __ZN8facebook5react16MapBufferBuilder7putBoolEtb, symObjAddr: 0x4E8, symBinAddr: 0x533C, symSize: 0x2C }
  - { offset: 0x1C8D4, size: 0x8, addend: 0x0, symName: __ZN8facebook5react16MapBufferBuilder9putDoubleEtd, symObjAddr: 0x514, symBinAddr: 0x5368, symSize: 0x2C }
  - { offset: 0x1C947, size: 0x8, addend: 0x0, symName: __ZN8facebook5react16MapBufferBuilder6putIntEti, symObjAddr: 0x540, symBinAddr: 0x5394, symSize: 0x2C }
  - { offset: 0x1C9BA, size: 0x8, addend: 0x0, symName: __ZN8facebook5react16MapBufferBuilder7putLongEtx, symObjAddr: 0x56C, symBinAddr: 0x53C0, symSize: 0x2C }
  - { offset: 0x1CAC9, size: 0x8, addend: 0x0, symName: __ZN8facebook5react16MapBufferBuilder9putStringEtRKNSt3__112basic_stringIcNS2_11char_traitsIcEENS2_9allocatorIcEEEE, symObjAddr: 0x598, symBinAddr: 0x53EC, symSize: 0xD4 }
  - { offset: 0x1CC60, size: 0x8, addend: 0x0, symName: __ZNSt3__16vectorIhNS_9allocatorIhEEE8__appendEmRKh, symObjAddr: 0x9AC, symBinAddr: 0x5740, symSize: 0x10C }
  - { offset: 0x1D11B, size: 0x8, addend: 0x0, symName: __ZN8facebook5react16MapBufferBuilder12putMapBufferEtRKNS0_9MapBufferE, symObjAddr: 0x66C, symBinAddr: 0x54C0, symSize: 0xC8 }
  - { offset: 0x1D2AC, size: 0x8, addend: 0x0, symName: __ZN8facebook5react16MapBufferBuilder16putMapBufferListEtRKNSt3__16vectorINS0_9MapBufferENS2_9allocatorIS4_EEEE, symObjAddr: 0x734, symBinAddr: 0x5588, symSize: 0x160 }
  - { offset: 0x1DA2C, size: 0x8, addend: 0x0, symName: __ZNSt3__111__introsortINS_17_ClassicAlgPolicyERPFbRKN8facebook5react9MapBuffer6BucketES7_EPS5_Lb0EEEvT1_SC_T0_NS_15iterator_traitsISC_E15difference_typeEb, symObjAddr: 0xACC, symBinAddr: 0x584C, symSize: 0xBAC }
...
