---
triple:          'arm64-apple-darwin'
binary-path:     '/Users/uk-aplatts/Development/InjuryIQ/ios/DerivedData/Build/Intermediates.noindex/ArchiveIntermediates/InjuryIQ/IntermediateBuildFilesPath/UninstalledProducts/iphoneos/RNScreens.framework/RNScreens'
relocations:
  - { offset: 0x33, size: 0x8, addend: 0x0, symName: _RNScreensVersionString, symObjAddr: 0x0, symBinAddr: 0x48BB0, symSize: 0x0 }
  - { offset: 0x67, size: 0x8, addend: 0x0, symName: _RNScreensVersionNumber, symObjAddr: 0x28, symBinAddr: 0x48BD8, symSize: 0x0 }
  - { offset: 0xA3, size: 0x8, addend: 0x0, symName: '+[NSString(RNSUtility) rnscreens_isBlankOrNull:]', symObjAddr: 0x0, symBinAddr: 0x4000, symSize: 0xA0 }
  - { offset: 0xB0, size: 0x8, addend: 0x0, symName: '+[NSString(RNSUtility) rnscreens_isBlankOrNull:]', symObjAddr: 0x0, symBinAddr: 0x4000, symSize: 0xA0 }
  - { offset: 0xEF, size: 0x8, addend: 0x0, symName: '+[NSString(RNSUtility) rnscreens_isEmptyOrNull:]', symObjAddr: 0xA0, symBinAddr: 0x40A0, symSize: 0x54 }
  - { offset: 0x12E, size: 0x8, addend: 0x0, symName: '+[NSString(RNSUtility) rnscreens_stringOrNilIfBlank:]', symObjAddr: 0xF4, symBinAddr: 0x40F4, symSize: 0x5C }
  - { offset: 0x16D, size: 0x8, addend: 0x0, symName: '+[NSString(RNSUtility) rnscreens_stringOrNilIfEmpty:]', symObjAddr: 0x150, symBinAddr: 0x4150, symSize: 0x5C }
  - { offset: 0x551, size: 0x8, addend: 0x0, symName: '+[RCTConvert(RNSBottomTabs) UIOffset:]', symObjAddr: 0x0, symBinAddr: 0x41AC, symSize: 0xD8 }
  - { offset: 0x55E, size: 0x8, addend: 0x0, symName: '+[RCTConvert(RNSBottomTabs) UIOffset:]', symObjAddr: 0x0, symBinAddr: 0x41AC, symSize: 0xD8 }
  - { offset: 0x83E, size: 0x8, addend: 0x0, symName: __ZN8facebook5react17HostPlatformColorL14UndefinedColorE, symObjAddr: 0xDF3A8, symBinAddr: 0x7D560, symSize: 0x0 }
  - { offset: 0x36F80, size: 0x8, addend: 0x0, symName: '-[RCTImageComponentView(RNSScreenStackHeaderConfig) image]', symObjAddr: 0x0, symBinAddr: 0x4284, symSize: 0x14 }
  - { offset: 0x3703C, size: 0x8, addend: 0x0, symName: __GLOBAL__sub_I_RCTImageComponentView_RNSScreenStackHeaderConfig.mm, symObjAddr: 0x14, symBinAddr: 0x4298, symSize: 0x20 }
  - { offset: 0x3BC24, size: 0x8, addend: 0x0, symName: '-[RCTSurfaceTouchHandler(RNSUtility) rnscreens_cancelTouches]', symObjAddr: 0x0, symBinAddr: 0x42B8, symSize: 0x34 }
  - { offset: 0x3BC72, size: 0x8, addend: 0x0, symName: '-[RCTSurfaceTouchHandler(RNSUtility) rnscreens_cancelTouches]', symObjAddr: 0x0, symBinAddr: 0x42B8, symSize: 0x34 }
  - { offset: 0x3C013, size: 0x8, addend: 0x0, symName: '-[RNSBackBarButtonItem setMenuHidden:]', symObjAddr: 0x0, symBinAddr: 0x42EC, symSize: 0x10 }
  - { offset: 0x3C4F1, size: 0x8, addend: 0x0, symName: '-[RNSBackBarButtonItem setMenuHidden:]', symObjAddr: 0x0, symBinAddr: 0x42EC, symSize: 0x10 }
  - { offset: 0x3C52D, size: 0x8, addend: 0x0, symName: '-[RNSBackBarButtonItem setMenu:]', symObjAddr: 0x10, symBinAddr: 0x42FC, symSize: 0x70 }
  - { offset: 0x3C56D, size: 0x8, addend: 0x0, symName: '-[RNSBackBarButtonItem menuHidden]', symObjAddr: 0x80, symBinAddr: 0x436C, symSize: 0x10 }
  - { offset: 0x3C779, size: 0x8, addend: 0x0, symName: __ZN8facebook5react17HostPlatformColorL14UndefinedColorE, symObjAddr: 0x1A00F0, symBinAddr: 0x7D578, symSize: 0x0 }
  - { offset: 0x407A0, size: 0x8, addend: 0x0, symName: __ZN8facebook5react38concreteComponentDescriptorConstructorINS0_32RNSBottomTabsComponentDescriptorEEENSt3__110unique_ptrIKNS0_19ComponentDescriptorENS3_14default_deleteIS6_EEEERKNS0_29ComponentDescriptorParametersE, symObjAddr: 0x2078, symBinAddr: 0x62EC, symSize: 0x34 }
  - { offset: 0x64CAC, size: 0x8, addend: 0x0, symName: __ZNSt3__115allocate_sharedB8ne200100IKN8facebook5react18RNSBottomTabsPropsENS_9allocatorIS3_EEJELi0EEENS_10shared_ptrIT_EERKT0_DpOT1_, symObjAddr: 0xEF4, symBinAddr: 0x5270, symSize: 0x48 }
  - { offset: 0x65E44, size: 0x8, addend: 0x0, symName: __ZNSt3__112__destroy_atB8ne200100IN8facebook5react19AccessibilityActionELi0EEEvPT_, symObjAddr: 0x1D60, symBinAddr: 0x60DC, symSize: 0x50 }
  - { offset: 0x663D9, size: 0x8, addend: 0x0, symName: __ZNSt3__111make_uniqueB8ne200100IKN8facebook5react32RNSBottomTabsComponentDescriptorEJRKNS2_29ComponentDescriptorParametersEELi0EEENS_10unique_ptrIT_NS_14default_deleteIS9_EEEEDpOT0_, symObjAddr: 0x20AC, symBinAddr: 0x6320, symSize: 0xE4 }
  - { offset: 0x66DF0, size: 0x8, addend: 0x0, symName: __ZNSt3__115allocate_sharedB8ne200100IN8facebook5react23RNSBottomTabsShadowNodeENS_9allocatorIS3_EEJRKNS2_18ShadowNodeFragmentERKNS_10shared_ptrIKNS2_16ShadowNodeFamilyEEENS2_16ShadowNodeTraitsEELi0EEENS9_IT_EERKT0_DpOT1_, symObjAddr: 0x2EBC, symBinAddr: 0x7078, symSize: 0x70 }
  - { offset: 0x6712C, size: 0x8, addend: 0x0, symName: __ZNSt3__115allocate_sharedB8ne200100IN8facebook5react23RNSBottomTabsShadowNodeENS_9allocatorIS3_EEJRKNS2_10ShadowNodeERKNS2_18ShadowNodeFragmentEELi0EEENS_10shared_ptrIT_EERKT0_DpOT1_, symObjAddr: 0x35D8, symBinAddr: 0x7584, symSize: 0x60 }
  - { offset: 0x67AD1, size: 0x8, addend: 0x0, symName: __ZNSt3__115allocate_sharedB8ne200100IN8facebook5react13ConcreteStateINS2_18RNSBottomTabsStateEEENS_9allocatorIS5_EEJNS_10shared_ptrIKS4_EERKNS8_IKNS2_16ShadowNodeFamilyEEEELi0EEENS8_IT_EERKT0_DpOT1_, symObjAddr: 0x3B5C, symBinAddr: 0x79BC, symSize: 0x60 }
  - { offset: 0x67E17, size: 0x8, addend: 0x0, symName: __ZNSt3__115allocate_sharedB8ne200100IKN8facebook5react13ConcreteStateINS2_18RNSBottomTabsStateEEENS_9allocatorIS5_EEJNS_10shared_ptrIKS4_EERKNS2_5StateEELi0EEENS9_IT_EERKT0_DpOT1_, symObjAddr: 0x3EE8, symBinAddr: 0x7CF0, symSize: 0x60 }
  - { offset: 0x685D5, size: 0x8, addend: 0x0, symName: __ZNSt3__115allocate_sharedB8ne200100IN8facebook5react11EventTargetENS_9allocatorIS3_EEJRKNS_10shared_ptrIKNS2_14InstanceHandleEEERKiELi0EEENS6_IT_EERKT0_DpOT1_, symObjAddr: 0x4564, symBinAddr: 0x82BC, symSize: 0x60 }
  - { offset: 0x68899, size: 0x8, addend: 0x0, symName: __ZNSt3__115allocate_sharedB8ne200100IKN8facebook5react25RNSBottomTabsEventEmitterENS_9allocatorIS3_EEJNS_10shared_ptrINS2_11EventTargetEEERKNS_8weak_ptrIKNS2_15EventDispatcherEEEELi0EEENS7_IT_EERKT0_DpOT1_, symObjAddr: 0x40FC, symBinAddr: 0x7F04, symSize: 0x60 }
  - { offset: 0x68B5D, size: 0x8, addend: 0x0, symName: __ZNSt3__115allocate_sharedB8ne200100IN8facebook5react16ShadowNodeFamilyENS_9allocatorIS3_EEJRKNS2_24ShadowNodeFamilyFragmentERNS_10shared_ptrIKNS2_25RNSBottomTabsEventEmitterEEERKNS_8weak_ptrIKNS2_15EventDispatcherEEERKNS2_27ConcreteComponentDescriptorINS2_23RNSBottomTabsShadowNodeEEEELi0EEENS9_IT_EERKT0_DpOT1_, symObjAddr: 0x47C8, symBinAddr: 0x8470, symSize: 0x78 }
  - { offset: 0x68FB5, size: 0x8, addend: 0x0, symName: __ZNSt3__112__destroy_atB8ne200100INS_4pairIKNS_12basic_stringIcNS_11char_traitsIcEENS_9allocatorIcEEEENS_10shared_ptrIvEEEELi0EEEvPT_, symObjAddr: 0x2C78, symBinAddr: 0x6EEC, symSize: 0x3C }
  - { offset: 0x697FD, size: 0x8, addend: 0x0, symName: __ZNSt3__112__destroy_atB8ne200100IN8facebook5react23RNSBottomTabsShadowNodeELi0EEEvPT_, symObjAddr: 0x3510, symBinAddr: 0x7514, symSize: 0x70 }
  - { offset: 0x69ED1, size: 0x8, addend: 0x0, symName: __ZNSt3__115allocate_sharedB8ne200100IN8facebook5react18RNSBottomTabsPropsENS_9allocatorIS3_EEJRKNS2_18PropsParserContextERKS3_RKNS2_8RawPropsEELi0EEENS_10shared_ptrIT_EERKT0_DpOT1_, symObjAddr: 0x37F8, symBinAddr: 0x774C, symSize: 0x70 }
  - { offset: 0x6A72E, size: 0x8, addend: 0x0, symName: __ZNSt3__120__throw_length_errorB8ne200100EPKc, symObjAddr: 0x3A90, symBinAddr: 0x7948, symSize: 0x50 }
  - { offset: 0x6AC17, size: 0x8, addend: 0x0, symName: __ZNSt3__112construct_atB8ne200100IN8facebook5react13ConcreteStateINS2_18RNSBottomTabsStateEEEJNS_10shared_ptrIKS4_EERKNS6_IKNS2_16ShadowNodeFamilyEEEEPS5_EEPT_SG_DpOT0_, symObjAddr: 0x3C50, symBinAddr: 0x7AB0, symSize: 0xC8 }
  - { offset: 0x6B3A5, size: 0x8, addend: 0x0, symName: __ZNSt3__112construct_atB8ne200100IN8facebook5react13ConcreteStateINS2_18RNSBottomTabsStateEEEJNS_10shared_ptrIKS4_EERKNS2_5StateEEPS5_EEPT_SE_DpOT0_, symObjAddr: 0x3FDC, symBinAddr: 0x7DE4, symSize: 0x88 }
  - { offset: 0x6BA00, size: 0x8, addend: 0x0, symName: __ZNSt3__112construct_atB8ne200100IN8facebook5react25RNSBottomTabsEventEmitterEJNS_10shared_ptrINS2_11EventTargetEEERKNS_8weak_ptrIKNS2_15EventDispatcherEEEEPS3_EEPT_SF_DpOT0_, symObjAddr: 0x41F0, symBinAddr: 0x7FF8, symSize: 0x140 }
  - { offset: 0x6C991, size: 0x8, addend: 0x0, symName: __ZNSt3__112construct_atB8ne200100IN8facebook5react11EventTargetEJRKNS_10shared_ptrIKNS2_14InstanceHandleEEERKiEPS3_EEPT_SE_DpOT0_, symObjAddr: 0x4674, symBinAddr: 0x83CC, symSize: 0xA4 }
  - { offset: 0x6D05D, size: 0x8, addend: 0x0, symName: __ZNSt3__112construct_atB8ne200100IN8facebook5react16ShadowNodeFamilyEJRKNS2_24ShadowNodeFamilyFragmentERNS_10shared_ptrIKNS2_25RNSBottomTabsEventEmitterEEERKNS_8weak_ptrIKNS2_15EventDispatcherEEERKNS2_27ConcreteComponentDescriptorINS2_23RNSBottomTabsShadowNodeEEEEPS3_EEPT_SP_DpOT0_, symObjAddr: 0x48D0, symBinAddr: 0x8578, symSize: 0xDC }
  - { offset: 0x6D599, size: 0x8, addend: 0x0, symName: __ZNSt3__120__throw_out_of_rangeB8ne200100EPKc, symObjAddr: 0x4B04, symBinAddr: 0x86FC, symSize: 0x50 }
  - { offset: 0x6F902, size: 0x8, addend: 0x0, symName: '-[RNSBottomTabsHostComponentView resetProps]', symObjAddr: 0x16C, symBinAddr: 0x44E8, symSize: 0xC8 }
  - { offset: 0x6F928, size: 0x8, addend: 0x0, symName: '__ZZ44-[RNSBottomTabsHostComponentView resetProps]E12defaultProps', symObjAddr: 0x1A0108, symBinAddr: 0x7D590, symSize: 0x0 }
  - { offset: 0x717BB, size: 0x8, addend: 0x0, symName: __ZN5folly6detail16throw_exception_INS_9TypeErrorEJPKcNS_7dynamic4TypeEEEEvDpT0_, symObjAddr: 0x3900, symBinAddr: 0x3EC40, symSize: 0x68 }
  - { offset: 0x71B54, size: 0x8, addend: 0x0, symName: __ZN5folly15throw_exceptionINS_9TypeErrorEEEvOT_, symObjAddr: 0x3968, symBinAddr: 0x3ECA8, symSize: 0x34 }
  - { offset: 0x7404A, size: 0x8, addend: 0x0, symName: __ZN8facebook5react18ConcreteShadowNodeIXadL_ZNS0_26RNSBottomTabsComponentNameEEENS0_24YogaLayoutableShadowNodeENS0_18RNSBottomTabsPropsENS0_25RNSBottomTabsEventEmitterENS0_18RNSBottomTabsStateEE18defaultSharedPropsEv, symObjAddr: 0x3704, symBinAddr: 0x7658, symSize: 0x9C }
  - { offset: 0x7406A, size: 0x8, addend: 0x0, symName: __ZZN8facebook5react18ConcreteShadowNodeIXadL_ZNS0_26RNSBottomTabsComponentNameEEENS0_24YogaLayoutableShadowNodeENS0_18RNSBottomTabsPropsENS0_25RNSBottomTabsEventEmitterENS0_18RNSBottomTabsStateEE18defaultSharedPropsEvE18defaultSharedProps, symObjAddr: 0x6C18, symBinAddr: 0x7CAC8, symSize: 0x0 }
  - { offset: 0x7753B, size: 0x8, addend: 0x0, symName: '-[RNSBottomTabsHostComponentView initWithFrame:]', symObjAddr: 0x0, symBinAddr: 0x437C, symSize: 0x68 }
  - { offset: 0x7757C, size: 0x8, addend: 0x0, symName: '-[RNSBottomTabsHostComponentView controller]', symObjAddr: 0x68, symBinAddr: 0x43E4, symSize: 0x10 }
  - { offset: 0x775B1, size: 0x8, addend: 0x0, symName: '-[RNSBottomTabsHostComponentView initState]', symObjAddr: 0x78, symBinAddr: 0x43F4, symSize: 0xF4 }
  - { offset: 0x775E2, size: 0x8, addend: 0x0, symName: __ZNSt3__110shared_ptrIKN8facebook5react13BaseViewPropsEEaSB8ne200100IKNS2_18RNSBottomTabsPropsELi0EEERS5_RKNS0_IT_EE, symObjAddr: 0x238, symBinAddr: 0x45B4, symSize: 0x78 }
  - { offset: 0x777BB, size: 0x8, addend: 0x0, symName: __ZNSt3__110shared_ptrIKN8facebook5react18RNSBottomTabsPropsEED1B8ne200100Ev, symObjAddr: 0x234, symBinAddr: 0x45B0, symSize: 0x4 }
  - { offset: 0x777DF, size: 0x8, addend: 0x0, symName: __ZNSt3__110shared_ptrIKN8facebook5react18RNSBottomTabsPropsEED1B8ne200100Ev, symObjAddr: 0x234, symBinAddr: 0x45B0, symSize: 0x4 }
  - { offset: 0x77976, size: 0x8, addend: 0x0, symName: '-[RNSBottomTabsHostComponentView willMoveToWindow:]', symObjAddr: 0x2B0, symBinAddr: 0x462C, symSize: 0x44 }
  - { offset: 0x779B6, size: 0x8, addend: 0x0, symName: '-[RNSBottomTabsHostComponentView didMoveToWindow]', symObjAddr: 0x2F4, symBinAddr: 0x4670, symSize: 0x4C }
  - { offset: 0x779E7, size: 0x8, addend: 0x0, symName: '-[RNSBottomTabsHostComponentView reactAddControllerToClosestParent:]', symObjAddr: 0x340, symBinAddr: 0x46BC, symSize: 0x138 }
  - { offset: 0x77A3E, size: 0x8, addend: 0x0, symName: '-[RNSBottomTabsHostComponentView updateContainer]', symObjAddr: 0x478, symBinAddr: 0x47F4, symSize: 0x18C }
  - { offset: 0x77A96, size: 0x8, addend: 0x0, symName: '-[RNSBottomTabsHostComponentView markChildUpdated]', symObjAddr: 0x604, symBinAddr: 0x4980, symSize: 0x4 }
  - { offset: 0x77AC6, size: 0x8, addend: 0x0, symName: '-[RNSBottomTabsHostComponentView invalidateController]', symObjAddr: 0x608, symBinAddr: 0x4984, symSize: 0x14 }
  - { offset: 0x77AF5, size: 0x8, addend: 0x0, symName: '-[RNSBottomTabsHostComponentView shouldInvalidateOnMutation:]', symObjAddr: 0x61C, symBinAddr: 0x4998, symSize: 0x38 }
  - { offset: 0x77B39, size: 0x8, addend: 0x0, symName: '-[RNSBottomTabsHostComponentView reactEventEmitter]', symObjAddr: 0x654, symBinAddr: 0x49D0, symSize: 0x10 }
  - { offset: 0x77BAF, size: 0x8, addend: 0x0, symName: '-[RNSBottomTabsHostComponentView emitOnNativeFocusChangeRequestSelectedTabScreen:]', symObjAddr: 0x664, symBinAddr: 0x49E0, symSize: 0x6C }
  - { offset: 0x77C1F, size: 0x8, addend: 0x0, symName: '-[RNSBottomTabsHostComponentView mountChildComponentView:index:]', symObjAddr: 0x6D0, symBinAddr: 0x4A4C, symSize: 0x8C }
  - { offset: 0x77C7A, size: 0x8, addend: 0x0, symName: '-[RNSBottomTabsHostComponentView unmountChildComponentView:index:]', symObjAddr: 0x75C, symBinAddr: 0x4AD8, symSize: 0x84 }
  - { offset: 0x77E6E, size: 0x8, addend: 0x0, symName: '-[RNSBottomTabsHostComponentView updateProps:oldProps:]', symObjAddr: 0x7E0, symBinAddr: 0x4B5C, symSize: 0x1D4 }
  - { offset: 0x783A4, size: 0x8, addend: 0x0, symName: '-[RNSBottomTabsHostComponentView updateState:oldState:]', symObjAddr: 0x9B4, symBinAddr: 0x4D30, symSize: 0x110 }
  - { offset: 0x78883, size: 0x8, addend: 0x0, symName: '-[RNSBottomTabsHostComponentView updateEventEmitter:]', symObjAddr: 0xAC4, symBinAddr: 0x4E40, symSize: 0xC4 }
  - { offset: 0x78B0C, size: 0x8, addend: 0x0, symName: '-[RNSBottomTabsHostComponentView finalizeUpdates:]', symObjAddr: 0xB88, symBinAddr: 0x4F04, symSize: 0x74 }
  - { offset: 0x78BE9, size: 0x8, addend: 0x0, symName: '+[RNSBottomTabsHostComponentView componentDescriptorProvider]', symObjAddr: 0xBFC, symBinAddr: 0x4F78, symSize: 0x20 }
  - { offset: 0x78C1E, size: 0x8, addend: 0x0, symName: '+[RNSBottomTabsHostComponentView componentDescriptorProvider]', symObjAddr: 0xBFC, symBinAddr: 0x4F78, symSize: 0x20 }
  - { offset: 0x78C82, size: 0x8, addend: 0x0, symName: '+[RNSBottomTabsHostComponentView shouldBeRecycled]', symObjAddr: 0xC1C, symBinAddr: 0x4F98, symSize: 0x8 }
  - { offset: 0x78CE8, size: 0x8, addend: 0x0, symName: '-[RNSBottomTabsHostComponentView mountingTransactionWillMount:withSurfaceTelemetry:]', symObjAddr: 0xC24, symBinAddr: 0x4FA0, symSize: 0x19C }
  - { offset: 0x78DCE, size: 0x8, addend: 0x0, symName: '-[RNSBottomTabsHostComponentView mountingTransactionDidMount:withSurfaceTelemetry:]', symObjAddr: 0xDC0, symBinAddr: 0x513C, symSize: 0x44 }
  - { offset: 0x78E1A, size: 0x8, addend: 0x0, symName: '-[RNSBottomTabsHostComponentView reactImageLoader]', symObjAddr: 0xE04, symBinAddr: 0x5180, symSize: 0x10 }
  - { offset: 0x78E50, size: 0x8, addend: 0x0, symName: '-[RNSBottomTabsHostComponentView tabBarTintColor]', symObjAddr: 0xE14, symBinAddr: 0x5190, symSize: 0x10 }
  - { offset: 0x78E86, size: 0x8, addend: 0x0, symName: '-[RNSBottomTabsHostComponentView experimental_controlNavigationStateInJS]', symObjAddr: 0xE24, symBinAddr: 0x51A0, symSize: 0x10 }
  - { offset: 0x78EBC, size: 0x8, addend: 0x0, symName: '-[RNSBottomTabsHostComponentView tabBarMinimizeBehavior]', symObjAddr: 0xE34, symBinAddr: 0x51B0, symSize: 0x10 }
  - { offset: 0x78EF2, size: 0x8, addend: 0x0, symName: '-[RNSBottomTabsHostComponentView .cxx_destruct]', symObjAddr: 0xE44, symBinAddr: 0x51C0, symSize: 0xA4 }
  - { offset: 0x78F23, size: 0x8, addend: 0x0, symName: __Z16RNSBottomTabsClsv, symObjAddr: 0xEE8, symBinAddr: 0x5264, symSize: 0xC }
  - { offset: 0x79176, size: 0x8, addend: 0x0, symName: __ZNSt3__120__shared_ptr_emplaceIKN8facebook5react18RNSBottomTabsPropsENS_9allocatorIS3_EEEC2B8ne200100IJES6_Li0EEES6_DpOT_, symObjAddr: 0xF3C, symBinAddr: 0x52B8, symSize: 0x58 }
  - { offset: 0x792FF, size: 0x8, addend: 0x0, symName: __ZN8facebook5react18RNSBottomTabsPropsC1Ev, symObjAddr: 0xFE0, symBinAddr: 0x535C, symSize: 0x21C }
  - { offset: 0x79B14, size: 0x8, addend: 0x0, symName: __ZNSt3__120__shared_ptr_emplaceIKN8facebook5react18RNSBottomTabsPropsENS_9allocatorIS3_EEED1Ev, symObjAddr: 0xF94, symBinAddr: 0x5310, symSize: 0x14 }
  - { offset: 0x79B38, size: 0x8, addend: 0x0, symName: __ZNSt3__120__shared_ptr_emplaceIKN8facebook5react18RNSBottomTabsPropsENS_9allocatorIS3_EEED1Ev, symObjAddr: 0xF94, symBinAddr: 0x5310, symSize: 0x14 }
  - { offset: 0x79B6E, size: 0x8, addend: 0x0, symName: __ZNSt3__120__shared_ptr_emplaceIKN8facebook5react18RNSBottomTabsPropsENS_9allocatorIS3_EEED0Ev, symObjAddr: 0xFA8, symBinAddr: 0x5324, symSize: 0x24 }
  - { offset: 0x79C5C, size: 0x8, addend: 0x0, symName: __ZNSt3__120__shared_ptr_emplaceIKN8facebook5react18RNSBottomTabsPropsENS_9allocatorIS3_EEE16__on_zero_sharedEv, symObjAddr: 0xFCC, symBinAddr: 0x5348, symSize: 0x10 }
  - { offset: 0x79C85, size: 0x8, addend: 0x0, symName: __ZNSt3__120__shared_ptr_emplaceIKN8facebook5react18RNSBottomTabsPropsENS_9allocatorIS3_EEE16__on_zero_sharedEv, symObjAddr: 0xFCC, symBinAddr: 0x5348, symSize: 0x10 }
  - { offset: 0x79CF9, size: 0x8, addend: 0x0, symName: __ZN8facebook5react18RNSBottomTabsPropsD2Ev, symObjAddr: 0x1ED8, symBinAddr: 0x6254, symSize: 0x98 }
  - { offset: 0x7A4B4, size: 0x8, addend: 0x0, symName: __ZNSt3__120__shared_ptr_emplaceIKN8facebook5react18RNSBottomTabsPropsENS_9allocatorIS3_EEE21__on_zero_shared_weakEv, symObjAddr: 0xFDC, symBinAddr: 0x5358, symSize: 0x4 }
  - { offset: 0x7A4E8, size: 0x8, addend: 0x0, symName: __ZNSt3__120__shared_ptr_emplaceIKN8facebook5react18RNSBottomTabsPropsENS_9allocatorIS3_EEE21__on_zero_shared_weakEv, symObjAddr: 0xFDC, symBinAddr: 0x5358, symSize: 0x4 }
  - { offset: 0x7A50C, size: 0x8, addend: 0x0, symName: __ZNSt3__120__shared_ptr_emplaceIKN8facebook5react18RNSBottomTabsPropsENS_9allocatorIS3_EEE21__on_zero_shared_weakEv, symObjAddr: 0xFDC, symBinAddr: 0x5358, symSize: 0x4 }
  - { offset: 0x7A531, size: 0x8, addend: 0x0, symName: __ZNSt3__120__shared_ptr_emplaceIKN8facebook5react18RNSBottomTabsPropsENS_9allocatorIS3_EEE21__on_zero_shared_weakEv, symObjAddr: 0xFDC, symBinAddr: 0x5358, symSize: 0x4 }
  - { offset: 0x7A569, size: 0x8, addend: 0x0, symName: __ZNSt3__120__shared_ptr_emplaceIKN8facebook5react18RNSBottomTabsPropsENS_9allocatorIS3_EEE21__on_zero_shared_weakEv, symObjAddr: 0xFDC, symBinAddr: 0x5358, symSize: 0x4 }
  - { offset: 0x7A656, size: 0x8, addend: 0x0, symName: __ZN8facebook5react13BaseViewPropsC2Ev, symObjAddr: 0x11FC, symBinAddr: 0x5578, symSize: 0x2E4 }
  - { offset: 0x7D660, size: 0x8, addend: 0x0, symName: __ZN8facebook5react17YogaStylablePropsC2Ev, symObjAddr: 0x1740, symBinAddr: 0x5ABC, symSize: 0xF0 }
  - { offset: 0x7D698, size: 0x8, addend: 0x0, symName: __ZN8facebook5react17YogaStylablePropsC2Ev, symObjAddr: 0x1740, symBinAddr: 0x5ABC, symSize: 0xF0 }
  - { offset: 0x7E677, size: 0x8, addend: 0x0, symName: __ZN8facebook5react13BaseViewPropsD2Ev, symObjAddr: 0x14E0, symBinAddr: 0x585C, symSize: 0xD0 }
  - { offset: 0x7EE93, size: 0x8, addend: 0x0, symName: __ZNSt3__16vectorINS_7variantIJN8facebook5react14LinearGradientENS3_14RadialGradientEEEENS_9allocatorIS6_EEE16__destroy_vectorclB8ne200100Ev, symObjAddr: 0x1914, symBinAddr: 0x5C90, symSize: 0x70 }
  - { offset: 0x7F159, size: 0x8, addend: 0x0, symName: __ZNSt3__16vectorIN8facebook5react14FilterFunctionENS_9allocatorIS3_EEE16__destroy_vectorclB8ne200100Ev, symObjAddr: 0x1A98, symBinAddr: 0x5E14, symSize: 0x74 }
  - { offset: 0x7F471, size: 0x8, addend: 0x0, symName: __ZNSt3__16vectorIN8facebook5react9BoxShadowENS_9allocatorIS3_EEE16__destroy_vectorclB8ne200100Ev, symObjAddr: 0x1B6C, symBinAddr: 0x5EE8, symSize: 0x74 }
  - { offset: 0x7F6B5, size: 0x8, addend: 0x0, symName: __ZNSt3__110shared_ptrIvED2B8ne200100Ev, symObjAddr: 0x1E80, symBinAddr: 0x61FC, symSize: 0x58 }
  - { offset: 0x7F747, size: 0x8, addend: 0x0, symName: __ZN8facebook5react22CascadedRectangleEdgesINS0_11SharedColorEED2Ev, symObjAddr: 0x1BE0, symBinAddr: 0x5F5C, symSize: 0x110 }
  - { offset: 0x8075A, size: 0x8, addend: 0x0, symName: __ZN8facebook5react18AccessibilityPropsD2Ev, symObjAddr: 0x1830, symBinAddr: 0x5BAC, symSize: 0xD4 }
  - { offset: 0x812D3, size: 0x8, addend: 0x0, symName: __ZNKSt3__114default_deleteIN8facebook4yoga16SmallValueBufferILm4EE8OverflowEEclB8ne200100EPS5_, symObjAddr: 0x1E3C, symBinAddr: 0x61B8, symSize: 0x44 }
  - { offset: 0x81559, size: 0x8, addend: 0x0, symName: __ZN8facebook5react13BaseViewPropsD1Ev, symObjAddr: 0x15B0, symBinAddr: 0x592C, symSize: 0xC }
  - { offset: 0x815B1, size: 0x8, addend: 0x0, symName: __ZN8facebook5react13BaseViewPropsD0Ev, symObjAddr: 0x15BC, symBinAddr: 0x5938, symSize: 0x1C }
  - { offset: 0x81611, size: 0x8, addend: 0x0, symName: __ZN8facebook5react17YogaStylablePropsD1Ev, symObjAddr: 0x15D8, symBinAddr: 0x5954, symSize: 0x60 }
  - { offset: 0x818E5, size: 0x8, addend: 0x0, symName: __ZN8facebook5react17YogaStylablePropsD0Ev, symObjAddr: 0x1638, symBinAddr: 0x59B4, symSize: 0x60 }
  - { offset: 0x81BC5, size: 0x8, addend: 0x0, symName: __ZN8facebook5react5PropsD1Ev, symObjAddr: 0x1698, symBinAddr: 0x5A14, symSize: 0x40 }
  - { offset: 0x81D38, size: 0x8, addend: 0x0, symName: __ZN8facebook5react5PropsD0Ev, symObjAddr: 0x16D8, symBinAddr: 0x5A54, symSize: 0x40 }
  - { offset: 0x81EB7, size: 0x8, addend: 0x0, symName: __ZN8facebook5react18RNSBottomTabsPropsD1Ev, symObjAddr: 0x1718, symBinAddr: 0x5A94, symSize: 0xC }
  - { offset: 0x81EEF, size: 0x8, addend: 0x0, symName: __ZN8facebook5react18RNSBottomTabsPropsD0Ev, symObjAddr: 0x1724, symBinAddr: 0x5AA0, symSize: 0x1C }
  - { offset: 0x82367, size: 0x8, addend: 0x0, symName: __ZNSt3__16vectorIN8facebook5react19AccessibilityActionENS_9allocatorIS3_EEE16__destroy_vectorclB8ne200100Ev, symObjAddr: 0x1CF0, symBinAddr: 0x606C, symSize: 0x70 }
  - { offset: 0x824B9, size: 0x8, addend: 0x0, symName: __ZNSt3__16vectorINS_12basic_stringIcNS_11char_traitsIcEENS_9allocatorIcEEEENS4_IS6_EEE16__destroy_vectorclB8ne200100Ev, symObjAddr: 0x1DB0, symBinAddr: 0x612C, symSize: 0x40 }
  - { offset: 0x827C0, size: 0x8, addend: 0x0, symName: __ZNSt3__116__variant_detail6__dtorINS0_8__traitsIJN8facebook5react14LinearGradientENS4_14RadialGradientEEEELNS0_6_TraitE1EE9__destroyB8ne200100Ev, symObjAddr: 0x1984, symBinAddr: 0x5D00, symSize: 0x54 }
  - { offset: 0x82B62, size: 0x8, addend: 0x0, symName: __ZNSt3__116__variant_detail12__visitation6__base12__dispatcherIJLm0EEE10__dispatchB8ne200100IOZNS0_6__dtorINS0_8__traitsIJN8facebook5react14LinearGradientENS9_14RadialGradientEEEELNS0_6_TraitE1EE9__destroyB8ne200100EvEUlRT_E_JRNS0_6__baseILSD_1EJSA_SB_EEEEEEDcSF_DpT0_, symObjAddr: 0x19D8, symBinAddr: 0x5D54, symSize: 0x28 }
  - { offset: 0x82D0C, size: 0x8, addend: 0x0, symName: __ZNSt3__16vectorIN8facebook5react9ColorStopENS_9allocatorIS3_EEE16__destroy_vectorclB8ne200100Ev, symObjAddr: 0x1A28, symBinAddr: 0x5DA4, symSize: 0x70 }
  - { offset: 0x82FFF, size: 0x8, addend: 0x0, symName: __ZNSt3__116__variant_detail12__visitation6__base12__dispatcherIJLm1EEE10__dispatchB8ne200100IOZNS0_6__dtorINS0_8__traitsIJN8facebook5react14LinearGradientENS9_14RadialGradientEEEELNS0_6_TraitE1EE9__destroyB8ne200100EvEUlRT_E_JRNS0_6__baseILSD_1EJSA_SB_EEEEEEDcSF_DpT0_, symObjAddr: 0x1A00, symBinAddr: 0x5D7C, symSize: 0x28 }
  - { offset: 0x83577, size: 0x8, addend: 0x0, symName: __ZNSt3__116__variant_detail6__dtorINS0_8__traitsIJdN8facebook5react16DropShadowParamsEEEELNS0_6_TraitE1EE9__destroyB8ne200100Ev, symObjAddr: 0x1B0C, symBinAddr: 0x5E88, symSize: 0x54 }
  - { offset: 0x837B0, size: 0x8, addend: 0x0, symName: __ZNSt3__116__variant_detail12__visitation6__base12__dispatcherIJLm0EEE10__dispatchB8ne200100IOZNS0_6__dtorINS0_8__traitsIJdN8facebook5react16DropShadowParamsEEEELNS0_6_TraitE1EE9__destroyB8ne200100EvEUlRT_E_JRNS0_6__baseILSC_1EJdSA_EEEEEEDcSE_DpT0_, symObjAddr: 0x1B60, symBinAddr: 0x5EDC, symSize: 0x4 }
  - { offset: 0x838BF, size: 0x8, addend: 0x0, symName: __ZNSt3__116__variant_detail12__visitation6__base12__dispatcherIJLm1EEE10__dispatchB8ne200100IOZNS0_6__dtorINS0_8__traitsIJdN8facebook5react16DropShadowParamsEEEELNS0_6_TraitE1EE9__destroyB8ne200100EvEUlRT_E_JRNS0_6__baseILSC_1EJdSA_EEEEEEDcSE_DpT0_, symObjAddr: 0x1B64, symBinAddr: 0x5EE0, symSize: 0x8 }
  - { offset: 0x838F7, size: 0x8, addend: 0x0, symName: __ZNSt3__116__variant_detail12__visitation6__base12__dispatcherIJLm1EEE10__dispatchB8ne200100IOZNS0_6__dtorINS0_8__traitsIJdN8facebook5react16DropShadowParamsEEEELNS0_6_TraitE1EE9__destroyB8ne200100EvEUlRT_E_JRNS0_6__baseILSC_1EJdSA_EEEEEEDcSE_DpT0_, symObjAddr: 0x1B64, symBinAddr: 0x5EE0, symSize: 0x8 }
  - { offset: 0x8391F, size: 0x8, addend: 0x0, symName: __ZNSt3__116__variant_detail12__visitation6__base12__dispatcherIJLm1EEE10__dispatchB8ne200100IOZNS0_6__dtorINS0_8__traitsIJdN8facebook5react16DropShadowParamsEEEELNS0_6_TraitE1EE9__destroyB8ne200100EvEUlRT_E_JRNS0_6__baseILSC_1EJdSA_EEEEEEDcSE_DpT0_, symObjAddr: 0x1B64, symBinAddr: 0x5EE0, symSize: 0x8 }
  - { offset: 0x83947, size: 0x8, addend: 0x0, symName: __ZNSt3__116__variant_detail12__visitation6__base12__dispatcherIJLm1EEE10__dispatchB8ne200100IOZNS0_6__dtorINS0_8__traitsIJdN8facebook5react16DropShadowParamsEEEELNS0_6_TraitE1EE9__destroyB8ne200100EvEUlRT_E_JRNS0_6__baseILSC_1EJdSA_EEEEEEDcSE_DpT0_, symObjAddr: 0x1B64, symBinAddr: 0x5EE0, symSize: 0x8 }
  - { offset: 0x83965, size: 0x8, addend: 0x0, symName: __ZNSt3__116__variant_detail12__visitation6__base12__dispatcherIJLm1EEE10__dispatchB8ne200100IOZNS0_6__dtorINS0_8__traitsIJdN8facebook5react16DropShadowParamsEEEELNS0_6_TraitE1EE9__destroyB8ne200100EvEUlRT_E_JRNS0_6__baseILSC_1EJdSA_EEEEEEDcSE_DpT0_, symObjAddr: 0x1B64, symBinAddr: 0x5EE0, symSize: 0x8 }
  - { offset: 0x83983, size: 0x8, addend: 0x0, symName: __ZNSt3__116__variant_detail12__visitation6__base12__dispatcherIJLm1EEE10__dispatchB8ne200100IOZNS0_6__dtorINS0_8__traitsIJdN8facebook5react16DropShadowParamsEEEELNS0_6_TraitE1EE9__destroyB8ne200100EvEUlRT_E_JRNS0_6__baseILSC_1EJdSA_EEEEEEDcSE_DpT0_, symObjAddr: 0x1B64, symBinAddr: 0x5EE0, symSize: 0x8 }
  - { offset: 0x839A1, size: 0x8, addend: 0x0, symName: __ZNSt3__116__variant_detail12__visitation6__base12__dispatcherIJLm1EEE10__dispatchB8ne200100IOZNS0_6__dtorINS0_8__traitsIJdN8facebook5react16DropShadowParamsEEEELNS0_6_TraitE1EE9__destroyB8ne200100EvEUlRT_E_JRNS0_6__baseILSC_1EJdSA_EEEEEEDcSE_DpT0_, symObjAddr: 0x1B64, symBinAddr: 0x5EE0, symSize: 0x8 }
  - { offset: 0x83E0D, size: 0x8, addend: 0x0, symName: __ZNSt3__16vectorINS_12basic_stringIcNS_11char_traitsIcEENS_9allocatorIcEEEENS4_IS6_EEE5clearB8ne200100Ev, symObjAddr: 0x1DF0, symBinAddr: 0x616C, symSize: 0x4C }
  - { offset: 0x847A6, size: 0x8, addend: 0x0, symName: __ZN8facebook5react14RawPropsParser7prepareINS0_18RNSBottomTabsPropsEEEvv, symObjAddr: 0x2A20, symBinAddr: 0x6C94, symSize: 0x1C8 }
  - { offset: 0x84EA2, size: 0x8, addend: 0x0, symName: __ZN8facebook5react14RawPropsParserD1Ev, symObjAddr: 0x2190, symBinAddr: 0x6404, symSize: 0x50 }
  - { offset: 0x852FC, size: 0x8, addend: 0x0, symName: __ZN8facebook5react32RNSBottomTabsComponentDescriptorD1Ev, symObjAddr: 0x21E0, symBinAddr: 0x6454, symSize: 0x4 }
  - { offset: 0x85320, size: 0x8, addend: 0x0, symName: __ZN8facebook5react32RNSBottomTabsComponentDescriptorD1Ev, symObjAddr: 0x21E0, symBinAddr: 0x6454, symSize: 0x4 }
  - { offset: 0x8533D, size: 0x8, addend: 0x0, symName: __ZN8facebook5react32RNSBottomTabsComponentDescriptorD1Ev, symObjAddr: 0x21E0, symBinAddr: 0x6454, symSize: 0x4 }
  - { offset: 0x8535C, size: 0x8, addend: 0x0, symName: __ZN8facebook5react32RNSBottomTabsComponentDescriptorD1Ev, symObjAddr: 0x21E0, symBinAddr: 0x6454, symSize: 0x4 }
  - { offset: 0x85370, size: 0x8, addend: 0x0, symName: __ZN8facebook5react19ComponentDescriptorD2Ev, symObjAddr: 0x2D88, symBinAddr: 0x6FFC, symSize: 0x7C }
  - { offset: 0x85882, size: 0x8, addend: 0x0, symName: __ZN8facebook5react32RNSBottomTabsComponentDescriptorD0Ev, symObjAddr: 0x21E4, symBinAddr: 0x6458, symSize: 0x14 }
  - { offset: 0x8591E, size: 0x8, addend: 0x0, symName: __ZNK8facebook5react27ConcreteComponentDescriptorINS0_23RNSBottomTabsShadowNodeEE18getComponentHandleEv, symObjAddr: 0x21F8, symBinAddr: 0x646C, symSize: 0xC }
  - { offset: 0x85944, size: 0x8, addend: 0x0, symName: __ZNK8facebook5react27ConcreteComponentDescriptorINS0_23RNSBottomTabsShadowNodeEE16getComponentNameEv, symObjAddr: 0x2204, symBinAddr: 0x6478, symSize: 0xC }
  - { offset: 0x8596A, size: 0x8, addend: 0x0, symName: __ZNK8facebook5react27ConcreteComponentDescriptorINS0_23RNSBottomTabsShadowNodeEE9getTraitsEv, symObjAddr: 0x2210, symBinAddr: 0x6484, symSize: 0x8 }
  - { offset: 0x85A6B, size: 0x8, addend: 0x0, symName: __ZNK8facebook5react27ConcreteComponentDescriptorINS0_23RNSBottomTabsShadowNodeEE16createShadowNodeERKNS0_18ShadowNodeFragmentERKNSt3__110shared_ptrIKNS0_16ShadowNodeFamilyEEE, symObjAddr: 0x2218, symBinAddr: 0x648C, symSize: 0x90 }
  - { offset: 0x85D0C, size: 0x8, addend: 0x0, symName: __ZNK8facebook5react27ConcreteComponentDescriptorINS0_23RNSBottomTabsShadowNodeEE15cloneShadowNodeERKNS0_10ShadowNodeERKNS0_18ShadowNodeFragmentE, symObjAddr: 0x22A8, symBinAddr: 0x651C, symSize: 0xFC }
  - { offset: 0x86098, size: 0x8, addend: 0x0, symName: __ZNK8facebook5react27ConcreteComponentDescriptorINS0_23RNSBottomTabsShadowNodeEE11appendChildERKNSt3__110shared_ptrIKNS0_10ShadowNodeEEESA_, symObjAddr: 0x23A4, symBinAddr: 0x6618, symSize: 0xC }
  - { offset: 0x860F4, size: 0x8, addend: 0x0, symName: __ZNK8facebook5react27ConcreteComponentDescriptorINS0_23RNSBottomTabsShadowNodeEE11appendChildERKNSt3__110shared_ptrIKNS0_10ShadowNodeEEESA_, symObjAddr: 0x23A4, symBinAddr: 0x6618, symSize: 0xC }
  - { offset: 0x869F2, size: 0x8, addend: 0x0, symName: __ZNK8facebook5react27ConcreteComponentDescriptorINS0_23RNSBottomTabsShadowNodeEE10clonePropsERKNS0_18PropsParserContextERKNSt3__110shared_ptrIKNS0_5PropsEEENS0_8RawPropsE, symObjAddr: 0x23B0, symBinAddr: 0x6624, symSize: 0x21C }
  - { offset: 0x875BE, size: 0x8, addend: 0x0, symName: __ZN8facebook5react18ConcreteShadowNodeIXadL_ZNS0_26RNSBottomTabsComponentNameEEENS0_24YogaLayoutableShadowNodeENS0_18RNSBottomTabsPropsENS0_25RNSBottomTabsEventEmitterENS0_18RNSBottomTabsStateEE5PropsERKNS0_18PropsParserContextERKNS0_8RawPropsERKNSt3__110shared_ptrIKNS0_5PropsEEE, symObjAddr: 0x37A0, symBinAddr: 0x76F4, symSize: 0x58 }
  - { offset: 0x876C2, size: 0x8, addend: 0x0, symName: __ZNSt3__116__variant_detail6__dtorINS0_8__traitsIJN5folly7dynamicENS_4pairIPN8facebook3jsi7RuntimeENS7_5ValueEEEEEELNS0_6_TraitE1EE9__destroyB8ne200100Ev, symObjAddr: 0x2D24, symBinAddr: 0x6F98, symSize: 0x54 }
  - { offset: 0x87BFC, size: 0x8, addend: 0x0, symName: __ZNK8facebook5react27ConcreteComponentDescriptorINS0_23RNSBottomTabsShadowNodeEE18createInitialStateERKNSt3__110shared_ptrIKNS0_5PropsEEERKNS5_IKNS0_16ShadowNodeFamilyEEE, symObjAddr: 0x25CC, symBinAddr: 0x6840, symSize: 0xC0 }
  - { offset: 0x88145, size: 0x8, addend: 0x0, symName: __ZNK8facebook5react27ConcreteComponentDescriptorINS0_23RNSBottomTabsShadowNodeEE11createStateERKNS0_16ShadowNodeFamilyERKNSt3__110shared_ptrIKvEE, symObjAddr: 0x268C, symBinAddr: 0x6900, symSize: 0x104 }
  - { offset: 0x8876A, size: 0x8, addend: 0x0, symName: __ZNK8facebook5react27ConcreteComponentDescriptorINS0_23RNSBottomTabsShadowNodeEE12createFamilyERKNS0_24ShadowNodeFamilyFragmentE, symObjAddr: 0x2790, symBinAddr: 0x6A04, symSize: 0x168 }
  - { offset: 0x88E20, size: 0x8, addend: 0x0, symName: __ZNK8facebook5react32RNSBottomTabsComponentDescriptor5adoptERNS0_10ShadowNodeE, symObjAddr: 0x28F8, symBinAddr: 0x6B6C, symSize: 0x128 }
  - { offset: 0x893AD, size: 0x8, addend: 0x0, symName: __ZNSt3__112basic_stringIcNS_11char_traitsIcEENS_9allocatorIcEEEC2B8ne200100ILi0EEEPKc, symObjAddr: 0x39D8, symBinAddr: 0x7890, symSize: 0xA4 }
  - { offset: 0x89632, size: 0x8, addend: 0x0, symName: __ZNSt3__112basic_stringIcNS_11char_traitsIcEENS_9allocatorIcEEE20__throw_length_errorB8ne200100Ev, symObjAddr: 0x3A7C, symBinAddr: 0x7934, symSize: 0x14 }
  - { offset: 0x89644, size: 0x8, addend: 0x0, symName: __ZNK8facebook5react16ContextContainer2atINSt3__110shared_ptrIvEEEET_RKNS3_12basic_stringIcNS3_11char_traitsIcEENS3_9allocatorIcEEEE, symObjAddr: 0x4A5C, symBinAddr: 0x8654, symSize: 0xA8 }
  - { offset: 0x89D58, size: 0x8, addend: 0x0, symName: __ZNSt3__112__hash_tableINS_17__hash_value_typeINS_12basic_stringIcNS_11char_traitsIcEENS_9allocatorIcEEEENS_10shared_ptrIvEEEENS_22__unordered_map_hasherIS7_SA_NS_4hashIS7_EENS_8equal_toIS7_EELb1EEENS_21__unordered_map_equalIS7_SA_SF_SD_Lb1EEENS5_ISA_EEED2Ev, symObjAddr: 0x2C04, symBinAddr: 0x6E78, symSize: 0x38 }
  - { offset: 0x89EC8, size: 0x8, addend: 0x0, symName: __ZNSt3__16vectorIN8facebook5react8RawValueENS_9allocatorIS3_EEE16__destroy_vectorclB8ne200100Ev, symObjAddr: 0x2CB4, symBinAddr: 0x6F28, symSize: 0x70 }
  - { offset: 0x8A1CA, size: 0x8, addend: 0x0, symName: __ZN8facebook5react27ConcreteComponentDescriptorINS0_23RNSBottomTabsShadowNodeEED1Ev, symObjAddr: 0x2BE8, symBinAddr: 0x6E5C, symSize: 0x4 }
  - { offset: 0x8A1EE, size: 0x8, addend: 0x0, symName: __ZN8facebook5react27ConcreteComponentDescriptorINS0_23RNSBottomTabsShadowNodeEED1Ev, symObjAddr: 0x2BE8, symBinAddr: 0x6E5C, symSize: 0x4 }
  - { offset: 0x8A20D, size: 0x8, addend: 0x0, symName: __ZN8facebook5react27ConcreteComponentDescriptorINS0_23RNSBottomTabsShadowNodeEED1Ev, symObjAddr: 0x2BE8, symBinAddr: 0x6E5C, symSize: 0x4 }
  - { offset: 0x8A23D, size: 0x8, addend: 0x0, symName: __ZN8facebook5react27ConcreteComponentDescriptorINS0_23RNSBottomTabsShadowNodeEED0Ev, symObjAddr: 0x2BEC, symBinAddr: 0x6E60, symSize: 0x14 }
  - { offset: 0x8A2BE, size: 0x8, addend: 0x0, symName: __ZNK8facebook5react27ConcreteComponentDescriptorINS0_23RNSBottomTabsShadowNodeEE5adoptERNS0_10ShadowNodeE, symObjAddr: 0x2C00, symBinAddr: 0x6E74, symSize: 0x4 }
  - { offset: 0x8A3E1, size: 0x8, addend: 0x0, symName: __ZNSt3__112__hash_tableINS_17__hash_value_typeINS_12basic_stringIcNS_11char_traitsIcEENS_9allocatorIcEEEENS_10shared_ptrIvEEEENS_22__unordered_map_hasherIS7_SA_NS_4hashIS7_EENS_8equal_toIS7_EELb1EEENS_21__unordered_map_equalIS7_SA_SF_SD_Lb1EEENS5_ISA_EEE17__deallocate_nodeEPNS_16__hash_node_baseIPNS_11__hash_nodeISA_PvEEEE, symObjAddr: 0x2C3C, symBinAddr: 0x6EB0, symSize: 0x3C }
  - { offset: 0x8A8A3, size: 0x8, addend: 0x0, symName: __ZNSt3__116__variant_detail12__visitation6__base12__dispatcherIJLm0EEE10__dispatchB8ne200100IOZNS0_6__dtorINS0_8__traitsIJN5folly7dynamicENS_4pairIPN8facebook3jsi7RuntimeENSC_5ValueEEEEEELNS0_6_TraitE1EE9__destroyB8ne200100EvEUlRT_E_JRNS0_6__baseILSI_1EJS9_SG_EEEEEEDcSK_DpT0_, symObjAddr: 0x2D78, symBinAddr: 0x6FEC, symSize: 0x8 }
  - { offset: 0x8AA5C, size: 0x8, addend: 0x0, symName: __ZNSt3__116__variant_detail12__visitation6__base12__dispatcherIJLm1EEE10__dispatchB8ne200100IOZNS0_6__dtorINS0_8__traitsIJN5folly7dynamicENS_4pairIPN8facebook3jsi7RuntimeENSC_5ValueEEEEEELNS0_6_TraitE1EE9__destroyB8ne200100EvEUlRT_E_JRNS0_6__baseILSI_1EJS9_SG_EEEEEEDcSK_DpT0_, symObjAddr: 0x2D80, symBinAddr: 0x6FF4, symSize: 0x8 }
  - { offset: 0x8AA94, size: 0x8, addend: 0x0, symName: __ZNSt3__116__variant_detail12__visitation6__base12__dispatcherIJLm1EEE10__dispatchB8ne200100IOZNS0_6__dtorINS0_8__traitsIJN5folly7dynamicENS_4pairIPN8facebook3jsi7RuntimeENSC_5ValueEEEEEELNS0_6_TraitE1EE9__destroyB8ne200100EvEUlRT_E_JRNS0_6__baseILSI_1EJS9_SG_EEEEEEDcSK_DpT0_, symObjAddr: 0x2D80, symBinAddr: 0x6FF4, symSize: 0x8 }
  - { offset: 0x8AABC, size: 0x8, addend: 0x0, symName: __ZNSt3__116__variant_detail12__visitation6__base12__dispatcherIJLm1EEE10__dispatchB8ne200100IOZNS0_6__dtorINS0_8__traitsIJN5folly7dynamicENS_4pairIPN8facebook3jsi7RuntimeENSC_5ValueEEEEEELNS0_6_TraitE1EE9__destroyB8ne200100EvEUlRT_E_JRNS0_6__baseILSI_1EJS9_SG_EEEEEEDcSK_DpT0_, symObjAddr: 0x2D80, symBinAddr: 0x6FF4, symSize: 0x8 }
  - { offset: 0x8AAE4, size: 0x8, addend: 0x0, symName: __ZNSt3__116__variant_detail12__visitation6__base12__dispatcherIJLm1EEE10__dispatchB8ne200100IOZNS0_6__dtorINS0_8__traitsIJN5folly7dynamicENS_4pairIPN8facebook3jsi7RuntimeENSC_5ValueEEEEEELNS0_6_TraitE1EE9__destroyB8ne200100EvEUlRT_E_JRNS0_6__baseILSI_1EJS9_SG_EEEEEEDcSK_DpT0_, symObjAddr: 0x2D80, symBinAddr: 0x6FF4, symSize: 0x8 }
  - { offset: 0x8AB02, size: 0x8, addend: 0x0, symName: __ZNSt3__116__variant_detail12__visitation6__base12__dispatcherIJLm1EEE10__dispatchB8ne200100IOZNS0_6__dtorINS0_8__traitsIJN5folly7dynamicENS_4pairIPN8facebook3jsi7RuntimeENSC_5ValueEEEEEELNS0_6_TraitE1EE9__destroyB8ne200100EvEUlRT_E_JRNS0_6__baseILSI_1EJS9_SG_EEEEEEDcSK_DpT0_, symObjAddr: 0x2D80, symBinAddr: 0x6FF4, symSize: 0x8 }
  - { offset: 0x8AB20, size: 0x8, addend: 0x0, symName: __ZNSt3__116__variant_detail12__visitation6__base12__dispatcherIJLm1EEE10__dispatchB8ne200100IOZNS0_6__dtorINS0_8__traitsIJN5folly7dynamicENS_4pairIPN8facebook3jsi7RuntimeENSC_5ValueEEEEEELNS0_6_TraitE1EE9__destroyB8ne200100EvEUlRT_E_JRNS0_6__baseILSI_1EJS9_SG_EEEEEEDcSK_DpT0_, symObjAddr: 0x2D80, symBinAddr: 0x6FF4, symSize: 0x8 }
  - { offset: 0x8AB3E, size: 0x8, addend: 0x0, symName: __ZNSt3__116__variant_detail12__visitation6__base12__dispatcherIJLm1EEE10__dispatchB8ne200100IOZNS0_6__dtorINS0_8__traitsIJN5folly7dynamicENS_4pairIPN8facebook3jsi7RuntimeENSC_5ValueEEEEEELNS0_6_TraitE1EE9__destroyB8ne200100EvEUlRT_E_JRNS0_6__baseILSI_1EJS9_SG_EEEEEEDcSK_DpT0_, symObjAddr: 0x2D80, symBinAddr: 0x6FF4, symSize: 0x8 }
  - { offset: 0x8AC95, size: 0x8, addend: 0x0, symName: __ZN8facebook5react19ComponentDescriptorD1Ev, symObjAddr: 0x2E04, symBinAddr: 0x3EC38, symSize: 0x4 }
  - { offset: 0x8ACBE, size: 0x8, addend: 0x0, symName: __ZN8facebook5react19ComponentDescriptorD0Ev, symObjAddr: 0x2E08, symBinAddr: 0x3EC3C, symSize: 0x4 }
  - { offset: 0x8AF4D, size: 0x8, addend: 0x0, symName: __ZNSt3__120__shared_ptr_emplaceIN8facebook5react23RNSBottomTabsShadowNodeENS_9allocatorIS3_EEEC2B8ne200100IJRKNS2_18ShadowNodeFragmentERKNS_10shared_ptrIKNS2_16ShadowNodeFamilyEEENS2_16ShadowNodeTraitsEES5_Li0EEES5_DpOT_, symObjAddr: 0x2F2C, symBinAddr: 0x70E8, symSize: 0x78 }
  - { offset: 0x8B2E1, size: 0x8, addend: 0x0, symName: __ZN8facebook5react22ConcreteViewShadowNodeIXadL_ZNS0_26RNSBottomTabsComponentNameEEENS0_18RNSBottomTabsPropsENS0_25RNSBottomTabsEventEmitterENS0_18RNSBottomTabsStateEE10initializeEv, symObjAddr: 0x313C, symBinAddr: 0x72F8, symSize: 0x6C }
  - { offset: 0x8B32B, size: 0x8, addend: 0x0, symName: __ZN8facebook5react22ConcreteViewShadowNodeIXadL_ZNS0_26RNSBottomTabsComponentNameEEENS0_18RNSBottomTabsPropsENS0_25RNSBottomTabsEventEmitterENS0_18RNSBottomTabsStateEE10initializeEv, symObjAddr: 0x313C, symBinAddr: 0x72F8, symSize: 0x6C }
  - { offset: 0x8B349, size: 0x8, addend: 0x0, symName: __ZN8facebook5react22ConcreteViewShadowNodeIXadL_ZNS0_26RNSBottomTabsComponentNameEEENS0_18RNSBottomTabsPropsENS0_25RNSBottomTabsEventEmitterENS0_18RNSBottomTabsStateEE10initializeEv, symObjAddr: 0x313C, symBinAddr: 0x72F8, symSize: 0x6C }
  - { offset: 0x8B3E7, size: 0x8, addend: 0x0, symName: __ZNSt3__120__shared_ptr_emplaceIN8facebook5react23RNSBottomTabsShadowNodeENS_9allocatorIS3_EEED1Ev, symObjAddr: 0x2FA4, symBinAddr: 0x7160, symSize: 0x14 }
  - { offset: 0x8B40B, size: 0x8, addend: 0x0, symName: __ZNSt3__120__shared_ptr_emplaceIN8facebook5react23RNSBottomTabsShadowNodeENS_9allocatorIS3_EEED1Ev, symObjAddr: 0x2FA4, symBinAddr: 0x7160, symSize: 0x14 }
  - { offset: 0x8B441, size: 0x8, addend: 0x0, symName: __ZNSt3__120__shared_ptr_emplaceIN8facebook5react23RNSBottomTabsShadowNodeENS_9allocatorIS3_EEED0Ev, symObjAddr: 0x2FB8, symBinAddr: 0x7174, symSize: 0x24 }
  - { offset: 0x8B514, size: 0x8, addend: 0x0, symName: __ZNSt3__120__shared_ptr_emplaceIN8facebook5react23RNSBottomTabsShadowNodeENS_9allocatorIS3_EEE16__on_zero_sharedEv, symObjAddr: 0x2FDC, symBinAddr: 0x7198, symSize: 0x8 }
  - { offset: 0x8B53D, size: 0x8, addend: 0x0, symName: __ZNSt3__120__shared_ptr_emplaceIN8facebook5react23RNSBottomTabsShadowNodeENS_9allocatorIS3_EEE16__on_zero_sharedEv, symObjAddr: 0x2FDC, symBinAddr: 0x7198, symSize: 0x8 }
  - { offset: 0x8B55C, size: 0x8, addend: 0x0, symName: __ZNSt3__120__shared_ptr_emplaceIN8facebook5react23RNSBottomTabsShadowNodeENS_9allocatorIS3_EEE16__on_zero_sharedEv, symObjAddr: 0x2FDC, symBinAddr: 0x7198, symSize: 0x8 }
  - { offset: 0x8B59B, size: 0x8, addend: 0x0, symName: __ZNSt3__120__shared_ptr_emplaceIN8facebook5react23RNSBottomTabsShadowNodeENS_9allocatorIS3_EEE21__on_zero_shared_weakEv, symObjAddr: 0x2FE4, symBinAddr: 0x71A0, symSize: 0x4 }
  - { offset: 0x8B5CF, size: 0x8, addend: 0x0, symName: __ZNSt3__120__shared_ptr_emplaceIN8facebook5react23RNSBottomTabsShadowNodeENS_9allocatorIS3_EEE21__on_zero_shared_weakEv, symObjAddr: 0x2FE4, symBinAddr: 0x71A0, symSize: 0x4 }
  - { offset: 0x8B5F3, size: 0x8, addend: 0x0, symName: __ZNSt3__120__shared_ptr_emplaceIN8facebook5react23RNSBottomTabsShadowNodeENS_9allocatorIS3_EEE21__on_zero_shared_weakEv, symObjAddr: 0x2FE4, symBinAddr: 0x71A0, symSize: 0x4 }
  - { offset: 0x8B618, size: 0x8, addend: 0x0, symName: __ZNSt3__120__shared_ptr_emplaceIN8facebook5react23RNSBottomTabsShadowNodeENS_9allocatorIS3_EEE21__on_zero_shared_weakEv, symObjAddr: 0x2FE4, symBinAddr: 0x71A0, symSize: 0x4 }
  - { offset: 0x8B650, size: 0x8, addend: 0x0, symName: __ZNSt3__120__shared_ptr_emplaceIN8facebook5react23RNSBottomTabsShadowNodeENS_9allocatorIS3_EEE21__on_zero_shared_weakEv, symObjAddr: 0x2FE4, symBinAddr: 0x71A0, symSize: 0x4 }
  - { offset: 0x8B8D1, size: 0x8, addend: 0x0, symName: __ZN8facebook5react23RNSBottomTabsShadowNodeD1Ev, symObjAddr: 0x2FE8, symBinAddr: 0x71A4, symSize: 0x70 }
  - { offset: 0x8BCDF, size: 0x8, addend: 0x0, symName: __ZNSt3__16vectorINS_10shared_ptrIKN8facebook5react24YogaLayoutableShadowNodeEEENS_9allocatorIS6_EEE16__destroy_vectorclB8ne200100Ev, symObjAddr: 0x328C, symBinAddr: 0x7448, symSize: 0x70 }
  - { offset: 0x8BE67, size: 0x8, addend: 0x0, symName: __ZN8facebook5react10ShadowNodeD2Ev, symObjAddr: 0x3354, symBinAddr: 0x74B8, symSize: 0x5C }
  - { offset: 0x8BF9D, size: 0x8, addend: 0x0, symName: __ZN8facebook5react23RNSBottomTabsShadowNodeD0Ev, symObjAddr: 0x3058, symBinAddr: 0x7214, symSize: 0x74 }
  - { offset: 0x8C403, size: 0x8, addend: 0x0, symName: __ZNK8facebook5react22ConcreteViewShadowNodeIXadL_ZNS0_26RNSBottomTabsComponentNameEEENS0_18RNSBottomTabsPropsENS0_25RNSBottomTabsEventEmitterENS0_18RNSBottomTabsStateEE12getTransformEv, symObjAddr: 0x30CC, symBinAddr: 0x7288, symSize: 0x40 }
  - { offset: 0x8C478, size: 0x8, addend: 0x0, symName: __ZNK8facebook5react22ConcreteViewShadowNodeIXadL_ZNS0_26RNSBottomTabsComponentNameEEENS0_18RNSBottomTabsPropsENS0_25RNSBottomTabsEventEmitterENS0_18RNSBottomTabsStateEE16canBeTouchTargetEv, symObjAddr: 0x310C, symBinAddr: 0x72C8, symSize: 0x18 }
  - { offset: 0x8C4B2, size: 0x8, addend: 0x0, symName: __ZNK8facebook5react22ConcreteViewShadowNodeIXadL_ZNS0_26RNSBottomTabsComponentNameEEENS0_18RNSBottomTabsPropsENS0_25RNSBottomTabsEventEmitterENS0_18RNSBottomTabsStateEE16canBeTouchTargetEv, symObjAddr: 0x310C, symBinAddr: 0x72C8, symSize: 0x18 }
  - { offset: 0x8C4D0, size: 0x8, addend: 0x0, symName: __ZNK8facebook5react22ConcreteViewShadowNodeIXadL_ZNS0_26RNSBottomTabsComponentNameEEENS0_18RNSBottomTabsPropsENS0_25RNSBottomTabsEventEmitterENS0_18RNSBottomTabsStateEE16canBeTouchTargetEv, symObjAddr: 0x310C, symBinAddr: 0x72C8, symSize: 0x18 }
  - { offset: 0x8C4EE, size: 0x8, addend: 0x0, symName: __ZNK8facebook5react22ConcreteViewShadowNodeIXadL_ZNS0_26RNSBottomTabsComponentNameEEENS0_18RNSBottomTabsPropsENS0_25RNSBottomTabsEventEmitterENS0_18RNSBottomTabsStateEE24canChildrenBeTouchTargetEv, symObjAddr: 0x3124, symBinAddr: 0x72E0, symSize: 0x18 }
  - { offset: 0x8C524, size: 0x8, addend: 0x0, symName: __ZNK8facebook5react22ConcreteViewShadowNodeIXadL_ZNS0_26RNSBottomTabsComponentNameEEENS0_18RNSBottomTabsPropsENS0_25RNSBottomTabsEventEmitterENS0_18RNSBottomTabsStateEE24canChildrenBeTouchTargetEv, symObjAddr: 0x3124, symBinAddr: 0x72E0, symSize: 0x18 }
  - { offset: 0x8C542, size: 0x8, addend: 0x0, symName: __ZNK8facebook5react22ConcreteViewShadowNodeIXadL_ZNS0_26RNSBottomTabsComponentNameEEENS0_18RNSBottomTabsPropsENS0_25RNSBottomTabsEventEmitterENS0_18RNSBottomTabsStateEE24canChildrenBeTouchTargetEv, symObjAddr: 0x3124, symBinAddr: 0x72E0, symSize: 0x18 }
  - { offset: 0x8C5CA, size: 0x8, addend: 0x0, symName: __ZN8facebook5react22ConcreteViewShadowNodeIXadL_ZNS0_26RNSBottomTabsComponentNameEEENS0_18RNSBottomTabsPropsENS0_25RNSBottomTabsEventEmitterENS0_18RNSBottomTabsStateEED1Ev, symObjAddr: 0x31A8, symBinAddr: 0x7364, symSize: 0x70 }
  - { offset: 0x8C9D5, size: 0x8, addend: 0x0, symName: __ZN8facebook5react22ConcreteViewShadowNodeIXadL_ZNS0_26RNSBottomTabsComponentNameEEENS0_18RNSBottomTabsPropsENS0_25RNSBottomTabsEventEmitterENS0_18RNSBottomTabsStateEED0Ev, symObjAddr: 0x3218, symBinAddr: 0x73D4, symSize: 0x74 }
  - { offset: 0x8D15E, size: 0x8, addend: 0x0, symName: __ZNSt3__120__shared_ptr_emplaceIN8facebook5react23RNSBottomTabsShadowNodeENS_9allocatorIS3_EEEC2B8ne200100IJRKNS2_10ShadowNodeERKNS2_18ShadowNodeFragmentEES5_Li0EEES5_DpOT_, symObjAddr: 0x3638, symBinAddr: 0x75E4, symSize: 0x74 }
  - { offset: 0x8D6DA, size: 0x8, addend: 0x0, symName: __ZNSt3__120__shared_ptr_emplaceIN8facebook5react18RNSBottomTabsPropsENS_9allocatorIS3_EEEC2B8ne200100IJRKNS2_18PropsParserContextERKS3_RKNS2_8RawPropsEES5_Li0EEES5_DpOT_, symObjAddr: 0x3868, symBinAddr: 0x77BC, symSize: 0x4C }
  - { offset: 0x8D8D5, size: 0x8, addend: 0x0, symName: __ZNSt3__120__shared_ptr_emplaceIN8facebook5react18RNSBottomTabsPropsENS_9allocatorIS3_EEED1Ev, symObjAddr: 0x38B4, symBinAddr: 0x7808, symSize: 0x14 }
  - { offset: 0x8D8F9, size: 0x8, addend: 0x0, symName: __ZNSt3__120__shared_ptr_emplaceIN8facebook5react18RNSBottomTabsPropsENS_9allocatorIS3_EEED1Ev, symObjAddr: 0x38B4, symBinAddr: 0x7808, symSize: 0x14 }
  - { offset: 0x8D92F, size: 0x8, addend: 0x0, symName: __ZNSt3__120__shared_ptr_emplaceIN8facebook5react18RNSBottomTabsPropsENS_9allocatorIS3_EEED0Ev, symObjAddr: 0x38C8, symBinAddr: 0x781C, symSize: 0x24 }
  - { offset: 0x8D9D2, size: 0x8, addend: 0x0, symName: __ZNSt3__120__shared_ptr_emplaceIN8facebook5react18RNSBottomTabsPropsENS_9allocatorIS3_EEE16__on_zero_sharedEv, symObjAddr: 0x38EC, symBinAddr: 0x7840, symSize: 0x10 }
  - { offset: 0x8D9FB, size: 0x8, addend: 0x0, symName: __ZNSt3__120__shared_ptr_emplaceIN8facebook5react18RNSBottomTabsPropsENS_9allocatorIS3_EEE16__on_zero_sharedEv, symObjAddr: 0x38EC, symBinAddr: 0x7840, symSize: 0x10 }
  - { offset: 0x8DA6F, size: 0x8, addend: 0x0, symName: __ZNSt3__120__shared_ptr_emplaceIN8facebook5react18RNSBottomTabsPropsENS_9allocatorIS3_EEE21__on_zero_shared_weakEv, symObjAddr: 0x38FC, symBinAddr: 0x7850, symSize: 0x4 }
  - { offset: 0x8DAA3, size: 0x8, addend: 0x0, symName: __ZNSt3__120__shared_ptr_emplaceIN8facebook5react18RNSBottomTabsPropsENS_9allocatorIS3_EEE21__on_zero_shared_weakEv, symObjAddr: 0x38FC, symBinAddr: 0x7850, symSize: 0x4 }
  - { offset: 0x8DAC7, size: 0x8, addend: 0x0, symName: __ZNSt3__120__shared_ptr_emplaceIN8facebook5react18RNSBottomTabsPropsENS_9allocatorIS3_EEE21__on_zero_shared_weakEv, symObjAddr: 0x38FC, symBinAddr: 0x7850, symSize: 0x4 }
  - { offset: 0x8DAEC, size: 0x8, addend: 0x0, symName: __ZNSt3__120__shared_ptr_emplaceIN8facebook5react18RNSBottomTabsPropsENS_9allocatorIS3_EEE21__on_zero_shared_weakEv, symObjAddr: 0x38FC, symBinAddr: 0x7850, symSize: 0x4 }
  - { offset: 0x8DB24, size: 0x8, addend: 0x0, symName: __ZNSt3__120__shared_ptr_emplaceIN8facebook5react18RNSBottomTabsPropsENS_9allocatorIS3_EEE21__on_zero_shared_weakEv, symObjAddr: 0x38FC, symBinAddr: 0x7850, symSize: 0x4 }
  - { offset: 0x8DB8F, size: 0x8, addend: 0x0, symName: __ZN5folly9TypeErrorC1EOS0_, symObjAddr: 0x39A0, symBinAddr: 0x7858, symSize: 0x24 }
  - { offset: 0x8DBEC, size: 0x8, addend: 0x0, symName: __ZN5folly9TypeErrorD1Ev, symObjAddr: 0x399C, symBinAddr: 0x7854, symSize: 0x4 }
  - { offset: 0x8DC10, size: 0x8, addend: 0x0, symName: __ZN5folly9TypeErrorD1Ev, symObjAddr: 0x399C, symBinAddr: 0x7854, symSize: 0x4 }
  - { offset: 0x8DC4B, size: 0x8, addend: 0x0, symName: __ZN5folly9TypeErrorD0Ev, symObjAddr: 0x39C4, symBinAddr: 0x787C, symSize: 0x14 }
  - { offset: 0x8DE2D, size: 0x8, addend: 0x0, symName: __ZNSt3__112basic_stringIcNS_11char_traitsIcEENS_9allocatorIcEEE20__throw_length_errorB8ne200100Ev, symObjAddr: 0x3A7C, symBinAddr: 0x7934, symSize: 0x14 }
  - { offset: 0x8DE45, size: 0x8, addend: 0x0, symName: __ZNSt3__120__throw_length_errorB8ne200100EPKc, symObjAddr: 0x3A90, symBinAddr: 0x7948, symSize: 0x50 }
  - { offset: 0x8DE50, size: 0x8, addend: 0x0, symName: __ZNSt12length_errorC1B8ne200100EPKc, symObjAddr: 0x3AE0, symBinAddr: 0x7998, symSize: 0x24 }
  - { offset: 0x8E132, size: 0x8, addend: 0x0, symName: __ZNSt3__120__shared_ptr_emplaceIN8facebook5react13ConcreteStateINS2_18RNSBottomTabsStateEEENS_9allocatorIS5_EEEC2B8ne200100IJNS_10shared_ptrIKS4_EERKNSA_IKNS2_16ShadowNodeFamilyEEEES7_Li0EEES7_DpOT_, symObjAddr: 0x3BBC, symBinAddr: 0x7A1C, symSize: 0x4C }
  - { offset: 0x8E2EB, size: 0x8, addend: 0x0, symName: __ZNSt3__120__shared_ptr_emplaceIN8facebook5react13ConcreteStateINS2_18RNSBottomTabsStateEEENS_9allocatorIS5_EEED1Ev, symObjAddr: 0x3C08, symBinAddr: 0x7A68, symSize: 0x14 }
  - { offset: 0x8E30F, size: 0x8, addend: 0x0, symName: __ZNSt3__120__shared_ptr_emplaceIN8facebook5react13ConcreteStateINS2_18RNSBottomTabsStateEEENS_9allocatorIS5_EEED1Ev, symObjAddr: 0x3C08, symBinAddr: 0x7A68, symSize: 0x14 }
  - { offset: 0x8E345, size: 0x8, addend: 0x0, symName: __ZNSt3__120__shared_ptr_emplaceIN8facebook5react13ConcreteStateINS2_18RNSBottomTabsStateEEENS_9allocatorIS5_EEED0Ev, symObjAddr: 0x3C1C, symBinAddr: 0x7A7C, symSize: 0x24 }
  - { offset: 0x8E418, size: 0x8, addend: 0x0, symName: __ZNSt3__120__shared_ptr_emplaceIN8facebook5react13ConcreteStateINS2_18RNSBottomTabsStateEEENS_9allocatorIS5_EEE16__on_zero_sharedEv, symObjAddr: 0x3C40, symBinAddr: 0x7AA0, symSize: 0xC }
  - { offset: 0x8E441, size: 0x8, addend: 0x0, symName: __ZNSt3__120__shared_ptr_emplaceIN8facebook5react13ConcreteStateINS2_18RNSBottomTabsStateEEENS_9allocatorIS5_EEE16__on_zero_sharedEv, symObjAddr: 0x3C40, symBinAddr: 0x7AA0, symSize: 0xC }
  - { offset: 0x8E460, size: 0x8, addend: 0x0, symName: __ZNSt3__120__shared_ptr_emplaceIN8facebook5react13ConcreteStateINS2_18RNSBottomTabsStateEEENS_9allocatorIS5_EEE16__on_zero_sharedEv, symObjAddr: 0x3C40, symBinAddr: 0x7AA0, symSize: 0xC }
  - { offset: 0x8E47F, size: 0x8, addend: 0x0, symName: __ZNSt3__120__shared_ptr_emplaceIN8facebook5react13ConcreteStateINS2_18RNSBottomTabsStateEEENS_9allocatorIS5_EEE16__on_zero_sharedEv, symObjAddr: 0x3C40, symBinAddr: 0x7AA0, symSize: 0xC }
  - { offset: 0x8E4AB, size: 0x8, addend: 0x0, symName: __ZNSt3__120__shared_ptr_emplaceIN8facebook5react13ConcreteStateINS2_18RNSBottomTabsStateEEENS_9allocatorIS5_EEE21__on_zero_shared_weakEv, symObjAddr: 0x3C4C, symBinAddr: 0x7AAC, symSize: 0x4 }
  - { offset: 0x8E4DF, size: 0x8, addend: 0x0, symName: __ZNSt3__120__shared_ptr_emplaceIN8facebook5react13ConcreteStateINS2_18RNSBottomTabsStateEEENS_9allocatorIS5_EEE21__on_zero_shared_weakEv, symObjAddr: 0x3C4C, symBinAddr: 0x7AAC, symSize: 0x4 }
  - { offset: 0x8E503, size: 0x8, addend: 0x0, symName: __ZNSt3__120__shared_ptr_emplaceIN8facebook5react13ConcreteStateINS2_18RNSBottomTabsStateEEENS_9allocatorIS5_EEE21__on_zero_shared_weakEv, symObjAddr: 0x3C4C, symBinAddr: 0x7AAC, symSize: 0x4 }
  - { offset: 0x8E528, size: 0x8, addend: 0x0, symName: __ZNSt3__120__shared_ptr_emplaceIN8facebook5react13ConcreteStateINS2_18RNSBottomTabsStateEEENS_9allocatorIS5_EEE21__on_zero_shared_weakEv, symObjAddr: 0x3C4C, symBinAddr: 0x7AAC, symSize: 0x4 }
  - { offset: 0x8E55F, size: 0x8, addend: 0x0, symName: __ZNSt3__120__shared_ptr_emplaceIN8facebook5react13ConcreteStateINS2_18RNSBottomTabsStateEEENS_9allocatorIS5_EEE21__on_zero_shared_weakEv, symObjAddr: 0x3C4C, symBinAddr: 0x7AAC, symSize: 0x4 }
  - { offset: 0x8E674, size: 0x8, addend: 0x0, symName: __ZN8facebook5react13ConcreteStateINS0_18RNSBottomTabsStateEEC2ENSt3__110shared_ptrIKS2_EENS4_8weak_ptrIKNS0_16ShadowNodeFamilyEEE, symObjAddr: 0x3D18, symBinAddr: 0x7B78, symSize: 0xBC }
  - { offset: 0x8E992, size: 0x8, addend: 0x0, symName: __ZN8facebook5react13ConcreteStateINS0_18RNSBottomTabsStateEED1Ev, symObjAddr: 0x3DD4, symBinAddr: 0x7C34, symSize: 0x4 }
  - { offset: 0x8E9B6, size: 0x8, addend: 0x0, symName: __ZN8facebook5react13ConcreteStateINS0_18RNSBottomTabsStateEED1Ev, symObjAddr: 0x3DD4, symBinAddr: 0x7C34, symSize: 0x4 }
  - { offset: 0x8E9D5, size: 0x8, addend: 0x0, symName: __ZN8facebook5react13ConcreteStateINS0_18RNSBottomTabsStateEED1Ev, symObjAddr: 0x3DD4, symBinAddr: 0x7C34, symSize: 0x4 }
  - { offset: 0x8E9E9, size: 0x8, addend: 0x0, symName: __ZN8facebook5react5StateD2Ev, symObjAddr: 0x3DEC, symBinAddr: 0x7C4C, symSize: 0x40 }
  - { offset: 0x8EA90, size: 0x8, addend: 0x0, symName: __ZN8facebook5react13ConcreteStateINS0_18RNSBottomTabsStateEED0Ev, symObjAddr: 0x3DD8, symBinAddr: 0x7C38, symSize: 0x14 }
  - { offset: 0x8EB0E, size: 0x8, addend: 0x0, symName: __ZN8facebook5react5StateD1Ev, symObjAddr: 0x3E2C, symBinAddr: 0x7C8C, symSize: 0x4 }
  - { offset: 0x8EB32, size: 0x8, addend: 0x0, symName: __ZN8facebook5react5StateD1Ev, symObjAddr: 0x3E2C, symBinAddr: 0x7C8C, symSize: 0x4 }
  - { offset: 0x8EB64, size: 0x8, addend: 0x0, symName: __ZN8facebook5react5StateD0Ev, symObjAddr: 0x3E30, symBinAddr: 0x7C90, symSize: 0x14 }
  - { offset: 0x8EBDD, size: 0x8, addend: 0x0, symName: __ZNSt3__120__shared_ptr_emplaceIKN8facebook5react18RNSBottomTabsStateENS_9allocatorIS3_EEED1Ev, symObjAddr: 0x3E44, symBinAddr: 0x7CA4, symSize: 0x14 }
  - { offset: 0x8EC01, size: 0x8, addend: 0x0, symName: __ZNSt3__120__shared_ptr_emplaceIKN8facebook5react18RNSBottomTabsStateENS_9allocatorIS3_EEED1Ev, symObjAddr: 0x3E44, symBinAddr: 0x7CA4, symSize: 0x14 }
  - { offset: 0x8EC37, size: 0x8, addend: 0x0, symName: __ZNSt3__120__shared_ptr_emplaceIKN8facebook5react18RNSBottomTabsStateENS_9allocatorIS3_EEED0Ev, symObjAddr: 0x3E58, symBinAddr: 0x7CB8, symSize: 0x24 }
  - { offset: 0x8ED40, size: 0x8, addend: 0x0, symName: __ZNSt3__120__shared_ptr_emplaceIKN8facebook5react18RNSBottomTabsStateENS_9allocatorIS3_EEE16__on_zero_sharedEv, symObjAddr: 0x3E7C, symBinAddr: 0x7CDC, symSize: 0x10 }
  - { offset: 0x8ED69, size: 0x8, addend: 0x0, symName: __ZNSt3__120__shared_ptr_emplaceIKN8facebook5react18RNSBottomTabsStateENS_9allocatorIS3_EEE16__on_zero_sharedEv, symObjAddr: 0x3E7C, symBinAddr: 0x7CDC, symSize: 0x10 }
  - { offset: 0x8ED88, size: 0x8, addend: 0x0, symName: __ZNSt3__120__shared_ptr_emplaceIKN8facebook5react18RNSBottomTabsStateENS_9allocatorIS3_EEE16__on_zero_sharedEv, symObjAddr: 0x3E7C, symBinAddr: 0x7CDC, symSize: 0x10 }
  - { offset: 0x8EDA7, size: 0x8, addend: 0x0, symName: __ZNSt3__120__shared_ptr_emplaceIKN8facebook5react18RNSBottomTabsStateENS_9allocatorIS3_EEE16__on_zero_sharedEv, symObjAddr: 0x3E7C, symBinAddr: 0x7CDC, symSize: 0x10 }
  - { offset: 0x8EDC7, size: 0x8, addend: 0x0, symName: __ZNSt3__120__shared_ptr_emplaceIKN8facebook5react18RNSBottomTabsStateENS_9allocatorIS3_EEE16__on_zero_sharedEv, symObjAddr: 0x3E7C, symBinAddr: 0x7CDC, symSize: 0x10 }
  - { offset: 0x8EDE7, size: 0x8, addend: 0x0, symName: __ZNSt3__120__shared_ptr_emplaceIKN8facebook5react18RNSBottomTabsStateENS_9allocatorIS3_EEE16__on_zero_sharedEv, symObjAddr: 0x3E7C, symBinAddr: 0x7CDC, symSize: 0x10 }
  - { offset: 0x8EE06, size: 0x8, addend: 0x0, symName: __ZNSt3__120__shared_ptr_emplaceIKN8facebook5react18RNSBottomTabsStateENS_9allocatorIS3_EEE16__on_zero_sharedEv, symObjAddr: 0x3E7C, symBinAddr: 0x7CDC, symSize: 0x10 }
  - { offset: 0x8EE25, size: 0x8, addend: 0x0, symName: __ZNSt3__120__shared_ptr_emplaceIKN8facebook5react18RNSBottomTabsStateENS_9allocatorIS3_EEE16__on_zero_sharedEv, symObjAddr: 0x3E7C, symBinAddr: 0x7CDC, symSize: 0x10 }
  - { offset: 0x8EEAA, size: 0x8, addend: 0x0, symName: __ZNSt3__120__shared_ptr_emplaceIKN8facebook5react18RNSBottomTabsStateENS_9allocatorIS3_EEE21__on_zero_shared_weakEv, symObjAddr: 0x3E8C, symBinAddr: 0x7CEC, symSize: 0x4 }
  - { offset: 0x8EEDE, size: 0x8, addend: 0x0, symName: __ZNSt3__120__shared_ptr_emplaceIKN8facebook5react18RNSBottomTabsStateENS_9allocatorIS3_EEE21__on_zero_shared_weakEv, symObjAddr: 0x3E8C, symBinAddr: 0x7CEC, symSize: 0x4 }
  - { offset: 0x8EF02, size: 0x8, addend: 0x0, symName: __ZNSt3__120__shared_ptr_emplaceIKN8facebook5react18RNSBottomTabsStateENS_9allocatorIS3_EEE21__on_zero_shared_weakEv, symObjAddr: 0x3E8C, symBinAddr: 0x7CEC, symSize: 0x4 }
  - { offset: 0x8EF27, size: 0x8, addend: 0x0, symName: __ZNSt3__120__shared_ptr_emplaceIKN8facebook5react18RNSBottomTabsStateENS_9allocatorIS3_EEE21__on_zero_shared_weakEv, symObjAddr: 0x3E8C, symBinAddr: 0x7CEC, symSize: 0x4 }
  - { offset: 0x8EF5E, size: 0x8, addend: 0x0, symName: __ZNSt3__120__shared_ptr_emplaceIKN8facebook5react18RNSBottomTabsStateENS_9allocatorIS3_EEE21__on_zero_shared_weakEv, symObjAddr: 0x3E8C, symBinAddr: 0x7CEC, symSize: 0x4 }
  - { offset: 0x8F1DC, size: 0x8, addend: 0x0, symName: __ZNSt3__120__shared_ptr_emplaceIKN8facebook5react13ConcreteStateINS2_18RNSBottomTabsStateEEENS_9allocatorIS5_EEEC2B8ne200100IJNS_10shared_ptrIKS4_EERKNS2_5StateEES8_Li0EEES8_DpOT_, symObjAddr: 0x3F48, symBinAddr: 0x7D50, symSize: 0x4C }
  - { offset: 0x8F38F, size: 0x8, addend: 0x0, symName: __ZNSt3__120__shared_ptr_emplaceIKN8facebook5react13ConcreteStateINS2_18RNSBottomTabsStateEEENS_9allocatorIS5_EEED1Ev, symObjAddr: 0x3F94, symBinAddr: 0x7D9C, symSize: 0x14 }
  - { offset: 0x8F3B3, size: 0x8, addend: 0x0, symName: __ZNSt3__120__shared_ptr_emplaceIKN8facebook5react13ConcreteStateINS2_18RNSBottomTabsStateEEENS_9allocatorIS5_EEED1Ev, symObjAddr: 0x3F94, symBinAddr: 0x7D9C, symSize: 0x14 }
  - { offset: 0x8F3E9, size: 0x8, addend: 0x0, symName: __ZNSt3__120__shared_ptr_emplaceIKN8facebook5react13ConcreteStateINS2_18RNSBottomTabsStateEEENS_9allocatorIS5_EEED0Ev, symObjAddr: 0x3FA8, symBinAddr: 0x7DB0, symSize: 0x24 }
  - { offset: 0x8F48C, size: 0x8, addend: 0x0, symName: __ZNSt3__120__shared_ptr_emplaceIKN8facebook5react13ConcreteStateINS2_18RNSBottomTabsStateEEENS_9allocatorIS5_EEE16__on_zero_sharedEv, symObjAddr: 0x3FCC, symBinAddr: 0x7DD4, symSize: 0xC }
  - { offset: 0x8F4B5, size: 0x8, addend: 0x0, symName: __ZNSt3__120__shared_ptr_emplaceIKN8facebook5react13ConcreteStateINS2_18RNSBottomTabsStateEEENS_9allocatorIS5_EEE16__on_zero_sharedEv, symObjAddr: 0x3FCC, symBinAddr: 0x7DD4, symSize: 0xC }
  - { offset: 0x8F4D4, size: 0x8, addend: 0x0, symName: __ZNSt3__120__shared_ptr_emplaceIKN8facebook5react13ConcreteStateINS2_18RNSBottomTabsStateEEENS_9allocatorIS5_EEE16__on_zero_sharedEv, symObjAddr: 0x3FCC, symBinAddr: 0x7DD4, symSize: 0xC }
  - { offset: 0x8F4F3, size: 0x8, addend: 0x0, symName: __ZNSt3__120__shared_ptr_emplaceIKN8facebook5react13ConcreteStateINS2_18RNSBottomTabsStateEEENS_9allocatorIS5_EEE16__on_zero_sharedEv, symObjAddr: 0x3FCC, symBinAddr: 0x7DD4, symSize: 0xC }
  - { offset: 0x8F51F, size: 0x8, addend: 0x0, symName: __ZNSt3__120__shared_ptr_emplaceIKN8facebook5react13ConcreteStateINS2_18RNSBottomTabsStateEEENS_9allocatorIS5_EEE21__on_zero_shared_weakEv, symObjAddr: 0x3FD8, symBinAddr: 0x7DE0, symSize: 0x4 }
  - { offset: 0x8F553, size: 0x8, addend: 0x0, symName: __ZNSt3__120__shared_ptr_emplaceIKN8facebook5react13ConcreteStateINS2_18RNSBottomTabsStateEEENS_9allocatorIS5_EEE21__on_zero_shared_weakEv, symObjAddr: 0x3FD8, symBinAddr: 0x7DE0, symSize: 0x4 }
  - { offset: 0x8F577, size: 0x8, addend: 0x0, symName: __ZNSt3__120__shared_ptr_emplaceIKN8facebook5react13ConcreteStateINS2_18RNSBottomTabsStateEEENS_9allocatorIS5_EEE21__on_zero_shared_weakEv, symObjAddr: 0x3FD8, symBinAddr: 0x7DE0, symSize: 0x4 }
  - { offset: 0x8F59C, size: 0x8, addend: 0x0, symName: __ZNSt3__120__shared_ptr_emplaceIKN8facebook5react13ConcreteStateINS2_18RNSBottomTabsStateEEENS_9allocatorIS5_EEE21__on_zero_shared_weakEv, symObjAddr: 0x3FD8, symBinAddr: 0x7DE0, symSize: 0x4 }
  - { offset: 0x8F5D3, size: 0x8, addend: 0x0, symName: __ZNSt3__120__shared_ptr_emplaceIKN8facebook5react13ConcreteStateINS2_18RNSBottomTabsStateEEENS_9allocatorIS5_EEE21__on_zero_shared_weakEv, symObjAddr: 0x3FD8, symBinAddr: 0x7DE0, symSize: 0x4 }
  - { offset: 0x8F630, size: 0x8, addend: 0x0, symName: __ZN8facebook5react13ConcreteStateINS0_18RNSBottomTabsStateEEC2ENSt3__110shared_ptrIKS2_EERKNS0_5StateE, symObjAddr: 0x4064, symBinAddr: 0x7E6C, symSize: 0x98 }
  - { offset: 0x8FA00, size: 0x8, addend: 0x0, symName: __ZNSt3__120__shared_ptr_emplaceIKN8facebook5react25RNSBottomTabsEventEmitterENS_9allocatorIS3_EEEC2B8ne200100IJNS_10shared_ptrINS2_11EventTargetEEERKNS_8weak_ptrIKNS2_15EventDispatcherEEEES6_Li0EEES6_DpOT_, symObjAddr: 0x415C, symBinAddr: 0x7F64, symSize: 0x4C }
  - { offset: 0x8FBB9, size: 0x8, addend: 0x0, symName: __ZNSt3__120__shared_ptr_emplaceIKN8facebook5react25RNSBottomTabsEventEmitterENS_9allocatorIS3_EEED1Ev, symObjAddr: 0x41A8, symBinAddr: 0x7FB0, symSize: 0x14 }
  - { offset: 0x8FBDD, size: 0x8, addend: 0x0, symName: __ZNSt3__120__shared_ptr_emplaceIKN8facebook5react25RNSBottomTabsEventEmitterENS_9allocatorIS3_EEED1Ev, symObjAddr: 0x41A8, symBinAddr: 0x7FB0, symSize: 0x14 }
  - { offset: 0x8FC13, size: 0x8, addend: 0x0, symName: __ZNSt3__120__shared_ptr_emplaceIKN8facebook5react25RNSBottomTabsEventEmitterENS_9allocatorIS3_EEED0Ev, symObjAddr: 0x41BC, symBinAddr: 0x7FC4, symSize: 0x24 }
  - { offset: 0x8FCE6, size: 0x8, addend: 0x0, symName: __ZNSt3__120__shared_ptr_emplaceIKN8facebook5react25RNSBottomTabsEventEmitterENS_9allocatorIS3_EEE16__on_zero_sharedEv, symObjAddr: 0x41E0, symBinAddr: 0x7FE8, symSize: 0xC }
  - { offset: 0x8FD0F, size: 0x8, addend: 0x0, symName: __ZNSt3__120__shared_ptr_emplaceIKN8facebook5react25RNSBottomTabsEventEmitterENS_9allocatorIS3_EEE16__on_zero_sharedEv, symObjAddr: 0x41E0, symBinAddr: 0x7FE8, symSize: 0xC }
  - { offset: 0x8FD2E, size: 0x8, addend: 0x0, symName: __ZNSt3__120__shared_ptr_emplaceIKN8facebook5react25RNSBottomTabsEventEmitterENS_9allocatorIS3_EEE16__on_zero_sharedEv, symObjAddr: 0x41E0, symBinAddr: 0x7FE8, symSize: 0xC }
  - { offset: 0x8FD4D, size: 0x8, addend: 0x0, symName: __ZNSt3__120__shared_ptr_emplaceIKN8facebook5react25RNSBottomTabsEventEmitterENS_9allocatorIS3_EEE16__on_zero_sharedEv, symObjAddr: 0x41E0, symBinAddr: 0x7FE8, symSize: 0xC }
  - { offset: 0x8FD79, size: 0x8, addend: 0x0, symName: __ZNSt3__120__shared_ptr_emplaceIKN8facebook5react25RNSBottomTabsEventEmitterENS_9allocatorIS3_EEE21__on_zero_shared_weakEv, symObjAddr: 0x41EC, symBinAddr: 0x7FF4, symSize: 0x4 }
  - { offset: 0x8FDAD, size: 0x8, addend: 0x0, symName: __ZNSt3__120__shared_ptr_emplaceIKN8facebook5react25RNSBottomTabsEventEmitterENS_9allocatorIS3_EEE21__on_zero_shared_weakEv, symObjAddr: 0x41EC, symBinAddr: 0x7FF4, symSize: 0x4 }
  - { offset: 0x8FDD1, size: 0x8, addend: 0x0, symName: __ZNSt3__120__shared_ptr_emplaceIKN8facebook5react25RNSBottomTabsEventEmitterENS_9allocatorIS3_EEE21__on_zero_shared_weakEv, symObjAddr: 0x41EC, symBinAddr: 0x7FF4, symSize: 0x4 }
  - { offset: 0x8FDF6, size: 0x8, addend: 0x0, symName: __ZNSt3__120__shared_ptr_emplaceIKN8facebook5react25RNSBottomTabsEventEmitterENS_9allocatorIS3_EEE21__on_zero_shared_weakEv, symObjAddr: 0x41EC, symBinAddr: 0x7FF4, symSize: 0x4 }
  - { offset: 0x8FE2D, size: 0x8, addend: 0x0, symName: __ZNSt3__120__shared_ptr_emplaceIKN8facebook5react25RNSBottomTabsEventEmitterENS_9allocatorIS3_EEE21__on_zero_shared_weakEv, symObjAddr: 0x41EC, symBinAddr: 0x7FF4, symSize: 0x4 }
  - { offset: 0x90292, size: 0x8, addend: 0x0, symName: __ZN8facebook5react12EventEmitterD2Ev, symObjAddr: 0x44A4, symBinAddr: 0x8254, symSize: 0x50 }
  - { offset: 0x90411, size: 0x8, addend: 0x0, symName: __ZN8facebook5react25RNSBottomTabsEventEmitterD1Ev, symObjAddr: 0x4330, symBinAddr: 0x8138, symSize: 0x34 }
  - { offset: 0x90544, size: 0x8, addend: 0x0, symName: __ZN8facebook5react25RNSBottomTabsEventEmitterD0Ev, symObjAddr: 0x4364, symBinAddr: 0x816C, symSize: 0x38 }
  - { offset: 0x9062A, size: 0x8, addend: 0x0, symName: __ZN8facebook5react20BaseViewEventEmitterD1Ev, symObjAddr: 0x439C, symBinAddr: 0x81A4, symSize: 0x34 }
  - { offset: 0x906E2, size: 0x8, addend: 0x0, symName: __ZN8facebook5react20BaseViewEventEmitterD0Ev, symObjAddr: 0x43D0, symBinAddr: 0x81D8, symSize: 0x38 }
  - { offset: 0x907C5, size: 0x8, addend: 0x0, symName: __ZNSt3__120__shared_ptr_emplaceIN8facebook5react20BaseViewEventEmitter16LayoutEventStateENS_9allocatorIS4_EEED1Ev, symObjAddr: 0x4408, symBinAddr: 0x8210, symSize: 0x14 }
  - { offset: 0x907E9, size: 0x8, addend: 0x0, symName: __ZNSt3__120__shared_ptr_emplaceIN8facebook5react20BaseViewEventEmitter16LayoutEventStateENS_9allocatorIS4_EEED1Ev, symObjAddr: 0x4408, symBinAddr: 0x8210, symSize: 0x14 }
  - { offset: 0x9081F, size: 0x8, addend: 0x0, symName: __ZNSt3__120__shared_ptr_emplaceIN8facebook5react20BaseViewEventEmitter16LayoutEventStateENS_9allocatorIS4_EEED0Ev, symObjAddr: 0x441C, symBinAddr: 0x8224, symSize: 0x24 }
  - { offset: 0x9093D, size: 0x8, addend: 0x0, symName: __ZNSt3__120__shared_ptr_emplaceIN8facebook5react20BaseViewEventEmitter16LayoutEventStateENS_9allocatorIS4_EEE16__on_zero_sharedEv, symObjAddr: 0x4440, symBinAddr: 0x8248, symSize: 0x8 }
  - { offset: 0x90966, size: 0x8, addend: 0x0, symName: __ZNSt3__120__shared_ptr_emplaceIN8facebook5react20BaseViewEventEmitter16LayoutEventStateENS_9allocatorIS4_EEE16__on_zero_sharedEv, symObjAddr: 0x4440, symBinAddr: 0x8248, symSize: 0x8 }
  - { offset: 0x90985, size: 0x8, addend: 0x0, symName: __ZNSt3__120__shared_ptr_emplaceIN8facebook5react20BaseViewEventEmitter16LayoutEventStateENS_9allocatorIS4_EEE16__on_zero_sharedEv, symObjAddr: 0x4440, symBinAddr: 0x8248, symSize: 0x8 }
  - { offset: 0x90A5B, size: 0x8, addend: 0x0, symName: __ZNSt3__120__shared_ptr_emplaceIN8facebook5react20BaseViewEventEmitter16LayoutEventStateENS_9allocatorIS4_EEE21__on_zero_shared_weakEv, symObjAddr: 0x4448, symBinAddr: 0x8250, symSize: 0x4 }
  - { offset: 0x90A8F, size: 0x8, addend: 0x0, symName: __ZNSt3__120__shared_ptr_emplaceIN8facebook5react20BaseViewEventEmitter16LayoutEventStateENS_9allocatorIS4_EEE21__on_zero_shared_weakEv, symObjAddr: 0x4448, symBinAddr: 0x8250, symSize: 0x4 }
  - { offset: 0x90AB3, size: 0x8, addend: 0x0, symName: __ZNSt3__120__shared_ptr_emplaceIN8facebook5react20BaseViewEventEmitter16LayoutEventStateENS_9allocatorIS4_EEE21__on_zero_shared_weakEv, symObjAddr: 0x4448, symBinAddr: 0x8250, symSize: 0x4 }
  - { offset: 0x90AD8, size: 0x8, addend: 0x0, symName: __ZNSt3__120__shared_ptr_emplaceIN8facebook5react20BaseViewEventEmitter16LayoutEventStateENS_9allocatorIS4_EEE21__on_zero_shared_weakEv, symObjAddr: 0x4448, symBinAddr: 0x8250, symSize: 0x4 }
  - { offset: 0x90B10, size: 0x8, addend: 0x0, symName: __ZNSt3__120__shared_ptr_emplaceIN8facebook5react20BaseViewEventEmitter16LayoutEventStateENS_9allocatorIS4_EEE21__on_zero_shared_weakEv, symObjAddr: 0x4448, symBinAddr: 0x8250, symSize: 0x4 }
  - { offset: 0x90B3A, size: 0x8, addend: 0x0, symName: __ZN8facebook5react12EventEmitterD1Ev, symObjAddr: 0x44F4, symBinAddr: 0x82A4, symSize: 0x4 }
  - { offset: 0x90B5E, size: 0x8, addend: 0x0, symName: __ZN8facebook5react12EventEmitterD1Ev, symObjAddr: 0x44F4, symBinAddr: 0x82A4, symSize: 0x4 }
  - { offset: 0x90B90, size: 0x8, addend: 0x0, symName: __ZN8facebook5react12EventEmitterD0Ev, symObjAddr: 0x44F8, symBinAddr: 0x82A8, symSize: 0x14 }
  - { offset: 0x90E42, size: 0x8, addend: 0x0, symName: __ZNSt3__120__shared_ptr_emplaceIN8facebook5react11EventTargetENS_9allocatorIS3_EEEC2B8ne200100IJRKNS_10shared_ptrIKNS2_14InstanceHandleEEERKiES5_Li0EEES5_DpOT_, symObjAddr: 0x45C4, symBinAddr: 0x831C, symSize: 0x4C }
  - { offset: 0x90FFB, size: 0x8, addend: 0x0, symName: __ZNSt3__120__shared_ptr_emplaceIN8facebook5react11EventTargetENS_9allocatorIS3_EEED1Ev, symObjAddr: 0x4610, symBinAddr: 0x8368, symSize: 0x14 }
  - { offset: 0x9101F, size: 0x8, addend: 0x0, symName: __ZNSt3__120__shared_ptr_emplaceIN8facebook5react11EventTargetENS_9allocatorIS3_EEED1Ev, symObjAddr: 0x4610, symBinAddr: 0x8368, symSize: 0x14 }
  - { offset: 0x91055, size: 0x8, addend: 0x0, symName: __ZNSt3__120__shared_ptr_emplaceIN8facebook5react11EventTargetENS_9allocatorIS3_EEED0Ev, symObjAddr: 0x4624, symBinAddr: 0x837C, symSize: 0x24 }
  - { offset: 0x9117C, size: 0x8, addend: 0x0, symName: __ZNSt3__120__shared_ptr_emplaceIN8facebook5react11EventTargetENS_9allocatorIS3_EEE16__on_zero_sharedEv, symObjAddr: 0x4648, symBinAddr: 0x83A0, symSize: 0x28 }
  - { offset: 0x91291, size: 0x8, addend: 0x0, symName: __ZNSt3__120__shared_ptr_emplaceIN8facebook5react11EventTargetENS_9allocatorIS3_EEE21__on_zero_shared_weakEv, symObjAddr: 0x4670, symBinAddr: 0x83C8, symSize: 0x4 }
  - { offset: 0x912C5, size: 0x8, addend: 0x0, symName: __ZNSt3__120__shared_ptr_emplaceIN8facebook5react11EventTargetENS_9allocatorIS3_EEE21__on_zero_shared_weakEv, symObjAddr: 0x4670, symBinAddr: 0x83C8, symSize: 0x4 }
  - { offset: 0x912E9, size: 0x8, addend: 0x0, symName: __ZNSt3__120__shared_ptr_emplaceIN8facebook5react11EventTargetENS_9allocatorIS3_EEE21__on_zero_shared_weakEv, symObjAddr: 0x4670, symBinAddr: 0x83C8, symSize: 0x4 }
  - { offset: 0x9130E, size: 0x8, addend: 0x0, symName: __ZNSt3__120__shared_ptr_emplaceIN8facebook5react11EventTargetENS_9allocatorIS3_EEE21__on_zero_shared_weakEv, symObjAddr: 0x4670, symBinAddr: 0x83C8, symSize: 0x4 }
  - { offset: 0x91345, size: 0x8, addend: 0x0, symName: __ZNSt3__120__shared_ptr_emplaceIN8facebook5react11EventTargetENS_9allocatorIS3_EEE21__on_zero_shared_weakEv, symObjAddr: 0x4670, symBinAddr: 0x83C8, symSize: 0x4 }
  - { offset: 0x9164C, size: 0x8, addend: 0x0, symName: __ZNSt3__120__shared_ptr_emplaceIN8facebook5react16ShadowNodeFamilyENS_9allocatorIS3_EEEC2B8ne200100IJRKNS2_24ShadowNodeFamilyFragmentERNS_10shared_ptrIKNS2_25RNSBottomTabsEventEmitterEEERKNS_8weak_ptrIKNS2_15EventDispatcherEEERKNS2_27ConcreteComponentDescriptorINS2_23RNSBottomTabsShadowNodeEEEES5_Li0EEES5_DpOT_, symObjAddr: 0x4840, symBinAddr: 0x84E8, symSize: 0x4C }
  - { offset: 0x91885, size: 0x8, addend: 0x0, symName: __ZNSt3__120__shared_ptr_emplaceIN8facebook5react16ShadowNodeFamilyENS_9allocatorIS3_EEED1Ev, symObjAddr: 0x488C, symBinAddr: 0x8534, symSize: 0x14 }
  - { offset: 0x918A9, size: 0x8, addend: 0x0, symName: __ZNSt3__120__shared_ptr_emplaceIN8facebook5react16ShadowNodeFamilyENS_9allocatorIS3_EEED1Ev, symObjAddr: 0x488C, symBinAddr: 0x8534, symSize: 0x14 }
  - { offset: 0x918DF, size: 0x8, addend: 0x0, symName: __ZNSt3__120__shared_ptr_emplaceIN8facebook5react16ShadowNodeFamilyENS_9allocatorIS3_EEED0Ev, symObjAddr: 0x48A0, symBinAddr: 0x8548, symSize: 0x24 }
  - { offset: 0x919B2, size: 0x8, addend: 0x0, symName: __ZNSt3__120__shared_ptr_emplaceIN8facebook5react16ShadowNodeFamilyENS_9allocatorIS3_EEE16__on_zero_sharedEv, symObjAddr: 0x48C4, symBinAddr: 0x856C, symSize: 0x8 }
  - { offset: 0x919DB, size: 0x8, addend: 0x0, symName: __ZNSt3__120__shared_ptr_emplaceIN8facebook5react16ShadowNodeFamilyENS_9allocatorIS3_EEE16__on_zero_sharedEv, symObjAddr: 0x48C4, symBinAddr: 0x856C, symSize: 0x8 }
  - { offset: 0x919FA, size: 0x8, addend: 0x0, symName: __ZNSt3__120__shared_ptr_emplaceIN8facebook5react16ShadowNodeFamilyENS_9allocatorIS3_EEE16__on_zero_sharedEv, symObjAddr: 0x48C4, symBinAddr: 0x856C, symSize: 0x8 }
  - { offset: 0x91A42, size: 0x8, addend: 0x0, symName: __ZNSt3__120__shared_ptr_emplaceIN8facebook5react16ShadowNodeFamilyENS_9allocatorIS3_EEE21__on_zero_shared_weakEv, symObjAddr: 0x48CC, symBinAddr: 0x8574, symSize: 0x4 }
  - { offset: 0x91A76, size: 0x8, addend: 0x0, symName: __ZNSt3__120__shared_ptr_emplaceIN8facebook5react16ShadowNodeFamilyENS_9allocatorIS3_EEE21__on_zero_shared_weakEv, symObjAddr: 0x48CC, symBinAddr: 0x8574, symSize: 0x4 }
  - { offset: 0x91A9A, size: 0x8, addend: 0x0, symName: __ZNSt3__120__shared_ptr_emplaceIN8facebook5react16ShadowNodeFamilyENS_9allocatorIS3_EEE21__on_zero_shared_weakEv, symObjAddr: 0x48CC, symBinAddr: 0x8574, symSize: 0x4 }
  - { offset: 0x91ABF, size: 0x8, addend: 0x0, symName: __ZNSt3__120__shared_ptr_emplaceIN8facebook5react16ShadowNodeFamilyENS_9allocatorIS3_EEE21__on_zero_shared_weakEv, symObjAddr: 0x48CC, symBinAddr: 0x8574, symSize: 0x4 }
  - { offset: 0x91AF7, size: 0x8, addend: 0x0, symName: __ZNSt3__120__shared_ptr_emplaceIN8facebook5react16ShadowNodeFamilyENS_9allocatorIS3_EEE21__on_zero_shared_weakEv, symObjAddr: 0x48CC, symBinAddr: 0x8574, symSize: 0x4 }
  - { offset: 0x91D5E, size: 0x8, addend: 0x0, symName: __ZNSt3__112__hash_tableINS_17__hash_value_typeINS_12basic_stringIcNS_11char_traitsIcEENS_9allocatorIcEEEENS_10shared_ptrIvEEEENS_22__unordered_map_hasherIS7_SA_NS_4hashIS7_EENS_8equal_toIS7_EELb1EEENS_21__unordered_map_equalIS7_SA_SF_SD_Lb1EEENS5_ISA_EEE4findIS7_EENS_15__hash_iteratorIPNS_11__hash_nodeISA_PvEEEERKT_, symObjAddr: 0x4B54, symBinAddr: 0x874C, symSize: 0xF8 }
  - { offset: 0x91F6F, size: 0x8, addend: 0x0, symName: __ZNSt3__111shared_lockINS_12shared_mutexEED2B8ne200100Ev, symObjAddr: 0x5188, symBinAddr: 0x8D80, symSize: 0x38 }
  - { offset: 0x91FB1, size: 0x8, addend: 0x0, symName: __ZNSt12out_of_rangeC1B8ne200100EPKc, symObjAddr: 0x5164, symBinAddr: 0x8D5C, symSize: 0x24 }
  - { offset: 0x920F9, size: 0x8, addend: 0x0, symName: __ZNKSt3__113__string_hashIcNS_9allocatorIcEEEclB8ne200100ERKNS_12basic_stringIcNS_11char_traitsIcEES2_EE, symObjAddr: 0x4C4C, symBinAddr: 0x8844, symSize: 0x3C }
  - { offset: 0x921D3, size: 0x8, addend: 0x0, symName: __ZNKSt3__18equal_toINS_12basic_stringIcNS_11char_traitsIcEENS_9allocatorIcEEEEEclB8ne200100ERKS6_S9_, symObjAddr: 0x50F4, symBinAddr: 0x8CEC, symSize: 0x70 }
  - { offset: 0x9221E, size: 0x8, addend: 0x0, symName: __ZNKSt3__18equal_toINS_12basic_stringIcNS_11char_traitsIcEENS_9allocatorIcEEEEEclB8ne200100ERKS6_S9_, symObjAddr: 0x50F4, symBinAddr: 0x8CEC, symSize: 0x70 }
  - { offset: 0x92252, size: 0x8, addend: 0x0, symName: __ZNKSt3__18equal_toINS_12basic_stringIcNS_11char_traitsIcEENS_9allocatorIcEEEEEclB8ne200100ERKS6_S9_, symObjAddr: 0x50F4, symBinAddr: 0x8CEC, symSize: 0x70 }
  - { offset: 0x92270, size: 0x8, addend: 0x0, symName: __ZNKSt3__18equal_toINS_12basic_stringIcNS_11char_traitsIcEENS_9allocatorIcEEEEEclB8ne200100ERKS6_S9_, symObjAddr: 0x50F4, symBinAddr: 0x8CEC, symSize: 0x70 }
  - { offset: 0x92385, size: 0x8, addend: 0x0, symName: __ZNKSt3__121__murmur2_or_cityhashImLm64EEclB8ne200100EPKvm, symObjAddr: 0x4C88, symBinAddr: 0x8880, symSize: 0x208 }
  - { offset: 0x92A85, size: 0x8, addend: 0x0, symName: __ZNSt3__121__murmur2_or_cityhashImLm64EE18__hash_len_0_to_16B8ne200100EPKcm, symObjAddr: 0x4E90, symBinAddr: 0x8A88, symSize: 0xF8 }
  - { offset: 0x92CBE, size: 0x8, addend: 0x0, symName: __ZNSt3__121__murmur2_or_cityhashImLm64EE19__hash_len_33_to_64B8ne200100EPKcm, symObjAddr: 0x5034, symBinAddr: 0x8C2C, symSize: 0xC0 }
  - { offset: 0x92F60, size: 0x8, addend: 0x0, symName: __ZNSt3__121__murmur2_or_cityhashImLm64EE19__hash_len_17_to_32B8ne200100EPKcm, symObjAddr: 0x4F88, symBinAddr: 0x8B80, symSize: 0xAC }
  - { offset: 0x931F4, size: 0x8, addend: 0x0, symName: __GLOBAL__sub_I_RNSBottomTabsHostComponentView.mm, symObjAddr: 0x5698, symBinAddr: 0x8DB8, symSize: 0x20 }
  - { offset: 0x961F4, size: 0x8, addend: 0x0, symName: __ZN8facebook5react17HostPlatformColorL14UndefinedColorE, symObjAddr: 0xE0228, symBinAddr: 0x7D5A8, symSize: 0x0 }
  - { offset: 0x9903A, size: 0x8, addend: 0x0, symName: '-[RNSBottomTabsHostComponentView(RNSImageLoader) retrieveImageLoaderFromState:]', symObjAddr: 0x0, symBinAddr: 0x8DD8, symSize: 0xD4 }
  - { offset: 0x992B3, size: 0x8, addend: 0x0, symName: __GLOBAL__sub_I_RNSBottomTabsHostComponentView_RNSImageLoader.mm, symObjAddr: 0xD4, symBinAddr: 0x8EAC, symSize: 0x20 }
  - { offset: 0x9B4FB, size: 0x8, addend: 0x0, symName: '+[RNSBottomTabsHostComponentViewManager moduleName]', symObjAddr: 0x0, symBinAddr: 0x8ECC, symSize: 0xC }
  - { offset: 0x9B57C, size: 0x8, addend: 0x0, symName: '+[RNSBottomTabsHostComponentViewManager moduleName]', symObjAddr: 0x0, symBinAddr: 0x8ECC, symSize: 0xC }
  - { offset: 0x9B5AD, size: 0x8, addend: 0x0, symName: '+[RNSBottomTabsHostComponentViewManager load]', symObjAddr: 0xC, symBinAddr: 0x8ED8, symSize: 0x4 }
  - { offset: 0x9B5E0, size: 0x8, addend: 0x0, symName: '+[RNSBottomTabsHostComponentViewManager load]', symObjAddr: 0xC, symBinAddr: 0x8ED8, symSize: 0x4 }
  - { offset: 0x9B7E6, size: 0x8, addend: 0x0, symName: __ZN8facebook5react17HostPlatformColorL14UndefinedColorE, symObjAddr: 0x830C0, symBinAddr: 0x7D5C0, symSize: 0x0 }
  - { offset: 0x9E91A, size: 0x8, addend: 0x0, symName: '-[RNSBottomTabsHostEventEmitter init]', symObjAddr: 0x0, symBinAddr: 0x8EDC, symSize: 0x90 }
  - { offset: 0x9EA63, size: 0x8, addend: 0x0, symName: __ZNSt3__110shared_ptrIKN8facebook5react25RNSBottomTabsEventEmitterEEaSB8ne200100EOS5_, symObjAddr: 0x90, symBinAddr: 0x8F6C, symSize: 0x64 }
  - { offset: 0x9EC53, size: 0x8, addend: 0x0, symName: '-[RNSBottomTabsHostEventEmitter updateEventEmitter:]', symObjAddr: 0xF4, symBinAddr: 0x8FD0, symSize: 0xC }
  - { offset: 0x9F00B, size: 0x8, addend: 0x0, symName: '-[RNSBottomTabsHostEventEmitter emitOnNativeFocusChange:]', symObjAddr: 0x178, symBinAddr: 0x8FDC, symSize: 0xE0 }
  - { offset: 0x9F5CE, size: 0x8, addend: 0x0, symName: '-[RNSBottomTabsHostEventEmitter .cxx_destruct]', symObjAddr: 0x258, symBinAddr: 0x90BC, symSize: 0x8 }
  - { offset: 0x9F6A8, size: 0x8, addend: 0x0, symName: '-[RNSBottomTabsHostEventEmitter .cxx_construct]', symObjAddr: 0x260, symBinAddr: 0x90C4, symSize: 0x8 }
  - { offset: 0x9F6DF, size: 0x8, addend: 0x0, symName: '-[RNSBottomTabsHostEventEmitter .cxx_construct]', symObjAddr: 0x260, symBinAddr: 0x90C4, symSize: 0x8 }
  - { offset: 0x9F6FE, size: 0x8, addend: 0x0, symName: '-[RNSBottomTabsHostEventEmitter .cxx_construct]', symObjAddr: 0x260, symBinAddr: 0x90C4, symSize: 0x8 }
  - { offset: 0x9F997, size: 0x8, addend: 0x0, symName: __GLOBAL__sub_I_RNSBottomTabsHostEventEmitter.mm, symObjAddr: 0x41C, symBinAddr: 0x90CC, symSize: 0x20 }
  - { offset: 0xA1A65, size: 0x8, addend: 0x0, symName: __ZN8facebook5react17HostPlatformColorL14UndefinedColorE, symObjAddr: 0x18B1B8, symBinAddr: 0x7D5D8, symSize: 0x0 }
  - { offset: 0xA51D9, size: 0x8, addend: 0x0, symName: __ZN8facebook5react38concreteComponentDescriptorConstructorINS0_27ConcreteComponentDescriptorINS0_22ConcreteViewShadowNodeIXadL_ZNS0_32RNSBottomTabsScreenComponentNameEEENS0_24RNSBottomTabsScreenPropsENS0_31RNSBottomTabsScreenEventEmitterENS0_9StateDataEEEEEEENSt3__110unique_ptrIKNS0_19ComponentDescriptorENS9_14default_deleteISC_EEEERKNS0_29ComponentDescriptorParametersE, symObjAddr: 0x23E0, symBinAddr: 0xA6F0, symSize: 0x34 }
  - { offset: 0xC1A01, size: 0x8, addend: 0x0, symName: __ZNSt3__115allocate_sharedB8ne200100IKN8facebook5react24RNSBottomTabsScreenPropsENS_9allocatorIS3_EEJELi0EEENS_10shared_ptrIT_EERKT0_DpOT1_, symObjAddr: 0x1168, symBinAddr: 0xA1DC, symSize: 0x48 }
  - { offset: 0xC31C3, size: 0x8, addend: 0x0, symName: __ZNSt3__112__destroy_atB8ne200100INS_4pairINS_12basic_stringIcNS_11char_traitsIcEENS_9allocatorIcEEEES7_EELi0EEEvPT_, symObjAddr: 0x2148, symBinAddr: 0xA508, symSize: 0x44 }
  - { offset: 0xC343B, size: 0x8, addend: 0x0, symName: __ZNSt3__111make_uniqueB8ne200100IKN8facebook5react27ConcreteComponentDescriptorINS2_22ConcreteViewShadowNodeIXadL_ZNS2_32RNSBottomTabsScreenComponentNameEEENS2_24RNSBottomTabsScreenPropsENS2_31RNSBottomTabsScreenEventEmitterENS2_9StateDataEEEEEJRKNS2_29ComponentDescriptorParametersEELi0EEENS_10unique_ptrIT_NS_14default_deleteISF_EEEEDpOT0_, symObjAddr: 0x2414, symBinAddr: 0xA724, symSize: 0xD4 }
  - { offset: 0xC3DC9, size: 0x8, addend: 0x0, symName: __ZNSt3__115allocate_sharedB8ne200100IN8facebook5react22ConcreteViewShadowNodeIXadL_ZNS2_32RNSBottomTabsScreenComponentNameEEENS2_24RNSBottomTabsScreenPropsENS2_31RNSBottomTabsScreenEventEmitterENS2_9StateDataEEENS_9allocatorIS7_EEJRKNS2_18ShadowNodeFragmentERKNS_10shared_ptrIKNS2_16ShadowNodeFamilyEEENS2_16ShadowNodeTraitsEELi0EEENSD_IT_EERKT0_DpOT1_, symObjAddr: 0x2F44, symBinAddr: 0xAF4C, symSize: 0x70 }
  - { offset: 0xC4105, size: 0x8, addend: 0x0, symName: __ZNSt3__115allocate_sharedB8ne200100IN8facebook5react22ConcreteViewShadowNodeIXadL_ZNS2_32RNSBottomTabsScreenComponentNameEEENS2_24RNSBottomTabsScreenPropsENS2_31RNSBottomTabsScreenEventEmitterENS2_9StateDataEEENS_9allocatorIS7_EEJRKNS2_10ShadowNodeERKNS2_18ShadowNodeFragmentEELi0EEENS_10shared_ptrIT_EERKT0_DpOT1_, symObjAddr: 0x3500, symBinAddr: 0xB1C0, symSize: 0x60 }
  - { offset: 0xC489A, size: 0x8, addend: 0x0, symName: __ZNSt3__115allocate_sharedB8ne200100IKN8facebook5react31RNSBottomTabsScreenEventEmitterENS_9allocatorIS3_EEJNS_10shared_ptrINS2_11EventTargetEEERKNS_8weak_ptrIKNS2_15EventDispatcherEEEELi0EEENS7_IT_EERKT0_DpOT1_, symObjAddr: 0x3A74, symBinAddr: 0xB480, symSize: 0x60 }
  - { offset: 0xC4B5E, size: 0x8, addend: 0x0, symName: __ZNSt3__115allocate_sharedB8ne200100IN8facebook5react16ShadowNodeFamilyENS_9allocatorIS3_EEJRKNS2_24ShadowNodeFamilyFragmentERNS_10shared_ptrIKNS2_31RNSBottomTabsScreenEventEmitterEEERKNS_8weak_ptrIKNS2_15EventDispatcherEEERKNS2_27ConcreteComponentDescriptorINS2_22ConcreteViewShadowNodeIXadL_ZNS2_32RNSBottomTabsScreenComponentNameEEENS2_24RNSBottomTabsScreenPropsESA_NS2_9StateDataEEEEEELi0EEENS9_IT_EERKT0_DpOT1_, symObjAddr: 0x4140, symBinAddr: 0xB720, symSize: 0x78 }
  - { offset: 0xC5925, size: 0x8, addend: 0x0, symName: __ZNSt3__115allocate_sharedB8ne200100IN8facebook5react24RNSBottomTabsScreenPropsENS_9allocatorIS3_EEJRKNS2_18PropsParserContextERKS3_RKNS2_8RawPropsEELi0EEENS_10shared_ptrIT_EERKT0_DpOT1_, symObjAddr: 0x3710, symBinAddr: 0xB378, symSize: 0x70 }
  - { offset: 0xC65E3, size: 0x8, addend: 0x0, symName: __ZNSt3__112construct_atB8ne200100IN8facebook5react31RNSBottomTabsScreenEventEmitterEJNS_10shared_ptrINS2_11EventTargetEEERKNS_8weak_ptrIKNS2_15EventDispatcherEEEEPS3_EEPT_SF_DpOT0_, symObjAddr: 0x3B68, symBinAddr: 0xB574, symSize: 0x140 }
  - { offset: 0xC7420, size: 0x8, addend: 0x0, symName: __ZNSt3__112construct_atB8ne200100IN8facebook5react16ShadowNodeFamilyEJRKNS2_24ShadowNodeFamilyFragmentERNS_10shared_ptrIKNS2_31RNSBottomTabsScreenEventEmitterEEERKNS_8weak_ptrIKNS2_15EventDispatcherEEERKNS2_27ConcreteComponentDescriptorINS2_22ConcreteViewShadowNodeIXadL_ZNS2_32RNSBottomTabsScreenComponentNameEEENS2_24RNSBottomTabsScreenPropsES8_NS2_9StateDataEEEEEEPS3_EEPT_SS_DpOT0_, symObjAddr: 0x4248, symBinAddr: 0xB7E4, symSize: 0xDC }
  - { offset: 0xC882D, size: 0x8, addend: 0x0, symName: '-[RNSBottomTabsScreenComponentView initState]', symObjAddr: 0x68, symBinAddr: 0x9154, symSize: 0x14C }
  - { offset: 0xC8853, size: 0x8, addend: 0x0, symName: '__ZZ45-[RNSBottomTabsScreenComponentView initState]E12defaultProps', symObjAddr: 0x18B1D0, symBinAddr: 0x7D5F0, symSize: 0x0 }
  - { offset: 0xCC3C9, size: 0x8, addend: 0x0, symName: __ZN8facebook5react18ConcreteShadowNodeIXadL_ZNS0_32RNSBottomTabsScreenComponentNameEEENS0_24YogaLayoutableShadowNodeENS0_24RNSBottomTabsScreenPropsENS0_31RNSBottomTabsScreenEventEmitterENS0_9StateDataEE18defaultSharedPropsEv, symObjAddr: 0x361C, symBinAddr: 0xB284, symSize: 0x9C }
  - { offset: 0xCC3E9, size: 0x8, addend: 0x0, symName: __ZZN8facebook5react18ConcreteShadowNodeIXadL_ZNS0_32RNSBottomTabsScreenComponentNameEEENS0_24YogaLayoutableShadowNodeENS0_24RNSBottomTabsScreenPropsENS0_31RNSBottomTabsScreenEventEmitterENS0_9StateDataEE18defaultSharedPropsEvE18defaultSharedProps, symObjAddr: 0x5F28, symBinAddr: 0x7CB40, symSize: 0x0 }
  - { offset: 0xCC959, size: 0x8, addend: 0x0, symName: '-[RNSBottomTabsScreenComponentView initWithFrame:]', symObjAddr: 0x0, symBinAddr: 0x90EC, symSize: 0x68 }
  - { offset: 0xCCAA9, size: 0x8, addend: 0x0, symName: __ZNSt3__110shared_ptrIKN8facebook5react24RNSBottomTabsScreenPropsEED1B8ne200100Ev, symObjAddr: 0x1B4, symBinAddr: 0x92A0, symSize: 0x4 }
  - { offset: 0xCCACD, size: 0x8, addend: 0x0, symName: __ZNSt3__110shared_ptrIKN8facebook5react24RNSBottomTabsScreenPropsEED1B8ne200100Ev, symObjAddr: 0x1B4, symBinAddr: 0x92A0, symSize: 0x4 }
  - { offset: 0xCCC64, size: 0x8, addend: 0x0, symName: '-[RNSBottomTabsScreenComponentView resetProps]', symObjAddr: 0x230, symBinAddr: 0x92A4, symSize: 0x130 }
  - { offset: 0xCCC94, size: 0x8, addend: 0x0, symName: '-[RNSBottomTabsScreenComponentView reactSuperview]', symObjAddr: 0x360, symBinAddr: 0x93D4, symSize: 0x20 }
  - { offset: 0xCCCC9, size: 0x8, addend: 0x0, symName: '-[RNSBottomTabsScreenComponentView invalidateController]', symObjAddr: 0x380, symBinAddr: 0x93F4, symSize: 0x14 }
  - { offset: 0xCCCF9, size: 0x8, addend: 0x0, symName: '-[RNSBottomTabsScreenComponentView reactEventEmitter]', symObjAddr: 0x394, symBinAddr: 0x9408, symSize: 0x10 }
  - { offset: 0xCCD2E, size: 0x8, addend: 0x0, symName: '-[RNSBottomTabsScreenComponentView findTabBarController]', symObjAddr: 0x3A4, symBinAddr: 0x9418, symSize: 0x10 }
  - { offset: 0xCCD63, size: 0x8, addend: 0x0, symName: '-[RNSBottomTabsScreenComponentView shouldOverrideScrollViewContentInsetAdjustmentBehavior]', symObjAddr: 0x3B4, symBinAddr: 0x9428, symSize: 0x4 }
  - { offset: 0xCCD97, size: 0x8, addend: 0x0, symName: '-[RNSBottomTabsScreenComponentView overrideScrollViewBehaviorInFirstDescendantChainIfNeeded]', symObjAddr: 0x3B8, symBinAddr: 0x942C, symSize: 0x3C }
  - { offset: 0xCCDC8, size: 0x8, addend: 0x0, symName: '-[RNSBottomTabsScreenComponentView updateTabBarItem]', symObjAddr: 0x3F4, symBinAddr: 0x9468, symSize: 0xC0 }
  - { offset: 0xCD22D, size: 0x8, addend: 0x0, symName: '-[RNSBottomTabsScreenComponentView updateProps:oldProps:]', symObjAddr: 0x4B4, symBinAddr: 0x9528, symSize: 0x7F0 }
  - { offset: 0xCE219, size: 0x8, addend: 0x0, symName: __ZNSt3__113__tuple_equalILm2EEclB8ne200100INS_5tupleIJRKN8facebook5react11ImageSource4TypeERKNS_12basic_stringIcNS_11char_traitsIcEENS_9allocatorIcEEEEEEESI_EEbRKT_RKT0_, symObjAddr: 0x10DC, symBinAddr: 0xA150, symSize: 0x8C }
  - { offset: 0xCE266, size: 0x8, addend: 0x0, symName: __ZNSt3__113__tuple_equalILm2EEclB8ne200100INS_5tupleIJRKN8facebook5react11ImageSource4TypeERKNS_12basic_stringIcNS_11char_traitsIcEENS_9allocatorIcEEEEEEESI_EEbRKT_RKT0_, symObjAddr: 0x10DC, symBinAddr: 0xA150, symSize: 0x8C }
  - { offset: 0xCE28D, size: 0x8, addend: 0x0, symName: __ZNSt3__113__tuple_equalILm2EEclB8ne200100INS_5tupleIJRKN8facebook5react11ImageSource4TypeERKNS_12basic_stringIcNS_11char_traitsIcEENS_9allocatorIcEEEEEEESI_EEbRKT_RKT0_, symObjAddr: 0x10DC, symBinAddr: 0xA150, symSize: 0x8C }
  - { offset: 0xCE2AC, size: 0x8, addend: 0x0, symName: __ZNSt3__113__tuple_equalILm2EEclB8ne200100INS_5tupleIJRKN8facebook5react11ImageSource4TypeERKNS_12basic_stringIcNS_11char_traitsIcEENS_9allocatorIcEEEEEEESI_EEbRKT_RKT0_, symObjAddr: 0x10DC, symBinAddr: 0xA150, symSize: 0x8C }
  - { offset: 0xCE52A, size: 0x8, addend: 0x0, symName: '-[RNSBottomTabsScreenComponentView updateLayoutMetrics:oldLayoutMetrics:]', symObjAddr: 0xCA4, symBinAddr: 0x9D18, symSize: 0x34 }
  - { offset: 0xCE647, size: 0x8, addend: 0x0, symName: '-[RNSBottomTabsScreenComponentView updateEventEmitter:]', symObjAddr: 0xCD8, symBinAddr: 0x9D4C, symSize: 0xC4 }
  - { offset: 0xCE8BF, size: 0x8, addend: 0x0, symName: '-[RNSBottomTabsScreenComponentView mountChildComponentView:index:]', symObjAddr: 0xD9C, symBinAddr: 0x9E10, symSize: 0x34 }
  - { offset: 0xCE913, size: 0x8, addend: 0x0, symName: '-[RNSBottomTabsScreenComponentView unmountChildComponentView:index:]', symObjAddr: 0xDD0, symBinAddr: 0x9E44, symSize: 0x34 }
  - { offset: 0xCE9E1, size: 0x8, addend: 0x0, symName: '+[RNSBottomTabsScreenComponentView componentDescriptorProvider]', symObjAddr: 0xE04, symBinAddr: 0x9E78, symSize: 0x20 }
  - { offset: 0xCEA16, size: 0x8, addend: 0x0, symName: '+[RNSBottomTabsScreenComponentView componentDescriptorProvider]', symObjAddr: 0xE04, symBinAddr: 0x9E78, symSize: 0x20 }
  - { offset: 0xCEA7A, size: 0x8, addend: 0x0, symName: '+[RNSBottomTabsScreenComponentView shouldBeRecycled]', symObjAddr: 0xE24, symBinAddr: 0x9E98, symSize: 0x8 }
  - { offset: 0xCEAAC, size: 0x8, addend: 0x0, symName: '-[RNSBottomTabsScreenComponentView controller]', symObjAddr: 0xE2C, symBinAddr: 0x9EA0, symSize: 0x10 }
  - { offset: 0xCEAE2, size: 0x8, addend: 0x0, symName: '-[RNSBottomTabsScreenComponentView setReactSuperview:]', symObjAddr: 0xE3C, symBinAddr: 0x9EB0, symSize: 0x14 }
  - { offset: 0xCEB22, size: 0x8, addend: 0x0, symName: '-[RNSBottomTabsScreenComponentView isSelectedScreen]', symObjAddr: 0xE50, symBinAddr: 0x9EC4, symSize: 0x10 }
  - { offset: 0xCEB58, size: 0x8, addend: 0x0, symName: '-[RNSBottomTabsScreenComponentView setIsSelectedScreen:]', symObjAddr: 0xE60, symBinAddr: 0x9ED4, symSize: 0x10 }
  - { offset: 0xCEB93, size: 0x8, addend: 0x0, symName: '-[RNSBottomTabsScreenComponentView tabKey]', symObjAddr: 0xE70, symBinAddr: 0x9EE4, symSize: 0x10 }
  - { offset: 0xCEBC9, size: 0x8, addend: 0x0, symName: '-[RNSBottomTabsScreenComponentView setTabKey:]', symObjAddr: 0xE80, symBinAddr: 0x9EF4, symSize: 0x14 }
  - { offset: 0xCEC09, size: 0x8, addend: 0x0, symName: '-[RNSBottomTabsScreenComponentView badgeValue]', symObjAddr: 0xE94, symBinAddr: 0x9F08, symSize: 0x10 }
  - { offset: 0xCEC3F, size: 0x8, addend: 0x0, symName: '-[RNSBottomTabsScreenComponentView setBadgeValue:]', symObjAddr: 0xEA4, symBinAddr: 0x9F18, symSize: 0x14 }
  - { offset: 0xCEC7F, size: 0x8, addend: 0x0, symName: '-[RNSBottomTabsScreenComponentView iconType]', symObjAddr: 0xEB8, symBinAddr: 0x9F2C, symSize: 0x10 }
  - { offset: 0xCECB5, size: 0x8, addend: 0x0, symName: '-[RNSBottomTabsScreenComponentView iconImageSource]', symObjAddr: 0xEC8, symBinAddr: 0x9F3C, symSize: 0x10 }
  - { offset: 0xCECEB, size: 0x8, addend: 0x0, symName: '-[RNSBottomTabsScreenComponentView iconSfSymbolName]', symObjAddr: 0xED8, symBinAddr: 0x9F4C, symSize: 0x10 }
  - { offset: 0xCED21, size: 0x8, addend: 0x0, symName: '-[RNSBottomTabsScreenComponentView selectedIconImageSource]', symObjAddr: 0xEE8, symBinAddr: 0x9F5C, symSize: 0x10 }
  - { offset: 0xCED57, size: 0x8, addend: 0x0, symName: '-[RNSBottomTabsScreenComponentView selectedIconSfSymbolName]', symObjAddr: 0xEF8, symBinAddr: 0x9F6C, symSize: 0x10 }
  - { offset: 0xCED8D, size: 0x8, addend: 0x0, symName: '-[RNSBottomTabsScreenComponentView standardAppearance]', symObjAddr: 0xF08, symBinAddr: 0x9F7C, symSize: 0x10 }
  - { offset: 0xCEDC3, size: 0x8, addend: 0x0, symName: '-[RNSBottomTabsScreenComponentView scrollEdgeAppearance]', symObjAddr: 0xF18, symBinAddr: 0x9F8C, symSize: 0x10 }
  - { offset: 0xCEDF9, size: 0x8, addend: 0x0, symName: '-[RNSBottomTabsScreenComponentView title]', symObjAddr: 0xF28, symBinAddr: 0x9F9C, symSize: 0x10 }
  - { offset: 0xCEE2F, size: 0x8, addend: 0x0, symName: '-[RNSBottomTabsScreenComponentView setTitle:]', symObjAddr: 0xF38, symBinAddr: 0x9FAC, symSize: 0x14 }
  - { offset: 0xCEE6F, size: 0x8, addend: 0x0, symName: '-[RNSBottomTabsScreenComponentView orientation]', symObjAddr: 0xF4C, symBinAddr: 0x9FC0, symSize: 0x10 }
  - { offset: 0xCEEA5, size: 0x8, addend: 0x0, symName: '-[RNSBottomTabsScreenComponentView shouldUseRepeatedTabSelectionPopToRootSpecialEffect]', symObjAddr: 0xF5C, symBinAddr: 0x9FD0, symSize: 0x10 }
  - { offset: 0xCEEDB, size: 0x8, addend: 0x0, symName: '-[RNSBottomTabsScreenComponentView setShouldUseRepeatedTabSelectionPopToRootSpecialEffect:]', symObjAddr: 0xF6C, symBinAddr: 0x9FE0, symSize: 0x10 }
  - { offset: 0xCEF16, size: 0x8, addend: 0x0, symName: '-[RNSBottomTabsScreenComponentView shouldUseRepeatedTabSelectionScrollToTopSpecialEffect]', symObjAddr: 0xF7C, symBinAddr: 0x9FF0, symSize: 0x10 }
  - { offset: 0xCEF4C, size: 0x8, addend: 0x0, symName: '-[RNSBottomTabsScreenComponentView setShouldUseRepeatedTabSelectionScrollToTopSpecialEffect:]', symObjAddr: 0xF8C, symBinAddr: 0xA000, symSize: 0x10 }
  - { offset: 0xCEF87, size: 0x8, addend: 0x0, symName: '-[RNSBottomTabsScreenComponentView overrideScrollViewContentInsetAdjustmentBehavior]', symObjAddr: 0xF9C, symBinAddr: 0xA010, symSize: 0x10 }
  - { offset: 0xCEFBD, size: 0x8, addend: 0x0, symName: '-[RNSBottomTabsScreenComponentView systemItem]', symObjAddr: 0xFAC, symBinAddr: 0xA020, symSize: 0x10 }
  - { offset: 0xCEFF3, size: 0x8, addend: 0x0, symName: '-[RNSBottomTabsScreenComponentView setSystemItem:]', symObjAddr: 0xFBC, symBinAddr: 0xA030, symSize: 0x10 }
  - { offset: 0xCF030, size: 0x8, addend: 0x0, symName: '-[RNSBottomTabsScreenComponentView .cxx_destruct]', symObjAddr: 0xFCC, symBinAddr: 0xA040, symSize: 0x104 }
  - { offset: 0xCF061, size: 0x8, addend: 0x0, symName: __Z19RNSBottomTabsScreenv, symObjAddr: 0x10D0, symBinAddr: 0xA144, symSize: 0xC }
  - { offset: 0xCF335, size: 0x8, addend: 0x0, symName: __ZNSt3__120__shared_ptr_emplaceIKN8facebook5react24RNSBottomTabsScreenPropsENS_9allocatorIS3_EEEC2B8ne200100IJES6_Li0EEES6_DpOT_, symObjAddr: 0x11B0, symBinAddr: 0xA224, symSize: 0x58 }
  - { offset: 0xCF4BE, size: 0x8, addend: 0x0, symName: __ZN8facebook5react24RNSBottomTabsScreenPropsC1Ev, symObjAddr: 0x1254, symBinAddr: 0xA2C8, symSize: 0x1A8 }
  - { offset: 0xCFAAA, size: 0x8, addend: 0x0, symName: __ZNSt3__120__shared_ptr_emplaceIKN8facebook5react24RNSBottomTabsScreenPropsENS_9allocatorIS3_EEED1Ev, symObjAddr: 0x1208, symBinAddr: 0xA27C, symSize: 0x14 }
  - { offset: 0xCFACE, size: 0x8, addend: 0x0, symName: __ZNSt3__120__shared_ptr_emplaceIKN8facebook5react24RNSBottomTabsScreenPropsENS_9allocatorIS3_EEED1Ev, symObjAddr: 0x1208, symBinAddr: 0xA27C, symSize: 0x14 }
  - { offset: 0xCFB04, size: 0x8, addend: 0x0, symName: __ZNSt3__120__shared_ptr_emplaceIKN8facebook5react24RNSBottomTabsScreenPropsENS_9allocatorIS3_EEED0Ev, symObjAddr: 0x121C, symBinAddr: 0xA290, symSize: 0x24 }
  - { offset: 0xCFBF3, size: 0x8, addend: 0x0, symName: __ZNSt3__120__shared_ptr_emplaceIKN8facebook5react24RNSBottomTabsScreenPropsENS_9allocatorIS3_EEE16__on_zero_sharedEv, symObjAddr: 0x1240, symBinAddr: 0xA2B4, symSize: 0x10 }
  - { offset: 0xCFC1C, size: 0x8, addend: 0x0, symName: __ZNSt3__120__shared_ptr_emplaceIKN8facebook5react24RNSBottomTabsScreenPropsENS_9allocatorIS3_EEE16__on_zero_sharedEv, symObjAddr: 0x1240, symBinAddr: 0xA2B4, symSize: 0x10 }
  - { offset: 0xCFC90, size: 0x8, addend: 0x0, symName: __ZN8facebook5react24RNSBottomTabsScreenPropsD2Ev, symObjAddr: 0x218C, symBinAddr: 0xA54C, symSize: 0x1A4 }
  - { offset: 0xD1534, size: 0x8, addend: 0x0, symName: __ZNSt3__120__shared_ptr_emplaceIKN8facebook5react24RNSBottomTabsScreenPropsENS_9allocatorIS3_EEE21__on_zero_shared_weakEv, symObjAddr: 0x1250, symBinAddr: 0xA2C4, symSize: 0x4 }
  - { offset: 0xD1568, size: 0x8, addend: 0x0, symName: __ZNSt3__120__shared_ptr_emplaceIKN8facebook5react24RNSBottomTabsScreenPropsENS_9allocatorIS3_EEE21__on_zero_shared_weakEv, symObjAddr: 0x1250, symBinAddr: 0xA2C4, symSize: 0x4 }
  - { offset: 0xD158C, size: 0x8, addend: 0x0, symName: __ZNSt3__120__shared_ptr_emplaceIKN8facebook5react24RNSBottomTabsScreenPropsENS_9allocatorIS3_EEE21__on_zero_shared_weakEv, symObjAddr: 0x1250, symBinAddr: 0xA2C4, symSize: 0x4 }
  - { offset: 0xD15B1, size: 0x8, addend: 0x0, symName: __ZNSt3__120__shared_ptr_emplaceIKN8facebook5react24RNSBottomTabsScreenPropsENS_9allocatorIS3_EEE21__on_zero_shared_weakEv, symObjAddr: 0x1250, symBinAddr: 0xA2C4, symSize: 0x4 }
  - { offset: 0xD15E9, size: 0x8, addend: 0x0, symName: __ZNSt3__120__shared_ptr_emplaceIKN8facebook5react24RNSBottomTabsScreenPropsENS_9allocatorIS3_EEE21__on_zero_shared_weakEv, symObjAddr: 0x1250, symBinAddr: 0xA2C4, symSize: 0x4 }
  - { offset: 0xD59AA, size: 0x8, addend: 0x0, symName: __ZN8facebook5react24RNSBottomTabsScreenPropsD1Ev, symObjAddr: 0x1918, symBinAddr: 0xA470, symSize: 0xC }
  - { offset: 0xD59E2, size: 0x8, addend: 0x0, symName: __ZN8facebook5react24RNSBottomTabsScreenPropsD0Ev, symObjAddr: 0x1924, symBinAddr: 0xA47C, symSize: 0x1C }
  - { offset: 0xD707D, size: 0x8, addend: 0x0, symName: __ZNSt3__16vectorINS_4pairINS_12basic_stringIcNS_11char_traitsIcEENS_9allocatorIcEEEES7_EENS5_IS8_EEE16__destroy_vectorclB8ne200100Ev, symObjAddr: 0x20D8, symBinAddr: 0xA498, symSize: 0x70 }
  - { offset: 0xD7845, size: 0x8, addend: 0x0, symName: __ZN8facebook5react14RawPropsParser7prepareINS0_24RNSBottomTabsScreenPropsEEEvv, symObjAddr: 0x2538, symBinAddr: 0xA7F8, symSize: 0x1DC }
  - { offset: 0xD8826, size: 0x8, addend: 0x0, symName: __ZN8facebook5react27ConcreteComponentDescriptorINS0_22ConcreteViewShadowNodeIXadL_ZNS0_32RNSBottomTabsScreenComponentNameEEENS0_24RNSBottomTabsScreenPropsENS0_31RNSBottomTabsScreenEventEmitterENS0_9StateDataEEEED1Ev, symObjAddr: 0x2714, symBinAddr: 0xA9D4, symSize: 0x4 }
  - { offset: 0xD884A, size: 0x8, addend: 0x0, symName: __ZN8facebook5react27ConcreteComponentDescriptorINS0_22ConcreteViewShadowNodeIXadL_ZNS0_32RNSBottomTabsScreenComponentNameEEENS0_24RNSBottomTabsScreenPropsENS0_31RNSBottomTabsScreenEventEmitterENS0_9StateDataEEEED1Ev, symObjAddr: 0x2714, symBinAddr: 0xA9D4, symSize: 0x4 }
  - { offset: 0xD8869, size: 0x8, addend: 0x0, symName: __ZN8facebook5react27ConcreteComponentDescriptorINS0_22ConcreteViewShadowNodeIXadL_ZNS0_32RNSBottomTabsScreenComponentNameEEENS0_24RNSBottomTabsScreenPropsENS0_31RNSBottomTabsScreenEventEmitterENS0_9StateDataEEEED1Ev, symObjAddr: 0x2714, symBinAddr: 0xA9D4, symSize: 0x4 }
  - { offset: 0xD8B44, size: 0x8, addend: 0x0, symName: __ZN8facebook5react27ConcreteComponentDescriptorINS0_22ConcreteViewShadowNodeIXadL_ZNS0_32RNSBottomTabsScreenComponentNameEEENS0_24RNSBottomTabsScreenPropsENS0_31RNSBottomTabsScreenEventEmitterENS0_9StateDataEEEED0Ev, symObjAddr: 0x2718, symBinAddr: 0xA9D8, symSize: 0x14 }
  - { offset: 0xD8BC5, size: 0x8, addend: 0x0, symName: __ZNK8facebook5react27ConcreteComponentDescriptorINS0_22ConcreteViewShadowNodeIXadL_ZNS0_32RNSBottomTabsScreenComponentNameEEENS0_24RNSBottomTabsScreenPropsENS0_31RNSBottomTabsScreenEventEmitterENS0_9StateDataEEEE18getComponentHandleEv, symObjAddr: 0x272C, symBinAddr: 0xA9EC, symSize: 0xC }
  - { offset: 0xD8BEB, size: 0x8, addend: 0x0, symName: __ZNK8facebook5react27ConcreteComponentDescriptorINS0_22ConcreteViewShadowNodeIXadL_ZNS0_32RNSBottomTabsScreenComponentNameEEENS0_24RNSBottomTabsScreenPropsENS0_31RNSBottomTabsScreenEventEmitterENS0_9StateDataEEEE16getComponentNameEv, symObjAddr: 0x2738, symBinAddr: 0xA9F8, symSize: 0xC }
  - { offset: 0xD8C11, size: 0x8, addend: 0x0, symName: __ZNK8facebook5react27ConcreteComponentDescriptorINS0_22ConcreteViewShadowNodeIXadL_ZNS0_32RNSBottomTabsScreenComponentNameEEENS0_24RNSBottomTabsScreenPropsENS0_31RNSBottomTabsScreenEventEmitterENS0_9StateDataEEEE9getTraitsEv, symObjAddr: 0x2744, symBinAddr: 0xAA04, symSize: 0x8 }
  - { offset: 0xD8D12, size: 0x8, addend: 0x0, symName: __ZNK8facebook5react27ConcreteComponentDescriptorINS0_22ConcreteViewShadowNodeIXadL_ZNS0_32RNSBottomTabsScreenComponentNameEEENS0_24RNSBottomTabsScreenPropsENS0_31RNSBottomTabsScreenEventEmitterENS0_9StateDataEEEE16createShadowNodeERKNS0_18ShadowNodeFragmentERKNSt3__110shared_ptrIKNS0_16ShadowNodeFamilyEEE, symObjAddr: 0x274C, symBinAddr: 0xAA0C, symSize: 0x90 }
  - { offset: 0xD8FB3, size: 0x8, addend: 0x0, symName: __ZNK8facebook5react27ConcreteComponentDescriptorINS0_22ConcreteViewShadowNodeIXadL_ZNS0_32RNSBottomTabsScreenComponentNameEEENS0_24RNSBottomTabsScreenPropsENS0_31RNSBottomTabsScreenEventEmitterENS0_9StateDataEEEE15cloneShadowNodeERKNS0_10ShadowNodeERKNS0_18ShadowNodeFragmentE, symObjAddr: 0x27DC, symBinAddr: 0xAA9C, symSize: 0x104 }
  - { offset: 0xD935A, size: 0x8, addend: 0x0, symName: __ZNK8facebook5react27ConcreteComponentDescriptorINS0_22ConcreteViewShadowNodeIXadL_ZNS0_32RNSBottomTabsScreenComponentNameEEENS0_24RNSBottomTabsScreenPropsENS0_31RNSBottomTabsScreenEventEmitterENS0_9StateDataEEEE11appendChildERKNSt3__110shared_ptrIKNS0_10ShadowNodeEEESE_, symObjAddr: 0x28E0, symBinAddr: 0xABA0, symSize: 0x14 }
  - { offset: 0xD93B6, size: 0x8, addend: 0x0, symName: __ZNK8facebook5react27ConcreteComponentDescriptorINS0_22ConcreteViewShadowNodeIXadL_ZNS0_32RNSBottomTabsScreenComponentNameEEENS0_24RNSBottomTabsScreenPropsENS0_31RNSBottomTabsScreenEventEmitterENS0_9StateDataEEEE11appendChildERKNSt3__110shared_ptrIKNS0_10ShadowNodeEEESE_, symObjAddr: 0x28E0, symBinAddr: 0xABA0, symSize: 0x14 }
  - { offset: 0xD9C37, size: 0x8, addend: 0x0, symName: __ZNK8facebook5react27ConcreteComponentDescriptorINS0_22ConcreteViewShadowNodeIXadL_ZNS0_32RNSBottomTabsScreenComponentNameEEENS0_24RNSBottomTabsScreenPropsENS0_31RNSBottomTabsScreenEventEmitterENS0_9StateDataEEEE10clonePropsERKNS0_18PropsParserContextERKNSt3__110shared_ptrIKNS0_5PropsEEENS0_8RawPropsE, symObjAddr: 0x28F4, symBinAddr: 0xABB4, symSize: 0x21C }
  - { offset: 0xDA803, size: 0x8, addend: 0x0, symName: __ZN8facebook5react18ConcreteShadowNodeIXadL_ZNS0_32RNSBottomTabsScreenComponentNameEEENS0_24YogaLayoutableShadowNodeENS0_24RNSBottomTabsScreenPropsENS0_31RNSBottomTabsScreenEventEmitterENS0_9StateDataEE5PropsERKNS0_18PropsParserContextERKNS0_8RawPropsERKNSt3__110shared_ptrIKNS0_5PropsEEE, symObjAddr: 0x36B8, symBinAddr: 0xB320, symSize: 0x58 }
  - { offset: 0xDAA73, size: 0x8, addend: 0x0, symName: __ZNK8facebook5react27ConcreteComponentDescriptorINS0_22ConcreteViewShadowNodeIXadL_ZNS0_32RNSBottomTabsScreenComponentNameEEENS0_24RNSBottomTabsScreenPropsENS0_31RNSBottomTabsScreenEventEmitterENS0_9StateDataEEEE18createInitialStateERKNSt3__110shared_ptrIKNS0_5PropsEEERKNS9_IKNS0_16ShadowNodeFamilyEEE, symObjAddr: 0x2B10, symBinAddr: 0xADD0, symSize: 0x8 }
  - { offset: 0xDAAB9, size: 0x8, addend: 0x0, symName: __ZNK8facebook5react27ConcreteComponentDescriptorINS0_22ConcreteViewShadowNodeIXadL_ZNS0_32RNSBottomTabsScreenComponentNameEEENS0_24RNSBottomTabsScreenPropsENS0_31RNSBottomTabsScreenEventEmitterENS0_9StateDataEEEE18createInitialStateERKNSt3__110shared_ptrIKNS0_5PropsEEERKNS9_IKNS0_16ShadowNodeFamilyEEE, symObjAddr: 0x2B10, symBinAddr: 0xADD0, symSize: 0x8 }
  - { offset: 0xDAADE, size: 0x8, addend: 0x0, symName: __ZNK8facebook5react27ConcreteComponentDescriptorINS0_22ConcreteViewShadowNodeIXadL_ZNS0_32RNSBottomTabsScreenComponentNameEEENS0_24RNSBottomTabsScreenPropsENS0_31RNSBottomTabsScreenEventEmitterENS0_9StateDataEEEE18createInitialStateERKNSt3__110shared_ptrIKNS0_5PropsEEERKNS9_IKNS0_16ShadowNodeFamilyEEE, symObjAddr: 0x2B10, symBinAddr: 0xADD0, symSize: 0x8 }
  - { offset: 0xDAB02, size: 0x8, addend: 0x0, symName: __ZNK8facebook5react27ConcreteComponentDescriptorINS0_22ConcreteViewShadowNodeIXadL_ZNS0_32RNSBottomTabsScreenComponentNameEEENS0_24RNSBottomTabsScreenPropsENS0_31RNSBottomTabsScreenEventEmitterENS0_9StateDataEEEE11createStateERKNS0_16ShadowNodeFamilyERKNSt3__110shared_ptrIKvEE, symObjAddr: 0x2B18, symBinAddr: 0xADD8, symSize: 0x8 }
  - { offset: 0xDAB48, size: 0x8, addend: 0x0, symName: __ZNK8facebook5react27ConcreteComponentDescriptorINS0_22ConcreteViewShadowNodeIXadL_ZNS0_32RNSBottomTabsScreenComponentNameEEENS0_24RNSBottomTabsScreenPropsENS0_31RNSBottomTabsScreenEventEmitterENS0_9StateDataEEEE11createStateERKNS0_16ShadowNodeFamilyERKNSt3__110shared_ptrIKvEE, symObjAddr: 0x2B18, symBinAddr: 0xADD8, symSize: 0x8 }
  - { offset: 0xDAB6D, size: 0x8, addend: 0x0, symName: __ZNK8facebook5react27ConcreteComponentDescriptorINS0_22ConcreteViewShadowNodeIXadL_ZNS0_32RNSBottomTabsScreenComponentNameEEENS0_24RNSBottomTabsScreenPropsENS0_31RNSBottomTabsScreenEventEmitterENS0_9StateDataEEEE11createStateERKNS0_16ShadowNodeFamilyERKNSt3__110shared_ptrIKvEE, symObjAddr: 0x2B18, symBinAddr: 0xADD8, symSize: 0x8 }
  - { offset: 0xDAD5F, size: 0x8, addend: 0x0, symName: __ZNK8facebook5react27ConcreteComponentDescriptorINS0_22ConcreteViewShadowNodeIXadL_ZNS0_32RNSBottomTabsScreenComponentNameEEENS0_24RNSBottomTabsScreenPropsENS0_31RNSBottomTabsScreenEventEmitterENS0_9StateDataEEEE12createFamilyERKNS0_24ShadowNodeFamilyFragmentE, symObjAddr: 0x2B20, symBinAddr: 0xADE0, symSize: 0x168 }
  - { offset: 0xDB2C4, size: 0x8, addend: 0x0, symName: __ZNK8facebook5react27ConcreteComponentDescriptorINS0_22ConcreteViewShadowNodeIXadL_ZNS0_32RNSBottomTabsScreenComponentNameEEENS0_24RNSBottomTabsScreenPropsENS0_31RNSBottomTabsScreenEventEmitterENS0_9StateDataEEEE5adoptERNS0_10ShadowNodeE, symObjAddr: 0x2C88, symBinAddr: 0xAF48, symSize: 0x4 }
  - { offset: 0xDBB3E, size: 0x8, addend: 0x0, symName: __ZNSt3__120__shared_ptr_emplaceIN8facebook5react22ConcreteViewShadowNodeIXadL_ZNS2_32RNSBottomTabsScreenComponentNameEEENS2_24RNSBottomTabsScreenPropsENS2_31RNSBottomTabsScreenEventEmitterENS2_9StateDataEEENS_9allocatorIS7_EEEC2B8ne200100IJRKNS2_18ShadowNodeFragmentERKNS_10shared_ptrIKNS2_16ShadowNodeFamilyEEENS2_16ShadowNodeTraitsEES9_Li0EEES9_DpOT_, symObjAddr: 0x2FB4, symBinAddr: 0xAFBC, symSize: 0x68 }
  - { offset: 0xDBF27, size: 0x8, addend: 0x0, symName: __ZNSt3__120__shared_ptr_emplaceIN8facebook5react22ConcreteViewShadowNodeIXadL_ZNS2_32RNSBottomTabsScreenComponentNameEEENS2_24RNSBottomTabsScreenPropsENS2_31RNSBottomTabsScreenEventEmitterENS2_9StateDataEEENS_9allocatorIS7_EEED1Ev, symObjAddr: 0x301C, symBinAddr: 0xB024, symSize: 0x14 }
  - { offset: 0xDBF4B, size: 0x8, addend: 0x0, symName: __ZNSt3__120__shared_ptr_emplaceIN8facebook5react22ConcreteViewShadowNodeIXadL_ZNS2_32RNSBottomTabsScreenComponentNameEEENS2_24RNSBottomTabsScreenPropsENS2_31RNSBottomTabsScreenEventEmitterENS2_9StateDataEEENS_9allocatorIS7_EEED1Ev, symObjAddr: 0x301C, symBinAddr: 0xB024, symSize: 0x14 }
  - { offset: 0xDBF81, size: 0x8, addend: 0x0, symName: __ZNSt3__120__shared_ptr_emplaceIN8facebook5react22ConcreteViewShadowNodeIXadL_ZNS2_32RNSBottomTabsScreenComponentNameEEENS2_24RNSBottomTabsScreenPropsENS2_31RNSBottomTabsScreenEventEmitterENS2_9StateDataEEENS_9allocatorIS7_EEED0Ev, symObjAddr: 0x3030, symBinAddr: 0xB038, symSize: 0x24 }
  - { offset: 0xDC054, size: 0x8, addend: 0x0, symName: __ZNSt3__120__shared_ptr_emplaceIN8facebook5react22ConcreteViewShadowNodeIXadL_ZNS2_32RNSBottomTabsScreenComponentNameEEENS2_24RNSBottomTabsScreenPropsENS2_31RNSBottomTabsScreenEventEmitterENS2_9StateDataEEENS_9allocatorIS7_EEE16__on_zero_sharedEv, symObjAddr: 0x3054, symBinAddr: 0xB05C, symSize: 0xC }
  - { offset: 0xDC07D, size: 0x8, addend: 0x0, symName: __ZNSt3__120__shared_ptr_emplaceIN8facebook5react22ConcreteViewShadowNodeIXadL_ZNS2_32RNSBottomTabsScreenComponentNameEEENS2_24RNSBottomTabsScreenPropsENS2_31RNSBottomTabsScreenEventEmitterENS2_9StateDataEEENS_9allocatorIS7_EEE16__on_zero_sharedEv, symObjAddr: 0x3054, symBinAddr: 0xB05C, symSize: 0xC }
  - { offset: 0xDC09C, size: 0x8, addend: 0x0, symName: __ZNSt3__120__shared_ptr_emplaceIN8facebook5react22ConcreteViewShadowNodeIXadL_ZNS2_32RNSBottomTabsScreenComponentNameEEENS2_24RNSBottomTabsScreenPropsENS2_31RNSBottomTabsScreenEventEmitterENS2_9StateDataEEENS_9allocatorIS7_EEE16__on_zero_sharedEv, symObjAddr: 0x3054, symBinAddr: 0xB05C, symSize: 0xC }
  - { offset: 0xDC0BB, size: 0x8, addend: 0x0, symName: __ZNSt3__120__shared_ptr_emplaceIN8facebook5react22ConcreteViewShadowNodeIXadL_ZNS2_32RNSBottomTabsScreenComponentNameEEENS2_24RNSBottomTabsScreenPropsENS2_31RNSBottomTabsScreenEventEmitterENS2_9StateDataEEENS_9allocatorIS7_EEE16__on_zero_sharedEv, symObjAddr: 0x3054, symBinAddr: 0xB05C, symSize: 0xC }
  - { offset: 0xDC0E7, size: 0x8, addend: 0x0, symName: __ZNSt3__120__shared_ptr_emplaceIN8facebook5react22ConcreteViewShadowNodeIXadL_ZNS2_32RNSBottomTabsScreenComponentNameEEENS2_24RNSBottomTabsScreenPropsENS2_31RNSBottomTabsScreenEventEmitterENS2_9StateDataEEENS_9allocatorIS7_EEE21__on_zero_shared_weakEv, symObjAddr: 0x3060, symBinAddr: 0xB068, symSize: 0x4 }
  - { offset: 0xDC11B, size: 0x8, addend: 0x0, symName: __ZNSt3__120__shared_ptr_emplaceIN8facebook5react22ConcreteViewShadowNodeIXadL_ZNS2_32RNSBottomTabsScreenComponentNameEEENS2_24RNSBottomTabsScreenPropsENS2_31RNSBottomTabsScreenEventEmitterENS2_9StateDataEEENS_9allocatorIS7_EEE21__on_zero_shared_weakEv, symObjAddr: 0x3060, symBinAddr: 0xB068, symSize: 0x4 }
  - { offset: 0xDC13F, size: 0x8, addend: 0x0, symName: __ZNSt3__120__shared_ptr_emplaceIN8facebook5react22ConcreteViewShadowNodeIXadL_ZNS2_32RNSBottomTabsScreenComponentNameEEENS2_24RNSBottomTabsScreenPropsENS2_31RNSBottomTabsScreenEventEmitterENS2_9StateDataEEENS_9allocatorIS7_EEE21__on_zero_shared_weakEv, symObjAddr: 0x3060, symBinAddr: 0xB068, symSize: 0x4 }
  - { offset: 0xDC164, size: 0x8, addend: 0x0, symName: __ZNSt3__120__shared_ptr_emplaceIN8facebook5react22ConcreteViewShadowNodeIXadL_ZNS2_32RNSBottomTabsScreenComponentNameEEENS2_24RNSBottomTabsScreenPropsENS2_31RNSBottomTabsScreenEventEmitterENS2_9StateDataEEENS_9allocatorIS7_EEE21__on_zero_shared_weakEv, symObjAddr: 0x3060, symBinAddr: 0xB068, symSize: 0x4 }
  - { offset: 0xDC19C, size: 0x8, addend: 0x0, symName: __ZNSt3__120__shared_ptr_emplaceIN8facebook5react22ConcreteViewShadowNodeIXadL_ZNS2_32RNSBottomTabsScreenComponentNameEEENS2_24RNSBottomTabsScreenPropsENS2_31RNSBottomTabsScreenEventEmitterENS2_9StateDataEEENS_9allocatorIS7_EEE21__on_zero_shared_weakEv, symObjAddr: 0x3060, symBinAddr: 0xB068, symSize: 0x4 }
  - { offset: 0xDC49A, size: 0x8, addend: 0x0, symName: __ZN8facebook5react22ConcreteViewShadowNodeIXadL_ZNS0_32RNSBottomTabsScreenComponentNameEEENS0_24RNSBottomTabsScreenPropsENS0_31RNSBottomTabsScreenEventEmitterENS0_9StateDataEED1Ev, symObjAddr: 0x30D0, symBinAddr: 0xB06C, symSize: 0x70 }
  - { offset: 0xDCA3B, size: 0x8, addend: 0x0, symName: __ZN8facebook5react22ConcreteViewShadowNodeIXadL_ZNS0_32RNSBottomTabsScreenComponentNameEEENS0_24RNSBottomTabsScreenPropsENS0_31RNSBottomTabsScreenEventEmitterENS0_9StateDataEED0Ev, symObjAddr: 0x3140, symBinAddr: 0xB0DC, symSize: 0x74 }
  - { offset: 0xDCE53, size: 0x8, addend: 0x0, symName: __ZNK8facebook5react22ConcreteViewShadowNodeIXadL_ZNS0_32RNSBottomTabsScreenComponentNameEEENS0_24RNSBottomTabsScreenPropsENS0_31RNSBottomTabsScreenEventEmitterENS0_9StateDataEE12getTransformEv, symObjAddr: 0x31B4, symBinAddr: 0xB150, symSize: 0x40 }
  - { offset: 0xDCEC8, size: 0x8, addend: 0x0, symName: __ZNK8facebook5react22ConcreteViewShadowNodeIXadL_ZNS0_32RNSBottomTabsScreenComponentNameEEENS0_24RNSBottomTabsScreenPropsENS0_31RNSBottomTabsScreenEventEmitterENS0_9StateDataEE16canBeTouchTargetEv, symObjAddr: 0x31F4, symBinAddr: 0xB190, symSize: 0x18 }
  - { offset: 0xDCF02, size: 0x8, addend: 0x0, symName: __ZNK8facebook5react22ConcreteViewShadowNodeIXadL_ZNS0_32RNSBottomTabsScreenComponentNameEEENS0_24RNSBottomTabsScreenPropsENS0_31RNSBottomTabsScreenEventEmitterENS0_9StateDataEE16canBeTouchTargetEv, symObjAddr: 0x31F4, symBinAddr: 0xB190, symSize: 0x18 }
  - { offset: 0xDCF20, size: 0x8, addend: 0x0, symName: __ZNK8facebook5react22ConcreteViewShadowNodeIXadL_ZNS0_32RNSBottomTabsScreenComponentNameEEENS0_24RNSBottomTabsScreenPropsENS0_31RNSBottomTabsScreenEventEmitterENS0_9StateDataEE16canBeTouchTargetEv, symObjAddr: 0x31F4, symBinAddr: 0xB190, symSize: 0x18 }
  - { offset: 0xDCF3E, size: 0x8, addend: 0x0, symName: __ZNK8facebook5react22ConcreteViewShadowNodeIXadL_ZNS0_32RNSBottomTabsScreenComponentNameEEENS0_24RNSBottomTabsScreenPropsENS0_31RNSBottomTabsScreenEventEmitterENS0_9StateDataEE24canChildrenBeTouchTargetEv, symObjAddr: 0x320C, symBinAddr: 0xB1A8, symSize: 0x18 }
  - { offset: 0xDCF74, size: 0x8, addend: 0x0, symName: __ZNK8facebook5react22ConcreteViewShadowNodeIXadL_ZNS0_32RNSBottomTabsScreenComponentNameEEENS0_24RNSBottomTabsScreenPropsENS0_31RNSBottomTabsScreenEventEmitterENS0_9StateDataEE24canChildrenBeTouchTargetEv, symObjAddr: 0x320C, symBinAddr: 0xB1A8, symSize: 0x18 }
  - { offset: 0xDCF92, size: 0x8, addend: 0x0, symName: __ZNK8facebook5react22ConcreteViewShadowNodeIXadL_ZNS0_32RNSBottomTabsScreenComponentNameEEENS0_24RNSBottomTabsScreenPropsENS0_31RNSBottomTabsScreenEventEmitterENS0_9StateDataEE24canChildrenBeTouchTargetEv, symObjAddr: 0x320C, symBinAddr: 0xB1A8, symSize: 0x18 }
  - { offset: 0xDD395, size: 0x8, addend: 0x0, symName: __ZNSt3__120__shared_ptr_emplaceIN8facebook5react22ConcreteViewShadowNodeIXadL_ZNS2_32RNSBottomTabsScreenComponentNameEEENS2_24RNSBottomTabsScreenPropsENS2_31RNSBottomTabsScreenEventEmitterENS2_9StateDataEEENS_9allocatorIS7_EEEC2B8ne200100IJRKNS2_10ShadowNodeERKNS2_18ShadowNodeFragmentEES9_Li0EEES9_DpOT_, symObjAddr: 0x3560, symBinAddr: 0xB220, symSize: 0x64 }
  - { offset: 0xDD8D5, size: 0x8, addend: 0x0, symName: __ZNSt3__120__shared_ptr_emplaceIN8facebook5react24RNSBottomTabsScreenPropsENS_9allocatorIS3_EEEC2B8ne200100IJRKNS2_18PropsParserContextERKS3_RKNS2_8RawPropsEES5_Li0EEES5_DpOT_, symObjAddr: 0x3780, symBinAddr: 0xB3E8, symSize: 0x4C }
  - { offset: 0xDDAD0, size: 0x8, addend: 0x0, symName: __ZNSt3__120__shared_ptr_emplaceIN8facebook5react24RNSBottomTabsScreenPropsENS_9allocatorIS3_EEED1Ev, symObjAddr: 0x37CC, symBinAddr: 0xB434, symSize: 0x14 }
  - { offset: 0xDDAF4, size: 0x8, addend: 0x0, symName: __ZNSt3__120__shared_ptr_emplaceIN8facebook5react24RNSBottomTabsScreenPropsENS_9allocatorIS3_EEED1Ev, symObjAddr: 0x37CC, symBinAddr: 0xB434, symSize: 0x14 }
  - { offset: 0xDDB2A, size: 0x8, addend: 0x0, symName: __ZNSt3__120__shared_ptr_emplaceIN8facebook5react24RNSBottomTabsScreenPropsENS_9allocatorIS3_EEED0Ev, symObjAddr: 0x37E0, symBinAddr: 0xB448, symSize: 0x24 }
  - { offset: 0xDDBCD, size: 0x8, addend: 0x0, symName: __ZNSt3__120__shared_ptr_emplaceIN8facebook5react24RNSBottomTabsScreenPropsENS_9allocatorIS3_EEE16__on_zero_sharedEv, symObjAddr: 0x3804, symBinAddr: 0xB46C, symSize: 0x10 }
  - { offset: 0xDDBF6, size: 0x8, addend: 0x0, symName: __ZNSt3__120__shared_ptr_emplaceIN8facebook5react24RNSBottomTabsScreenPropsENS_9allocatorIS3_EEE16__on_zero_sharedEv, symObjAddr: 0x3804, symBinAddr: 0xB46C, symSize: 0x10 }
  - { offset: 0xDDC6A, size: 0x8, addend: 0x0, symName: __ZNSt3__120__shared_ptr_emplaceIN8facebook5react24RNSBottomTabsScreenPropsENS_9allocatorIS3_EEE21__on_zero_shared_weakEv, symObjAddr: 0x3814, symBinAddr: 0xB47C, symSize: 0x4 }
  - { offset: 0xDDC9E, size: 0x8, addend: 0x0, symName: __ZNSt3__120__shared_ptr_emplaceIN8facebook5react24RNSBottomTabsScreenPropsENS_9allocatorIS3_EEE21__on_zero_shared_weakEv, symObjAddr: 0x3814, symBinAddr: 0xB47C, symSize: 0x4 }
  - { offset: 0xDDCC2, size: 0x8, addend: 0x0, symName: __ZNSt3__120__shared_ptr_emplaceIN8facebook5react24RNSBottomTabsScreenPropsENS_9allocatorIS3_EEE21__on_zero_shared_weakEv, symObjAddr: 0x3814, symBinAddr: 0xB47C, symSize: 0x4 }
  - { offset: 0xDDCE7, size: 0x8, addend: 0x0, symName: __ZNSt3__120__shared_ptr_emplaceIN8facebook5react24RNSBottomTabsScreenPropsENS_9allocatorIS3_EEE21__on_zero_shared_weakEv, symObjAddr: 0x3814, symBinAddr: 0xB47C, symSize: 0x4 }
  - { offset: 0xDDD1F, size: 0x8, addend: 0x0, symName: __ZNSt3__120__shared_ptr_emplaceIN8facebook5react24RNSBottomTabsScreenPropsENS_9allocatorIS3_EEE21__on_zero_shared_weakEv, symObjAddr: 0x3814, symBinAddr: 0xB47C, symSize: 0x4 }
  - { offset: 0xDE3EE, size: 0x8, addend: 0x0, symName: __ZNSt3__120__shared_ptr_emplaceIKN8facebook5react31RNSBottomTabsScreenEventEmitterENS_9allocatorIS3_EEEC2B8ne200100IJNS_10shared_ptrINS2_11EventTargetEEERKNS_8weak_ptrIKNS2_15EventDispatcherEEEES6_Li0EEES6_DpOT_, symObjAddr: 0x3AD4, symBinAddr: 0xB4E0, symSize: 0x4C }
  - { offset: 0xDE5A7, size: 0x8, addend: 0x0, symName: __ZNSt3__120__shared_ptr_emplaceIKN8facebook5react31RNSBottomTabsScreenEventEmitterENS_9allocatorIS3_EEED1Ev, symObjAddr: 0x3B20, symBinAddr: 0xB52C, symSize: 0x14 }
  - { offset: 0xDE5CB, size: 0x8, addend: 0x0, symName: __ZNSt3__120__shared_ptr_emplaceIKN8facebook5react31RNSBottomTabsScreenEventEmitterENS_9allocatorIS3_EEED1Ev, symObjAddr: 0x3B20, symBinAddr: 0xB52C, symSize: 0x14 }
  - { offset: 0xDE601, size: 0x8, addend: 0x0, symName: __ZNSt3__120__shared_ptr_emplaceIKN8facebook5react31RNSBottomTabsScreenEventEmitterENS_9allocatorIS3_EEED0Ev, symObjAddr: 0x3B34, symBinAddr: 0xB540, symSize: 0x24 }
  - { offset: 0xDE6D4, size: 0x8, addend: 0x0, symName: __ZNSt3__120__shared_ptr_emplaceIKN8facebook5react31RNSBottomTabsScreenEventEmitterENS_9allocatorIS3_EEE16__on_zero_sharedEv, symObjAddr: 0x3B58, symBinAddr: 0xB564, symSize: 0xC }
  - { offset: 0xDE6FD, size: 0x8, addend: 0x0, symName: __ZNSt3__120__shared_ptr_emplaceIKN8facebook5react31RNSBottomTabsScreenEventEmitterENS_9allocatorIS3_EEE16__on_zero_sharedEv, symObjAddr: 0x3B58, symBinAddr: 0xB564, symSize: 0xC }
  - { offset: 0xDE71C, size: 0x8, addend: 0x0, symName: __ZNSt3__120__shared_ptr_emplaceIKN8facebook5react31RNSBottomTabsScreenEventEmitterENS_9allocatorIS3_EEE16__on_zero_sharedEv, symObjAddr: 0x3B58, symBinAddr: 0xB564, symSize: 0xC }
  - { offset: 0xDE73B, size: 0x8, addend: 0x0, symName: __ZNSt3__120__shared_ptr_emplaceIKN8facebook5react31RNSBottomTabsScreenEventEmitterENS_9allocatorIS3_EEE16__on_zero_sharedEv, symObjAddr: 0x3B58, symBinAddr: 0xB564, symSize: 0xC }
  - { offset: 0xDE767, size: 0x8, addend: 0x0, symName: __ZNSt3__120__shared_ptr_emplaceIKN8facebook5react31RNSBottomTabsScreenEventEmitterENS_9allocatorIS3_EEE21__on_zero_shared_weakEv, symObjAddr: 0x3B64, symBinAddr: 0xB570, symSize: 0x4 }
  - { offset: 0xDE79B, size: 0x8, addend: 0x0, symName: __ZNSt3__120__shared_ptr_emplaceIKN8facebook5react31RNSBottomTabsScreenEventEmitterENS_9allocatorIS3_EEE21__on_zero_shared_weakEv, symObjAddr: 0x3B64, symBinAddr: 0xB570, symSize: 0x4 }
  - { offset: 0xDE7BF, size: 0x8, addend: 0x0, symName: __ZNSt3__120__shared_ptr_emplaceIKN8facebook5react31RNSBottomTabsScreenEventEmitterENS_9allocatorIS3_EEE21__on_zero_shared_weakEv, symObjAddr: 0x3B64, symBinAddr: 0xB570, symSize: 0x4 }
  - { offset: 0xDE7E4, size: 0x8, addend: 0x0, symName: __ZNSt3__120__shared_ptr_emplaceIKN8facebook5react31RNSBottomTabsScreenEventEmitterENS_9allocatorIS3_EEE21__on_zero_shared_weakEv, symObjAddr: 0x3B64, symBinAddr: 0xB570, symSize: 0x4 }
  - { offset: 0xDE81B, size: 0x8, addend: 0x0, symName: __ZNSt3__120__shared_ptr_emplaceIKN8facebook5react31RNSBottomTabsScreenEventEmitterENS_9allocatorIS3_EEE21__on_zero_shared_weakEv, symObjAddr: 0x3B64, symBinAddr: 0xB570, symSize: 0x4 }
  - { offset: 0xDED74, size: 0x8, addend: 0x0, symName: __ZN8facebook5react31RNSBottomTabsScreenEventEmitterD1Ev, symObjAddr: 0x3CA8, symBinAddr: 0xB6B4, symSize: 0x34 }
  - { offset: 0xDEEA7, size: 0x8, addend: 0x0, symName: __ZN8facebook5react31RNSBottomTabsScreenEventEmitterD0Ev, symObjAddr: 0x3CDC, symBinAddr: 0xB6E8, symSize: 0x38 }
  - { offset: 0xDF652, size: 0x8, addend: 0x0, symName: __ZNSt3__120__shared_ptr_emplaceIN8facebook5react16ShadowNodeFamilyENS_9allocatorIS3_EEEC2B8ne200100IJRKNS2_24ShadowNodeFamilyFragmentERNS_10shared_ptrIKNS2_31RNSBottomTabsScreenEventEmitterEEERKNS_8weak_ptrIKNS2_15EventDispatcherEEERKNS2_27ConcreteComponentDescriptorINS2_22ConcreteViewShadowNodeIXadL_ZNS2_32RNSBottomTabsScreenComponentNameEEENS2_24RNSBottomTabsScreenPropsESC_NS2_9StateDataEEEEEES5_Li0EEES5_DpOT_, symObjAddr: 0x41B8, symBinAddr: 0xB798, symSize: 0x4C }
  - { offset: 0xDF9E4, size: 0x8, addend: 0x0, symName: __GLOBAL__sub_I_RNSBottomTabsScreenComponentView.mm, symObjAddr: 0x46B8, symBinAddr: 0xB8C0, symSize: 0x20 }
  - { offset: 0xE1DDA, size: 0x8, addend: 0x0, symName: '+[RNSBottomTabsScreenComponentViewManager moduleName]', symObjAddr: 0x0, symBinAddr: 0xB8E0, symSize: 0xC }
  - { offset: 0xE1E5B, size: 0x8, addend: 0x0, symName: '+[RNSBottomTabsScreenComponentViewManager moduleName]', symObjAddr: 0x0, symBinAddr: 0xB8E0, symSize: 0xC }
  - { offset: 0xE1E8C, size: 0x8, addend: 0x0, symName: '+[RNSBottomTabsScreenComponentViewManager load]', symObjAddr: 0xC, symBinAddr: 0xB8EC, symSize: 0x4 }
  - { offset: 0xE1EBF, size: 0x8, addend: 0x0, symName: '+[RNSBottomTabsScreenComponentViewManager load]', symObjAddr: 0xC, symBinAddr: 0xB8EC, symSize: 0x4 }
  - { offset: 0xE20C5, size: 0x8, addend: 0x0, symName: __ZN8facebook5react17HostPlatformColorL14UndefinedColorE, symObjAddr: 0x7FBA0, symBinAddr: 0x7D608, symSize: 0x0 }
  - { offset: 0xE2F1C, size: 0x8, addend: 0x0, symName: '-[RNSBottomTabsScreenEventEmitter emitOnWillAppear]', symObjAddr: 0x0, symBinAddr: 0xB8F0, symSize: 0x50 }
  - { offset: 0xE2FE7, size: 0x8, addend: 0x0, symName: '-[RNSBottomTabsScreenEventEmitter emitOnDidAppear]', symObjAddr: 0x50, symBinAddr: 0xB940, symSize: 0x50 }
  - { offset: 0xE3090, size: 0x8, addend: 0x0, symName: '-[RNSBottomTabsScreenEventEmitter emitOnWillDisappear]', symObjAddr: 0xA0, symBinAddr: 0xB990, symSize: 0x50 }
  - { offset: 0xE3139, size: 0x8, addend: 0x0, symName: '-[RNSBottomTabsScreenEventEmitter emitOnDidDisappear]', symObjAddr: 0xF0, symBinAddr: 0xB9E0, symSize: 0x50 }
  - { offset: 0xE31E3, size: 0x8, addend: 0x0, symName: '-[RNSBottomTabsScreenEventEmitter updateEventEmitter:]', symObjAddr: 0x140, symBinAddr: 0xBA30, symSize: 0xC }
  - { offset: 0xE3448, size: 0x8, addend: 0x0, symName: '-[RNSBottomTabsScreenEventEmitter .cxx_destruct]', symObjAddr: 0x1C4, symBinAddr: 0xBA3C, symSize: 0x8 }
  - { offset: 0xE3522, size: 0x8, addend: 0x0, symName: '-[RNSBottomTabsScreenEventEmitter .cxx_construct]', symObjAddr: 0x1CC, symBinAddr: 0xBA44, symSize: 0x8 }
  - { offset: 0xE3559, size: 0x8, addend: 0x0, symName: '-[RNSBottomTabsScreenEventEmitter .cxx_construct]', symObjAddr: 0x1CC, symBinAddr: 0xBA44, symSize: 0x8 }
  - { offset: 0xE3578, size: 0x8, addend: 0x0, symName: '-[RNSBottomTabsScreenEventEmitter .cxx_construct]', symObjAddr: 0x1CC, symBinAddr: 0xBA44, symSize: 0x8 }
  - { offset: 0xE361E, size: 0x8, addend: 0x0, symName: __GLOBAL__sub_I_RNSBottomTabsScreenEventEmitter.mm, symObjAddr: 0x22C, symBinAddr: 0xBA4C, symSize: 0x20 }
  - { offset: 0xE56B8, size: 0x8, addend: 0x0, symName: __ZN8facebook5react23RNSBottomTabsShadowNode14setImageLoaderENSt3__18weak_ptrIvEE, symObjAddr: 0x0, symBinAddr: 0xBA6C, symSize: 0x74 }
  - { offset: 0xE56DC, size: 0x8, addend: 0x0, symName: __ZN8facebook5react26RNSBottomTabsComponentNameE, symObjAddr: 0x8C, symBinAddr: 0x49799, symSize: 0x0 }
  - { offset: 0xE65D1, size: 0x8, addend: 0x0, symName: __ZN8facebook5react26RNSBottomTabsComponentNameE, symObjAddr: 0x8C, symBinAddr: 0x49799, symSize: 0x0 }
  - { offset: 0xFE479, size: 0x8, addend: 0x0, symName: __ZN8facebook5react23RNSBottomTabsShadowNode14setImageLoaderENSt3__18weak_ptrIvEE, symObjAddr: 0x0, symBinAddr: 0xBA6C, symSize: 0x74 }
  - { offset: 0xFE650, size: 0x8, addend: 0x0, symName: __ZN8facebook5react23RNSBottomTabsShadowNode19getStateDataMutableEv, symObjAddr: 0x74, symBinAddr: 0xBAE0, symSize: 0xC }
  - { offset: 0xFE676, size: 0x8, addend: 0x0, symName: __ZN8facebook5react23RNSBottomTabsShadowNode19getStateDataMutableEv, symObjAddr: 0x74, symBinAddr: 0xBAE0, symSize: 0xC }
  - { offset: 0xFE693, size: 0x8, addend: 0x0, symName: __ZN8facebook5react23RNSBottomTabsShadowNode19getStateDataMutableEv, symObjAddr: 0x74, symBinAddr: 0xBAE0, symSize: 0xC }
  - { offset: 0x100828, size: 0x8, addend: 0x0, symName: __ZN8facebook5react18RNSBottomTabsState14setImageLoaderENSt3__18weak_ptrIvEE, symObjAddr: 0x0, symBinAddr: 0xBAEC, symSize: 0x34 }
  - { offset: 0x1035B3, size: 0x8, addend: 0x0, symName: __ZN8facebook5react18RNSBottomTabsState14setImageLoaderENSt3__18weak_ptrIvEE, symObjAddr: 0x0, symBinAddr: 0xBAEC, symSize: 0x34 }
  - { offset: 0x1035ED, size: 0x8, addend: 0x0, symName: __ZN8facebook5react18RNSBottomTabsState14setImageLoaderENSt3__18weak_ptrIvEE, symObjAddr: 0x0, symBinAddr: 0xBAEC, symSize: 0x34 }
  - { offset: 0x103614, size: 0x8, addend: 0x0, symName: __ZN8facebook5react18RNSBottomTabsState14setImageLoaderENSt3__18weak_ptrIvEE, symObjAddr: 0x0, symBinAddr: 0xBAEC, symSize: 0x34 }
  - { offset: 0x103632, size: 0x8, addend: 0x0, symName: __ZN8facebook5react18RNSBottomTabsState14setImageLoaderENSt3__18weak_ptrIvEE, symObjAddr: 0x0, symBinAddr: 0xBAEC, symSize: 0x34 }
  - { offset: 0x103716, size: 0x8, addend: 0x0, symName: __ZNK8facebook5react18RNSBottomTabsState14getImageLoaderEv, symObjAddr: 0x34, symBinAddr: 0xBB20, symSize: 0x24 }
  - { offset: 0x103740, size: 0x8, addend: 0x0, symName: __ZNK8facebook5react18RNSBottomTabsState14getImageLoaderEv, symObjAddr: 0x34, symBinAddr: 0xBB20, symSize: 0x24 }
  - { offset: 0x103767, size: 0x8, addend: 0x0, symName: __ZNK8facebook5react18RNSBottomTabsState14getImageLoaderEv, symObjAddr: 0x34, symBinAddr: 0xBB20, symSize: 0x24 }
  - { offset: 0x1059AD, size: 0x8, addend: 0x0, symName: __ZN8facebook5react17HostPlatformColorL14UndefinedColorE, symObjAddr: 0x17A00, symBinAddr: 0x7D620, symSize: 0x0 }
  - { offset: 0x108594, size: 0x8, addend: 0x0, symName: __ZN9rnscreens10conversion44UIInterfaceOrientationMaskFromRNSOrientationE14RNSOrientation, symObjAddr: 0x0, symBinAddr: 0xBB44, symSize: 0xE4 }
  - { offset: 0x1085D0, size: 0x8, addend: 0x0, symName: __ZN9rnscreens10conversion44RNSOrientationFromUIInterfaceOrientationMaskEm, symObjAddr: 0xE4, symBinAddr: 0xBC28, symSize: 0xC8 }
  - { offset: 0x1086D2, size: 0x8, addend: 0x0, symName: __GLOBAL__sub_I_RNSConversions.mm, symObjAddr: 0x1AC, symBinAddr: 0xBCF0, symSize: 0x20 }
  - { offset: 0x10A953, size: 0x8, addend: 0x0, symName: __ZN8facebook5react17HostPlatformColorL14UndefinedColorE, symObjAddr: 0x24550, symBinAddr: 0x7D638, symSize: 0x0 }
  - { offset: 0x10E8F4, size: 0x8, addend: 0x0, symName: __ZN9rnscreens10conversion44RNSUIBlurEffectFromOptionalUIBlurEffectStyleERNSt3__18optionalI17UIBlurEffectStyleEE, symObjAddr: 0x0, symBinAddr: 0xBD10, symSize: 0x3C }
  - { offset: 0x10E925, size: 0x8, addend: 0x0, symName: __ZN9rnscreens10conversion44RNSUIBlurEffectFromOptionalUIBlurEffectStyleERNSt3__18optionalI17UIBlurEffectStyleEE, symObjAddr: 0x0, symBinAddr: 0xBD10, symSize: 0x3C }
  - { offset: 0x10E942, size: 0x8, addend: 0x0, symName: __ZN9rnscreens10conversion44RNSUIBlurEffectFromOptionalUIBlurEffectStyleERNSt3__18optionalI17UIBlurEffectStyleEE, symObjAddr: 0x0, symBinAddr: 0xBD10, symSize: 0x3C }
  - { offset: 0x10E95F, size: 0x8, addend: 0x0, symName: __ZN9rnscreens10conversion35RNSMaybeUIBlurEffectStyleFromStringEP8NSString, symObjAddr: 0x3C, symBinAddr: 0xBD4C, symSize: 0x318 }
  - { offset: 0x10E9A9, size: 0x8, addend: 0x0, symName: __ZN9rnscreens10conversion25RNSUIBlurEffectFromStringEP8NSString, symObjAddr: 0x354, symBinAddr: 0xC064, symSize: 0x5C }
  - { offset: 0x10EA0A, size: 0x8, addend: 0x0, symName: __ZN9rnscreens10conversion47RNSMaybeUIBlurEffectStyleFromRNSBlurEffectStyleE18RNSBlurEffectStyle, symObjAddr: 0x3B0, symBinAddr: 0xC0C0, symSize: 0x6C }
  - { offset: 0x10EA54, size: 0x8, addend: 0x0, symName: __ZN9rnscreens10conversion37RNSUIBlurEffectFromRNSBlurEffectStyleE18RNSBlurEffectStyle, symObjAddr: 0x41C, symBinAddr: 0xC12C, symSize: 0x30 }
  - { offset: 0x10EABE, size: 0x8, addend: 0x0, symName: __ZN9rnscreens10conversion63UITabBarMinimizeBehaviorFromRNSBottomTabsTabBarMinimizeBehaviorEN8facebook5react35RNSBottomTabsTabBarMinimizeBehaviorE, symObjAddr: 0x44C, symBinAddr: 0xC15C, symSize: 0x10 }
  - { offset: 0x10EAEC, size: 0x8, addend: 0x0, symName: __ZN9rnscreens10conversion29RNSBottomTabsIconTypeFromIconEN8facebook5react27RNSBottomTabsScreenIconTypeE, symObjAddr: 0x45C, symBinAddr: 0xC16C, symSize: 0x18 }
  - { offset: 0x10EB1A, size: 0x8, addend: 0x0, symName: __ZN9rnscreens10conversion40RCTImageSourceFromImageSourceAndIconTypeEPKN8facebook5react11ImageSourceE21RNSBottomTabsIconType, symObjAddr: 0x474, symBinAddr: 0xC184, symSize: 0x574 }
  - { offset: 0x10F11C, size: 0x8, addend: 0x0, symName: __ZN9rnscreens10conversion48RNSOrientationFromRNSBottomTabsScreenOrientationEN8facebook5react30RNSBottomTabsScreenOrientationE, symObjAddr: 0x9E8, symBinAddr: 0xC6F8, symSize: 0x40 }
  - { offset: 0x10F167, size: 0x8, addend: 0x0, symName: __ZN9rnscreens10conversion67RNSBottomTabsScreenSystemItemFromReactRNSBottomTabsScreenSystemItemEN8facebook5react29RNSBottomTabsScreenSystemItemE, symObjAddr: 0xA28, symBinAddr: 0xC738, symSize: 0x40 }
  - { offset: 0x10F1B2, size: 0x8, addend: 0x0, symName: __ZN9rnscreens10conversion49RNSBottomTabsScreenSystemItemToUITabBarSystemItemE29RNSBottomTabsScreenSystemItem, symObjAddr: 0xA68, symBinAddr: 0xC778, symSize: 0x24 }
  - { offset: 0x10F781, size: 0x8, addend: 0x0, symName: __GLOBAL__sub_I_RNSConversions_BottomTabs.mm, symObjAddr: 0xB90, symBinAddr: 0xC79C, symSize: 0x20 }
  - { offset: 0x1119F0, size: 0x8, addend: 0x0, symName: __ZN8facebook5react17HostPlatformColorL14UndefinedColorE, symObjAddr: 0x485E0, symBinAddr: 0x7D650, symSize: 0x0 }
  - { offset: 0x119803, size: 0x8, addend: 0x0, symName: __ZN9rnscreens10conversion26RNSConvertFollyDynamicToIdERKN5folly7dynamicE, symObjAddr: 0x0, symBinAddr: 0xC7BC, symSize: 0x274 }
  - { offset: 0x119CE2, size: 0x8, addend: 0x0, symName: __ZN9rnscreens10conversion26RNSConvertFollyDynamicToIdERKN5folly7dynamicE.cold.1, symObjAddr: 0x478, symBinAddr: 0x3ECDC, symSize: 0x1C }
  - { offset: 0x11A2E4, size: 0x8, addend: 0x0, symName: __GLOBAL__sub_I_RNSConversions_Fabric.mm, symObjAddr: 0x500, symBinAddr: 0xCA30, symSize: 0x20 }
  - { offset: 0x11C519, size: 0x8, addend: 0x0, symName: __ZN8facebook5react17HostPlatformColorL14UndefinedColorE, symObjAddr: 0x1B058, symBinAddr: 0x7D668, symSize: 0x0 }
  - { offset: 0x11F491, size: 0x8, addend: 0x0, symName: __ZN9rnscreens10conversion43SplitViewPreferredSplitBehaviorFromHostPropEN8facebook5react38RNSSplitViewHostPreferredSplitBehaviorE, symObjAddr: 0x0, symBinAddr: 0xCA50, symSize: 0x18 }
  - { offset: 0x11F4BF, size: 0x8, addend: 0x0, symName: __ZN9rnscreens10conversion32SplitViewPrimaryEdgeFromHostPropEN8facebook5react27RNSSplitViewHostPrimaryEdgeE, symObjAddr: 0x18, symBinAddr: 0xCA68, symSize: 0xC }
  - { offset: 0x11F4ED, size: 0x8, addend: 0x0, symName: __ZN9rnscreens10conversion41SplitViewPreferredDisplayModeFromHostPropEN8facebook5react36RNSSplitViewHostPreferredDisplayModeE, symObjAddr: 0x24, symBinAddr: 0xCA74, symSize: 0x10 }
  - { offset: 0x11F51B, size: 0x8, addend: 0x0, symName: __ZN9rnscreens10conversion48SplitViewDisplayModeButtonVisibilityFromHostPropEN8facebook5react43RNSSplitViewHostDisplayModeButtonVisibilityE, symObjAddr: 0x34, symBinAddr: 0xCA84, symSize: 0x18 }
  - { offset: 0x11F549, size: 0x8, addend: 0x0, symName: __ZN9rnscreens10conversion40UISplitViewControllerDisplayModeToStringE32UISplitViewControllerDisplayMode, symObjAddr: 0x4C, symBinAddr: 0xCA9C, symSize: 0x30 }
  - { offset: 0x11F5A7, size: 0x8, addend: 0x0, symName: __ZN9rnscreens10conversion45RNSOrientationFromRNSSplitViewHostOrientationEN8facebook5react27RNSSplitViewHostOrientationE, symObjAddr: 0x7C, symBinAddr: 0xCACC, symSize: 0x40 }
  - { offset: 0x11F5F1, size: 0x8, addend: 0x0, symName: __ZN9rnscreens10conversion42RNSSplitViewScreenColumnTypeFromScreenPropEN8facebook5react28RNSSplitViewScreenColumnTypeE, symObjAddr: 0xBC, symBinAddr: 0xCB0C, symSize: 0xC }
  - { offset: 0x11FA98, size: 0x8, addend: 0x0, symName: __GLOBAL__sub_I_RNSConversions_SplitView.mm, symObjAddr: 0x204, symBinAddr: 0xCB18, symSize: 0x20 }
  - { offset: 0x121D47, size: 0x8, addend: 0x0, symName: __ZN8facebook5react17HostPlatformColorL14UndefinedColorE, symObjAddr: 0x1E868, symBinAddr: 0x7D680, symSize: 0x0 }
  - { offset: 0x125F7F, size: 0x8, addend: 0x0, symName: '+[RNSConvert UISemanticContentAttributeFromCppEquivalent:]', symObjAddr: 0x0, symBinAddr: 0xCB38, symSize: 0x10 }
  - { offset: 0x125FBE, size: 0x8, addend: 0x0, symName: '+[RNSConvert UINavigationItemBackButtonDisplayModeFromCppEquivalent:]', symObjAddr: 0x10, symBinAddr: 0xCB48, symSize: 0x18 }
  - { offset: 0x125FFD, size: 0x8, addend: 0x0, symName: '+[RNSConvert RNSScreenStackPresentationFromCppEquivalent:]', symObjAddr: 0x28, symBinAddr: 0xCB60, symSize: 0x24 }
  - { offset: 0x12603C, size: 0x8, addend: 0x0, symName: '+[RNSConvert RNSScreenStackAnimationFromCppEquivalent:]', symObjAddr: 0x4C, symBinAddr: 0xCB84, symSize: 0x24 }
  - { offset: 0x12607B, size: 0x8, addend: 0x0, symName: '+[RNSConvert RNSScreenStackHeaderSubviewTypeFromCppEquivalent:]', symObjAddr: 0x70, symBinAddr: 0xCBA8, symSize: 0x20 }
  - { offset: 0x1260BA, size: 0x8, addend: 0x0, symName: '+[RNSConvert RNSScreenReplaceAnimationFromCppEquivalent:]', symObjAddr: 0x90, symBinAddr: 0xCBC8, symSize: 0xC }
  - { offset: 0x1260F9, size: 0x8, addend: 0x0, symName: '+[RNSConvert RNSScreenSwipeDirectionFromCppEquivalent:]', symObjAddr: 0x9C, symBinAddr: 0xCBD4, symSize: 0xC }
  - { offset: 0x126180, size: 0x8, addend: 0x0, symName: '+[RNSConvert detentFractionsArrayFromVector:]', symObjAddr: 0xA8, symBinAddr: 0xCBE0, symSize: 0xB0 }
  - { offset: 0x126268, size: 0x8, addend: 0x0, symName: '+[RNSConvert gestureResponseDistanceDictFromCppStruct:]', symObjAddr: 0x158, symBinAddr: 0xCC90, symSize: 0x164 }
  - { offset: 0x1262A8, size: 0x8, addend: 0x0, symName: '+[RNSConvert UITextAutocapitalizationTypeFromCppEquivalent:]', symObjAddr: 0x2BC, symBinAddr: 0xCDF4, symSize: 0xC }
  - { offset: 0x1262E7, size: 0x8, addend: 0x0, symName: '+[RNSConvert RNSScreenSearchBarPlacementFromCppEquivalent:]', symObjAddr: 0x2C8, symBinAddr: 0xCE00, symSize: 0x10 }
  - { offset: 0x126325, size: 0x8, addend: 0x0, symName: '+[RNSConvert arrayFromVector:]', symObjAddr: 0x2D8, symBinAddr: 0xCE10, symSize: 0xB0 }
  - { offset: 0x12640D, size: 0x8, addend: 0x0, symName: '+[RNSConvert RNSBlurEffectStyleFromCppEquivalent:]', symObjAddr: 0x388, symBinAddr: 0xCEC0, symSize: 0x48 }
  - { offset: 0x12648D, size: 0x8, addend: 0x0, symName: '+[RNSConvert tryConvertRNSBlurEffectStyleToUIBlurEffectStyle:]', symObjAddr: 0x3D0, symBinAddr: 0xCF08, symSize: 0x8 }
  - { offset: 0x126557, size: 0x8, addend: 0x0, symName: __GLOBAL__sub_I_RNSConvert.mm, symObjAddr: 0x440, symBinAddr: 0xCF10, symSize: 0x20 }
  - { offset: 0x128856, size: 0x8, addend: 0x0, symName: __ZN9RNScreens20RNScreensTurboModule11MODULE_NAMEE, symObjAddr: 0x235C, symBinAddr: 0x49AD8, symSize: 0x0 }
  - { offset: 0x1289FC, size: 0x8, addend: 0x0, symName: __ZN9RNScreens20RNScreensTurboModule16startTransition_E, symObjAddr: 0x4AA20, symBinAddr: 0x7DA78, symSize: 0x0 }
  - { offset: 0x128A10, size: 0x8, addend: 0x0, symName: __ZN9RNScreens20RNScreensTurboModule17updateTransition_E, symObjAddr: 0x4AA40, symBinAddr: 0x7DA98, symSize: 0x0 }
  - { offset: 0x128A24, size: 0x8, addend: 0x0, symName: __ZN9RNScreens20RNScreensTurboModule17finishTransition_E, symObjAddr: 0x4AA60, symBinAddr: 0x7DAB8, symSize: 0x0 }
  - { offset: 0x128A38, size: 0x8, addend: 0x0, symName: __ZN9RNScreens20RNScreensTurboModule29disableSwipeBackForTopScreen_E, symObjAddr: 0x4AA80, symBinAddr: 0x7DAD8, symSize: 0x0 }
  - { offset: 0x1310CC, size: 0x8, addend: 0x0, symName: __ZNSt3__125__throw_bad_function_callB8ne200100Ev, symObjAddr: 0x1F90, symBinAddr: 0xEC58, symSize: 0x34 }
  - { offset: 0x1311DA, size: 0x8, addend: 0x0, symName: __ZNSt3__119__allocate_at_leastB8ne200100INS_9allocatorIN8facebook3jsi10PropNameIDEEEEENS_19__allocation_resultINS_16allocator_traitsIT_E7pointerEEERS8_m, symObjAddr: 0x155C, symBinAddr: 0xE408, symSize: 0x34 }
  - { offset: 0x131289, size: 0x8, addend: 0x0, symName: __ZSt28__throw_bad_array_new_lengthB8ne200100v, symObjAddr: 0x1590, symBinAddr: 0xE43C, symSize: 0x28 }
  - { offset: 0x132805, size: 0x8, addend: 0x0, symName: __ZSt28__throw_bad_array_new_lengthB8ne200100v, symObjAddr: 0x1590, symBinAddr: 0xE43C, symSize: 0x28 }
  - { offset: 0x132F7E, size: 0x8, addend: 0x0, symName: __ZNSt3__18functionIFNS_5arrayIiLm2EEEiEED1Ev, symObjAddr: 0x0, symBinAddr: 0xCF30, symSize: 0x48 }
  - { offset: 0x133061, size: 0x8, addend: 0x0, symName: __ZNSt3__18functionIFvidEED1Ev, symObjAddr: 0x48, symBinAddr: 0xCF78, symSize: 0x48 }
  - { offset: 0x133144, size: 0x8, addend: 0x0, symName: __ZNSt3__18functionIFvibEED1Ev, symObjAddr: 0x90, symBinAddr: 0xCFC0, symSize: 0x48 }
  - { offset: 0x133227, size: 0x8, addend: 0x0, symName: __ZNSt3__18functionIFviEED1Ev, symObjAddr: 0xD8, symBinAddr: 0xD008, symSize: 0x48 }
  - { offset: 0x1332B3, size: 0x8, addend: 0x0, symName: __ZN9RNScreens20RNScreensTurboModuleC2ENSt3__18functionIFNS1_5arrayIiLm2EEEiEEENS2_IFvidEEENS2_IFvibEEENS2_IFviEEE, symObjAddr: 0x120, symBinAddr: 0xD050, symSize: 0x90 }
  - { offset: 0x133374, size: 0x8, addend: 0x0, symName: __ZNSt3__18functionIFNS_5arrayIiLm2EEEiEEaSERKS4_, symObjAddr: 0x1B0, symBinAddr: 0xD0E0, symSize: 0x94 }
  - { offset: 0x13351C, size: 0x8, addend: 0x0, symName: __ZNSt3__18functionIFvidEEaSERKS2_, symObjAddr: 0x244, symBinAddr: 0xD174, symSize: 0x94 }
  - { offset: 0x1336C4, size: 0x8, addend: 0x0, symName: __ZNSt3__18functionIFvibEEaSERKS2_, symObjAddr: 0x2D8, symBinAddr: 0xD208, symSize: 0x94 }
  - { offset: 0x13386C, size: 0x8, addend: 0x0, symName: __ZNSt3__18functionIFviEEaSERKS2_, symObjAddr: 0x36C, symBinAddr: 0xD29C, symSize: 0x94 }
  - { offset: 0x133AC9, size: 0x8, addend: 0x0, symName: __ZNSt3__110__function12__value_funcIFNS_5arrayIiLm2EEEiEEC2B8ne200100ERKS5_, symObjAddr: 0x1740, symBinAddr: 0xE534, symSize: 0x64 }
  - { offset: 0x133B24, size: 0x8, addend: 0x0, symName: __ZNSt3__110__function12__value_funcIFNS_5arrayIiLm2EEEiEE4swapB8ne200100ERS5_, symObjAddr: 0x17A4, symBinAddr: 0xE598, symSize: 0x16C }
  - { offset: 0x133D5D, size: 0x8, addend: 0x0, symName: __ZNSt3__110__function12__value_funcIFvidEE4swapB8ne200100ERS3_, symObjAddr: 0x1974, symBinAddr: 0xE704, symSize: 0x16C }
  - { offset: 0x133F96, size: 0x8, addend: 0x0, symName: __ZNSt3__110__function12__value_funcIFvibEE4swapB8ne200100ERS3_, symObjAddr: 0x1B44, symBinAddr: 0xE870, symSize: 0x16C }
  - { offset: 0x1341CF, size: 0x8, addend: 0x0, symName: __ZNSt3__110__function12__value_funcIFviEE4swapB8ne200100ERS3_, symObjAddr: 0x1D14, symBinAddr: 0xE9DC, symSize: 0x16C }
  - { offset: 0x134310, size: 0x8, addend: 0x0, symName: __ZN9RNScreens20RNScreensTurboModuleC1ENSt3__18functionIFNS1_5arrayIiLm2EEEiEEENS2_IFvidEEENS2_IFvibEEENS2_IFviEEE, symObjAddr: 0x400, symBinAddr: 0xD330, symSize: 0x4 }
  - { offset: 0x13437A, size: 0x8, addend: 0x0, symName: __ZN9RNScreens20RNScreensTurboModuleC1ENSt3__18functionIFNS1_5arrayIiLm2EEEiEEENS2_IFvidEEENS2_IFvibEEENS2_IFviEEE, symObjAddr: 0x400, symBinAddr: 0xD330, symSize: 0x4 }
  - { offset: 0x1343AE, size: 0x8, addend: 0x0, symName: __ZN9RNScreens20RNScreensTurboModuleD2Ev, symObjAddr: 0x404, symBinAddr: 0xD334, symSize: 0x4 }
  - { offset: 0x1343EF, size: 0x8, addend: 0x0, symName: __ZN9RNScreens20RNScreensTurboModuleD1Ev, symObjAddr: 0x408, symBinAddr: 0xD338, symSize: 0x4 }
  - { offset: 0x134413, size: 0x8, addend: 0x0, symName: __ZN9RNScreens20RNScreensTurboModuleD1Ev, symObjAddr: 0x408, symBinAddr: 0xD338, symSize: 0x4 }
  - { offset: 0x134449, size: 0x8, addend: 0x0, symName: __ZN9RNScreens20RNScreensTurboModuleD0Ev, symObjAddr: 0x40C, symBinAddr: 0xD33C, symSize: 0x14 }
  - { offset: 0x134ABD, size: 0x8, addend: 0x0, symName: __ZN9RNScreens20RNScreensTurboModule3getERN8facebook3jsi7RuntimeERKNS2_10PropNameIDE, symObjAddr: 0x420, symBinAddr: 0xD350, symSize: 0x634 }
  - { offset: 0x1367DA, size: 0x8, addend: 0x0, symName: __ZNSt3__110__function12__value_funcIFN8facebook3jsi5ValueERNS3_7RuntimeERKS4_PS7_mEEC2B8ne200100EOSB_, symObjAddr: 0x13B4, symBinAddr: 0xE2D4, symSize: 0x64 }
  - { offset: 0x1369B5, size: 0x8, addend: 0x0, symName: __ZN9RNScreens20RNScreensTurboModule15startTransitionERN8facebook3jsi7RuntimeERKNS2_5ValueEPS6_m, symObjAddr: 0xA54, symBinAddr: 0xD984, symSize: 0x27C }
  - { offset: 0x13724C, size: 0x8, addend: 0x0, symName: __ZNK8facebook3jsi6Object11setPropertyIRNS0_5ValueEEEvRNS0_7RuntimeEPKcOT_, symObjAddr: 0x1280, symBinAddr: 0xE1B0, symSize: 0xA4 }
  - { offset: 0x13748D, size: 0x8, addend: 0x0, symName: __ZN8facebook3jsi7JSErrorC1ERNS0_7RuntimeEPKc, symObjAddr: 0x120C, symBinAddr: 0xE13C, symSize: 0x74 }
  - { offset: 0x137752, size: 0x8, addend: 0x0, symName: __ZN9RNScreens20RNScreensTurboModule16updateTransitionERN8facebook3jsi7RuntimeERKNS2_5ValueEPS6_m, symObjAddr: 0xCD0, symBinAddr: 0xDC00, symSize: 0xA4 }
  - { offset: 0x13786F, size: 0x8, addend: 0x0, symName: __ZNKSt3__18functionIFvidEEclEid, symObjAddr: 0x1324, symBinAddr: 0xE254, symSize: 0x40 }
  - { offset: 0x137904, size: 0x8, addend: 0x0, symName: __ZNKSt3__18functionIFvibEEclEib, symObjAddr: 0x1364, symBinAddr: 0xE294, symSize: 0x40 }
  - { offset: 0x137924, size: 0x8, addend: 0x0, symName: __ZN9RNScreens20RNScreensTurboModule16finishTransitionERN8facebook3jsi7RuntimeERKNS2_5ValueEPS6_m, symObjAddr: 0xD74, symBinAddr: 0xDCA4, symSize: 0x94 }
  - { offset: 0x137A55, size: 0x8, addend: 0x0, symName: __ZNKSt3__18functionIFvibEEclEib, symObjAddr: 0x1364, symBinAddr: 0xE294, symSize: 0x40 }
  - { offset: 0x137B45, size: 0x8, addend: 0x0, symName: __ZN9RNScreens20RNScreensTurboModule28disableSwipeBackForTopScreenERN8facebook3jsi7RuntimeERKNS2_5ValueEPS6_m, symObjAddr: 0xE08, symBinAddr: 0xDD38, symSize: 0xA8 }
  - { offset: 0x137C8F, size: 0x8, addend: 0x0, symName: __ZN9RNScreens20RNScreensTurboModule3setERN8facebook3jsi7RuntimeERKNS2_10PropNameIDERKNS2_5ValueE, symObjAddr: 0xEB0, symBinAddr: 0xDDE0, symSize: 0x4 }
  - { offset: 0x137E63, size: 0x8, addend: 0x0, symName: __ZN9RNScreens20RNScreensTurboModule16getPropertyNamesERN8facebook3jsi7RuntimeE, symObjAddr: 0xEB4, symBinAddr: 0xDDE4, symSize: 0x268 }
  - { offset: 0x138BDD, size: 0x8, addend: 0x0, symName: __ZNSt3__16vectorIN8facebook3jsi10PropNameIDENS_9allocatorIS3_EEE9push_backB8ne200100EOS3_, symObjAddr: 0x111C, symBinAddr: 0xE04C, symSize: 0xF0 }
  - { offset: 0x138FB5, size: 0x8, addend: 0x0, symName: __ZNSt3__16vectorIN8facebook3jsi10PropNameIDENS_9allocatorIS3_EEE16__destroy_vectorclB8ne200100Ev, symObjAddr: 0x16C8, symBinAddr: 0xE4BC, symSize: 0x78 }
  - { offset: 0x139435, size: 0x8, addend: 0x0, symName: __ZNSt3__16vectorIN8facebook3jsi10PropNameIDENS_9allocatorIS3_EEE26__swap_out_circular_bufferERNS_14__split_bufferIS3_RS5_EE, symObjAddr: 0x1418, symBinAddr: 0xE338, symSize: 0xBC }
  - { offset: 0x139747, size: 0x8, addend: 0x0, symName: __ZNSt3__114__split_bufferIN8facebook3jsi10PropNameIDERNS_9allocatorIS3_EEED2Ev, symObjAddr: 0x15B8, symBinAddr: 0xE464, symSize: 0x58 }
  - { offset: 0x1398E5, size: 0x8, addend: 0x0, symName: __ZNSt3__16vectorIN8facebook3jsi10PropNameIDENS_9allocatorIS3_EEE20__throw_length_errorB8ne200100Ev, symObjAddr: 0x14D4, symBinAddr: 0xE3F4, symSize: 0x14 }
  - { offset: 0x1399A8, size: 0x8, addend: 0x0, symName: __ZNK8facebook3jsi6Object11setPropertyIRNS0_5ValueEEEvRNS0_7RuntimeERKNS0_6StringEOT_, symObjAddr: 0x1FDC, symBinAddr: 0xECA4, symSize: 0x78 }
  - { offset: 0x139DE3, size: 0x8, addend: 0x0, symName: __ZNSt3__16vectorIN8facebook3jsi10PropNameIDENS_9allocatorIS3_EEE16__destroy_vectorclB8ne200100Ev, symObjAddr: 0x16C8, symBinAddr: 0xE4BC, symSize: 0x78 }
  - { offset: 0x139E57, size: 0x8, addend: 0x0, symName: __ZNSt3__110__function6__funcIPFN8facebook3jsi5ValueERNS3_7RuntimeERKS4_PS7_mENS_9allocatorISB_EESA_ED1Ev, symObjAddr: 0x1E80, symBinAddr: 0xEB48, symSize: 0x4 }
  - { offset: 0x139E83, size: 0x8, addend: 0x0, symName: __ZNSt3__110__function6__funcIPFN8facebook3jsi5ValueERNS3_7RuntimeERKS4_PS7_mENS_9allocatorISB_EESA_ED0Ev, symObjAddr: 0x1E84, symBinAddr: 0xEB4C, symSize: 0x4 }
  - { offset: 0x139F9D, size: 0x8, addend: 0x0, symName: __ZNKSt3__110__function6__funcIPFN8facebook3jsi5ValueERNS3_7RuntimeERKS4_PS7_mENS_9allocatorISB_EESA_E7__cloneEv, symObjAddr: 0x1E88, symBinAddr: 0xEB50, symSize: 0x38 }
  - { offset: 0x13A1AE, size: 0x8, addend: 0x0, symName: __ZNKSt3__110__function6__funcIPFN8facebook3jsi5ValueERNS3_7RuntimeERKS4_PS7_mENS_9allocatorISB_EESA_E7__cloneEPNS0_6__baseISA_EE, symObjAddr: 0x1EC0, symBinAddr: 0xEB88, symSize: 0x18 }
  - { offset: 0x13A1E5, size: 0x8, addend: 0x0, symName: __ZNKSt3__110__function6__funcIPFN8facebook3jsi5ValueERNS3_7RuntimeERKS4_PS7_mENS_9allocatorISB_EESA_E7__cloneEPNS0_6__baseISA_EE, symObjAddr: 0x1EC0, symBinAddr: 0xEB88, symSize: 0x18 }
  - { offset: 0x13A217, size: 0x8, addend: 0x0, symName: __ZNKSt3__110__function6__funcIPFN8facebook3jsi5ValueERNS3_7RuntimeERKS4_PS7_mENS_9allocatorISB_EESA_E7__cloneEPNS0_6__baseISA_EE, symObjAddr: 0x1EC0, symBinAddr: 0xEB88, symSize: 0x18 }
  - { offset: 0x13A274, size: 0x8, addend: 0x0, symName: __ZNSt3__110__function6__funcIPFN8facebook3jsi5ValueERNS3_7RuntimeERKS4_PS7_mENS_9allocatorISB_EESA_E7destroyEv, symObjAddr: 0x1ED8, symBinAddr: 0xEBA0, symSize: 0x4 }
  - { offset: 0x13A2CB, size: 0x8, addend: 0x0, symName: __ZNSt3__110__function6__funcIPFN8facebook3jsi5ValueERNS3_7RuntimeERKS4_PS7_mENS_9allocatorISB_EESA_E18destroy_deallocateEv, symObjAddr: 0x1EDC, symBinAddr: 0xEBA4, symSize: 0x4 }
  - { offset: 0x13A300, size: 0x8, addend: 0x0, symName: __ZNSt3__110__function6__funcIPFN8facebook3jsi5ValueERNS3_7RuntimeERKS4_PS7_mENS_9allocatorISB_EESA_E18destroy_deallocateEv, symObjAddr: 0x1EDC, symBinAddr: 0xEBA4, symSize: 0x4 }
  - { offset: 0x13A325, size: 0x8, addend: 0x0, symName: __ZNSt3__110__function6__funcIPFN8facebook3jsi5ValueERNS3_7RuntimeERKS4_PS7_mENS_9allocatorISB_EESA_E18destroy_deallocateEv, symObjAddr: 0x1EDC, symBinAddr: 0xEBA4, symSize: 0x4 }
  - { offset: 0x13A35B, size: 0x8, addend: 0x0, symName: __ZNSt3__110__function6__funcIPFN8facebook3jsi5ValueERNS3_7RuntimeERKS4_PS7_mENS_9allocatorISB_EESA_E18destroy_deallocateEv, symObjAddr: 0x1EDC, symBinAddr: 0xEBA4, symSize: 0x4 }
  - { offset: 0x13A438, size: 0x8, addend: 0x0, symName: __ZNSt3__110__function6__funcIPFN8facebook3jsi5ValueERNS3_7RuntimeERKS4_PS7_mENS_9allocatorISB_EESA_EclES6_S8_OS9_Om, symObjAddr: 0x1EE0, symBinAddr: 0xEBA8, symSize: 0x1C }
  - { offset: 0x13A5D7, size: 0x8, addend: 0x0, symName: __ZNKSt3__110__function6__funcIPFN8facebook3jsi5ValueERNS3_7RuntimeERKS4_PS7_mENS_9allocatorISB_EESA_E6targetERKSt9type_info, symObjAddr: 0x1EFC, symBinAddr: 0xEBC4, symSize: 0x3C }
  - { offset: 0x13A625, size: 0x8, addend: 0x0, symName: __ZNKSt9type_infoeqB8ne200100ERKS_, symObjAddr: 0x1F44, symBinAddr: 0xEC0C, symSize: 0x4C }
  - { offset: 0x13A6C9, size: 0x8, addend: 0x0, symName: __ZNKSt3__110__function6__funcIPFN8facebook3jsi5ValueERNS3_7RuntimeERKS4_PS7_mENS_9allocatorISB_EESA_E11target_typeEv, symObjAddr: 0x1F38, symBinAddr: 0xEC00, symSize: 0xC }
  - { offset: 0x13A7A0, size: 0x8, addend: 0x0, symName: __ZNSt3__117bad_function_callD1Ev, symObjAddr: 0x1FC4, symBinAddr: 0xEC8C, symSize: 0x4 }
  - { offset: 0x13A7C4, size: 0x8, addend: 0x0, symName: __ZNSt3__117bad_function_callD1Ev, symObjAddr: 0x1FC4, symBinAddr: 0xEC8C, symSize: 0x4 }
  - { offset: 0x13A7F8, size: 0x8, addend: 0x0, symName: __ZNSt3__117bad_function_callD0Ev, symObjAddr: 0x1FC8, symBinAddr: 0xEC90, symSize: 0x14 }
  - { offset: 0x13AA4A, size: 0x8, addend: 0x0, symName: __GLOBAL__sub_I_RNScreensTurboModule.cpp, symObjAddr: 0x22D0, symBinAddr: 0xED1C, symSize: 0x8C }
  - { offset: 0x13CC2F, size: 0x8, addend: 0x0, symName: __ZN8facebook5react17HostPlatformColorL14UndefinedColorE, symObjAddr: 0x183FE8, symBinAddr: 0x7D698, symSize: 0x0 }
  - { offset: 0x140268, size: 0x8, addend: 0x0, symName: __ZN8facebook5react38concreteComponentDescriptorConstructorINS0_39RNSFullWindowOverlayComponentDescriptorEEENSt3__110unique_ptrIKNS0_19ComponentDescriptorENS3_14default_deleteIS6_EEEERKNS0_29ComponentDescriptorParametersE, symObjAddr: 0x1AD4, symBinAddr: 0xFAF8, symSize: 0x34 }
  - { offset: 0x15D3BF, size: 0x8, addend: 0x0, symName: __ZNSt3__115allocate_sharedB8ne200100IKN8facebook5react25RNSFullWindowOverlayPropsENS_9allocatorIS3_EEJELi0EEENS_10shared_ptrIT_EERKT0_DpOT1_, symObjAddr: 0xC84, symBinAddr: 0xF9B4, symSize: 0x48 }
  - { offset: 0x15E585, size: 0x8, addend: 0x0, symName: __ZNSt3__111make_uniqueB8ne200100IKN8facebook5react39RNSFullWindowOverlayComponentDescriptorEJRKNS2_29ComponentDescriptorParametersEELi0EEENS_10unique_ptrIT_NS_14default_deleteIS9_EEEEDpOT0_, symObjAddr: 0x1B08, symBinAddr: 0xFB2C, symSize: 0xE4 }
  - { offset: 0x15EF42, size: 0x8, addend: 0x0, symName: __ZNSt3__115allocate_sharedB8ne200100IN8facebook5react30RNSFullWindowOverlayShadowNodeENS_9allocatorIS3_EEJRKNS2_18ShadowNodeFragmentERKNS_10shared_ptrIKNS2_16ShadowNodeFamilyEEENS2_16ShadowNodeTraitsEELi0EEENS9_IT_EERKT0_DpOT1_, symObjAddr: 0x27EC, symBinAddr: 0x10508, symSize: 0x70 }
  - { offset: 0x15F27E, size: 0x8, addend: 0x0, symName: __ZNSt3__115allocate_sharedB8ne200100IN8facebook5react30RNSFullWindowOverlayShadowNodeENS_9allocatorIS3_EEJRKNS2_10ShadowNodeERKNS2_18ShadowNodeFragmentEELi0EEENS_10shared_ptrIT_EERKT0_DpOT1_, symObjAddr: 0x2F08, symBinAddr: 0x1086C, symSize: 0x60 }
  - { offset: 0x15FAB7, size: 0x8, addend: 0x0, symName: __ZNSt3__115allocate_sharedB8ne200100IN8facebook5react13ConcreteStateINS2_25RNSFullWindowOverlayStateEEENS_9allocatorIS5_EEJNS_10shared_ptrIKS4_EERKNS8_IKNS2_16ShadowNodeFamilyEEEELi0EEENS8_IT_EERKT0_DpOT1_, symObjAddr: 0x3490, symBinAddr: 0x10B40, symSize: 0x60 }
  - { offset: 0x15FFEF, size: 0x8, addend: 0x0, symName: __ZNSt3__115allocate_sharedB8ne200100IKN8facebook5react13ConcreteStateINS2_25RNSFullWindowOverlayStateEEENS_9allocatorIS5_EEJNS_10shared_ptrIKS4_EERKNS2_5StateEELi0EEENS9_IT_EERKT0_DpOT1_, symObjAddr: 0x3810, symBinAddr: 0x10E10, symSize: 0x60 }
  - { offset: 0x160974, size: 0x8, addend: 0x0, symName: __ZNSt3__115allocate_sharedB8ne200100IKN8facebook5react32RNSFullWindowOverlayEventEmitterENS_9allocatorIS3_EEJNS_10shared_ptrINS2_11EventTargetEEERKNS_8weak_ptrIKNS2_15EventDispatcherEEEELi0EEENS7_IT_EERKT0_DpOT1_, symObjAddr: 0x3A24, symBinAddr: 0x11024, symSize: 0x60 }
  - { offset: 0x160C38, size: 0x8, addend: 0x0, symName: __ZNSt3__115allocate_sharedB8ne200100IN8facebook5react16ShadowNodeFamilyENS_9allocatorIS3_EEJRKNS2_24ShadowNodeFamilyFragmentERNS_10shared_ptrIKNS2_32RNSFullWindowOverlayEventEmitterEEERKNS_8weak_ptrIKNS2_15EventDispatcherEEERKNS2_27ConcreteComponentDescriptorINS2_30RNSFullWindowOverlayShadowNodeEEEELi0EEENS9_IT_EERKT0_DpOT1_, symObjAddr: 0x40F0, symBinAddr: 0x112C4, symSize: 0x78 }
  - { offset: 0x161C3F, size: 0x8, addend: 0x0, symName: __ZNSt3__115allocate_sharedB8ne200100IN8facebook5react25RNSFullWindowOverlayPropsENS_9allocatorIS3_EEJRKNS2_18PropsParserContextERKS3_RKNS2_8RawPropsEELi0EEENS_10shared_ptrIT_EERKT0_DpOT1_, symObjAddr: 0x3128, symBinAddr: 0x10A34, symSize: 0x70 }
  - { offset: 0x162941, size: 0x8, addend: 0x0, symName: __ZNSt3__112construct_atB8ne200100IN8facebook5react13ConcreteStateINS2_25RNSFullWindowOverlayStateEEEJNS_10shared_ptrIKS4_EERKNS6_IKNS2_16ShadowNodeFamilyEEEEPS5_EEPT_SG_DpOT0_, symObjAddr: 0x3584, symBinAddr: 0x10C34, symSize: 0xC8 }
  - { offset: 0x1630A3, size: 0x8, addend: 0x0, symName: __ZNSt3__112construct_atB8ne200100IN8facebook5react13ConcreteStateINS2_25RNSFullWindowOverlayStateEEEJNS_10shared_ptrIKS4_EERKNS2_5StateEEPS5_EEPT_SE_DpOT0_, symObjAddr: 0x3904, symBinAddr: 0x10F04, symSize: 0x88 }
  - { offset: 0x1636FE, size: 0x8, addend: 0x0, symName: __ZNSt3__112construct_atB8ne200100IN8facebook5react32RNSFullWindowOverlayEventEmitterEJNS_10shared_ptrINS2_11EventTargetEEERKNS_8weak_ptrIKNS2_15EventDispatcherEEEEPS3_EEPT_SF_DpOT0_, symObjAddr: 0x3B18, symBinAddr: 0x11118, symSize: 0x140 }
  - { offset: 0x16453B, size: 0x8, addend: 0x0, symName: __ZNSt3__112construct_atB8ne200100IN8facebook5react16ShadowNodeFamilyEJRKNS2_24ShadowNodeFamilyFragmentERNS_10shared_ptrIKNS2_32RNSFullWindowOverlayEventEmitterEEERKNS_8weak_ptrIKNS2_15EventDispatcherEEERKNS2_27ConcreteComponentDescriptorINS2_30RNSFullWindowOverlayShadowNodeEEEEPS3_EEPT_SP_DpOT0_, symObjAddr: 0x41F8, symBinAddr: 0x11388, symSize: 0xDC }
  - { offset: 0x165947, size: 0x8, addend: 0x0, symName: '-[RNSFullWindowOverlay init]', symObjAddr: 0x410, symBinAddr: 0xF1B8, symSize: 0xF4 }
  - { offset: 0x165971, size: 0x8, addend: 0x0, symName: '__ZZ28-[RNSFullWindowOverlay init]E12defaultProps', symObjAddr: 0x184000, symBinAddr: 0x7D6B0, symSize: 0x0 }
  - { offset: 0x1694D2, size: 0x8, addend: 0x0, symName: __ZN8facebook5react18ConcreteShadowNodeIXadL_ZNS0_33RNSFullWindowOverlayComponentNameEEENS0_24YogaLayoutableShadowNodeENS0_25RNSFullWindowOverlayPropsENS0_32RNSFullWindowOverlayEventEmitterENS0_25RNSFullWindowOverlayStateEE18defaultSharedPropsEv, symObjAddr: 0x3034, symBinAddr: 0x10940, symSize: 0x9C }
  - { offset: 0x1694F2, size: 0x8, addend: 0x0, symName: __ZZN8facebook5react18ConcreteShadowNodeIXadL_ZNS0_33RNSFullWindowOverlayComponentNameEEENS0_24YogaLayoutableShadowNodeENS0_25RNSFullWindowOverlayPropsENS0_32RNSFullWindowOverlayEventEmitterENS0_25RNSFullWindowOverlayStateEE18defaultSharedPropsEvE18defaultSharedProps, symObjAddr: 0x6C18, symBinAddr: 0x7CB58, symSize: 0x0 }
  - { offset: 0x169A24, size: 0x8, addend: 0x0, symName: '-[RNSFullWindowOverlayContainer initWithFrame:accessibilityViewIsModal:]', symObjAddr: 0x0, symBinAddr: 0xEDA8, symSize: 0x78 }
  - { offset: 0x169A73, size: 0x8, addend: 0x0, symName: '-[RNSFullWindowOverlayContainer pointInside:withEvent:]', symObjAddr: 0x78, symBinAddr: 0xEE20, symSize: 0x17C }
  - { offset: 0x169AD9, size: 0x8, addend: 0x0, symName: '-[RNSFullWindowOverlayContainer hitTest:withEvent:]', symObjAddr: 0x1F4, symBinAddr: 0xEF9C, symSize: 0x1E8 }
  - { offset: 0x169B9E, size: 0x8, addend: 0x0, symName: '+[RNSFullWindowOverlay load]', symObjAddr: 0x3DC, symBinAddr: 0xF184, symSize: 0x34 }
  - { offset: 0x169CDE, size: 0x8, addend: 0x0, symName: __ZNSt3__110shared_ptrIKN8facebook5react25RNSFullWindowOverlayPropsEED1B8ne200100Ev, symObjAddr: 0x504, symBinAddr: 0xF2AC, symSize: 0x4 }
  - { offset: 0x169D02, size: 0x8, addend: 0x0, symName: __ZNSt3__110shared_ptrIKN8facebook5react25RNSFullWindowOverlayPropsEED1B8ne200100Ev, symObjAddr: 0x504, symBinAddr: 0xF2AC, symSize: 0x4 }
  - { offset: 0x169E99, size: 0x8, addend: 0x0, symName: '-[RNSFullWindowOverlay initCommonProps]', symObjAddr: 0x580, symBinAddr: 0xF2B0, symSize: 0x68 }
  - { offset: 0x169ECA, size: 0x8, addend: 0x0, symName: '-[RNSFullWindowOverlay setAccessibilityContainerViewIsModal:]', symObjAddr: 0x5E8, symBinAddr: 0xF318, symSize: 0x5C }
  - { offset: 0x169F07, size: 0x8, addend: 0x0, symName: '-[RNSFullWindowOverlay addSubview:]', symObjAddr: 0x644, symBinAddr: 0xF374, symSize: 0x10 }
  - { offset: 0x169F45, size: 0x8, addend: 0x0, symName: '-[RNSFullWindowOverlay container]', symObjAddr: 0x654, symBinAddr: 0xF384, symSize: 0x6C }
  - { offset: 0x169F7A, size: 0x8, addend: 0x0, symName: '-[RNSFullWindowOverlay show]', symObjAddr: 0x6C0, symBinAddr: 0xF3F0, symSize: 0x58 }
  - { offset: 0x169FE0, size: 0x8, addend: 0x0, symName: '-[RNSFullWindowOverlay didMoveToSuperview]', symObjAddr: 0x718, symBinAddr: 0xF448, symSize: 0xC4 }
  - { offset: 0x16A040, size: 0x8, addend: 0x0, symName: '-[RNSFullWindowOverlay maybeShow]', symObjAddr: 0x7DC, symBinAddr: 0xF50C, symSize: 0x90 }
  - { offset: 0x16A109, size: 0x8, addend: 0x0, symName: '+[RNSFullWindowOverlay componentDescriptorProvider]', symObjAddr: 0x86C, symBinAddr: 0xF59C, symSize: 0x20 }
  - { offset: 0x16A13D, size: 0x8, addend: 0x0, symName: '+[RNSFullWindowOverlay componentDescriptorProvider]', symObjAddr: 0x86C, symBinAddr: 0xF59C, symSize: 0x20 }
  - { offset: 0x16A1A0, size: 0x8, addend: 0x0, symName: '-[RNSFullWindowOverlay prepareForRecycle]', symObjAddr: 0x88C, symBinAddr: 0xF5BC, symSize: 0x50 }
  - { offset: 0x16A1D1, size: 0x8, addend: 0x0, symName: '-[RNSFullWindowOverlay mountChildComponentView:index:]', symObjAddr: 0x8DC, symBinAddr: 0xF60C, symSize: 0x58 }
  - { offset: 0x16A21D, size: 0x8, addend: 0x0, symName: '-[RNSFullWindowOverlay unmountChildComponentView:index:]', symObjAddr: 0x934, symBinAddr: 0xF664, symSize: 0x8 }
  - { offset: 0x16A2A5, size: 0x8, addend: 0x0, symName: '-[RNSFullWindowOverlay updateLayoutMetrics:oldLayoutMetrics:]', symObjAddr: 0x93C, symBinAddr: 0xF66C, symSize: 0x38 }
  - { offset: 0x16A496, size: 0x8, addend: 0x0, symName: '-[RNSFullWindowOverlay updateProps:oldProps:]', symObjAddr: 0x974, symBinAddr: 0xF6A4, symSize: 0x118 }
  - { offset: 0x16A7DD, size: 0x8, addend: 0x0, symName: '-[RNSFullWindowOverlay accessibilityContainerViewIsModal]', symObjAddr: 0xA8C, symBinAddr: 0xF7BC, symSize: 0x10 }
  - { offset: 0x16A813, size: 0x8, addend: 0x0, symName: '-[RNSFullWindowOverlay oldLayoutMetrics]', symObjAddr: 0xA9C, symBinAddr: 0xF7CC, symSize: 0x40 }
  - { offset: 0x16A848, size: 0x8, addend: 0x0, symName: '-[RNSFullWindowOverlay setOldLayoutMetrics:]', symObjAddr: 0xADC, symBinAddr: 0xF80C, symSize: 0x40 }
  - { offset: 0x16A886, size: 0x8, addend: 0x0, symName: '-[RNSFullWindowOverlay newLayoutMetrics]', symObjAddr: 0xB1C, symBinAddr: 0xF84C, symSize: 0x40 }
  - { offset: 0x16A8BB, size: 0x8, addend: 0x0, symName: '-[RNSFullWindowOverlay setNewLayoutMetrics:]', symObjAddr: 0xB5C, symBinAddr: 0xF88C, symSize: 0x40 }
  - { offset: 0x16A8F9, size: 0x8, addend: 0x0, symName: '-[RNSFullWindowOverlay .cxx_destruct]', symObjAddr: 0xB9C, symBinAddr: 0xF8CC, symSize: 0x50 }
  - { offset: 0x16A96A, size: 0x8, addend: 0x0, symName: '-[RNSFullWindowOverlay .cxx_construct]', symObjAddr: 0xBEC, symBinAddr: 0xF91C, symSize: 0x70 }
  - { offset: 0x16AA16, size: 0x8, addend: 0x0, symName: __Z23RNSFullWindowOverlayClsv, symObjAddr: 0xC5C, symBinAddr: 0xF98C, symSize: 0xC }
  - { offset: 0x16AA35, size: 0x8, addend: 0x0, symName: '+[RNSFullWindowOverlayManager moduleName]', symObjAddr: 0xC68, symBinAddr: 0xF998, symSize: 0xC }
  - { offset: 0x16AA67, size: 0x8, addend: 0x0, symName: '+[RNSFullWindowOverlayManager load]', symObjAddr: 0xC74, symBinAddr: 0xF9A4, symSize: 0x4 }
  - { offset: 0x16AA9B, size: 0x8, addend: 0x0, symName: '+[RNSFullWindowOverlayManager load]', symObjAddr: 0xC74, symBinAddr: 0xF9A4, symSize: 0x4 }
  - { offset: 0x16AABD, size: 0x8, addend: 0x0, symName: '+[RNSFullWindowOverlayManager propConfig_accessibilityContainerViewIsModal]', symObjAddr: 0xC78, symBinAddr: 0xF9A8, symSize: 0xC }
  - { offset: 0x16AD23, size: 0x8, addend: 0x0, symName: __ZNSt3__120__shared_ptr_emplaceIKN8facebook5react25RNSFullWindowOverlayPropsENS_9allocatorIS3_EEEC2B8ne200100IJES6_Li0EEES6_DpOT_, symObjAddr: 0xCCC, symBinAddr: 0xF9FC, symSize: 0x7C }
  - { offset: 0x16C357, size: 0x8, addend: 0x0, symName: __ZNSt3__120__shared_ptr_emplaceIKN8facebook5react25RNSFullWindowOverlayPropsENS_9allocatorIS3_EEED1Ev, symObjAddr: 0xD48, symBinAddr: 0xFA78, symSize: 0x14 }
  - { offset: 0x16C37B, size: 0x8, addend: 0x0, symName: __ZNSt3__120__shared_ptr_emplaceIKN8facebook5react25RNSFullWindowOverlayPropsENS_9allocatorIS3_EEED1Ev, symObjAddr: 0xD48, symBinAddr: 0xFA78, symSize: 0x14 }
  - { offset: 0x16C3B1, size: 0x8, addend: 0x0, symName: __ZNSt3__120__shared_ptr_emplaceIKN8facebook5react25RNSFullWindowOverlayPropsENS_9allocatorIS3_EEED0Ev, symObjAddr: 0xD5C, symBinAddr: 0xFA8C, symSize: 0x24 }
  - { offset: 0x16C4C5, size: 0x8, addend: 0x0, symName: __ZNSt3__120__shared_ptr_emplaceIKN8facebook5react25RNSFullWindowOverlayPropsENS_9allocatorIS3_EEE16__on_zero_sharedEv, symObjAddr: 0xD80, symBinAddr: 0xFAB0, symSize: 0x14 }
  - { offset: 0x16C4EE, size: 0x8, addend: 0x0, symName: __ZNSt3__120__shared_ptr_emplaceIKN8facebook5react25RNSFullWindowOverlayPropsENS_9allocatorIS3_EEE16__on_zero_sharedEv, symObjAddr: 0xD80, symBinAddr: 0xFAB0, symSize: 0x14 }
  - { offset: 0x16CA04, size: 0x8, addend: 0x0, symName: __ZNSt3__120__shared_ptr_emplaceIKN8facebook5react25RNSFullWindowOverlayPropsENS_9allocatorIS3_EEE21__on_zero_shared_weakEv, symObjAddr: 0xD94, symBinAddr: 0xFAC4, symSize: 0x4 }
  - { offset: 0x16CA38, size: 0x8, addend: 0x0, symName: __ZNSt3__120__shared_ptr_emplaceIKN8facebook5react25RNSFullWindowOverlayPropsENS_9allocatorIS3_EEE21__on_zero_shared_weakEv, symObjAddr: 0xD94, symBinAddr: 0xFAC4, symSize: 0x4 }
  - { offset: 0x16CA5C, size: 0x8, addend: 0x0, symName: __ZNSt3__120__shared_ptr_emplaceIKN8facebook5react25RNSFullWindowOverlayPropsENS_9allocatorIS3_EEE21__on_zero_shared_weakEv, symObjAddr: 0xD94, symBinAddr: 0xFAC4, symSize: 0x4 }
  - { offset: 0x16CA81, size: 0x8, addend: 0x0, symName: __ZNSt3__120__shared_ptr_emplaceIKN8facebook5react25RNSFullWindowOverlayPropsENS_9allocatorIS3_EEE21__on_zero_shared_weakEv, symObjAddr: 0xD94, symBinAddr: 0xFAC4, symSize: 0x4 }
  - { offset: 0x16CAB9, size: 0x8, addend: 0x0, symName: __ZNSt3__120__shared_ptr_emplaceIKN8facebook5react25RNSFullWindowOverlayPropsENS_9allocatorIS3_EEE21__on_zero_shared_weakEv, symObjAddr: 0xD94, symBinAddr: 0xFAC4, symSize: 0x4 }
  - { offset: 0x16DC4E, size: 0x8, addend: 0x0, symName: __ZN8facebook5react25RNSFullWindowOverlayPropsD1Ev, symObjAddr: 0x11E4, symBinAddr: 0xFAC8, symSize: 0x10 }
  - { offset: 0x16DC72, size: 0x8, addend: 0x0, symName: __ZN8facebook5react25RNSFullWindowOverlayPropsD1Ev, symObjAddr: 0x11E4, symBinAddr: 0xFAC8, symSize: 0x10 }
  - { offset: 0x16DCAF, size: 0x8, addend: 0x0, symName: __ZN8facebook5react25RNSFullWindowOverlayPropsD0Ev, symObjAddr: 0x11F4, symBinAddr: 0xFAD8, symSize: 0x20 }
  - { offset: 0x171055, size: 0x8, addend: 0x0, symName: __ZN8facebook5react14RawPropsParser7prepareINS0_25RNSFullWindowOverlayPropsEEEvv, symObjAddr: 0x2350, symBinAddr: 0x10324, symSize: 0x1CC }
  - { offset: 0x171A16, size: 0x8, addend: 0x0, symName: __ZN8facebook5react39RNSFullWindowOverlayComponentDescriptorD1Ev, symObjAddr: 0x1C3C, symBinAddr: 0xFC10, symSize: 0x4 }
  - { offset: 0x171A3A, size: 0x8, addend: 0x0, symName: __ZN8facebook5react39RNSFullWindowOverlayComponentDescriptorD1Ev, symObjAddr: 0x1C3C, symBinAddr: 0xFC10, symSize: 0x4 }
  - { offset: 0x171A57, size: 0x8, addend: 0x0, symName: __ZN8facebook5react39RNSFullWindowOverlayComponentDescriptorD1Ev, symObjAddr: 0x1C3C, symBinAddr: 0xFC10, symSize: 0x4 }
  - { offset: 0x171A76, size: 0x8, addend: 0x0, symName: __ZN8facebook5react39RNSFullWindowOverlayComponentDescriptorD1Ev, symObjAddr: 0x1C3C, symBinAddr: 0xFC10, symSize: 0x4 }
  - { offset: 0x171D50, size: 0x8, addend: 0x0, symName: __ZN8facebook5react39RNSFullWindowOverlayComponentDescriptorD0Ev, symObjAddr: 0x1C40, symBinAddr: 0xFC14, symSize: 0x14 }
  - { offset: 0x171DEC, size: 0x8, addend: 0x0, symName: __ZNK8facebook5react27ConcreteComponentDescriptorINS0_30RNSFullWindowOverlayShadowNodeEE18getComponentHandleEv, symObjAddr: 0x1C54, symBinAddr: 0xFC28, symSize: 0xC }
  - { offset: 0x171E12, size: 0x8, addend: 0x0, symName: __ZNK8facebook5react27ConcreteComponentDescriptorINS0_30RNSFullWindowOverlayShadowNodeEE16getComponentNameEv, symObjAddr: 0x1C60, symBinAddr: 0xFC34, symSize: 0xC }
  - { offset: 0x171E38, size: 0x8, addend: 0x0, symName: __ZNK8facebook5react27ConcreteComponentDescriptorINS0_30RNSFullWindowOverlayShadowNodeEE9getTraitsEv, symObjAddr: 0x1C6C, symBinAddr: 0xFC40, symSize: 0x8 }
  - { offset: 0x171F39, size: 0x8, addend: 0x0, symName: __ZNK8facebook5react27ConcreteComponentDescriptorINS0_30RNSFullWindowOverlayShadowNodeEE16createShadowNodeERKNS0_18ShadowNodeFragmentERKNSt3__110shared_ptrIKNS0_16ShadowNodeFamilyEEE, symObjAddr: 0x1C74, symBinAddr: 0xFC48, symSize: 0x90 }
  - { offset: 0x1721D1, size: 0x8, addend: 0x0, symName: __ZNK8facebook5react27ConcreteComponentDescriptorINS0_30RNSFullWindowOverlayShadowNodeEE15cloneShadowNodeERKNS0_10ShadowNodeERKNS0_18ShadowNodeFragmentE, symObjAddr: 0x1D04, symBinAddr: 0xFCD8, symSize: 0xFC }
  - { offset: 0x172550, size: 0x8, addend: 0x0, symName: __ZNK8facebook5react27ConcreteComponentDescriptorINS0_30RNSFullWindowOverlayShadowNodeEE11appendChildERKNSt3__110shared_ptrIKNS0_10ShadowNodeEEESA_, symObjAddr: 0x1E00, symBinAddr: 0xFDD4, symSize: 0xC }
  - { offset: 0x1725A7, size: 0x8, addend: 0x0, symName: __ZNK8facebook5react27ConcreteComponentDescriptorINS0_30RNSFullWindowOverlayShadowNodeEE11appendChildERKNSt3__110shared_ptrIKNS0_10ShadowNodeEEESA_, symObjAddr: 0x1E00, symBinAddr: 0xFDD4, symSize: 0xC }
  - { offset: 0x172E89, size: 0x8, addend: 0x0, symName: __ZNK8facebook5react27ConcreteComponentDescriptorINS0_30RNSFullWindowOverlayShadowNodeEE10clonePropsERKNS0_18PropsParserContextERKNSt3__110shared_ptrIKNS0_5PropsEEENS0_8RawPropsE, symObjAddr: 0x1E0C, symBinAddr: 0xFDE0, symSize: 0x21C }
  - { offset: 0x173A3B, size: 0x8, addend: 0x0, symName: __ZN8facebook5react18ConcreteShadowNodeIXadL_ZNS0_33RNSFullWindowOverlayComponentNameEEENS0_24YogaLayoutableShadowNodeENS0_25RNSFullWindowOverlayPropsENS0_32RNSFullWindowOverlayEventEmitterENS0_25RNSFullWindowOverlayStateEE5PropsERKNS0_18PropsParserContextERKNS0_8RawPropsERKNSt3__110shared_ptrIKNS0_5PropsEEE, symObjAddr: 0x30D0, symBinAddr: 0x109DC, symSize: 0x58 }
  - { offset: 0x173F49, size: 0x8, addend: 0x0, symName: __ZNK8facebook5react27ConcreteComponentDescriptorINS0_30RNSFullWindowOverlayShadowNodeEE18createInitialStateERKNSt3__110shared_ptrIKNS0_5PropsEEERKNS5_IKNS0_16ShadowNodeFamilyEEE, symObjAddr: 0x2028, symBinAddr: 0xFFFC, symSize: 0xB8 }
  - { offset: 0x174488, size: 0x8, addend: 0x0, symName: __ZNK8facebook5react27ConcreteComponentDescriptorINS0_30RNSFullWindowOverlayShadowNodeEE11createStateERKNS0_16ShadowNodeFamilyERKNSt3__110shared_ptrIKvEE, symObjAddr: 0x20E0, symBinAddr: 0x100B4, symSize: 0x104 }
  - { offset: 0x174ADE, size: 0x8, addend: 0x0, symName: __ZNK8facebook5react27ConcreteComponentDescriptorINS0_30RNSFullWindowOverlayShadowNodeEE12createFamilyERKNS0_24ShadowNodeFamilyFragmentE, symObjAddr: 0x21E4, symBinAddr: 0x101B8, symSize: 0x168 }
  - { offset: 0x175086, size: 0x8, addend: 0x0, symName: __ZNK8facebook5react27ConcreteComponentDescriptorINS0_30RNSFullWindowOverlayShadowNodeEE5adoptERNS0_10ShadowNodeE, symObjAddr: 0x234C, symBinAddr: 0x10320, symSize: 0x4 }
  - { offset: 0x1757E7, size: 0x8, addend: 0x0, symName: __ZN8facebook5react27ConcreteComponentDescriptorINS0_30RNSFullWindowOverlayShadowNodeEED1Ev, symObjAddr: 0x251C, symBinAddr: 0x104F0, symSize: 0x4 }
  - { offset: 0x17580B, size: 0x8, addend: 0x0, symName: __ZN8facebook5react27ConcreteComponentDescriptorINS0_30RNSFullWindowOverlayShadowNodeEED1Ev, symObjAddr: 0x251C, symBinAddr: 0x104F0, symSize: 0x4 }
  - { offset: 0x175829, size: 0x8, addend: 0x0, symName: __ZN8facebook5react27ConcreteComponentDescriptorINS0_30RNSFullWindowOverlayShadowNodeEED1Ev, symObjAddr: 0x251C, symBinAddr: 0x104F0, symSize: 0x4 }
  - { offset: 0x175858, size: 0x8, addend: 0x0, symName: __ZN8facebook5react27ConcreteComponentDescriptorINS0_30RNSFullWindowOverlayShadowNodeEED0Ev, symObjAddr: 0x2520, symBinAddr: 0x104F4, symSize: 0x14 }
  - { offset: 0x176115, size: 0x8, addend: 0x0, symName: __ZNSt3__120__shared_ptr_emplaceIN8facebook5react30RNSFullWindowOverlayShadowNodeENS_9allocatorIS3_EEEC2B8ne200100IJRKNS2_18ShadowNodeFragmentERKNS_10shared_ptrIKNS2_16ShadowNodeFamilyEEENS2_16ShadowNodeTraitsEES5_Li0EEES5_DpOT_, symObjAddr: 0x285C, symBinAddr: 0x10578, symSize: 0x78 }
  - { offset: 0x17653E, size: 0x8, addend: 0x0, symName: __ZNSt3__120__shared_ptr_emplaceIN8facebook5react30RNSFullWindowOverlayShadowNodeENS_9allocatorIS3_EEED1Ev, symObjAddr: 0x28D4, symBinAddr: 0x105F0, symSize: 0x14 }
  - { offset: 0x176562, size: 0x8, addend: 0x0, symName: __ZNSt3__120__shared_ptr_emplaceIN8facebook5react30RNSFullWindowOverlayShadowNodeENS_9allocatorIS3_EEED1Ev, symObjAddr: 0x28D4, symBinAddr: 0x105F0, symSize: 0x14 }
  - { offset: 0x176598, size: 0x8, addend: 0x0, symName: __ZNSt3__120__shared_ptr_emplaceIN8facebook5react30RNSFullWindowOverlayShadowNodeENS_9allocatorIS3_EEED0Ev, symObjAddr: 0x28E8, symBinAddr: 0x10604, symSize: 0x24 }
  - { offset: 0x17666B, size: 0x8, addend: 0x0, symName: __ZNSt3__120__shared_ptr_emplaceIN8facebook5react30RNSFullWindowOverlayShadowNodeENS_9allocatorIS3_EEE16__on_zero_sharedEv, symObjAddr: 0x290C, symBinAddr: 0x10628, symSize: 0x8 }
  - { offset: 0x176694, size: 0x8, addend: 0x0, symName: __ZNSt3__120__shared_ptr_emplaceIN8facebook5react30RNSFullWindowOverlayShadowNodeENS_9allocatorIS3_EEE16__on_zero_sharedEv, symObjAddr: 0x290C, symBinAddr: 0x10628, symSize: 0x8 }
  - { offset: 0x1766B3, size: 0x8, addend: 0x0, symName: __ZNSt3__120__shared_ptr_emplaceIN8facebook5react30RNSFullWindowOverlayShadowNodeENS_9allocatorIS3_EEE16__on_zero_sharedEv, symObjAddr: 0x290C, symBinAddr: 0x10628, symSize: 0x8 }
  - { offset: 0x1766F2, size: 0x8, addend: 0x0, symName: __ZNSt3__120__shared_ptr_emplaceIN8facebook5react30RNSFullWindowOverlayShadowNodeENS_9allocatorIS3_EEE21__on_zero_shared_weakEv, symObjAddr: 0x2914, symBinAddr: 0x10630, symSize: 0x4 }
  - { offset: 0x176726, size: 0x8, addend: 0x0, symName: __ZNSt3__120__shared_ptr_emplaceIN8facebook5react30RNSFullWindowOverlayShadowNodeENS_9allocatorIS3_EEE21__on_zero_shared_weakEv, symObjAddr: 0x2914, symBinAddr: 0x10630, symSize: 0x4 }
  - { offset: 0x17674A, size: 0x8, addend: 0x0, symName: __ZNSt3__120__shared_ptr_emplaceIN8facebook5react30RNSFullWindowOverlayShadowNodeENS_9allocatorIS3_EEE21__on_zero_shared_weakEv, symObjAddr: 0x2914, symBinAddr: 0x10630, symSize: 0x4 }
  - { offset: 0x17676F, size: 0x8, addend: 0x0, symName: __ZNSt3__120__shared_ptr_emplaceIN8facebook5react30RNSFullWindowOverlayShadowNodeENS_9allocatorIS3_EEE21__on_zero_shared_weakEv, symObjAddr: 0x2914, symBinAddr: 0x10630, symSize: 0x4 }
  - { offset: 0x1767A7, size: 0x8, addend: 0x0, symName: __ZNSt3__120__shared_ptr_emplaceIN8facebook5react30RNSFullWindowOverlayShadowNodeENS_9allocatorIS3_EEE21__on_zero_shared_weakEv, symObjAddr: 0x2914, symBinAddr: 0x10630, symSize: 0x4 }
  - { offset: 0x176A26, size: 0x8, addend: 0x0, symName: __ZN8facebook5react30RNSFullWindowOverlayShadowNodeD1Ev, symObjAddr: 0x2918, symBinAddr: 0x10634, symSize: 0x70 }
  - { offset: 0x176FE2, size: 0x8, addend: 0x0, symName: __ZN8facebook5react30RNSFullWindowOverlayShadowNodeD0Ev, symObjAddr: 0x2988, symBinAddr: 0x106A4, symSize: 0x74 }
  - { offset: 0x177443, size: 0x8, addend: 0x0, symName: __ZNK8facebook5react22ConcreteViewShadowNodeIXadL_ZNS0_33RNSFullWindowOverlayComponentNameEEENS0_25RNSFullWindowOverlayPropsENS0_32RNSFullWindowOverlayEventEmitterENS0_25RNSFullWindowOverlayStateEE12getTransformEv, symObjAddr: 0x29FC, symBinAddr: 0x10718, symSize: 0x40 }
  - { offset: 0x1774B6, size: 0x8, addend: 0x0, symName: __ZNK8facebook5react22ConcreteViewShadowNodeIXadL_ZNS0_33RNSFullWindowOverlayComponentNameEEENS0_25RNSFullWindowOverlayPropsENS0_32RNSFullWindowOverlayEventEmitterENS0_25RNSFullWindowOverlayStateEE16canBeTouchTargetEv, symObjAddr: 0x2A3C, symBinAddr: 0x10758, symSize: 0x18 }
  - { offset: 0x1774EF, size: 0x8, addend: 0x0, symName: __ZNK8facebook5react22ConcreteViewShadowNodeIXadL_ZNS0_33RNSFullWindowOverlayComponentNameEEENS0_25RNSFullWindowOverlayPropsENS0_32RNSFullWindowOverlayEventEmitterENS0_25RNSFullWindowOverlayStateEE16canBeTouchTargetEv, symObjAddr: 0x2A3C, symBinAddr: 0x10758, symSize: 0x18 }
  - { offset: 0x17750C, size: 0x8, addend: 0x0, symName: __ZNK8facebook5react22ConcreteViewShadowNodeIXadL_ZNS0_33RNSFullWindowOverlayComponentNameEEENS0_25RNSFullWindowOverlayPropsENS0_32RNSFullWindowOverlayEventEmitterENS0_25RNSFullWindowOverlayStateEE16canBeTouchTargetEv, symObjAddr: 0x2A3C, symBinAddr: 0x10758, symSize: 0x18 }
  - { offset: 0x17752A, size: 0x8, addend: 0x0, symName: __ZNK8facebook5react22ConcreteViewShadowNodeIXadL_ZNS0_33RNSFullWindowOverlayComponentNameEEENS0_25RNSFullWindowOverlayPropsENS0_32RNSFullWindowOverlayEventEmitterENS0_25RNSFullWindowOverlayStateEE24canChildrenBeTouchTargetEv, symObjAddr: 0x2A54, symBinAddr: 0x10770, symSize: 0x18 }
  - { offset: 0x17755F, size: 0x8, addend: 0x0, symName: __ZNK8facebook5react22ConcreteViewShadowNodeIXadL_ZNS0_33RNSFullWindowOverlayComponentNameEEENS0_25RNSFullWindowOverlayPropsENS0_32RNSFullWindowOverlayEventEmitterENS0_25RNSFullWindowOverlayStateEE24canChildrenBeTouchTargetEv, symObjAddr: 0x2A54, symBinAddr: 0x10770, symSize: 0x18 }
  - { offset: 0x17757C, size: 0x8, addend: 0x0, symName: __ZNK8facebook5react22ConcreteViewShadowNodeIXadL_ZNS0_33RNSFullWindowOverlayComponentNameEEENS0_25RNSFullWindowOverlayPropsENS0_32RNSFullWindowOverlayEventEmitterENS0_25RNSFullWindowOverlayStateEE24canChildrenBeTouchTargetEv, symObjAddr: 0x2A54, symBinAddr: 0x10770, symSize: 0x18 }
  - { offset: 0x177604, size: 0x8, addend: 0x0, symName: __ZN8facebook5react22ConcreteViewShadowNodeIXadL_ZNS0_33RNSFullWindowOverlayComponentNameEEENS0_25RNSFullWindowOverlayPropsENS0_32RNSFullWindowOverlayEventEmitterENS0_25RNSFullWindowOverlayStateEED1Ev, symObjAddr: 0x2AD8, symBinAddr: 0x10788, symSize: 0x70 }
  - { offset: 0x177A0C, size: 0x8, addend: 0x0, symName: __ZN8facebook5react22ConcreteViewShadowNodeIXadL_ZNS0_33RNSFullWindowOverlayComponentNameEEENS0_25RNSFullWindowOverlayPropsENS0_32RNSFullWindowOverlayEventEmitterENS0_25RNSFullWindowOverlayStateEED0Ev, symObjAddr: 0x2B48, symBinAddr: 0x107F8, symSize: 0x74 }
  - { offset: 0x178191, size: 0x8, addend: 0x0, symName: __ZNSt3__120__shared_ptr_emplaceIN8facebook5react30RNSFullWindowOverlayShadowNodeENS_9allocatorIS3_EEEC2B8ne200100IJRKNS2_10ShadowNodeERKNS2_18ShadowNodeFragmentEES5_Li0EEES5_DpOT_, symObjAddr: 0x2F68, symBinAddr: 0x108CC, symSize: 0x74 }
  - { offset: 0x178706, size: 0x8, addend: 0x0, symName: __ZNSt3__120__shared_ptr_emplaceIN8facebook5react25RNSFullWindowOverlayPropsENS_9allocatorIS3_EEEC2B8ne200100IJRKNS2_18PropsParserContextERKS3_RKNS2_8RawPropsEES5_Li0EEES5_DpOT_, symObjAddr: 0x3198, symBinAddr: 0x10AA4, symSize: 0x4C }
  - { offset: 0x178901, size: 0x8, addend: 0x0, symName: __ZNSt3__120__shared_ptr_emplaceIN8facebook5react25RNSFullWindowOverlayPropsENS_9allocatorIS3_EEED1Ev, symObjAddr: 0x31E4, symBinAddr: 0x10AF0, symSize: 0x14 }
  - { offset: 0x178925, size: 0x8, addend: 0x0, symName: __ZNSt3__120__shared_ptr_emplaceIN8facebook5react25RNSFullWindowOverlayPropsENS_9allocatorIS3_EEED1Ev, symObjAddr: 0x31E4, symBinAddr: 0x10AF0, symSize: 0x14 }
  - { offset: 0x17895B, size: 0x8, addend: 0x0, symName: __ZNSt3__120__shared_ptr_emplaceIN8facebook5react25RNSFullWindowOverlayPropsENS_9allocatorIS3_EEED0Ev, symObjAddr: 0x31F8, symBinAddr: 0x10B04, symSize: 0x24 }
  - { offset: 0x1789FE, size: 0x8, addend: 0x0, symName: __ZNSt3__120__shared_ptr_emplaceIN8facebook5react25RNSFullWindowOverlayPropsENS_9allocatorIS3_EEE16__on_zero_sharedEv, symObjAddr: 0x321C, symBinAddr: 0x10B28, symSize: 0x14 }
  - { offset: 0x178A27, size: 0x8, addend: 0x0, symName: __ZNSt3__120__shared_ptr_emplaceIN8facebook5react25RNSFullWindowOverlayPropsENS_9allocatorIS3_EEE16__on_zero_sharedEv, symObjAddr: 0x321C, symBinAddr: 0x10B28, symSize: 0x14 }
  - { offset: 0x178AB5, size: 0x8, addend: 0x0, symName: __ZNSt3__120__shared_ptr_emplaceIN8facebook5react25RNSFullWindowOverlayPropsENS_9allocatorIS3_EEE21__on_zero_shared_weakEv, symObjAddr: 0x3230, symBinAddr: 0x10B3C, symSize: 0x4 }
  - { offset: 0x178AE9, size: 0x8, addend: 0x0, symName: __ZNSt3__120__shared_ptr_emplaceIN8facebook5react25RNSFullWindowOverlayPropsENS_9allocatorIS3_EEE21__on_zero_shared_weakEv, symObjAddr: 0x3230, symBinAddr: 0x10B3C, symSize: 0x4 }
  - { offset: 0x178B0D, size: 0x8, addend: 0x0, symName: __ZNSt3__120__shared_ptr_emplaceIN8facebook5react25RNSFullWindowOverlayPropsENS_9allocatorIS3_EEE21__on_zero_shared_weakEv, symObjAddr: 0x3230, symBinAddr: 0x10B3C, symSize: 0x4 }
  - { offset: 0x178B32, size: 0x8, addend: 0x0, symName: __ZNSt3__120__shared_ptr_emplaceIN8facebook5react25RNSFullWindowOverlayPropsENS_9allocatorIS3_EEE21__on_zero_shared_weakEv, symObjAddr: 0x3230, symBinAddr: 0x10B3C, symSize: 0x4 }
  - { offset: 0x178B6A, size: 0x8, addend: 0x0, symName: __ZNSt3__120__shared_ptr_emplaceIN8facebook5react25RNSFullWindowOverlayPropsENS_9allocatorIS3_EEE21__on_zero_shared_weakEv, symObjAddr: 0x3230, symBinAddr: 0x10B3C, symSize: 0x4 }
  - { offset: 0x179236, size: 0x8, addend: 0x0, symName: __ZNSt3__120__shared_ptr_emplaceIN8facebook5react13ConcreteStateINS2_25RNSFullWindowOverlayStateEEENS_9allocatorIS5_EEEC2B8ne200100IJNS_10shared_ptrIKS4_EERKNSA_IKNS2_16ShadowNodeFamilyEEEES7_Li0EEES7_DpOT_, symObjAddr: 0x34F0, symBinAddr: 0x10BA0, symSize: 0x4C }
  - { offset: 0x1793EF, size: 0x8, addend: 0x0, symName: __ZNSt3__120__shared_ptr_emplaceIN8facebook5react13ConcreteStateINS2_25RNSFullWindowOverlayStateEEENS_9allocatorIS5_EEED1Ev, symObjAddr: 0x353C, symBinAddr: 0x10BEC, symSize: 0x14 }
  - { offset: 0x179413, size: 0x8, addend: 0x0, symName: __ZNSt3__120__shared_ptr_emplaceIN8facebook5react13ConcreteStateINS2_25RNSFullWindowOverlayStateEEENS_9allocatorIS5_EEED1Ev, symObjAddr: 0x353C, symBinAddr: 0x10BEC, symSize: 0x14 }
  - { offset: 0x179449, size: 0x8, addend: 0x0, symName: __ZNSt3__120__shared_ptr_emplaceIN8facebook5react13ConcreteStateINS2_25RNSFullWindowOverlayStateEEENS_9allocatorIS5_EEED0Ev, symObjAddr: 0x3550, symBinAddr: 0x10C00, symSize: 0x24 }
  - { offset: 0x17951C, size: 0x8, addend: 0x0, symName: __ZNSt3__120__shared_ptr_emplaceIN8facebook5react13ConcreteStateINS2_25RNSFullWindowOverlayStateEEENS_9allocatorIS5_EEE16__on_zero_sharedEv, symObjAddr: 0x3574, symBinAddr: 0x10C24, symSize: 0xC }
  - { offset: 0x179545, size: 0x8, addend: 0x0, symName: __ZNSt3__120__shared_ptr_emplaceIN8facebook5react13ConcreteStateINS2_25RNSFullWindowOverlayStateEEENS_9allocatorIS5_EEE16__on_zero_sharedEv, symObjAddr: 0x3574, symBinAddr: 0x10C24, symSize: 0xC }
  - { offset: 0x179564, size: 0x8, addend: 0x0, symName: __ZNSt3__120__shared_ptr_emplaceIN8facebook5react13ConcreteStateINS2_25RNSFullWindowOverlayStateEEENS_9allocatorIS5_EEE16__on_zero_sharedEv, symObjAddr: 0x3574, symBinAddr: 0x10C24, symSize: 0xC }
  - { offset: 0x179583, size: 0x8, addend: 0x0, symName: __ZNSt3__120__shared_ptr_emplaceIN8facebook5react13ConcreteStateINS2_25RNSFullWindowOverlayStateEEENS_9allocatorIS5_EEE16__on_zero_sharedEv, symObjAddr: 0x3574, symBinAddr: 0x10C24, symSize: 0xC }
  - { offset: 0x1795AF, size: 0x8, addend: 0x0, symName: __ZNSt3__120__shared_ptr_emplaceIN8facebook5react13ConcreteStateINS2_25RNSFullWindowOverlayStateEEENS_9allocatorIS5_EEE21__on_zero_shared_weakEv, symObjAddr: 0x3580, symBinAddr: 0x10C30, symSize: 0x4 }
  - { offset: 0x1795E3, size: 0x8, addend: 0x0, symName: __ZNSt3__120__shared_ptr_emplaceIN8facebook5react13ConcreteStateINS2_25RNSFullWindowOverlayStateEEENS_9allocatorIS5_EEE21__on_zero_shared_weakEv, symObjAddr: 0x3580, symBinAddr: 0x10C30, symSize: 0x4 }
  - { offset: 0x179607, size: 0x8, addend: 0x0, symName: __ZNSt3__120__shared_ptr_emplaceIN8facebook5react13ConcreteStateINS2_25RNSFullWindowOverlayStateEEENS_9allocatorIS5_EEE21__on_zero_shared_weakEv, symObjAddr: 0x3580, symBinAddr: 0x10C30, symSize: 0x4 }
  - { offset: 0x17962C, size: 0x8, addend: 0x0, symName: __ZNSt3__120__shared_ptr_emplaceIN8facebook5react13ConcreteStateINS2_25RNSFullWindowOverlayStateEEENS_9allocatorIS5_EEE21__on_zero_shared_weakEv, symObjAddr: 0x3580, symBinAddr: 0x10C30, symSize: 0x4 }
  - { offset: 0x179663, size: 0x8, addend: 0x0, symName: __ZNSt3__120__shared_ptr_emplaceIN8facebook5react13ConcreteStateINS2_25RNSFullWindowOverlayStateEEENS_9allocatorIS5_EEE21__on_zero_shared_weakEv, symObjAddr: 0x3580, symBinAddr: 0x10C30, symSize: 0x4 }
  - { offset: 0x179776, size: 0x8, addend: 0x0, symName: __ZN8facebook5react13ConcreteStateINS0_25RNSFullWindowOverlayStateEEC2ENSt3__110shared_ptrIKS2_EENS4_8weak_ptrIKNS0_16ShadowNodeFamilyEEE, symObjAddr: 0x364C, symBinAddr: 0x10CFC, symSize: 0xBC }
  - { offset: 0x179A8A, size: 0x8, addend: 0x0, symName: __ZN8facebook5react13ConcreteStateINS0_25RNSFullWindowOverlayStateEED1Ev, symObjAddr: 0x3708, symBinAddr: 0x10DB8, symSize: 0x4 }
  - { offset: 0x179AAE, size: 0x8, addend: 0x0, symName: __ZN8facebook5react13ConcreteStateINS0_25RNSFullWindowOverlayStateEED1Ev, symObjAddr: 0x3708, symBinAddr: 0x10DB8, symSize: 0x4 }
  - { offset: 0x179ACC, size: 0x8, addend: 0x0, symName: __ZN8facebook5react13ConcreteStateINS0_25RNSFullWindowOverlayStateEED1Ev, symObjAddr: 0x3708, symBinAddr: 0x10DB8, symSize: 0x4 }
  - { offset: 0x179B49, size: 0x8, addend: 0x0, symName: __ZN8facebook5react13ConcreteStateINS0_25RNSFullWindowOverlayStateEED0Ev, symObjAddr: 0x370C, symBinAddr: 0x10DBC, symSize: 0x14 }
  - { offset: 0x179BE5, size: 0x8, addend: 0x0, symName: __ZNSt3__120__shared_ptr_emplaceIKN8facebook5react25RNSFullWindowOverlayStateENS_9allocatorIS3_EEED1Ev, symObjAddr: 0x3778, symBinAddr: 0x10DD0, symSize: 0x14 }
  - { offset: 0x179C09, size: 0x8, addend: 0x0, symName: __ZNSt3__120__shared_ptr_emplaceIKN8facebook5react25RNSFullWindowOverlayStateENS_9allocatorIS3_EEED1Ev, symObjAddr: 0x3778, symBinAddr: 0x10DD0, symSize: 0x14 }
  - { offset: 0x179C3F, size: 0x8, addend: 0x0, symName: __ZNSt3__120__shared_ptr_emplaceIKN8facebook5react25RNSFullWindowOverlayStateENS_9allocatorIS3_EEED0Ev, symObjAddr: 0x378C, symBinAddr: 0x10DE4, symSize: 0x24 }
  - { offset: 0x179CA6, size: 0x8, addend: 0x0, symName: __ZNSt3__120__shared_ptr_emplaceIKN8facebook5react25RNSFullWindowOverlayStateENS_9allocatorIS3_EEE16__on_zero_sharedEv, symObjAddr: 0x37B0, symBinAddr: 0x10E08, symSize: 0x4 }
  - { offset: 0x179D2C, size: 0x8, addend: 0x0, symName: __ZNSt3__120__shared_ptr_emplaceIKN8facebook5react25RNSFullWindowOverlayStateENS_9allocatorIS3_EEE21__on_zero_shared_weakEv, symObjAddr: 0x37B4, symBinAddr: 0x10E0C, symSize: 0x4 }
  - { offset: 0x179D60, size: 0x8, addend: 0x0, symName: __ZNSt3__120__shared_ptr_emplaceIKN8facebook5react25RNSFullWindowOverlayStateENS_9allocatorIS3_EEE21__on_zero_shared_weakEv, symObjAddr: 0x37B4, symBinAddr: 0x10E0C, symSize: 0x4 }
  - { offset: 0x179D84, size: 0x8, addend: 0x0, symName: __ZNSt3__120__shared_ptr_emplaceIKN8facebook5react25RNSFullWindowOverlayStateENS_9allocatorIS3_EEE21__on_zero_shared_weakEv, symObjAddr: 0x37B4, symBinAddr: 0x10E0C, symSize: 0x4 }
  - { offset: 0x179DA9, size: 0x8, addend: 0x0, symName: __ZNSt3__120__shared_ptr_emplaceIKN8facebook5react25RNSFullWindowOverlayStateENS_9allocatorIS3_EEE21__on_zero_shared_weakEv, symObjAddr: 0x37B4, symBinAddr: 0x10E0C, symSize: 0x4 }
  - { offset: 0x179DE0, size: 0x8, addend: 0x0, symName: __ZNSt3__120__shared_ptr_emplaceIKN8facebook5react25RNSFullWindowOverlayStateENS_9allocatorIS3_EEE21__on_zero_shared_weakEv, symObjAddr: 0x37B4, symBinAddr: 0x10E0C, symSize: 0x4 }
  - { offset: 0x17A05E, size: 0x8, addend: 0x0, symName: __ZNSt3__120__shared_ptr_emplaceIKN8facebook5react13ConcreteStateINS2_25RNSFullWindowOverlayStateEEENS_9allocatorIS5_EEEC2B8ne200100IJNS_10shared_ptrIKS4_EERKNS2_5StateEES8_Li0EEES8_DpOT_, symObjAddr: 0x3870, symBinAddr: 0x10E70, symSize: 0x4C }
  - { offset: 0x17A211, size: 0x8, addend: 0x0, symName: __ZNSt3__120__shared_ptr_emplaceIKN8facebook5react13ConcreteStateINS2_25RNSFullWindowOverlayStateEEENS_9allocatorIS5_EEED1Ev, symObjAddr: 0x38BC, symBinAddr: 0x10EBC, symSize: 0x14 }
  - { offset: 0x17A235, size: 0x8, addend: 0x0, symName: __ZNSt3__120__shared_ptr_emplaceIKN8facebook5react13ConcreteStateINS2_25RNSFullWindowOverlayStateEEENS_9allocatorIS5_EEED1Ev, symObjAddr: 0x38BC, symBinAddr: 0x10EBC, symSize: 0x14 }
  - { offset: 0x17A26B, size: 0x8, addend: 0x0, symName: __ZNSt3__120__shared_ptr_emplaceIKN8facebook5react13ConcreteStateINS2_25RNSFullWindowOverlayStateEEENS_9allocatorIS5_EEED0Ev, symObjAddr: 0x38D0, symBinAddr: 0x10ED0, symSize: 0x24 }
  - { offset: 0x17A30E, size: 0x8, addend: 0x0, symName: __ZNSt3__120__shared_ptr_emplaceIKN8facebook5react13ConcreteStateINS2_25RNSFullWindowOverlayStateEEENS_9allocatorIS5_EEE16__on_zero_sharedEv, symObjAddr: 0x38F4, symBinAddr: 0x10EF4, symSize: 0xC }
  - { offset: 0x17A337, size: 0x8, addend: 0x0, symName: __ZNSt3__120__shared_ptr_emplaceIKN8facebook5react13ConcreteStateINS2_25RNSFullWindowOverlayStateEEENS_9allocatorIS5_EEE16__on_zero_sharedEv, symObjAddr: 0x38F4, symBinAddr: 0x10EF4, symSize: 0xC }
  - { offset: 0x17A356, size: 0x8, addend: 0x0, symName: __ZNSt3__120__shared_ptr_emplaceIKN8facebook5react13ConcreteStateINS2_25RNSFullWindowOverlayStateEEENS_9allocatorIS5_EEE16__on_zero_sharedEv, symObjAddr: 0x38F4, symBinAddr: 0x10EF4, symSize: 0xC }
  - { offset: 0x17A375, size: 0x8, addend: 0x0, symName: __ZNSt3__120__shared_ptr_emplaceIKN8facebook5react13ConcreteStateINS2_25RNSFullWindowOverlayStateEEENS_9allocatorIS5_EEE16__on_zero_sharedEv, symObjAddr: 0x38F4, symBinAddr: 0x10EF4, symSize: 0xC }
  - { offset: 0x17A3A1, size: 0x8, addend: 0x0, symName: __ZNSt3__120__shared_ptr_emplaceIKN8facebook5react13ConcreteStateINS2_25RNSFullWindowOverlayStateEEENS_9allocatorIS5_EEE21__on_zero_shared_weakEv, symObjAddr: 0x3900, symBinAddr: 0x10F00, symSize: 0x4 }
  - { offset: 0x17A3D5, size: 0x8, addend: 0x0, symName: __ZNSt3__120__shared_ptr_emplaceIKN8facebook5react13ConcreteStateINS2_25RNSFullWindowOverlayStateEEENS_9allocatorIS5_EEE21__on_zero_shared_weakEv, symObjAddr: 0x3900, symBinAddr: 0x10F00, symSize: 0x4 }
  - { offset: 0x17A3F9, size: 0x8, addend: 0x0, symName: __ZNSt3__120__shared_ptr_emplaceIKN8facebook5react13ConcreteStateINS2_25RNSFullWindowOverlayStateEEENS_9allocatorIS5_EEE21__on_zero_shared_weakEv, symObjAddr: 0x3900, symBinAddr: 0x10F00, symSize: 0x4 }
  - { offset: 0x17A41E, size: 0x8, addend: 0x0, symName: __ZNSt3__120__shared_ptr_emplaceIKN8facebook5react13ConcreteStateINS2_25RNSFullWindowOverlayStateEEENS_9allocatorIS5_EEE21__on_zero_shared_weakEv, symObjAddr: 0x3900, symBinAddr: 0x10F00, symSize: 0x4 }
  - { offset: 0x17A455, size: 0x8, addend: 0x0, symName: __ZNSt3__120__shared_ptr_emplaceIKN8facebook5react13ConcreteStateINS2_25RNSFullWindowOverlayStateEEENS_9allocatorIS5_EEE21__on_zero_shared_weakEv, symObjAddr: 0x3900, symBinAddr: 0x10F00, symSize: 0x4 }
  - { offset: 0x17A4B0, size: 0x8, addend: 0x0, symName: __ZN8facebook5react13ConcreteStateINS0_25RNSFullWindowOverlayStateEEC2ENSt3__110shared_ptrIKS2_EERKNS0_5StateE, symObjAddr: 0x398C, symBinAddr: 0x10F8C, symSize: 0x98 }
  - { offset: 0x17A879, size: 0x8, addend: 0x0, symName: __ZNSt3__120__shared_ptr_emplaceIKN8facebook5react32RNSFullWindowOverlayEventEmitterENS_9allocatorIS3_EEEC2B8ne200100IJNS_10shared_ptrINS2_11EventTargetEEERKNS_8weak_ptrIKNS2_15EventDispatcherEEEES6_Li0EEES6_DpOT_, symObjAddr: 0x3A84, symBinAddr: 0x11084, symSize: 0x4C }
  - { offset: 0x17AA32, size: 0x8, addend: 0x0, symName: __ZNSt3__120__shared_ptr_emplaceIKN8facebook5react32RNSFullWindowOverlayEventEmitterENS_9allocatorIS3_EEED1Ev, symObjAddr: 0x3AD0, symBinAddr: 0x110D0, symSize: 0x14 }
  - { offset: 0x17AA56, size: 0x8, addend: 0x0, symName: __ZNSt3__120__shared_ptr_emplaceIKN8facebook5react32RNSFullWindowOverlayEventEmitterENS_9allocatorIS3_EEED1Ev, symObjAddr: 0x3AD0, symBinAddr: 0x110D0, symSize: 0x14 }
  - { offset: 0x17AA8C, size: 0x8, addend: 0x0, symName: __ZNSt3__120__shared_ptr_emplaceIKN8facebook5react32RNSFullWindowOverlayEventEmitterENS_9allocatorIS3_EEED0Ev, symObjAddr: 0x3AE4, symBinAddr: 0x110E4, symSize: 0x24 }
  - { offset: 0x17AB5F, size: 0x8, addend: 0x0, symName: __ZNSt3__120__shared_ptr_emplaceIKN8facebook5react32RNSFullWindowOverlayEventEmitterENS_9allocatorIS3_EEE16__on_zero_sharedEv, symObjAddr: 0x3B08, symBinAddr: 0x11108, symSize: 0xC }
  - { offset: 0x17AB88, size: 0x8, addend: 0x0, symName: __ZNSt3__120__shared_ptr_emplaceIKN8facebook5react32RNSFullWindowOverlayEventEmitterENS_9allocatorIS3_EEE16__on_zero_sharedEv, symObjAddr: 0x3B08, symBinAddr: 0x11108, symSize: 0xC }
  - { offset: 0x17ABA7, size: 0x8, addend: 0x0, symName: __ZNSt3__120__shared_ptr_emplaceIKN8facebook5react32RNSFullWindowOverlayEventEmitterENS_9allocatorIS3_EEE16__on_zero_sharedEv, symObjAddr: 0x3B08, symBinAddr: 0x11108, symSize: 0xC }
  - { offset: 0x17ABC6, size: 0x8, addend: 0x0, symName: __ZNSt3__120__shared_ptr_emplaceIKN8facebook5react32RNSFullWindowOverlayEventEmitterENS_9allocatorIS3_EEE16__on_zero_sharedEv, symObjAddr: 0x3B08, symBinAddr: 0x11108, symSize: 0xC }
  - { offset: 0x17ABF2, size: 0x8, addend: 0x0, symName: __ZNSt3__120__shared_ptr_emplaceIKN8facebook5react32RNSFullWindowOverlayEventEmitterENS_9allocatorIS3_EEE21__on_zero_shared_weakEv, symObjAddr: 0x3B14, symBinAddr: 0x11114, symSize: 0x4 }
  - { offset: 0x17AC26, size: 0x8, addend: 0x0, symName: __ZNSt3__120__shared_ptr_emplaceIKN8facebook5react32RNSFullWindowOverlayEventEmitterENS_9allocatorIS3_EEE21__on_zero_shared_weakEv, symObjAddr: 0x3B14, symBinAddr: 0x11114, symSize: 0x4 }
  - { offset: 0x17AC4A, size: 0x8, addend: 0x0, symName: __ZNSt3__120__shared_ptr_emplaceIKN8facebook5react32RNSFullWindowOverlayEventEmitterENS_9allocatorIS3_EEE21__on_zero_shared_weakEv, symObjAddr: 0x3B14, symBinAddr: 0x11114, symSize: 0x4 }
  - { offset: 0x17AC6F, size: 0x8, addend: 0x0, symName: __ZNSt3__120__shared_ptr_emplaceIKN8facebook5react32RNSFullWindowOverlayEventEmitterENS_9allocatorIS3_EEE21__on_zero_shared_weakEv, symObjAddr: 0x3B14, symBinAddr: 0x11114, symSize: 0x4 }
  - { offset: 0x17ACA6, size: 0x8, addend: 0x0, symName: __ZNSt3__120__shared_ptr_emplaceIKN8facebook5react32RNSFullWindowOverlayEventEmitterENS_9allocatorIS3_EEE21__on_zero_shared_weakEv, symObjAddr: 0x3B14, symBinAddr: 0x11114, symSize: 0x4 }
  - { offset: 0x17B1FF, size: 0x8, addend: 0x0, symName: __ZN8facebook5react32RNSFullWindowOverlayEventEmitterD1Ev, symObjAddr: 0x3C58, symBinAddr: 0x11258, symSize: 0x34 }
  - { offset: 0x17B332, size: 0x8, addend: 0x0, symName: __ZN8facebook5react32RNSFullWindowOverlayEventEmitterD0Ev, symObjAddr: 0x3C8C, symBinAddr: 0x1128C, symSize: 0x38 }
  - { offset: 0x17BADD, size: 0x8, addend: 0x0, symName: __ZNSt3__120__shared_ptr_emplaceIN8facebook5react16ShadowNodeFamilyENS_9allocatorIS3_EEEC2B8ne200100IJRKNS2_24ShadowNodeFamilyFragmentERNS_10shared_ptrIKNS2_32RNSFullWindowOverlayEventEmitterEEERKNS_8weak_ptrIKNS2_15EventDispatcherEEERKNS2_27ConcreteComponentDescriptorINS2_30RNSFullWindowOverlayShadowNodeEEEES5_Li0EEES5_DpOT_, symObjAddr: 0x4168, symBinAddr: 0x1133C, symSize: 0x4C }
  - { offset: 0x17BE6F, size: 0x8, addend: 0x0, symName: __GLOBAL__sub_I_RNSFullWindowOverlay.mm, symObjAddr: 0x47D8, symBinAddr: 0x11464, symSize: 0x20 }
  - { offset: 0x17E303, size: 0x8, addend: 0x0, symName: __ZN8facebook5react33RNSFullWindowOverlayComponentNameE, symObjAddr: 0x0, symBinAddr: 0x4A28D, symSize: 0x0 }
  - { offset: 0x183084, size: 0x8, addend: 0x0, symName: '-[RNSHeaderHeightChangeEvent initWithEventName:reactTag:headerHeight:]', symObjAddr: 0x0, symBinAddr: 0x11484, symSize: 0xC8 }
  - { offset: 0x183158, size: 0x8, addend: 0x0, symName: '-[RNSHeaderHeightChangeEvent initWithEventName:reactTag:headerHeight:]', symObjAddr: 0x0, symBinAddr: 0x11484, symSize: 0xC8 }
  - { offset: 0x1831B9, size: 0x8, addend: 0x0, symName: '-[RNSHeaderHeightChangeEvent init]', symObjAddr: 0xC8, symBinAddr: 0x1154C, symSize: 0x44 }
  - { offset: 0x1832E4, size: 0x8, addend: 0x0, symName: '-[RNSHeaderHeightChangeEvent body]', symObjAddr: 0x10C, symBinAddr: 0x11590, symSize: 0xB8 }
  - { offset: 0x183329, size: 0x8, addend: 0x0, symName: '-[RNSHeaderHeightChangeEvent canCoalesce]', symObjAddr: 0x1C4, symBinAddr: 0x11648, symSize: 0x8 }
  - { offset: 0x18335A, size: 0x8, addend: 0x0, symName: '-[RNSHeaderHeightChangeEvent coalescingKey]', symObjAddr: 0x1CC, symBinAddr: 0x11650, symSize: 0xC }
  - { offset: 0x18338F, size: 0x8, addend: 0x0, symName: '-[RNSHeaderHeightChangeEvent coalesceWithEvent:]', symObjAddr: 0x1D8, symBinAddr: 0x1165C, symSize: 0x8 }
  - { offset: 0x1833A9, size: 0x8, addend: 0x0, symName: '+[RNSHeaderHeightChangeEvent moduleDotMethod]', symObjAddr: 0x1E0, symBinAddr: 0x11664, symSize: 0xC }
  - { offset: 0x1833D9, size: 0x8, addend: 0x0, symName: '-[RNSHeaderHeightChangeEvent arguments]', symObjAddr: 0x1EC, symBinAddr: 0x11670, symSize: 0x110 }
  - { offset: 0x18342E, size: 0x8, addend: 0x0, symName: '-[RNSHeaderHeightChangeEvent viewTag]', symObjAddr: 0x2FC, symBinAddr: 0x11780, symSize: 0x8 }
  - { offset: 0x183463, size: 0x8, addend: 0x0, symName: '-[RNSHeaderHeightChangeEvent eventName]', symObjAddr: 0x304, symBinAddr: 0x11788, symSize: 0x8 }
  - { offset: 0x183498, size: 0x8, addend: 0x0, symName: '-[RNSHeaderHeightChangeEvent .cxx_destruct]', symObjAddr: 0x30C, symBinAddr: 0x11790, symSize: 0x30 }
  - { offset: 0x18367D, size: 0x8, addend: 0x0, symName: '-[RNSInvalidatedComponentsRegistry init]', symObjAddr: 0x0, symBinAddr: 0x117C0, symSize: 0x7C }
  - { offset: 0x183702, size: 0x8, addend: 0x0, symName: '-[RNSInvalidatedComponentsRegistry init]', symObjAddr: 0x0, symBinAddr: 0x117C0, symSize: 0x7C }
  - { offset: 0x183737, size: 0x8, addend: 0x0, symName: '-[RNSInvalidatedComponentsRegistry pushForInvalidation:]', symObjAddr: 0x7C, symBinAddr: 0x1183C, symSize: 0x8 }
  - { offset: 0x183776, size: 0x8, addend: 0x0, symName: '-[RNSInvalidatedComponentsRegistry flushInvalidViews]', symObjAddr: 0x84, symBinAddr: 0x11844, symSize: 0x114 }
  - { offset: 0x1837BE, size: 0x8, addend: 0x0, symName: '-[RNSInvalidatedComponentsRegistry invalidViews]', symObjAddr: 0x198, symBinAddr: 0x11958, symSize: 0x8 }
  - { offset: 0x1837F3, size: 0x8, addend: 0x0, symName: '-[RNSInvalidatedComponentsRegistry setInvalidViews:]', symObjAddr: 0x1A0, symBinAddr: 0x11960, symSize: 0xC }
  - { offset: 0x183832, size: 0x8, addend: 0x0, symName: '-[RNSInvalidatedComponentsRegistry .cxx_destruct]', symObjAddr: 0x1AC, symBinAddr: 0x1196C, symSize: 0xC }
  - { offset: 0x186501, size: 0x8, addend: 0x0, symName: __ZN8facebook5react17HostPlatformColorL14UndefinedColorE, symObjAddr: 0x17F610, symBinAddr: 0x7D6C8, symSize: 0x0 }
  - { offset: 0x189E55, size: 0x8, addend: 0x0, symName: __ZN8facebook5react38concreteComponentDescriptorConstructorINS0_33RNSModalScreenComponentDescriptorEEENSt3__110unique_ptrIKNS0_19ComponentDescriptorENS3_14default_deleteIS6_EEEERKNS0_29ComponentDescriptorParametersE, symObjAddr: 0x1F4, symBinAddr: 0x11B6C, symSize: 0x34 }
  - { offset: 0x1A6F95, size: 0x8, addend: 0x0, symName: __ZNSt3__111make_uniqueB8ne200100IKN8facebook5react33RNSModalScreenComponentDescriptorEJRKNS2_29ComponentDescriptorParametersEELi0EEENS_10unique_ptrIT_NS_14default_deleteIS9_EEEEDpOT0_, symObjAddr: 0x228, symBinAddr: 0x11BA0, symSize: 0xE4 }
  - { offset: 0x1A7952, size: 0x8, addend: 0x0, symName: __ZNSt3__115allocate_sharedB8ne200100IN8facebook5react24RNSModalScreenShadowNodeENS_9allocatorIS3_EEJRKNS2_18ShadowNodeFragmentERKNS_10shared_ptrIKNS2_16ShadowNodeFamilyEEENS2_16ShadowNodeTraitsEELi0EEENS9_IT_EERKT0_DpOT1_, symObjAddr: 0x1FCC, symBinAddr: 0x1285C, symSize: 0x70 }
  - { offset: 0x1A7CDC, size: 0x8, addend: 0x0, symName: __ZNSt3__115allocate_sharedB8ne200100IN8facebook5react24RNSModalScreenShadowNodeENS_9allocatorIS3_EEJRKNS2_10ShadowNodeERKNS2_18ShadowNodeFragmentEELi0EEENS_10shared_ptrIT_EERKT0_DpOT1_, symObjAddr: 0x2604, symBinAddr: 0x12ADC, symSize: 0x60 }
  - { offset: 0x1A864D, size: 0x8, addend: 0x0, symName: __ZNSt3__115allocate_sharedB8ne200100IN8facebook5react13ConcreteStateINS2_14RNSScreenStateEEENS_9allocatorIS5_EEJNS_10shared_ptrIKS4_EERKNS8_IKNS2_16ShadowNodeFamilyEEEELi0EEENS8_IT_EERKT0_DpOT1_, symObjAddr: 0x2BA4, symBinAddr: 0x12E9C, symSize: 0x60 }
  - { offset: 0x1A8993, size: 0x8, addend: 0x0, symName: __ZNSt3__115allocate_sharedB8ne200100IKN8facebook5react13ConcreteStateINS2_14RNSScreenStateEEENS_9allocatorIS5_EEJNS_10shared_ptrIKS4_EERKNS2_5StateEELi0EEENS9_IT_EERKT0_DpOT1_, symObjAddr: 0x2F24, symBinAddr: 0x1316C, symSize: 0x60 }
  - { offset: 0x1A9318, size: 0x8, addend: 0x0, symName: __ZNSt3__115allocate_sharedB8ne200100IKN8facebook5react21RNSScreenEventEmitterENS_9allocatorIS3_EEJNS_10shared_ptrINS2_11EventTargetEEERKNS_8weak_ptrIKNS2_15EventDispatcherEEEELi0EEENS7_IT_EERKT0_DpOT1_, symObjAddr: 0x3190, symBinAddr: 0x13380, symSize: 0x60 }
  - { offset: 0x1A95DC, size: 0x8, addend: 0x0, symName: __ZNSt3__115allocate_sharedB8ne200100IN8facebook5react16ShadowNodeFamilyENS_9allocatorIS3_EEJRKNS2_24ShadowNodeFamilyFragmentERNS_10shared_ptrIKNS2_21RNSScreenEventEmitterEEERKNS_8weak_ptrIKNS2_15EventDispatcherEEERKNS2_27ConcreteComponentDescriptorINS2_24RNSModalScreenShadowNodeEEEELi0EEENS9_IT_EERKT0_DpOT1_, symObjAddr: 0x385C, symBinAddr: 0x13620, symSize: 0x78 }
  - { offset: 0x1AAF79, size: 0x8, addend: 0x0, symName: __ZNSt3__115allocate_sharedB8ne200100IKN8facebook5react14RNSScreenPropsENS_9allocatorIS3_EEJELi0EEENS_10shared_ptrIT_EERKT0_DpOT1_, symObjAddr: 0x2828, symBinAddr: 0x12CA8, symSize: 0x48 }
  - { offset: 0x1AB254, size: 0x8, addend: 0x0, symName: __ZNSt3__115allocate_sharedB8ne200100IN8facebook5react14RNSScreenPropsENS_9allocatorIS3_EEJRKNS2_18PropsParserContextERKS3_RKNS2_8RawPropsEELi0EEENS_10shared_ptrIT_EERKT0_DpOT1_, symObjAddr: 0x296C, symBinAddr: 0x12D94, symSize: 0x70 }
  - { offset: 0x1AC2C2, size: 0x8, addend: 0x0, symName: __ZNSt3__112construct_atB8ne200100IN8facebook5react13ConcreteStateINS2_14RNSScreenStateEEEJNS_10shared_ptrIKS4_EERKNS6_IKNS2_16ShadowNodeFamilyEEEEPS5_EEPT_SG_DpOT0_, symObjAddr: 0x2C98, symBinAddr: 0x12F90, symSize: 0xC8 }
  - { offset: 0x1ACA24, size: 0x8, addend: 0x0, symName: __ZNSt3__112construct_atB8ne200100IN8facebook5react13ConcreteStateINS2_14RNSScreenStateEEEJNS_10shared_ptrIKS4_EERKNS2_5StateEEPS5_EEPT_SE_DpOT0_, symObjAddr: 0x3018, symBinAddr: 0x13260, symSize: 0x88 }
  - { offset: 0x1AD07F, size: 0x8, addend: 0x0, symName: __ZNSt3__112construct_atB8ne200100IN8facebook5react21RNSScreenEventEmitterEJNS_10shared_ptrINS2_11EventTargetEEERKNS_8weak_ptrIKNS2_15EventDispatcherEEEEPS3_EEPT_SF_DpOT0_, symObjAddr: 0x3284, symBinAddr: 0x13474, symSize: 0x140 }
  - { offset: 0x1ADEBC, size: 0x8, addend: 0x0, symName: __ZNSt3__112construct_atB8ne200100IN8facebook5react16ShadowNodeFamilyEJRKNS2_24ShadowNodeFamilyFragmentERNS_10shared_ptrIKNS2_21RNSScreenEventEmitterEEERKNS_8weak_ptrIKNS2_15EventDispatcherEEERKNS2_27ConcreteComponentDescriptorINS2_24RNSModalScreenShadowNodeEEEEPS3_EEPT_SP_DpOT0_, symObjAddr: 0x3964, symBinAddr: 0x136E4, symSize: 0xDC }
  - { offset: 0x1B2D99, size: 0x8, addend: 0x0, symName: __ZN8facebook5react18ConcreteShadowNodeIXadL_ZNS0_27RNSModalScreenComponentNameEEENS0_24YogaLayoutableShadowNodeENS0_14RNSScreenPropsENS0_21RNSScreenEventEmitterENS0_14RNSScreenStateEE18defaultSharedPropsEv, symObjAddr: 0x2730, symBinAddr: 0x12BB0, symSize: 0x9C }
  - { offset: 0x1B2DB9, size: 0x8, addend: 0x0, symName: __ZZN8facebook5react18ConcreteShadowNodeIXadL_ZNS0_27RNSModalScreenComponentNameEEENS0_24YogaLayoutableShadowNodeENS0_14RNSScreenPropsENS0_21RNSScreenEventEmitterENS0_14RNSScreenStateEE18defaultSharedPropsEvE18defaultSharedProps, symObjAddr: 0x54A8, symBinAddr: 0x7CBD0, symSize: 0x0 }
  - { offset: 0x1B33FD, size: 0x8, addend: 0x0, symName: '-[RNSModalScreen traitCollectionDidChange:]', symObjAddr: 0x0, symBinAddr: 0x11978, symSize: 0x184 }
  - { offset: 0x1B35D1, size: 0x8, addend: 0x0, symName: '+[RNSModalScreen load]', symObjAddr: 0x184, symBinAddr: 0x11AFC, symSize: 0x34 }
  - { offset: 0x1B367D, size: 0x8, addend: 0x0, symName: '+[RNSModalScreen componentDescriptorProvider]', symObjAddr: 0x1B8, symBinAddr: 0x11B30, symSize: 0x20 }
  - { offset: 0x1B36B2, size: 0x8, addend: 0x0, symName: '+[RNSModalScreen componentDescriptorProvider]', symObjAddr: 0x1B8, symBinAddr: 0x11B30, symSize: 0x20 }
  - { offset: 0x1B3716, size: 0x8, addend: 0x0, symName: __Z17RNSModalScreenClsv, symObjAddr: 0x1D8, symBinAddr: 0x11B50, symSize: 0xC }
  - { offset: 0x1B3735, size: 0x8, addend: 0x0, symName: '+[RNSModalScreenManager moduleName]', symObjAddr: 0x1E4, symBinAddr: 0x11B5C, symSize: 0xC }
  - { offset: 0x1B3767, size: 0x8, addend: 0x0, symName: '+[RNSModalScreenManager load]', symObjAddr: 0x1F0, symBinAddr: 0x11B68, symSize: 0x4 }
  - { offset: 0x1B379B, size: 0x8, addend: 0x0, symName: '+[RNSModalScreenManager load]', symObjAddr: 0x1F0, symBinAddr: 0x11B68, symSize: 0x4 }
  - { offset: 0x1B3D29, size: 0x8, addend: 0x0, symName: __ZN8facebook5react14RawPropsParser7prepareINS0_14RNSScreenPropsEEEvv, symObjAddr: 0xB3C, symBinAddr: 0x12464, symSize: 0x1C8 }
  - { offset: 0x1B4694, size: 0x8, addend: 0x0, symName: __ZN8facebook5react33RNSModalScreenComponentDescriptorD1Ev, symObjAddr: 0x35C, symBinAddr: 0x11C84, symSize: 0x4 }
  - { offset: 0x1B46B8, size: 0x8, addend: 0x0, symName: __ZN8facebook5react33RNSModalScreenComponentDescriptorD1Ev, symObjAddr: 0x35C, symBinAddr: 0x11C84, symSize: 0x4 }
  - { offset: 0x1B46D5, size: 0x8, addend: 0x0, symName: __ZN8facebook5react33RNSModalScreenComponentDescriptorD1Ev, symObjAddr: 0x35C, symBinAddr: 0x11C84, symSize: 0x4 }
  - { offset: 0x1B46F4, size: 0x8, addend: 0x0, symName: __ZN8facebook5react33RNSModalScreenComponentDescriptorD1Ev, symObjAddr: 0x35C, symBinAddr: 0x11C84, symSize: 0x4 }
  - { offset: 0x1B49CE, size: 0x8, addend: 0x0, symName: __ZN8facebook5react33RNSModalScreenComponentDescriptorD0Ev, symObjAddr: 0x360, symBinAddr: 0x11C88, symSize: 0x14 }
  - { offset: 0x1B4A6A, size: 0x8, addend: 0x0, symName: __ZNK8facebook5react27ConcreteComponentDescriptorINS0_24RNSModalScreenShadowNodeEE18getComponentHandleEv, symObjAddr: 0x374, symBinAddr: 0x11C9C, symSize: 0xC }
  - { offset: 0x1B4A90, size: 0x8, addend: 0x0, symName: __ZNK8facebook5react27ConcreteComponentDescriptorINS0_24RNSModalScreenShadowNodeEE16getComponentNameEv, symObjAddr: 0x380, symBinAddr: 0x11CA8, symSize: 0xC }
  - { offset: 0x1B4AB6, size: 0x8, addend: 0x0, symName: __ZNK8facebook5react27ConcreteComponentDescriptorINS0_24RNSModalScreenShadowNodeEE9getTraitsEv, symObjAddr: 0x38C, symBinAddr: 0x11CB4, symSize: 0x8 }
  - { offset: 0x1B4BB7, size: 0x8, addend: 0x0, symName: __ZNK8facebook5react27ConcreteComponentDescriptorINS0_24RNSModalScreenShadowNodeEE16createShadowNodeERKNS0_18ShadowNodeFragmentERKNSt3__110shared_ptrIKNS0_16ShadowNodeFamilyEEE, symObjAddr: 0x394, symBinAddr: 0x11CBC, symSize: 0x90 }
  - { offset: 0x1B4EA8, size: 0x8, addend: 0x0, symName: __ZNK8facebook5react27ConcreteComponentDescriptorINS0_24RNSModalScreenShadowNodeEE15cloneShadowNodeERKNS0_10ShadowNodeERKNS0_18ShadowNodeFragmentE, symObjAddr: 0x424, symBinAddr: 0x11D4C, symSize: 0xFC }
  - { offset: 0x1B5227, size: 0x8, addend: 0x0, symName: __ZNK8facebook5react27ConcreteComponentDescriptorINS0_24RNSModalScreenShadowNodeEE11appendChildERKNSt3__110shared_ptrIKNS0_10ShadowNodeEEESA_, symObjAddr: 0x520, symBinAddr: 0x11E48, symSize: 0xC }
  - { offset: 0x1B527E, size: 0x8, addend: 0x0, symName: __ZNK8facebook5react27ConcreteComponentDescriptorINS0_24RNSModalScreenShadowNodeEE11appendChildERKNSt3__110shared_ptrIKNS0_10ShadowNodeEEESA_, symObjAddr: 0x520, symBinAddr: 0x11E48, symSize: 0xC }
  - { offset: 0x1B5B8F, size: 0x8, addend: 0x0, symName: __ZNK8facebook5react27ConcreteComponentDescriptorINS0_24RNSModalScreenShadowNodeEE10clonePropsERKNS0_18PropsParserContextERKNSt3__110shared_ptrIKNS0_5PropsEEENS0_8RawPropsE, symObjAddr: 0x52C, symBinAddr: 0x11E54, symSize: 0x21C }
  - { offset: 0x1B6741, size: 0x8, addend: 0x0, symName: __ZN8facebook5react18ConcreteShadowNodeIXadL_ZNS0_27RNSModalScreenComponentNameEEENS0_24YogaLayoutableShadowNodeENS0_14RNSScreenPropsENS0_21RNSScreenEventEmitterENS0_14RNSScreenStateEE5PropsERKNS0_18PropsParserContextERKNS0_8RawPropsERKNSt3__110shared_ptrIKNS0_5PropsEEE, symObjAddr: 0x27CC, symBinAddr: 0x12C4C, symSize: 0x58 }
  - { offset: 0x1B6CAF, size: 0x8, addend: 0x0, symName: __ZNK8facebook5react27ConcreteComponentDescriptorINS0_24RNSModalScreenShadowNodeEE18createInitialStateERKNSt3__110shared_ptrIKNS0_5PropsEEERKNS5_IKNS0_16ShadowNodeFamilyEEE, symObjAddr: 0x748, symBinAddr: 0x12070, symSize: 0xC4 }
  - { offset: 0x1B71BA, size: 0x8, addend: 0x0, symName: __ZNK8facebook5react27ConcreteComponentDescriptorINS0_24RNSModalScreenShadowNodeEE11createStateERKNS0_16ShadowNodeFamilyERKNSt3__110shared_ptrIKvEE, symObjAddr: 0x80C, symBinAddr: 0x12134, symSize: 0x104 }
  - { offset: 0x1B7810, size: 0x8, addend: 0x0, symName: __ZNK8facebook5react27ConcreteComponentDescriptorINS0_24RNSModalScreenShadowNodeEE12createFamilyERKNS0_24ShadowNodeFamilyFragmentE, symObjAddr: 0x910, symBinAddr: 0x12238, symSize: 0x168 }
  - { offset: 0x1B7E96, size: 0x8, addend: 0x0, symName: __ZNK8facebook5react33RNSModalScreenComponentDescriptor5adoptERNS0_10ShadowNodeE, symObjAddr: 0xA78, symBinAddr: 0x123A0, symSize: 0xC4 }
  - { offset: 0x1B8610, size: 0x8, addend: 0x0, symName: __ZN8facebook5react14RNSScreenPropsC1Ev, symObjAddr: 0xD30, symBinAddr: 0x12648, symSize: 0x164 }
  - { offset: 0x1B892C, size: 0x8, addend: 0x0, symName: __ZN8facebook5react14RNSScreenPropsD2Ev, symObjAddr: 0x1C8C, symBinAddr: 0x127D4, symSize: 0x88 }
  - { offset: 0x1B92C6, size: 0x8, addend: 0x0, symName: __ZN8facebook5react27ConcreteComponentDescriptorINS0_24RNSModalScreenShadowNodeEED1Ev, symObjAddr: 0xD04, symBinAddr: 0x1262C, symSize: 0x4 }
  - { offset: 0x1B92EA, size: 0x8, addend: 0x0, symName: __ZN8facebook5react27ConcreteComponentDescriptorINS0_24RNSModalScreenShadowNodeEED1Ev, symObjAddr: 0xD04, symBinAddr: 0x1262C, symSize: 0x4 }
  - { offset: 0x1B9308, size: 0x8, addend: 0x0, symName: __ZN8facebook5react27ConcreteComponentDescriptorINS0_24RNSModalScreenShadowNodeEED1Ev, symObjAddr: 0xD04, symBinAddr: 0x1262C, symSize: 0x4 }
  - { offset: 0x1B9337, size: 0x8, addend: 0x0, symName: __ZN8facebook5react27ConcreteComponentDescriptorINS0_24RNSModalScreenShadowNodeEED0Ev, symObjAddr: 0xD08, symBinAddr: 0x12630, symSize: 0x14 }
  - { offset: 0x1B93B5, size: 0x8, addend: 0x0, symName: __ZNK8facebook5react27ConcreteComponentDescriptorINS0_24RNSModalScreenShadowNodeEE5adoptERNS0_10ShadowNodeE, symObjAddr: 0xD1C, symBinAddr: 0x12644, symSize: 0x4 }
  - { offset: 0x1BAFCD, size: 0x8, addend: 0x0, symName: __ZN8facebook5react14RNSScreenPropsD1Ev, symObjAddr: 0xE94, symBinAddr: 0x127AC, symSize: 0xC }
  - { offset: 0x1BD8DE, size: 0x8, addend: 0x0, symName: __ZN8facebook5react14RNSScreenPropsD0Ev, symObjAddr: 0x13BC, symBinAddr: 0x127B8, symSize: 0x1C }
  - { offset: 0x1BF9AE, size: 0x8, addend: 0x0, symName: __ZNSt3__120__shared_ptr_emplaceIN8facebook5react24RNSModalScreenShadowNodeENS_9allocatorIS3_EEEC2B8ne200100IJRKNS2_18ShadowNodeFragmentERKNS_10shared_ptrIKNS2_16ShadowNodeFamilyEEENS2_16ShadowNodeTraitsEES5_Li0EEES5_DpOT_, symObjAddr: 0x203C, symBinAddr: 0x128CC, symSize: 0x78 }
  - { offset: 0x1BFDFC, size: 0x8, addend: 0x0, symName: __ZNSt3__120__shared_ptr_emplaceIN8facebook5react24RNSModalScreenShadowNodeENS_9allocatorIS3_EEED1Ev, symObjAddr: 0x20B4, symBinAddr: 0x12944, symSize: 0x14 }
  - { offset: 0x1BFE20, size: 0x8, addend: 0x0, symName: __ZNSt3__120__shared_ptr_emplaceIN8facebook5react24RNSModalScreenShadowNodeENS_9allocatorIS3_EEED1Ev, symObjAddr: 0x20B4, symBinAddr: 0x12944, symSize: 0x14 }
  - { offset: 0x1BFE56, size: 0x8, addend: 0x0, symName: __ZNSt3__120__shared_ptr_emplaceIN8facebook5react24RNSModalScreenShadowNodeENS_9allocatorIS3_EEED0Ev, symObjAddr: 0x20C8, symBinAddr: 0x12958, symSize: 0x24 }
  - { offset: 0x1BFF29, size: 0x8, addend: 0x0, symName: __ZNSt3__120__shared_ptr_emplaceIN8facebook5react24RNSModalScreenShadowNodeENS_9allocatorIS3_EEE16__on_zero_sharedEv, symObjAddr: 0x20EC, symBinAddr: 0x1297C, symSize: 0x8 }
  - { offset: 0x1BFF52, size: 0x8, addend: 0x0, symName: __ZNSt3__120__shared_ptr_emplaceIN8facebook5react24RNSModalScreenShadowNodeENS_9allocatorIS3_EEE16__on_zero_sharedEv, symObjAddr: 0x20EC, symBinAddr: 0x1297C, symSize: 0x8 }
  - { offset: 0x1BFF71, size: 0x8, addend: 0x0, symName: __ZNSt3__120__shared_ptr_emplaceIN8facebook5react24RNSModalScreenShadowNodeENS_9allocatorIS3_EEE16__on_zero_sharedEv, symObjAddr: 0x20EC, symBinAddr: 0x1297C, symSize: 0x8 }
  - { offset: 0x1BFFB0, size: 0x8, addend: 0x0, symName: __ZNSt3__120__shared_ptr_emplaceIN8facebook5react24RNSModalScreenShadowNodeENS_9allocatorIS3_EEE21__on_zero_shared_weakEv, symObjAddr: 0x20F4, symBinAddr: 0x12984, symSize: 0x4 }
  - { offset: 0x1BFFE4, size: 0x8, addend: 0x0, symName: __ZNSt3__120__shared_ptr_emplaceIN8facebook5react24RNSModalScreenShadowNodeENS_9allocatorIS3_EEE21__on_zero_shared_weakEv, symObjAddr: 0x20F4, symBinAddr: 0x12984, symSize: 0x4 }
  - { offset: 0x1C0008, size: 0x8, addend: 0x0, symName: __ZNSt3__120__shared_ptr_emplaceIN8facebook5react24RNSModalScreenShadowNodeENS_9allocatorIS3_EEE21__on_zero_shared_weakEv, symObjAddr: 0x20F4, symBinAddr: 0x12984, symSize: 0x4 }
  - { offset: 0x1C002D, size: 0x8, addend: 0x0, symName: __ZNSt3__120__shared_ptr_emplaceIN8facebook5react24RNSModalScreenShadowNodeENS_9allocatorIS3_EEE21__on_zero_shared_weakEv, symObjAddr: 0x20F4, symBinAddr: 0x12984, symSize: 0x4 }
  - { offset: 0x1C0065, size: 0x8, addend: 0x0, symName: __ZNSt3__120__shared_ptr_emplaceIN8facebook5react24RNSModalScreenShadowNodeENS_9allocatorIS3_EEE21__on_zero_shared_weakEv, symObjAddr: 0x20F4, symBinAddr: 0x12984, symSize: 0x4 }
  - { offset: 0x1C0362, size: 0x8, addend: 0x0, symName: __ZN8facebook5react22ConcreteViewShadowNodeIXadL_ZNS0_27RNSModalScreenComponentNameEEENS0_14RNSScreenPropsENS0_21RNSScreenEventEmitterENS0_14RNSScreenStateEED1Ev, symObjAddr: 0x2164, symBinAddr: 0x12988, symSize: 0x70 }
  - { offset: 0x1C0900, size: 0x8, addend: 0x0, symName: __ZN8facebook5react22ConcreteViewShadowNodeIXadL_ZNS0_27RNSModalScreenComponentNameEEENS0_14RNSScreenPropsENS0_21RNSScreenEventEmitterENS0_14RNSScreenStateEED0Ev, symObjAddr: 0x21D4, symBinAddr: 0x129F8, symSize: 0x74 }
  - { offset: 0x1C0D14, size: 0x8, addend: 0x0, symName: __ZNK8facebook5react22ConcreteViewShadowNodeIXadL_ZNS0_27RNSModalScreenComponentNameEEENS0_14RNSScreenPropsENS0_21RNSScreenEventEmitterENS0_14RNSScreenStateEE12getTransformEv, symObjAddr: 0x2248, symBinAddr: 0x12A6C, symSize: 0x40 }
  - { offset: 0x1C0D87, size: 0x8, addend: 0x0, symName: __ZNK8facebook5react22ConcreteViewShadowNodeIXadL_ZNS0_27RNSModalScreenComponentNameEEENS0_14RNSScreenPropsENS0_21RNSScreenEventEmitterENS0_14RNSScreenStateEE16canBeTouchTargetEv, symObjAddr: 0x2288, symBinAddr: 0x12AAC, symSize: 0x18 }
  - { offset: 0x1C0DC0, size: 0x8, addend: 0x0, symName: __ZNK8facebook5react22ConcreteViewShadowNodeIXadL_ZNS0_27RNSModalScreenComponentNameEEENS0_14RNSScreenPropsENS0_21RNSScreenEventEmitterENS0_14RNSScreenStateEE16canBeTouchTargetEv, symObjAddr: 0x2288, symBinAddr: 0x12AAC, symSize: 0x18 }
  - { offset: 0x1C0DDD, size: 0x8, addend: 0x0, symName: __ZNK8facebook5react22ConcreteViewShadowNodeIXadL_ZNS0_27RNSModalScreenComponentNameEEENS0_14RNSScreenPropsENS0_21RNSScreenEventEmitterENS0_14RNSScreenStateEE16canBeTouchTargetEv, symObjAddr: 0x2288, symBinAddr: 0x12AAC, symSize: 0x18 }
  - { offset: 0x1C0DFB, size: 0x8, addend: 0x0, symName: __ZNK8facebook5react22ConcreteViewShadowNodeIXadL_ZNS0_27RNSModalScreenComponentNameEEENS0_14RNSScreenPropsENS0_21RNSScreenEventEmitterENS0_14RNSScreenStateEE24canChildrenBeTouchTargetEv, symObjAddr: 0x22A0, symBinAddr: 0x12AC4, symSize: 0x18 }
  - { offset: 0x1C0E30, size: 0x8, addend: 0x0, symName: __ZNK8facebook5react22ConcreteViewShadowNodeIXadL_ZNS0_27RNSModalScreenComponentNameEEENS0_14RNSScreenPropsENS0_21RNSScreenEventEmitterENS0_14RNSScreenStateEE24canChildrenBeTouchTargetEv, symObjAddr: 0x22A0, symBinAddr: 0x12AC4, symSize: 0x18 }
  - { offset: 0x1C0E4D, size: 0x8, addend: 0x0, symName: __ZNK8facebook5react22ConcreteViewShadowNodeIXadL_ZNS0_27RNSModalScreenComponentNameEEENS0_14RNSScreenPropsENS0_21RNSScreenEventEmitterENS0_14RNSScreenStateEE24canChildrenBeTouchTargetEv, symObjAddr: 0x22A0, symBinAddr: 0x12AC4, symSize: 0x18 }
  - { offset: 0x1C1212, size: 0x8, addend: 0x0, symName: __ZNSt3__120__shared_ptr_emplaceIN8facebook5react24RNSModalScreenShadowNodeENS_9allocatorIS3_EEEC2B8ne200100IJRKNS2_10ShadowNodeERKNS2_18ShadowNodeFragmentEES5_Li0EEES5_DpOT_, symObjAddr: 0x2664, symBinAddr: 0x12B3C, symSize: 0x74 }
  - { offset: 0x1C1521, size: 0x8, addend: 0x0, symName: __ZNSt3__110shared_ptrIKN8facebook5react14RNSScreenPropsEED1B8ne200100Ev, symObjAddr: 0x2824, symBinAddr: 0x12CA4, symSize: 0x4 }
  - { offset: 0x1C154D, size: 0x8, addend: 0x0, symName: __ZNSt3__110shared_ptrIKN8facebook5react14RNSScreenPropsEED1B8ne200100Ev, symObjAddr: 0x2824, symBinAddr: 0x12CA4, symSize: 0x4 }
  - { offset: 0x1C17EB, size: 0x8, addend: 0x0, symName: __ZNSt3__120__shared_ptr_emplaceIKN8facebook5react14RNSScreenPropsENS_9allocatorIS3_EEEC2B8ne200100IJES6_Li0EEES6_DpOT_, symObjAddr: 0x2870, symBinAddr: 0x12CF0, symSize: 0x58 }
  - { offset: 0x1C1945, size: 0x8, addend: 0x0, symName: __ZNSt3__120__shared_ptr_emplaceIKN8facebook5react14RNSScreenPropsENS_9allocatorIS3_EEED1Ev, symObjAddr: 0x28C8, symBinAddr: 0x12D48, symSize: 0x14 }
  - { offset: 0x1C1969, size: 0x8, addend: 0x0, symName: __ZNSt3__120__shared_ptr_emplaceIKN8facebook5react14RNSScreenPropsENS_9allocatorIS3_EEED1Ev, symObjAddr: 0x28C8, symBinAddr: 0x12D48, symSize: 0x14 }
  - { offset: 0x1C199F, size: 0x8, addend: 0x0, symName: __ZNSt3__120__shared_ptr_emplaceIKN8facebook5react14RNSScreenPropsENS_9allocatorIS3_EEED0Ev, symObjAddr: 0x28DC, symBinAddr: 0x12D5C, symSize: 0x24 }
  - { offset: 0x1C1A72, size: 0x8, addend: 0x0, symName: __ZNSt3__120__shared_ptr_emplaceIKN8facebook5react14RNSScreenPropsENS_9allocatorIS3_EEE16__on_zero_sharedEv, symObjAddr: 0x2900, symBinAddr: 0x12D80, symSize: 0x10 }
  - { offset: 0x1C1A9B, size: 0x8, addend: 0x0, symName: __ZNSt3__120__shared_ptr_emplaceIKN8facebook5react14RNSScreenPropsENS_9allocatorIS3_EEE16__on_zero_sharedEv, symObjAddr: 0x2900, symBinAddr: 0x12D80, symSize: 0x10 }
  - { offset: 0x1C1B0F, size: 0x8, addend: 0x0, symName: __ZNSt3__120__shared_ptr_emplaceIKN8facebook5react14RNSScreenPropsENS_9allocatorIS3_EEE21__on_zero_shared_weakEv, symObjAddr: 0x2910, symBinAddr: 0x12D90, symSize: 0x4 }
  - { offset: 0x1C1B43, size: 0x8, addend: 0x0, symName: __ZNSt3__120__shared_ptr_emplaceIKN8facebook5react14RNSScreenPropsENS_9allocatorIS3_EEE21__on_zero_shared_weakEv, symObjAddr: 0x2910, symBinAddr: 0x12D90, symSize: 0x4 }
  - { offset: 0x1C1B67, size: 0x8, addend: 0x0, symName: __ZNSt3__120__shared_ptr_emplaceIKN8facebook5react14RNSScreenPropsENS_9allocatorIS3_EEE21__on_zero_shared_weakEv, symObjAddr: 0x2910, symBinAddr: 0x12D90, symSize: 0x4 }
  - { offset: 0x1C1B8C, size: 0x8, addend: 0x0, symName: __ZNSt3__120__shared_ptr_emplaceIKN8facebook5react14RNSScreenPropsENS_9allocatorIS3_EEE21__on_zero_shared_weakEv, symObjAddr: 0x2910, symBinAddr: 0x12D90, symSize: 0x4 }
  - { offset: 0x1C1BC4, size: 0x8, addend: 0x0, symName: __ZNSt3__120__shared_ptr_emplaceIKN8facebook5react14RNSScreenPropsENS_9allocatorIS3_EEE21__on_zero_shared_weakEv, symObjAddr: 0x2910, symBinAddr: 0x12D90, symSize: 0x4 }
  - { offset: 0x1C1E54, size: 0x8, addend: 0x0, symName: __ZNSt3__120__shared_ptr_emplaceIN8facebook5react14RNSScreenPropsENS_9allocatorIS3_EEEC2B8ne200100IJRKNS2_18PropsParserContextERKS3_RKNS2_8RawPropsEES5_Li0EEES5_DpOT_, symObjAddr: 0x29DC, symBinAddr: 0x12E04, symSize: 0x4C }
  - { offset: 0x1C204F, size: 0x8, addend: 0x0, symName: __ZNSt3__120__shared_ptr_emplaceIN8facebook5react14RNSScreenPropsENS_9allocatorIS3_EEED1Ev, symObjAddr: 0x2A28, symBinAddr: 0x12E50, symSize: 0x14 }
  - { offset: 0x1C2073, size: 0x8, addend: 0x0, symName: __ZNSt3__120__shared_ptr_emplaceIN8facebook5react14RNSScreenPropsENS_9allocatorIS3_EEED1Ev, symObjAddr: 0x2A28, symBinAddr: 0x12E50, symSize: 0x14 }
  - { offset: 0x1C20A9, size: 0x8, addend: 0x0, symName: __ZNSt3__120__shared_ptr_emplaceIN8facebook5react14RNSScreenPropsENS_9allocatorIS3_EEED0Ev, symObjAddr: 0x2A3C, symBinAddr: 0x12E64, symSize: 0x24 }
  - { offset: 0x1C214C, size: 0x8, addend: 0x0, symName: __ZNSt3__120__shared_ptr_emplaceIN8facebook5react14RNSScreenPropsENS_9allocatorIS3_EEE16__on_zero_sharedEv, symObjAddr: 0x2A60, symBinAddr: 0x12E88, symSize: 0x10 }
  - { offset: 0x1C2175, size: 0x8, addend: 0x0, symName: __ZNSt3__120__shared_ptr_emplaceIN8facebook5react14RNSScreenPropsENS_9allocatorIS3_EEE16__on_zero_sharedEv, symObjAddr: 0x2A60, symBinAddr: 0x12E88, symSize: 0x10 }
  - { offset: 0x1C21E9, size: 0x8, addend: 0x0, symName: __ZNSt3__120__shared_ptr_emplaceIN8facebook5react14RNSScreenPropsENS_9allocatorIS3_EEE21__on_zero_shared_weakEv, symObjAddr: 0x2A70, symBinAddr: 0x12E98, symSize: 0x4 }
  - { offset: 0x1C221D, size: 0x8, addend: 0x0, symName: __ZNSt3__120__shared_ptr_emplaceIN8facebook5react14RNSScreenPropsENS_9allocatorIS3_EEE21__on_zero_shared_weakEv, symObjAddr: 0x2A70, symBinAddr: 0x12E98, symSize: 0x4 }
  - { offset: 0x1C2241, size: 0x8, addend: 0x0, symName: __ZNSt3__120__shared_ptr_emplaceIN8facebook5react14RNSScreenPropsENS_9allocatorIS3_EEE21__on_zero_shared_weakEv, symObjAddr: 0x2A70, symBinAddr: 0x12E98, symSize: 0x4 }
  - { offset: 0x1C2266, size: 0x8, addend: 0x0, symName: __ZNSt3__120__shared_ptr_emplaceIN8facebook5react14RNSScreenPropsENS_9allocatorIS3_EEE21__on_zero_shared_weakEv, symObjAddr: 0x2A70, symBinAddr: 0x12E98, symSize: 0x4 }
  - { offset: 0x1C229E, size: 0x8, addend: 0x0, symName: __ZNSt3__120__shared_ptr_emplaceIN8facebook5react14RNSScreenPropsENS_9allocatorIS3_EEE21__on_zero_shared_weakEv, symObjAddr: 0x2A70, symBinAddr: 0x12E98, symSize: 0x4 }
  - { offset: 0x1C25B2, size: 0x8, addend: 0x0, symName: __ZNSt3__120__shared_ptr_emplaceIN8facebook5react13ConcreteStateINS2_14RNSScreenStateEEENS_9allocatorIS5_EEEC2B8ne200100IJNS_10shared_ptrIKS4_EERKNSA_IKNS2_16ShadowNodeFamilyEEEES7_Li0EEES7_DpOT_, symObjAddr: 0x2C04, symBinAddr: 0x12EFC, symSize: 0x4C }
  - { offset: 0x1C276B, size: 0x8, addend: 0x0, symName: __ZNSt3__120__shared_ptr_emplaceIN8facebook5react13ConcreteStateINS2_14RNSScreenStateEEENS_9allocatorIS5_EEED1Ev, symObjAddr: 0x2C50, symBinAddr: 0x12F48, symSize: 0x14 }
  - { offset: 0x1C278F, size: 0x8, addend: 0x0, symName: __ZNSt3__120__shared_ptr_emplaceIN8facebook5react13ConcreteStateINS2_14RNSScreenStateEEENS_9allocatorIS5_EEED1Ev, symObjAddr: 0x2C50, symBinAddr: 0x12F48, symSize: 0x14 }
  - { offset: 0x1C27C5, size: 0x8, addend: 0x0, symName: __ZNSt3__120__shared_ptr_emplaceIN8facebook5react13ConcreteStateINS2_14RNSScreenStateEEENS_9allocatorIS5_EEED0Ev, symObjAddr: 0x2C64, symBinAddr: 0x12F5C, symSize: 0x24 }
  - { offset: 0x1C2898, size: 0x8, addend: 0x0, symName: __ZNSt3__120__shared_ptr_emplaceIN8facebook5react13ConcreteStateINS2_14RNSScreenStateEEENS_9allocatorIS5_EEE16__on_zero_sharedEv, symObjAddr: 0x2C88, symBinAddr: 0x12F80, symSize: 0xC }
  - { offset: 0x1C28C1, size: 0x8, addend: 0x0, symName: __ZNSt3__120__shared_ptr_emplaceIN8facebook5react13ConcreteStateINS2_14RNSScreenStateEEENS_9allocatorIS5_EEE16__on_zero_sharedEv, symObjAddr: 0x2C88, symBinAddr: 0x12F80, symSize: 0xC }
  - { offset: 0x1C28E0, size: 0x8, addend: 0x0, symName: __ZNSt3__120__shared_ptr_emplaceIN8facebook5react13ConcreteStateINS2_14RNSScreenStateEEENS_9allocatorIS5_EEE16__on_zero_sharedEv, symObjAddr: 0x2C88, symBinAddr: 0x12F80, symSize: 0xC }
  - { offset: 0x1C28FF, size: 0x8, addend: 0x0, symName: __ZNSt3__120__shared_ptr_emplaceIN8facebook5react13ConcreteStateINS2_14RNSScreenStateEEENS_9allocatorIS5_EEE16__on_zero_sharedEv, symObjAddr: 0x2C88, symBinAddr: 0x12F80, symSize: 0xC }
  - { offset: 0x1C292B, size: 0x8, addend: 0x0, symName: __ZNSt3__120__shared_ptr_emplaceIN8facebook5react13ConcreteStateINS2_14RNSScreenStateEEENS_9allocatorIS5_EEE21__on_zero_shared_weakEv, symObjAddr: 0x2C94, symBinAddr: 0x12F8C, symSize: 0x4 }
  - { offset: 0x1C295F, size: 0x8, addend: 0x0, symName: __ZNSt3__120__shared_ptr_emplaceIN8facebook5react13ConcreteStateINS2_14RNSScreenStateEEENS_9allocatorIS5_EEE21__on_zero_shared_weakEv, symObjAddr: 0x2C94, symBinAddr: 0x12F8C, symSize: 0x4 }
  - { offset: 0x1C2983, size: 0x8, addend: 0x0, symName: __ZNSt3__120__shared_ptr_emplaceIN8facebook5react13ConcreteStateINS2_14RNSScreenStateEEENS_9allocatorIS5_EEE21__on_zero_shared_weakEv, symObjAddr: 0x2C94, symBinAddr: 0x12F8C, symSize: 0x4 }
  - { offset: 0x1C29A8, size: 0x8, addend: 0x0, symName: __ZNSt3__120__shared_ptr_emplaceIN8facebook5react13ConcreteStateINS2_14RNSScreenStateEEENS_9allocatorIS5_EEE21__on_zero_shared_weakEv, symObjAddr: 0x2C94, symBinAddr: 0x12F8C, symSize: 0x4 }
  - { offset: 0x1C29DF, size: 0x8, addend: 0x0, symName: __ZNSt3__120__shared_ptr_emplaceIN8facebook5react13ConcreteStateINS2_14RNSScreenStateEEENS_9allocatorIS5_EEE21__on_zero_shared_weakEv, symObjAddr: 0x2C94, symBinAddr: 0x12F8C, symSize: 0x4 }
  - { offset: 0x1C2AF2, size: 0x8, addend: 0x0, symName: __ZN8facebook5react13ConcreteStateINS0_14RNSScreenStateEEC2ENSt3__110shared_ptrIKS2_EENS4_8weak_ptrIKNS0_16ShadowNodeFamilyEEE, symObjAddr: 0x2D60, symBinAddr: 0x13058, symSize: 0xBC }
  - { offset: 0x1C2E06, size: 0x8, addend: 0x0, symName: __ZN8facebook5react13ConcreteStateINS0_14RNSScreenStateEED1Ev, symObjAddr: 0x2E1C, symBinAddr: 0x13114, symSize: 0x4 }
  - { offset: 0x1C2E2A, size: 0x8, addend: 0x0, symName: __ZN8facebook5react13ConcreteStateINS0_14RNSScreenStateEED1Ev, symObjAddr: 0x2E1C, symBinAddr: 0x13114, symSize: 0x4 }
  - { offset: 0x1C2E48, size: 0x8, addend: 0x0, symName: __ZN8facebook5react13ConcreteStateINS0_14RNSScreenStateEED1Ev, symObjAddr: 0x2E1C, symBinAddr: 0x13114, symSize: 0x4 }
  - { offset: 0x1C2EC5, size: 0x8, addend: 0x0, symName: __ZN8facebook5react13ConcreteStateINS0_14RNSScreenStateEED0Ev, symObjAddr: 0x2E20, symBinAddr: 0x13118, symSize: 0x14 }
  - { offset: 0x1C2F61, size: 0x8, addend: 0x0, symName: __ZNSt3__120__shared_ptr_emplaceIKN8facebook5react14RNSScreenStateENS_9allocatorIS3_EEED1Ev, symObjAddr: 0x2E8C, symBinAddr: 0x1312C, symSize: 0x14 }
  - { offset: 0x1C2F85, size: 0x8, addend: 0x0, symName: __ZNSt3__120__shared_ptr_emplaceIKN8facebook5react14RNSScreenStateENS_9allocatorIS3_EEED1Ev, symObjAddr: 0x2E8C, symBinAddr: 0x1312C, symSize: 0x14 }
  - { offset: 0x1C2FBB, size: 0x8, addend: 0x0, symName: __ZNSt3__120__shared_ptr_emplaceIKN8facebook5react14RNSScreenStateENS_9allocatorIS3_EEED0Ev, symObjAddr: 0x2EA0, symBinAddr: 0x13140, symSize: 0x24 }
  - { offset: 0x1C3022, size: 0x8, addend: 0x0, symName: __ZNSt3__120__shared_ptr_emplaceIKN8facebook5react14RNSScreenStateENS_9allocatorIS3_EEE16__on_zero_sharedEv, symObjAddr: 0x2EC4, symBinAddr: 0x13164, symSize: 0x4 }
  - { offset: 0x1C30A8, size: 0x8, addend: 0x0, symName: __ZNSt3__120__shared_ptr_emplaceIKN8facebook5react14RNSScreenStateENS_9allocatorIS3_EEE21__on_zero_shared_weakEv, symObjAddr: 0x2EC8, symBinAddr: 0x13168, symSize: 0x4 }
  - { offset: 0x1C30DC, size: 0x8, addend: 0x0, symName: __ZNSt3__120__shared_ptr_emplaceIKN8facebook5react14RNSScreenStateENS_9allocatorIS3_EEE21__on_zero_shared_weakEv, symObjAddr: 0x2EC8, symBinAddr: 0x13168, symSize: 0x4 }
  - { offset: 0x1C3100, size: 0x8, addend: 0x0, symName: __ZNSt3__120__shared_ptr_emplaceIKN8facebook5react14RNSScreenStateENS_9allocatorIS3_EEE21__on_zero_shared_weakEv, symObjAddr: 0x2EC8, symBinAddr: 0x13168, symSize: 0x4 }
  - { offset: 0x1C3125, size: 0x8, addend: 0x0, symName: __ZNSt3__120__shared_ptr_emplaceIKN8facebook5react14RNSScreenStateENS_9allocatorIS3_EEE21__on_zero_shared_weakEv, symObjAddr: 0x2EC8, symBinAddr: 0x13168, symSize: 0x4 }
  - { offset: 0x1C315C, size: 0x8, addend: 0x0, symName: __ZNSt3__120__shared_ptr_emplaceIKN8facebook5react14RNSScreenStateENS_9allocatorIS3_EEE21__on_zero_shared_weakEv, symObjAddr: 0x2EC8, symBinAddr: 0x13168, symSize: 0x4 }
  - { offset: 0x1C33DA, size: 0x8, addend: 0x0, symName: __ZNSt3__120__shared_ptr_emplaceIKN8facebook5react13ConcreteStateINS2_14RNSScreenStateEEENS_9allocatorIS5_EEEC2B8ne200100IJNS_10shared_ptrIKS4_EERKNS2_5StateEES8_Li0EEES8_DpOT_, symObjAddr: 0x2F84, symBinAddr: 0x131CC, symSize: 0x4C }
  - { offset: 0x1C358D, size: 0x8, addend: 0x0, symName: __ZNSt3__120__shared_ptr_emplaceIKN8facebook5react13ConcreteStateINS2_14RNSScreenStateEEENS_9allocatorIS5_EEED1Ev, symObjAddr: 0x2FD0, symBinAddr: 0x13218, symSize: 0x14 }
  - { offset: 0x1C35B1, size: 0x8, addend: 0x0, symName: __ZNSt3__120__shared_ptr_emplaceIKN8facebook5react13ConcreteStateINS2_14RNSScreenStateEEENS_9allocatorIS5_EEED1Ev, symObjAddr: 0x2FD0, symBinAddr: 0x13218, symSize: 0x14 }
  - { offset: 0x1C35E7, size: 0x8, addend: 0x0, symName: __ZNSt3__120__shared_ptr_emplaceIKN8facebook5react13ConcreteStateINS2_14RNSScreenStateEEENS_9allocatorIS5_EEED0Ev, symObjAddr: 0x2FE4, symBinAddr: 0x1322C, symSize: 0x24 }
  - { offset: 0x1C368A, size: 0x8, addend: 0x0, symName: __ZNSt3__120__shared_ptr_emplaceIKN8facebook5react13ConcreteStateINS2_14RNSScreenStateEEENS_9allocatorIS5_EEE16__on_zero_sharedEv, symObjAddr: 0x3008, symBinAddr: 0x13250, symSize: 0xC }
  - { offset: 0x1C36B3, size: 0x8, addend: 0x0, symName: __ZNSt3__120__shared_ptr_emplaceIKN8facebook5react13ConcreteStateINS2_14RNSScreenStateEEENS_9allocatorIS5_EEE16__on_zero_sharedEv, symObjAddr: 0x3008, symBinAddr: 0x13250, symSize: 0xC }
  - { offset: 0x1C36D2, size: 0x8, addend: 0x0, symName: __ZNSt3__120__shared_ptr_emplaceIKN8facebook5react13ConcreteStateINS2_14RNSScreenStateEEENS_9allocatorIS5_EEE16__on_zero_sharedEv, symObjAddr: 0x3008, symBinAddr: 0x13250, symSize: 0xC }
  - { offset: 0x1C36F1, size: 0x8, addend: 0x0, symName: __ZNSt3__120__shared_ptr_emplaceIKN8facebook5react13ConcreteStateINS2_14RNSScreenStateEEENS_9allocatorIS5_EEE16__on_zero_sharedEv, symObjAddr: 0x3008, symBinAddr: 0x13250, symSize: 0xC }
  - { offset: 0x1C371D, size: 0x8, addend: 0x0, symName: __ZNSt3__120__shared_ptr_emplaceIKN8facebook5react13ConcreteStateINS2_14RNSScreenStateEEENS_9allocatorIS5_EEE21__on_zero_shared_weakEv, symObjAddr: 0x3014, symBinAddr: 0x1325C, symSize: 0x4 }
  - { offset: 0x1C3751, size: 0x8, addend: 0x0, symName: __ZNSt3__120__shared_ptr_emplaceIKN8facebook5react13ConcreteStateINS2_14RNSScreenStateEEENS_9allocatorIS5_EEE21__on_zero_shared_weakEv, symObjAddr: 0x3014, symBinAddr: 0x1325C, symSize: 0x4 }
  - { offset: 0x1C3775, size: 0x8, addend: 0x0, symName: __ZNSt3__120__shared_ptr_emplaceIKN8facebook5react13ConcreteStateINS2_14RNSScreenStateEEENS_9allocatorIS5_EEE21__on_zero_shared_weakEv, symObjAddr: 0x3014, symBinAddr: 0x1325C, symSize: 0x4 }
  - { offset: 0x1C379A, size: 0x8, addend: 0x0, symName: __ZNSt3__120__shared_ptr_emplaceIKN8facebook5react13ConcreteStateINS2_14RNSScreenStateEEENS_9allocatorIS5_EEE21__on_zero_shared_weakEv, symObjAddr: 0x3014, symBinAddr: 0x1325C, symSize: 0x4 }
  - { offset: 0x1C37D1, size: 0x8, addend: 0x0, symName: __ZNSt3__120__shared_ptr_emplaceIKN8facebook5react13ConcreteStateINS2_14RNSScreenStateEEENS_9allocatorIS5_EEE21__on_zero_shared_weakEv, symObjAddr: 0x3014, symBinAddr: 0x1325C, symSize: 0x4 }
  - { offset: 0x1C382C, size: 0x8, addend: 0x0, symName: __ZN8facebook5react13ConcreteStateINS0_14RNSScreenStateEEC2ENSt3__110shared_ptrIKS2_EERKNS0_5StateE, symObjAddr: 0x30A0, symBinAddr: 0x132E8, symSize: 0x98 }
  - { offset: 0x1C3BF5, size: 0x8, addend: 0x0, symName: __ZNSt3__120__shared_ptr_emplaceIKN8facebook5react21RNSScreenEventEmitterENS_9allocatorIS3_EEEC2B8ne200100IJNS_10shared_ptrINS2_11EventTargetEEERKNS_8weak_ptrIKNS2_15EventDispatcherEEEES6_Li0EEES6_DpOT_, symObjAddr: 0x31F0, symBinAddr: 0x133E0, symSize: 0x4C }
  - { offset: 0x1C3DAE, size: 0x8, addend: 0x0, symName: __ZNSt3__120__shared_ptr_emplaceIKN8facebook5react21RNSScreenEventEmitterENS_9allocatorIS3_EEED1Ev, symObjAddr: 0x323C, symBinAddr: 0x1342C, symSize: 0x14 }
  - { offset: 0x1C3DD2, size: 0x8, addend: 0x0, symName: __ZNSt3__120__shared_ptr_emplaceIKN8facebook5react21RNSScreenEventEmitterENS_9allocatorIS3_EEED1Ev, symObjAddr: 0x323C, symBinAddr: 0x1342C, symSize: 0x14 }
  - { offset: 0x1C3E08, size: 0x8, addend: 0x0, symName: __ZNSt3__120__shared_ptr_emplaceIKN8facebook5react21RNSScreenEventEmitterENS_9allocatorIS3_EEED0Ev, symObjAddr: 0x3250, symBinAddr: 0x13440, symSize: 0x24 }
  - { offset: 0x1C3EDB, size: 0x8, addend: 0x0, symName: __ZNSt3__120__shared_ptr_emplaceIKN8facebook5react21RNSScreenEventEmitterENS_9allocatorIS3_EEE16__on_zero_sharedEv, symObjAddr: 0x3274, symBinAddr: 0x13464, symSize: 0xC }
  - { offset: 0x1C3F04, size: 0x8, addend: 0x0, symName: __ZNSt3__120__shared_ptr_emplaceIKN8facebook5react21RNSScreenEventEmitterENS_9allocatorIS3_EEE16__on_zero_sharedEv, symObjAddr: 0x3274, symBinAddr: 0x13464, symSize: 0xC }
  - { offset: 0x1C3F23, size: 0x8, addend: 0x0, symName: __ZNSt3__120__shared_ptr_emplaceIKN8facebook5react21RNSScreenEventEmitterENS_9allocatorIS3_EEE16__on_zero_sharedEv, symObjAddr: 0x3274, symBinAddr: 0x13464, symSize: 0xC }
  - { offset: 0x1C3F42, size: 0x8, addend: 0x0, symName: __ZNSt3__120__shared_ptr_emplaceIKN8facebook5react21RNSScreenEventEmitterENS_9allocatorIS3_EEE16__on_zero_sharedEv, symObjAddr: 0x3274, symBinAddr: 0x13464, symSize: 0xC }
  - { offset: 0x1C3F6E, size: 0x8, addend: 0x0, symName: __ZNSt3__120__shared_ptr_emplaceIKN8facebook5react21RNSScreenEventEmitterENS_9allocatorIS3_EEE21__on_zero_shared_weakEv, symObjAddr: 0x3280, symBinAddr: 0x13470, symSize: 0x4 }
  - { offset: 0x1C3FA2, size: 0x8, addend: 0x0, symName: __ZNSt3__120__shared_ptr_emplaceIKN8facebook5react21RNSScreenEventEmitterENS_9allocatorIS3_EEE21__on_zero_shared_weakEv, symObjAddr: 0x3280, symBinAddr: 0x13470, symSize: 0x4 }
  - { offset: 0x1C3FC6, size: 0x8, addend: 0x0, symName: __ZNSt3__120__shared_ptr_emplaceIKN8facebook5react21RNSScreenEventEmitterENS_9allocatorIS3_EEE21__on_zero_shared_weakEv, symObjAddr: 0x3280, symBinAddr: 0x13470, symSize: 0x4 }
  - { offset: 0x1C3FEB, size: 0x8, addend: 0x0, symName: __ZNSt3__120__shared_ptr_emplaceIKN8facebook5react21RNSScreenEventEmitterENS_9allocatorIS3_EEE21__on_zero_shared_weakEv, symObjAddr: 0x3280, symBinAddr: 0x13470, symSize: 0x4 }
  - { offset: 0x1C4022, size: 0x8, addend: 0x0, symName: __ZNSt3__120__shared_ptr_emplaceIKN8facebook5react21RNSScreenEventEmitterENS_9allocatorIS3_EEE21__on_zero_shared_weakEv, symObjAddr: 0x3280, symBinAddr: 0x13470, symSize: 0x4 }
  - { offset: 0x1C457B, size: 0x8, addend: 0x0, symName: __ZN8facebook5react21RNSScreenEventEmitterD1Ev, symObjAddr: 0x33C4, symBinAddr: 0x135B4, symSize: 0x34 }
  - { offset: 0x1C46AE, size: 0x8, addend: 0x0, symName: __ZN8facebook5react21RNSScreenEventEmitterD0Ev, symObjAddr: 0x33F8, symBinAddr: 0x135E8, symSize: 0x38 }
  - { offset: 0x1C4E59, size: 0x8, addend: 0x0, symName: __ZNSt3__120__shared_ptr_emplaceIN8facebook5react16ShadowNodeFamilyENS_9allocatorIS3_EEEC2B8ne200100IJRKNS2_24ShadowNodeFamilyFragmentERNS_10shared_ptrIKNS2_21RNSScreenEventEmitterEEERKNS_8weak_ptrIKNS2_15EventDispatcherEEERKNS2_27ConcreteComponentDescriptorINS2_24RNSModalScreenShadowNodeEEEES5_Li0EEES5_DpOT_, symObjAddr: 0x38D4, symBinAddr: 0x13698, symSize: 0x4C }
  - { offset: 0x1C51EB, size: 0x8, addend: 0x0, symName: __GLOBAL__sub_I_RNSModalScreen.mm, symObjAddr: 0x3ED0, symBinAddr: 0x137C0, symSize: 0x20 }
  - { offset: 0x1C75E3, size: 0x8, addend: 0x0, symName: __ZNK8facebook5react24RNSModalScreenShadowNode22getContentOriginOffsetEb, symObjAddr: 0x0, symBinAddr: 0x137E0, symSize: 0x10 }
  - { offset: 0x1C7607, size: 0x8, addend: 0x0, symName: __ZN8facebook5react27RNSModalScreenComponentNameE, symObjAddr: 0x42C, symBinAddr: 0x4A653, symSize: 0x0 }
  - { offset: 0x1C8FA4, size: 0x8, addend: 0x0, symName: __ZN8facebook5react27RNSModalScreenComponentNameE, symObjAddr: 0x42C, symBinAddr: 0x4A653, symSize: 0x0 }
  - { offset: 0x1C9A82, size: 0x8, addend: 0x0, symName: __ZN8facebook5react27RNSModalScreenComponentNameE, symObjAddr: 0x42C, symBinAddr: 0x4A653, symSize: 0x0 }
  - { offset: 0x1E1350, size: 0x8, addend: 0x0, symName: __ZNK8facebook5react24RNSModalScreenShadowNode22getContentOriginOffsetEb, symObjAddr: 0x0, symBinAddr: 0x137E0, symSize: 0x10 }
  - { offset: 0x1E1382, size: 0x8, addend: 0x0, symName: __ZNK8facebook5react24RNSModalScreenShadowNode22getContentOriginOffsetEb, symObjAddr: 0x0, symBinAddr: 0x137E0, symSize: 0x10 }
  - { offset: 0x1E139F, size: 0x8, addend: 0x0, symName: __ZNK8facebook5react24RNSModalScreenShadowNode22getContentOriginOffsetEb, symObjAddr: 0x0, symBinAddr: 0x137E0, symSize: 0x10 }
  - { offset: 0x1E1780, size: 0x8, addend: 0x0, symName: __ZN8facebook5react24RNSModalScreenShadowNodeD1Ev, symObjAddr: 0x10, symBinAddr: 0x137F0, symSize: 0x70 }
  - { offset: 0x1E1E9E, size: 0x8, addend: 0x0, symName: __ZN8facebook5react24RNSModalScreenShadowNodeD0Ev, symObjAddr: 0x80, symBinAddr: 0x13860, symSize: 0x74 }
  - { offset: 0x1E4A03, size: 0x8, addend: 0x0, symName: __ZN8facebook5react17HostPlatformColorL14UndefinedColorE, symObjAddr: 0x13A1B0, symBinAddr: 0x7D6E0, symSize: 0x0 }
  - { offset: 0x1F5792, size: 0x8, addend: 0x0, symName: __ZNSt3__115allocate_sharedB8ne200100IN8facebook5react26NativeScreensModuleSpecJSIENS_9allocatorIS3_EEJRKNS2_15ObjCTurboModule10InitParamsEELi0EEENS_10shared_ptrIT_EERKT0_DpOT1_, symObjAddr: 0xC88, symBinAddr: 0x14504, symSize: 0x58 }
  - { offset: 0x1FB793, size: 0x8, addend: 0x0, symName: '-[RNSModule installHostObject]', symObjAddr: 0x57C, symBinAddr: 0x13E50, symSize: 0x508 }
  - { offset: 0x1FD37C, size: 0x8, addend: 0x0, symName: '+[RNSModule moduleName]', symObjAddr: 0x0, symBinAddr: 0x138D4, symSize: 0xC }
  - { offset: 0x1FD3AD, size: 0x8, addend: 0x0, symName: '+[RNSModule load]', symObjAddr: 0xC, symBinAddr: 0x138E0, symSize: 0x4 }
  - { offset: 0x1FD3E0, size: 0x8, addend: 0x0, symName: '+[RNSModule load]', symObjAddr: 0xC, symBinAddr: 0x138E0, symSize: 0x4 }
  - { offset: 0x1FD423, size: 0x8, addend: 0x0, symName: '-[RNSModule methodQueue]', symObjAddr: 0x10, symBinAddr: 0x138E4, symSize: 0xC }
  - { offset: 0x1FD457, size: 0x8, addend: 0x0, symName: '-[RNSModule methodQueue]', symObjAddr: 0x10, symBinAddr: 0x138E4, symSize: 0xC }
  - { offset: 0x1FD468, size: 0x8, addend: 0x0, symName: '-[RNSModule constantsToExport]', symObjAddr: 0x1C, symBinAddr: 0x138F0, symSize: 0x1C }
  - { offset: 0x1FD49D, size: 0x8, addend: 0x0, symName: '+[RNSModule requiresMainQueueSetup]', symObjAddr: 0x38, symBinAddr: 0x1390C, symSize: 0x8 }
  - { offset: 0x1FD4CD, size: 0x8, addend: 0x0, symName: '-[RNSModule getScreenStackView:]', symObjAddr: 0x40, symBinAddr: 0x13914, symSize: 0x74 }
  - { offset: 0x1FD628, size: 0x8, addend: 0x0, symName: '-[RNSModule startTransition:]', symObjAddr: 0xB4, symBinAddr: 0x13988, symSize: 0x29C }
  - { offset: 0x1FD81B, size: 0x8, addend: 0x0, symName: '-[RNSModule updateTransition:progress:]', symObjAddr: 0x350, symBinAddr: 0x13C24, symSize: 0x74 }
  - { offset: 0x1FD8E5, size: 0x8, addend: 0x0, symName: '-[RNSModule finishTransition:canceled:]', symObjAddr: 0x3C4, symBinAddr: 0x13C98, symSize: 0x8C }
  - { offset: 0x1FDA37, size: 0x8, addend: 0x0, symName: '-[RNSModule disableSwipeBackForTopScreen:]', symObjAddr: 0x450, symBinAddr: 0x13D24, symSize: 0x54 }
  - { offset: 0x1FDA86, size: 0x8, addend: 0x0, symName: '-[RNSModule getStackView:]', symObjAddr: 0x4A4, symBinAddr: 0x13D78, symSize: 0x94 }
  - { offset: 0x1FDBD6, size: 0x8, addend: 0x0, symName: '-[RNSModule getTurboModule:]', symObjAddr: 0x538, symBinAddr: 0x13E0C, symSize: 0x44 }
  - { offset: 0x1FEF2A, size: 0x8, addend: 0x0, symName: __ZN8facebook3jsi6Object20createFromHostObjectERNS0_7RuntimeENSt3__110shared_ptrINS0_10HostObjectEEE, symObjAddr: 0xA84, symBinAddr: 0x14358, symSize: 0x9C }
  - { offset: 0x1FF104, size: 0x8, addend: 0x0, symName: __ZNK8facebook3jsi6Object11setPropertyIS1_EEvRNS0_7RuntimeEPKcOT_, symObjAddr: 0xB20, symBinAddr: 0x143F4, symSize: 0xA4 }
  - { offset: 0x1FF489, size: 0x8, addend: 0x0, symName: __ZNK8facebook3jsi6Object11setPropertyIS1_EEvRNS0_7RuntimeERKNS0_6StringEOT_, symObjAddr: 0x1578, symBinAddr: 0x14D50, symSize: 0x90 }
  - { offset: 0x1FF65F, size: 0x8, addend: 0x0, symName: '-[RNSModule viewRegistry_DEPRECATED]', symObjAddr: 0xBC4, symBinAddr: 0x14498, symSize: 0x18 }
  - { offset: 0x1FF694, size: 0x8, addend: 0x0, symName: '-[RNSModule setViewRegistry_DEPRECATED:]', symObjAddr: 0xBDC, symBinAddr: 0x144B0, symSize: 0xC }
  - { offset: 0x1FF6D3, size: 0x8, addend: 0x0, symName: '-[RNSModule bridge]', symObjAddr: 0xBE8, symBinAddr: 0x144BC, symSize: 0x18 }
  - { offset: 0x1FF708, size: 0x8, addend: 0x0, symName: '-[RNSModule .cxx_destruct]', symObjAddr: 0xC00, symBinAddr: 0x144D4, symSize: 0x28 }
  - { offset: 0x1FF7F8, size: 0x8, addend: 0x0, symName: '-[RNSModule .cxx_construct]', symObjAddr: 0xC28, symBinAddr: 0x144FC, symSize: 0x8 }
  - { offset: 0x1FF82F, size: 0x8, addend: 0x0, symName: '-[RNSModule .cxx_construct]', symObjAddr: 0xC28, symBinAddr: 0x144FC, symSize: 0x8 }
  - { offset: 0x1FF84E, size: 0x8, addend: 0x0, symName: '-[RNSModule .cxx_construct]', symObjAddr: 0xC28, symBinAddr: 0x144FC, symSize: 0x8 }
  - { offset: 0x1FF86D, size: 0x8, addend: 0x0, symName: '-[RNSModule .cxx_construct]', symObjAddr: 0xC28, symBinAddr: 0x144FC, symSize: 0x8 }
  - { offset: 0x1FF88C, size: 0x8, addend: 0x0, symName: '-[RNSModule .cxx_construct]', symObjAddr: 0xC28, symBinAddr: 0x144FC, symSize: 0x8 }
  - { offset: 0x1FF8B4, size: 0x8, addend: 0x0, symName: '-[RNSModule .cxx_construct]', symObjAddr: 0xC28, symBinAddr: 0x144FC, symSize: 0x8 }
  - { offset: 0x1FF8DC, size: 0x8, addend: 0x0, symName: '-[RNSModule .cxx_construct]', symObjAddr: 0xC28, symBinAddr: 0x144FC, symSize: 0x8 }
  - { offset: 0x1FFB43, size: 0x8, addend: 0x0, symName: __ZNSt3__120__shared_ptr_emplaceIN8facebook5react26NativeScreensModuleSpecJSIENS_9allocatorIS3_EEEC2B8ne200100IJRKNS2_15ObjCTurboModule10InitParamsEES5_Li0EEES5_DpOT_, symObjAddr: 0xCE0, symBinAddr: 0x1455C, symSize: 0x4C }
  - { offset: 0x1FFCE8, size: 0x8, addend: 0x0, symName: __ZNSt3__120__shared_ptr_emplaceIN8facebook5react26NativeScreensModuleSpecJSIENS_9allocatorIS3_EEED1Ev, symObjAddr: 0xD2C, symBinAddr: 0x145A8, symSize: 0x14 }
  - { offset: 0x1FFD0C, size: 0x8, addend: 0x0, symName: __ZNSt3__120__shared_ptr_emplaceIN8facebook5react26NativeScreensModuleSpecJSIENS_9allocatorIS3_EEED1Ev, symObjAddr: 0xD2C, symBinAddr: 0x145A8, symSize: 0x14 }
  - { offset: 0x1FFD42, size: 0x8, addend: 0x0, symName: __ZNSt3__120__shared_ptr_emplaceIN8facebook5react26NativeScreensModuleSpecJSIENS_9allocatorIS3_EEED0Ev, symObjAddr: 0xD40, symBinAddr: 0x145BC, symSize: 0x24 }
  - { offset: 0x1FFE15, size: 0x8, addend: 0x0, symName: __ZNSt3__120__shared_ptr_emplaceIN8facebook5react26NativeScreensModuleSpecJSIENS_9allocatorIS3_EEE16__on_zero_sharedEv, symObjAddr: 0xD64, symBinAddr: 0x145E0, symSize: 0xC }
  - { offset: 0x1FFE3E, size: 0x8, addend: 0x0, symName: __ZNSt3__120__shared_ptr_emplaceIN8facebook5react26NativeScreensModuleSpecJSIENS_9allocatorIS3_EEE16__on_zero_sharedEv, symObjAddr: 0xD64, symBinAddr: 0x145E0, symSize: 0xC }
  - { offset: 0x1FFE5D, size: 0x8, addend: 0x0, symName: __ZNSt3__120__shared_ptr_emplaceIN8facebook5react26NativeScreensModuleSpecJSIENS_9allocatorIS3_EEE16__on_zero_sharedEv, symObjAddr: 0xD64, symBinAddr: 0x145E0, symSize: 0xC }
  - { offset: 0x1FFE7C, size: 0x8, addend: 0x0, symName: __ZNSt3__120__shared_ptr_emplaceIN8facebook5react26NativeScreensModuleSpecJSIENS_9allocatorIS3_EEE16__on_zero_sharedEv, symObjAddr: 0xD64, symBinAddr: 0x145E0, symSize: 0xC }
  - { offset: 0x1FFEA8, size: 0x8, addend: 0x0, symName: __ZNSt3__120__shared_ptr_emplaceIN8facebook5react26NativeScreensModuleSpecJSIENS_9allocatorIS3_EEE21__on_zero_shared_weakEv, symObjAddr: 0xD70, symBinAddr: 0x145EC, symSize: 0x4 }
  - { offset: 0x1FFEDC, size: 0x8, addend: 0x0, symName: __ZNSt3__120__shared_ptr_emplaceIN8facebook5react26NativeScreensModuleSpecJSIENS_9allocatorIS3_EEE21__on_zero_shared_weakEv, symObjAddr: 0xD70, symBinAddr: 0x145EC, symSize: 0x4 }
  - { offset: 0x1FFF00, size: 0x8, addend: 0x0, symName: __ZNSt3__120__shared_ptr_emplaceIN8facebook5react26NativeScreensModuleSpecJSIENS_9allocatorIS3_EEE21__on_zero_shared_weakEv, symObjAddr: 0xD70, symBinAddr: 0x145EC, symSize: 0x4 }
  - { offset: 0x1FFF25, size: 0x8, addend: 0x0, symName: __ZNSt3__120__shared_ptr_emplaceIN8facebook5react26NativeScreensModuleSpecJSIENS_9allocatorIS3_EEE21__on_zero_shared_weakEv, symObjAddr: 0xD70, symBinAddr: 0x145EC, symSize: 0x4 }
  - { offset: 0x1FFF5D, size: 0x8, addend: 0x0, symName: __ZNSt3__120__shared_ptr_emplaceIN8facebook5react26NativeScreensModuleSpecJSIENS_9allocatorIS3_EEE21__on_zero_shared_weakEv, symObjAddr: 0xD70, symBinAddr: 0x145EC, symSize: 0x4 }
  - { offset: 0x1FFFA1, size: 0x8, addend: 0x0, symName: __ZNSt3__120__shared_ptr_emplaceIN9RNScreens20RNScreensTurboModuleENS_9allocatorIS2_EEED1Ev, symObjAddr: 0xD74, symBinAddr: 0x145F0, symSize: 0x14 }
  - { offset: 0x1FFFC5, size: 0x8, addend: 0x0, symName: __ZNSt3__120__shared_ptr_emplaceIN9RNScreens20RNScreensTurboModuleENS_9allocatorIS2_EEED1Ev, symObjAddr: 0xD74, symBinAddr: 0x145F0, symSize: 0x14 }
  - { offset: 0x1FFFFB, size: 0x8, addend: 0x0, symName: __ZNSt3__120__shared_ptr_emplaceIN9RNScreens20RNScreensTurboModuleENS_9allocatorIS2_EEED0Ev, symObjAddr: 0xD88, symBinAddr: 0x14604, symSize: 0x24 }
  - { offset: 0x2000CE, size: 0x8, addend: 0x0, symName: __ZNSt3__120__shared_ptr_emplaceIN9RNScreens20RNScreensTurboModuleENS_9allocatorIS2_EEE16__on_zero_sharedEv, symObjAddr: 0xDAC, symBinAddr: 0x14628, symSize: 0xC }
  - { offset: 0x2000F7, size: 0x8, addend: 0x0, symName: __ZNSt3__120__shared_ptr_emplaceIN9RNScreens20RNScreensTurboModuleENS_9allocatorIS2_EEE16__on_zero_sharedEv, symObjAddr: 0xDAC, symBinAddr: 0x14628, symSize: 0xC }
  - { offset: 0x200116, size: 0x8, addend: 0x0, symName: __ZNSt3__120__shared_ptr_emplaceIN9RNScreens20RNScreensTurboModuleENS_9allocatorIS2_EEE16__on_zero_sharedEv, symObjAddr: 0xDAC, symBinAddr: 0x14628, symSize: 0xC }
  - { offset: 0x200135, size: 0x8, addend: 0x0, symName: __ZNSt3__120__shared_ptr_emplaceIN9RNScreens20RNScreensTurboModuleENS_9allocatorIS2_EEE16__on_zero_sharedEv, symObjAddr: 0xDAC, symBinAddr: 0x14628, symSize: 0xC }
  - { offset: 0x200161, size: 0x8, addend: 0x0, symName: __ZNSt3__120__shared_ptr_emplaceIN9RNScreens20RNScreensTurboModuleENS_9allocatorIS2_EEE21__on_zero_shared_weakEv, symObjAddr: 0xDB8, symBinAddr: 0x14634, symSize: 0x4 }
  - { offset: 0x200195, size: 0x8, addend: 0x0, symName: __ZNSt3__120__shared_ptr_emplaceIN9RNScreens20RNScreensTurboModuleENS_9allocatorIS2_EEE21__on_zero_shared_weakEv, symObjAddr: 0xDB8, symBinAddr: 0x14634, symSize: 0x4 }
  - { offset: 0x2001B9, size: 0x8, addend: 0x0, symName: __ZNSt3__120__shared_ptr_emplaceIN9RNScreens20RNScreensTurboModuleENS_9allocatorIS2_EEE21__on_zero_shared_weakEv, symObjAddr: 0xDB8, symBinAddr: 0x14634, symSize: 0x4 }
  - { offset: 0x2001DE, size: 0x8, addend: 0x0, symName: __ZNSt3__120__shared_ptr_emplaceIN9RNScreens20RNScreensTurboModuleENS_9allocatorIS2_EEE21__on_zero_shared_weakEv, symObjAddr: 0xDB8, symBinAddr: 0x14634, symSize: 0x4 }
  - { offset: 0x200215, size: 0x8, addend: 0x0, symName: __ZNSt3__120__shared_ptr_emplaceIN9RNScreens20RNScreensTurboModuleENS_9allocatorIS2_EEE21__on_zero_shared_weakEv, symObjAddr: 0xDB8, symBinAddr: 0x14634, symSize: 0x4 }
  - { offset: 0x200290, size: 0x8, addend: 0x0, symName: '__ZNSt3__110__function6__funcIZ30-[RNSModule installHostObject]E3$_0NS_9allocatorIS2_EEFNS_5arrayIiLm2EEEiEED1Ev', symObjAddr: 0xDBC, symBinAddr: 0x14638, symSize: 0x28 }
  - { offset: 0x200346, size: 0x8, addend: 0x0, symName: '__ZNSt3__110__function6__funcIZ30-[RNSModule installHostObject]E3$_0NS_9allocatorIS2_EEFNS_5arrayIiLm2EEEiEED0Ev', symObjAddr: 0xDE4, symBinAddr: 0x14660, symSize: 0x28 }
  - { offset: 0x2004F7, size: 0x8, addend: 0x0, symName: '__ZNKSt3__110__function6__funcIZ30-[RNSModule installHostObject]E3$_0NS_9allocatorIS2_EEFNS_5arrayIiLm2EEEiEE7__cloneEv', symObjAddr: 0xE0C, symBinAddr: 0x14688, symSize: 0x40 }
  - { offset: 0x20071C, size: 0x8, addend: 0x0, symName: '__ZNKSt3__110__function6__funcIZ30-[RNSModule installHostObject]E3$_0NS_9allocatorIS2_EEFNS_5arrayIiLm2EEEiEE7__cloneEPNS0_6__baseIS7_EE', symObjAddr: 0xE4C, symBinAddr: 0x146C8, symSize: 0x1C }
  - { offset: 0x200813, size: 0x8, addend: 0x0, symName: '__ZNSt3__110__function6__funcIZ30-[RNSModule installHostObject]E3$_0NS_9allocatorIS2_EEFNS_5arrayIiLm2EEEiEE7destroyEv', symObjAddr: 0xE68, symBinAddr: 0x146E4, symSize: 0x8 }
  - { offset: 0x2008AD, size: 0x8, addend: 0x0, symName: '__ZNSt3__110__function6__funcIZ30-[RNSModule installHostObject]E3$_0NS_9allocatorIS2_EEFNS_5arrayIiLm2EEEiEE18destroy_deallocateEv', symObjAddr: 0xE70, symBinAddr: 0x146EC, symSize: 0x28 }
  - { offset: 0x200A3B, size: 0x8, addend: 0x0, symName: '__ZNSt3__110__function6__funcIZ30-[RNSModule installHostObject]E3$_0NS_9allocatorIS2_EEFNS_5arrayIiLm2EEEiEEclEOi', symObjAddr: 0xE98, symBinAddr: 0x14714, symSize: 0xFC }
  - { offset: 0x200AF6, size: 0x8, addend: 0x0, symName: '__ZNKSt3__110__function6__funcIZ30-[RNSModule installHostObject]E3$_0NS_9allocatorIS2_EEFNS_5arrayIiLm2EEEiEE6targetERKSt9type_info', symObjAddr: 0xF94, symBinAddr: 0x14810, symSize: 0x3C }
  - { offset: 0x200BAA, size: 0x8, addend: 0x0, symName: '__ZNKSt3__110__function6__funcIZ30-[RNSModule installHostObject]E3$_0NS_9allocatorIS2_EEFNS_5arrayIiLm2EEEiEE11target_typeEv', symObjAddr: 0xFD0, symBinAddr: 0x1484C, symSize: 0xC }
  - { offset: 0x200C69, size: 0x8, addend: 0x0, symName: '__ZNSt3__110__function6__funcIZ30-[RNSModule installHostObject]E3$_1NS_9allocatorIS2_EEFvidEED1Ev', symObjAddr: 0x1028, symBinAddr: 0x14858, symSize: 0x28 }
  - { offset: 0x200D1F, size: 0x8, addend: 0x0, symName: '__ZNSt3__110__function6__funcIZ30-[RNSModule installHostObject]E3$_1NS_9allocatorIS2_EEFvidEED0Ev', symObjAddr: 0x1050, symBinAddr: 0x14880, symSize: 0x28 }
  - { offset: 0x200ED0, size: 0x8, addend: 0x0, symName: '__ZNKSt3__110__function6__funcIZ30-[RNSModule installHostObject]E3$_1NS_9allocatorIS2_EEFvidEE7__cloneEv', symObjAddr: 0x1078, symBinAddr: 0x148A8, symSize: 0x40 }
  - { offset: 0x2010F5, size: 0x8, addend: 0x0, symName: '__ZNKSt3__110__function6__funcIZ30-[RNSModule installHostObject]E3$_1NS_9allocatorIS2_EEFvidEE7__cloneEPNS0_6__baseIS5_EE', symObjAddr: 0x10B8, symBinAddr: 0x148E8, symSize: 0x1C }
  - { offset: 0x2011EC, size: 0x8, addend: 0x0, symName: '__ZNSt3__110__function6__funcIZ30-[RNSModule installHostObject]E3$_1NS_9allocatorIS2_EEFvidEE7destroyEv', symObjAddr: 0x10D4, symBinAddr: 0x14904, symSize: 0x8 }
  - { offset: 0x201286, size: 0x8, addend: 0x0, symName: '__ZNSt3__110__function6__funcIZ30-[RNSModule installHostObject]E3$_1NS_9allocatorIS2_EEFvidEE18destroy_deallocateEv', symObjAddr: 0x10DC, symBinAddr: 0x1490C, symSize: 0x28 }
  - { offset: 0x201437, size: 0x8, addend: 0x0, symName: '__ZNSt3__110__function6__funcIZ30-[RNSModule installHostObject]E3$_1NS_9allocatorIS2_EEFvidEEclEOiOd', symObjAddr: 0x1104, symBinAddr: 0x14934, symSize: 0x8C }
  - { offset: 0x201533, size: 0x8, addend: 0x0, symName: '__ZNKSt3__110__function6__funcIZ30-[RNSModule installHostObject]E3$_1NS_9allocatorIS2_EEFvidEE6targetERKSt9type_info', symObjAddr: 0x1190, symBinAddr: 0x149C0, symSize: 0x3C }
  - { offset: 0x201581, size: 0x8, addend: 0x0, symName: '__ZNKSt3__110__function6__funcIZ30-[RNSModule installHostObject]E3$_1NS_9allocatorIS2_EEFvidEE11target_typeEv', symObjAddr: 0x11CC, symBinAddr: 0x149FC, symSize: 0xC }
  - { offset: 0x2015F5, size: 0x8, addend: 0x0, symName: '__ZNSt3__110__function6__funcIZ30-[RNSModule installHostObject]E3$_2NS_9allocatorIS2_EEFvibEED1Ev', symObjAddr: 0x11D8, symBinAddr: 0x14A08, symSize: 0x28 }
  - { offset: 0x2016AB, size: 0x8, addend: 0x0, symName: '__ZNSt3__110__function6__funcIZ30-[RNSModule installHostObject]E3$_2NS_9allocatorIS2_EEFvibEED0Ev', symObjAddr: 0x1200, symBinAddr: 0x14A30, symSize: 0x28 }
  - { offset: 0x20185C, size: 0x8, addend: 0x0, symName: '__ZNKSt3__110__function6__funcIZ30-[RNSModule installHostObject]E3$_2NS_9allocatorIS2_EEFvibEE7__cloneEv', symObjAddr: 0x1228, symBinAddr: 0x14A58, symSize: 0x40 }
  - { offset: 0x201A81, size: 0x8, addend: 0x0, symName: '__ZNKSt3__110__function6__funcIZ30-[RNSModule installHostObject]E3$_2NS_9allocatorIS2_EEFvibEE7__cloneEPNS0_6__baseIS5_EE', symObjAddr: 0x1268, symBinAddr: 0x14A98, symSize: 0x1C }
  - { offset: 0x201B78, size: 0x8, addend: 0x0, symName: '__ZNSt3__110__function6__funcIZ30-[RNSModule installHostObject]E3$_2NS_9allocatorIS2_EEFvibEE7destroyEv', symObjAddr: 0x1284, symBinAddr: 0x14AB4, symSize: 0x8 }
  - { offset: 0x201C12, size: 0x8, addend: 0x0, symName: '__ZNSt3__110__function6__funcIZ30-[RNSModule installHostObject]E3$_2NS_9allocatorIS2_EEFvibEE18destroy_deallocateEv', symObjAddr: 0x128C, symBinAddr: 0x14ABC, symSize: 0x28 }
  - { offset: 0x201DC3, size: 0x8, addend: 0x0, symName: '__ZNSt3__110__function6__funcIZ30-[RNSModule installHostObject]E3$_2NS_9allocatorIS2_EEFvibEEclEOiOb', symObjAddr: 0x12B4, symBinAddr: 0x14AE4, symSize: 0x84 }
  - { offset: 0x201EBF, size: 0x8, addend: 0x0, symName: '__ZNKSt3__110__function6__funcIZ30-[RNSModule installHostObject]E3$_2NS_9allocatorIS2_EEFvibEE6targetERKSt9type_info', symObjAddr: 0x1338, symBinAddr: 0x14B68, symSize: 0x3C }
  - { offset: 0x201F0D, size: 0x8, addend: 0x0, symName: '__ZNKSt3__110__function6__funcIZ30-[RNSModule installHostObject]E3$_2NS_9allocatorIS2_EEFvibEE11target_typeEv', symObjAddr: 0x1374, symBinAddr: 0x14BA4, symSize: 0xC }
  - { offset: 0x201F81, size: 0x8, addend: 0x0, symName: '__ZNSt3__110__function6__funcIZ30-[RNSModule installHostObject]E3$_3NS_9allocatorIS2_EEFviEED1Ev', symObjAddr: 0x1380, symBinAddr: 0x14BB0, symSize: 0x28 }
  - { offset: 0x202037, size: 0x8, addend: 0x0, symName: '__ZNSt3__110__function6__funcIZ30-[RNSModule installHostObject]E3$_3NS_9allocatorIS2_EEFviEED0Ev', symObjAddr: 0x13A8, symBinAddr: 0x14BD8, symSize: 0x28 }
  - { offset: 0x2021E8, size: 0x8, addend: 0x0, symName: '__ZNKSt3__110__function6__funcIZ30-[RNSModule installHostObject]E3$_3NS_9allocatorIS2_EEFviEE7__cloneEv', symObjAddr: 0x13D0, symBinAddr: 0x14C00, symSize: 0x40 }
  - { offset: 0x20240D, size: 0x8, addend: 0x0, symName: '__ZNKSt3__110__function6__funcIZ30-[RNSModule installHostObject]E3$_3NS_9allocatorIS2_EEFviEE7__cloneEPNS0_6__baseIS5_EE', symObjAddr: 0x1410, symBinAddr: 0x14C40, symSize: 0x1C }
  - { offset: 0x202504, size: 0x8, addend: 0x0, symName: '__ZNSt3__110__function6__funcIZ30-[RNSModule installHostObject]E3$_3NS_9allocatorIS2_EEFviEE7destroyEv', symObjAddr: 0x142C, symBinAddr: 0x14C5C, symSize: 0x8 }
  - { offset: 0x20259E, size: 0x8, addend: 0x0, symName: '__ZNSt3__110__function6__funcIZ30-[RNSModule installHostObject]E3$_3NS_9allocatorIS2_EEFviEE18destroy_deallocateEv', symObjAddr: 0x1434, symBinAddr: 0x14C64, symSize: 0x28 }
  - { offset: 0x202725, size: 0x8, addend: 0x0, symName: '__ZNSt3__110__function6__funcIZ30-[RNSModule installHostObject]E3$_3NS_9allocatorIS2_EEFviEEclEOi', symObjAddr: 0x145C, symBinAddr: 0x14C8C, symSize: 0x7C }
  - { offset: 0x2027DE, size: 0x8, addend: 0x0, symName: '__ZNKSt3__110__function6__funcIZ30-[RNSModule installHostObject]E3$_3NS_9allocatorIS2_EEFviEE6targetERKSt9type_info', symObjAddr: 0x14D8, symBinAddr: 0x14D08, symSize: 0x3C }
  - { offset: 0x20282C, size: 0x8, addend: 0x0, symName: '__ZNKSt3__110__function6__funcIZ30-[RNSModule installHostObject]E3$_3NS_9allocatorIS2_EEFviEE11target_typeEv', symObjAddr: 0x1514, symBinAddr: 0x14D44, symSize: 0xC }
  - { offset: 0x202A02, size: 0x8, addend: 0x0, symName: __GLOBAL__sub_I_RNSModule.mm, symObjAddr: 0x1810, symBinAddr: 0x14DE0, symSize: 0x20 }
  - { offset: 0x204C23, size: 0x8, addend: 0x0, symName: __ZN8facebook5react17HostPlatformColorL14UndefinedColorE, symObjAddr: 0x18358, symBinAddr: 0x7D6F8, symSize: 0x0 }
  - { offset: 0x205A0D, size: 0x8, addend: 0x0, symName: '-[RNSPercentDrivenInteractiveTransition startInteractiveTransition:]', symObjAddr: 0x0, symBinAddr: 0x14E00, symSize: 0x34 }
  - { offset: 0x205A4D, size: 0x8, addend: 0x0, symName: '-[RNSPercentDrivenInteractiveTransition updateInteractiveTransition:]', symObjAddr: 0x34, symBinAddr: 0x14E34, symSize: 0x88 }
  - { offset: 0x205A8D, size: 0x8, addend: 0x0, symName: '-[RNSPercentDrivenInteractiveTransition finishInteractiveTransition]', symObjAddr: 0xBC, symBinAddr: 0x14EBC, symSize: 0x48 }
  - { offset: 0x205ABE, size: 0x8, addend: 0x0, symName: '-[RNSPercentDrivenInteractiveTransition cancelInteractiveTransition]', symObjAddr: 0x104, symBinAddr: 0x14F04, symSize: 0x48 }
  - { offset: 0x205AEF, size: 0x8, addend: 0x0, symName: '-[RNSPercentDrivenInteractiveTransition finalizeInteractiveTransitionWithAnimationWasCancelled:]', symObjAddr: 0x14C, symBinAddr: 0x14F4C, symSize: 0xD8 }
  - { offset: 0x205B5F, size: 0x8, addend: 0x0, symName: '-[RNSPercentDrivenInteractiveTransition animationController]', symObjAddr: 0x224, symBinAddr: 0x15024, symSize: 0x10 }
  - { offset: 0x205B94, size: 0x8, addend: 0x0, symName: '-[RNSPercentDrivenInteractiveTransition setAnimationController:]', symObjAddr: 0x234, symBinAddr: 0x15034, symSize: 0x14 }
  - { offset: 0x205BD3, size: 0x8, addend: 0x0, symName: '-[RNSPercentDrivenInteractiveTransition .cxx_destruct]', symObjAddr: 0x248, symBinAddr: 0x15048, symSize: 0x14 }
  - { offset: 0x205C8B, size: 0x8, addend: 0x0, symName: __GLOBAL__sub_I_RNSPercentDrivenInteractiveTransition.mm, symObjAddr: 0x284, symBinAddr: 0x1505C, symSize: 0x20 }
  - { offset: 0x207D96, size: 0x8, addend: 0x0, symName: __GLOBAL__sub_I_RNSReactBaseView.mm, symObjAddr: 0x0, symBinAddr: 0x1507C, symSize: 0x20 }
  - { offset: 0x207DBE, size: 0x8, addend: 0x0, symName: __ZN8facebook5react17HostPlatformColorL14UndefinedColorE, symObjAddr: 0xDB600, symBinAddr: 0x7D710, symSize: 0x0 }
  - { offset: 0x208B26, size: 0x8, addend: 0x0, symName: __GLOBAL__sub_I_RNSReactBaseView.mm, symObjAddr: 0x0, symBinAddr: 0x1507C, symSize: 0x20 }
  - { offset: 0x20ABA5, size: 0x8, addend: 0x0, symName: __ZN8facebook5react17HostPlatformColorL14UndefinedColorE, symObjAddr: 0x1D6D70, symBinAddr: 0x7D728, symSize: 0x0 }
  - { offset: 0x20E696, size: 0x8, addend: 0x0, symName: __ZN8facebook5react38concreteComponentDescriptorConstructorINS0_28RNSScreenComponentDescriptorEEENSt3__110unique_ptrIKNS0_19ComponentDescriptorENS3_14default_deleteIS6_EEEERKNS0_29ComponentDescriptorParametersE, symObjAddr: 0x8828, symBinAddr: 0x1C410, symSize: 0x34 }
  - { offset: 0x22E0EB, size: 0x8, addend: 0x0, symName: __ZNSt3__111make_uniqueB8ne200100IKN8facebook5react28RNSScreenComponentDescriptorEJRKNS2_29ComponentDescriptorParametersEELi0EEENS_10unique_ptrIT_NS_14default_deleteIS9_EEEEDpOT0_, symObjAddr: 0x885C, symBinAddr: 0x1C444, symSize: 0xE4 }
  - { offset: 0x22EAAA, size: 0x8, addend: 0x0, symName: __ZNSt3__115allocate_sharedB8ne200100IN8facebook5react19RNSScreenShadowNodeENS_9allocatorIS3_EEJRKNS2_18ShadowNodeFragmentERKNS_10shared_ptrIKNS2_16ShadowNodeFamilyEEENS2_16ShadowNodeTraitsEELi0EEENS9_IT_EERKT0_DpOT1_, symObjAddr: 0x960C, symBinAddr: 0x1CD24, symSize: 0x70 }
  - { offset: 0x22EDE6, size: 0x8, addend: 0x0, symName: __ZNSt3__115allocate_sharedB8ne200100IN8facebook5react19RNSScreenShadowNodeENS_9allocatorIS3_EEJRKNS2_10ShadowNodeERKNS2_18ShadowNodeFragmentEELi0EEENS_10shared_ptrIT_EERKT0_DpOT1_, symObjAddr: 0x9BEC, symBinAddr: 0x1CFA4, symSize: 0x60 }
  - { offset: 0x22FCDE, size: 0x8, addend: 0x0, symName: __ZNSt3__115allocate_sharedB8ne200100IN8facebook5react16ShadowNodeFamilyENS_9allocatorIS3_EEJRKNS2_24ShadowNodeFamilyFragmentERNS_10shared_ptrIKNS2_21RNSScreenEventEmitterEEERKNS_8weak_ptrIKNS2_15EventDispatcherEEERKNS2_27ConcreteComponentDescriptorINS2_19RNSScreenShadowNodeEEEELi0EEENS9_IT_EERKT0_DpOT1_, symObjAddr: 0xAC0C, symBinAddr: 0x1D16C, symSize: 0x78 }
  - { offset: 0x23252E, size: 0x8, addend: 0x0, symName: __ZNSt3__112construct_atB8ne200100IN8facebook5react16ShadowNodeFamilyEJRKNS2_24ShadowNodeFamilyFragmentERNS_10shared_ptrIKNS2_21RNSScreenEventEmitterEEERKNS_8weak_ptrIKNS2_15EventDispatcherEEERKNS2_27ConcreteComponentDescriptorINS2_19RNSScreenShadowNodeEEEEPS3_EEPT_SP_DpOT0_, symObjAddr: 0xAD14, symBinAddr: 0x1D230, symSize: 0xDC }
  - { offset: 0x233ABF, size: 0x8, addend: 0x0, symName: '-[RNSScreenView initWithFrame:]', symObjAddr: 0x34, symBinAddr: 0x150D0, symSize: 0x144 }
  - { offset: 0x233AE9, size: 0x8, addend: 0x0, symName: '__ZZ31-[RNSScreenView initWithFrame:]E12defaultProps', symObjAddr: 0x1D6D88, symBinAddr: 0x7D740, symSize: 0x0 }
  - { offset: 0x236F28, size: 0x8, addend: 0x0, symName: '+[RCTConvert(RNSScreen) RNSScreenStackPresentation:]', symObjAddr: 0x6864, symBinAddr: 0x1B820, symSize: 0x98 }
  - { offset: 0x236F54, size: 0x8, addend: 0x0, symName: '__ZZ52+[RCTConvert(RNSScreen) RNSScreenStackPresentation:]E7mapping', symObjAddr: 0x1D6DA0, symBinAddr: 0x7D758, symSize: 0x0 }
  - { offset: 0x236F6B, size: 0x8, addend: 0x0, symName: '__ZZ52+[RCTConvert(RNSScreen) RNSScreenStackPresentation:]E9onceToken', symObjAddr: 0x1D6DA8, symBinAddr: 0x7D760, symSize: 0x0 }
  - { offset: 0x237005, size: 0x8, addend: 0x0, symName: '+[RCTConvert(RNSScreen) RNSScreenStackAnimation:]', symObjAddr: 0x6914, symBinAddr: 0x1B8D0, symSize: 0x98 }
  - { offset: 0x237031, size: 0x8, addend: 0x0, symName: '__ZZ49+[RCTConvert(RNSScreen) RNSScreenStackAnimation:]E7mapping', symObjAddr: 0x1D6DB0, symBinAddr: 0x7D768, symSize: 0x0 }
  - { offset: 0x237048, size: 0x8, addend: 0x0, symName: '__ZZ49+[RCTConvert(RNSScreen) RNSScreenStackAnimation:]E9onceToken', symObjAddr: 0x1D6DB8, symBinAddr: 0x7D770, symSize: 0x0 }
  - { offset: 0x2370A8, size: 0x8, addend: 0x0, symName: '+[RCTConvert(RNSScreen) RNSScreenReplaceAnimation:]', symObjAddr: 0x69C4, symBinAddr: 0x1B980, symSize: 0x98 }
  - { offset: 0x2370D4, size: 0x8, addend: 0x0, symName: '__ZZ51+[RCTConvert(RNSScreen) RNSScreenReplaceAnimation:]E7mapping', symObjAddr: 0x1D6DC0, symBinAddr: 0x7D778, symSize: 0x0 }
  - { offset: 0x2370EB, size: 0x8, addend: 0x0, symName: '__ZZ51+[RCTConvert(RNSScreen) RNSScreenReplaceAnimation:]E9onceToken', symObjAddr: 0x1D6DC8, symBinAddr: 0x7D780, symSize: 0x0 }
  - { offset: 0x23714B, size: 0x8, addend: 0x0, symName: '+[RCTConvert(RNSScreen) RNSScreenSwipeDirection:]', symObjAddr: 0x6A74, symBinAddr: 0x1BA30, symSize: 0x98 }
  - { offset: 0x237177, size: 0x8, addend: 0x0, symName: '__ZZ49+[RCTConvert(RNSScreen) RNSScreenSwipeDirection:]E7mapping', symObjAddr: 0x1D6DD0, symBinAddr: 0x7D788, symSize: 0x0 }
  - { offset: 0x23718E, size: 0x8, addend: 0x0, symName: '__ZZ49+[RCTConvert(RNSScreen) RNSScreenSwipeDirection:]E9onceToken', symObjAddr: 0x1D6DD8, symBinAddr: 0x7D790, symSize: 0x0 }
  - { offset: 0x2371EE, size: 0x8, addend: 0x0, symName: '+[RCTConvert(RNSScreen) UIStatusBarAnimation:]', symObjAddr: 0x6B24, symBinAddr: 0x1BAE0, symSize: 0x98 }
  - { offset: 0x23721A, size: 0x8, addend: 0x0, symName: '__ZZ46+[RCTConvert(RNSScreen) UIStatusBarAnimation:]E7mapping', symObjAddr: 0x1D6DE0, symBinAddr: 0x7D798, symSize: 0x0 }
  - { offset: 0x237231, size: 0x8, addend: 0x0, symName: '__ZZ46+[RCTConvert(RNSScreen) UIStatusBarAnimation:]E9onceToken', symObjAddr: 0x1D6DE8, symBinAddr: 0x7D7A0, symSize: 0x0 }
  - { offset: 0x237291, size: 0x8, addend: 0x0, symName: '+[RCTConvert(RNSScreen) RNSStatusBarStyle:]', symObjAddr: 0x6BD4, symBinAddr: 0x1BB90, symSize: 0x98 }
  - { offset: 0x2372BD, size: 0x8, addend: 0x0, symName: '__ZZ43+[RCTConvert(RNSScreen) RNSStatusBarStyle:]E7mapping', symObjAddr: 0x1D6DF0, symBinAddr: 0x7D7A8, symSize: 0x0 }
  - { offset: 0x2372D4, size: 0x8, addend: 0x0, symName: '__ZZ43+[RCTConvert(RNSScreen) RNSStatusBarStyle:]E9onceToken', symObjAddr: 0x1D6DF8, symBinAddr: 0x7D7B0, symSize: 0x0 }
  - { offset: 0x237334, size: 0x8, addend: 0x0, symName: '+[RCTConvert(RNSScreen) RNSScreenDetentType:]', symObjAddr: 0x6C84, symBinAddr: 0x1BC40, symSize: 0x98 }
  - { offset: 0x237360, size: 0x8, addend: 0x0, symName: '__ZZ45+[RCTConvert(RNSScreen) RNSScreenDetentType:]E7mapping', symObjAddr: 0x1D6E00, symBinAddr: 0x7D7B8, symSize: 0x0 }
  - { offset: 0x237377, size: 0x8, addend: 0x0, symName: '__ZZ45+[RCTConvert(RNSScreen) RNSScreenDetentType:]E9onceToken', symObjAddr: 0x1D6E08, symBinAddr: 0x7D7C0, symSize: 0x0 }
  - { offset: 0x237B78, size: 0x8, addend: 0x0, symName: __ZN8facebook5react18ConcreteShadowNodeIXadL_ZNS0_22RNSScreenComponentNameEEENS0_24YogaLayoutableShadowNodeENS0_14RNSScreenPropsENS0_21RNSScreenEventEmitterENS0_14RNSScreenStateEE18defaultSharedPropsEv, symObjAddr: 0x9D18, symBinAddr: 0x1D078, symSize: 0x9C }
  - { offset: 0x237B98, size: 0x8, addend: 0x0, symName: __ZZN8facebook5react18ConcreteShadowNodeIXadL_ZNS0_22RNSScreenComponentNameEEENS0_24YogaLayoutableShadowNodeENS0_14RNSScreenPropsENS0_21RNSScreenEventEmitterENS0_14RNSScreenStateEE18defaultSharedPropsEvE18defaultSharedProps, symObjAddr: 0x13B90, symBinAddr: 0x7D008, symSize: 0x0 }
  - { offset: 0x23880E, size: 0x8, addend: 0x0, symName: __ZNK8facebook5react13ConcreteStateINS0_14RNSScreenStateEE11updateStateENSt3__18functionIFNS4_10shared_ptrIKvEERKS2_EEE, symObjAddr: 0x801C, symBinAddr: 0x1BE48, symSize: 0x204 }
  - { offset: 0x239126, size: 0x8, addend: 0x0, symName: __ZNK8facebook5react13ConcreteStateINS0_14RNSScreenStateEE11updateStateEOS2_, symObjAddr: 0x488, symBinAddr: 0x154A8, symSize: 0xE8 }
  - { offset: 0x239674, size: 0x8, addend: 0x0, symName: '+[RNSScreenView load]', symObjAddr: 0x0, symBinAddr: 0x1509C, symSize: 0x34 }
  - { offset: 0x23994B, size: 0x8, addend: 0x0, symName: '-[RNSScreenView initCommonProps]', symObjAddr: 0x1F4, symBinAddr: 0x15214, symSize: 0x114 }
  - { offset: 0x23997C, size: 0x8, addend: 0x0, symName: '-[RNSScreenView reactViewController]', symObjAddr: 0x308, symBinAddr: 0x15328, symSize: 0x10 }
  - { offset: 0x2399B1, size: 0x8, addend: 0x0, symName: '-[RNSScreenView reactSubviews]', symObjAddr: 0x318, symBinAddr: 0x15338, symSize: 0x10 }
  - { offset: 0x239AD7, size: 0x8, addend: 0x0, symName: '-[RNSScreenView updateBounds]', symObjAddr: 0x328, symBinAddr: 0x15348, symSize: 0x160 }
  - { offset: 0x239F68, size: 0x8, addend: 0x0, symName: '-[RNSScreenView applyFrameCorrectionForDescendantScrollView]', symObjAddr: 0x570, symBinAddr: 0x15590, symSize: 0xE4 }
  - { offset: 0x239FA9, size: 0x8, addend: 0x0, symName: '-[RNSScreenView correctScrollViewFrame:withHeader:]', symObjAddr: 0x654, symBinAddr: 0x15674, symSize: 0x94 }
  - { offset: 0x23A005, size: 0x8, addend: 0x0, symName: '-[RNSScreenView observeValueForKeyPath:ofObject:change:context:]', symObjAddr: 0x6E8, symBinAddr: 0x15708, symSize: 0x124 }
  - { offset: 0x23A0AB, size: 0x8, addend: 0x0, symName: '-[RNSScreenView setStackPresentation:]', symObjAddr: 0x80C, symBinAddr: 0x1582C, symSize: 0x1B0 }
  - { offset: 0x23A13E, size: 0x8, addend: 0x0, symName: '-[RNSScreenView setStackAnimation:]', symObjAddr: 0x9BC, symBinAddr: 0x159DC, symSize: 0x34 }
  - { offset: 0x23A181, size: 0x8, addend: 0x0, symName: '-[RNSScreenView setGestureEnabled:]', symObjAddr: 0x9F0, symBinAddr: 0x15A10, symSize: 0x40 }
  - { offset: 0x23A1C0, size: 0x8, addend: 0x0, symName: '-[RNSScreenView setReplaceAnimation:]', symObjAddr: 0xA30, symBinAddr: 0x15A50, symSize: 0x10 }
  - { offset: 0x23A200, size: 0x8, addend: 0x0, symName: '-[RNSScreenView setActivityStateOrNil:]', symObjAddr: 0xA40, symBinAddr: 0x15A60, symSize: 0xB0 }
  - { offset: 0x23A254, size: 0x8, addend: 0x0, symName: '-[RNSScreenView maybeAssertActivityStateProgressionOldValue:newValue:]', symObjAddr: 0xAF0, symBinAddr: 0x15B10, symSize: 0x54 }
  - { offset: 0x23A2C5, size: 0x8, addend: 0x0, symName: '-[RNSScreenView isNativeStackScreen]', symObjAddr: 0xB44, symBinAddr: 0x15B64, symSize: 0x60 }
  - { offset: 0x23A2FB, size: 0x8, addend: 0x0, symName: '-[RNSScreenView setStatusBarStyle:]', symObjAddr: 0xBA4, symBinAddr: 0x15BC4, symSize: 0x44 }
  - { offset: 0x23A33E, size: 0x8, addend: 0x0, symName: '-[RNSScreenView setStatusBarAnimation:]', symObjAddr: 0xBE8, symBinAddr: 0x15C08, symSize: 0x28 }
  - { offset: 0x23A37F, size: 0x8, addend: 0x0, symName: '-[RNSScreenView setStatusBarHidden:]', symObjAddr: 0xC10, symBinAddr: 0x15C30, symSize: 0xF8 }
  - { offset: 0x23A3BE, size: 0x8, addend: 0x0, symName: '-[RNSScreenView setScreenOrientation:]', symObjAddr: 0xD08, symBinAddr: 0x15D28, symSize: 0x28 }
  - { offset: 0x23A3FF, size: 0x8, addend: 0x0, symName: '-[RNSScreenView setHomeIndicatorHidden:]', symObjAddr: 0xD30, symBinAddr: 0x15D50, symSize: 0x28 }
  - { offset: 0x23A43E, size: 0x8, addend: 0x0, symName: '-[RNSScreenView reactSuperview]', symObjAddr: 0xD58, symBinAddr: 0x15D78, symSize: 0x20 }
  - { offset: 0x23A474, size: 0x8, addend: 0x0, symName: '-[RNSScreenView registerContentWrapper:contentHeightErrata:]', symObjAddr: 0xD78, symBinAddr: 0x15D98, symSize: 0xC8 }
  - { offset: 0x23A530, size: 0x8, addend: 0x0, symName: '-[RNSScreenView contentWrapper:receivedReactFrame:]', symObjAddr: 0xE40, symBinAddr: 0x15E60, symSize: 0x1DC }
  - { offset: 0x23A5CD, size: 0x8, addend: 0x0, symName: '-[RNSScreenView addSubview:]', symObjAddr: 0x101C, symBinAddr: 0x1603C, symSize: 0xF8 }
  - { offset: 0x23A73C, size: 0x8, addend: 0x0, symName: '-[RNSScreenView notifyDismissedWithCount:]', symObjAddr: 0x1114, symBinAddr: 0x16134, symSize: 0xD4 }
  - { offset: 0x23AA3F, size: 0x8, addend: 0x0, symName: '-[RNSScreenView notifyDismissCancelledWithDismissCount:]', symObjAddr: 0x11E8, symBinAddr: 0x16208, symSize: 0xD4 }
  - { offset: 0x23ACEE, size: 0x8, addend: 0x0, symName: '-[RNSScreenView notifyWillAppear]', symObjAddr: 0x12BC, symBinAddr: 0x162DC, symSize: 0xEC }
  - { offset: 0x23AF8C, size: 0x8, addend: 0x0, symName: '-[RNSScreenView notifyWillDisappear]', symObjAddr: 0x13A8, symBinAddr: 0x163C8, symSize: 0xF0 }
  - { offset: 0x23B22A, size: 0x8, addend: 0x0, symName: '-[RNSScreenView notifyAppear]', symObjAddr: 0x1498, symBinAddr: 0x164B8, symSize: 0xCC }
  - { offset: 0x23B4C8, size: 0x8, addend: 0x0, symName: '-[RNSScreenView notifyDisappear]', symObjAddr: 0x1564, symBinAddr: 0x16584, symSize: 0xCC }
  - { offset: 0x23B766, size: 0x8, addend: 0x0, symName: '-[RNSScreenView notifySheetDetentChangeToIndex:isStable:]', symObjAddr: 0x1630, symBinAddr: 0x16650, symSize: 0xEC }
  - { offset: 0x23BA3E, size: 0x8, addend: 0x0, symName: '-[RNSScreenView notifyHeaderHeightChange:]', symObjAddr: 0x171C, symBinAddr: 0x1673C, symSize: 0x168 }
  - { offset: 0x23BD0C, size: 0x8, addend: 0x0, symName: '-[RNSScreenView notifyGestureCancel]', symObjAddr: 0x1884, symBinAddr: 0x168A4, symSize: 0xCC }
  - { offset: 0x23BFAA, size: 0x8, addend: 0x0, symName: '-[RNSScreenView isMountedUnderScreenOrReactRoot]', symObjAddr: 0x1950, symBinAddr: 0x16970, symSize: 0xAC }
  - { offset: 0x23BFF8, size: 0x8, addend: 0x0, symName: '-[RNSScreenView didMoveToWindow]', symObjAddr: 0x19FC, symBinAddr: 0x16A1C, symSize: 0xA8 }
  - { offset: 0x23C02A, size: 0x8, addend: 0x0, symName: '-[RNSScreenView touchHandler]', symObjAddr: 0x1AA4, symBinAddr: 0x16AC4, symSize: 0x30 }
  - { offset: 0x23C060, size: 0x8, addend: 0x0, symName: '-[RNSScreenView notifyFinishTransitioning]', symObjAddr: 0x1AD4, symBinAddr: 0x16AF4, symSize: 0x10 }
  - { offset: 0x23C092, size: 0x8, addend: 0x0, symName: '-[RNSScreenView notifyTransitionProgress:closing:goingForward:]', symObjAddr: 0x1AE4, symBinAddr: 0x16B04, symSize: 0x194 }
  - { offset: 0x23C382, size: 0x8, addend: 0x0, symName: '-[RNSScreenView presentationControllerShouldDismiss:]', symObjAddr: 0x1C78, symBinAddr: 0x16C98, symSize: 0x2C }
  - { offset: 0x23C3C5, size: 0x8, addend: 0x0, symName: '-[RNSScreenView presentationControllerDidAttemptToDismiss:]', symObjAddr: 0x1CA4, symBinAddr: 0x16CC4, symSize: 0x48 }
  - { offset: 0x23C404, size: 0x8, addend: 0x0, symName: '-[RNSScreenView presentationControllerDidDismiss:]', symObjAddr: 0x1CEC, symBinAddr: 0x16D0C, symSize: 0xA8 }
  - { offset: 0x23C447, size: 0x8, addend: 0x0, symName: '-[RNSScreenView findHeaderConfig]', symObjAddr: 0x1D94, symBinAddr: 0x16DB4, symSize: 0x1D0 }
  - { offset: 0x23C495, size: 0x8, addend: 0x0, symName: '-[RNSScreenView tryFindDescendantScrollView]', symObjAddr: 0x1F64, symBinAddr: 0x16F84, symSize: 0x10C }
  - { offset: 0x23C50D, size: 0x8, addend: 0x0, symName: '-[RNSScreenView isModal]', symObjAddr: 0x2070, symBinAddr: 0x17090, symSize: 0x1C }
  - { offset: 0x23C543, size: 0x8, addend: 0x0, symName: '-[RNSScreenView isPresentedAsNativeModal]', symObjAddr: 0x208C, symBinAddr: 0x170AC, symSize: 0x9C }
  - { offset: 0x23C579, size: 0x8, addend: 0x0, symName: '-[RNSScreenView isFullscreenModal]', symObjAddr: 0x2128, symBinAddr: 0x17148, symSize: 0x54 }
  - { offset: 0x23C5AF, size: 0x8, addend: 0x0, symName: '-[RNSScreenView isTransparentModal]', symObjAddr: 0x217C, symBinAddr: 0x1719C, symSize: 0x88 }
  - { offset: 0x23C5E5, size: 0x8, addend: 0x0, symName: '-[RNSScreenView invalidate]', symObjAddr: 0x2204, symBinAddr: 0x17224, symSize: 0x78 }
  - { offset: 0x23C617, size: 0x8, addend: 0x0, symName: '-[RNSScreenView setPropertyForSheet:withBlock:animate:]', symObjAddr: 0x227C, symBinAddr: 0x1729C, symSize: 0x78 }
  - { offset: 0x23C68C, size: 0x8, addend: 0x0, symName: '-[RNSScreenView setAllowedDetentsForSheet:to:animate:]', symObjAddr: 0x22F4, symBinAddr: 0x17314, symSize: 0xD8 }
  - { offset: 0x23C6F1, size: 0x8, addend: 0x0, symName: '___54-[RNSScreenView setAllowedDetentsForSheet:to:animate:]_block_invoke', symObjAddr: 0x23CC, symBinAddr: 0x173EC, symSize: 0x8 }
  - { offset: 0x23C740, size: 0x8, addend: 0x0, symName: ___copy_helper_block_ea8_32s40s, symObjAddr: 0x23D4, symBinAddr: 0x173F4, symSize: 0x28 }
  - { offset: 0x23C769, size: 0x8, addend: 0x0, symName: ___destroy_helper_block_ea8_32s40s, symObjAddr: 0x23FC, symBinAddr: 0x1741C, symSize: 0x28 }
  - { offset: 0x23C788, size: 0x8, addend: 0x0, symName: '-[RNSScreenView setSelectedDetentForSheet:to:animate:]', symObjAddr: 0x2424, symBinAddr: 0x17444, symSize: 0x100 }
  - { offset: 0x23C7ED, size: 0x8, addend: 0x0, symName: '___54-[RNSScreenView setSelectedDetentForSheet:to:animate:]_block_invoke', symObjAddr: 0x2524, symBinAddr: 0x17544, symSize: 0x8 }
  - { offset: 0x23C83C, size: 0x8, addend: 0x0, symName: '-[RNSScreenView setCornerRadiusForSheet:to:animate:]', symObjAddr: 0x252C, symBinAddr: 0x1754C, symSize: 0xC8 }
  - { offset: 0x23C8A1, size: 0x8, addend: 0x0, symName: '___52-[RNSScreenView setCornerRadiusForSheet:to:animate:]_block_invoke', symObjAddr: 0x25F4, symBinAddr: 0x17614, symSize: 0x20 }
  - { offset: 0x23C8F0, size: 0x8, addend: 0x0, symName: ___copy_helper_block_ea8_32s, symObjAddr: 0x2614, symBinAddr: 0x17634, symSize: 0x8 }
  - { offset: 0x23C917, size: 0x8, addend: 0x0, symName: ___destroy_helper_block_ea8_32s, symObjAddr: 0x261C, symBinAddr: 0x1763C, symSize: 0x8 }
  - { offset: 0x23C936, size: 0x8, addend: 0x0, symName: '-[RNSScreenView setGrabberVisibleForSheet:to:animate:]', symObjAddr: 0x2624, symBinAddr: 0x17644, symSize: 0xC0 }
  - { offset: 0x23C997, size: 0x8, addend: 0x0, symName: '___54-[RNSScreenView setGrabberVisibleForSheet:to:animate:]_block_invoke', symObjAddr: 0x26E4, symBinAddr: 0x17704, symSize: 0xC }
  - { offset: 0x23C9E6, size: 0x8, addend: 0x0, symName: '-[RNSScreenView setLargestUndimmedDetentForSheet:to:animate:]', symObjAddr: 0x26F0, symBinAddr: 0x17710, symSize: 0x100 }
  - { offset: 0x23CA4B, size: 0x8, addend: 0x0, symName: '___61-[RNSScreenView setLargestUndimmedDetentForSheet:to:animate:]_block_invoke', symObjAddr: 0x27F0, symBinAddr: 0x17810, symSize: 0x8 }
  - { offset: 0x23CA9A, size: 0x8, addend: 0x0, symName: '-[RNSScreenView detentIndexFromDetentIdentifier:]', symObjAddr: 0x27F8, symBinAddr: 0x17818, symSize: 0xF8 }
  - { offset: 0x23CAFE, size: 0x8, addend: 0x0, symName: '-[RNSScreenView sheetPresentationControllerDidChangeSelectedDetentIdentifier:]', symObjAddr: 0x28F0, symBinAddr: 0x17910, symSize: 0x68 }
  - { offset: 0x23CB52, size: 0x8, addend: 0x0, symName: '-[RNSScreenView updateFormSheetPresentationStyle]', symObjAddr: 0x2958, symBinAddr: 0x17978, symSize: 0x338 }
  - { offset: 0x23CC21, size: 0x8, addend: 0x0, symName: '-[RNSScreenView detentsFromValues:withResolver:]', symObjAddr: 0x2C90, symBinAddr: 0x17CB0, symSize: 0x104 }
  - { offset: 0x23CC86, size: 0x8, addend: 0x0, symName: '___48-[RNSScreenView detentsFromValues:withResolver:]_block_invoke', symObjAddr: 0x2D94, symBinAddr: 0x17DB4, symSize: 0x138 }
  - { offset: 0x23CD1C, size: 0x8, addend: 0x0, symName: '___48-[RNSScreenView detentsFromValues:withResolver:]_block_invoke_2', symObjAddr: 0x2ECC, symBinAddr: 0x17EEC, symSize: 0x10 }
  - { offset: 0x23CD93, size: 0x8, addend: 0x0, symName: ___copy_helper_block_ea8_32s40b, symObjAddr: 0x2EDC, symBinAddr: 0x17EFC, symSize: 0x34 }
  - { offset: 0x23CDBC, size: 0x8, addend: 0x0, symName: '-[RNSScreenView detentsFromMaxHeightFractions:]', symObjAddr: 0x2F10, symBinAddr: 0x17F30, symSize: 0x20 }
  - { offset: 0x23CE03, size: 0x8, addend: 0x0, symName: '___47-[RNSScreenView detentsFromMaxHeightFractions:]_block_invoke', symObjAddr: 0x2F30, symBinAddr: 0x17F50, symSize: 0xB8 }
  - { offset: 0x23CE52, size: 0x8, addend: 0x0, symName: '-[RNSScreenView detentsFromMaxHeights:]', symObjAddr: 0x2FE8, symBinAddr: 0x18008, symSize: 0x20 }
  - { offset: 0x23CE99, size: 0x8, addend: 0x0, symName: '___39-[RNSScreenView detentsFromMaxHeights:]_block_invoke', symObjAddr: 0x3008, symBinAddr: 0x18028, symSize: 0x98 }
  - { offset: 0x23CEE8, size: 0x8, addend: 0x0, symName: '-[RNSScreenView shouldOverrideScrollViewContentInsetAdjustmentBehavior]', symObjAddr: 0x30A0, symBinAddr: 0x180C0, symSize: 0x94 }
  - { offset: 0x23CF4D, size: 0x8, addend: 0x0, symName: '-[RNSScreenView overrideScrollViewBehaviorInFirstDescendantChainIfNeeded]', symObjAddr: 0x3134, symBinAddr: 0x18154, symSize: 0x3C }
  - { offset: 0x23CF7F, size: 0x8, addend: 0x0, symName: '-[RNSScreenView postNotificationForEventDispatcherObserversWithEvent:]', symObjAddr: 0x3170, symBinAddr: 0x18190, symSize: 0x90 }
  - { offset: 0x23CFCF, size: 0x8, addend: 0x0, symName: '-[RNSScreenView hasHeaderConfig]', symObjAddr: 0x3200, symBinAddr: 0x18220, symSize: 0x38 }
  - { offset: 0x23D005, size: 0x8, addend: 0x0, symName: '-[RNSScreenView willBeUnmountedInUpcomingTransaction]', symObjAddr: 0x3238, symBinAddr: 0x18258, symSize: 0x14 }
  - { offset: 0x23D0B0, size: 0x8, addend: 0x0, symName: '+[RNSScreenView componentDescriptorProvider]', symObjAddr: 0x324C, symBinAddr: 0x1826C, symSize: 0x20 }
  - { offset: 0x23D0E5, size: 0x8, addend: 0x0, symName: '+[RNSScreenView componentDescriptorProvider]', symObjAddr: 0x324C, symBinAddr: 0x1826C, symSize: 0x20 }
  - { offset: 0x23D149, size: 0x8, addend: 0x0, symName: '+[RNSScreenView shouldBeRecycled]', symObjAddr: 0x326C, symBinAddr: 0x1828C, symSize: 0x8 }
  - { offset: 0x23D17B, size: 0x8, addend: 0x0, symName: '-[RNSScreenView mountChildComponentView:index:]', symObjAddr: 0x3274, symBinAddr: 0x18294, symSize: 0x12C }
  - { offset: 0x23D1EB, size: 0x8, addend: 0x0, symName: '-[RNSScreenView unmountChildComponentView:index:]', symObjAddr: 0x33A0, symBinAddr: 0x183C0, symSize: 0x110 }
  - { offset: 0x23D509, size: 0x8, addend: 0x0, symName: '-[RNSScreenView updateProps:oldProps:]', symObjAddr: 0x34B0, symBinAddr: 0x184D0, symSize: 0x684 }
  - { offset: 0x23E291, size: 0x8, addend: 0x0, symName: '-[RNSScreenView updateState:oldState:]', symObjAddr: 0x3B34, symBinAddr: 0x18B54, symSize: 0x8C }
  - { offset: 0x23E5EB, size: 0x8, addend: 0x0, symName: '-[RNSScreenView updateLayoutMetrics:oldLayoutMetrics:]', symObjAddr: 0x3C24, symBinAddr: 0x18BE0, symSize: 0x134 }
  - { offset: 0x23E650, size: 0x8, addend: 0x0, symName: '-[RNSScreenView finalizeUpdates:]', symObjAddr: 0x3D58, symBinAddr: 0x18D14, symSize: 0x50 }
  - { offset: 0x23E693, size: 0x8, addend: 0x0, symName: '-[RNSScreenView fullScreenSwipeEnabled]', symObjAddr: 0x3DA8, symBinAddr: 0x18D64, symSize: 0x10 }
  - { offset: 0x23E6C9, size: 0x8, addend: 0x0, symName: '-[RNSScreenView setFullScreenSwipeEnabled:]', symObjAddr: 0x3DB8, symBinAddr: 0x18D74, symSize: 0x10 }
  - { offset: 0x23E704, size: 0x8, addend: 0x0, symName: '-[RNSScreenView fullScreenSwipeShadowEnabled]', symObjAddr: 0x3DC8, symBinAddr: 0x18D84, symSize: 0x10 }
  - { offset: 0x23E73A, size: 0x8, addend: 0x0, symName: '-[RNSScreenView setFullScreenSwipeShadowEnabled:]', symObjAddr: 0x3DD8, symBinAddr: 0x18D94, symSize: 0x10 }
  - { offset: 0x23E775, size: 0x8, addend: 0x0, symName: '-[RNSScreenView gestureEnabled]', symObjAddr: 0x3DE8, symBinAddr: 0x18DA4, symSize: 0x10 }
  - { offset: 0x23E7AB, size: 0x8, addend: 0x0, symName: '-[RNSScreenView hasStatusBarHiddenSet]', symObjAddr: 0x3DF8, symBinAddr: 0x18DB4, symSize: 0x10 }
  - { offset: 0x23E7E1, size: 0x8, addend: 0x0, symName: '-[RNSScreenView setHasStatusBarHiddenSet:]', symObjAddr: 0x3E08, symBinAddr: 0x18DC4, symSize: 0x10 }
  - { offset: 0x23E81C, size: 0x8, addend: 0x0, symName: '-[RNSScreenView hasStatusBarStyleSet]', symObjAddr: 0x3E18, symBinAddr: 0x18DD4, symSize: 0x10 }
  - { offset: 0x23E852, size: 0x8, addend: 0x0, symName: '-[RNSScreenView setHasStatusBarStyleSet:]', symObjAddr: 0x3E28, symBinAddr: 0x18DE4, symSize: 0x10 }
  - { offset: 0x23E88D, size: 0x8, addend: 0x0, symName: '-[RNSScreenView hasStatusBarAnimationSet]', symObjAddr: 0x3E38, symBinAddr: 0x18DF4, symSize: 0x10 }
  - { offset: 0x23E8C3, size: 0x8, addend: 0x0, symName: '-[RNSScreenView setHasStatusBarAnimationSet:]', symObjAddr: 0x3E48, symBinAddr: 0x18E04, symSize: 0x10 }
  - { offset: 0x23E8FE, size: 0x8, addend: 0x0, symName: '-[RNSScreenView hasHomeIndicatorHiddenSet]', symObjAddr: 0x3E58, symBinAddr: 0x18E14, symSize: 0x10 }
  - { offset: 0x23E934, size: 0x8, addend: 0x0, symName: '-[RNSScreenView setHasHomeIndicatorHiddenSet:]', symObjAddr: 0x3E68, symBinAddr: 0x18E24, symSize: 0x10 }
  - { offset: 0x23E96F, size: 0x8, addend: 0x0, symName: '-[RNSScreenView hasOrientationSet]', symObjAddr: 0x3E78, symBinAddr: 0x18E34, symSize: 0x10 }
  - { offset: 0x23E9A5, size: 0x8, addend: 0x0, symName: '-[RNSScreenView setHasOrientationSet:]', symObjAddr: 0x3E88, symBinAddr: 0x18E44, symSize: 0x10 }
  - { offset: 0x23E9E0, size: 0x8, addend: 0x0, symName: '-[RNSScreenView stackAnimation]', symObjAddr: 0x3E98, symBinAddr: 0x18E54, symSize: 0x10 }
  - { offset: 0x23EA16, size: 0x8, addend: 0x0, symName: '-[RNSScreenView stackPresentation]', symObjAddr: 0x3EA8, symBinAddr: 0x18E64, symSize: 0x10 }
  - { offset: 0x23EA4C, size: 0x8, addend: 0x0, symName: '-[RNSScreenView swipeDirection]', symObjAddr: 0x3EB8, symBinAddr: 0x18E74, symSize: 0x10 }
  - { offset: 0x23EA82, size: 0x8, addend: 0x0, symName: '-[RNSScreenView setSwipeDirection:]', symObjAddr: 0x3EC8, symBinAddr: 0x18E84, symSize: 0x10 }
  - { offset: 0x23EABF, size: 0x8, addend: 0x0, symName: '-[RNSScreenView replaceAnimation]', symObjAddr: 0x3ED8, symBinAddr: 0x18E94, symSize: 0x10 }
  - { offset: 0x23EAF5, size: 0x8, addend: 0x0, symName: '-[RNSScreenView transitionDuration]', symObjAddr: 0x3EE8, symBinAddr: 0x18EA4, symSize: 0x10 }
  - { offset: 0x23EB2B, size: 0x8, addend: 0x0, symName: '-[RNSScreenView setTransitionDuration:]', symObjAddr: 0x3EF8, symBinAddr: 0x18EB4, symSize: 0x14 }
  - { offset: 0x23EB6B, size: 0x8, addend: 0x0, symName: '-[RNSScreenView dismissed]', symObjAddr: 0x3F0C, symBinAddr: 0x18EC8, symSize: 0x10 }
  - { offset: 0x23EBA1, size: 0x8, addend: 0x0, symName: '-[RNSScreenView hideKeyboardOnSwipe]', symObjAddr: 0x3F1C, symBinAddr: 0x18ED8, symSize: 0x10 }
  - { offset: 0x23EBD7, size: 0x8, addend: 0x0, symName: '-[RNSScreenView setHideKeyboardOnSwipe:]', symObjAddr: 0x3F2C, symBinAddr: 0x18EE8, symSize: 0x10 }
  - { offset: 0x23EC12, size: 0x8, addend: 0x0, symName: '-[RNSScreenView customAnimationOnSwipe]', symObjAddr: 0x3F3C, symBinAddr: 0x18EF8, symSize: 0x10 }
  - { offset: 0x23EC48, size: 0x8, addend: 0x0, symName: '-[RNSScreenView setCustomAnimationOnSwipe:]', symObjAddr: 0x3F4C, symBinAddr: 0x18F08, symSize: 0x10 }
  - { offset: 0x23EC83, size: 0x8, addend: 0x0, symName: '-[RNSScreenView preventNativeDismiss]', symObjAddr: 0x3F5C, symBinAddr: 0x18F18, symSize: 0x10 }
  - { offset: 0x23ECB9, size: 0x8, addend: 0x0, symName: '-[RNSScreenView setPreventNativeDismiss:]', symObjAddr: 0x3F6C, symBinAddr: 0x18F28, symSize: 0x10 }
  - { offset: 0x23ECF4, size: 0x8, addend: 0x0, symName: '-[RNSScreenView controller]', symObjAddr: 0x3F7C, symBinAddr: 0x18F38, symSize: 0x10 }
  - { offset: 0x23ED2A, size: 0x8, addend: 0x0, symName: '-[RNSScreenView setController:]', symObjAddr: 0x3F8C, symBinAddr: 0x18F48, symSize: 0x14 }
  - { offset: 0x23ED6A, size: 0x8, addend: 0x0, symName: '-[RNSScreenView gestureResponseDistance]', symObjAddr: 0x3FA0, symBinAddr: 0x18F5C, symSize: 0x10 }
  - { offset: 0x23EDA0, size: 0x8, addend: 0x0, symName: '-[RNSScreenView setGestureResponseDistance:]', symObjAddr: 0x3FB0, symBinAddr: 0x18F6C, symSize: 0xC }
  - { offset: 0x23EDE0, size: 0x8, addend: 0x0, symName: '-[RNSScreenView activityState]', symObjAddr: 0x3FBC, symBinAddr: 0x18F78, symSize: 0x10 }
  - { offset: 0x23EE16, size: 0x8, addend: 0x0, symName: '-[RNSScreenView setActivityState:]', symObjAddr: 0x3FCC, symBinAddr: 0x18F88, symSize: 0x10 }
  - { offset: 0x23EE53, size: 0x8, addend: 0x0, symName: '-[RNSScreenView screenId]', symObjAddr: 0x3FDC, symBinAddr: 0x18F98, symSize: 0x10 }
  - { offset: 0x23EE89, size: 0x8, addend: 0x0, symName: '-[RNSScreenView setScreenId:]', symObjAddr: 0x3FEC, symBinAddr: 0x18FA8, symSize: 0x14 }
  - { offset: 0x23EEC9, size: 0x8, addend: 0x0, symName: '-[RNSScreenView setReactSuperview:]', symObjAddr: 0x4000, symBinAddr: 0x18FBC, symSize: 0x14 }
  - { offset: 0x23EF09, size: 0x8, addend: 0x0, symName: '-[RNSScreenView statusBarStyle]', symObjAddr: 0x4014, symBinAddr: 0x18FD0, symSize: 0x10 }
  - { offset: 0x23EF3F, size: 0x8, addend: 0x0, symName: '-[RNSScreenView statusBarAnimation]', symObjAddr: 0x4024, symBinAddr: 0x18FE0, symSize: 0x10 }
  - { offset: 0x23EF75, size: 0x8, addend: 0x0, symName: '-[RNSScreenView screenOrientation]', symObjAddr: 0x4034, symBinAddr: 0x18FF0, symSize: 0x10 }
  - { offset: 0x23EFAB, size: 0x8, addend: 0x0, symName: '-[RNSScreenView statusBarHidden]', symObjAddr: 0x4044, symBinAddr: 0x19000, symSize: 0x10 }
  - { offset: 0x23EFE1, size: 0x8, addend: 0x0, symName: '-[RNSScreenView homeIndicatorHidden]', symObjAddr: 0x4054, symBinAddr: 0x19010, symSize: 0x10 }
  - { offset: 0x23F017, size: 0x8, addend: 0x0, symName: '-[RNSScreenView sheetAllowedDetents]', symObjAddr: 0x4064, symBinAddr: 0x19020, symSize: 0x10 }
  - { offset: 0x23F04D, size: 0x8, addend: 0x0, symName: '-[RNSScreenView setSheetAllowedDetents:]', symObjAddr: 0x4074, symBinAddr: 0x19030, symSize: 0x14 }
  - { offset: 0x23F08D, size: 0x8, addend: 0x0, symName: '-[RNSScreenView sheetLargestUndimmedDetent]', symObjAddr: 0x4088, symBinAddr: 0x19044, symSize: 0x10 }
  - { offset: 0x23F0C3, size: 0x8, addend: 0x0, symName: '-[RNSScreenView setSheetLargestUndimmedDetent:]', symObjAddr: 0x4098, symBinAddr: 0x19054, symSize: 0x14 }
  - { offset: 0x23F103, size: 0x8, addend: 0x0, symName: '-[RNSScreenView sheetGrabberVisible]', symObjAddr: 0x40AC, symBinAddr: 0x19068, symSize: 0x10 }
  - { offset: 0x23F139, size: 0x8, addend: 0x0, symName: '-[RNSScreenView setSheetGrabberVisible:]', symObjAddr: 0x40BC, symBinAddr: 0x19078, symSize: 0x10 }
  - { offset: 0x23F174, size: 0x8, addend: 0x0, symName: '-[RNSScreenView sheetCornerRadius]', symObjAddr: 0x40CC, symBinAddr: 0x19088, symSize: 0x10 }
  - { offset: 0x23F1A9, size: 0x8, addend: 0x0, symName: '-[RNSScreenView setSheetCornerRadius:]', symObjAddr: 0x40DC, symBinAddr: 0x19098, symSize: 0x10 }
  - { offset: 0x23F1E7, size: 0x8, addend: 0x0, symName: '-[RNSScreenView sheetInitialDetent]', symObjAddr: 0x40EC, symBinAddr: 0x190A8, symSize: 0x10 }
  - { offset: 0x23F21D, size: 0x8, addend: 0x0, symName: '-[RNSScreenView setSheetInitialDetent:]', symObjAddr: 0x40FC, symBinAddr: 0x190B8, symSize: 0x10 }
  - { offset: 0x23F25A, size: 0x8, addend: 0x0, symName: '-[RNSScreenView sheetExpandsWhenScrolledToEdge]', symObjAddr: 0x410C, symBinAddr: 0x190C8, symSize: 0x10 }
  - { offset: 0x23F290, size: 0x8, addend: 0x0, symName: '-[RNSScreenView setSheetExpandsWhenScrolledToEdge:]', symObjAddr: 0x411C, symBinAddr: 0x190D8, symSize: 0x10 }
  - { offset: 0x23F2CB, size: 0x8, addend: 0x0, symName: '-[RNSScreenView oldLayoutMetrics]', symObjAddr: 0x412C, symBinAddr: 0x190E8, symSize: 0x40 }
  - { offset: 0x23F300, size: 0x8, addend: 0x0, symName: '-[RNSScreenView setOldLayoutMetrics:]', symObjAddr: 0x416C, symBinAddr: 0x19128, symSize: 0x40 }
  - { offset: 0x23F33E, size: 0x8, addend: 0x0, symName: '-[RNSScreenView newLayoutMetrics]', symObjAddr: 0x41AC, symBinAddr: 0x19168, symSize: 0x40 }
  - { offset: 0x23F373, size: 0x8, addend: 0x0, symName: '-[RNSScreenView setNewLayoutMetrics:]', symObjAddr: 0x41EC, symBinAddr: 0x191A8, symSize: 0x40 }
  - { offset: 0x23F3B1, size: 0x8, addend: 0x0, symName: '-[RNSScreenView config]', symObjAddr: 0x422C, symBinAddr: 0x191E8, symSize: 0x20 }
  - { offset: 0x23F3E7, size: 0x8, addend: 0x0, symName: '-[RNSScreenView setConfig:]', symObjAddr: 0x424C, symBinAddr: 0x19208, symSize: 0x14 }
  - { offset: 0x23F427, size: 0x8, addend: 0x0, symName: '-[RNSScreenView isMarkedForUnmountInCurrentTransaction]', symObjAddr: 0x4260, symBinAddr: 0x1921C, symSize: 0x10 }
  - { offset: 0x23F45D, size: 0x8, addend: 0x0, symName: '-[RNSScreenView .cxx_destruct]', symObjAddr: 0x4270, symBinAddr: 0x1922C, symSize: 0x108 }
  - { offset: 0x23F5D8, size: 0x8, addend: 0x0, symName: '-[RNSScreenView .cxx_construct]', symObjAddr: 0x4378, symBinAddr: 0x19334, symSize: 0x94 }
  - { offset: 0x23F6FD, size: 0x8, addend: 0x0, symName: __Z12RNSScreenClsv, symObjAddr: 0x440C, symBinAddr: 0x193C8, symSize: 0xC }
  - { offset: 0x23F71C, size: 0x8, addend: 0x0, symName: '-[RNSScreen initWithView:]', symObjAddr: 0x4418, symBinAddr: 0x193D4, symSize: 0xD4 }
  - { offset: 0x23F763, size: 0x8, addend: 0x0, symName: '-[RNSScreen viewWillAppear:]', symObjAddr: 0x44EC, symBinAddr: 0x194A8, symSize: 0x138 }
  - { offset: 0x23F7A6, size: 0x8, addend: 0x0, symName: '-[RNSScreen viewWillDisappear:]', symObjAddr: 0x4624, symBinAddr: 0x195E0, symSize: 0x214 }
  - { offset: 0x23F812, size: 0x8, addend: 0x0, symName: '-[RNSScreen viewDidAppear:]', symObjAddr: 0x4838, symBinAddr: 0x197F4, symSize: 0xEC }
  - { offset: 0x23F855, size: 0x8, addend: 0x0, symName: '-[RNSScreen viewDidDisappear:]', symObjAddr: 0x4924, symBinAddr: 0x198E0, symSize: 0x19C }
  - { offset: 0x23F898, size: 0x8, addend: 0x0, symName: '-[RNSScreen viewDidLayoutSubviews]', symObjAddr: 0x4AC0, symBinAddr: 0x19A7C, symSize: 0x13C }
  - { offset: 0x23F8EC, size: 0x8, addend: 0x0, symName: '-[RNSScreen isModalWithHeader]', symObjAddr: 0x4BFC, symBinAddr: 0x19BB8, symSize: 0xF4 }
  - { offset: 0x23F922, size: 0x8, addend: 0x0, symName: '-[RNSScreen hasNestedStack]', symObjAddr: 0x4CF0, symBinAddr: 0x19CAC, symSize: 0x134 }
  - { offset: 0x23F970, size: 0x8, addend: 0x0, symName: '-[RNSScreen getStatusBarHeightIsModal:]', symObjAddr: 0x4E24, symBinAddr: 0x19DE0, symSize: 0x100 }
  - { offset: 0x23F9D1, size: 0x8, addend: 0x0, symName: '-[RNSScreen getVisibleNavigationControllerIsModal:]', symObjAddr: 0x4F24, symBinAddr: 0x19EE0, symSize: 0xA8 }
  - { offset: 0x23FA29, size: 0x8, addend: 0x0, symName: '-[RNSScreen calculateHeaderHeightIsModal:]', symObjAddr: 0x4FCC, symBinAddr: 0x19F88, symSize: 0xB0 }
  - { offset: 0x23FAA3, size: 0x8, addend: 0x0, symName: '-[RNSScreen calculateAndNotifyHeaderHeightChangeIsModal:]', symObjAddr: 0x507C, symBinAddr: 0x1A038, symSize: 0x64 }
  - { offset: 0x23FAF7, size: 0x8, addend: 0x0, symName: '-[RNSScreen notifyFinishTransitioning]', symObjAddr: 0x50E0, symBinAddr: 0x1A09C, symSize: 0x64 }
  - { offset: 0x23FB29, size: 0x8, addend: 0x0, symName: '-[RNSScreen willMoveToParentViewController:]', symObjAddr: 0x5144, symBinAddr: 0x1A100, symSize: 0xE4 }
  - { offset: 0x23FB84, size: 0x8, addend: 0x0, symName: '-[RNSScreen findFirstResponder:]', symObjAddr: 0x5228, symBinAddr: 0x1A1E4, symSize: 0x16C }
  - { offset: 0x23FC03, size: 0x8, addend: 0x0, symName: '-[RNSScreen setupProgressNotification]', symObjAddr: 0x5394, symBinAddr: 0x1A350, symSize: 0xC0 }
  - { offset: 0x23FC35, size: 0x8, addend: 0x0, symName: '___38-[RNSScreen setupProgressNotification]_block_invoke', symObjAddr: 0x5454, symBinAddr: 0x1A410, symSize: 0x104 }
  - { offset: 0x23FC88, size: 0x8, addend: 0x0, symName: '___38-[RNSScreen setupProgressNotification]_block_invoke.464', symObjAddr: 0x5558, symBinAddr: 0x1A514, symSize: 0x50 }
  - { offset: 0x23FCD7, size: 0x8, addend: 0x0, symName: '-[RNSScreen handleAnimation]', symObjAddr: 0x55A8, symBinAddr: 0x1A564, symSize: 0x100 }
  - { offset: 0x23FD21, size: 0x8, addend: 0x0, symName: '-[RNSScreen notifyTransitionProgress:closing:goingForward:]', symObjAddr: 0x56A8, symBinAddr: 0x1A664, symSize: 0xC8 }
  - { offset: 0x23FD86, size: 0x8, addend: 0x0, symName: '-[RNSScreen findChildVCForConfigAndTrait:includingModals:]', symObjAddr: 0x5770, symBinAddr: 0x1A72C, symSize: 0x1CC }
  - { offset: 0x23FE30, size: 0x8, addend: 0x0, symName: '-[RNSScreen hasTraitSet:]', symObjAddr: 0x593C, symBinAddr: 0x1A8F8, symSize: 0x100 }
  - { offset: 0x23FE94, size: 0x8, addend: 0x0, symName: '-[RNSScreen childViewControllerForStatusBarHidden]', symObjAddr: 0x5A3C, symBinAddr: 0x1A9F8, symSize: 0x48 }
  - { offset: 0x23FEDB, size: 0x8, addend: 0x0, symName: '-[RNSScreen prefersStatusBarHidden]', symObjAddr: 0x5A84, symBinAddr: 0x1AA40, symSize: 0x44 }
  - { offset: 0x23FF11, size: 0x8, addend: 0x0, symName: '-[RNSScreen childViewControllerForStatusBarStyle]', symObjAddr: 0x5AC8, symBinAddr: 0x1AA84, symSize: 0x48 }
  - { offset: 0x23FF58, size: 0x8, addend: 0x0, symName: '-[RNSScreen preferredStatusBarStyle]', symObjAddr: 0x5B10, symBinAddr: 0x1AACC, symSize: 0x58 }
  - { offset: 0x23FF8E, size: 0x8, addend: 0x0, symName: '-[RNSScreen preferredStatusBarUpdateAnimation]', symObjAddr: 0x5B68, symBinAddr: 0x1AB24, symSize: 0x98 }
  - { offset: 0x23FFD5, size: 0x8, addend: 0x0, symName: '-[RNSScreen supportedInterfaceOrientations]', symObjAddr: 0x5C00, symBinAddr: 0x1ABBC, symSize: 0x98 }
  - { offset: 0x24001C, size: 0x8, addend: 0x0, symName: '-[RNSScreen childViewControllerForHomeIndicatorAutoHidden]', symObjAddr: 0x5C98, symBinAddr: 0x1AC54, symSize: 0x48 }
  - { offset: 0x240063, size: 0x8, addend: 0x0, symName: '-[RNSScreen prefersHomeIndicatorAutoHidden]', symObjAddr: 0x5CE0, symBinAddr: 0x1AC9C, symSize: 0x44 }
  - { offset: 0x240099, size: 0x8, addend: 0x0, symName: '-[RNSScreen getParentChildrenCount]', symObjAddr: 0x5D24, symBinAddr: 0x1ACE0, symSize: 0x88 }
  - { offset: 0x2400CF, size: 0x8, addend: 0x0, symName: '-[RNSScreen getIndexOfView:]', symObjAddr: 0x5DAC, symBinAddr: 0x1AD68, symSize: 0xB0 }
  - { offset: 0x240116, size: 0x8, addend: 0x0, symName: '-[RNSScreen screenView]', symObjAddr: 0x5E5C, symBinAddr: 0x1AE18, symSize: 0x10 }
  - { offset: 0x24014C, size: 0x8, addend: 0x0, symName: '-[RNSScreen hideHeaderIfNecessary]', symObjAddr: 0x5E6C, symBinAddr: 0x1AE28, symSize: 0x1B0 }
  - { offset: 0x2402EB, size: 0x8, addend: 0x0, symName: '___34-[RNSScreen hideHeaderIfNecessary]_block_invoke', symObjAddr: 0x601C, symBinAddr: 0x1AFD8, symSize: 0x54 }
  - { offset: 0x24032D, size: 0x8, addend: 0x0, symName: '-[RNSScreen presentViewController:animated:completion:]', symObjAddr: 0x6070, symBinAddr: 0x1B02C, symSize: 0x1C4 }
  - { offset: 0x2403A6, size: 0x8, addend: 0x0, symName: '___55-[RNSScreen presentViewController:animated:completion:]_block_invoke', symObjAddr: 0x6234, symBinAddr: 0x1B1F0, symSize: 0x4 }
  - { offset: 0x2403DC, size: 0x8, addend: 0x0, symName: '___55-[RNSScreen presentViewController:animated:completion:]_block_invoke_2', symObjAddr: 0x6238, symBinAddr: 0x1B1F4, symSize: 0x40 }
  - { offset: 0x24045E, size: 0x8, addend: 0x0, symName: ___copy_helper_block_ea8_32s40s48b, symObjAddr: 0x6278, symBinAddr: 0x1B234, symSize: 0x3C }
  - { offset: 0x240487, size: 0x8, addend: 0x0, symName: ___destroy_helper_block_ea8_32s40s48s, symObjAddr: 0x62B4, symBinAddr: 0x1B270, symSize: 0x30 }
  - { offset: 0x2404A6, size: 0x8, addend: 0x0, symName: '-[RNSScreen evaluateOrientation]', symObjAddr: 0x62E4, symBinAddr: 0x1B2A0, symSize: 0xD4 }
  - { offset: 0x240517, size: 0x8, addend: 0x0, symName: '-[RNSScreen setViewToSnapshot]', symObjAddr: 0x63B8, symBinAddr: 0x1B374, symSize: 0x13C }
  - { offset: 0x240572, size: 0x8, addend: 0x0, symName: '-[RNSScreen .cxx_destruct]', symObjAddr: 0x64F4, symBinAddr: 0x1B4B0, symSize: 0x64 }
  - { offset: 0x2405A4, size: 0x8, addend: 0x0, symName: '+[RNSScreenManager moduleName]', symObjAddr: 0x6558, symBinAddr: 0x1B514, symSize: 0xC }
  - { offset: 0x2405D6, size: 0x8, addend: 0x0, symName: '+[RNSScreenManager load]', symObjAddr: 0x6564, symBinAddr: 0x1B520, symSize: 0x4 }
  - { offset: 0x24060A, size: 0x8, addend: 0x0, symName: '+[RNSScreenManager load]', symObjAddr: 0x6564, symBinAddr: 0x1B520, symSize: 0x4 }
  - { offset: 0x24062C, size: 0x8, addend: 0x0, symName: '+[RNSScreenManager propConfig_activityState]', symObjAddr: 0x6568, symBinAddr: 0x1B524, symSize: 0xC }
  - { offset: 0x24065E, size: 0x8, addend: 0x0, symName: '+[RNSScreenManager propConfig_customAnimationOnSwipe]', symObjAddr: 0x6574, symBinAddr: 0x1B530, symSize: 0xC }
  - { offset: 0x240690, size: 0x8, addend: 0x0, symName: '+[RNSScreenManager propConfig_fullScreenSwipeEnabled]', symObjAddr: 0x6580, symBinAddr: 0x1B53C, symSize: 0xC }
  - { offset: 0x2406C2, size: 0x8, addend: 0x0, symName: '+[RNSScreenManager propConfig_fullScreenSwipeShadowEnabled]', symObjAddr: 0x658C, symBinAddr: 0x1B548, symSize: 0xC }
  - { offset: 0x2406F4, size: 0x8, addend: 0x0, symName: '+[RNSScreenManager propConfig_gestureEnabled]', symObjAddr: 0x6598, symBinAddr: 0x1B554, symSize: 0xC }
  - { offset: 0x240726, size: 0x8, addend: 0x0, symName: '+[RNSScreenManager propConfig_gestureResponseDistance]', symObjAddr: 0x65A4, symBinAddr: 0x1B560, symSize: 0xC }
  - { offset: 0x240758, size: 0x8, addend: 0x0, symName: '+[RNSScreenManager propConfig_hideKeyboardOnSwipe]', symObjAddr: 0x65B0, symBinAddr: 0x1B56C, symSize: 0xC }
  - { offset: 0x24078A, size: 0x8, addend: 0x0, symName: '+[RNSScreenManager propConfig_preventNativeDismiss]', symObjAddr: 0x65BC, symBinAddr: 0x1B578, symSize: 0xC }
  - { offset: 0x2407BC, size: 0x8, addend: 0x0, symName: '+[RNSScreenManager propConfig_replaceAnimation]', symObjAddr: 0x65C8, symBinAddr: 0x1B584, symSize: 0xC }
  - { offset: 0x2407EE, size: 0x8, addend: 0x0, symName: '+[RNSScreenManager propConfig_stackPresentation]', symObjAddr: 0x65D4, symBinAddr: 0x1B590, symSize: 0xC }
  - { offset: 0x240820, size: 0x8, addend: 0x0, symName: '+[RNSScreenManager propConfig_stackAnimation]', symObjAddr: 0x65E0, symBinAddr: 0x1B59C, symSize: 0xC }
  - { offset: 0x240852, size: 0x8, addend: 0x0, symName: '+[RNSScreenManager propConfig_swipeDirection]', symObjAddr: 0x65EC, symBinAddr: 0x1B5A8, symSize: 0xC }
  - { offset: 0x240884, size: 0x8, addend: 0x0, symName: '+[RNSScreenManager propConfig_transitionDuration]', symObjAddr: 0x65F8, symBinAddr: 0x1B5B4, symSize: 0xC }
  - { offset: 0x2408B6, size: 0x8, addend: 0x0, symName: '+[RNSScreenManager propConfig_screenId]', symObjAddr: 0x6604, symBinAddr: 0x1B5C0, symSize: 0xC }
  - { offset: 0x2408E8, size: 0x8, addend: 0x0, symName: '+[RNSScreenManager propConfig_onAppear]', symObjAddr: 0x6610, symBinAddr: 0x1B5CC, symSize: 0xC }
  - { offset: 0x24091A, size: 0x8, addend: 0x0, symName: '+[RNSScreenManager propConfig_onDisappear]', symObjAddr: 0x661C, symBinAddr: 0x1B5D8, symSize: 0xC }
  - { offset: 0x24094C, size: 0x8, addend: 0x0, symName: '+[RNSScreenManager propConfig_onHeaderHeightChange]', symObjAddr: 0x6628, symBinAddr: 0x1B5E4, symSize: 0xC }
  - { offset: 0x24097E, size: 0x8, addend: 0x0, symName: '+[RNSScreenManager propConfig_onDismissed]', symObjAddr: 0x6634, symBinAddr: 0x1B5F0, symSize: 0xC }
  - { offset: 0x2409B0, size: 0x8, addend: 0x0, symName: '+[RNSScreenManager propConfig_onNativeDismissCancelled]', symObjAddr: 0x6640, symBinAddr: 0x1B5FC, symSize: 0xC }
  - { offset: 0x2409E2, size: 0x8, addend: 0x0, symName: '+[RNSScreenManager propConfig_onTransitionProgress]', symObjAddr: 0x664C, symBinAddr: 0x1B608, symSize: 0xC }
  - { offset: 0x240A14, size: 0x8, addend: 0x0, symName: '+[RNSScreenManager propConfig_onWillAppear]', symObjAddr: 0x6658, symBinAddr: 0x1B614, symSize: 0xC }
  - { offset: 0x240A46, size: 0x8, addend: 0x0, symName: '+[RNSScreenManager propConfig_onWillDisappear]', symObjAddr: 0x6664, symBinAddr: 0x1B620, symSize: 0xC }
  - { offset: 0x240A78, size: 0x8, addend: 0x0, symName: '+[RNSScreenManager propConfig_onGestureCancel]', symObjAddr: 0x6670, symBinAddr: 0x1B62C, symSize: 0xC }
  - { offset: 0x240AAA, size: 0x8, addend: 0x0, symName: '+[RNSScreenManager propConfig_onSheetDetentChanged]', symObjAddr: 0x667C, symBinAddr: 0x1B638, symSize: 0xC }
  - { offset: 0x240ADC, size: 0x8, addend: 0x0, symName: '+[RNSScreenManager propConfig_screenOrientation]', symObjAddr: 0x6688, symBinAddr: 0x1B644, symSize: 0xC }
  - { offset: 0x240B0E, size: 0x8, addend: 0x0, symName: '+[RNSScreenManager propConfig_statusBarAnimation]', symObjAddr: 0x6694, symBinAddr: 0x1B650, symSize: 0xC }
  - { offset: 0x240B40, size: 0x8, addend: 0x0, symName: '+[RNSScreenManager propConfig_statusBarHidden]', symObjAddr: 0x66A0, symBinAddr: 0x1B65C, symSize: 0xC }
  - { offset: 0x240B72, size: 0x8, addend: 0x0, symName: '+[RNSScreenManager propConfig_statusBarStyle]', symObjAddr: 0x66AC, symBinAddr: 0x1B668, symSize: 0xC }
  - { offset: 0x240BA4, size: 0x8, addend: 0x0, symName: '+[RNSScreenManager propConfig_homeIndicatorHidden]', symObjAddr: 0x66B8, symBinAddr: 0x1B674, symSize: 0xC }
  - { offset: 0x240BD6, size: 0x8, addend: 0x0, symName: '+[RNSScreenManager propConfig_sheetAllowedDetents]', symObjAddr: 0x66C4, symBinAddr: 0x1B680, symSize: 0xC }
  - { offset: 0x240C08, size: 0x8, addend: 0x0, symName: '+[RNSScreenManager propConfig_sheetLargestUndimmedDetent]', symObjAddr: 0x66D0, symBinAddr: 0x1B68C, symSize: 0xC }
  - { offset: 0x240C3A, size: 0x8, addend: 0x0, symName: '+[RNSScreenManager propConfig_sheetGrabberVisible]', symObjAddr: 0x66DC, symBinAddr: 0x1B698, symSize: 0xC }
  - { offset: 0x240C6C, size: 0x8, addend: 0x0, symName: '+[RNSScreenManager propConfig_sheetCornerRadius]', symObjAddr: 0x66E8, symBinAddr: 0x1B6A4, symSize: 0xC }
  - { offset: 0x240C9E, size: 0x8, addend: 0x0, symName: '+[RNSScreenManager propConfig_sheetInitialDetent]', symObjAddr: 0x66F4, symBinAddr: 0x1B6B0, symSize: 0xC }
  - { offset: 0x240CD0, size: 0x8, addend: 0x0, symName: '+[RNSScreenManager propConfig_sheetExpandsWhenScrolledToEdge]', symObjAddr: 0x6700, symBinAddr: 0x1B6BC, symSize: 0xC }
  - { offset: 0x240D02, size: 0x8, addend: 0x0, symName: '-[RNSScreenManager init]', symObjAddr: 0x670C, symBinAddr: 0x1B6C8, symSize: 0x5C }
  - { offset: 0x240D5A, size: 0x8, addend: 0x0, symName: '___24-[RNSScreenManager init]_block_invoke', symObjAddr: 0x6768, symBinAddr: 0x1B724, symSize: 0x50 }
  - { offset: 0x240D83, size: 0x8, addend: 0x0, symName: '-[RNSScreenManager dealloc]', symObjAddr: 0x67B8, symBinAddr: 0x1B774, symSize: 0x54 }
  - { offset: 0x240DD8, size: 0x8, addend: 0x0, symName: '___27-[RNSScreenManager dealloc]_block_invoke', symObjAddr: 0x680C, symBinAddr: 0x1B7C8, symSize: 0x50 }
  - { offset: 0x240E01, size: 0x8, addend: 0x0, symName: '+[RNSScreenManager requiresMainQueueSetup]', symObjAddr: 0x685C, symBinAddr: 0x1B818, symSize: 0x8 }
  - { offset: 0x240E80, size: 0x8, addend: 0x0, symName: '+[RCTConvert(RNSScreen) RNSScreenStackPresentation:].cold.1', symObjAddr: 0xAEA0, symBinAddr: 0x3ECF8, symSize: 0x14 }
  - { offset: 0x240E9C, size: 0x8, addend: 0x0, symName: '+[RCTConvert(RNSScreen) RNSScreenStackPresentation:].cold.1', symObjAddr: 0xAEA0, symBinAddr: 0x3ECF8, symSize: 0x14 }
  - { offset: 0x240EAF, size: 0x8, addend: 0x0, symName: '___52+[RCTConvert(RNSScreen) RNSScreenStackPresentation:]_block_invoke', symObjAddr: 0x68FC, symBinAddr: 0x1B8B8, symSize: 0x18 }
  - { offset: 0x240ED8, size: 0x8, addend: 0x0, symName: '+[RCTConvert(RNSScreen) RNSScreenStackAnimation:].cold.1', symObjAddr: 0xAEB4, symBinAddr: 0x3ED0C, symSize: 0x14 }
  - { offset: 0x240EF4, size: 0x8, addend: 0x0, symName: '+[RCTConvert(RNSScreen) RNSScreenStackAnimation:].cold.1', symObjAddr: 0xAEB4, symBinAddr: 0x3ED0C, symSize: 0x14 }
  - { offset: 0x240F07, size: 0x8, addend: 0x0, symName: '___49+[RCTConvert(RNSScreen) RNSScreenStackAnimation:]_block_invoke', symObjAddr: 0x69AC, symBinAddr: 0x1B968, symSize: 0x18 }
  - { offset: 0x240F30, size: 0x8, addend: 0x0, symName: '+[RCTConvert(RNSScreen) RNSScreenReplaceAnimation:].cold.1', symObjAddr: 0xAEC8, symBinAddr: 0x3ED20, symSize: 0x14 }
  - { offset: 0x240F4C, size: 0x8, addend: 0x0, symName: '+[RCTConvert(RNSScreen) RNSScreenReplaceAnimation:].cold.1', symObjAddr: 0xAEC8, symBinAddr: 0x3ED20, symSize: 0x14 }
  - { offset: 0x240F5F, size: 0x8, addend: 0x0, symName: '___51+[RCTConvert(RNSScreen) RNSScreenReplaceAnimation:]_block_invoke', symObjAddr: 0x6A5C, symBinAddr: 0x1BA18, symSize: 0x18 }
  - { offset: 0x240F88, size: 0x8, addend: 0x0, symName: '+[RCTConvert(RNSScreen) RNSScreenSwipeDirection:].cold.1', symObjAddr: 0xAEDC, symBinAddr: 0x3ED34, symSize: 0x14 }
  - { offset: 0x240FA4, size: 0x8, addend: 0x0, symName: '+[RCTConvert(RNSScreen) RNSScreenSwipeDirection:].cold.1', symObjAddr: 0xAEDC, symBinAddr: 0x3ED34, symSize: 0x14 }
  - { offset: 0x240FB7, size: 0x8, addend: 0x0, symName: '___49+[RCTConvert(RNSScreen) RNSScreenSwipeDirection:]_block_invoke', symObjAddr: 0x6B0C, symBinAddr: 0x1BAC8, symSize: 0x18 }
  - { offset: 0x240FE0, size: 0x8, addend: 0x0, symName: '+[RCTConvert(RNSScreen) UIStatusBarAnimation:].cold.1', symObjAddr: 0xAEF0, symBinAddr: 0x3ED48, symSize: 0x14 }
  - { offset: 0x240FFC, size: 0x8, addend: 0x0, symName: '+[RCTConvert(RNSScreen) UIStatusBarAnimation:].cold.1', symObjAddr: 0xAEF0, symBinAddr: 0x3ED48, symSize: 0x14 }
  - { offset: 0x24100F, size: 0x8, addend: 0x0, symName: '___46+[RCTConvert(RNSScreen) UIStatusBarAnimation:]_block_invoke', symObjAddr: 0x6BBC, symBinAddr: 0x1BB78, symSize: 0x18 }
  - { offset: 0x241038, size: 0x8, addend: 0x0, symName: '+[RCTConvert(RNSScreen) RNSStatusBarStyle:].cold.1', symObjAddr: 0xAF04, symBinAddr: 0x3ED5C, symSize: 0x14 }
  - { offset: 0x241054, size: 0x8, addend: 0x0, symName: '+[RCTConvert(RNSScreen) RNSStatusBarStyle:].cold.1', symObjAddr: 0xAF04, symBinAddr: 0x3ED5C, symSize: 0x14 }
  - { offset: 0x241067, size: 0x8, addend: 0x0, symName: '___43+[RCTConvert(RNSScreen) RNSStatusBarStyle:]_block_invoke', symObjAddr: 0x6C6C, symBinAddr: 0x1BC28, symSize: 0x18 }
  - { offset: 0x241090, size: 0x8, addend: 0x0, symName: '+[RCTConvert(RNSScreen) RNSScreenDetentType:].cold.1', symObjAddr: 0xAF18, symBinAddr: 0x3ED70, symSize: 0x14 }
  - { offset: 0x2410AC, size: 0x8, addend: 0x0, symName: '+[RCTConvert(RNSScreen) RNSScreenDetentType:].cold.1', symObjAddr: 0xAF18, symBinAddr: 0x3ED70, symSize: 0x14 }
  - { offset: 0x2410BF, size: 0x8, addend: 0x0, symName: '___45+[RCTConvert(RNSScreen) RNSScreenDetentType:]_block_invoke', symObjAddr: 0x6D1C, symBinAddr: 0x1BCD8, symSize: 0x18 }
  - { offset: 0x2410E8, size: 0x8, addend: 0x0, symName: '+[RCTConvert(RNSScreen) UIInterfaceOrientationMask:]', symObjAddr: 0x6D34, symBinAddr: 0x1BCF0, symSize: 0x158 }
  - { offset: 0x247CEB, size: 0x8, addend: 0x0, symName: __ZNSt3__110__function12__value_funcIFNS_10shared_ptrIKvEERKN8facebook5react14RNSScreenStateEEEC2B8ne200100EOSB_, symObjAddr: 0x84D8, symBinAddr: 0x1C2A0, symSize: 0x64 }
  - { offset: 0x247D3A, size: 0x8, addend: 0x0, symName: __ZN8facebook5react11StateUpdateD1Ev, symObjAddr: 0x8220, symBinAddr: 0x1C04C, symSize: 0x4C }
  - { offset: 0x247EE0, size: 0x8, addend: 0x0, symName: __ZNSt3__110__function6__funcIZNK8facebook5react13ConcreteStateINS3_14RNSScreenStateEE11updateStateENS_8functionIFNS_10shared_ptrIKvEERKS5_EEEEUlRKSA_E_NS_9allocatorISH_EEFSA_SG_EED1Ev, symObjAddr: 0x82D0, symBinAddr: 0x1C098, symSize: 0x58 }
  - { offset: 0x248050, size: 0x8, addend: 0x0, symName: __ZNSt3__110__function6__funcIZNK8facebook5react13ConcreteStateINS3_14RNSScreenStateEE11updateStateENS_8functionIFNS_10shared_ptrIKvEERKS5_EEEEUlRKSA_E_NS_9allocatorISH_EEFSA_SG_EED0Ev, symObjAddr: 0x8328, symBinAddr: 0x1C0F0, symSize: 0x58 }
  - { offset: 0x2483F7, size: 0x8, addend: 0x0, symName: __ZNKSt3__110__function6__funcIZNK8facebook5react13ConcreteStateINS3_14RNSScreenStateEE11updateStateENS_8functionIFNS_10shared_ptrIKvEERKS5_EEEEUlRKSA_E_NS_9allocatorISH_EEFSA_SG_EE7__cloneEv, symObjAddr: 0x8380, symBinAddr: 0x1C148, symSize: 0x54 }
  - { offset: 0x248786, size: 0x8, addend: 0x0, symName: __ZNKSt3__110__function6__funcIZNK8facebook5react13ConcreteStateINS3_14RNSScreenStateEE11updateStateENS_8functionIFNS_10shared_ptrIKvEERKS5_EEEEUlRKSA_E_NS_9allocatorISH_EEFSA_SG_EE7__cloneEPNS0_6__baseISK_EE, symObjAddr: 0x83D4, symBinAddr: 0x1C19C, symSize: 0x1C }
  - { offset: 0x2488E9, size: 0x8, addend: 0x0, symName: __ZNSt3__110__function6__funcIZNK8facebook5react13ConcreteStateINS3_14RNSScreenStateEE11updateStateENS_8functionIFNS_10shared_ptrIKvEERKS5_EEEEUlRKSA_E_NS_9allocatorISH_EEFSA_SG_EE7destroyEv, symObjAddr: 0x83F0, symBinAddr: 0x1C1B8, symSize: 0x30 }
  - { offset: 0x248A01, size: 0x8, addend: 0x0, symName: __ZNSt3__110__function6__funcIZNK8facebook5react13ConcreteStateINS3_14RNSScreenStateEE11updateStateENS_8functionIFNS_10shared_ptrIKvEERKS5_EEEEUlRKSA_E_NS_9allocatorISH_EEFSA_SG_EE18destroy_deallocateEv, symObjAddr: 0x8420, symBinAddr: 0x1C1E8, symSize: 0x4C }
  - { offset: 0x248CA6, size: 0x8, addend: 0x0, symName: __ZNSt3__110__function6__funcIZNK8facebook5react13ConcreteStateINS3_14RNSScreenStateEE11updateStateENS_8functionIFNS_10shared_ptrIKvEERKS5_EEEEUlRKSA_E_NS_9allocatorISH_EEFSA_SG_EEclESG_, symObjAddr: 0x846C, symBinAddr: 0x1C234, symSize: 0x24 }
  - { offset: 0x248CE0, size: 0x8, addend: 0x0, symName: __ZNSt3__110__function6__funcIZNK8facebook5react13ConcreteStateINS3_14RNSScreenStateEE11updateStateENS_8functionIFNS_10shared_ptrIKvEERKS5_EEEEUlRKSA_E_NS_9allocatorISH_EEFSA_SG_EEclESG_, symObjAddr: 0x846C, symBinAddr: 0x1C234, symSize: 0x24 }
  - { offset: 0x248D0A, size: 0x8, addend: 0x0, symName: __ZNSt3__110__function6__funcIZNK8facebook5react13ConcreteStateINS3_14RNSScreenStateEE11updateStateENS_8functionIFNS_10shared_ptrIKvEERKS5_EEEEUlRKSA_E_NS_9allocatorISH_EEFSA_SG_EEclESG_, symObjAddr: 0x846C, symBinAddr: 0x1C234, symSize: 0x24 }
  - { offset: 0x248D33, size: 0x8, addend: 0x0, symName: __ZNSt3__110__function6__funcIZNK8facebook5react13ConcreteStateINS3_14RNSScreenStateEE11updateStateENS_8functionIFNS_10shared_ptrIKvEERKS5_EEEEUlRKSA_E_NS_9allocatorISH_EEFSA_SG_EEclESG_, symObjAddr: 0x846C, symBinAddr: 0x1C234, symSize: 0x24 }
  - { offset: 0x248D5E, size: 0x8, addend: 0x0, symName: __ZNSt3__110__function6__funcIZNK8facebook5react13ConcreteStateINS3_14RNSScreenStateEE11updateStateENS_8functionIFNS_10shared_ptrIKvEERKS5_EEEEUlRKSA_E_NS_9allocatorISH_EEFSA_SG_EEclESG_, symObjAddr: 0x846C, symBinAddr: 0x1C234, symSize: 0x24 }
  - { offset: 0x248D88, size: 0x8, addend: 0x0, symName: __ZNSt3__110__function6__funcIZNK8facebook5react13ConcreteStateINS3_14RNSScreenStateEE11updateStateENS_8functionIFNS_10shared_ptrIKvEERKS5_EEEEUlRKSA_E_NS_9allocatorISH_EEFSA_SG_EEclESG_, symObjAddr: 0x846C, symBinAddr: 0x1C234, symSize: 0x24 }
  - { offset: 0x248E28, size: 0x8, addend: 0x0, symName: __ZNKSt3__110__function6__funcIZNK8facebook5react13ConcreteStateINS3_14RNSScreenStateEE11updateStateENS_8functionIFNS_10shared_ptrIKvEERKS5_EEEEUlRKSA_E_NS_9allocatorISH_EEFSA_SG_EE6targetERKSt9type_info, symObjAddr: 0x8490, symBinAddr: 0x1C258, symSize: 0x3C }
  - { offset: 0x248E33, size: 0x8, addend: 0x0, symName: __ZNKSt3__110__function6__funcIZNK8facebook5react13ConcreteStateINS3_14RNSScreenStateEE11updateStateENS_8functionIFNS_10shared_ptrIKvEERKS5_EEEEUlRKSA_E_NS_9allocatorISH_EEFSA_SG_EE6targetERKSt9type_info, symObjAddr: 0x8490, symBinAddr: 0x1C258, symSize: 0x3C }
  - { offset: 0x248EE7, size: 0x8, addend: 0x0, symName: __ZNKSt3__110__function6__funcIZNK8facebook5react13ConcreteStateINS3_14RNSScreenStateEE11updateStateENS_8functionIFNS_10shared_ptrIKvEERKS5_EEEEUlRKSA_E_NS_9allocatorISH_EEFSA_SG_EE11target_typeEv, symObjAddr: 0x84CC, symBinAddr: 0x1C294, symSize: 0xC }
  - { offset: 0x248F8F, size: 0x8, addend: 0x0, symName: __ZNSt3__110__function6__funcIZNK8facebook5react13ConcreteStateINS3_14RNSScreenStateEE11updateStateEOS5_EUlRKS5_E_NS_9allocatorISA_EEFNS_10shared_ptrIKvEES9_EED1Ev, symObjAddr: 0x862C, symBinAddr: 0x1C304, symSize: 0x4 }
  - { offset: 0x248FBB, size: 0x8, addend: 0x0, symName: __ZNSt3__110__function6__funcIZNK8facebook5react13ConcreteStateINS3_14RNSScreenStateEE11updateStateEOS5_EUlRKS5_E_NS_9allocatorISA_EEFNS_10shared_ptrIKvEES9_EED0Ev, symObjAddr: 0x8630, symBinAddr: 0x1C308, symSize: 0x4 }
  - { offset: 0x2490AF, size: 0x8, addend: 0x0, symName: __ZNKSt3__110__function6__funcIZNK8facebook5react13ConcreteStateINS3_14RNSScreenStateEE11updateStateEOS5_EUlRKS5_E_NS_9allocatorISA_EEFNS_10shared_ptrIKvEES9_EE7__cloneEv, symObjAddr: 0x8634, symBinAddr: 0x1C30C, symSize: 0x40 }
  - { offset: 0x2492D5, size: 0x8, addend: 0x0, symName: __ZNKSt3__110__function6__funcIZNK8facebook5react13ConcreteStateINS3_14RNSScreenStateEE11updateStateEOS5_EUlRKS5_E_NS_9allocatorISA_EEFNS_10shared_ptrIKvEES9_EE7__cloneEPNS0_6__baseISG_EE, symObjAddr: 0x8674, symBinAddr: 0x1C34C, symSize: 0x20 }
  - { offset: 0x24930C, size: 0x8, addend: 0x0, symName: __ZNKSt3__110__function6__funcIZNK8facebook5react13ConcreteStateINS3_14RNSScreenStateEE11updateStateEOS5_EUlRKS5_E_NS_9allocatorISA_EEFNS_10shared_ptrIKvEES9_EE7__cloneEPNS0_6__baseISG_EE, symObjAddr: 0x8674, symBinAddr: 0x1C34C, symSize: 0x20 }
  - { offset: 0x24933E, size: 0x8, addend: 0x0, symName: __ZNKSt3__110__function6__funcIZNK8facebook5react13ConcreteStateINS3_14RNSScreenStateEE11updateStateEOS5_EUlRKS5_E_NS_9allocatorISA_EEFNS_10shared_ptrIKvEES9_EE7__cloneEPNS0_6__baseISG_EE, symObjAddr: 0x8674, symBinAddr: 0x1C34C, symSize: 0x20 }
  - { offset: 0x2493D8, size: 0x8, addend: 0x0, symName: __ZNSt3__110__function6__funcIZNK8facebook5react13ConcreteStateINS3_14RNSScreenStateEE11updateStateEOS5_EUlRKS5_E_NS_9allocatorISA_EEFNS_10shared_ptrIKvEES9_EE7destroyEv, symObjAddr: 0x8694, symBinAddr: 0x1C36C, symSize: 0x4 }
  - { offset: 0x24942F, size: 0x8, addend: 0x0, symName: __ZNSt3__110__function6__funcIZNK8facebook5react13ConcreteStateINS3_14RNSScreenStateEE11updateStateEOS5_EUlRKS5_E_NS_9allocatorISA_EEFNS_10shared_ptrIKvEES9_EE18destroy_deallocateEv, symObjAddr: 0x8698, symBinAddr: 0x1C370, symSize: 0x4 }
  - { offset: 0x249464, size: 0x8, addend: 0x0, symName: __ZNSt3__110__function6__funcIZNK8facebook5react13ConcreteStateINS3_14RNSScreenStateEE11updateStateEOS5_EUlRKS5_E_NS_9allocatorISA_EEFNS_10shared_ptrIKvEES9_EE18destroy_deallocateEv, symObjAddr: 0x8698, symBinAddr: 0x1C370, symSize: 0x4 }
  - { offset: 0x249489, size: 0x8, addend: 0x0, symName: __ZNSt3__110__function6__funcIZNK8facebook5react13ConcreteStateINS3_14RNSScreenStateEE11updateStateEOS5_EUlRKS5_E_NS_9allocatorISA_EEFNS_10shared_ptrIKvEES9_EE18destroy_deallocateEv, symObjAddr: 0x8698, symBinAddr: 0x1C370, symSize: 0x4 }
  - { offset: 0x2494C0, size: 0x8, addend: 0x0, symName: __ZNSt3__110__function6__funcIZNK8facebook5react13ConcreteStateINS3_14RNSScreenStateEE11updateStateEOS5_EUlRKS5_E_NS_9allocatorISA_EEFNS_10shared_ptrIKvEES9_EE18destroy_deallocateEv, symObjAddr: 0x8698, symBinAddr: 0x1C370, symSize: 0x4 }
  - { offset: 0x2497CE, size: 0x8, addend: 0x0, symName: __ZNSt3__110__function6__funcIZNK8facebook5react13ConcreteStateINS3_14RNSScreenStateEE11updateStateEOS5_EUlRKS5_E_NS_9allocatorISA_EEFNS_10shared_ptrIKvEES9_EEclES9_, symObjAddr: 0x869C, symBinAddr: 0x1C374, symSize: 0x54 }
  - { offset: 0x249B05, size: 0x8, addend: 0x0, symName: __ZNKSt3__110__function6__funcIZNK8facebook5react13ConcreteStateINS3_14RNSScreenStateEE11updateStateEOS5_EUlRKS5_E_NS_9allocatorISA_EEFNS_10shared_ptrIKvEES9_EE6targetERKSt9type_info, symObjAddr: 0x86F0, symBinAddr: 0x1C3C8, symSize: 0x3C }
  - { offset: 0x249B53, size: 0x8, addend: 0x0, symName: __ZNKSt3__110__function6__funcIZNK8facebook5react13ConcreteStateINS3_14RNSScreenStateEE11updateStateEOS5_EUlRKS5_E_NS_9allocatorISA_EEFNS_10shared_ptrIKvEES9_EE11target_typeEv, symObjAddr: 0x872C, symBinAddr: 0x1C404, symSize: 0xC }
  - { offset: 0x24A799, size: 0x8, addend: 0x0, symName: __ZN8facebook5react28RNSScreenComponentDescriptorD1Ev, symObjAddr: 0x8990, symBinAddr: 0x1C528, symSize: 0x4 }
  - { offset: 0x24A7BD, size: 0x8, addend: 0x0, symName: __ZN8facebook5react28RNSScreenComponentDescriptorD1Ev, symObjAddr: 0x8990, symBinAddr: 0x1C528, symSize: 0x4 }
  - { offset: 0x24A7DB, size: 0x8, addend: 0x0, symName: __ZN8facebook5react28RNSScreenComponentDescriptorD1Ev, symObjAddr: 0x8990, symBinAddr: 0x1C528, symSize: 0x4 }
  - { offset: 0x24A7FB, size: 0x8, addend: 0x0, symName: __ZN8facebook5react28RNSScreenComponentDescriptorD1Ev, symObjAddr: 0x8990, symBinAddr: 0x1C528, symSize: 0x4 }
  - { offset: 0x24AAD6, size: 0x8, addend: 0x0, symName: __ZN8facebook5react28RNSScreenComponentDescriptorD0Ev, symObjAddr: 0x8994, symBinAddr: 0x1C52C, symSize: 0x14 }
  - { offset: 0x24AB76, size: 0x8, addend: 0x0, symName: __ZNK8facebook5react27ConcreteComponentDescriptorINS0_19RNSScreenShadowNodeEE18getComponentHandleEv, symObjAddr: 0x89A8, symBinAddr: 0x1C540, symSize: 0xC }
  - { offset: 0x24AB9C, size: 0x8, addend: 0x0, symName: __ZNK8facebook5react27ConcreteComponentDescriptorINS0_19RNSScreenShadowNodeEE16getComponentNameEv, symObjAddr: 0x89B4, symBinAddr: 0x1C54C, symSize: 0xC }
  - { offset: 0x24ABC2, size: 0x8, addend: 0x0, symName: __ZNK8facebook5react27ConcreteComponentDescriptorINS0_19RNSScreenShadowNodeEE9getTraitsEv, symObjAddr: 0x89C0, symBinAddr: 0x1C558, symSize: 0x8 }
  - { offset: 0x24ACC3, size: 0x8, addend: 0x0, symName: __ZNK8facebook5react27ConcreteComponentDescriptorINS0_19RNSScreenShadowNodeEE16createShadowNodeERKNS0_18ShadowNodeFragmentERKNSt3__110shared_ptrIKNS0_16ShadowNodeFamilyEEE, symObjAddr: 0x89C8, symBinAddr: 0x1C560, symSize: 0x90 }
  - { offset: 0x24AF64, size: 0x8, addend: 0x0, symName: __ZNK8facebook5react27ConcreteComponentDescriptorINS0_19RNSScreenShadowNodeEE15cloneShadowNodeERKNS0_10ShadowNodeERKNS0_18ShadowNodeFragmentE, symObjAddr: 0x8A58, symBinAddr: 0x1C5F0, symSize: 0xFC }
  - { offset: 0x24B2F0, size: 0x8, addend: 0x0, symName: __ZNK8facebook5react27ConcreteComponentDescriptorINS0_19RNSScreenShadowNodeEE11appendChildERKNSt3__110shared_ptrIKNS0_10ShadowNodeEEESA_, symObjAddr: 0x8B54, symBinAddr: 0x1C6EC, symSize: 0xC }
  - { offset: 0x24B34C, size: 0x8, addend: 0x0, symName: __ZNK8facebook5react27ConcreteComponentDescriptorINS0_19RNSScreenShadowNodeEE11appendChildERKNSt3__110shared_ptrIKNS0_10ShadowNodeEEESA_, symObjAddr: 0x8B54, symBinAddr: 0x1C6EC, symSize: 0xC }
  - { offset: 0x24BBF0, size: 0x8, addend: 0x0, symName: __ZNK8facebook5react27ConcreteComponentDescriptorINS0_19RNSScreenShadowNodeEE10clonePropsERKNS0_18PropsParserContextERKNSt3__110shared_ptrIKNS0_5PropsEEENS0_8RawPropsE, symObjAddr: 0x8B60, symBinAddr: 0x1C6F8, symSize: 0x21C }
  - { offset: 0x24C7BC, size: 0x8, addend: 0x0, symName: __ZN8facebook5react18ConcreteShadowNodeIXadL_ZNS0_22RNSScreenComponentNameEEENS0_24YogaLayoutableShadowNodeENS0_14RNSScreenPropsENS0_21RNSScreenEventEmitterENS0_14RNSScreenStateEE5PropsERKNS0_18PropsParserContextERKNS0_8RawPropsERKNSt3__110shared_ptrIKNS0_5PropsEEE, symObjAddr: 0x9DB4, symBinAddr: 0x1D114, symSize: 0x58 }
  - { offset: 0x24CBD8, size: 0x8, addend: 0x0, symName: __ZNK8facebook5react27ConcreteComponentDescriptorINS0_19RNSScreenShadowNodeEE18createInitialStateERKNSt3__110shared_ptrIKNS0_5PropsEEERKNS5_IKNS0_16ShadowNodeFamilyEEE, symObjAddr: 0x8D7C, symBinAddr: 0x1C914, symSize: 0xC4 }
  - { offset: 0x24D079, size: 0x8, addend: 0x0, symName: __ZNK8facebook5react27ConcreteComponentDescriptorINS0_19RNSScreenShadowNodeEE11createStateERKNS0_16ShadowNodeFamilyERKNSt3__110shared_ptrIKvEE, symObjAddr: 0x8E40, symBinAddr: 0x1C9D8, symSize: 0x104 }
  - { offset: 0x24D673, size: 0x8, addend: 0x0, symName: __ZNK8facebook5react27ConcreteComponentDescriptorINS0_19RNSScreenShadowNodeEE12createFamilyERKNS0_24ShadowNodeFamilyFragmentE, symObjAddr: 0x8F44, symBinAddr: 0x1CADC, symSize: 0x168 }
  - { offset: 0x24DBED, size: 0x8, addend: 0x0, symName: __ZNK8facebook5react28RNSScreenComponentDescriptor5adoptERNS0_10ShadowNodeE, symObjAddr: 0x90AC, symBinAddr: 0x1CC44, symSize: 0xC4 }
  - { offset: 0x24E596, size: 0x8, addend: 0x0, symName: __ZN8facebook5react27ConcreteComponentDescriptorINS0_19RNSScreenShadowNodeEED1Ev, symObjAddr: 0x9338, symBinAddr: 0x1CD08, symSize: 0x4 }
  - { offset: 0x24E5BA, size: 0x8, addend: 0x0, symName: __ZN8facebook5react27ConcreteComponentDescriptorINS0_19RNSScreenShadowNodeEED1Ev, symObjAddr: 0x9338, symBinAddr: 0x1CD08, symSize: 0x4 }
  - { offset: 0x24E5D9, size: 0x8, addend: 0x0, symName: __ZN8facebook5react27ConcreteComponentDescriptorINS0_19RNSScreenShadowNodeEED1Ev, symObjAddr: 0x9338, symBinAddr: 0x1CD08, symSize: 0x4 }
  - { offset: 0x24E609, size: 0x8, addend: 0x0, symName: __ZN8facebook5react27ConcreteComponentDescriptorINS0_19RNSScreenShadowNodeEED0Ev, symObjAddr: 0x933C, symBinAddr: 0x1CD0C, symSize: 0x14 }
  - { offset: 0x24E68A, size: 0x8, addend: 0x0, symName: __ZNK8facebook5react27ConcreteComponentDescriptorINS0_19RNSScreenShadowNodeEE5adoptERNS0_10ShadowNodeE, symObjAddr: 0x9350, symBinAddr: 0x1CD20, symSize: 0x4 }
  - { offset: 0x24EEFD, size: 0x8, addend: 0x0, symName: __ZNSt3__120__shared_ptr_emplaceIN8facebook5react19RNSScreenShadowNodeENS_9allocatorIS3_EEEC2B8ne200100IJRKNS2_18ShadowNodeFragmentERKNS_10shared_ptrIKNS2_16ShadowNodeFamilyEEENS2_16ShadowNodeTraitsEES5_Li0EEES5_DpOT_, symObjAddr: 0x967C, symBinAddr: 0x1CD94, symSize: 0x78 }
  - { offset: 0x24F32E, size: 0x8, addend: 0x0, symName: __ZNSt3__120__shared_ptr_emplaceIN8facebook5react19RNSScreenShadowNodeENS_9allocatorIS3_EEED1Ev, symObjAddr: 0x96F4, symBinAddr: 0x1CE0C, symSize: 0x14 }
  - { offset: 0x24F352, size: 0x8, addend: 0x0, symName: __ZNSt3__120__shared_ptr_emplaceIN8facebook5react19RNSScreenShadowNodeENS_9allocatorIS3_EEED1Ev, symObjAddr: 0x96F4, symBinAddr: 0x1CE0C, symSize: 0x14 }
  - { offset: 0x24F388, size: 0x8, addend: 0x0, symName: __ZNSt3__120__shared_ptr_emplaceIN8facebook5react19RNSScreenShadowNodeENS_9allocatorIS3_EEED0Ev, symObjAddr: 0x9708, symBinAddr: 0x1CE20, symSize: 0x24 }
  - { offset: 0x24F45B, size: 0x8, addend: 0x0, symName: __ZNSt3__120__shared_ptr_emplaceIN8facebook5react19RNSScreenShadowNodeENS_9allocatorIS3_EEE16__on_zero_sharedEv, symObjAddr: 0x972C, symBinAddr: 0x1CE44, symSize: 0x8 }
  - { offset: 0x24F484, size: 0x8, addend: 0x0, symName: __ZNSt3__120__shared_ptr_emplaceIN8facebook5react19RNSScreenShadowNodeENS_9allocatorIS3_EEE16__on_zero_sharedEv, symObjAddr: 0x972C, symBinAddr: 0x1CE44, symSize: 0x8 }
  - { offset: 0x24F4A3, size: 0x8, addend: 0x0, symName: __ZNSt3__120__shared_ptr_emplaceIN8facebook5react19RNSScreenShadowNodeENS_9allocatorIS3_EEE16__on_zero_sharedEv, symObjAddr: 0x972C, symBinAddr: 0x1CE44, symSize: 0x8 }
  - { offset: 0x24F4E2, size: 0x8, addend: 0x0, symName: __ZNSt3__120__shared_ptr_emplaceIN8facebook5react19RNSScreenShadowNodeENS_9allocatorIS3_EEE21__on_zero_shared_weakEv, symObjAddr: 0x9734, symBinAddr: 0x1CE4C, symSize: 0x4 }
  - { offset: 0x24F516, size: 0x8, addend: 0x0, symName: __ZNSt3__120__shared_ptr_emplaceIN8facebook5react19RNSScreenShadowNodeENS_9allocatorIS3_EEE21__on_zero_shared_weakEv, symObjAddr: 0x9734, symBinAddr: 0x1CE4C, symSize: 0x4 }
  - { offset: 0x24F53A, size: 0x8, addend: 0x0, symName: __ZNSt3__120__shared_ptr_emplaceIN8facebook5react19RNSScreenShadowNodeENS_9allocatorIS3_EEE21__on_zero_shared_weakEv, symObjAddr: 0x9734, symBinAddr: 0x1CE4C, symSize: 0x4 }
  - { offset: 0x24F55F, size: 0x8, addend: 0x0, symName: __ZNSt3__120__shared_ptr_emplaceIN8facebook5react19RNSScreenShadowNodeENS_9allocatorIS3_EEE21__on_zero_shared_weakEv, symObjAddr: 0x9734, symBinAddr: 0x1CE4C, symSize: 0x4 }
  - { offset: 0x24F597, size: 0x8, addend: 0x0, symName: __ZNSt3__120__shared_ptr_emplaceIN8facebook5react19RNSScreenShadowNodeENS_9allocatorIS3_EEE21__on_zero_shared_weakEv, symObjAddr: 0x9734, symBinAddr: 0x1CE4C, symSize: 0x4 }
  - { offset: 0x24F895, size: 0x8, addend: 0x0, symName: __ZN8facebook5react22ConcreteViewShadowNodeIXadL_ZNS0_22RNSScreenComponentNameEEENS0_14RNSScreenPropsENS0_21RNSScreenEventEmitterENS0_14RNSScreenStateEED1Ev, symObjAddr: 0x97A4, symBinAddr: 0x1CE50, symSize: 0x70 }
  - { offset: 0x24FE36, size: 0x8, addend: 0x0, symName: __ZN8facebook5react22ConcreteViewShadowNodeIXadL_ZNS0_22RNSScreenComponentNameEEENS0_14RNSScreenPropsENS0_21RNSScreenEventEmitterENS0_14RNSScreenStateEED0Ev, symObjAddr: 0x9814, symBinAddr: 0x1CEC0, symSize: 0x74 }
  - { offset: 0x25024E, size: 0x8, addend: 0x0, symName: __ZNK8facebook5react22ConcreteViewShadowNodeIXadL_ZNS0_22RNSScreenComponentNameEEENS0_14RNSScreenPropsENS0_21RNSScreenEventEmitterENS0_14RNSScreenStateEE12getTransformEv, symObjAddr: 0x9888, symBinAddr: 0x1CF34, symSize: 0x40 }
  - { offset: 0x2502C3, size: 0x8, addend: 0x0, symName: __ZNK8facebook5react22ConcreteViewShadowNodeIXadL_ZNS0_22RNSScreenComponentNameEEENS0_14RNSScreenPropsENS0_21RNSScreenEventEmitterENS0_14RNSScreenStateEE16canBeTouchTargetEv, symObjAddr: 0x98C8, symBinAddr: 0x1CF74, symSize: 0x18 }
  - { offset: 0x2502FD, size: 0x8, addend: 0x0, symName: __ZNK8facebook5react22ConcreteViewShadowNodeIXadL_ZNS0_22RNSScreenComponentNameEEENS0_14RNSScreenPropsENS0_21RNSScreenEventEmitterENS0_14RNSScreenStateEE16canBeTouchTargetEv, symObjAddr: 0x98C8, symBinAddr: 0x1CF74, symSize: 0x18 }
  - { offset: 0x25031B, size: 0x8, addend: 0x0, symName: __ZNK8facebook5react22ConcreteViewShadowNodeIXadL_ZNS0_22RNSScreenComponentNameEEENS0_14RNSScreenPropsENS0_21RNSScreenEventEmitterENS0_14RNSScreenStateEE16canBeTouchTargetEv, symObjAddr: 0x98C8, symBinAddr: 0x1CF74, symSize: 0x18 }
  - { offset: 0x250339, size: 0x8, addend: 0x0, symName: __ZNK8facebook5react22ConcreteViewShadowNodeIXadL_ZNS0_22RNSScreenComponentNameEEENS0_14RNSScreenPropsENS0_21RNSScreenEventEmitterENS0_14RNSScreenStateEE24canChildrenBeTouchTargetEv, symObjAddr: 0x98E0, symBinAddr: 0x1CF8C, symSize: 0x18 }
  - { offset: 0x25036F, size: 0x8, addend: 0x0, symName: __ZNK8facebook5react22ConcreteViewShadowNodeIXadL_ZNS0_22RNSScreenComponentNameEEENS0_14RNSScreenPropsENS0_21RNSScreenEventEmitterENS0_14RNSScreenStateEE24canChildrenBeTouchTargetEv, symObjAddr: 0x98E0, symBinAddr: 0x1CF8C, symSize: 0x18 }
  - { offset: 0x25038D, size: 0x8, addend: 0x0, symName: __ZNK8facebook5react22ConcreteViewShadowNodeIXadL_ZNS0_22RNSScreenComponentNameEEENS0_14RNSScreenPropsENS0_21RNSScreenEventEmitterENS0_14RNSScreenStateEE24canChildrenBeTouchTargetEv, symObjAddr: 0x98E0, symBinAddr: 0x1CF8C, symSize: 0x18 }
  - { offset: 0x2506E0, size: 0x8, addend: 0x0, symName: __ZNSt3__120__shared_ptr_emplaceIN8facebook5react19RNSScreenShadowNodeENS_9allocatorIS3_EEEC2B8ne200100IJRKNS2_10ShadowNodeERKNS2_18ShadowNodeFragmentEES5_Li0EEES5_DpOT_, symObjAddr: 0x9C4C, symBinAddr: 0x1D004, symSize: 0x74 }
  - { offset: 0x25283F, size: 0x8, addend: 0x0, symName: __ZNSt3__120__shared_ptr_emplaceIN8facebook5react16ShadowNodeFamilyENS_9allocatorIS3_EEEC2B8ne200100IJRKNS2_24ShadowNodeFamilyFragmentERNS_10shared_ptrIKNS2_21RNSScreenEventEmitterEEERKNS_8weak_ptrIKNS2_15EventDispatcherEEERKNS2_27ConcreteComponentDescriptorINS2_19RNSScreenShadowNodeEEEES5_Li0EEES5_DpOT_, symObjAddr: 0xAC84, symBinAddr: 0x1D1E4, symSize: 0x4C }
  - { offset: 0x252BD1, size: 0x8, addend: 0x0, symName: __GLOBAL__sub_I_RNSScreen.mm, symObjAddr: 0xBFF0, symBinAddr: 0x1D30C, symSize: 0x20 }
  - { offset: 0x255C42, size: 0x8, addend: 0x0, symName: __ZN8facebook5react17HostPlatformColorL14UndefinedColorE, symObjAddr: 0x172AF0, symBinAddr: 0x7D7C8, symSize: 0x0 }
  - { offset: 0x258F99, size: 0x8, addend: 0x0, symName: __ZN8facebook5react38concreteComponentDescriptorConstructorINS0_27ConcreteComponentDescriptorINS0_22ConcreteViewShadowNodeIXadL_ZNS0_31RNSScreenContainerComponentNameEEENS0_23RNSScreenContainerPropsENS0_30RNSScreenContainerEventEmitterENS0_9StateDataEEEEEEENSt3__110unique_ptrIKNS0_19ComponentDescriptorENS9_14default_deleteISC_EEEERKNS0_29ComponentDescriptorParametersE, symObjAddr: 0x22D0, symBinAddr: 0x1E878, symSize: 0x34 }
  - { offset: 0x2746AE, size: 0x8, addend: 0x0, symName: __ZNSt3__115allocate_sharedB8ne200100IKN8facebook5react23RNSScreenContainerPropsENS_9allocatorIS3_EEJELi0EEENS_10shared_ptrIT_EERKT0_DpOT1_, symObjAddr: 0x1488, symBinAddr: 0x1E73C, symSize: 0x48 }
  - { offset: 0x275810, size: 0x8, addend: 0x0, symName: __ZNSt3__111make_uniqueB8ne200100IKN8facebook5react27ConcreteComponentDescriptorINS2_22ConcreteViewShadowNodeIXadL_ZNS2_31RNSScreenContainerComponentNameEEENS2_23RNSScreenContainerPropsENS2_30RNSScreenContainerEventEmitterENS2_9StateDataEEEEEJRKNS2_29ComponentDescriptorParametersEELi0EEENS_10unique_ptrIT_NS_14default_deleteISF_EEEEDpOT0_, symObjAddr: 0x2304, symBinAddr: 0x1E8AC, symSize: 0xD4 }
  - { offset: 0x27619E, size: 0x8, addend: 0x0, symName: __ZNSt3__115allocate_sharedB8ne200100IN8facebook5react22ConcreteViewShadowNodeIXadL_ZNS2_31RNSScreenContainerComponentNameEEENS2_23RNSScreenContainerPropsENS2_30RNSScreenContainerEventEmitterENS2_9StateDataEEENS_9allocatorIS7_EEJRKNS2_18ShadowNodeFragmentERKNS_10shared_ptrIKNS2_16ShadowNodeFamilyEEENS2_16ShadowNodeTraitsEELi0EEENSD_IT_EERKT0_DpOT1_, symObjAddr: 0x2E1C, symBinAddr: 0x1F0BC, symSize: 0x70 }
  - { offset: 0x2764DA, size: 0x8, addend: 0x0, symName: __ZNSt3__115allocate_sharedB8ne200100IN8facebook5react22ConcreteViewShadowNodeIXadL_ZNS2_31RNSScreenContainerComponentNameEEENS2_23RNSScreenContainerPropsENS2_30RNSScreenContainerEventEmitterENS2_9StateDataEEENS_9allocatorIS7_EEJRKNS2_10ShadowNodeERKNS2_18ShadowNodeFragmentEELi0EEENS_10shared_ptrIT_EERKT0_DpOT1_, symObjAddr: 0x33D8, symBinAddr: 0x1F330, symSize: 0x60 }
  - { offset: 0x276E61, size: 0x8, addend: 0x0, symName: __ZNSt3__115allocate_sharedB8ne200100IKN8facebook5react30RNSScreenContainerEventEmitterENS_9allocatorIS3_EEJNS_10shared_ptrINS2_11EventTargetEEERKNS_8weak_ptrIKNS2_15EventDispatcherEEEELi0EEENS7_IT_EERKT0_DpOT1_, symObjAddr: 0x3950, symBinAddr: 0x1F5F4, symSize: 0x60 }
  - { offset: 0x277125, size: 0x8, addend: 0x0, symName: __ZNSt3__115allocate_sharedB8ne200100IN8facebook5react16ShadowNodeFamilyENS_9allocatorIS3_EEJRKNS2_24ShadowNodeFamilyFragmentERNS_10shared_ptrIKNS2_30RNSScreenContainerEventEmitterEEERKNS_8weak_ptrIKNS2_15EventDispatcherEEERKNS2_27ConcreteComponentDescriptorINS2_22ConcreteViewShadowNodeIXadL_ZNS2_31RNSScreenContainerComponentNameEEENS2_23RNSScreenContainerPropsESA_NS2_9StateDataEEEEEELi0EEENS9_IT_EERKT0_DpOT1_, symObjAddr: 0x401C, symBinAddr: 0x1F894, symSize: 0x78 }
  - { offset: 0x277EEC, size: 0x8, addend: 0x0, symName: __ZNSt3__115allocate_sharedB8ne200100IN8facebook5react23RNSScreenContainerPropsENS_9allocatorIS3_EEJRKNS2_18PropsParserContextERKS3_RKNS2_8RawPropsEELi0EEENS_10shared_ptrIT_EERKT0_DpOT1_, symObjAddr: 0x35E8, symBinAddr: 0x1F4E8, symSize: 0x70 }
  - { offset: 0x278BAA, size: 0x8, addend: 0x0, symName: __ZNSt3__112construct_atB8ne200100IN8facebook5react30RNSScreenContainerEventEmitterEJNS_10shared_ptrINS2_11EventTargetEEERKNS_8weak_ptrIKNS2_15EventDispatcherEEEEPS3_EEPT_SF_DpOT0_, symObjAddr: 0x3A44, symBinAddr: 0x1F6E8, symSize: 0x140 }
  - { offset: 0x2799E7, size: 0x8, addend: 0x0, symName: __ZNSt3__112construct_atB8ne200100IN8facebook5react16ShadowNodeFamilyEJRKNS2_24ShadowNodeFamilyFragmentERNS_10shared_ptrIKNS2_30RNSScreenContainerEventEmitterEEERKNS_8weak_ptrIKNS2_15EventDispatcherEEERKNS2_27ConcreteComponentDescriptorINS2_22ConcreteViewShadowNodeIXadL_ZNS2_31RNSScreenContainerComponentNameEEENS2_23RNSScreenContainerPropsES8_NS2_9StateDataEEEEEEPS3_EEPT_SS_DpOT0_, symObjAddr: 0x4124, symBinAddr: 0x1F958, symSize: 0xDC }
  - { offset: 0x27ADEE, size: 0x8, addend: 0x0, symName: '-[RNSScreenContainerView init]', symObjAddr: 0x228, symBinAddr: 0x1D554, symSize: 0x150 }
  - { offset: 0x27AE18, size: 0x8, addend: 0x0, symName: '__ZZ30-[RNSScreenContainerView init]E12defaultProps', symObjAddr: 0x172B08, symBinAddr: 0x7D7E0, symSize: 0x0 }
  - { offset: 0x27E82C, size: 0x8, addend: 0x0, symName: __ZN8facebook5react18ConcreteShadowNodeIXadL_ZNS0_31RNSScreenContainerComponentNameEEENS0_24YogaLayoutableShadowNodeENS0_23RNSScreenContainerPropsENS0_30RNSScreenContainerEventEmitterENS0_9StateDataEE18defaultSharedPropsEv, symObjAddr: 0x34F4, symBinAddr: 0x1F3F4, symSize: 0x9C }
  - { offset: 0x27E84C, size: 0x8, addend: 0x0, symName: __ZZN8facebook5react18ConcreteShadowNodeIXadL_ZNS0_31RNSScreenContainerComponentNameEEENS0_24YogaLayoutableShadowNodeENS0_23RNSScreenContainerPropsENS0_30RNSScreenContainerEventEmitterENS0_9StateDataEE18defaultSharedPropsEvE18defaultSharedProps, symObjAddr: 0x49F8, symBinAddr: 0x7D020, symSize: 0x0 }
  - { offset: 0x27EB50, size: 0x8, addend: 0x0, symName: '-[RNSViewController childViewControllerForStatusBarStyle]', symObjAddr: 0x0, symBinAddr: 0x1D32C, symSize: 0x4 }
  - { offset: 0x27EB83, size: 0x8, addend: 0x0, symName: '-[RNSViewController preferredStatusBarUpdateAnimation]', symObjAddr: 0x4, symBinAddr: 0x1D330, symSize: 0x44 }
  - { offset: 0x27EBB8, size: 0x8, addend: 0x0, symName: '-[RNSViewController childViewControllerForStatusBarHidden]', symObjAddr: 0x48, symBinAddr: 0x1D374, symSize: 0x4 }
  - { offset: 0x27EBEB, size: 0x8, addend: 0x0, symName: '-[RNSViewController supportedInterfaceOrientations]', symObjAddr: 0x4C, symBinAddr: 0x1D378, symSize: 0x44 }
  - { offset: 0x27EC20, size: 0x8, addend: 0x0, symName: '-[RNSViewController childViewControllerForHomeIndicatorAutoHidden]', symObjAddr: 0x90, symBinAddr: 0x1D3BC, symSize: 0x4 }
  - { offset: 0x27EC53, size: 0x8, addend: 0x0, symName: '-[RNSViewController findActiveChildVC]', symObjAddr: 0x94, symBinAddr: 0x1D3C0, symSize: 0x194 }
  - { offset: 0x27EDAE, size: 0x8, addend: 0x0, symName: __ZNSt3__110shared_ptrIKN8facebook5react23RNSScreenContainerPropsEED1B8ne200100Ev, symObjAddr: 0x378, symBinAddr: 0x1D6A4, symSize: 0x4 }
  - { offset: 0x27EDDA, size: 0x8, addend: 0x0, symName: __ZNSt3__110shared_ptrIKN8facebook5react23RNSScreenContainerPropsEED1B8ne200100Ev, symObjAddr: 0x378, symBinAddr: 0x1D6A4, symSize: 0x4 }
  - { offset: 0x27EF78, size: 0x8, addend: 0x0, symName: '-[RNSScreenContainerView setupController]', symObjAddr: 0x3F4, symBinAddr: 0x1D6A8, symSize: 0x78 }
  - { offset: 0x27EFA9, size: 0x8, addend: 0x0, symName: '-[RNSScreenContainerView markChildUpdated]', symObjAddr: 0x46C, symBinAddr: 0x1D720, symSize: 0x4 }
  - { offset: 0x27EFD9, size: 0x8, addend: 0x0, symName: '-[RNSScreenContainerView insertReactSubview:atIndex:]', symObjAddr: 0x470, symBinAddr: 0x1D724, symSize: 0xA0 }
  - { offset: 0x27F028, size: 0x8, addend: 0x0, symName: '-[RNSScreenContainerView removeReactSubview:]', symObjAddr: 0x510, symBinAddr: 0x1D7C4, symSize: 0x60 }
  - { offset: 0x27F068, size: 0x8, addend: 0x0, symName: '-[RNSScreenContainerView reactSubviews]', symObjAddr: 0x570, symBinAddr: 0x1D824, symSize: 0x10 }
  - { offset: 0x27F09D, size: 0x8, addend: 0x0, symName: '-[RNSScreenContainerView reactViewController]', symObjAddr: 0x580, symBinAddr: 0x1D834, symSize: 0x10 }
  - { offset: 0x27F0D1, size: 0x8, addend: 0x0, symName: '-[RNSScreenContainerView findChildControllerForScreen:]', symObjAddr: 0x590, symBinAddr: 0x1D844, symSize: 0x160 }
  - { offset: 0x27F12C, size: 0x8, addend: 0x0, symName: '-[RNSScreenContainerView prepareDetach:]', symObjAddr: 0x6F0, symBinAddr: 0x1D9A4, symSize: 0x4C }
  - { offset: 0x27F16C, size: 0x8, addend: 0x0, symName: '-[RNSScreenContainerView detachScreen:]', symObjAddr: 0x73C, symBinAddr: 0x1D9F0, symSize: 0x94 }
  - { offset: 0x27F1BC, size: 0x8, addend: 0x0, symName: '-[RNSScreenContainerView attachScreen:atIndex:]', symObjAddr: 0x7D0, symBinAddr: 0x1DA84, symSize: 0x124 }
  - { offset: 0x27F20B, size: 0x8, addend: 0x0, symName: '-[RNSScreenContainerView updateContainer]', symObjAddr: 0x8F4, symBinAddr: 0x1DBA8, symSize: 0x4E8 }
  - { offset: 0x27F2F6, size: 0x8, addend: 0x0, symName: '-[RNSScreenContainerView maybeDismissVC]', symObjAddr: 0xDDC, symBinAddr: 0x1E090, symSize: 0x80 }
  - { offset: 0x27F327, size: 0x8, addend: 0x0, symName: '-[RNSScreenContainerView didUpdateReactSubviews]', symObjAddr: 0xE5C, symBinAddr: 0x1E110, symSize: 0x4 }
  - { offset: 0x27F357, size: 0x8, addend: 0x0, symName: '-[RNSScreenContainerView didMoveToWindow]', symObjAddr: 0xE60, symBinAddr: 0x1E114, symSize: 0x58 }
  - { offset: 0x27F3FE, size: 0x8, addend: 0x0, symName: '-[RNSScreenContainerView layoutSubviews]', symObjAddr: 0xEB8, symBinAddr: 0x1E16C, symSize: 0x25C }
  - { offset: 0x27F4B3, size: 0x8, addend: 0x0, symName: '+[RNSScreenContainerView load]', symObjAddr: 0x1114, symBinAddr: 0x1E3C8, symSize: 0x34 }
  - { offset: 0x27F4E5, size: 0x8, addend: 0x0, symName: '-[RNSScreenContainerView mountChildComponentView:index:]', symObjAddr: 0x1148, symBinAddr: 0x1E3FC, symSize: 0x190 }
  - { offset: 0x27F5E1, size: 0x8, addend: 0x0, symName: '-[RNSScreenContainerView unmountChildComponentView:index:]', symObjAddr: 0x12D8, symBinAddr: 0x1E58C, symSize: 0x70 }
  - { offset: 0x27F6AB, size: 0x8, addend: 0x0, symName: '+[RNSScreenContainerView componentDescriptorProvider]', symObjAddr: 0x1348, symBinAddr: 0x1E5FC, symSize: 0x20 }
  - { offset: 0x27F6E0, size: 0x8, addend: 0x0, symName: '+[RNSScreenContainerView componentDescriptorProvider]', symObjAddr: 0x1348, symBinAddr: 0x1E5FC, symSize: 0x20 }
  - { offset: 0x27F744, size: 0x8, addend: 0x0, symName: '-[RNSScreenContainerView prepareForRecycle]', symObjAddr: 0x1368, symBinAddr: 0x1E61C, symSize: 0x5C }
  - { offset: 0x27F776, size: 0x8, addend: 0x0, symName: '-[RNSScreenContainerView controller]', symObjAddr: 0x13C4, symBinAddr: 0x1E678, symSize: 0x10 }
  - { offset: 0x27F7AC, size: 0x8, addend: 0x0, symName: '-[RNSScreenContainerView setController:]', symObjAddr: 0x13D4, symBinAddr: 0x1E688, symSize: 0x14 }
  - { offset: 0x27F7EC, size: 0x8, addend: 0x0, symName: '-[RNSScreenContainerView setReactSubviews:]', symObjAddr: 0x13E8, symBinAddr: 0x1E69C, symSize: 0x14 }
  - { offset: 0x27F82C, size: 0x8, addend: 0x0, symName: '-[RNSScreenContainerView .cxx_destruct]', symObjAddr: 0x13FC, symBinAddr: 0x1E6B0, symSize: 0x54 }
  - { offset: 0x27F85D, size: 0x8, addend: 0x0, symName: __Z21RNSScreenContainerClsv, symObjAddr: 0x1450, symBinAddr: 0x1E704, symSize: 0xC }
  - { offset: 0x27F87C, size: 0x8, addend: 0x0, symName: '+[RNSScreenContainerManager moduleName]', symObjAddr: 0x145C, symBinAddr: 0x1E710, symSize: 0xC }
  - { offset: 0x27F8AE, size: 0x8, addend: 0x0, symName: '+[RNSScreenContainerManager load]', symObjAddr: 0x1468, symBinAddr: 0x1E71C, symSize: 0x4 }
  - { offset: 0x27F8E2, size: 0x8, addend: 0x0, symName: '+[RNSScreenContainerManager load]', symObjAddr: 0x1468, symBinAddr: 0x1E71C, symSize: 0x4 }
  - { offset: 0x27F904, size: 0x8, addend: 0x0, symName: '-[RNSScreenContainerManager view]', symObjAddr: 0x146C, symBinAddr: 0x1E720, symSize: 0x1C }
  - { offset: 0x27FB6A, size: 0x8, addend: 0x0, symName: __ZNSt3__120__shared_ptr_emplaceIKN8facebook5react23RNSScreenContainerPropsENS_9allocatorIS3_EEEC2B8ne200100IJES6_Li0EEES6_DpOT_, symObjAddr: 0x14D0, symBinAddr: 0x1E784, symSize: 0x74 }
  - { offset: 0x28119E, size: 0x8, addend: 0x0, symName: __ZNSt3__120__shared_ptr_emplaceIKN8facebook5react23RNSScreenContainerPropsENS_9allocatorIS3_EEED1Ev, symObjAddr: 0x1544, symBinAddr: 0x1E7F8, symSize: 0x14 }
  - { offset: 0x2811C2, size: 0x8, addend: 0x0, symName: __ZNSt3__120__shared_ptr_emplaceIKN8facebook5react23RNSScreenContainerPropsENS_9allocatorIS3_EEED1Ev, symObjAddr: 0x1544, symBinAddr: 0x1E7F8, symSize: 0x14 }
  - { offset: 0x2811F8, size: 0x8, addend: 0x0, symName: __ZNSt3__120__shared_ptr_emplaceIKN8facebook5react23RNSScreenContainerPropsENS_9allocatorIS3_EEED0Ev, symObjAddr: 0x1558, symBinAddr: 0x1E80C, symSize: 0x24 }
  - { offset: 0x28130C, size: 0x8, addend: 0x0, symName: __ZNSt3__120__shared_ptr_emplaceIKN8facebook5react23RNSScreenContainerPropsENS_9allocatorIS3_EEE16__on_zero_sharedEv, symObjAddr: 0x157C, symBinAddr: 0x1E830, symSize: 0x14 }
  - { offset: 0x281335, size: 0x8, addend: 0x0, symName: __ZNSt3__120__shared_ptr_emplaceIKN8facebook5react23RNSScreenContainerPropsENS_9allocatorIS3_EEE16__on_zero_sharedEv, symObjAddr: 0x157C, symBinAddr: 0x1E830, symSize: 0x14 }
  - { offset: 0x28184B, size: 0x8, addend: 0x0, symName: __ZNSt3__120__shared_ptr_emplaceIKN8facebook5react23RNSScreenContainerPropsENS_9allocatorIS3_EEE21__on_zero_shared_weakEv, symObjAddr: 0x1590, symBinAddr: 0x1E844, symSize: 0x4 }
  - { offset: 0x28187F, size: 0x8, addend: 0x0, symName: __ZNSt3__120__shared_ptr_emplaceIKN8facebook5react23RNSScreenContainerPropsENS_9allocatorIS3_EEE21__on_zero_shared_weakEv, symObjAddr: 0x1590, symBinAddr: 0x1E844, symSize: 0x4 }
  - { offset: 0x2818A3, size: 0x8, addend: 0x0, symName: __ZNSt3__120__shared_ptr_emplaceIKN8facebook5react23RNSScreenContainerPropsENS_9allocatorIS3_EEE21__on_zero_shared_weakEv, symObjAddr: 0x1590, symBinAddr: 0x1E844, symSize: 0x4 }
  - { offset: 0x2818C8, size: 0x8, addend: 0x0, symName: __ZNSt3__120__shared_ptr_emplaceIKN8facebook5react23RNSScreenContainerPropsENS_9allocatorIS3_EEE21__on_zero_shared_weakEv, symObjAddr: 0x1590, symBinAddr: 0x1E844, symSize: 0x4 }
  - { offset: 0x281900, size: 0x8, addend: 0x0, symName: __ZNSt3__120__shared_ptr_emplaceIKN8facebook5react23RNSScreenContainerPropsENS_9allocatorIS3_EEE21__on_zero_shared_weakEv, symObjAddr: 0x1590, symBinAddr: 0x1E844, symSize: 0x4 }
  - { offset: 0x282A95, size: 0x8, addend: 0x0, symName: __ZN8facebook5react23RNSScreenContainerPropsD1Ev, symObjAddr: 0x19E0, symBinAddr: 0x1E848, symSize: 0x10 }
  - { offset: 0x282AB9, size: 0x8, addend: 0x0, symName: __ZN8facebook5react23RNSScreenContainerPropsD1Ev, symObjAddr: 0x19E0, symBinAddr: 0x1E848, symSize: 0x10 }
  - { offset: 0x282AF6, size: 0x8, addend: 0x0, symName: __ZN8facebook5react23RNSScreenContainerPropsD0Ev, symObjAddr: 0x19F0, symBinAddr: 0x1E858, symSize: 0x20 }
  - { offset: 0x285E7D, size: 0x8, addend: 0x0, symName: __ZN8facebook5react14RawPropsParser7prepareINS0_23RNSScreenContainerPropsEEEvv, symObjAddr: 0x2428, symBinAddr: 0x1E980, symSize: 0x1C4 }
  - { offset: 0x286F8A, size: 0x8, addend: 0x0, symName: __ZN8facebook5react27ConcreteComponentDescriptorINS0_22ConcreteViewShadowNodeIXadL_ZNS0_31RNSScreenContainerComponentNameEEENS0_23RNSScreenContainerPropsENS0_30RNSScreenContainerEventEmitterENS0_9StateDataEEEED1Ev, symObjAddr: 0x25EC, symBinAddr: 0x1EB44, symSize: 0x4 }
  - { offset: 0x286FAE, size: 0x8, addend: 0x0, symName: __ZN8facebook5react27ConcreteComponentDescriptorINS0_22ConcreteViewShadowNodeIXadL_ZNS0_31RNSScreenContainerComponentNameEEENS0_23RNSScreenContainerPropsENS0_30RNSScreenContainerEventEmitterENS0_9StateDataEEEED1Ev, symObjAddr: 0x25EC, symBinAddr: 0x1EB44, symSize: 0x4 }
  - { offset: 0x286FCD, size: 0x8, addend: 0x0, symName: __ZN8facebook5react27ConcreteComponentDescriptorINS0_22ConcreteViewShadowNodeIXadL_ZNS0_31RNSScreenContainerComponentNameEEENS0_23RNSScreenContainerPropsENS0_30RNSScreenContainerEventEmitterENS0_9StateDataEEEED1Ev, symObjAddr: 0x25EC, symBinAddr: 0x1EB44, symSize: 0x4 }
  - { offset: 0x2872A8, size: 0x8, addend: 0x0, symName: __ZN8facebook5react27ConcreteComponentDescriptorINS0_22ConcreteViewShadowNodeIXadL_ZNS0_31RNSScreenContainerComponentNameEEENS0_23RNSScreenContainerPropsENS0_30RNSScreenContainerEventEmitterENS0_9StateDataEEEED0Ev, symObjAddr: 0x25F0, symBinAddr: 0x1EB48, symSize: 0x14 }
  - { offset: 0x287329, size: 0x8, addend: 0x0, symName: __ZNK8facebook5react27ConcreteComponentDescriptorINS0_22ConcreteViewShadowNodeIXadL_ZNS0_31RNSScreenContainerComponentNameEEENS0_23RNSScreenContainerPropsENS0_30RNSScreenContainerEventEmitterENS0_9StateDataEEEE18getComponentHandleEv, symObjAddr: 0x2604, symBinAddr: 0x1EB5C, symSize: 0xC }
  - { offset: 0x28734F, size: 0x8, addend: 0x0, symName: __ZNK8facebook5react27ConcreteComponentDescriptorINS0_22ConcreteViewShadowNodeIXadL_ZNS0_31RNSScreenContainerComponentNameEEENS0_23RNSScreenContainerPropsENS0_30RNSScreenContainerEventEmitterENS0_9StateDataEEEE16getComponentNameEv, symObjAddr: 0x2610, symBinAddr: 0x1EB68, symSize: 0xC }
  - { offset: 0x287375, size: 0x8, addend: 0x0, symName: __ZNK8facebook5react27ConcreteComponentDescriptorINS0_22ConcreteViewShadowNodeIXadL_ZNS0_31RNSScreenContainerComponentNameEEENS0_23RNSScreenContainerPropsENS0_30RNSScreenContainerEventEmitterENS0_9StateDataEEEE9getTraitsEv, symObjAddr: 0x261C, symBinAddr: 0x1EB74, symSize: 0x8 }
  - { offset: 0x287476, size: 0x8, addend: 0x0, symName: __ZNK8facebook5react27ConcreteComponentDescriptorINS0_22ConcreteViewShadowNodeIXadL_ZNS0_31RNSScreenContainerComponentNameEEENS0_23RNSScreenContainerPropsENS0_30RNSScreenContainerEventEmitterENS0_9StateDataEEEE16createShadowNodeERKNS0_18ShadowNodeFragmentERKNSt3__110shared_ptrIKNS0_16ShadowNodeFamilyEEE, symObjAddr: 0x2624, symBinAddr: 0x1EB7C, symSize: 0x90 }
  - { offset: 0x287717, size: 0x8, addend: 0x0, symName: __ZNK8facebook5react27ConcreteComponentDescriptorINS0_22ConcreteViewShadowNodeIXadL_ZNS0_31RNSScreenContainerComponentNameEEENS0_23RNSScreenContainerPropsENS0_30RNSScreenContainerEventEmitterENS0_9StateDataEEEE15cloneShadowNodeERKNS0_10ShadowNodeERKNS0_18ShadowNodeFragmentE, symObjAddr: 0x26B4, symBinAddr: 0x1EC0C, symSize: 0x104 }
  - { offset: 0x287ABE, size: 0x8, addend: 0x0, symName: __ZNK8facebook5react27ConcreteComponentDescriptorINS0_22ConcreteViewShadowNodeIXadL_ZNS0_31RNSScreenContainerComponentNameEEENS0_23RNSScreenContainerPropsENS0_30RNSScreenContainerEventEmitterENS0_9StateDataEEEE11appendChildERKNSt3__110shared_ptrIKNS0_10ShadowNodeEEESE_, symObjAddr: 0x27B8, symBinAddr: 0x1ED10, symSize: 0x14 }
  - { offset: 0x287B1A, size: 0x8, addend: 0x0, symName: __ZNK8facebook5react27ConcreteComponentDescriptorINS0_22ConcreteViewShadowNodeIXadL_ZNS0_31RNSScreenContainerComponentNameEEENS0_23RNSScreenContainerPropsENS0_30RNSScreenContainerEventEmitterENS0_9StateDataEEEE11appendChildERKNSt3__110shared_ptrIKNS0_10ShadowNodeEEESE_, symObjAddr: 0x27B8, symBinAddr: 0x1ED10, symSize: 0x14 }
  - { offset: 0x2883F4, size: 0x8, addend: 0x0, symName: __ZNK8facebook5react27ConcreteComponentDescriptorINS0_22ConcreteViewShadowNodeIXadL_ZNS0_31RNSScreenContainerComponentNameEEENS0_23RNSScreenContainerPropsENS0_30RNSScreenContainerEventEmitterENS0_9StateDataEEEE10clonePropsERKNS0_18PropsParserContextERKNSt3__110shared_ptrIKNS0_5PropsEEENS0_8RawPropsE, symObjAddr: 0x27CC, symBinAddr: 0x1ED24, symSize: 0x21C }
  - { offset: 0x288FC0, size: 0x8, addend: 0x0, symName: __ZN8facebook5react18ConcreteShadowNodeIXadL_ZNS0_31RNSScreenContainerComponentNameEEENS0_24YogaLayoutableShadowNodeENS0_23RNSScreenContainerPropsENS0_30RNSScreenContainerEventEmitterENS0_9StateDataEE5PropsERKNS0_18PropsParserContextERKNS0_8RawPropsERKNSt3__110shared_ptrIKNS0_5PropsEEE, symObjAddr: 0x3590, symBinAddr: 0x1F490, symSize: 0x58 }
  - { offset: 0x289230, size: 0x8, addend: 0x0, symName: __ZNK8facebook5react27ConcreteComponentDescriptorINS0_22ConcreteViewShadowNodeIXadL_ZNS0_31RNSScreenContainerComponentNameEEENS0_23RNSScreenContainerPropsENS0_30RNSScreenContainerEventEmitterENS0_9StateDataEEEE18createInitialStateERKNSt3__110shared_ptrIKNS0_5PropsEEERKNS9_IKNS0_16ShadowNodeFamilyEEE, symObjAddr: 0x29E8, symBinAddr: 0x1EF40, symSize: 0x8 }
  - { offset: 0x289276, size: 0x8, addend: 0x0, symName: __ZNK8facebook5react27ConcreteComponentDescriptorINS0_22ConcreteViewShadowNodeIXadL_ZNS0_31RNSScreenContainerComponentNameEEENS0_23RNSScreenContainerPropsENS0_30RNSScreenContainerEventEmitterENS0_9StateDataEEEE18createInitialStateERKNSt3__110shared_ptrIKNS0_5PropsEEERKNS9_IKNS0_16ShadowNodeFamilyEEE, symObjAddr: 0x29E8, symBinAddr: 0x1EF40, symSize: 0x8 }
  - { offset: 0x28929B, size: 0x8, addend: 0x0, symName: __ZNK8facebook5react27ConcreteComponentDescriptorINS0_22ConcreteViewShadowNodeIXadL_ZNS0_31RNSScreenContainerComponentNameEEENS0_23RNSScreenContainerPropsENS0_30RNSScreenContainerEventEmitterENS0_9StateDataEEEE18createInitialStateERKNSt3__110shared_ptrIKNS0_5PropsEEERKNS9_IKNS0_16ShadowNodeFamilyEEE, symObjAddr: 0x29E8, symBinAddr: 0x1EF40, symSize: 0x8 }
  - { offset: 0x2892BF, size: 0x8, addend: 0x0, symName: __ZNK8facebook5react27ConcreteComponentDescriptorINS0_22ConcreteViewShadowNodeIXadL_ZNS0_31RNSScreenContainerComponentNameEEENS0_23RNSScreenContainerPropsENS0_30RNSScreenContainerEventEmitterENS0_9StateDataEEEE11createStateERKNS0_16ShadowNodeFamilyERKNSt3__110shared_ptrIKvEE, symObjAddr: 0x29F0, symBinAddr: 0x1EF48, symSize: 0x8 }
  - { offset: 0x289305, size: 0x8, addend: 0x0, symName: __ZNK8facebook5react27ConcreteComponentDescriptorINS0_22ConcreteViewShadowNodeIXadL_ZNS0_31RNSScreenContainerComponentNameEEENS0_23RNSScreenContainerPropsENS0_30RNSScreenContainerEventEmitterENS0_9StateDataEEEE11createStateERKNS0_16ShadowNodeFamilyERKNSt3__110shared_ptrIKvEE, symObjAddr: 0x29F0, symBinAddr: 0x1EF48, symSize: 0x8 }
  - { offset: 0x28932A, size: 0x8, addend: 0x0, symName: __ZNK8facebook5react27ConcreteComponentDescriptorINS0_22ConcreteViewShadowNodeIXadL_ZNS0_31RNSScreenContainerComponentNameEEENS0_23RNSScreenContainerPropsENS0_30RNSScreenContainerEventEmitterENS0_9StateDataEEEE11createStateERKNS0_16ShadowNodeFamilyERKNSt3__110shared_ptrIKvEE, symObjAddr: 0x29F0, symBinAddr: 0x1EF48, symSize: 0x8 }
  - { offset: 0x28957F, size: 0x8, addend: 0x0, symName: __ZNK8facebook5react27ConcreteComponentDescriptorINS0_22ConcreteViewShadowNodeIXadL_ZNS0_31RNSScreenContainerComponentNameEEENS0_23RNSScreenContainerPropsENS0_30RNSScreenContainerEventEmitterENS0_9StateDataEEEE12createFamilyERKNS0_24ShadowNodeFamilyFragmentE, symObjAddr: 0x29F8, symBinAddr: 0x1EF50, symSize: 0x168 }
  - { offset: 0x289B38, size: 0x8, addend: 0x0, symName: __ZNK8facebook5react27ConcreteComponentDescriptorINS0_22ConcreteViewShadowNodeIXadL_ZNS0_31RNSScreenContainerComponentNameEEENS0_23RNSScreenContainerPropsENS0_30RNSScreenContainerEventEmitterENS0_9StateDataEEEE5adoptERNS0_10ShadowNodeE, symObjAddr: 0x2B60, symBinAddr: 0x1F0B8, symSize: 0x4 }
  - { offset: 0x28A3B2, size: 0x8, addend: 0x0, symName: __ZNSt3__120__shared_ptr_emplaceIN8facebook5react22ConcreteViewShadowNodeIXadL_ZNS2_31RNSScreenContainerComponentNameEEENS2_23RNSScreenContainerPropsENS2_30RNSScreenContainerEventEmitterENS2_9StateDataEEENS_9allocatorIS7_EEEC2B8ne200100IJRKNS2_18ShadowNodeFragmentERKNS_10shared_ptrIKNS2_16ShadowNodeFamilyEEENS2_16ShadowNodeTraitsEES9_Li0EEES9_DpOT_, symObjAddr: 0x2E8C, symBinAddr: 0x1F12C, symSize: 0x68 }
  - { offset: 0x28A79B, size: 0x8, addend: 0x0, symName: __ZNSt3__120__shared_ptr_emplaceIN8facebook5react22ConcreteViewShadowNodeIXadL_ZNS2_31RNSScreenContainerComponentNameEEENS2_23RNSScreenContainerPropsENS2_30RNSScreenContainerEventEmitterENS2_9StateDataEEENS_9allocatorIS7_EEED1Ev, symObjAddr: 0x2EF4, symBinAddr: 0x1F194, symSize: 0x14 }
  - { offset: 0x28A7BF, size: 0x8, addend: 0x0, symName: __ZNSt3__120__shared_ptr_emplaceIN8facebook5react22ConcreteViewShadowNodeIXadL_ZNS2_31RNSScreenContainerComponentNameEEENS2_23RNSScreenContainerPropsENS2_30RNSScreenContainerEventEmitterENS2_9StateDataEEENS_9allocatorIS7_EEED1Ev, symObjAddr: 0x2EF4, symBinAddr: 0x1F194, symSize: 0x14 }
  - { offset: 0x28A7F5, size: 0x8, addend: 0x0, symName: __ZNSt3__120__shared_ptr_emplaceIN8facebook5react22ConcreteViewShadowNodeIXadL_ZNS2_31RNSScreenContainerComponentNameEEENS2_23RNSScreenContainerPropsENS2_30RNSScreenContainerEventEmitterENS2_9StateDataEEENS_9allocatorIS7_EEED0Ev, symObjAddr: 0x2F08, symBinAddr: 0x1F1A8, symSize: 0x24 }
  - { offset: 0x28A8C8, size: 0x8, addend: 0x0, symName: __ZNSt3__120__shared_ptr_emplaceIN8facebook5react22ConcreteViewShadowNodeIXadL_ZNS2_31RNSScreenContainerComponentNameEEENS2_23RNSScreenContainerPropsENS2_30RNSScreenContainerEventEmitterENS2_9StateDataEEENS_9allocatorIS7_EEE16__on_zero_sharedEv, symObjAddr: 0x2F2C, symBinAddr: 0x1F1CC, symSize: 0xC }
  - { offset: 0x28A8F1, size: 0x8, addend: 0x0, symName: __ZNSt3__120__shared_ptr_emplaceIN8facebook5react22ConcreteViewShadowNodeIXadL_ZNS2_31RNSScreenContainerComponentNameEEENS2_23RNSScreenContainerPropsENS2_30RNSScreenContainerEventEmitterENS2_9StateDataEEENS_9allocatorIS7_EEE16__on_zero_sharedEv, symObjAddr: 0x2F2C, symBinAddr: 0x1F1CC, symSize: 0xC }
  - { offset: 0x28A910, size: 0x8, addend: 0x0, symName: __ZNSt3__120__shared_ptr_emplaceIN8facebook5react22ConcreteViewShadowNodeIXadL_ZNS2_31RNSScreenContainerComponentNameEEENS2_23RNSScreenContainerPropsENS2_30RNSScreenContainerEventEmitterENS2_9StateDataEEENS_9allocatorIS7_EEE16__on_zero_sharedEv, symObjAddr: 0x2F2C, symBinAddr: 0x1F1CC, symSize: 0xC }
  - { offset: 0x28A92F, size: 0x8, addend: 0x0, symName: __ZNSt3__120__shared_ptr_emplaceIN8facebook5react22ConcreteViewShadowNodeIXadL_ZNS2_31RNSScreenContainerComponentNameEEENS2_23RNSScreenContainerPropsENS2_30RNSScreenContainerEventEmitterENS2_9StateDataEEENS_9allocatorIS7_EEE16__on_zero_sharedEv, symObjAddr: 0x2F2C, symBinAddr: 0x1F1CC, symSize: 0xC }
  - { offset: 0x28A95B, size: 0x8, addend: 0x0, symName: __ZNSt3__120__shared_ptr_emplaceIN8facebook5react22ConcreteViewShadowNodeIXadL_ZNS2_31RNSScreenContainerComponentNameEEENS2_23RNSScreenContainerPropsENS2_30RNSScreenContainerEventEmitterENS2_9StateDataEEENS_9allocatorIS7_EEE21__on_zero_shared_weakEv, symObjAddr: 0x2F38, symBinAddr: 0x1F1D8, symSize: 0x4 }
  - { offset: 0x28A98F, size: 0x8, addend: 0x0, symName: __ZNSt3__120__shared_ptr_emplaceIN8facebook5react22ConcreteViewShadowNodeIXadL_ZNS2_31RNSScreenContainerComponentNameEEENS2_23RNSScreenContainerPropsENS2_30RNSScreenContainerEventEmitterENS2_9StateDataEEENS_9allocatorIS7_EEE21__on_zero_shared_weakEv, symObjAddr: 0x2F38, symBinAddr: 0x1F1D8, symSize: 0x4 }
  - { offset: 0x28A9B3, size: 0x8, addend: 0x0, symName: __ZNSt3__120__shared_ptr_emplaceIN8facebook5react22ConcreteViewShadowNodeIXadL_ZNS2_31RNSScreenContainerComponentNameEEENS2_23RNSScreenContainerPropsENS2_30RNSScreenContainerEventEmitterENS2_9StateDataEEENS_9allocatorIS7_EEE21__on_zero_shared_weakEv, symObjAddr: 0x2F38, symBinAddr: 0x1F1D8, symSize: 0x4 }
  - { offset: 0x28A9D8, size: 0x8, addend: 0x0, symName: __ZNSt3__120__shared_ptr_emplaceIN8facebook5react22ConcreteViewShadowNodeIXadL_ZNS2_31RNSScreenContainerComponentNameEEENS2_23RNSScreenContainerPropsENS2_30RNSScreenContainerEventEmitterENS2_9StateDataEEENS_9allocatorIS7_EEE21__on_zero_shared_weakEv, symObjAddr: 0x2F38, symBinAddr: 0x1F1D8, symSize: 0x4 }
  - { offset: 0x28AA10, size: 0x8, addend: 0x0, symName: __ZNSt3__120__shared_ptr_emplaceIN8facebook5react22ConcreteViewShadowNodeIXadL_ZNS2_31RNSScreenContainerComponentNameEEENS2_23RNSScreenContainerPropsENS2_30RNSScreenContainerEventEmitterENS2_9StateDataEEENS_9allocatorIS7_EEE21__on_zero_shared_weakEv, symObjAddr: 0x2F38, symBinAddr: 0x1F1D8, symSize: 0x4 }
  - { offset: 0x28AD0E, size: 0x8, addend: 0x0, symName: __ZN8facebook5react22ConcreteViewShadowNodeIXadL_ZNS0_31RNSScreenContainerComponentNameEEENS0_23RNSScreenContainerPropsENS0_30RNSScreenContainerEventEmitterENS0_9StateDataEED1Ev, symObjAddr: 0x2FA8, symBinAddr: 0x1F1DC, symSize: 0x70 }
  - { offset: 0x28B2AF, size: 0x8, addend: 0x0, symName: __ZN8facebook5react22ConcreteViewShadowNodeIXadL_ZNS0_31RNSScreenContainerComponentNameEEENS0_23RNSScreenContainerPropsENS0_30RNSScreenContainerEventEmitterENS0_9StateDataEED0Ev, symObjAddr: 0x3018, symBinAddr: 0x1F24C, symSize: 0x74 }
  - { offset: 0x28B6C7, size: 0x8, addend: 0x0, symName: __ZNK8facebook5react22ConcreteViewShadowNodeIXadL_ZNS0_31RNSScreenContainerComponentNameEEENS0_23RNSScreenContainerPropsENS0_30RNSScreenContainerEventEmitterENS0_9StateDataEE12getTransformEv, symObjAddr: 0x308C, symBinAddr: 0x1F2C0, symSize: 0x40 }
  - { offset: 0x28B73C, size: 0x8, addend: 0x0, symName: __ZNK8facebook5react22ConcreteViewShadowNodeIXadL_ZNS0_31RNSScreenContainerComponentNameEEENS0_23RNSScreenContainerPropsENS0_30RNSScreenContainerEventEmitterENS0_9StateDataEE16canBeTouchTargetEv, symObjAddr: 0x30CC, symBinAddr: 0x1F300, symSize: 0x18 }
  - { offset: 0x28B776, size: 0x8, addend: 0x0, symName: __ZNK8facebook5react22ConcreteViewShadowNodeIXadL_ZNS0_31RNSScreenContainerComponentNameEEENS0_23RNSScreenContainerPropsENS0_30RNSScreenContainerEventEmitterENS0_9StateDataEE16canBeTouchTargetEv, symObjAddr: 0x30CC, symBinAddr: 0x1F300, symSize: 0x18 }
  - { offset: 0x28B794, size: 0x8, addend: 0x0, symName: __ZNK8facebook5react22ConcreteViewShadowNodeIXadL_ZNS0_31RNSScreenContainerComponentNameEEENS0_23RNSScreenContainerPropsENS0_30RNSScreenContainerEventEmitterENS0_9StateDataEE16canBeTouchTargetEv, symObjAddr: 0x30CC, symBinAddr: 0x1F300, symSize: 0x18 }
  - { offset: 0x28B7B2, size: 0x8, addend: 0x0, symName: __ZNK8facebook5react22ConcreteViewShadowNodeIXadL_ZNS0_31RNSScreenContainerComponentNameEEENS0_23RNSScreenContainerPropsENS0_30RNSScreenContainerEventEmitterENS0_9StateDataEE24canChildrenBeTouchTargetEv, symObjAddr: 0x30E4, symBinAddr: 0x1F318, symSize: 0x18 }
  - { offset: 0x28B7E8, size: 0x8, addend: 0x0, symName: __ZNK8facebook5react22ConcreteViewShadowNodeIXadL_ZNS0_31RNSScreenContainerComponentNameEEENS0_23RNSScreenContainerPropsENS0_30RNSScreenContainerEventEmitterENS0_9StateDataEE24canChildrenBeTouchTargetEv, symObjAddr: 0x30E4, symBinAddr: 0x1F318, symSize: 0x18 }
  - { offset: 0x28B806, size: 0x8, addend: 0x0, symName: __ZNK8facebook5react22ConcreteViewShadowNodeIXadL_ZNS0_31RNSScreenContainerComponentNameEEENS0_23RNSScreenContainerPropsENS0_30RNSScreenContainerEventEmitterENS0_9StateDataEE24canChildrenBeTouchTargetEv, symObjAddr: 0x30E4, symBinAddr: 0x1F318, symSize: 0x18 }
  - { offset: 0x28BC09, size: 0x8, addend: 0x0, symName: __ZNSt3__120__shared_ptr_emplaceIN8facebook5react22ConcreteViewShadowNodeIXadL_ZNS2_31RNSScreenContainerComponentNameEEENS2_23RNSScreenContainerPropsENS2_30RNSScreenContainerEventEmitterENS2_9StateDataEEENS_9allocatorIS7_EEEC2B8ne200100IJRKNS2_10ShadowNodeERKNS2_18ShadowNodeFragmentEES9_Li0EEES9_DpOT_, symObjAddr: 0x3438, symBinAddr: 0x1F390, symSize: 0x64 }
  - { offset: 0x28C149, size: 0x8, addend: 0x0, symName: __ZNSt3__120__shared_ptr_emplaceIN8facebook5react23RNSScreenContainerPropsENS_9allocatorIS3_EEEC2B8ne200100IJRKNS2_18PropsParserContextERKS3_RKNS2_8RawPropsEES5_Li0EEES5_DpOT_, symObjAddr: 0x3658, symBinAddr: 0x1F558, symSize: 0x4C }
  - { offset: 0x28C344, size: 0x8, addend: 0x0, symName: __ZNSt3__120__shared_ptr_emplaceIN8facebook5react23RNSScreenContainerPropsENS_9allocatorIS3_EEED1Ev, symObjAddr: 0x36A4, symBinAddr: 0x1F5A4, symSize: 0x14 }
  - { offset: 0x28C368, size: 0x8, addend: 0x0, symName: __ZNSt3__120__shared_ptr_emplaceIN8facebook5react23RNSScreenContainerPropsENS_9allocatorIS3_EEED1Ev, symObjAddr: 0x36A4, symBinAddr: 0x1F5A4, symSize: 0x14 }
  - { offset: 0x28C39E, size: 0x8, addend: 0x0, symName: __ZNSt3__120__shared_ptr_emplaceIN8facebook5react23RNSScreenContainerPropsENS_9allocatorIS3_EEED0Ev, symObjAddr: 0x36B8, symBinAddr: 0x1F5B8, symSize: 0x24 }
  - { offset: 0x28C441, size: 0x8, addend: 0x0, symName: __ZNSt3__120__shared_ptr_emplaceIN8facebook5react23RNSScreenContainerPropsENS_9allocatorIS3_EEE16__on_zero_sharedEv, symObjAddr: 0x36DC, symBinAddr: 0x1F5DC, symSize: 0x14 }
  - { offset: 0x28C46A, size: 0x8, addend: 0x0, symName: __ZNSt3__120__shared_ptr_emplaceIN8facebook5react23RNSScreenContainerPropsENS_9allocatorIS3_EEE16__on_zero_sharedEv, symObjAddr: 0x36DC, symBinAddr: 0x1F5DC, symSize: 0x14 }
  - { offset: 0x28C4F8, size: 0x8, addend: 0x0, symName: __ZNSt3__120__shared_ptr_emplaceIN8facebook5react23RNSScreenContainerPropsENS_9allocatorIS3_EEE21__on_zero_shared_weakEv, symObjAddr: 0x36F0, symBinAddr: 0x1F5F0, symSize: 0x4 }
  - { offset: 0x28C52C, size: 0x8, addend: 0x0, symName: __ZNSt3__120__shared_ptr_emplaceIN8facebook5react23RNSScreenContainerPropsENS_9allocatorIS3_EEE21__on_zero_shared_weakEv, symObjAddr: 0x36F0, symBinAddr: 0x1F5F0, symSize: 0x4 }
  - { offset: 0x28C550, size: 0x8, addend: 0x0, symName: __ZNSt3__120__shared_ptr_emplaceIN8facebook5react23RNSScreenContainerPropsENS_9allocatorIS3_EEE21__on_zero_shared_weakEv, symObjAddr: 0x36F0, symBinAddr: 0x1F5F0, symSize: 0x4 }
  - { offset: 0x28C575, size: 0x8, addend: 0x0, symName: __ZNSt3__120__shared_ptr_emplaceIN8facebook5react23RNSScreenContainerPropsENS_9allocatorIS3_EEE21__on_zero_shared_weakEv, symObjAddr: 0x36F0, symBinAddr: 0x1F5F0, symSize: 0x4 }
  - { offset: 0x28C5AD, size: 0x8, addend: 0x0, symName: __ZNSt3__120__shared_ptr_emplaceIN8facebook5react23RNSScreenContainerPropsENS_9allocatorIS3_EEE21__on_zero_shared_weakEv, symObjAddr: 0x36F0, symBinAddr: 0x1F5F0, symSize: 0x4 }
  - { offset: 0x28CC7C, size: 0x8, addend: 0x0, symName: __ZNSt3__120__shared_ptr_emplaceIKN8facebook5react30RNSScreenContainerEventEmitterENS_9allocatorIS3_EEEC2B8ne200100IJNS_10shared_ptrINS2_11EventTargetEEERKNS_8weak_ptrIKNS2_15EventDispatcherEEEES6_Li0EEES6_DpOT_, symObjAddr: 0x39B0, symBinAddr: 0x1F654, symSize: 0x4C }
  - { offset: 0x28CE35, size: 0x8, addend: 0x0, symName: __ZNSt3__120__shared_ptr_emplaceIKN8facebook5react30RNSScreenContainerEventEmitterENS_9allocatorIS3_EEED1Ev, symObjAddr: 0x39FC, symBinAddr: 0x1F6A0, symSize: 0x14 }
  - { offset: 0x28CE59, size: 0x8, addend: 0x0, symName: __ZNSt3__120__shared_ptr_emplaceIKN8facebook5react30RNSScreenContainerEventEmitterENS_9allocatorIS3_EEED1Ev, symObjAddr: 0x39FC, symBinAddr: 0x1F6A0, symSize: 0x14 }
  - { offset: 0x28CE8F, size: 0x8, addend: 0x0, symName: __ZNSt3__120__shared_ptr_emplaceIKN8facebook5react30RNSScreenContainerEventEmitterENS_9allocatorIS3_EEED0Ev, symObjAddr: 0x3A10, symBinAddr: 0x1F6B4, symSize: 0x24 }
  - { offset: 0x28CF62, size: 0x8, addend: 0x0, symName: __ZNSt3__120__shared_ptr_emplaceIKN8facebook5react30RNSScreenContainerEventEmitterENS_9allocatorIS3_EEE16__on_zero_sharedEv, symObjAddr: 0x3A34, symBinAddr: 0x1F6D8, symSize: 0xC }
  - { offset: 0x28CF8B, size: 0x8, addend: 0x0, symName: __ZNSt3__120__shared_ptr_emplaceIKN8facebook5react30RNSScreenContainerEventEmitterENS_9allocatorIS3_EEE16__on_zero_sharedEv, symObjAddr: 0x3A34, symBinAddr: 0x1F6D8, symSize: 0xC }
  - { offset: 0x28CFAA, size: 0x8, addend: 0x0, symName: __ZNSt3__120__shared_ptr_emplaceIKN8facebook5react30RNSScreenContainerEventEmitterENS_9allocatorIS3_EEE16__on_zero_sharedEv, symObjAddr: 0x3A34, symBinAddr: 0x1F6D8, symSize: 0xC }
  - { offset: 0x28CFC9, size: 0x8, addend: 0x0, symName: __ZNSt3__120__shared_ptr_emplaceIKN8facebook5react30RNSScreenContainerEventEmitterENS_9allocatorIS3_EEE16__on_zero_sharedEv, symObjAddr: 0x3A34, symBinAddr: 0x1F6D8, symSize: 0xC }
  - { offset: 0x28CFF5, size: 0x8, addend: 0x0, symName: __ZNSt3__120__shared_ptr_emplaceIKN8facebook5react30RNSScreenContainerEventEmitterENS_9allocatorIS3_EEE21__on_zero_shared_weakEv, symObjAddr: 0x3A40, symBinAddr: 0x1F6E4, symSize: 0x4 }
  - { offset: 0x28D029, size: 0x8, addend: 0x0, symName: __ZNSt3__120__shared_ptr_emplaceIKN8facebook5react30RNSScreenContainerEventEmitterENS_9allocatorIS3_EEE21__on_zero_shared_weakEv, symObjAddr: 0x3A40, symBinAddr: 0x1F6E4, symSize: 0x4 }
  - { offset: 0x28D04D, size: 0x8, addend: 0x0, symName: __ZNSt3__120__shared_ptr_emplaceIKN8facebook5react30RNSScreenContainerEventEmitterENS_9allocatorIS3_EEE21__on_zero_shared_weakEv, symObjAddr: 0x3A40, symBinAddr: 0x1F6E4, symSize: 0x4 }
  - { offset: 0x28D072, size: 0x8, addend: 0x0, symName: __ZNSt3__120__shared_ptr_emplaceIKN8facebook5react30RNSScreenContainerEventEmitterENS_9allocatorIS3_EEE21__on_zero_shared_weakEv, symObjAddr: 0x3A40, symBinAddr: 0x1F6E4, symSize: 0x4 }
  - { offset: 0x28D0A9, size: 0x8, addend: 0x0, symName: __ZNSt3__120__shared_ptr_emplaceIKN8facebook5react30RNSScreenContainerEventEmitterENS_9allocatorIS3_EEE21__on_zero_shared_weakEv, symObjAddr: 0x3A40, symBinAddr: 0x1F6E4, symSize: 0x4 }
  - { offset: 0x28D602, size: 0x8, addend: 0x0, symName: __ZN8facebook5react30RNSScreenContainerEventEmitterD1Ev, symObjAddr: 0x3B84, symBinAddr: 0x1F828, symSize: 0x34 }
  - { offset: 0x28D735, size: 0x8, addend: 0x0, symName: __ZN8facebook5react30RNSScreenContainerEventEmitterD0Ev, symObjAddr: 0x3BB8, symBinAddr: 0x1F85C, symSize: 0x38 }
  - { offset: 0x28DEE0, size: 0x8, addend: 0x0, symName: __ZNSt3__120__shared_ptr_emplaceIN8facebook5react16ShadowNodeFamilyENS_9allocatorIS3_EEEC2B8ne200100IJRKNS2_24ShadowNodeFamilyFragmentERNS_10shared_ptrIKNS2_30RNSScreenContainerEventEmitterEEERKNS_8weak_ptrIKNS2_15EventDispatcherEEERKNS2_27ConcreteComponentDescriptorINS2_22ConcreteViewShadowNodeIXadL_ZNS2_31RNSScreenContainerComponentNameEEENS2_23RNSScreenContainerPropsESC_NS2_9StateDataEEEEEES5_Li0EEES5_DpOT_, symObjAddr: 0x4094, symBinAddr: 0x1F90C, symSize: 0x4C }
  - { offset: 0x28E272, size: 0x8, addend: 0x0, symName: __GLOBAL__sub_I_RNSScreenContainer.mm, symObjAddr: 0x4868, symBinAddr: 0x1FA34, symSize: 0x20 }
  - { offset: 0x2906AE, size: 0x8, addend: 0x0, symName: __ZN8facebook5react17HostPlatformColorL14UndefinedColorE, symObjAddr: 0x179238, symBinAddr: 0x7D7F8, symSize: 0x0 }
  - { offset: 0x293A05, size: 0x8, addend: 0x0, symName: __ZN8facebook5react38concreteComponentDescriptorConstructorINS0_27ConcreteComponentDescriptorINS0_22ConcreteViewShadowNodeIXadL_ZNS0_36RNSScreenContentWrapperComponentNameEEENS0_28RNSScreenContentWrapperPropsENS0_35RNSScreenContentWrapperEventEmitterENS0_9StateDataEEEEEEENSt3__110unique_ptrIKNS0_19ComponentDescriptorENS9_14default_deleteISC_EEEERKNS0_29ComponentDescriptorParametersE, symObjAddr: 0x74C, symBinAddr: 0x201A0, symSize: 0x34 }
  - { offset: 0x2AF097, size: 0x8, addend: 0x0, symName: __ZNSt3__111make_uniqueB8ne200100IKN8facebook5react27ConcreteComponentDescriptorINS2_22ConcreteViewShadowNodeIXadL_ZNS2_36RNSScreenContentWrapperComponentNameEEENS2_28RNSScreenContentWrapperPropsENS2_35RNSScreenContentWrapperEventEmitterENS2_9StateDataEEEEEJRKNS2_29ComponentDescriptorParametersEELi0EEENS_10unique_ptrIT_NS_14default_deleteISF_EEEEDpOT0_, symObjAddr: 0x780, symBinAddr: 0x201D4, symSize: 0xD4 }
  - { offset: 0x2AFA25, size: 0x8, addend: 0x0, symName: __ZNSt3__115allocate_sharedB8ne200100IN8facebook5react22ConcreteViewShadowNodeIXadL_ZNS2_36RNSScreenContentWrapperComponentNameEEENS2_28RNSScreenContentWrapperPropsENS2_35RNSScreenContentWrapperEventEmitterENS2_9StateDataEEENS_9allocatorIS7_EEJRKNS2_18ShadowNodeFragmentERKNS_10shared_ptrIKNS2_16ShadowNodeFamilyEEENS2_16ShadowNodeTraitsEELi0EEENSD_IT_EERKT0_DpOT1_, symObjAddr: 0x1F7C, symBinAddr: 0x20A14, symSize: 0x70 }
  - { offset: 0x2AFDAF, size: 0x8, addend: 0x0, symName: __ZNSt3__115allocate_sharedB8ne200100IN8facebook5react22ConcreteViewShadowNodeIXadL_ZNS2_36RNSScreenContentWrapperComponentNameEEENS2_28RNSScreenContentWrapperPropsENS2_35RNSScreenContentWrapperEventEmitterENS2_9StateDataEEENS_9allocatorIS7_EEJRKNS2_10ShadowNodeERKNS2_18ShadowNodeFragmentEELi0EEENS_10shared_ptrIT_EERKT0_DpOT1_, symObjAddr: 0x2538, symBinAddr: 0x20C88, symSize: 0x60 }
  - { offset: 0x2B0736, size: 0x8, addend: 0x0, symName: __ZNSt3__115allocate_sharedB8ne200100IKN8facebook5react35RNSScreenContentWrapperEventEmitterENS_9allocatorIS3_EEJNS_10shared_ptrINS2_11EventTargetEEERKNS_8weak_ptrIKNS2_15EventDispatcherEEEELi0EEENS7_IT_EERKT0_DpOT1_, symObjAddr: 0x2C18, symBinAddr: 0x2105C, symSize: 0x60 }
  - { offset: 0x2B09FA, size: 0x8, addend: 0x0, symName: __ZNSt3__115allocate_sharedB8ne200100IN8facebook5react16ShadowNodeFamilyENS_9allocatorIS3_EEJRKNS2_24ShadowNodeFamilyFragmentERNS_10shared_ptrIKNS2_35RNSScreenContentWrapperEventEmitterEEERKNS_8weak_ptrIKNS2_15EventDispatcherEEERKNS2_27ConcreteComponentDescriptorINS2_22ConcreteViewShadowNodeIXadL_ZNS2_36RNSScreenContentWrapperComponentNameEEENS2_28RNSScreenContentWrapperPropsESA_NS2_9StateDataEEEEEELi0EEENS9_IT_EERKT0_DpOT1_, symObjAddr: 0x32E4, symBinAddr: 0x212FC, symSize: 0x78 }
  - { offset: 0x2B1F1A, size: 0x8, addend: 0x0, symName: __ZNSt3__115allocate_sharedB8ne200100IKN8facebook5react28RNSScreenContentWrapperPropsENS_9allocatorIS3_EEJELi0EEENS_10shared_ptrIT_EERKT0_DpOT1_, symObjAddr: 0x274C, symBinAddr: 0x20E44, symSize: 0x48 }
  - { offset: 0x2B21F5, size: 0x8, addend: 0x0, symName: __ZNSt3__115allocate_sharedB8ne200100IN8facebook5react28RNSScreenContentWrapperPropsENS_9allocatorIS3_EEJRKNS2_18PropsParserContextERKS3_RKNS2_8RawPropsEELi0EEENS_10shared_ptrIT_EERKT0_DpOT1_, symObjAddr: 0x28B0, symBinAddr: 0x20F50, symSize: 0x70 }
  - { offset: 0x2B3387, size: 0x8, addend: 0x0, symName: __ZNSt3__112construct_atB8ne200100IN8facebook5react35RNSScreenContentWrapperEventEmitterEJNS_10shared_ptrINS2_11EventTargetEEERKNS_8weak_ptrIKNS2_15EventDispatcherEEEEPS3_EEPT_SF_DpOT0_, symObjAddr: 0x2D0C, symBinAddr: 0x21150, symSize: 0x140 }
  - { offset: 0x2B41C4, size: 0x8, addend: 0x0, symName: __ZNSt3__112construct_atB8ne200100IN8facebook5react16ShadowNodeFamilyEJRKNS2_24ShadowNodeFamilyFragmentERNS_10shared_ptrIKNS2_35RNSScreenContentWrapperEventEmitterEEERKNS_8weak_ptrIKNS2_15EventDispatcherEEERKNS2_27ConcreteComponentDescriptorINS2_22ConcreteViewShadowNodeIXadL_ZNS2_36RNSScreenContentWrapperComponentNameEEENS2_28RNSScreenContentWrapperPropsES8_NS2_9StateDataEEEEEEPS3_EEPT_SS_DpOT0_, symObjAddr: 0x33EC, symBinAddr: 0x213C0, symSize: 0xDC }
  - { offset: 0x2B8F86, size: 0x8, addend: 0x0, symName: __ZN8facebook5react18ConcreteShadowNodeIXadL_ZNS0_36RNSScreenContentWrapperComponentNameEEENS0_24YogaLayoutableShadowNodeENS0_28RNSScreenContentWrapperPropsENS0_35RNSScreenContentWrapperEventEmitterENS0_9StateDataEE18defaultSharedPropsEv, symObjAddr: 0x2654, symBinAddr: 0x20D4C, symSize: 0x9C }
  - { offset: 0x2B8FA6, size: 0x8, addend: 0x0, symName: __ZZN8facebook5react18ConcreteShadowNodeIXadL_ZNS0_36RNSScreenContentWrapperComponentNameEEENS0_24YogaLayoutableShadowNodeENS0_28RNSScreenContentWrapperPropsENS0_35RNSScreenContentWrapperEventEmitterENS0_9StateDataEE18defaultSharedPropsEvE18defaultSharedProps, symObjAddr: 0x5288, symBinAddr: 0x7D038, symSize: 0x0 }
  - { offset: 0x2B9241, size: 0x8, addend: 0x0, symName: '-[RNSScreenContentWrapper notifyDelegateWithFrame:]', symObjAddr: 0x0, symBinAddr: 0x1FA54, symSize: 0x80 }
  - { offset: 0x2B927E, size: 0x8, addend: 0x0, symName: '-[RNSScreenContentWrapper triggerDelegateUpdate]', symObjAddr: 0x80, symBinAddr: 0x1FAD4, symSize: 0x24 }
  - { offset: 0x2B92AF, size: 0x8, addend: 0x0, symName: '-[RNSScreenContentWrapper willMoveToWindow:]', symObjAddr: 0xA4, symBinAddr: 0x1FAF8, symSize: 0xC }
  - { offset: 0x2B92ED, size: 0x8, addend: 0x0, symName: '-[RNSScreenContentWrapper attachToAncestorScreenViewStartingFrom:]', symObjAddr: 0xB0, symBinAddr: 0x1FB04, symSize: 0x158 }
  - { offset: 0x2B9383, size: 0x8, addend: 0x0, symName: '-[RNSScreenContentWrapper attachToAncestorScreenView]', symObjAddr: 0x208, symBinAddr: 0x1FC5C, symSize: 0x9C }
  - { offset: 0x2B93FD, size: 0x8, addend: 0x0, symName: '-[RNSScreenContentWrapper findFirstScreenViewAncestor]', symObjAddr: 0x2A4, symBinAddr: 0x1FCF8, symSize: 0x7C }
  - { offset: 0x2B9441, size: 0x8, addend: 0x0, symName: '-[RNSScreenContentWrapper childRCTScrollViewComponent]', symObjAddr: 0x320, symBinAddr: 0x1FD74, symSize: 0x138 }
  - { offset: 0x2B948C, size: 0x8, addend: 0x0, symName: '-[RNSScreenContentWrapper coerceChildScrollViewComponentSizeToSize:]', symObjAddr: 0x458, symBinAddr: 0x1FEAC, symSize: 0x1D0 }
  - { offset: 0x2B95BB, size: 0x8, addend: 0x0, symName: '-[RNSScreenContentWrapper updateLayoutMetrics:oldLayoutMetrics:]', symObjAddr: 0x628, symBinAddr: 0x2007C, symSize: 0x54 }
  - { offset: 0x2B96E2, size: 0x8, addend: 0x0, symName: '+[RNSScreenContentWrapper componentDescriptorProvider]', symObjAddr: 0x67C, symBinAddr: 0x200D0, symSize: 0x20 }
  - { offset: 0x2B9716, size: 0x8, addend: 0x0, symName: '+[RNSScreenContentWrapper componentDescriptorProvider]', symObjAddr: 0x67C, symBinAddr: 0x200D0, symSize: 0x20 }
  - { offset: 0x2B9779, size: 0x8, addend: 0x0, symName: __Z26RNSScreenContentWrapperClsv, symObjAddr: 0x69C, symBinAddr: 0x200F0, symSize: 0xC }
  - { offset: 0x2B9797, size: 0x8, addend: 0x0, symName: '+[RNSScreenContentWrapper load]', symObjAddr: 0x6A8, symBinAddr: 0x200FC, symSize: 0x34 }
  - { offset: 0x2B97C8, size: 0x8, addend: 0x0, symName: '-[RNSScreenContentWrapper delegate]', symObjAddr: 0x6DC, symBinAddr: 0x20130, symSize: 0x20 }
  - { offset: 0x2B97FE, size: 0x8, addend: 0x0, symName: '-[RNSScreenContentWrapper setDelegate:]', symObjAddr: 0x6FC, symBinAddr: 0x20150, symSize: 0x14 }
  - { offset: 0x2B983E, size: 0x8, addend: 0x0, symName: '-[RNSScreenContentWrapper .cxx_destruct]', symObjAddr: 0x710, symBinAddr: 0x20164, symSize: 0x10 }
  - { offset: 0x2B986F, size: 0x8, addend: 0x0, symName: '+[RNSScreenContentWrapperManager moduleName]', symObjAddr: 0x720, symBinAddr: 0x20174, symSize: 0xC }
  - { offset: 0x2B98A0, size: 0x8, addend: 0x0, symName: '+[RNSScreenContentWrapperManager load]', symObjAddr: 0x72C, symBinAddr: 0x20180, symSize: 0x4 }
  - { offset: 0x2B98D3, size: 0x8, addend: 0x0, symName: '+[RNSScreenContentWrapperManager load]', symObjAddr: 0x72C, symBinAddr: 0x20180, symSize: 0x4 }
  - { offset: 0x2B98F3, size: 0x8, addend: 0x0, symName: '-[RNSScreenContentWrapperManager view]', symObjAddr: 0x730, symBinAddr: 0x20184, symSize: 0x1C }
  - { offset: 0x2B9E70, size: 0x8, addend: 0x0, symName: __ZN8facebook5react14RawPropsParser7prepareINS0_28RNSScreenContentWrapperPropsEEEvv, symObjAddr: 0x8A4, symBinAddr: 0x202A8, symSize: 0x1C4 }
  - { offset: 0x2BC8C7, size: 0x8, addend: 0x0, symName: __ZN8facebook5react27ConcreteComponentDescriptorINS0_22ConcreteViewShadowNodeIXadL_ZNS0_36RNSScreenContentWrapperComponentNameEEENS0_28RNSScreenContentWrapperPropsENS0_35RNSScreenContentWrapperEventEmitterENS0_9StateDataEEEED1Ev, symObjAddr: 0xA68, symBinAddr: 0x2046C, symSize: 0x4 }
  - { offset: 0x2BC8EB, size: 0x8, addend: 0x0, symName: __ZN8facebook5react27ConcreteComponentDescriptorINS0_22ConcreteViewShadowNodeIXadL_ZNS0_36RNSScreenContentWrapperComponentNameEEENS0_28RNSScreenContentWrapperPropsENS0_35RNSScreenContentWrapperEventEmitterENS0_9StateDataEEEED1Ev, symObjAddr: 0xA68, symBinAddr: 0x2046C, symSize: 0x4 }
  - { offset: 0x2BC90A, size: 0x8, addend: 0x0, symName: __ZN8facebook5react27ConcreteComponentDescriptorINS0_22ConcreteViewShadowNodeIXadL_ZNS0_36RNSScreenContentWrapperComponentNameEEENS0_28RNSScreenContentWrapperPropsENS0_35RNSScreenContentWrapperEventEmitterENS0_9StateDataEEEED1Ev, symObjAddr: 0xA68, symBinAddr: 0x2046C, symSize: 0x4 }
  - { offset: 0x2BCBE5, size: 0x8, addend: 0x0, symName: __ZN8facebook5react27ConcreteComponentDescriptorINS0_22ConcreteViewShadowNodeIXadL_ZNS0_36RNSScreenContentWrapperComponentNameEEENS0_28RNSScreenContentWrapperPropsENS0_35RNSScreenContentWrapperEventEmitterENS0_9StateDataEEEED0Ev, symObjAddr: 0xA6C, symBinAddr: 0x20470, symSize: 0x14 }
  - { offset: 0x2BCC66, size: 0x8, addend: 0x0, symName: __ZNK8facebook5react27ConcreteComponentDescriptorINS0_22ConcreteViewShadowNodeIXadL_ZNS0_36RNSScreenContentWrapperComponentNameEEENS0_28RNSScreenContentWrapperPropsENS0_35RNSScreenContentWrapperEventEmitterENS0_9StateDataEEEE18getComponentHandleEv, symObjAddr: 0xA80, symBinAddr: 0x20484, symSize: 0xC }
  - { offset: 0x2BCC8C, size: 0x8, addend: 0x0, symName: __ZNK8facebook5react27ConcreteComponentDescriptorINS0_22ConcreteViewShadowNodeIXadL_ZNS0_36RNSScreenContentWrapperComponentNameEEENS0_28RNSScreenContentWrapperPropsENS0_35RNSScreenContentWrapperEventEmitterENS0_9StateDataEEEE16getComponentNameEv, symObjAddr: 0xA8C, symBinAddr: 0x20490, symSize: 0xC }
  - { offset: 0x2BCCB2, size: 0x8, addend: 0x0, symName: __ZNK8facebook5react27ConcreteComponentDescriptorINS0_22ConcreteViewShadowNodeIXadL_ZNS0_36RNSScreenContentWrapperComponentNameEEENS0_28RNSScreenContentWrapperPropsENS0_35RNSScreenContentWrapperEventEmitterENS0_9StateDataEEEE9getTraitsEv, symObjAddr: 0xA98, symBinAddr: 0x2049C, symSize: 0x8 }
  - { offset: 0x2BCDB3, size: 0x8, addend: 0x0, symName: __ZNK8facebook5react27ConcreteComponentDescriptorINS0_22ConcreteViewShadowNodeIXadL_ZNS0_36RNSScreenContentWrapperComponentNameEEENS0_28RNSScreenContentWrapperPropsENS0_35RNSScreenContentWrapperEventEmitterENS0_9StateDataEEEE16createShadowNodeERKNS0_18ShadowNodeFragmentERKNSt3__110shared_ptrIKNS0_16ShadowNodeFamilyEEE, symObjAddr: 0xAA0, symBinAddr: 0x204A4, symSize: 0x90 }
  - { offset: 0x2BD0AD, size: 0x8, addend: 0x0, symName: __ZNK8facebook5react27ConcreteComponentDescriptorINS0_22ConcreteViewShadowNodeIXadL_ZNS0_36RNSScreenContentWrapperComponentNameEEENS0_28RNSScreenContentWrapperPropsENS0_35RNSScreenContentWrapperEventEmitterENS0_9StateDataEEEE15cloneShadowNodeERKNS0_10ShadowNodeERKNS0_18ShadowNodeFragmentE, symObjAddr: 0xB30, symBinAddr: 0x20534, symSize: 0x104 }
  - { offset: 0x2BD454, size: 0x8, addend: 0x0, symName: __ZNK8facebook5react27ConcreteComponentDescriptorINS0_22ConcreteViewShadowNodeIXadL_ZNS0_36RNSScreenContentWrapperComponentNameEEENS0_28RNSScreenContentWrapperPropsENS0_35RNSScreenContentWrapperEventEmitterENS0_9StateDataEEEE11appendChildERKNSt3__110shared_ptrIKNS0_10ShadowNodeEEESE_, symObjAddr: 0xC34, symBinAddr: 0x20638, symSize: 0x14 }
  - { offset: 0x2BD4B0, size: 0x8, addend: 0x0, symName: __ZNK8facebook5react27ConcreteComponentDescriptorINS0_22ConcreteViewShadowNodeIXadL_ZNS0_36RNSScreenContentWrapperComponentNameEEENS0_28RNSScreenContentWrapperPropsENS0_35RNSScreenContentWrapperEventEmitterENS0_9StateDataEEEE11appendChildERKNSt3__110shared_ptrIKNS0_10ShadowNodeEEESE_, symObjAddr: 0xC34, symBinAddr: 0x20638, symSize: 0x14 }
  - { offset: 0x2BDD9F, size: 0x8, addend: 0x0, symName: __ZNK8facebook5react27ConcreteComponentDescriptorINS0_22ConcreteViewShadowNodeIXadL_ZNS0_36RNSScreenContentWrapperComponentNameEEENS0_28RNSScreenContentWrapperPropsENS0_35RNSScreenContentWrapperEventEmitterENS0_9StateDataEEEE10clonePropsERKNS0_18PropsParserContextERKNSt3__110shared_ptrIKNS0_5PropsEEENS0_8RawPropsE, symObjAddr: 0xC48, symBinAddr: 0x2064C, symSize: 0x21C }
  - { offset: 0x2BE96B, size: 0x8, addend: 0x0, symName: __ZN8facebook5react18ConcreteShadowNodeIXadL_ZNS0_36RNSScreenContentWrapperComponentNameEEENS0_24YogaLayoutableShadowNodeENS0_28RNSScreenContentWrapperPropsENS0_35RNSScreenContentWrapperEventEmitterENS0_9StateDataEE5PropsERKNS0_18PropsParserContextERKNS0_8RawPropsERKNSt3__110shared_ptrIKNS0_5PropsEEE, symObjAddr: 0x26F0, symBinAddr: 0x20DE8, symSize: 0x58 }
  - { offset: 0x2BEBDB, size: 0x8, addend: 0x0, symName: __ZNK8facebook5react27ConcreteComponentDescriptorINS0_22ConcreteViewShadowNodeIXadL_ZNS0_36RNSScreenContentWrapperComponentNameEEENS0_28RNSScreenContentWrapperPropsENS0_35RNSScreenContentWrapperEventEmitterENS0_9StateDataEEEE18createInitialStateERKNSt3__110shared_ptrIKNS0_5PropsEEERKNS9_IKNS0_16ShadowNodeFamilyEEE, symObjAddr: 0xE64, symBinAddr: 0x20868, symSize: 0x8 }
  - { offset: 0x2BEC21, size: 0x8, addend: 0x0, symName: __ZNK8facebook5react27ConcreteComponentDescriptorINS0_22ConcreteViewShadowNodeIXadL_ZNS0_36RNSScreenContentWrapperComponentNameEEENS0_28RNSScreenContentWrapperPropsENS0_35RNSScreenContentWrapperEventEmitterENS0_9StateDataEEEE18createInitialStateERKNSt3__110shared_ptrIKNS0_5PropsEEERKNS9_IKNS0_16ShadowNodeFamilyEEE, symObjAddr: 0xE64, symBinAddr: 0x20868, symSize: 0x8 }
  - { offset: 0x2BEC46, size: 0x8, addend: 0x0, symName: __ZNK8facebook5react27ConcreteComponentDescriptorINS0_22ConcreteViewShadowNodeIXadL_ZNS0_36RNSScreenContentWrapperComponentNameEEENS0_28RNSScreenContentWrapperPropsENS0_35RNSScreenContentWrapperEventEmitterENS0_9StateDataEEEE18createInitialStateERKNSt3__110shared_ptrIKNS0_5PropsEEERKNS9_IKNS0_16ShadowNodeFamilyEEE, symObjAddr: 0xE64, symBinAddr: 0x20868, symSize: 0x8 }
  - { offset: 0x2BEC6A, size: 0x8, addend: 0x0, symName: __ZNK8facebook5react27ConcreteComponentDescriptorINS0_22ConcreteViewShadowNodeIXadL_ZNS0_36RNSScreenContentWrapperComponentNameEEENS0_28RNSScreenContentWrapperPropsENS0_35RNSScreenContentWrapperEventEmitterENS0_9StateDataEEEE11createStateERKNS0_16ShadowNodeFamilyERKNSt3__110shared_ptrIKvEE, symObjAddr: 0xE6C, symBinAddr: 0x20870, symSize: 0x8 }
  - { offset: 0x2BECB0, size: 0x8, addend: 0x0, symName: __ZNK8facebook5react27ConcreteComponentDescriptorINS0_22ConcreteViewShadowNodeIXadL_ZNS0_36RNSScreenContentWrapperComponentNameEEENS0_28RNSScreenContentWrapperPropsENS0_35RNSScreenContentWrapperEventEmitterENS0_9StateDataEEEE11createStateERKNS0_16ShadowNodeFamilyERKNSt3__110shared_ptrIKvEE, symObjAddr: 0xE6C, symBinAddr: 0x20870, symSize: 0x8 }
  - { offset: 0x2BECD5, size: 0x8, addend: 0x0, symName: __ZNK8facebook5react27ConcreteComponentDescriptorINS0_22ConcreteViewShadowNodeIXadL_ZNS0_36RNSScreenContentWrapperComponentNameEEENS0_28RNSScreenContentWrapperPropsENS0_35RNSScreenContentWrapperEventEmitterENS0_9StateDataEEEE11createStateERKNS0_16ShadowNodeFamilyERKNSt3__110shared_ptrIKvEE, symObjAddr: 0xE6C, symBinAddr: 0x20870, symSize: 0x8 }
  - { offset: 0x2BEF2A, size: 0x8, addend: 0x0, symName: __ZNK8facebook5react27ConcreteComponentDescriptorINS0_22ConcreteViewShadowNodeIXadL_ZNS0_36RNSScreenContentWrapperComponentNameEEENS0_28RNSScreenContentWrapperPropsENS0_35RNSScreenContentWrapperEventEmitterENS0_9StateDataEEEE12createFamilyERKNS0_24ShadowNodeFamilyFragmentE, symObjAddr: 0xE74, symBinAddr: 0x20878, symSize: 0x168 }
  - { offset: 0x2BF4E3, size: 0x8, addend: 0x0, symName: __ZNK8facebook5react27ConcreteComponentDescriptorINS0_22ConcreteViewShadowNodeIXadL_ZNS0_36RNSScreenContentWrapperComponentNameEEENS0_28RNSScreenContentWrapperPropsENS0_35RNSScreenContentWrapperEventEmitterENS0_9StateDataEEEE5adoptERNS0_10ShadowNodeE, symObjAddr: 0xFDC, symBinAddr: 0x209E0, symSize: 0x4 }
  - { offset: 0x2BF517, size: 0x8, addend: 0x0, symName: __ZN8facebook5react28RNSScreenContentWrapperPropsD1Ev, symObjAddr: 0xFF0, symBinAddr: 0x209E4, symSize: 0x10 }
  - { offset: 0x2BF53B, size: 0x8, addend: 0x0, symName: __ZN8facebook5react28RNSScreenContentWrapperPropsD1Ev, symObjAddr: 0xFF0, symBinAddr: 0x209E4, symSize: 0x10 }
  - { offset: 0x2C06CE, size: 0x8, addend: 0x0, symName: __ZN8facebook5react28RNSScreenContentWrapperPropsD0Ev, symObjAddr: 0x144C, symBinAddr: 0x209F4, symSize: 0x20 }
  - { offset: 0x2C3D54, size: 0x8, addend: 0x0, symName: __ZNSt3__120__shared_ptr_emplaceIN8facebook5react22ConcreteViewShadowNodeIXadL_ZNS2_36RNSScreenContentWrapperComponentNameEEENS2_28RNSScreenContentWrapperPropsENS2_35RNSScreenContentWrapperEventEmitterENS2_9StateDataEEENS_9allocatorIS7_EEEC2B8ne200100IJRKNS2_18ShadowNodeFragmentERKNS_10shared_ptrIKNS2_16ShadowNodeFamilyEEENS2_16ShadowNodeTraitsEES9_Li0EEES9_DpOT_, symObjAddr: 0x1FEC, symBinAddr: 0x20A84, symSize: 0x68 }
  - { offset: 0x2C4187, size: 0x8, addend: 0x0, symName: __ZNSt3__120__shared_ptr_emplaceIN8facebook5react22ConcreteViewShadowNodeIXadL_ZNS2_36RNSScreenContentWrapperComponentNameEEENS2_28RNSScreenContentWrapperPropsENS2_35RNSScreenContentWrapperEventEmitterENS2_9StateDataEEENS_9allocatorIS7_EEED1Ev, symObjAddr: 0x2054, symBinAddr: 0x20AEC, symSize: 0x14 }
  - { offset: 0x2C41AB, size: 0x8, addend: 0x0, symName: __ZNSt3__120__shared_ptr_emplaceIN8facebook5react22ConcreteViewShadowNodeIXadL_ZNS2_36RNSScreenContentWrapperComponentNameEEENS2_28RNSScreenContentWrapperPropsENS2_35RNSScreenContentWrapperEventEmitterENS2_9StateDataEEENS_9allocatorIS7_EEED1Ev, symObjAddr: 0x2054, symBinAddr: 0x20AEC, symSize: 0x14 }
  - { offset: 0x2C41E1, size: 0x8, addend: 0x0, symName: __ZNSt3__120__shared_ptr_emplaceIN8facebook5react22ConcreteViewShadowNodeIXadL_ZNS2_36RNSScreenContentWrapperComponentNameEEENS2_28RNSScreenContentWrapperPropsENS2_35RNSScreenContentWrapperEventEmitterENS2_9StateDataEEENS_9allocatorIS7_EEED0Ev, symObjAddr: 0x2068, symBinAddr: 0x20B00, symSize: 0x24 }
  - { offset: 0x2C42B4, size: 0x8, addend: 0x0, symName: __ZNSt3__120__shared_ptr_emplaceIN8facebook5react22ConcreteViewShadowNodeIXadL_ZNS2_36RNSScreenContentWrapperComponentNameEEENS2_28RNSScreenContentWrapperPropsENS2_35RNSScreenContentWrapperEventEmitterENS2_9StateDataEEENS_9allocatorIS7_EEE16__on_zero_sharedEv, symObjAddr: 0x208C, symBinAddr: 0x20B24, symSize: 0xC }
  - { offset: 0x2C42DD, size: 0x8, addend: 0x0, symName: __ZNSt3__120__shared_ptr_emplaceIN8facebook5react22ConcreteViewShadowNodeIXadL_ZNS2_36RNSScreenContentWrapperComponentNameEEENS2_28RNSScreenContentWrapperPropsENS2_35RNSScreenContentWrapperEventEmitterENS2_9StateDataEEENS_9allocatorIS7_EEE16__on_zero_sharedEv, symObjAddr: 0x208C, symBinAddr: 0x20B24, symSize: 0xC }
  - { offset: 0x2C42FC, size: 0x8, addend: 0x0, symName: __ZNSt3__120__shared_ptr_emplaceIN8facebook5react22ConcreteViewShadowNodeIXadL_ZNS2_36RNSScreenContentWrapperComponentNameEEENS2_28RNSScreenContentWrapperPropsENS2_35RNSScreenContentWrapperEventEmitterENS2_9StateDataEEENS_9allocatorIS7_EEE16__on_zero_sharedEv, symObjAddr: 0x208C, symBinAddr: 0x20B24, symSize: 0xC }
  - { offset: 0x2C431B, size: 0x8, addend: 0x0, symName: __ZNSt3__120__shared_ptr_emplaceIN8facebook5react22ConcreteViewShadowNodeIXadL_ZNS2_36RNSScreenContentWrapperComponentNameEEENS2_28RNSScreenContentWrapperPropsENS2_35RNSScreenContentWrapperEventEmitterENS2_9StateDataEEENS_9allocatorIS7_EEE16__on_zero_sharedEv, symObjAddr: 0x208C, symBinAddr: 0x20B24, symSize: 0xC }
  - { offset: 0x2C4347, size: 0x8, addend: 0x0, symName: __ZNSt3__120__shared_ptr_emplaceIN8facebook5react22ConcreteViewShadowNodeIXadL_ZNS2_36RNSScreenContentWrapperComponentNameEEENS2_28RNSScreenContentWrapperPropsENS2_35RNSScreenContentWrapperEventEmitterENS2_9StateDataEEENS_9allocatorIS7_EEE21__on_zero_shared_weakEv, symObjAddr: 0x2098, symBinAddr: 0x20B30, symSize: 0x4 }
  - { offset: 0x2C437B, size: 0x8, addend: 0x0, symName: __ZNSt3__120__shared_ptr_emplaceIN8facebook5react22ConcreteViewShadowNodeIXadL_ZNS2_36RNSScreenContentWrapperComponentNameEEENS2_28RNSScreenContentWrapperPropsENS2_35RNSScreenContentWrapperEventEmitterENS2_9StateDataEEENS_9allocatorIS7_EEE21__on_zero_shared_weakEv, symObjAddr: 0x2098, symBinAddr: 0x20B30, symSize: 0x4 }
  - { offset: 0x2C439F, size: 0x8, addend: 0x0, symName: __ZNSt3__120__shared_ptr_emplaceIN8facebook5react22ConcreteViewShadowNodeIXadL_ZNS2_36RNSScreenContentWrapperComponentNameEEENS2_28RNSScreenContentWrapperPropsENS2_35RNSScreenContentWrapperEventEmitterENS2_9StateDataEEENS_9allocatorIS7_EEE21__on_zero_shared_weakEv, symObjAddr: 0x2098, symBinAddr: 0x20B30, symSize: 0x4 }
  - { offset: 0x2C43C4, size: 0x8, addend: 0x0, symName: __ZNSt3__120__shared_ptr_emplaceIN8facebook5react22ConcreteViewShadowNodeIXadL_ZNS2_36RNSScreenContentWrapperComponentNameEEENS2_28RNSScreenContentWrapperPropsENS2_35RNSScreenContentWrapperEventEmitterENS2_9StateDataEEENS_9allocatorIS7_EEE21__on_zero_shared_weakEv, symObjAddr: 0x2098, symBinAddr: 0x20B30, symSize: 0x4 }
  - { offset: 0x2C43FC, size: 0x8, addend: 0x0, symName: __ZNSt3__120__shared_ptr_emplaceIN8facebook5react22ConcreteViewShadowNodeIXadL_ZNS2_36RNSScreenContentWrapperComponentNameEEENS2_28RNSScreenContentWrapperPropsENS2_35RNSScreenContentWrapperEventEmitterENS2_9StateDataEEENS_9allocatorIS7_EEE21__on_zero_shared_weakEv, symObjAddr: 0x2098, symBinAddr: 0x20B30, symSize: 0x4 }
  - { offset: 0x2C46FA, size: 0x8, addend: 0x0, symName: __ZN8facebook5react22ConcreteViewShadowNodeIXadL_ZNS0_36RNSScreenContentWrapperComponentNameEEENS0_28RNSScreenContentWrapperPropsENS0_35RNSScreenContentWrapperEventEmitterENS0_9StateDataEED1Ev, symObjAddr: 0x2108, symBinAddr: 0x20B34, symSize: 0x70 }
  - { offset: 0x2C4C9B, size: 0x8, addend: 0x0, symName: __ZN8facebook5react22ConcreteViewShadowNodeIXadL_ZNS0_36RNSScreenContentWrapperComponentNameEEENS0_28RNSScreenContentWrapperPropsENS0_35RNSScreenContentWrapperEventEmitterENS0_9StateDataEED0Ev, symObjAddr: 0x2178, symBinAddr: 0x20BA4, symSize: 0x74 }
  - { offset: 0x2C50B3, size: 0x8, addend: 0x0, symName: __ZNK8facebook5react22ConcreteViewShadowNodeIXadL_ZNS0_36RNSScreenContentWrapperComponentNameEEENS0_28RNSScreenContentWrapperPropsENS0_35RNSScreenContentWrapperEventEmitterENS0_9StateDataEE12getTransformEv, symObjAddr: 0x21EC, symBinAddr: 0x20C18, symSize: 0x40 }
  - { offset: 0x2C5128, size: 0x8, addend: 0x0, symName: __ZNK8facebook5react22ConcreteViewShadowNodeIXadL_ZNS0_36RNSScreenContentWrapperComponentNameEEENS0_28RNSScreenContentWrapperPropsENS0_35RNSScreenContentWrapperEventEmitterENS0_9StateDataEE16canBeTouchTargetEv, symObjAddr: 0x222C, symBinAddr: 0x20C58, symSize: 0x18 }
  - { offset: 0x2C5162, size: 0x8, addend: 0x0, symName: __ZNK8facebook5react22ConcreteViewShadowNodeIXadL_ZNS0_36RNSScreenContentWrapperComponentNameEEENS0_28RNSScreenContentWrapperPropsENS0_35RNSScreenContentWrapperEventEmitterENS0_9StateDataEE16canBeTouchTargetEv, symObjAddr: 0x222C, symBinAddr: 0x20C58, symSize: 0x18 }
  - { offset: 0x2C5180, size: 0x8, addend: 0x0, symName: __ZNK8facebook5react22ConcreteViewShadowNodeIXadL_ZNS0_36RNSScreenContentWrapperComponentNameEEENS0_28RNSScreenContentWrapperPropsENS0_35RNSScreenContentWrapperEventEmitterENS0_9StateDataEE16canBeTouchTargetEv, symObjAddr: 0x222C, symBinAddr: 0x20C58, symSize: 0x18 }
  - { offset: 0x2C519E, size: 0x8, addend: 0x0, symName: __ZNK8facebook5react22ConcreteViewShadowNodeIXadL_ZNS0_36RNSScreenContentWrapperComponentNameEEENS0_28RNSScreenContentWrapperPropsENS0_35RNSScreenContentWrapperEventEmitterENS0_9StateDataEE24canChildrenBeTouchTargetEv, symObjAddr: 0x2244, symBinAddr: 0x20C70, symSize: 0x18 }
  - { offset: 0x2C51D4, size: 0x8, addend: 0x0, symName: __ZNK8facebook5react22ConcreteViewShadowNodeIXadL_ZNS0_36RNSScreenContentWrapperComponentNameEEENS0_28RNSScreenContentWrapperPropsENS0_35RNSScreenContentWrapperEventEmitterENS0_9StateDataEE24canChildrenBeTouchTargetEv, symObjAddr: 0x2244, symBinAddr: 0x20C70, symSize: 0x18 }
  - { offset: 0x2C51F2, size: 0x8, addend: 0x0, symName: __ZNK8facebook5react22ConcreteViewShadowNodeIXadL_ZNS0_36RNSScreenContentWrapperComponentNameEEENS0_28RNSScreenContentWrapperPropsENS0_35RNSScreenContentWrapperEventEmitterENS0_9StateDataEE24canChildrenBeTouchTargetEv, symObjAddr: 0x2244, symBinAddr: 0x20C70, symSize: 0x18 }
  - { offset: 0x2C55F5, size: 0x8, addend: 0x0, symName: __ZNSt3__120__shared_ptr_emplaceIN8facebook5react22ConcreteViewShadowNodeIXadL_ZNS2_36RNSScreenContentWrapperComponentNameEEENS2_28RNSScreenContentWrapperPropsENS2_35RNSScreenContentWrapperEventEmitterENS2_9StateDataEEENS_9allocatorIS7_EEEC2B8ne200100IJRKNS2_10ShadowNodeERKNS2_18ShadowNodeFragmentEES9_Li0EEES9_DpOT_, symObjAddr: 0x2598, symBinAddr: 0x20CE8, symSize: 0x64 }
  - { offset: 0x2C58CF, size: 0x8, addend: 0x0, symName: __ZNSt3__110shared_ptrIKN8facebook5react28RNSScreenContentWrapperPropsEED1B8ne200100Ev, symObjAddr: 0x2748, symBinAddr: 0x20E40, symSize: 0x4 }
  - { offset: 0x2C58FB, size: 0x8, addend: 0x0, symName: __ZNSt3__110shared_ptrIKN8facebook5react28RNSScreenContentWrapperPropsEED1B8ne200100Ev, symObjAddr: 0x2748, symBinAddr: 0x20E40, symSize: 0x4 }
  - { offset: 0x2C5B99, size: 0x8, addend: 0x0, symName: __ZNSt3__120__shared_ptr_emplaceIKN8facebook5react28RNSScreenContentWrapperPropsENS_9allocatorIS3_EEEC2B8ne200100IJES6_Li0EEES6_DpOT_, symObjAddr: 0x2794, symBinAddr: 0x20E8C, symSize: 0x74 }
  - { offset: 0x2C5D02, size: 0x8, addend: 0x0, symName: __ZNSt3__120__shared_ptr_emplaceIKN8facebook5react28RNSScreenContentWrapperPropsENS_9allocatorIS3_EEED1Ev, symObjAddr: 0x2808, symBinAddr: 0x20F00, symSize: 0x14 }
  - { offset: 0x2C5D26, size: 0x8, addend: 0x0, symName: __ZNSt3__120__shared_ptr_emplaceIKN8facebook5react28RNSScreenContentWrapperPropsENS_9allocatorIS3_EEED1Ev, symObjAddr: 0x2808, symBinAddr: 0x20F00, symSize: 0x14 }
  - { offset: 0x2C5D5C, size: 0x8, addend: 0x0, symName: __ZNSt3__120__shared_ptr_emplaceIKN8facebook5react28RNSScreenContentWrapperPropsENS_9allocatorIS3_EEED0Ev, symObjAddr: 0x281C, symBinAddr: 0x20F14, symSize: 0x24 }
  - { offset: 0x2C5E2F, size: 0x8, addend: 0x0, symName: __ZNSt3__120__shared_ptr_emplaceIKN8facebook5react28RNSScreenContentWrapperPropsENS_9allocatorIS3_EEE16__on_zero_sharedEv, symObjAddr: 0x2840, symBinAddr: 0x20F38, symSize: 0x14 }
  - { offset: 0x2C5E58, size: 0x8, addend: 0x0, symName: __ZNSt3__120__shared_ptr_emplaceIKN8facebook5react28RNSScreenContentWrapperPropsENS_9allocatorIS3_EEE16__on_zero_sharedEv, symObjAddr: 0x2840, symBinAddr: 0x20F38, symSize: 0x14 }
  - { offset: 0x2C5EE6, size: 0x8, addend: 0x0, symName: __ZNSt3__120__shared_ptr_emplaceIKN8facebook5react28RNSScreenContentWrapperPropsENS_9allocatorIS3_EEE21__on_zero_shared_weakEv, symObjAddr: 0x2854, symBinAddr: 0x20F4C, symSize: 0x4 }
  - { offset: 0x2C5F1A, size: 0x8, addend: 0x0, symName: __ZNSt3__120__shared_ptr_emplaceIKN8facebook5react28RNSScreenContentWrapperPropsENS_9allocatorIS3_EEE21__on_zero_shared_weakEv, symObjAddr: 0x2854, symBinAddr: 0x20F4C, symSize: 0x4 }
  - { offset: 0x2C5F3E, size: 0x8, addend: 0x0, symName: __ZNSt3__120__shared_ptr_emplaceIKN8facebook5react28RNSScreenContentWrapperPropsENS_9allocatorIS3_EEE21__on_zero_shared_weakEv, symObjAddr: 0x2854, symBinAddr: 0x20F4C, symSize: 0x4 }
  - { offset: 0x2C5F63, size: 0x8, addend: 0x0, symName: __ZNSt3__120__shared_ptr_emplaceIKN8facebook5react28RNSScreenContentWrapperPropsENS_9allocatorIS3_EEE21__on_zero_shared_weakEv, symObjAddr: 0x2854, symBinAddr: 0x20F4C, symSize: 0x4 }
  - { offset: 0x2C5F9B, size: 0x8, addend: 0x0, symName: __ZNSt3__120__shared_ptr_emplaceIKN8facebook5react28RNSScreenContentWrapperPropsENS_9allocatorIS3_EEE21__on_zero_shared_weakEv, symObjAddr: 0x2854, symBinAddr: 0x20F4C, symSize: 0x4 }
  - { offset: 0x2C622B, size: 0x8, addend: 0x0, symName: __ZNSt3__120__shared_ptr_emplaceIN8facebook5react28RNSScreenContentWrapperPropsENS_9allocatorIS3_EEEC2B8ne200100IJRKNS2_18PropsParserContextERKS3_RKNS2_8RawPropsEES5_Li0EEES5_DpOT_, symObjAddr: 0x2920, symBinAddr: 0x20FC0, symSize: 0x4C }
  - { offset: 0x2C6426, size: 0x8, addend: 0x0, symName: __ZNSt3__120__shared_ptr_emplaceIN8facebook5react28RNSScreenContentWrapperPropsENS_9allocatorIS3_EEED1Ev, symObjAddr: 0x296C, symBinAddr: 0x2100C, symSize: 0x14 }
  - { offset: 0x2C644A, size: 0x8, addend: 0x0, symName: __ZNSt3__120__shared_ptr_emplaceIN8facebook5react28RNSScreenContentWrapperPropsENS_9allocatorIS3_EEED1Ev, symObjAddr: 0x296C, symBinAddr: 0x2100C, symSize: 0x14 }
  - { offset: 0x2C6480, size: 0x8, addend: 0x0, symName: __ZNSt3__120__shared_ptr_emplaceIN8facebook5react28RNSScreenContentWrapperPropsENS_9allocatorIS3_EEED0Ev, symObjAddr: 0x2980, symBinAddr: 0x21020, symSize: 0x24 }
  - { offset: 0x2C6523, size: 0x8, addend: 0x0, symName: __ZNSt3__120__shared_ptr_emplaceIN8facebook5react28RNSScreenContentWrapperPropsENS_9allocatorIS3_EEE16__on_zero_sharedEv, symObjAddr: 0x29A4, symBinAddr: 0x21044, symSize: 0x14 }
  - { offset: 0x2C654C, size: 0x8, addend: 0x0, symName: __ZNSt3__120__shared_ptr_emplaceIN8facebook5react28RNSScreenContentWrapperPropsENS_9allocatorIS3_EEE16__on_zero_sharedEv, symObjAddr: 0x29A4, symBinAddr: 0x21044, symSize: 0x14 }
  - { offset: 0x2C65DA, size: 0x8, addend: 0x0, symName: __ZNSt3__120__shared_ptr_emplaceIN8facebook5react28RNSScreenContentWrapperPropsENS_9allocatorIS3_EEE21__on_zero_shared_weakEv, symObjAddr: 0x29B8, symBinAddr: 0x21058, symSize: 0x4 }
  - { offset: 0x2C660E, size: 0x8, addend: 0x0, symName: __ZNSt3__120__shared_ptr_emplaceIN8facebook5react28RNSScreenContentWrapperPropsENS_9allocatorIS3_EEE21__on_zero_shared_weakEv, symObjAddr: 0x29B8, symBinAddr: 0x21058, symSize: 0x4 }
  - { offset: 0x2C6632, size: 0x8, addend: 0x0, symName: __ZNSt3__120__shared_ptr_emplaceIN8facebook5react28RNSScreenContentWrapperPropsENS_9allocatorIS3_EEE21__on_zero_shared_weakEv, symObjAddr: 0x29B8, symBinAddr: 0x21058, symSize: 0x4 }
  - { offset: 0x2C6657, size: 0x8, addend: 0x0, symName: __ZNSt3__120__shared_ptr_emplaceIN8facebook5react28RNSScreenContentWrapperPropsENS_9allocatorIS3_EEE21__on_zero_shared_weakEv, symObjAddr: 0x29B8, symBinAddr: 0x21058, symSize: 0x4 }
  - { offset: 0x2C668F, size: 0x8, addend: 0x0, symName: __ZNSt3__120__shared_ptr_emplaceIN8facebook5react28RNSScreenContentWrapperPropsENS_9allocatorIS3_EEE21__on_zero_shared_weakEv, symObjAddr: 0x29B8, symBinAddr: 0x21058, symSize: 0x4 }
  - { offset: 0x2C6D5E, size: 0x8, addend: 0x0, symName: __ZNSt3__120__shared_ptr_emplaceIKN8facebook5react35RNSScreenContentWrapperEventEmitterENS_9allocatorIS3_EEEC2B8ne200100IJNS_10shared_ptrINS2_11EventTargetEEERKNS_8weak_ptrIKNS2_15EventDispatcherEEEES6_Li0EEES6_DpOT_, symObjAddr: 0x2C78, symBinAddr: 0x210BC, symSize: 0x4C }
  - { offset: 0x2C6F17, size: 0x8, addend: 0x0, symName: __ZNSt3__120__shared_ptr_emplaceIKN8facebook5react35RNSScreenContentWrapperEventEmitterENS_9allocatorIS3_EEED1Ev, symObjAddr: 0x2CC4, symBinAddr: 0x21108, symSize: 0x14 }
  - { offset: 0x2C6F3B, size: 0x8, addend: 0x0, symName: __ZNSt3__120__shared_ptr_emplaceIKN8facebook5react35RNSScreenContentWrapperEventEmitterENS_9allocatorIS3_EEED1Ev, symObjAddr: 0x2CC4, symBinAddr: 0x21108, symSize: 0x14 }
  - { offset: 0x2C6F71, size: 0x8, addend: 0x0, symName: __ZNSt3__120__shared_ptr_emplaceIKN8facebook5react35RNSScreenContentWrapperEventEmitterENS_9allocatorIS3_EEED0Ev, symObjAddr: 0x2CD8, symBinAddr: 0x2111C, symSize: 0x24 }
  - { offset: 0x2C7044, size: 0x8, addend: 0x0, symName: __ZNSt3__120__shared_ptr_emplaceIKN8facebook5react35RNSScreenContentWrapperEventEmitterENS_9allocatorIS3_EEE16__on_zero_sharedEv, symObjAddr: 0x2CFC, symBinAddr: 0x21140, symSize: 0xC }
  - { offset: 0x2C706D, size: 0x8, addend: 0x0, symName: __ZNSt3__120__shared_ptr_emplaceIKN8facebook5react35RNSScreenContentWrapperEventEmitterENS_9allocatorIS3_EEE16__on_zero_sharedEv, symObjAddr: 0x2CFC, symBinAddr: 0x21140, symSize: 0xC }
  - { offset: 0x2C708C, size: 0x8, addend: 0x0, symName: __ZNSt3__120__shared_ptr_emplaceIKN8facebook5react35RNSScreenContentWrapperEventEmitterENS_9allocatorIS3_EEE16__on_zero_sharedEv, symObjAddr: 0x2CFC, symBinAddr: 0x21140, symSize: 0xC }
  - { offset: 0x2C70AB, size: 0x8, addend: 0x0, symName: __ZNSt3__120__shared_ptr_emplaceIKN8facebook5react35RNSScreenContentWrapperEventEmitterENS_9allocatorIS3_EEE16__on_zero_sharedEv, symObjAddr: 0x2CFC, symBinAddr: 0x21140, symSize: 0xC }
  - { offset: 0x2C70D7, size: 0x8, addend: 0x0, symName: __ZNSt3__120__shared_ptr_emplaceIKN8facebook5react35RNSScreenContentWrapperEventEmitterENS_9allocatorIS3_EEE21__on_zero_shared_weakEv, symObjAddr: 0x2D08, symBinAddr: 0x2114C, symSize: 0x4 }
  - { offset: 0x2C710B, size: 0x8, addend: 0x0, symName: __ZNSt3__120__shared_ptr_emplaceIKN8facebook5react35RNSScreenContentWrapperEventEmitterENS_9allocatorIS3_EEE21__on_zero_shared_weakEv, symObjAddr: 0x2D08, symBinAddr: 0x2114C, symSize: 0x4 }
  - { offset: 0x2C712F, size: 0x8, addend: 0x0, symName: __ZNSt3__120__shared_ptr_emplaceIKN8facebook5react35RNSScreenContentWrapperEventEmitterENS_9allocatorIS3_EEE21__on_zero_shared_weakEv, symObjAddr: 0x2D08, symBinAddr: 0x2114C, symSize: 0x4 }
  - { offset: 0x2C7154, size: 0x8, addend: 0x0, symName: __ZNSt3__120__shared_ptr_emplaceIKN8facebook5react35RNSScreenContentWrapperEventEmitterENS_9allocatorIS3_EEE21__on_zero_shared_weakEv, symObjAddr: 0x2D08, symBinAddr: 0x2114C, symSize: 0x4 }
  - { offset: 0x2C718B, size: 0x8, addend: 0x0, symName: __ZNSt3__120__shared_ptr_emplaceIKN8facebook5react35RNSScreenContentWrapperEventEmitterENS_9allocatorIS3_EEE21__on_zero_shared_weakEv, symObjAddr: 0x2D08, symBinAddr: 0x2114C, symSize: 0x4 }
  - { offset: 0x2C76E4, size: 0x8, addend: 0x0, symName: __ZN8facebook5react35RNSScreenContentWrapperEventEmitterD1Ev, symObjAddr: 0x2E4C, symBinAddr: 0x21290, symSize: 0x34 }
  - { offset: 0x2C7817, size: 0x8, addend: 0x0, symName: __ZN8facebook5react35RNSScreenContentWrapperEventEmitterD0Ev, symObjAddr: 0x2E80, symBinAddr: 0x212C4, symSize: 0x38 }
  - { offset: 0x2C7FC2, size: 0x8, addend: 0x0, symName: __ZNSt3__120__shared_ptr_emplaceIN8facebook5react16ShadowNodeFamilyENS_9allocatorIS3_EEEC2B8ne200100IJRKNS2_24ShadowNodeFamilyFragmentERNS_10shared_ptrIKNS2_35RNSScreenContentWrapperEventEmitterEEERKNS_8weak_ptrIKNS2_15EventDispatcherEEERKNS2_27ConcreteComponentDescriptorINS2_22ConcreteViewShadowNodeIXadL_ZNS2_36RNSScreenContentWrapperComponentNameEEENS2_28RNSScreenContentWrapperPropsESC_NS2_9StateDataEEEEEES5_Li0EEES5_DpOT_, symObjAddr: 0x335C, symBinAddr: 0x21374, symSize: 0x4C }
  - { offset: 0x2C8354, size: 0x8, addend: 0x0, symName: __GLOBAL__sub_I_RNSScreenContentWrapper.mm, symObjAddr: 0x3968, symBinAddr: 0x2149C, symSize: 0x20 }
  - { offset: 0x2CA779, size: 0x8, addend: 0x0, symName: __ZN8facebook5react17HostPlatformColorL14UndefinedColorE, symObjAddr: 0x16BE78, symBinAddr: 0x7D810, symSize: 0x0 }
  - { offset: 0x2CDAAC, size: 0x8, addend: 0x0, symName: __ZN8facebook5react38concreteComponentDescriptorConstructorINS0_27ConcreteComponentDescriptorINS0_22ConcreteViewShadowNodeIXadL_ZNS0_28RNSScreenFooterComponentNameEEENS0_20RNSScreenFooterPropsENS0_27RNSScreenFooterEventEmitterENS0_9StateDataEEEEEEENSt3__110unique_ptrIKNS0_19ComponentDescriptorENS9_14default_deleteISC_EEEERKNS0_29ComponentDescriptorParametersE, symObjAddr: 0x230, symBinAddr: 0x216EC, symSize: 0x34 }
  - { offset: 0x2E913E, size: 0x8, addend: 0x0, symName: __ZNSt3__111make_uniqueB8ne200100IKN8facebook5react27ConcreteComponentDescriptorINS2_22ConcreteViewShadowNodeIXadL_ZNS2_28RNSScreenFooterComponentNameEEENS2_20RNSScreenFooterPropsENS2_27RNSScreenFooterEventEmitterENS2_9StateDataEEEEEJRKNS2_29ComponentDescriptorParametersEELi0EEENS_10unique_ptrIT_NS_14default_deleteISF_EEEEDpOT0_, symObjAddr: 0x264, symBinAddr: 0x21720, symSize: 0xD4 }
  - { offset: 0x2E9ACB, size: 0x8, addend: 0x0, symName: __ZNSt3__115allocate_sharedB8ne200100IN8facebook5react22ConcreteViewShadowNodeIXadL_ZNS2_28RNSScreenFooterComponentNameEEENS2_20RNSScreenFooterPropsENS2_27RNSScreenFooterEventEmitterENS2_9StateDataEEENS_9allocatorIS7_EEJRKNS2_18ShadowNodeFragmentERKNS_10shared_ptrIKNS2_16ShadowNodeFamilyEEENS2_16ShadowNodeTraitsEELi0EEENSD_IT_EERKT0_DpOT1_, symObjAddr: 0x1A60, symBinAddr: 0x21F60, symSize: 0x70 }
  - { offset: 0x2E9E55, size: 0x8, addend: 0x0, symName: __ZNSt3__115allocate_sharedB8ne200100IN8facebook5react22ConcreteViewShadowNodeIXadL_ZNS2_28RNSScreenFooterComponentNameEEENS2_20RNSScreenFooterPropsENS2_27RNSScreenFooterEventEmitterENS2_9StateDataEEENS_9allocatorIS7_EEJRKNS2_10ShadowNodeERKNS2_18ShadowNodeFragmentEELi0EEENS_10shared_ptrIT_EERKT0_DpOT1_, symObjAddr: 0x201C, symBinAddr: 0x221D4, symSize: 0x60 }
  - { offset: 0x2EA7DC, size: 0x8, addend: 0x0, symName: __ZNSt3__115allocate_sharedB8ne200100IKN8facebook5react27RNSScreenFooterEventEmitterENS_9allocatorIS3_EEJNS_10shared_ptrINS2_11EventTargetEEERKNS_8weak_ptrIKNS2_15EventDispatcherEEEELi0EEENS7_IT_EERKT0_DpOT1_, symObjAddr: 0x26FC, symBinAddr: 0x225A8, symSize: 0x60 }
  - { offset: 0x2EAAA0, size: 0x8, addend: 0x0, symName: __ZNSt3__115allocate_sharedB8ne200100IN8facebook5react16ShadowNodeFamilyENS_9allocatorIS3_EEJRKNS2_24ShadowNodeFamilyFragmentERNS_10shared_ptrIKNS2_27RNSScreenFooterEventEmitterEEERKNS_8weak_ptrIKNS2_15EventDispatcherEEERKNS2_27ConcreteComponentDescriptorINS2_22ConcreteViewShadowNodeIXadL_ZNS2_28RNSScreenFooterComponentNameEEENS2_20RNSScreenFooterPropsESA_NS2_9StateDataEEEEEELi0EEENS9_IT_EERKT0_DpOT1_, symObjAddr: 0x2DC8, symBinAddr: 0x22848, symSize: 0x78 }
  - { offset: 0x2EBFC0, size: 0x8, addend: 0x0, symName: __ZNSt3__115allocate_sharedB8ne200100IKN8facebook5react20RNSScreenFooterPropsENS_9allocatorIS3_EEJELi0EEENS_10shared_ptrIT_EERKT0_DpOT1_, symObjAddr: 0x2230, symBinAddr: 0x22390, symSize: 0x48 }
  - { offset: 0x2EC29B, size: 0x8, addend: 0x0, symName: __ZNSt3__115allocate_sharedB8ne200100IN8facebook5react20RNSScreenFooterPropsENS_9allocatorIS3_EEJRKNS2_18PropsParserContextERKS3_RKNS2_8RawPropsEELi0EEENS_10shared_ptrIT_EERKT0_DpOT1_, symObjAddr: 0x2394, symBinAddr: 0x2249C, symSize: 0x70 }
  - { offset: 0x2ED42B, size: 0x8, addend: 0x0, symName: __ZNSt3__112construct_atB8ne200100IN8facebook5react27RNSScreenFooterEventEmitterEJNS_10shared_ptrINS2_11EventTargetEEERKNS_8weak_ptrIKNS2_15EventDispatcherEEEEPS3_EEPT_SF_DpOT0_, symObjAddr: 0x27F0, symBinAddr: 0x2269C, symSize: 0x140 }
  - { offset: 0x2EE268, size: 0x8, addend: 0x0, symName: __ZNSt3__112construct_atB8ne200100IN8facebook5react16ShadowNodeFamilyEJRKNS2_24ShadowNodeFamilyFragmentERNS_10shared_ptrIKNS2_27RNSScreenFooterEventEmitterEEERKNS_8weak_ptrIKNS2_15EventDispatcherEEERKNS2_27ConcreteComponentDescriptorINS2_22ConcreteViewShadowNodeIXadL_ZNS2_28RNSScreenFooterComponentNameEEENS2_20RNSScreenFooterPropsES8_NS2_9StateDataEEEEEEPS3_EEPT_SS_DpOT0_, symObjAddr: 0x2ED0, symBinAddr: 0x2290C, symSize: 0xDC }
  - { offset: 0x2F302A, size: 0x8, addend: 0x0, symName: __ZN8facebook5react18ConcreteShadowNodeIXadL_ZNS0_28RNSScreenFooterComponentNameEEENS0_24YogaLayoutableShadowNodeENS0_20RNSScreenFooterPropsENS0_27RNSScreenFooterEventEmitterENS0_9StateDataEE18defaultSharedPropsEv, symObjAddr: 0x2138, symBinAddr: 0x22298, symSize: 0x9C }
  - { offset: 0x2F304A, size: 0x8, addend: 0x0, symName: __ZZN8facebook5react18ConcreteShadowNodeIXadL_ZNS0_28RNSScreenFooterComponentNameEEENS0_24YogaLayoutableShadowNodeENS0_20RNSScreenFooterPropsENS0_27RNSScreenFooterEventEmitterENS0_9StateDataEE18defaultSharedPropsEvE18defaultSharedProps, symObjAddr: 0x4858, symBinAddr: 0x7D050, symSize: 0x0 }
  - { offset: 0x2F334C, size: 0x8, addend: 0x0, symName: '-[RNSScreenFooter init]', symObjAddr: 0x0, symBinAddr: 0x214BC, symSize: 0x80 }
  - { offset: 0x2F3382, size: 0x8, addend: 0x0, symName: '-[RNSScreenFooter willMoveToSuperview:]', symObjAddr: 0x80, symBinAddr: 0x2153C, symSize: 0x34 }
  - { offset: 0x2F33C5, size: 0x8, addend: 0x0, symName: '-[RNSScreenFooter didMoveToSuperview]', symObjAddr: 0xB4, symBinAddr: 0x21570, symSize: 0x4 }
  - { offset: 0x2F33F3, size: 0x8, addend: 0x0, symName: '-[RNSScreenFooter layoutSubviews]', symObjAddr: 0xB8, symBinAddr: 0x21574, symSize: 0x90 }
  - { offset: 0x2F3439, size: 0x8, addend: 0x0, symName: '+[RNSScreenFooter load]', symObjAddr: 0x148, symBinAddr: 0x21604, symSize: 0x34 }
  - { offset: 0x2F34E5, size: 0x8, addend: 0x0, symName: '+[RNSScreenFooter componentDescriptorProvider]', symObjAddr: 0x17C, symBinAddr: 0x21638, symSize: 0x20 }
  - { offset: 0x2F351A, size: 0x8, addend: 0x0, symName: '+[RNSScreenFooter componentDescriptorProvider]', symObjAddr: 0x17C, symBinAddr: 0x21638, symSize: 0x20 }
  - { offset: 0x2F357E, size: 0x8, addend: 0x0, symName: __Z18RNSScreenFooterClsv, symObjAddr: 0x19C, symBinAddr: 0x21658, symSize: 0xC }
  - { offset: 0x2F359D, size: 0x8, addend: 0x0, symName: '-[RNSScreenFooter onLayout]', symObjAddr: 0x1A8, symBinAddr: 0x21664, symSize: 0x10 }
  - { offset: 0x2F35D2, size: 0x8, addend: 0x0, symName: '-[RNSScreenFooter setOnLayout:]', symObjAddr: 0x1B8, symBinAddr: 0x21674, symSize: 0xC }
  - { offset: 0x2F3611, size: 0x8, addend: 0x0, symName: '-[RNSScreenFooter .cxx_destruct]', symObjAddr: 0x1C4, symBinAddr: 0x21680, symSize: 0x40 }
  - { offset: 0x2F3643, size: 0x8, addend: 0x0, symName: '+[RNSScreenFooterManager moduleName]', symObjAddr: 0x204, symBinAddr: 0x216C0, symSize: 0xC }
  - { offset: 0x2F3675, size: 0x8, addend: 0x0, symName: '+[RNSScreenFooterManager load]', symObjAddr: 0x210, symBinAddr: 0x216CC, symSize: 0x4 }
  - { offset: 0x2F36A9, size: 0x8, addend: 0x0, symName: '+[RNSScreenFooterManager load]', symObjAddr: 0x210, symBinAddr: 0x216CC, symSize: 0x4 }
  - { offset: 0x2F36CC, size: 0x8, addend: 0x0, symName: '-[RNSScreenFooterManager view]', symObjAddr: 0x214, symBinAddr: 0x216D0, symSize: 0x1C }
  - { offset: 0x2F3C46, size: 0x8, addend: 0x0, symName: __ZN8facebook5react14RawPropsParser7prepareINS0_20RNSScreenFooterPropsEEEvv, symObjAddr: 0x388, symBinAddr: 0x217F4, symSize: 0x1C4 }
  - { offset: 0x2F669C, size: 0x8, addend: 0x0, symName: __ZN8facebook5react27ConcreteComponentDescriptorINS0_22ConcreteViewShadowNodeIXadL_ZNS0_28RNSScreenFooterComponentNameEEENS0_20RNSScreenFooterPropsENS0_27RNSScreenFooterEventEmitterENS0_9StateDataEEEED1Ev, symObjAddr: 0x54C, symBinAddr: 0x219B8, symSize: 0x4 }
  - { offset: 0x2F66C0, size: 0x8, addend: 0x0, symName: __ZN8facebook5react27ConcreteComponentDescriptorINS0_22ConcreteViewShadowNodeIXadL_ZNS0_28RNSScreenFooterComponentNameEEENS0_20RNSScreenFooterPropsENS0_27RNSScreenFooterEventEmitterENS0_9StateDataEEEED1Ev, symObjAddr: 0x54C, symBinAddr: 0x219B8, symSize: 0x4 }
  - { offset: 0x2F66DE, size: 0x8, addend: 0x0, symName: __ZN8facebook5react27ConcreteComponentDescriptorINS0_22ConcreteViewShadowNodeIXadL_ZNS0_28RNSScreenFooterComponentNameEEENS0_20RNSScreenFooterPropsENS0_27RNSScreenFooterEventEmitterENS0_9StateDataEEEED1Ev, symObjAddr: 0x54C, symBinAddr: 0x219B8, symSize: 0x4 }
  - { offset: 0x2F69B8, size: 0x8, addend: 0x0, symName: __ZN8facebook5react27ConcreteComponentDescriptorINS0_22ConcreteViewShadowNodeIXadL_ZNS0_28RNSScreenFooterComponentNameEEENS0_20RNSScreenFooterPropsENS0_27RNSScreenFooterEventEmitterENS0_9StateDataEEEED0Ev, symObjAddr: 0x550, symBinAddr: 0x219BC, symSize: 0x14 }
  - { offset: 0x2F6A36, size: 0x8, addend: 0x0, symName: __ZNK8facebook5react27ConcreteComponentDescriptorINS0_22ConcreteViewShadowNodeIXadL_ZNS0_28RNSScreenFooterComponentNameEEENS0_20RNSScreenFooterPropsENS0_27RNSScreenFooterEventEmitterENS0_9StateDataEEEE18getComponentHandleEv, symObjAddr: 0x564, symBinAddr: 0x219D0, symSize: 0xC }
  - { offset: 0x2F6A5C, size: 0x8, addend: 0x0, symName: __ZNK8facebook5react27ConcreteComponentDescriptorINS0_22ConcreteViewShadowNodeIXadL_ZNS0_28RNSScreenFooterComponentNameEEENS0_20RNSScreenFooterPropsENS0_27RNSScreenFooterEventEmitterENS0_9StateDataEEEE16getComponentNameEv, symObjAddr: 0x570, symBinAddr: 0x219DC, symSize: 0xC }
  - { offset: 0x2F6A82, size: 0x8, addend: 0x0, symName: __ZNK8facebook5react27ConcreteComponentDescriptorINS0_22ConcreteViewShadowNodeIXadL_ZNS0_28RNSScreenFooterComponentNameEEENS0_20RNSScreenFooterPropsENS0_27RNSScreenFooterEventEmitterENS0_9StateDataEEEE9getTraitsEv, symObjAddr: 0x57C, symBinAddr: 0x219E8, symSize: 0x8 }
  - { offset: 0x2F6B83, size: 0x8, addend: 0x0, symName: __ZNK8facebook5react27ConcreteComponentDescriptorINS0_22ConcreteViewShadowNodeIXadL_ZNS0_28RNSScreenFooterComponentNameEEENS0_20RNSScreenFooterPropsENS0_27RNSScreenFooterEventEmitterENS0_9StateDataEEEE16createShadowNodeERKNS0_18ShadowNodeFragmentERKNSt3__110shared_ptrIKNS0_16ShadowNodeFamilyEEE, symObjAddr: 0x584, symBinAddr: 0x219F0, symSize: 0x90 }
  - { offset: 0x2F6E74, size: 0x8, addend: 0x0, symName: __ZNK8facebook5react27ConcreteComponentDescriptorINS0_22ConcreteViewShadowNodeIXadL_ZNS0_28RNSScreenFooterComponentNameEEENS0_20RNSScreenFooterPropsENS0_27RNSScreenFooterEventEmitterENS0_9StateDataEEEE15cloneShadowNodeERKNS0_10ShadowNodeERKNS0_18ShadowNodeFragmentE, symObjAddr: 0x614, symBinAddr: 0x21A80, symSize: 0x104 }
  - { offset: 0x2F720E, size: 0x8, addend: 0x0, symName: __ZNK8facebook5react27ConcreteComponentDescriptorINS0_22ConcreteViewShadowNodeIXadL_ZNS0_28RNSScreenFooterComponentNameEEENS0_20RNSScreenFooterPropsENS0_27RNSScreenFooterEventEmitterENS0_9StateDataEEEE11appendChildERKNSt3__110shared_ptrIKNS0_10ShadowNodeEEESE_, symObjAddr: 0x718, symBinAddr: 0x21B84, symSize: 0x14 }
  - { offset: 0x2F7265, size: 0x8, addend: 0x0, symName: __ZNK8facebook5react27ConcreteComponentDescriptorINS0_22ConcreteViewShadowNodeIXadL_ZNS0_28RNSScreenFooterComponentNameEEENS0_20RNSScreenFooterPropsENS0_27RNSScreenFooterEventEmitterENS0_9StateDataEEEE11appendChildERKNSt3__110shared_ptrIKNS0_10ShadowNodeEEESE_, symObjAddr: 0x718, symBinAddr: 0x21B84, symSize: 0x14 }
  - { offset: 0x2F7B53, size: 0x8, addend: 0x0, symName: __ZNK8facebook5react27ConcreteComponentDescriptorINS0_22ConcreteViewShadowNodeIXadL_ZNS0_28RNSScreenFooterComponentNameEEENS0_20RNSScreenFooterPropsENS0_27RNSScreenFooterEventEmitterENS0_9StateDataEEEE10clonePropsERKNS0_18PropsParserContextERKNSt3__110shared_ptrIKNS0_5PropsEEENS0_8RawPropsE, symObjAddr: 0x72C, symBinAddr: 0x21B98, symSize: 0x21C }
  - { offset: 0x2F8705, size: 0x8, addend: 0x0, symName: __ZN8facebook5react18ConcreteShadowNodeIXadL_ZNS0_28RNSScreenFooterComponentNameEEENS0_24YogaLayoutableShadowNodeENS0_20RNSScreenFooterPropsENS0_27RNSScreenFooterEventEmitterENS0_9StateDataEE5PropsERKNS0_18PropsParserContextERKNS0_8RawPropsERKNSt3__110shared_ptrIKNS0_5PropsEEE, symObjAddr: 0x21D4, symBinAddr: 0x22334, symSize: 0x58 }
  - { offset: 0x2F8975, size: 0x8, addend: 0x0, symName: __ZNK8facebook5react27ConcreteComponentDescriptorINS0_22ConcreteViewShadowNodeIXadL_ZNS0_28RNSScreenFooterComponentNameEEENS0_20RNSScreenFooterPropsENS0_27RNSScreenFooterEventEmitterENS0_9StateDataEEEE18createInitialStateERKNSt3__110shared_ptrIKNS0_5PropsEEERKNS9_IKNS0_16ShadowNodeFamilyEEE, symObjAddr: 0x948, symBinAddr: 0x21DB4, symSize: 0x8 }
  - { offset: 0x2F89B9, size: 0x8, addend: 0x0, symName: __ZNK8facebook5react27ConcreteComponentDescriptorINS0_22ConcreteViewShadowNodeIXadL_ZNS0_28RNSScreenFooterComponentNameEEENS0_20RNSScreenFooterPropsENS0_27RNSScreenFooterEventEmitterENS0_9StateDataEEEE18createInitialStateERKNSt3__110shared_ptrIKNS0_5PropsEEERKNS9_IKNS0_16ShadowNodeFamilyEEE, symObjAddr: 0x948, symBinAddr: 0x21DB4, symSize: 0x8 }
  - { offset: 0x2F89DD, size: 0x8, addend: 0x0, symName: __ZNK8facebook5react27ConcreteComponentDescriptorINS0_22ConcreteViewShadowNodeIXadL_ZNS0_28RNSScreenFooterComponentNameEEENS0_20RNSScreenFooterPropsENS0_27RNSScreenFooterEventEmitterENS0_9StateDataEEEE18createInitialStateERKNSt3__110shared_ptrIKNS0_5PropsEEERKNS9_IKNS0_16ShadowNodeFamilyEEE, symObjAddr: 0x948, symBinAddr: 0x21DB4, symSize: 0x8 }
  - { offset: 0x2F8A01, size: 0x8, addend: 0x0, symName: __ZNK8facebook5react27ConcreteComponentDescriptorINS0_22ConcreteViewShadowNodeIXadL_ZNS0_28RNSScreenFooterComponentNameEEENS0_20RNSScreenFooterPropsENS0_27RNSScreenFooterEventEmitterENS0_9StateDataEEEE11createStateERKNS0_16ShadowNodeFamilyERKNSt3__110shared_ptrIKvEE, symObjAddr: 0x950, symBinAddr: 0x21DBC, symSize: 0x8 }
  - { offset: 0x2F8A45, size: 0x8, addend: 0x0, symName: __ZNK8facebook5react27ConcreteComponentDescriptorINS0_22ConcreteViewShadowNodeIXadL_ZNS0_28RNSScreenFooterComponentNameEEENS0_20RNSScreenFooterPropsENS0_27RNSScreenFooterEventEmitterENS0_9StateDataEEEE11createStateERKNS0_16ShadowNodeFamilyERKNSt3__110shared_ptrIKvEE, symObjAddr: 0x950, symBinAddr: 0x21DBC, symSize: 0x8 }
  - { offset: 0x2F8A69, size: 0x8, addend: 0x0, symName: __ZNK8facebook5react27ConcreteComponentDescriptorINS0_22ConcreteViewShadowNodeIXadL_ZNS0_28RNSScreenFooterComponentNameEEENS0_20RNSScreenFooterPropsENS0_27RNSScreenFooterEventEmitterENS0_9StateDataEEEE11createStateERKNS0_16ShadowNodeFamilyERKNSt3__110shared_ptrIKvEE, symObjAddr: 0x950, symBinAddr: 0x21DBC, symSize: 0x8 }
  - { offset: 0x2F8CBE, size: 0x8, addend: 0x0, symName: __ZNK8facebook5react27ConcreteComponentDescriptorINS0_22ConcreteViewShadowNodeIXadL_ZNS0_28RNSScreenFooterComponentNameEEENS0_20RNSScreenFooterPropsENS0_27RNSScreenFooterEventEmitterENS0_9StateDataEEEE12createFamilyERKNS0_24ShadowNodeFamilyFragmentE, symObjAddr: 0x958, symBinAddr: 0x21DC4, symSize: 0x168 }
  - { offset: 0x2F9266, size: 0x8, addend: 0x0, symName: __ZNK8facebook5react27ConcreteComponentDescriptorINS0_22ConcreteViewShadowNodeIXadL_ZNS0_28RNSScreenFooterComponentNameEEENS0_20RNSScreenFooterPropsENS0_27RNSScreenFooterEventEmitterENS0_9StateDataEEEE5adoptERNS0_10ShadowNodeE, symObjAddr: 0xAC0, symBinAddr: 0x21F2C, symSize: 0x4 }
  - { offset: 0x2F9299, size: 0x8, addend: 0x0, symName: __ZN8facebook5react20RNSScreenFooterPropsD1Ev, symObjAddr: 0xAD4, symBinAddr: 0x21F30, symSize: 0x10 }
  - { offset: 0x2F92BD, size: 0x8, addend: 0x0, symName: __ZN8facebook5react20RNSScreenFooterPropsD1Ev, symObjAddr: 0xAD4, symBinAddr: 0x21F30, symSize: 0x10 }
  - { offset: 0x2FA450, size: 0x8, addend: 0x0, symName: __ZN8facebook5react20RNSScreenFooterPropsD0Ev, symObjAddr: 0xF30, symBinAddr: 0x21F40, symSize: 0x20 }
  - { offset: 0x2FDAD6, size: 0x8, addend: 0x0, symName: __ZNSt3__120__shared_ptr_emplaceIN8facebook5react22ConcreteViewShadowNodeIXadL_ZNS2_28RNSScreenFooterComponentNameEEENS2_20RNSScreenFooterPropsENS2_27RNSScreenFooterEventEmitterENS2_9StateDataEEENS_9allocatorIS7_EEEC2B8ne200100IJRKNS2_18ShadowNodeFragmentERKNS_10shared_ptrIKNS2_16ShadowNodeFamilyEEENS2_16ShadowNodeTraitsEES9_Li0EEES9_DpOT_, symObjAddr: 0x1AD0, symBinAddr: 0x21FD0, symSize: 0x68 }
  - { offset: 0x2FDEFC, size: 0x8, addend: 0x0, symName: __ZNSt3__120__shared_ptr_emplaceIN8facebook5react22ConcreteViewShadowNodeIXadL_ZNS2_28RNSScreenFooterComponentNameEEENS2_20RNSScreenFooterPropsENS2_27RNSScreenFooterEventEmitterENS2_9StateDataEEENS_9allocatorIS7_EEED1Ev, symObjAddr: 0x1B38, symBinAddr: 0x22038, symSize: 0x14 }
  - { offset: 0x2FDF20, size: 0x8, addend: 0x0, symName: __ZNSt3__120__shared_ptr_emplaceIN8facebook5react22ConcreteViewShadowNodeIXadL_ZNS2_28RNSScreenFooterComponentNameEEENS2_20RNSScreenFooterPropsENS2_27RNSScreenFooterEventEmitterENS2_9StateDataEEENS_9allocatorIS7_EEED1Ev, symObjAddr: 0x1B38, symBinAddr: 0x22038, symSize: 0x14 }
  - { offset: 0x2FDF56, size: 0x8, addend: 0x0, symName: __ZNSt3__120__shared_ptr_emplaceIN8facebook5react22ConcreteViewShadowNodeIXadL_ZNS2_28RNSScreenFooterComponentNameEEENS2_20RNSScreenFooterPropsENS2_27RNSScreenFooterEventEmitterENS2_9StateDataEEENS_9allocatorIS7_EEED0Ev, symObjAddr: 0x1B4C, symBinAddr: 0x2204C, symSize: 0x24 }
  - { offset: 0x2FE029, size: 0x8, addend: 0x0, symName: __ZNSt3__120__shared_ptr_emplaceIN8facebook5react22ConcreteViewShadowNodeIXadL_ZNS2_28RNSScreenFooterComponentNameEEENS2_20RNSScreenFooterPropsENS2_27RNSScreenFooterEventEmitterENS2_9StateDataEEENS_9allocatorIS7_EEE16__on_zero_sharedEv, symObjAddr: 0x1B70, symBinAddr: 0x22070, symSize: 0xC }
  - { offset: 0x2FE052, size: 0x8, addend: 0x0, symName: __ZNSt3__120__shared_ptr_emplaceIN8facebook5react22ConcreteViewShadowNodeIXadL_ZNS2_28RNSScreenFooterComponentNameEEENS2_20RNSScreenFooterPropsENS2_27RNSScreenFooterEventEmitterENS2_9StateDataEEENS_9allocatorIS7_EEE16__on_zero_sharedEv, symObjAddr: 0x1B70, symBinAddr: 0x22070, symSize: 0xC }
  - { offset: 0x2FE071, size: 0x8, addend: 0x0, symName: __ZNSt3__120__shared_ptr_emplaceIN8facebook5react22ConcreteViewShadowNodeIXadL_ZNS2_28RNSScreenFooterComponentNameEEENS2_20RNSScreenFooterPropsENS2_27RNSScreenFooterEventEmitterENS2_9StateDataEEENS_9allocatorIS7_EEE16__on_zero_sharedEv, symObjAddr: 0x1B70, symBinAddr: 0x22070, symSize: 0xC }
  - { offset: 0x2FE090, size: 0x8, addend: 0x0, symName: __ZNSt3__120__shared_ptr_emplaceIN8facebook5react22ConcreteViewShadowNodeIXadL_ZNS2_28RNSScreenFooterComponentNameEEENS2_20RNSScreenFooterPropsENS2_27RNSScreenFooterEventEmitterENS2_9StateDataEEENS_9allocatorIS7_EEE16__on_zero_sharedEv, symObjAddr: 0x1B70, symBinAddr: 0x22070, symSize: 0xC }
  - { offset: 0x2FE0BC, size: 0x8, addend: 0x0, symName: __ZNSt3__120__shared_ptr_emplaceIN8facebook5react22ConcreteViewShadowNodeIXadL_ZNS2_28RNSScreenFooterComponentNameEEENS2_20RNSScreenFooterPropsENS2_27RNSScreenFooterEventEmitterENS2_9StateDataEEENS_9allocatorIS7_EEE21__on_zero_shared_weakEv, symObjAddr: 0x1B7C, symBinAddr: 0x2207C, symSize: 0x4 }
  - { offset: 0x2FE0F0, size: 0x8, addend: 0x0, symName: __ZNSt3__120__shared_ptr_emplaceIN8facebook5react22ConcreteViewShadowNodeIXadL_ZNS2_28RNSScreenFooterComponentNameEEENS2_20RNSScreenFooterPropsENS2_27RNSScreenFooterEventEmitterENS2_9StateDataEEENS_9allocatorIS7_EEE21__on_zero_shared_weakEv, symObjAddr: 0x1B7C, symBinAddr: 0x2207C, symSize: 0x4 }
  - { offset: 0x2FE114, size: 0x8, addend: 0x0, symName: __ZNSt3__120__shared_ptr_emplaceIN8facebook5react22ConcreteViewShadowNodeIXadL_ZNS2_28RNSScreenFooterComponentNameEEENS2_20RNSScreenFooterPropsENS2_27RNSScreenFooterEventEmitterENS2_9StateDataEEENS_9allocatorIS7_EEE21__on_zero_shared_weakEv, symObjAddr: 0x1B7C, symBinAddr: 0x2207C, symSize: 0x4 }
  - { offset: 0x2FE139, size: 0x8, addend: 0x0, symName: __ZNSt3__120__shared_ptr_emplaceIN8facebook5react22ConcreteViewShadowNodeIXadL_ZNS2_28RNSScreenFooterComponentNameEEENS2_20RNSScreenFooterPropsENS2_27RNSScreenFooterEventEmitterENS2_9StateDataEEENS_9allocatorIS7_EEE21__on_zero_shared_weakEv, symObjAddr: 0x1B7C, symBinAddr: 0x2207C, symSize: 0x4 }
  - { offset: 0x2FE171, size: 0x8, addend: 0x0, symName: __ZNSt3__120__shared_ptr_emplaceIN8facebook5react22ConcreteViewShadowNodeIXadL_ZNS2_28RNSScreenFooterComponentNameEEENS2_20RNSScreenFooterPropsENS2_27RNSScreenFooterEventEmitterENS2_9StateDataEEENS_9allocatorIS7_EEE21__on_zero_shared_weakEv, symObjAddr: 0x1B7C, symBinAddr: 0x2207C, symSize: 0x4 }
  - { offset: 0x2FE46E, size: 0x8, addend: 0x0, symName: __ZN8facebook5react22ConcreteViewShadowNodeIXadL_ZNS0_28RNSScreenFooterComponentNameEEENS0_20RNSScreenFooterPropsENS0_27RNSScreenFooterEventEmitterENS0_9StateDataEED1Ev, symObjAddr: 0x1BEC, symBinAddr: 0x22080, symSize: 0x70 }
  - { offset: 0x2FEA0C, size: 0x8, addend: 0x0, symName: __ZN8facebook5react22ConcreteViewShadowNodeIXadL_ZNS0_28RNSScreenFooterComponentNameEEENS0_20RNSScreenFooterPropsENS0_27RNSScreenFooterEventEmitterENS0_9StateDataEED0Ev, symObjAddr: 0x1C5C, symBinAddr: 0x220F0, symSize: 0x74 }
  - { offset: 0x2FEE20, size: 0x8, addend: 0x0, symName: __ZNK8facebook5react22ConcreteViewShadowNodeIXadL_ZNS0_28RNSScreenFooterComponentNameEEENS0_20RNSScreenFooterPropsENS0_27RNSScreenFooterEventEmitterENS0_9StateDataEE12getTransformEv, symObjAddr: 0x1CD0, symBinAddr: 0x22164, symSize: 0x40 }
  - { offset: 0x2FEE93, size: 0x8, addend: 0x0, symName: __ZNK8facebook5react22ConcreteViewShadowNodeIXadL_ZNS0_28RNSScreenFooterComponentNameEEENS0_20RNSScreenFooterPropsENS0_27RNSScreenFooterEventEmitterENS0_9StateDataEE16canBeTouchTargetEv, symObjAddr: 0x1D10, symBinAddr: 0x221A4, symSize: 0x18 }
  - { offset: 0x2FEECC, size: 0x8, addend: 0x0, symName: __ZNK8facebook5react22ConcreteViewShadowNodeIXadL_ZNS0_28RNSScreenFooterComponentNameEEENS0_20RNSScreenFooterPropsENS0_27RNSScreenFooterEventEmitterENS0_9StateDataEE16canBeTouchTargetEv, symObjAddr: 0x1D10, symBinAddr: 0x221A4, symSize: 0x18 }
  - { offset: 0x2FEEE9, size: 0x8, addend: 0x0, symName: __ZNK8facebook5react22ConcreteViewShadowNodeIXadL_ZNS0_28RNSScreenFooterComponentNameEEENS0_20RNSScreenFooterPropsENS0_27RNSScreenFooterEventEmitterENS0_9StateDataEE16canBeTouchTargetEv, symObjAddr: 0x1D10, symBinAddr: 0x221A4, symSize: 0x18 }
  - { offset: 0x2FEF07, size: 0x8, addend: 0x0, symName: __ZNK8facebook5react22ConcreteViewShadowNodeIXadL_ZNS0_28RNSScreenFooterComponentNameEEENS0_20RNSScreenFooterPropsENS0_27RNSScreenFooterEventEmitterENS0_9StateDataEE24canChildrenBeTouchTargetEv, symObjAddr: 0x1D28, symBinAddr: 0x221BC, symSize: 0x18 }
  - { offset: 0x2FEF3C, size: 0x8, addend: 0x0, symName: __ZNK8facebook5react22ConcreteViewShadowNodeIXadL_ZNS0_28RNSScreenFooterComponentNameEEENS0_20RNSScreenFooterPropsENS0_27RNSScreenFooterEventEmitterENS0_9StateDataEE24canChildrenBeTouchTargetEv, symObjAddr: 0x1D28, symBinAddr: 0x221BC, symSize: 0x18 }
  - { offset: 0x2FEF59, size: 0x8, addend: 0x0, symName: __ZNK8facebook5react22ConcreteViewShadowNodeIXadL_ZNS0_28RNSScreenFooterComponentNameEEENS0_20RNSScreenFooterPropsENS0_27RNSScreenFooterEventEmitterENS0_9StateDataEE24canChildrenBeTouchTargetEv, symObjAddr: 0x1D28, symBinAddr: 0x221BC, symSize: 0x18 }
  - { offset: 0x2FF35C, size: 0x8, addend: 0x0, symName: __ZNSt3__120__shared_ptr_emplaceIN8facebook5react22ConcreteViewShadowNodeIXadL_ZNS2_28RNSScreenFooterComponentNameEEENS2_20RNSScreenFooterPropsENS2_27RNSScreenFooterEventEmitterENS2_9StateDataEEENS_9allocatorIS7_EEEC2B8ne200100IJRKNS2_10ShadowNodeERKNS2_18ShadowNodeFragmentEES9_Li0EEES9_DpOT_, symObjAddr: 0x207C, symBinAddr: 0x22234, symSize: 0x64 }
  - { offset: 0x2FF630, size: 0x8, addend: 0x0, symName: __ZNSt3__110shared_ptrIKN8facebook5react20RNSScreenFooterPropsEED1B8ne200100Ev, symObjAddr: 0x222C, symBinAddr: 0x2238C, symSize: 0x4 }
  - { offset: 0x2FF65C, size: 0x8, addend: 0x0, symName: __ZNSt3__110shared_ptrIKN8facebook5react20RNSScreenFooterPropsEED1B8ne200100Ev, symObjAddr: 0x222C, symBinAddr: 0x2238C, symSize: 0x4 }
  - { offset: 0x2FF8FA, size: 0x8, addend: 0x0, symName: __ZNSt3__120__shared_ptr_emplaceIKN8facebook5react20RNSScreenFooterPropsENS_9allocatorIS3_EEEC2B8ne200100IJES6_Li0EEES6_DpOT_, symObjAddr: 0x2278, symBinAddr: 0x223D8, symSize: 0x74 }
  - { offset: 0x2FFA63, size: 0x8, addend: 0x0, symName: __ZNSt3__120__shared_ptr_emplaceIKN8facebook5react20RNSScreenFooterPropsENS_9allocatorIS3_EEED1Ev, symObjAddr: 0x22EC, symBinAddr: 0x2244C, symSize: 0x14 }
  - { offset: 0x2FFA87, size: 0x8, addend: 0x0, symName: __ZNSt3__120__shared_ptr_emplaceIKN8facebook5react20RNSScreenFooterPropsENS_9allocatorIS3_EEED1Ev, symObjAddr: 0x22EC, symBinAddr: 0x2244C, symSize: 0x14 }
  - { offset: 0x2FFABD, size: 0x8, addend: 0x0, symName: __ZNSt3__120__shared_ptr_emplaceIKN8facebook5react20RNSScreenFooterPropsENS_9allocatorIS3_EEED0Ev, symObjAddr: 0x2300, symBinAddr: 0x22460, symSize: 0x24 }
  - { offset: 0x2FFB90, size: 0x8, addend: 0x0, symName: __ZNSt3__120__shared_ptr_emplaceIKN8facebook5react20RNSScreenFooterPropsENS_9allocatorIS3_EEE16__on_zero_sharedEv, symObjAddr: 0x2324, symBinAddr: 0x22484, symSize: 0x14 }
  - { offset: 0x2FFBB9, size: 0x8, addend: 0x0, symName: __ZNSt3__120__shared_ptr_emplaceIKN8facebook5react20RNSScreenFooterPropsENS_9allocatorIS3_EEE16__on_zero_sharedEv, symObjAddr: 0x2324, symBinAddr: 0x22484, symSize: 0x14 }
  - { offset: 0x2FFC47, size: 0x8, addend: 0x0, symName: __ZNSt3__120__shared_ptr_emplaceIKN8facebook5react20RNSScreenFooterPropsENS_9allocatorIS3_EEE21__on_zero_shared_weakEv, symObjAddr: 0x2338, symBinAddr: 0x22498, symSize: 0x4 }
  - { offset: 0x2FFC7B, size: 0x8, addend: 0x0, symName: __ZNSt3__120__shared_ptr_emplaceIKN8facebook5react20RNSScreenFooterPropsENS_9allocatorIS3_EEE21__on_zero_shared_weakEv, symObjAddr: 0x2338, symBinAddr: 0x22498, symSize: 0x4 }
  - { offset: 0x2FFC9F, size: 0x8, addend: 0x0, symName: __ZNSt3__120__shared_ptr_emplaceIKN8facebook5react20RNSScreenFooterPropsENS_9allocatorIS3_EEE21__on_zero_shared_weakEv, symObjAddr: 0x2338, symBinAddr: 0x22498, symSize: 0x4 }
  - { offset: 0x2FFCC4, size: 0x8, addend: 0x0, symName: __ZNSt3__120__shared_ptr_emplaceIKN8facebook5react20RNSScreenFooterPropsENS_9allocatorIS3_EEE21__on_zero_shared_weakEv, symObjAddr: 0x2338, symBinAddr: 0x22498, symSize: 0x4 }
  - { offset: 0x2FFCFC, size: 0x8, addend: 0x0, symName: __ZNSt3__120__shared_ptr_emplaceIKN8facebook5react20RNSScreenFooterPropsENS_9allocatorIS3_EEE21__on_zero_shared_weakEv, symObjAddr: 0x2338, symBinAddr: 0x22498, symSize: 0x4 }
  - { offset: 0x2FFF8C, size: 0x8, addend: 0x0, symName: __ZNSt3__120__shared_ptr_emplaceIN8facebook5react20RNSScreenFooterPropsENS_9allocatorIS3_EEEC2B8ne200100IJRKNS2_18PropsParserContextERKS3_RKNS2_8RawPropsEES5_Li0EEES5_DpOT_, symObjAddr: 0x2404, symBinAddr: 0x2250C, symSize: 0x4C }
  - { offset: 0x300187, size: 0x8, addend: 0x0, symName: __ZNSt3__120__shared_ptr_emplaceIN8facebook5react20RNSScreenFooterPropsENS_9allocatorIS3_EEED1Ev, symObjAddr: 0x2450, symBinAddr: 0x22558, symSize: 0x14 }
  - { offset: 0x3001AB, size: 0x8, addend: 0x0, symName: __ZNSt3__120__shared_ptr_emplaceIN8facebook5react20RNSScreenFooterPropsENS_9allocatorIS3_EEED1Ev, symObjAddr: 0x2450, symBinAddr: 0x22558, symSize: 0x14 }
  - { offset: 0x3001E1, size: 0x8, addend: 0x0, symName: __ZNSt3__120__shared_ptr_emplaceIN8facebook5react20RNSScreenFooterPropsENS_9allocatorIS3_EEED0Ev, symObjAddr: 0x2464, symBinAddr: 0x2256C, symSize: 0x24 }
  - { offset: 0x300284, size: 0x8, addend: 0x0, symName: __ZNSt3__120__shared_ptr_emplaceIN8facebook5react20RNSScreenFooterPropsENS_9allocatorIS3_EEE16__on_zero_sharedEv, symObjAddr: 0x2488, symBinAddr: 0x22590, symSize: 0x14 }
  - { offset: 0x3002AD, size: 0x8, addend: 0x0, symName: __ZNSt3__120__shared_ptr_emplaceIN8facebook5react20RNSScreenFooterPropsENS_9allocatorIS3_EEE16__on_zero_sharedEv, symObjAddr: 0x2488, symBinAddr: 0x22590, symSize: 0x14 }
  - { offset: 0x30033B, size: 0x8, addend: 0x0, symName: __ZNSt3__120__shared_ptr_emplaceIN8facebook5react20RNSScreenFooterPropsENS_9allocatorIS3_EEE21__on_zero_shared_weakEv, symObjAddr: 0x249C, symBinAddr: 0x225A4, symSize: 0x4 }
  - { offset: 0x30036F, size: 0x8, addend: 0x0, symName: __ZNSt3__120__shared_ptr_emplaceIN8facebook5react20RNSScreenFooterPropsENS_9allocatorIS3_EEE21__on_zero_shared_weakEv, symObjAddr: 0x249C, symBinAddr: 0x225A4, symSize: 0x4 }
  - { offset: 0x300393, size: 0x8, addend: 0x0, symName: __ZNSt3__120__shared_ptr_emplaceIN8facebook5react20RNSScreenFooterPropsENS_9allocatorIS3_EEE21__on_zero_shared_weakEv, symObjAddr: 0x249C, symBinAddr: 0x225A4, symSize: 0x4 }
  - { offset: 0x3003B8, size: 0x8, addend: 0x0, symName: __ZNSt3__120__shared_ptr_emplaceIN8facebook5react20RNSScreenFooterPropsENS_9allocatorIS3_EEE21__on_zero_shared_weakEv, symObjAddr: 0x249C, symBinAddr: 0x225A4, symSize: 0x4 }
  - { offset: 0x3003F0, size: 0x8, addend: 0x0, symName: __ZNSt3__120__shared_ptr_emplaceIN8facebook5react20RNSScreenFooterPropsENS_9allocatorIS3_EEE21__on_zero_shared_weakEv, symObjAddr: 0x249C, symBinAddr: 0x225A4, symSize: 0x4 }
  - { offset: 0x300ABC, size: 0x8, addend: 0x0, symName: __ZNSt3__120__shared_ptr_emplaceIKN8facebook5react27RNSScreenFooterEventEmitterENS_9allocatorIS3_EEEC2B8ne200100IJNS_10shared_ptrINS2_11EventTargetEEERKNS_8weak_ptrIKNS2_15EventDispatcherEEEES6_Li0EEES6_DpOT_, symObjAddr: 0x275C, symBinAddr: 0x22608, symSize: 0x4C }
  - { offset: 0x300C75, size: 0x8, addend: 0x0, symName: __ZNSt3__120__shared_ptr_emplaceIKN8facebook5react27RNSScreenFooterEventEmitterENS_9allocatorIS3_EEED1Ev, symObjAddr: 0x27A8, symBinAddr: 0x22654, symSize: 0x14 }
  - { offset: 0x300C99, size: 0x8, addend: 0x0, symName: __ZNSt3__120__shared_ptr_emplaceIKN8facebook5react27RNSScreenFooterEventEmitterENS_9allocatorIS3_EEED1Ev, symObjAddr: 0x27A8, symBinAddr: 0x22654, symSize: 0x14 }
  - { offset: 0x300CCF, size: 0x8, addend: 0x0, symName: __ZNSt3__120__shared_ptr_emplaceIKN8facebook5react27RNSScreenFooterEventEmitterENS_9allocatorIS3_EEED0Ev, symObjAddr: 0x27BC, symBinAddr: 0x22668, symSize: 0x24 }
  - { offset: 0x300DA2, size: 0x8, addend: 0x0, symName: __ZNSt3__120__shared_ptr_emplaceIKN8facebook5react27RNSScreenFooterEventEmitterENS_9allocatorIS3_EEE16__on_zero_sharedEv, symObjAddr: 0x27E0, symBinAddr: 0x2268C, symSize: 0xC }
  - { offset: 0x300DCB, size: 0x8, addend: 0x0, symName: __ZNSt3__120__shared_ptr_emplaceIKN8facebook5react27RNSScreenFooterEventEmitterENS_9allocatorIS3_EEE16__on_zero_sharedEv, symObjAddr: 0x27E0, symBinAddr: 0x2268C, symSize: 0xC }
  - { offset: 0x300DEA, size: 0x8, addend: 0x0, symName: __ZNSt3__120__shared_ptr_emplaceIKN8facebook5react27RNSScreenFooterEventEmitterENS_9allocatorIS3_EEE16__on_zero_sharedEv, symObjAddr: 0x27E0, symBinAddr: 0x2268C, symSize: 0xC }
  - { offset: 0x300E09, size: 0x8, addend: 0x0, symName: __ZNSt3__120__shared_ptr_emplaceIKN8facebook5react27RNSScreenFooterEventEmitterENS_9allocatorIS3_EEE16__on_zero_sharedEv, symObjAddr: 0x27E0, symBinAddr: 0x2268C, symSize: 0xC }
  - { offset: 0x300E35, size: 0x8, addend: 0x0, symName: __ZNSt3__120__shared_ptr_emplaceIKN8facebook5react27RNSScreenFooterEventEmitterENS_9allocatorIS3_EEE21__on_zero_shared_weakEv, symObjAddr: 0x27EC, symBinAddr: 0x22698, symSize: 0x4 }
  - { offset: 0x300E69, size: 0x8, addend: 0x0, symName: __ZNSt3__120__shared_ptr_emplaceIKN8facebook5react27RNSScreenFooterEventEmitterENS_9allocatorIS3_EEE21__on_zero_shared_weakEv, symObjAddr: 0x27EC, symBinAddr: 0x22698, symSize: 0x4 }
  - { offset: 0x300E8D, size: 0x8, addend: 0x0, symName: __ZNSt3__120__shared_ptr_emplaceIKN8facebook5react27RNSScreenFooterEventEmitterENS_9allocatorIS3_EEE21__on_zero_shared_weakEv, symObjAddr: 0x27EC, symBinAddr: 0x22698, symSize: 0x4 }
  - { offset: 0x300EB2, size: 0x8, addend: 0x0, symName: __ZNSt3__120__shared_ptr_emplaceIKN8facebook5react27RNSScreenFooterEventEmitterENS_9allocatorIS3_EEE21__on_zero_shared_weakEv, symObjAddr: 0x27EC, symBinAddr: 0x22698, symSize: 0x4 }
  - { offset: 0x300EE9, size: 0x8, addend: 0x0, symName: __ZNSt3__120__shared_ptr_emplaceIKN8facebook5react27RNSScreenFooterEventEmitterENS_9allocatorIS3_EEE21__on_zero_shared_weakEv, symObjAddr: 0x27EC, symBinAddr: 0x22698, symSize: 0x4 }
  - { offset: 0x301442, size: 0x8, addend: 0x0, symName: __ZN8facebook5react27RNSScreenFooterEventEmitterD1Ev, symObjAddr: 0x2930, symBinAddr: 0x227DC, symSize: 0x34 }
  - { offset: 0x301575, size: 0x8, addend: 0x0, symName: __ZN8facebook5react27RNSScreenFooterEventEmitterD0Ev, symObjAddr: 0x2964, symBinAddr: 0x22810, symSize: 0x38 }
  - { offset: 0x301D20, size: 0x8, addend: 0x0, symName: __ZNSt3__120__shared_ptr_emplaceIN8facebook5react16ShadowNodeFamilyENS_9allocatorIS3_EEEC2B8ne200100IJRKNS2_24ShadowNodeFamilyFragmentERNS_10shared_ptrIKNS2_27RNSScreenFooterEventEmitterEEERKNS_8weak_ptrIKNS2_15EventDispatcherEEERKNS2_27ConcreteComponentDescriptorINS2_22ConcreteViewShadowNodeIXadL_ZNS2_28RNSScreenFooterComponentNameEEENS2_20RNSScreenFooterPropsESC_NS2_9StateDataEEEEEES5_Li0EEES5_DpOT_, symObjAddr: 0x2E40, symBinAddr: 0x228C0, symSize: 0x4C }
  - { offset: 0x3020B2, size: 0x8, addend: 0x0, symName: __GLOBAL__sub_I_RNSScreenFooter.mm, symObjAddr: 0x3348, symBinAddr: 0x229E8, symSize: 0x20 }
  - { offset: 0x3044CE, size: 0x8, addend: 0x0, symName: __ZN8facebook5react17HostPlatformColorL14UndefinedColorE, symObjAddr: 0x176920, symBinAddr: 0x7D828, symSize: 0x0 }
  - { offset: 0x307826, size: 0x8, addend: 0x0, symName: __ZN8facebook5react38concreteComponentDescriptorConstructorINS0_27ConcreteComponentDescriptorINS0_22ConcreteViewShadowNodeIXadL_ZNS0_41RNSScreenNavigationContainerComponentNameEEENS0_33RNSScreenNavigationContainerPropsENS0_40RNSScreenNavigationContainerEventEmitterENS0_9StateDataEEEEEEENSt3__110unique_ptrIKNS0_19ComponentDescriptorENS9_14default_deleteISC_EEEERKNS0_29ComponentDescriptorParametersE, symObjAddr: 0x308, symBinAddr: 0x22D10, symSize: 0x34 }
  - { offset: 0x322EB8, size: 0x8, addend: 0x0, symName: __ZNSt3__111make_uniqueB8ne200100IKN8facebook5react27ConcreteComponentDescriptorINS2_22ConcreteViewShadowNodeIXadL_ZNS2_41RNSScreenNavigationContainerComponentNameEEENS2_33RNSScreenNavigationContainerPropsENS2_40RNSScreenNavigationContainerEventEmitterENS2_9StateDataEEEEEJRKNS2_29ComponentDescriptorParametersEELi0EEENS_10unique_ptrIT_NS_14default_deleteISF_EEEEDpOT0_, symObjAddr: 0x33C, symBinAddr: 0x22D44, symSize: 0xD4 }
  - { offset: 0x323846, size: 0x8, addend: 0x0, symName: __ZNSt3__115allocate_sharedB8ne200100IN8facebook5react22ConcreteViewShadowNodeIXadL_ZNS2_41RNSScreenNavigationContainerComponentNameEEENS2_33RNSScreenNavigationContainerPropsENS2_40RNSScreenNavigationContainerEventEmitterENS2_9StateDataEEENS_9allocatorIS7_EEJRKNS2_18ShadowNodeFragmentERKNS_10shared_ptrIKNS2_16ShadowNodeFamilyEEENS2_16ShadowNodeTraitsEELi0EEENSD_IT_EERKT0_DpOT1_, symObjAddr: 0x1B38, symBinAddr: 0x23584, symSize: 0x70 }
  - { offset: 0x323BD0, size: 0x8, addend: 0x0, symName: __ZNSt3__115allocate_sharedB8ne200100IN8facebook5react22ConcreteViewShadowNodeIXadL_ZNS2_41RNSScreenNavigationContainerComponentNameEEENS2_33RNSScreenNavigationContainerPropsENS2_40RNSScreenNavigationContainerEventEmitterENS2_9StateDataEEENS_9allocatorIS7_EEJRKNS2_10ShadowNodeERKNS2_18ShadowNodeFragmentEELi0EEENS_10shared_ptrIT_EERKT0_DpOT1_, symObjAddr: 0x20F4, symBinAddr: 0x237F8, symSize: 0x60 }
  - { offset: 0x324557, size: 0x8, addend: 0x0, symName: __ZNSt3__115allocate_sharedB8ne200100IKN8facebook5react40RNSScreenNavigationContainerEventEmitterENS_9allocatorIS3_EEJNS_10shared_ptrINS2_11EventTargetEEERKNS_8weak_ptrIKNS2_15EventDispatcherEEEELi0EEENS7_IT_EERKT0_DpOT1_, symObjAddr: 0x27D4, symBinAddr: 0x23BCC, symSize: 0x60 }
  - { offset: 0x32481B, size: 0x8, addend: 0x0, symName: __ZNSt3__115allocate_sharedB8ne200100IN8facebook5react16ShadowNodeFamilyENS_9allocatorIS3_EEJRKNS2_24ShadowNodeFamilyFragmentERNS_10shared_ptrIKNS2_40RNSScreenNavigationContainerEventEmitterEEERKNS_8weak_ptrIKNS2_15EventDispatcherEEERKNS2_27ConcreteComponentDescriptorINS2_22ConcreteViewShadowNodeIXadL_ZNS2_41RNSScreenNavigationContainerComponentNameEEENS2_33RNSScreenNavigationContainerPropsESA_NS2_9StateDataEEEEEELi0EEENS9_IT_EERKT0_DpOT1_, symObjAddr: 0x2EA0, symBinAddr: 0x23E6C, symSize: 0x78 }
  - { offset: 0x325D3B, size: 0x8, addend: 0x0, symName: __ZNSt3__115allocate_sharedB8ne200100IKN8facebook5react33RNSScreenNavigationContainerPropsENS_9allocatorIS3_EEJELi0EEENS_10shared_ptrIT_EERKT0_DpOT1_, symObjAddr: 0x2308, symBinAddr: 0x239B4, symSize: 0x48 }
  - { offset: 0x326016, size: 0x8, addend: 0x0, symName: __ZNSt3__115allocate_sharedB8ne200100IN8facebook5react33RNSScreenNavigationContainerPropsENS_9allocatorIS3_EEJRKNS2_18PropsParserContextERKS3_RKNS2_8RawPropsEELi0EEENS_10shared_ptrIT_EERKT0_DpOT1_, symObjAddr: 0x246C, symBinAddr: 0x23AC0, symSize: 0x70 }
  - { offset: 0x3271A8, size: 0x8, addend: 0x0, symName: __ZNSt3__112construct_atB8ne200100IN8facebook5react40RNSScreenNavigationContainerEventEmitterEJNS_10shared_ptrINS2_11EventTargetEEERKNS_8weak_ptrIKNS2_15EventDispatcherEEEEPS3_EEPT_SF_DpOT0_, symObjAddr: 0x28C8, symBinAddr: 0x23CC0, symSize: 0x140 }
  - { offset: 0x327FE7, size: 0x8, addend: 0x0, symName: __ZNSt3__112construct_atB8ne200100IN8facebook5react16ShadowNodeFamilyEJRKNS2_24ShadowNodeFamilyFragmentERNS_10shared_ptrIKNS2_40RNSScreenNavigationContainerEventEmitterEEERKNS_8weak_ptrIKNS2_15EventDispatcherEEERKNS2_27ConcreteComponentDescriptorINS2_22ConcreteViewShadowNodeIXadL_ZNS2_41RNSScreenNavigationContainerComponentNameEEENS2_33RNSScreenNavigationContainerPropsES8_NS2_9StateDataEEEEEEPS3_EEPT_SS_DpOT0_, symObjAddr: 0x2FA8, symBinAddr: 0x23F30, symSize: 0xDC }
  - { offset: 0x32CDA9, size: 0x8, addend: 0x0, symName: __ZN8facebook5react18ConcreteShadowNodeIXadL_ZNS0_41RNSScreenNavigationContainerComponentNameEEENS0_24YogaLayoutableShadowNodeENS0_33RNSScreenNavigationContainerPropsENS0_40RNSScreenNavigationContainerEventEmitterENS0_9StateDataEE18defaultSharedPropsEv, symObjAddr: 0x2210, symBinAddr: 0x238BC, symSize: 0x9C }
  - { offset: 0x32CDC9, size: 0x8, addend: 0x0, symName: __ZZN8facebook5react18ConcreteShadowNodeIXadL_ZNS0_41RNSScreenNavigationContainerComponentNameEEENS0_24YogaLayoutableShadowNodeENS0_33RNSScreenNavigationContainerPropsENS0_40RNSScreenNavigationContainerEventEmitterENS0_9StateDataEE18defaultSharedPropsEvE18defaultSharedProps, symObjAddr: 0x49F8, symBinAddr: 0x7D068, symSize: 0x0 }
  - { offset: 0x32D056, size: 0x8, addend: 0x0, symName: '-[RNSScreenNavigationContainerView setupController]', symObjAddr: 0x0, symBinAddr: 0x22A08, symSize: 0xC4 }
  - { offset: 0x32D088, size: 0x8, addend: 0x0, symName: '-[RNSScreenNavigationContainerView updateContainer]', symObjAddr: 0xC4, symBinAddr: 0x22ACC, symSize: 0x1B8 }
  - { offset: 0x32D14C, size: 0x8, addend: 0x0, symName: '+[RNSScreenNavigationContainerView componentDescriptorProvider]', symObjAddr: 0x27C, symBinAddr: 0x22C84, symSize: 0x20 }
  - { offset: 0x32D181, size: 0x8, addend: 0x0, symName: '+[RNSScreenNavigationContainerView componentDescriptorProvider]', symObjAddr: 0x27C, symBinAddr: 0x22C84, symSize: 0x20 }
  - { offset: 0x32D1E5, size: 0x8, addend: 0x0, symName: '+[RNSScreenNavigationContainerView load]', symObjAddr: 0x29C, symBinAddr: 0x22CA4, symSize: 0x34 }
  - { offset: 0x32D217, size: 0x8, addend: 0x0, symName: __Z31RNSScreenNavigationContainerClsv, symObjAddr: 0x2D0, symBinAddr: 0x22CD8, symSize: 0xC }
  - { offset: 0x32D236, size: 0x8, addend: 0x0, symName: '+[RNSScreenNavigationContainerManager moduleName]', symObjAddr: 0x2DC, symBinAddr: 0x22CE4, symSize: 0xC }
  - { offset: 0x32D268, size: 0x8, addend: 0x0, symName: '+[RNSScreenNavigationContainerManager load]', symObjAddr: 0x2E8, symBinAddr: 0x22CF0, symSize: 0x4 }
  - { offset: 0x32D29C, size: 0x8, addend: 0x0, symName: '+[RNSScreenNavigationContainerManager load]', symObjAddr: 0x2E8, symBinAddr: 0x22CF0, symSize: 0x4 }
  - { offset: 0x32D2BF, size: 0x8, addend: 0x0, symName: '-[RNSScreenNavigationContainerManager view]', symObjAddr: 0x2EC, symBinAddr: 0x22CF4, symSize: 0x1C }
  - { offset: 0x32D83D, size: 0x8, addend: 0x0, symName: __ZN8facebook5react14RawPropsParser7prepareINS0_33RNSScreenNavigationContainerPropsEEEvv, symObjAddr: 0x460, symBinAddr: 0x22E18, symSize: 0x1C4 }
  - { offset: 0x330294, size: 0x8, addend: 0x0, symName: __ZN8facebook5react27ConcreteComponentDescriptorINS0_22ConcreteViewShadowNodeIXadL_ZNS0_41RNSScreenNavigationContainerComponentNameEEENS0_33RNSScreenNavigationContainerPropsENS0_40RNSScreenNavigationContainerEventEmitterENS0_9StateDataEEEED1Ev, symObjAddr: 0x624, symBinAddr: 0x22FDC, symSize: 0x4 }
  - { offset: 0x3302B8, size: 0x8, addend: 0x0, symName: __ZN8facebook5react27ConcreteComponentDescriptorINS0_22ConcreteViewShadowNodeIXadL_ZNS0_41RNSScreenNavigationContainerComponentNameEEENS0_33RNSScreenNavigationContainerPropsENS0_40RNSScreenNavigationContainerEventEmitterENS0_9StateDataEEEED1Ev, symObjAddr: 0x624, symBinAddr: 0x22FDC, symSize: 0x4 }
  - { offset: 0x3302D7, size: 0x8, addend: 0x0, symName: __ZN8facebook5react27ConcreteComponentDescriptorINS0_22ConcreteViewShadowNodeIXadL_ZNS0_41RNSScreenNavigationContainerComponentNameEEENS0_33RNSScreenNavigationContainerPropsENS0_40RNSScreenNavigationContainerEventEmitterENS0_9StateDataEEEED1Ev, symObjAddr: 0x624, symBinAddr: 0x22FDC, symSize: 0x4 }
  - { offset: 0x3305B2, size: 0x8, addend: 0x0, symName: __ZN8facebook5react27ConcreteComponentDescriptorINS0_22ConcreteViewShadowNodeIXadL_ZNS0_41RNSScreenNavigationContainerComponentNameEEENS0_33RNSScreenNavigationContainerPropsENS0_40RNSScreenNavigationContainerEventEmitterENS0_9StateDataEEEED0Ev, symObjAddr: 0x628, symBinAddr: 0x22FE0, symSize: 0x14 }
  - { offset: 0x330633, size: 0x8, addend: 0x0, symName: __ZNK8facebook5react27ConcreteComponentDescriptorINS0_22ConcreteViewShadowNodeIXadL_ZNS0_41RNSScreenNavigationContainerComponentNameEEENS0_33RNSScreenNavigationContainerPropsENS0_40RNSScreenNavigationContainerEventEmitterENS0_9StateDataEEEE18getComponentHandleEv, symObjAddr: 0x63C, symBinAddr: 0x22FF4, symSize: 0xC }
  - { offset: 0x330659, size: 0x8, addend: 0x0, symName: __ZNK8facebook5react27ConcreteComponentDescriptorINS0_22ConcreteViewShadowNodeIXadL_ZNS0_41RNSScreenNavigationContainerComponentNameEEENS0_33RNSScreenNavigationContainerPropsENS0_40RNSScreenNavigationContainerEventEmitterENS0_9StateDataEEEE16getComponentNameEv, symObjAddr: 0x648, symBinAddr: 0x23000, symSize: 0xC }
  - { offset: 0x33067F, size: 0x8, addend: 0x0, symName: __ZNK8facebook5react27ConcreteComponentDescriptorINS0_22ConcreteViewShadowNodeIXadL_ZNS0_41RNSScreenNavigationContainerComponentNameEEENS0_33RNSScreenNavigationContainerPropsENS0_40RNSScreenNavigationContainerEventEmitterENS0_9StateDataEEEE9getTraitsEv, symObjAddr: 0x654, symBinAddr: 0x2300C, symSize: 0x8 }
  - { offset: 0x330780, size: 0x8, addend: 0x0, symName: __ZNK8facebook5react27ConcreteComponentDescriptorINS0_22ConcreteViewShadowNodeIXadL_ZNS0_41RNSScreenNavigationContainerComponentNameEEENS0_33RNSScreenNavigationContainerPropsENS0_40RNSScreenNavigationContainerEventEmitterENS0_9StateDataEEEE16createShadowNodeERKNS0_18ShadowNodeFragmentERKNSt3__110shared_ptrIKNS0_16ShadowNodeFamilyEEE, symObjAddr: 0x65C, symBinAddr: 0x23014, symSize: 0x90 }
  - { offset: 0x330A7A, size: 0x8, addend: 0x0, symName: __ZNK8facebook5react27ConcreteComponentDescriptorINS0_22ConcreteViewShadowNodeIXadL_ZNS0_41RNSScreenNavigationContainerComponentNameEEENS0_33RNSScreenNavigationContainerPropsENS0_40RNSScreenNavigationContainerEventEmitterENS0_9StateDataEEEE15cloneShadowNodeERKNS0_10ShadowNodeERKNS0_18ShadowNodeFragmentE, symObjAddr: 0x6EC, symBinAddr: 0x230A4, symSize: 0x104 }
  - { offset: 0x330E21, size: 0x8, addend: 0x0, symName: __ZNK8facebook5react27ConcreteComponentDescriptorINS0_22ConcreteViewShadowNodeIXadL_ZNS0_41RNSScreenNavigationContainerComponentNameEEENS0_33RNSScreenNavigationContainerPropsENS0_40RNSScreenNavigationContainerEventEmitterENS0_9StateDataEEEE11appendChildERKNSt3__110shared_ptrIKNS0_10ShadowNodeEEESE_, symObjAddr: 0x7F0, symBinAddr: 0x231A8, symSize: 0x14 }
  - { offset: 0x330E7D, size: 0x8, addend: 0x0, symName: __ZNK8facebook5react27ConcreteComponentDescriptorINS0_22ConcreteViewShadowNodeIXadL_ZNS0_41RNSScreenNavigationContainerComponentNameEEENS0_33RNSScreenNavigationContainerPropsENS0_40RNSScreenNavigationContainerEventEmitterENS0_9StateDataEEEE11appendChildERKNSt3__110shared_ptrIKNS0_10ShadowNodeEEESE_, symObjAddr: 0x7F0, symBinAddr: 0x231A8, symSize: 0x14 }
  - { offset: 0x33176C, size: 0x8, addend: 0x0, symName: __ZNK8facebook5react27ConcreteComponentDescriptorINS0_22ConcreteViewShadowNodeIXadL_ZNS0_41RNSScreenNavigationContainerComponentNameEEENS0_33RNSScreenNavigationContainerPropsENS0_40RNSScreenNavigationContainerEventEmitterENS0_9StateDataEEEE10clonePropsERKNS0_18PropsParserContextERKNSt3__110shared_ptrIKNS0_5PropsEEENS0_8RawPropsE, symObjAddr: 0x804, symBinAddr: 0x231BC, symSize: 0x21C }
  - { offset: 0x332338, size: 0x8, addend: 0x0, symName: __ZN8facebook5react18ConcreteShadowNodeIXadL_ZNS0_41RNSScreenNavigationContainerComponentNameEEENS0_24YogaLayoutableShadowNodeENS0_33RNSScreenNavigationContainerPropsENS0_40RNSScreenNavigationContainerEventEmitterENS0_9StateDataEE5PropsERKNS0_18PropsParserContextERKNS0_8RawPropsERKNSt3__110shared_ptrIKNS0_5PropsEEE, symObjAddr: 0x22AC, symBinAddr: 0x23958, symSize: 0x58 }
  - { offset: 0x3325A8, size: 0x8, addend: 0x0, symName: __ZNK8facebook5react27ConcreteComponentDescriptorINS0_22ConcreteViewShadowNodeIXadL_ZNS0_41RNSScreenNavigationContainerComponentNameEEENS0_33RNSScreenNavigationContainerPropsENS0_40RNSScreenNavigationContainerEventEmitterENS0_9StateDataEEEE18createInitialStateERKNSt3__110shared_ptrIKNS0_5PropsEEERKNS9_IKNS0_16ShadowNodeFamilyEEE, symObjAddr: 0xA20, symBinAddr: 0x233D8, symSize: 0x8 }
  - { offset: 0x3325EE, size: 0x8, addend: 0x0, symName: __ZNK8facebook5react27ConcreteComponentDescriptorINS0_22ConcreteViewShadowNodeIXadL_ZNS0_41RNSScreenNavigationContainerComponentNameEEENS0_33RNSScreenNavigationContainerPropsENS0_40RNSScreenNavigationContainerEventEmitterENS0_9StateDataEEEE18createInitialStateERKNSt3__110shared_ptrIKNS0_5PropsEEERKNS9_IKNS0_16ShadowNodeFamilyEEE, symObjAddr: 0xA20, symBinAddr: 0x233D8, symSize: 0x8 }
  - { offset: 0x332613, size: 0x8, addend: 0x0, symName: __ZNK8facebook5react27ConcreteComponentDescriptorINS0_22ConcreteViewShadowNodeIXadL_ZNS0_41RNSScreenNavigationContainerComponentNameEEENS0_33RNSScreenNavigationContainerPropsENS0_40RNSScreenNavigationContainerEventEmitterENS0_9StateDataEEEE18createInitialStateERKNSt3__110shared_ptrIKNS0_5PropsEEERKNS9_IKNS0_16ShadowNodeFamilyEEE, symObjAddr: 0xA20, symBinAddr: 0x233D8, symSize: 0x8 }
  - { offset: 0x332637, size: 0x8, addend: 0x0, symName: __ZNK8facebook5react27ConcreteComponentDescriptorINS0_22ConcreteViewShadowNodeIXadL_ZNS0_41RNSScreenNavigationContainerComponentNameEEENS0_33RNSScreenNavigationContainerPropsENS0_40RNSScreenNavigationContainerEventEmitterENS0_9StateDataEEEE11createStateERKNS0_16ShadowNodeFamilyERKNSt3__110shared_ptrIKvEE, symObjAddr: 0xA28, symBinAddr: 0x233E0, symSize: 0x8 }
  - { offset: 0x33267D, size: 0x8, addend: 0x0, symName: __ZNK8facebook5react27ConcreteComponentDescriptorINS0_22ConcreteViewShadowNodeIXadL_ZNS0_41RNSScreenNavigationContainerComponentNameEEENS0_33RNSScreenNavigationContainerPropsENS0_40RNSScreenNavigationContainerEventEmitterENS0_9StateDataEEEE11createStateERKNS0_16ShadowNodeFamilyERKNSt3__110shared_ptrIKvEE, symObjAddr: 0xA28, symBinAddr: 0x233E0, symSize: 0x8 }
  - { offset: 0x3326A2, size: 0x8, addend: 0x0, symName: __ZNK8facebook5react27ConcreteComponentDescriptorINS0_22ConcreteViewShadowNodeIXadL_ZNS0_41RNSScreenNavigationContainerComponentNameEEENS0_33RNSScreenNavigationContainerPropsENS0_40RNSScreenNavigationContainerEventEmitterENS0_9StateDataEEEE11createStateERKNS0_16ShadowNodeFamilyERKNSt3__110shared_ptrIKvEE, symObjAddr: 0xA28, symBinAddr: 0x233E0, symSize: 0x8 }
  - { offset: 0x3328F7, size: 0x8, addend: 0x0, symName: __ZNK8facebook5react27ConcreteComponentDescriptorINS0_22ConcreteViewShadowNodeIXadL_ZNS0_41RNSScreenNavigationContainerComponentNameEEENS0_33RNSScreenNavigationContainerPropsENS0_40RNSScreenNavigationContainerEventEmitterENS0_9StateDataEEEE12createFamilyERKNS0_24ShadowNodeFamilyFragmentE, symObjAddr: 0xA30, symBinAddr: 0x233E8, symSize: 0x168 }
  - { offset: 0x332EB0, size: 0x8, addend: 0x0, symName: __ZNK8facebook5react27ConcreteComponentDescriptorINS0_22ConcreteViewShadowNodeIXadL_ZNS0_41RNSScreenNavigationContainerComponentNameEEENS0_33RNSScreenNavigationContainerPropsENS0_40RNSScreenNavigationContainerEventEmitterENS0_9StateDataEEEE5adoptERNS0_10ShadowNodeE, symObjAddr: 0xB98, symBinAddr: 0x23550, symSize: 0x4 }
  - { offset: 0x332EE4, size: 0x8, addend: 0x0, symName: __ZN8facebook5react33RNSScreenNavigationContainerPropsD1Ev, symObjAddr: 0xBAC, symBinAddr: 0x23554, symSize: 0x10 }
  - { offset: 0x332F08, size: 0x8, addend: 0x0, symName: __ZN8facebook5react33RNSScreenNavigationContainerPropsD1Ev, symObjAddr: 0xBAC, symBinAddr: 0x23554, symSize: 0x10 }
  - { offset: 0x33409B, size: 0x8, addend: 0x0, symName: __ZN8facebook5react33RNSScreenNavigationContainerPropsD0Ev, symObjAddr: 0x1008, symBinAddr: 0x23564, symSize: 0x20 }
  - { offset: 0x337721, size: 0x8, addend: 0x0, symName: __ZNSt3__120__shared_ptr_emplaceIN8facebook5react22ConcreteViewShadowNodeIXadL_ZNS2_41RNSScreenNavigationContainerComponentNameEEENS2_33RNSScreenNavigationContainerPropsENS2_40RNSScreenNavigationContainerEventEmitterENS2_9StateDataEEENS_9allocatorIS7_EEEC2B8ne200100IJRKNS2_18ShadowNodeFragmentERKNS_10shared_ptrIKNS2_16ShadowNodeFamilyEEENS2_16ShadowNodeTraitsEES9_Li0EEES9_DpOT_, symObjAddr: 0x1BA8, symBinAddr: 0x235F4, symSize: 0x68 }
  - { offset: 0x337B54, size: 0x8, addend: 0x0, symName: __ZNSt3__120__shared_ptr_emplaceIN8facebook5react22ConcreteViewShadowNodeIXadL_ZNS2_41RNSScreenNavigationContainerComponentNameEEENS2_33RNSScreenNavigationContainerPropsENS2_40RNSScreenNavigationContainerEventEmitterENS2_9StateDataEEENS_9allocatorIS7_EEED1Ev, symObjAddr: 0x1C10, symBinAddr: 0x2365C, symSize: 0x14 }
  - { offset: 0x337B78, size: 0x8, addend: 0x0, symName: __ZNSt3__120__shared_ptr_emplaceIN8facebook5react22ConcreteViewShadowNodeIXadL_ZNS2_41RNSScreenNavigationContainerComponentNameEEENS2_33RNSScreenNavigationContainerPropsENS2_40RNSScreenNavigationContainerEventEmitterENS2_9StateDataEEENS_9allocatorIS7_EEED1Ev, symObjAddr: 0x1C10, symBinAddr: 0x2365C, symSize: 0x14 }
  - { offset: 0x337BAE, size: 0x8, addend: 0x0, symName: __ZNSt3__120__shared_ptr_emplaceIN8facebook5react22ConcreteViewShadowNodeIXadL_ZNS2_41RNSScreenNavigationContainerComponentNameEEENS2_33RNSScreenNavigationContainerPropsENS2_40RNSScreenNavigationContainerEventEmitterENS2_9StateDataEEENS_9allocatorIS7_EEED0Ev, symObjAddr: 0x1C24, symBinAddr: 0x23670, symSize: 0x24 }
  - { offset: 0x337C81, size: 0x8, addend: 0x0, symName: __ZNSt3__120__shared_ptr_emplaceIN8facebook5react22ConcreteViewShadowNodeIXadL_ZNS2_41RNSScreenNavigationContainerComponentNameEEENS2_33RNSScreenNavigationContainerPropsENS2_40RNSScreenNavigationContainerEventEmitterENS2_9StateDataEEENS_9allocatorIS7_EEE16__on_zero_sharedEv, symObjAddr: 0x1C48, symBinAddr: 0x23694, symSize: 0xC }
  - { offset: 0x337CAA, size: 0x8, addend: 0x0, symName: __ZNSt3__120__shared_ptr_emplaceIN8facebook5react22ConcreteViewShadowNodeIXadL_ZNS2_41RNSScreenNavigationContainerComponentNameEEENS2_33RNSScreenNavigationContainerPropsENS2_40RNSScreenNavigationContainerEventEmitterENS2_9StateDataEEENS_9allocatorIS7_EEE16__on_zero_sharedEv, symObjAddr: 0x1C48, symBinAddr: 0x23694, symSize: 0xC }
  - { offset: 0x337CC9, size: 0x8, addend: 0x0, symName: __ZNSt3__120__shared_ptr_emplaceIN8facebook5react22ConcreteViewShadowNodeIXadL_ZNS2_41RNSScreenNavigationContainerComponentNameEEENS2_33RNSScreenNavigationContainerPropsENS2_40RNSScreenNavigationContainerEventEmitterENS2_9StateDataEEENS_9allocatorIS7_EEE16__on_zero_sharedEv, symObjAddr: 0x1C48, symBinAddr: 0x23694, symSize: 0xC }
  - { offset: 0x337CE8, size: 0x8, addend: 0x0, symName: __ZNSt3__120__shared_ptr_emplaceIN8facebook5react22ConcreteViewShadowNodeIXadL_ZNS2_41RNSScreenNavigationContainerComponentNameEEENS2_33RNSScreenNavigationContainerPropsENS2_40RNSScreenNavigationContainerEventEmitterENS2_9StateDataEEENS_9allocatorIS7_EEE16__on_zero_sharedEv, symObjAddr: 0x1C48, symBinAddr: 0x23694, symSize: 0xC }
  - { offset: 0x337D14, size: 0x8, addend: 0x0, symName: __ZNSt3__120__shared_ptr_emplaceIN8facebook5react22ConcreteViewShadowNodeIXadL_ZNS2_41RNSScreenNavigationContainerComponentNameEEENS2_33RNSScreenNavigationContainerPropsENS2_40RNSScreenNavigationContainerEventEmitterENS2_9StateDataEEENS_9allocatorIS7_EEE21__on_zero_shared_weakEv, symObjAddr: 0x1C54, symBinAddr: 0x236A0, symSize: 0x4 }
  - { offset: 0x337D48, size: 0x8, addend: 0x0, symName: __ZNSt3__120__shared_ptr_emplaceIN8facebook5react22ConcreteViewShadowNodeIXadL_ZNS2_41RNSScreenNavigationContainerComponentNameEEENS2_33RNSScreenNavigationContainerPropsENS2_40RNSScreenNavigationContainerEventEmitterENS2_9StateDataEEENS_9allocatorIS7_EEE21__on_zero_shared_weakEv, symObjAddr: 0x1C54, symBinAddr: 0x236A0, symSize: 0x4 }
  - { offset: 0x337D6C, size: 0x8, addend: 0x0, symName: __ZNSt3__120__shared_ptr_emplaceIN8facebook5react22ConcreteViewShadowNodeIXadL_ZNS2_41RNSScreenNavigationContainerComponentNameEEENS2_33RNSScreenNavigationContainerPropsENS2_40RNSScreenNavigationContainerEventEmitterENS2_9StateDataEEENS_9allocatorIS7_EEE21__on_zero_shared_weakEv, symObjAddr: 0x1C54, symBinAddr: 0x236A0, symSize: 0x4 }
  - { offset: 0x337D91, size: 0x8, addend: 0x0, symName: __ZNSt3__120__shared_ptr_emplaceIN8facebook5react22ConcreteViewShadowNodeIXadL_ZNS2_41RNSScreenNavigationContainerComponentNameEEENS2_33RNSScreenNavigationContainerPropsENS2_40RNSScreenNavigationContainerEventEmitterENS2_9StateDataEEENS_9allocatorIS7_EEE21__on_zero_shared_weakEv, symObjAddr: 0x1C54, symBinAddr: 0x236A0, symSize: 0x4 }
  - { offset: 0x337DC9, size: 0x8, addend: 0x0, symName: __ZNSt3__120__shared_ptr_emplaceIN8facebook5react22ConcreteViewShadowNodeIXadL_ZNS2_41RNSScreenNavigationContainerComponentNameEEENS2_33RNSScreenNavigationContainerPropsENS2_40RNSScreenNavigationContainerEventEmitterENS2_9StateDataEEENS_9allocatorIS7_EEE21__on_zero_shared_weakEv, symObjAddr: 0x1C54, symBinAddr: 0x236A0, symSize: 0x4 }
  - { offset: 0x3380C7, size: 0x8, addend: 0x0, symName: __ZN8facebook5react22ConcreteViewShadowNodeIXadL_ZNS0_41RNSScreenNavigationContainerComponentNameEEENS0_33RNSScreenNavigationContainerPropsENS0_40RNSScreenNavigationContainerEventEmitterENS0_9StateDataEED1Ev, symObjAddr: 0x1CC4, symBinAddr: 0x236A4, symSize: 0x70 }
  - { offset: 0x338668, size: 0x8, addend: 0x0, symName: __ZN8facebook5react22ConcreteViewShadowNodeIXadL_ZNS0_41RNSScreenNavigationContainerComponentNameEEENS0_33RNSScreenNavigationContainerPropsENS0_40RNSScreenNavigationContainerEventEmitterENS0_9StateDataEED0Ev, symObjAddr: 0x1D34, symBinAddr: 0x23714, symSize: 0x74 }
  - { offset: 0x338A80, size: 0x8, addend: 0x0, symName: __ZNK8facebook5react22ConcreteViewShadowNodeIXadL_ZNS0_41RNSScreenNavigationContainerComponentNameEEENS0_33RNSScreenNavigationContainerPropsENS0_40RNSScreenNavigationContainerEventEmitterENS0_9StateDataEE12getTransformEv, symObjAddr: 0x1DA8, symBinAddr: 0x23788, symSize: 0x40 }
  - { offset: 0x338AF5, size: 0x8, addend: 0x0, symName: __ZNK8facebook5react22ConcreteViewShadowNodeIXadL_ZNS0_41RNSScreenNavigationContainerComponentNameEEENS0_33RNSScreenNavigationContainerPropsENS0_40RNSScreenNavigationContainerEventEmitterENS0_9StateDataEE16canBeTouchTargetEv, symObjAddr: 0x1DE8, symBinAddr: 0x237C8, symSize: 0x18 }
  - { offset: 0x338B2F, size: 0x8, addend: 0x0, symName: __ZNK8facebook5react22ConcreteViewShadowNodeIXadL_ZNS0_41RNSScreenNavigationContainerComponentNameEEENS0_33RNSScreenNavigationContainerPropsENS0_40RNSScreenNavigationContainerEventEmitterENS0_9StateDataEE16canBeTouchTargetEv, symObjAddr: 0x1DE8, symBinAddr: 0x237C8, symSize: 0x18 }
  - { offset: 0x338B4D, size: 0x8, addend: 0x0, symName: __ZNK8facebook5react22ConcreteViewShadowNodeIXadL_ZNS0_41RNSScreenNavigationContainerComponentNameEEENS0_33RNSScreenNavigationContainerPropsENS0_40RNSScreenNavigationContainerEventEmitterENS0_9StateDataEE16canBeTouchTargetEv, symObjAddr: 0x1DE8, symBinAddr: 0x237C8, symSize: 0x18 }
  - { offset: 0x338B6B, size: 0x8, addend: 0x0, symName: __ZNK8facebook5react22ConcreteViewShadowNodeIXadL_ZNS0_41RNSScreenNavigationContainerComponentNameEEENS0_33RNSScreenNavigationContainerPropsENS0_40RNSScreenNavigationContainerEventEmitterENS0_9StateDataEE24canChildrenBeTouchTargetEv, symObjAddr: 0x1E00, symBinAddr: 0x237E0, symSize: 0x18 }
  - { offset: 0x338BA1, size: 0x8, addend: 0x0, symName: __ZNK8facebook5react22ConcreteViewShadowNodeIXadL_ZNS0_41RNSScreenNavigationContainerComponentNameEEENS0_33RNSScreenNavigationContainerPropsENS0_40RNSScreenNavigationContainerEventEmitterENS0_9StateDataEE24canChildrenBeTouchTargetEv, symObjAddr: 0x1E00, symBinAddr: 0x237E0, symSize: 0x18 }
  - { offset: 0x338BBF, size: 0x8, addend: 0x0, symName: __ZNK8facebook5react22ConcreteViewShadowNodeIXadL_ZNS0_41RNSScreenNavigationContainerComponentNameEEENS0_33RNSScreenNavigationContainerPropsENS0_40RNSScreenNavigationContainerEventEmitterENS0_9StateDataEE24canChildrenBeTouchTargetEv, symObjAddr: 0x1E00, symBinAddr: 0x237E0, symSize: 0x18 }
  - { offset: 0x338FC2, size: 0x8, addend: 0x0, symName: __ZNSt3__120__shared_ptr_emplaceIN8facebook5react22ConcreteViewShadowNodeIXadL_ZNS2_41RNSScreenNavigationContainerComponentNameEEENS2_33RNSScreenNavigationContainerPropsENS2_40RNSScreenNavigationContainerEventEmitterENS2_9StateDataEEENS_9allocatorIS7_EEEC2B8ne200100IJRKNS2_10ShadowNodeERKNS2_18ShadowNodeFragmentEES9_Li0EEES9_DpOT_, symObjAddr: 0x2154, symBinAddr: 0x23858, symSize: 0x64 }
  - { offset: 0x33929C, size: 0x8, addend: 0x0, symName: __ZNSt3__110shared_ptrIKN8facebook5react33RNSScreenNavigationContainerPropsEED1B8ne200100Ev, symObjAddr: 0x2304, symBinAddr: 0x239B0, symSize: 0x4 }
  - { offset: 0x3392C8, size: 0x8, addend: 0x0, symName: __ZNSt3__110shared_ptrIKN8facebook5react33RNSScreenNavigationContainerPropsEED1B8ne200100Ev, symObjAddr: 0x2304, symBinAddr: 0x239B0, symSize: 0x4 }
  - { offset: 0x339566, size: 0x8, addend: 0x0, symName: __ZNSt3__120__shared_ptr_emplaceIKN8facebook5react33RNSScreenNavigationContainerPropsENS_9allocatorIS3_EEEC2B8ne200100IJES6_Li0EEES6_DpOT_, symObjAddr: 0x2350, symBinAddr: 0x239FC, symSize: 0x74 }
  - { offset: 0x3396CF, size: 0x8, addend: 0x0, symName: __ZNSt3__120__shared_ptr_emplaceIKN8facebook5react33RNSScreenNavigationContainerPropsENS_9allocatorIS3_EEED1Ev, symObjAddr: 0x23C4, symBinAddr: 0x23A70, symSize: 0x14 }
  - { offset: 0x3396F3, size: 0x8, addend: 0x0, symName: __ZNSt3__120__shared_ptr_emplaceIKN8facebook5react33RNSScreenNavigationContainerPropsENS_9allocatorIS3_EEED1Ev, symObjAddr: 0x23C4, symBinAddr: 0x23A70, symSize: 0x14 }
  - { offset: 0x339729, size: 0x8, addend: 0x0, symName: __ZNSt3__120__shared_ptr_emplaceIKN8facebook5react33RNSScreenNavigationContainerPropsENS_9allocatorIS3_EEED0Ev, symObjAddr: 0x23D8, symBinAddr: 0x23A84, symSize: 0x24 }
  - { offset: 0x3397FC, size: 0x8, addend: 0x0, symName: __ZNSt3__120__shared_ptr_emplaceIKN8facebook5react33RNSScreenNavigationContainerPropsENS_9allocatorIS3_EEE16__on_zero_sharedEv, symObjAddr: 0x23FC, symBinAddr: 0x23AA8, symSize: 0x14 }
  - { offset: 0x339825, size: 0x8, addend: 0x0, symName: __ZNSt3__120__shared_ptr_emplaceIKN8facebook5react33RNSScreenNavigationContainerPropsENS_9allocatorIS3_EEE16__on_zero_sharedEv, symObjAddr: 0x23FC, symBinAddr: 0x23AA8, symSize: 0x14 }
  - { offset: 0x3398B3, size: 0x8, addend: 0x0, symName: __ZNSt3__120__shared_ptr_emplaceIKN8facebook5react33RNSScreenNavigationContainerPropsENS_9allocatorIS3_EEE21__on_zero_shared_weakEv, symObjAddr: 0x2410, symBinAddr: 0x23ABC, symSize: 0x4 }
  - { offset: 0x3398E7, size: 0x8, addend: 0x0, symName: __ZNSt3__120__shared_ptr_emplaceIKN8facebook5react33RNSScreenNavigationContainerPropsENS_9allocatorIS3_EEE21__on_zero_shared_weakEv, symObjAddr: 0x2410, symBinAddr: 0x23ABC, symSize: 0x4 }
  - { offset: 0x33990B, size: 0x8, addend: 0x0, symName: __ZNSt3__120__shared_ptr_emplaceIKN8facebook5react33RNSScreenNavigationContainerPropsENS_9allocatorIS3_EEE21__on_zero_shared_weakEv, symObjAddr: 0x2410, symBinAddr: 0x23ABC, symSize: 0x4 }
  - { offset: 0x339930, size: 0x8, addend: 0x0, symName: __ZNSt3__120__shared_ptr_emplaceIKN8facebook5react33RNSScreenNavigationContainerPropsENS_9allocatorIS3_EEE21__on_zero_shared_weakEv, symObjAddr: 0x2410, symBinAddr: 0x23ABC, symSize: 0x4 }
  - { offset: 0x339968, size: 0x8, addend: 0x0, symName: __ZNSt3__120__shared_ptr_emplaceIKN8facebook5react33RNSScreenNavigationContainerPropsENS_9allocatorIS3_EEE21__on_zero_shared_weakEv, symObjAddr: 0x2410, symBinAddr: 0x23ABC, symSize: 0x4 }
  - { offset: 0x339BF8, size: 0x8, addend: 0x0, symName: __ZNSt3__120__shared_ptr_emplaceIN8facebook5react33RNSScreenNavigationContainerPropsENS_9allocatorIS3_EEEC2B8ne200100IJRKNS2_18PropsParserContextERKS3_RKNS2_8RawPropsEES5_Li0EEES5_DpOT_, symObjAddr: 0x24DC, symBinAddr: 0x23B30, symSize: 0x4C }
  - { offset: 0x339DF3, size: 0x8, addend: 0x0, symName: __ZNSt3__120__shared_ptr_emplaceIN8facebook5react33RNSScreenNavigationContainerPropsENS_9allocatorIS3_EEED1Ev, symObjAddr: 0x2528, symBinAddr: 0x23B7C, symSize: 0x14 }
  - { offset: 0x339E17, size: 0x8, addend: 0x0, symName: __ZNSt3__120__shared_ptr_emplaceIN8facebook5react33RNSScreenNavigationContainerPropsENS_9allocatorIS3_EEED1Ev, symObjAddr: 0x2528, symBinAddr: 0x23B7C, symSize: 0x14 }
  - { offset: 0x339E4D, size: 0x8, addend: 0x0, symName: __ZNSt3__120__shared_ptr_emplaceIN8facebook5react33RNSScreenNavigationContainerPropsENS_9allocatorIS3_EEED0Ev, symObjAddr: 0x253C, symBinAddr: 0x23B90, symSize: 0x24 }
  - { offset: 0x339EF0, size: 0x8, addend: 0x0, symName: __ZNSt3__120__shared_ptr_emplaceIN8facebook5react33RNSScreenNavigationContainerPropsENS_9allocatorIS3_EEE16__on_zero_sharedEv, symObjAddr: 0x2560, symBinAddr: 0x23BB4, symSize: 0x14 }
  - { offset: 0x339F19, size: 0x8, addend: 0x0, symName: __ZNSt3__120__shared_ptr_emplaceIN8facebook5react33RNSScreenNavigationContainerPropsENS_9allocatorIS3_EEE16__on_zero_sharedEv, symObjAddr: 0x2560, symBinAddr: 0x23BB4, symSize: 0x14 }
  - { offset: 0x339FA7, size: 0x8, addend: 0x0, symName: __ZNSt3__120__shared_ptr_emplaceIN8facebook5react33RNSScreenNavigationContainerPropsENS_9allocatorIS3_EEE21__on_zero_shared_weakEv, symObjAddr: 0x2574, symBinAddr: 0x23BC8, symSize: 0x4 }
  - { offset: 0x339FDB, size: 0x8, addend: 0x0, symName: __ZNSt3__120__shared_ptr_emplaceIN8facebook5react33RNSScreenNavigationContainerPropsENS_9allocatorIS3_EEE21__on_zero_shared_weakEv, symObjAddr: 0x2574, symBinAddr: 0x23BC8, symSize: 0x4 }
  - { offset: 0x339FFF, size: 0x8, addend: 0x0, symName: __ZNSt3__120__shared_ptr_emplaceIN8facebook5react33RNSScreenNavigationContainerPropsENS_9allocatorIS3_EEE21__on_zero_shared_weakEv, symObjAddr: 0x2574, symBinAddr: 0x23BC8, symSize: 0x4 }
  - { offset: 0x33A024, size: 0x8, addend: 0x0, symName: __ZNSt3__120__shared_ptr_emplaceIN8facebook5react33RNSScreenNavigationContainerPropsENS_9allocatorIS3_EEE21__on_zero_shared_weakEv, symObjAddr: 0x2574, symBinAddr: 0x23BC8, symSize: 0x4 }
  - { offset: 0x33A05C, size: 0x8, addend: 0x0, symName: __ZNSt3__120__shared_ptr_emplaceIN8facebook5react33RNSScreenNavigationContainerPropsENS_9allocatorIS3_EEE21__on_zero_shared_weakEv, symObjAddr: 0x2574, symBinAddr: 0x23BC8, symSize: 0x4 }
  - { offset: 0x33A72B, size: 0x8, addend: 0x0, symName: __ZNSt3__120__shared_ptr_emplaceIKN8facebook5react40RNSScreenNavigationContainerEventEmitterENS_9allocatorIS3_EEEC2B8ne200100IJNS_10shared_ptrINS2_11EventTargetEEERKNS_8weak_ptrIKNS2_15EventDispatcherEEEES6_Li0EEES6_DpOT_, symObjAddr: 0x2834, symBinAddr: 0x23C2C, symSize: 0x4C }
  - { offset: 0x33A8E4, size: 0x8, addend: 0x0, symName: __ZNSt3__120__shared_ptr_emplaceIKN8facebook5react40RNSScreenNavigationContainerEventEmitterENS_9allocatorIS3_EEED1Ev, symObjAddr: 0x2880, symBinAddr: 0x23C78, symSize: 0x14 }
  - { offset: 0x33A908, size: 0x8, addend: 0x0, symName: __ZNSt3__120__shared_ptr_emplaceIKN8facebook5react40RNSScreenNavigationContainerEventEmitterENS_9allocatorIS3_EEED1Ev, symObjAddr: 0x2880, symBinAddr: 0x23C78, symSize: 0x14 }
  - { offset: 0x33A93E, size: 0x8, addend: 0x0, symName: __ZNSt3__120__shared_ptr_emplaceIKN8facebook5react40RNSScreenNavigationContainerEventEmitterENS_9allocatorIS3_EEED0Ev, symObjAddr: 0x2894, symBinAddr: 0x23C8C, symSize: 0x24 }
  - { offset: 0x33AA11, size: 0x8, addend: 0x0, symName: __ZNSt3__120__shared_ptr_emplaceIKN8facebook5react40RNSScreenNavigationContainerEventEmitterENS_9allocatorIS3_EEE16__on_zero_sharedEv, symObjAddr: 0x28B8, symBinAddr: 0x23CB0, symSize: 0xC }
  - { offset: 0x33AA3A, size: 0x8, addend: 0x0, symName: __ZNSt3__120__shared_ptr_emplaceIKN8facebook5react40RNSScreenNavigationContainerEventEmitterENS_9allocatorIS3_EEE16__on_zero_sharedEv, symObjAddr: 0x28B8, symBinAddr: 0x23CB0, symSize: 0xC }
  - { offset: 0x33AA59, size: 0x8, addend: 0x0, symName: __ZNSt3__120__shared_ptr_emplaceIKN8facebook5react40RNSScreenNavigationContainerEventEmitterENS_9allocatorIS3_EEE16__on_zero_sharedEv, symObjAddr: 0x28B8, symBinAddr: 0x23CB0, symSize: 0xC }
  - { offset: 0x33AA78, size: 0x8, addend: 0x0, symName: __ZNSt3__120__shared_ptr_emplaceIKN8facebook5react40RNSScreenNavigationContainerEventEmitterENS_9allocatorIS3_EEE16__on_zero_sharedEv, symObjAddr: 0x28B8, symBinAddr: 0x23CB0, symSize: 0xC }
  - { offset: 0x33AAA4, size: 0x8, addend: 0x0, symName: __ZNSt3__120__shared_ptr_emplaceIKN8facebook5react40RNSScreenNavigationContainerEventEmitterENS_9allocatorIS3_EEE21__on_zero_shared_weakEv, symObjAddr: 0x28C4, symBinAddr: 0x23CBC, symSize: 0x4 }
  - { offset: 0x33AAD8, size: 0x8, addend: 0x0, symName: __ZNSt3__120__shared_ptr_emplaceIKN8facebook5react40RNSScreenNavigationContainerEventEmitterENS_9allocatorIS3_EEE21__on_zero_shared_weakEv, symObjAddr: 0x28C4, symBinAddr: 0x23CBC, symSize: 0x4 }
  - { offset: 0x33AAFC, size: 0x8, addend: 0x0, symName: __ZNSt3__120__shared_ptr_emplaceIKN8facebook5react40RNSScreenNavigationContainerEventEmitterENS_9allocatorIS3_EEE21__on_zero_shared_weakEv, symObjAddr: 0x28C4, symBinAddr: 0x23CBC, symSize: 0x4 }
  - { offset: 0x33AB21, size: 0x8, addend: 0x0, symName: __ZNSt3__120__shared_ptr_emplaceIKN8facebook5react40RNSScreenNavigationContainerEventEmitterENS_9allocatorIS3_EEE21__on_zero_shared_weakEv, symObjAddr: 0x28C4, symBinAddr: 0x23CBC, symSize: 0x4 }
  - { offset: 0x33AB58, size: 0x8, addend: 0x0, symName: __ZNSt3__120__shared_ptr_emplaceIKN8facebook5react40RNSScreenNavigationContainerEventEmitterENS_9allocatorIS3_EEE21__on_zero_shared_weakEv, symObjAddr: 0x28C4, symBinAddr: 0x23CBC, symSize: 0x4 }
  - { offset: 0x33B0B4, size: 0x8, addend: 0x0, symName: __ZN8facebook5react40RNSScreenNavigationContainerEventEmitterD1Ev, symObjAddr: 0x2A08, symBinAddr: 0x23E00, symSize: 0x34 }
  - { offset: 0x33B1EA, size: 0x8, addend: 0x0, symName: __ZN8facebook5react40RNSScreenNavigationContainerEventEmitterD0Ev, symObjAddr: 0x2A3C, symBinAddr: 0x23E34, symSize: 0x38 }
  - { offset: 0x33B999, size: 0x8, addend: 0x0, symName: __ZNSt3__120__shared_ptr_emplaceIN8facebook5react16ShadowNodeFamilyENS_9allocatorIS3_EEEC2B8ne200100IJRKNS2_24ShadowNodeFamilyFragmentERNS_10shared_ptrIKNS2_40RNSScreenNavigationContainerEventEmitterEEERKNS_8weak_ptrIKNS2_15EventDispatcherEEERKNS2_27ConcreteComponentDescriptorINS2_22ConcreteViewShadowNodeIXadL_ZNS2_41RNSScreenNavigationContainerComponentNameEEENS2_33RNSScreenNavigationContainerPropsESC_NS2_9StateDataEEEEEES5_Li0EEES5_DpOT_, symObjAddr: 0x2F18, symBinAddr: 0x23EE4, symSize: 0x4C }
  - { offset: 0x33BD2B, size: 0x8, addend: 0x0, symName: __GLOBAL__sub_I_RNSScreenNavigationContainer.mm, symObjAddr: 0x3478, symBinAddr: 0x2400C, symSize: 0x20 }
  - { offset: 0x33F851, size: 0x8, addend: 0x0, symName: __ZNSt3__112__destroy_atB8ne200100IN8facebook5react18ShadowViewMutationELi0EEEvPT_, symObjAddr: 0x44C, symBinAddr: 0x24404, symSize: 0x48 }
  - { offset: 0x341855, size: 0x8, addend: 0x0, symName: __ZNK24RNSScreenRemovalListener15pullTransactionEixRKN8facebook5react20TransactionTelemetryENSt3__16vectorINS1_18ShadowViewMutationENS5_9allocatorIS7_EEEE, symObjAddr: 0x0, symBinAddr: 0x2402C, symSize: 0x24C }
  - { offset: 0x3420BC, size: 0x8, addend: 0x0, symName: __ZNSt3__110__function12__value_funcIFNS_6chrono10time_pointINS2_12steady_clockENS2_8durationIxNS_5ratioILl1ELl1000000000EEEEEEEvEEC2B8ne200100EOSB_, symObjAddr: 0x368, symBinAddr: 0x24330, symSize: 0x64 }
  - { offset: 0x34210B, size: 0x8, addend: 0x0, symName: __ZNSt3__16vectorIN8facebook5react18ShadowViewMutationENS_9allocatorIS3_EEE16__destroy_vectorclB8ne200100Ev, symObjAddr: 0x3DC, symBinAddr: 0x24394, symSize: 0x70 }
  - { offset: 0x34225C, size: 0x8, addend: 0x0, symName: __ZNK24RNSScreenRemovalListener29shouldOverridePullTransactionEv, symObjAddr: 0x24C, symBinAddr: 0x24278, symSize: 0x8 }
  - { offset: 0x342312, size: 0x8, addend: 0x0, symName: __ZN24RNSScreenRemovalListenerD1Ev, symObjAddr: 0x254, symBinAddr: 0x24280, symSize: 0x58 }
  - { offset: 0x3423FD, size: 0x8, addend: 0x0, symName: __ZN24RNSScreenRemovalListenerD0Ev, symObjAddr: 0x2AC, symBinAddr: 0x242D8, symSize: 0x58 }
  - { offset: 0x3447D9, size: 0x8, addend: 0x0, symName: __ZNK8facebook5react19RNSScreenShadowNode22getContentOriginOffsetEb, symObjAddr: 0x0, symBinAddr: 0x2444C, symSize: 0x10 }
  - { offset: 0x3447FD, size: 0x8, addend: 0x0, symName: __ZN8facebook5react22RNSScreenComponentNameE, symObjAddr: 0x4DC, symBinAddr: 0x4C4F6, symSize: 0x0 }
  - { offset: 0x3461AB, size: 0x8, addend: 0x0, symName: __ZN8facebook5react22RNSScreenComponentNameE, symObjAddr: 0x4DC, symBinAddr: 0x4C4F6, symSize: 0x0 }
  - { offset: 0x346CE4, size: 0x8, addend: 0x0, symName: __ZN8facebook5react22RNSScreenComponentNameE, symObjAddr: 0x4DC, symBinAddr: 0x4C4F6, symSize: 0x0 }
  - { offset: 0x346DD7, size: 0x8, addend: 0x0, symName: __ZN8facebook5react21findHeaderConfigChildERKNS0_24YogaLayoutableShadowNodeE, symObjAddr: 0x10, symBinAddr: 0x2445C, symSize: 0x7C }
  - { offset: 0x3600EF, size: 0x8, addend: 0x0, symName: __ZNK8facebook5react19RNSScreenShadowNode22getContentOriginOffsetEb, symObjAddr: 0x0, symBinAddr: 0x2444C, symSize: 0x10 }
  - { offset: 0x360131, size: 0x8, addend: 0x0, symName: __ZNK8facebook5react19RNSScreenShadowNode22getContentOriginOffsetEb, symObjAddr: 0x0, symBinAddr: 0x2444C, symSize: 0x10 }
  - { offset: 0x36014E, size: 0x8, addend: 0x0, symName: __ZNK8facebook5react19RNSScreenShadowNode22getContentOriginOffsetEb, symObjAddr: 0x0, symBinAddr: 0x2444C, symSize: 0x10 }
  - { offset: 0x360210, size: 0x8, addend: 0x0, symName: __ZN8facebook5react19RNSScreenShadowNode11appendChildERKNSt3__110shared_ptrIKNS0_10ShadowNodeEEE, symObjAddr: 0x8C, symBinAddr: 0x244D8, symSize: 0x4 }
  - { offset: 0x360245, size: 0x8, addend: 0x0, symName: __ZN8facebook5react19RNSScreenShadowNode6layoutENS0_13LayoutContextE, symObjAddr: 0x90, symBinAddr: 0x244DC, symSize: 0x30 }
  - { offset: 0x3605FC, size: 0x8, addend: 0x0, symName: __ZN8facebook5react19RNSScreenShadowNodeD1Ev, symObjAddr: 0xC0, symBinAddr: 0x2450C, symSize: 0x70 }
  - { offset: 0x360D1A, size: 0x8, addend: 0x0, symName: __ZN8facebook5react19RNSScreenShadowNodeD0Ev, symObjAddr: 0x130, symBinAddr: 0x2457C, symSize: 0x74 }
  - { offset: 0x363967, size: 0x8, addend: 0x0, symName: __ZN8facebook5react17HostPlatformColorL14UndefinedColorE, symObjAddr: 0x1AA918, symBinAddr: 0x7D840, symSize: 0x0 }
  - { offset: 0x366D67, size: 0x8, addend: 0x0, symName: __ZN8facebook5react38concreteComponentDescriptorConstructorINS0_27ConcreteComponentDescriptorINS0_22ConcreteViewShadowNodeIXadL_ZNS0_27RNSScreenStackComponentNameEEENS0_19RNSScreenStackPropsENS0_26RNSScreenStackEventEmitterENS0_9StateDataEEEEEEENSt3__110unique_ptrIKNS0_19ComponentDescriptorENS9_14default_deleteISC_EEEERKNS0_29ComponentDescriptorParametersE, symObjAddr: 0x5B54, symBinAddr: 0x29244, symSize: 0x34 }
  - { offset: 0x3850F5, size: 0x8, addend: 0x0, symName: __ZNSt3__115allocate_sharedB8ne200100IKN8facebook5react19RNSScreenStackPropsENS_9allocatorIS3_EEJELi0EEENS_10shared_ptrIT_EERKT0_DpOT1_, symObjAddr: 0x4CC4, symBinAddr: 0x29108, symSize: 0x48 }
  - { offset: 0x38673B, size: 0x8, addend: 0x0, symName: __ZNSt3__111make_uniqueB8ne200100IKN8facebook5react27ConcreteComponentDescriptorINS2_22ConcreteViewShadowNodeIXadL_ZNS2_27RNSScreenStackComponentNameEEENS2_19RNSScreenStackPropsENS2_26RNSScreenStackEventEmitterENS2_9StateDataEEEEEJRKNS2_29ComponentDescriptorParametersEELi0EEENS_10unique_ptrIT_NS_14default_deleteISF_EEEEDpOT0_, symObjAddr: 0x5B88, symBinAddr: 0x29278, symSize: 0xD4 }
  - { offset: 0x3870C9, size: 0x8, addend: 0x0, symName: __ZNSt3__115allocate_sharedB8ne200100IN8facebook5react22ConcreteViewShadowNodeIXadL_ZNS2_27RNSScreenStackComponentNameEEENS2_19RNSScreenStackPropsENS2_26RNSScreenStackEventEmitterENS2_9StateDataEEENS_9allocatorIS7_EEJRKNS2_18ShadowNodeFragmentERKNS_10shared_ptrIKNS2_16ShadowNodeFamilyEEENS2_16ShadowNodeTraitsEELi0EEENSD_IT_EERKT0_DpOT1_, symObjAddr: 0x66A0, symBinAddr: 0x29A88, symSize: 0x70 }
  - { offset: 0x387405, size: 0x8, addend: 0x0, symName: __ZNSt3__115allocate_sharedB8ne200100IN8facebook5react22ConcreteViewShadowNodeIXadL_ZNS2_27RNSScreenStackComponentNameEEENS2_19RNSScreenStackPropsENS2_26RNSScreenStackEventEmitterENS2_9StateDataEEENS_9allocatorIS7_EEJRKNS2_10ShadowNodeERKNS2_18ShadowNodeFragmentEELi0EEENS_10shared_ptrIT_EERKT0_DpOT1_, symObjAddr: 0x6C5C, symBinAddr: 0x29CFC, symSize: 0x60 }
  - { offset: 0x387B9A, size: 0x8, addend: 0x0, symName: __ZNSt3__115allocate_sharedB8ne200100IKN8facebook5react26RNSScreenStackEventEmitterENS_9allocatorIS3_EEJNS_10shared_ptrINS2_11EventTargetEEERKNS_8weak_ptrIKNS2_15EventDispatcherEEEELi0EEENS7_IT_EERKT0_DpOT1_, symObjAddr: 0x7160, symBinAddr: 0x29FC0, symSize: 0x60 }
  - { offset: 0x387E5E, size: 0x8, addend: 0x0, symName: __ZNSt3__115allocate_sharedB8ne200100IN8facebook5react16ShadowNodeFamilyENS_9allocatorIS3_EEJRKNS2_24ShadowNodeFamilyFragmentERNS_10shared_ptrIKNS2_26RNSScreenStackEventEmitterEEERKNS_8weak_ptrIKNS2_15EventDispatcherEEERKNS2_27ConcreteComponentDescriptorINS2_22ConcreteViewShadowNodeIXadL_ZNS2_27RNSScreenStackComponentNameEEENS2_19RNSScreenStackPropsESA_NS2_9StateDataEEEEEELi0EEENS9_IT_EERKT0_DpOT1_, symObjAddr: 0x782C, symBinAddr: 0x2A260, symSize: 0x78 }
  - { offset: 0x388C25, size: 0x8, addend: 0x0, symName: __ZNSt3__115allocate_sharedB8ne200100IN8facebook5react19RNSScreenStackPropsENS_9allocatorIS3_EEJRKNS2_18PropsParserContextERKS3_RKNS2_8RawPropsEELi0EEENS_10shared_ptrIT_EERKT0_DpOT1_, symObjAddr: 0x6E6C, symBinAddr: 0x29EB4, symSize: 0x70 }
  - { offset: 0x3898B4, size: 0x8, addend: 0x0, symName: __ZNSt3__112construct_atB8ne200100IN8facebook5react26RNSScreenStackEventEmitterEJNS_10shared_ptrINS2_11EventTargetEEERKNS_8weak_ptrIKNS2_15EventDispatcherEEEEPS3_EEPT_SF_DpOT0_, symObjAddr: 0x7254, symBinAddr: 0x2A0B4, symSize: 0x140 }
  - { offset: 0x38A6F3, size: 0x8, addend: 0x0, symName: __ZNSt3__112construct_atB8ne200100IN8facebook5react16ShadowNodeFamilyEJRKNS2_24ShadowNodeFamilyFragmentERNS_10shared_ptrIKNS2_26RNSScreenStackEventEmitterEEERKNS_8weak_ptrIKNS2_15EventDispatcherEEERKNS2_27ConcreteComponentDescriptorINS2_22ConcreteViewShadowNodeIXadL_ZNS2_27RNSScreenStackComponentNameEEENS2_19RNSScreenStackPropsES8_NS2_9StateDataEEEEEEPS3_EEPT_SS_DpOT0_, symObjAddr: 0x7934, symBinAddr: 0x2A324, symSize: 0xDC }
  - { offset: 0x38C514, size: 0x8, addend: 0x0, symName: '-[RNSScreenStackView initWithFrame:]', symObjAddr: 0x860, symBinAddr: 0x24E50, symSize: 0xF4 }
  - { offset: 0x38C540, size: 0x8, addend: 0x0, symName: '__ZZ36-[RNSScreenStackView initWithFrame:]E12defaultProps', symObjAddr: 0x1AA930, symBinAddr: 0x7D858, symSize: 0x0 }
  - { offset: 0x38FFDE, size: 0x8, addend: 0x0, symName: __ZN8facebook5react18ConcreteShadowNodeIXadL_ZNS0_27RNSScreenStackComponentNameEEENS0_24YogaLayoutableShadowNodeENS0_19RNSScreenStackPropsENS0_26RNSScreenStackEventEmitterENS0_9StateDataEE18defaultSharedPropsEv, symObjAddr: 0x6D78, symBinAddr: 0x29DC0, symSize: 0x9C }
  - { offset: 0x38FFFE, size: 0x8, addend: 0x0, symName: __ZZN8facebook5react18ConcreteShadowNodeIXadL_ZNS0_27RNSScreenStackComponentNameEEENS0_24YogaLayoutableShadowNodeENS0_19RNSScreenStackPropsENS0_26RNSScreenStackEventEmitterENS0_9StateDataEE18defaultSharedPropsEvE18defaultSharedProps, symObjAddr: 0xA248, symBinAddr: 0x7D2C0, symSize: 0x0 }
  - { offset: 0x390D68, size: 0x8, addend: 0x0, symName: '-[RNSNavigationController viewDidLoad]', symObjAddr: 0x0, symBinAddr: 0x245F0, symSize: 0x7C }
  - { offset: 0x390D99, size: 0x8, addend: 0x0, symName: '-[RNSNavigationController childViewControllerForStatusBarStyle]', symObjAddr: 0x7C, symBinAddr: 0x2466C, symSize: 0x4 }
  - { offset: 0x390DCC, size: 0x8, addend: 0x0, symName: '-[RNSNavigationController preferredStatusBarUpdateAnimation]', symObjAddr: 0x80, symBinAddr: 0x24670, symSize: 0x44 }
  - { offset: 0x390E01, size: 0x8, addend: 0x0, symName: '-[RNSNavigationController childViewControllerForStatusBarHidden]', symObjAddr: 0xC4, symBinAddr: 0x246B4, symSize: 0x4 }
  - { offset: 0x390E35, size: 0x8, addend: 0x0, symName: '-[RNSNavigationController viewDidLayoutSubviews]', symObjAddr: 0xC8, symBinAddr: 0x246B8, symSize: 0x18C }
  - { offset: 0x390E9C, size: 0x8, addend: 0x0, symName: '-[RNSNavigationController supportedInterfaceOrientations]', symObjAddr: 0x254, symBinAddr: 0x24844, symSize: 0x44 }
  - { offset: 0x390ED0, size: 0x8, addend: 0x0, symName: '-[RNSNavigationController evaluateOrientation]', symObjAddr: 0x298, symBinAddr: 0x24888, symSize: 0x84 }
  - { offset: 0x390F24, size: 0x8, addend: 0x0, symName: '-[RNSNavigationController childViewControllerForHomeIndicatorAutoHidden]', symObjAddr: 0x31C, symBinAddr: 0x2490C, symSize: 0x4 }
  - { offset: 0x390F58, size: 0x8, addend: 0x0, symName: '-[RNSNavigationController maybeUpdateHeaderLayoutInfoInShadowTree:]', symObjAddr: 0x320, symBinAddr: 0x24910, symSize: 0x104 }
  - { offset: 0x390FA8, size: 0x8, addend: 0x0, symName: '-[RNSNavigationController willMoveToParentViewController:]', symObjAddr: 0x424, symBinAddr: 0x24A14, symSize: 0xCC }
  - { offset: 0x391007, size: 0x8, addend: 0x0, symName: '-[RNSNavigationController didMoveToParentViewController:]', symObjAddr: 0x4F0, symBinAddr: 0x24AE0, symSize: 0x8C }
  - { offset: 0x391061, size: 0x8, addend: 0x0, symName: '-[RNSNavigationController onRepeatedTabSelectionOfTabScreenController:]', symObjAddr: 0x57C, symBinAddr: 0x24B6C, symSize: 0x170 }
  - { offset: 0x3910BB, size: 0x8, addend: 0x0, symName: '-[RNSNavigationController navigationBar:shouldPopItem:]', symObjAddr: 0x6EC, symBinAddr: 0x24CDC, symSize: 0xB4 }
  - { offset: 0x39112A, size: 0x8, addend: 0x0, symName: '-[RNSNavigationController navigationBar:didPopItem:]', symObjAddr: 0x7A0, symBinAddr: 0x24D90, symSize: 0x8C }
  - { offset: 0x391192, size: 0x8, addend: 0x0, symName: '+[RNSScreenStackView load]', symObjAddr: 0x82C, symBinAddr: 0x24E1C, symSize: 0x34 }
  - { offset: 0x3912D3, size: 0x8, addend: 0x0, symName: __ZNSt3__110shared_ptrIKN8facebook5react19RNSScreenStackPropsEED1B8ne200100Ev, symObjAddr: 0x954, symBinAddr: 0x24F44, symSize: 0x4 }
  - { offset: 0x3912FF, size: 0x8, addend: 0x0, symName: __ZNSt3__110shared_ptrIKN8facebook5react19RNSScreenStackPropsEED1B8ne200100Ev, symObjAddr: 0x954, symBinAddr: 0x24F44, symSize: 0x4 }
  - { offset: 0x39149D, size: 0x8, addend: 0x0, symName: '-[RNSScreenStackView initWithManager:]', symObjAddr: 0x9D0, symBinAddr: 0x24F48, symSize: 0xA4 }
  - { offset: 0x3914E4, size: 0x8, addend: 0x0, symName: '-[RNSScreenStackView initCommonProps]', symObjAddr: 0xA74, symBinAddr: 0x24FEC, symSize: 0x134 }
  - { offset: 0x391516, size: 0x8, addend: 0x0, symName: '-[RNSScreenStackView shouldCancelDismissFromView:toView:]', symObjAddr: 0xBA8, symBinAddr: 0x25120, symSize: 0xD8 }
  - { offset: 0x3916B8, size: 0x8, addend: 0x0, symName: '-[RNSScreenStackView emitOnFinishTransitioningEvent]', symObjAddr: 0xC80, symBinAddr: 0x251F8, symSize: 0xCC }
  - { offset: 0x3919AA, size: 0x8, addend: 0x0, symName: '-[RNSScreenStackView navigationController:willShowViewController:animated:]', symObjAddr: 0xD4C, symBinAddr: 0x252C4, symSize: 0xDC }
  - { offset: 0x391A18, size: 0x8, addend: 0x0, symName: '-[RNSScreenStackView presentationControllerDidDismiss:]', symObjAddr: 0xE28, symBinAddr: 0x253A0, symSize: 0xD8 }
  - { offset: 0x391A5B, size: 0x8, addend: 0x0, symName: '-[RNSScreenStackView reactSubviews]', symObjAddr: 0xF00, symBinAddr: 0x25478, symSize: 0x10 }
  - { offset: 0x391A91, size: 0x8, addend: 0x0, symName: '-[RNSScreenStackView didMoveToWindow]', symObjAddr: 0xF10, symBinAddr: 0x25488, symSize: 0x48 }
  - { offset: 0x391AC3, size: 0x8, addend: 0x0, symName: '-[RNSScreenStackView maybeAddToParentAndUpdateContainer]', symObjAddr: 0xF58, symBinAddr: 0x254D0, symSize: 0x84 }
  - { offset: 0x391B02, size: 0x8, addend: 0x0, symName: '-[RNSScreenStackView reactAddControllerToClosestParent:]', symObjAddr: 0xFDC, symBinAddr: 0x25554, symSize: 0x190 }
  - { offset: 0x391B5D, size: 0x8, addend: 0x0, symName: '+[RNSScreenStackView findTopMostPresentedViewControllerFromViewController:]', symObjAddr: 0x116C, symBinAddr: 0x256E4, symSize: 0x80 }
  - { offset: 0x391BB1, size: 0x8, addend: 0x0, symName: '-[RNSScreenStackView findReactRootViewController]', symObjAddr: 0x11EC, symBinAddr: 0x25764, symSize: 0x88 }
  - { offset: 0x391BF8, size: 0x8, addend: 0x0, symName: '-[RNSScreenStackView lastFromPresentedViewControllerChainStartingFrom:]', symObjAddr: 0x1274, symBinAddr: 0x257EC, symSize: 0x98 }
  - { offset: 0x391C5D, size: 0x8, addend: 0x0, symName: '-[RNSScreenStackView setModalViewControllers:]', symObjAddr: 0x130C, symBinAddr: 0x25884, symSize: 0x58C }
  - { offset: 0x391DC1, size: 0x8, addend: 0x0, symName: ___Block_byref_object_copy_, symObjAddr: 0x1898, symBinAddr: 0x25E10, symSize: 0x10 }
  - { offset: 0x391DE6, size: 0x8, addend: 0x0, symName: ___Block_byref_object_dispose_, symObjAddr: 0x18A8, symBinAddr: 0x25E20, symSize: 0x8 }
  - { offset: 0x391E05, size: 0x8, addend: 0x0, symName: '___46-[RNSScreenStackView setModalViewControllers:]_block_invoke', symObjAddr: 0x18B0, symBinAddr: 0x25E28, symSize: 0xC0 }
  - { offset: 0x391E43, size: 0x8, addend: 0x0, symName: ___copy_helper_block_ea8_32w, symObjAddr: 0x1970, symBinAddr: 0x25EE8, symSize: 0xC }
  - { offset: 0x391E6C, size: 0x8, addend: 0x0, symName: ___destroy_helper_block_ea8_32w, symObjAddr: 0x197C, symBinAddr: 0x25EF4, symSize: 0x8 }
  - { offset: 0x391E8B, size: 0x8, addend: 0x0, symName: '___46-[RNSScreenStackView setModalViewControllers:]_block_invoke.50', symObjAddr: 0x1984, symBinAddr: 0x25EFC, symSize: 0x2FC }
  - { offset: 0x391FB2, size: 0x8, addend: 0x0, symName: '___46-[RNSScreenStackView setModalViewControllers:]_block_invoke_2', symObjAddr: 0x1C80, symBinAddr: 0x261F8, symSize: 0x8C }
  - { offset: 0x39202F, size: 0x8, addend: 0x0, symName: ___copy_helper_block_ea8_32s40b48w, symObjAddr: 0x1D0C, symBinAddr: 0x26284, symSize: 0x40 }
  - { offset: 0x392058, size: 0x8, addend: 0x0, symName: ___destroy_helper_block_ea8_32s40s48w, symObjAddr: 0x1D4C, symBinAddr: 0x262C4, symSize: 0x30 }
  - { offset: 0x392077, size: 0x8, addend: 0x0, symName: ___copy_helper_block_ea8_32s40s48b56r64w, symObjAddr: 0x1D7C, symBinAddr: 0x262F4, symSize: 0x58 }
  - { offset: 0x3920A0, size: 0x8, addend: 0x0, symName: ___destroy_helper_block_ea8_32s40s48s56r64w, symObjAddr: 0x1DD4, symBinAddr: 0x2634C, symSize: 0x44 }
  - { offset: 0x3920BF, size: 0x8, addend: 0x0, symName: '___46-[RNSScreenStackView setModalViewControllers:]_block_invoke.92', symObjAddr: 0x1E18, symBinAddr: 0x26390, symSize: 0xC }
  - { offset: 0x392116, size: 0x8, addend: 0x0, symName: ___copy_helper_block_ea8_32b, symObjAddr: 0x1E24, symBinAddr: 0x2639C, symSize: 0x10 }
  - { offset: 0x39213F, size: 0x8, addend: 0x0, symName: '-[RNSScreenStackView setPushViewControllers:]', symObjAddr: 0x1E3C, symBinAddr: 0x263AC, symSize: 0x374 }
  - { offset: 0x39220D, size: 0x8, addend: 0x0, symName: '___45-[RNSScreenStackView setPushViewControllers:]_block_invoke', symObjAddr: 0x21B0, symBinAddr: 0x26720, symSize: 0x4 }
  - { offset: 0x392243, size: 0x8, addend: 0x0, symName: '___45-[RNSScreenStackView setPushViewControllers:]_block_invoke_2', symObjAddr: 0x21B4, symBinAddr: 0x26724, symSize: 0x58 }
  - { offset: 0x3922A3, size: 0x8, addend: 0x0, symName: ___copy_helper_block_ea8_32s40w, symObjAddr: 0x220C, symBinAddr: 0x2677C, symSize: 0x30 }
  - { offset: 0x3922CC, size: 0x8, addend: 0x0, symName: ___destroy_helper_block_ea8_32s40w, symObjAddr: 0x223C, symBinAddr: 0x267AC, symSize: 0x28 }
  - { offset: 0x3922EB, size: 0x8, addend: 0x0, symName: '-[RNSScreenStackView updateContainer]', symObjAddr: 0x2264, symBinAddr: 0x267D4, symSize: 0x254 }
  - { offset: 0x392357, size: 0x8, addend: 0x0, symName: '-[RNSScreenStackView layoutSubviews]', symObjAddr: 0x24B8, symBinAddr: 0x26A28, symSize: 0x310 }
  - { offset: 0x3923EC, size: 0x8, addend: 0x0, symName: '-[RNSScreenStackView dismissOnReload]', symObjAddr: 0x27C8, symBinAddr: 0x26D38, symSize: 0x4 }
  - { offset: 0x39241A, size: 0x8, addend: 0x0, symName: '-[RNSScreenStackView navigationController:animationControllerForOperation:fromViewController:toViewController:]', symObjAddr: 0x27CC, symBinAddr: 0x26D3C, symSize: 0x18C }
  - { offset: 0x3924B6, size: 0x8, addend: 0x0, symName: '-[RNSScreenStackView cancelTouchesInParent]', symObjAddr: 0x2958, symBinAddr: 0x26EC8, symSize: 0x48 }
  - { offset: 0x3924E8, size: 0x8, addend: 0x0, symName: '-[RNSScreenStackView gestureRecognizerShouldBegin:]', symObjAddr: 0x29A0, symBinAddr: 0x26F10, symSize: 0x1F0 }
  - { offset: 0x39257F, size: 0x8, addend: 0x0, symName: '-[RNSScreenStackView setupGestureHandlers]', symObjAddr: 0x2B90, symBinAddr: 0x27100, symSize: 0x118 }
  - { offset: 0x3925E4, size: 0x8, addend: 0x0, symName: '-[RNSScreenStackView handleSwipe:]', symObjAddr: 0x2CA8, symBinAddr: 0x27218, symSize: 0x310 }
  - { offset: 0x3926DB, size: 0x8, addend: 0x0, symName: '-[RNSScreenStackView navigationController:interactionControllerForAnimationController:]', symObjAddr: 0x2FB8, symBinAddr: 0x27528, symSize: 0x1E0 }
  - { offset: 0x392844, size: 0x8, addend: 0x0, symName: '___87-[RNSScreenStackView navigationController:interactionControllerForAnimationController:]_block_invoke', symObjAddr: 0x3198, symBinAddr: 0x27708, symSize: 0x8C }
  - { offset: 0x3928FB, size: 0x8, addend: 0x0, symName: ___copy_helper_block_ea8_32s40s48s, symObjAddr: 0x3224, symBinAddr: 0x27794, symSize: 0x30 }
  - { offset: 0x392924, size: 0x8, addend: 0x0, symName: '-[RNSScreenStackView interactionControllerForDismissal:]', symObjAddr: 0x3284, symBinAddr: 0x277C4, symSize: 0x10 }
  - { offset: 0x392967, size: 0x8, addend: 0x0, symName: '-[RNSScreenStackView navigationController:didShowViewController:animated:]', symObjAddr: 0x3294, symBinAddr: 0x277D4, symSize: 0x68 }
  - { offset: 0x3929C0, size: 0x8, addend: 0x0, symName: '-[RNSScreenStackView markChildUpdated]', symObjAddr: 0x32FC, symBinAddr: 0x2783C, symSize: 0x4 }
  - { offset: 0x3929F1, size: 0x8, addend: 0x0, symName: '-[RNSScreenStackView didUpdateChildren]', symObjAddr: 0x3300, symBinAddr: 0x27840, symSize: 0x4 }
  - { offset: 0x392A1F, size: 0x8, addend: 0x0, symName: '-[RNSScreenStackView reactViewController]', symObjAddr: 0x3304, symBinAddr: 0x27844, symSize: 0x10 }
  - { offset: 0x392A55, size: 0x8, addend: 0x0, symName: '-[RNSScreenStackView isInGestureResponseDistance:topScreen:]', symObjAddr: 0x3314, symBinAddr: 0x27854, symSize: 0x258 }
  - { offset: 0x392B31, size: 0x8, addend: 0x0, symName: '-[RNSScreenStackView hitTest:withEvent:]', symObjAddr: 0x356C, symBinAddr: 0x27AAC, symSize: 0x160 }
  - { offset: 0x392BFC, size: 0x8, addend: 0x0, symName: '-[RNSScreenStackView isScrollViewPanGestureRecognizer:]', symObjAddr: 0x36CC, symBinAddr: 0x27C0C, symSize: 0xB4 }
  - { offset: 0x392C50, size: 0x8, addend: 0x0, symName: '-[RNSScreenStackView gestureRecognizer:shouldReceivePressOrTouchEvent:]', symObjAddr: 0x3780, symBinAddr: 0x27CC0, symSize: 0x264 }
  - { offset: 0x392CCD, size: 0x8, addend: 0x0, symName: '-[RNSScreenStackView gestureRecognizer:shouldReceivePress:]', symObjAddr: 0x39E4, symBinAddr: 0x27F24, symSize: 0x4 }
  - { offset: 0x392D20, size: 0x8, addend: 0x0, symName: '-[RNSScreenStackView gestureRecognizer:shouldReceiveTouch:]', symObjAddr: 0x39E8, symBinAddr: 0x27F28, symSize: 0x4 }
  - { offset: 0x392D73, size: 0x8, addend: 0x0, symName: '-[RNSScreenStackView isTransitionInProgress]', symObjAddr: 0x39EC, symBinAddr: 0x27F2C, symSize: 0x3C }
  - { offset: 0x392DA9, size: 0x8, addend: 0x0, symName: '-[RNSScreenStackView gestureRecognizer:shouldRecognizeSimultaneouslyWithGestureRecognizer:]', symObjAddr: 0x3A28, symBinAddr: 0x27F68, symSize: 0x138 }
  - { offset: 0x392E26, size: 0x8, addend: 0x0, symName: '-[RNSScreenStackView gestureRecognizer:shouldBeRequiredToFailByGestureRecognizer:]', symObjAddr: 0x3B60, symBinAddr: 0x280A0, symSize: 0x8C }
  - { offset: 0x392E7E, size: 0x8, addend: 0x0, symName: '-[RNSScreenStackView insertReactSubview:atIndex:]', symObjAddr: 0x3BEC, symBinAddr: 0x2812C, symSize: 0xAC }
  - { offset: 0x392F0D, size: 0x8, addend: 0x0, symName: '-[RNSScreenStackView removeReactSubview:]', symObjAddr: 0x3C98, symBinAddr: 0x281D8, symSize: 0x60 }
  - { offset: 0x392F50, size: 0x8, addend: 0x0, symName: '-[RNSScreenStackView didUpdateReactSubviews]', symObjAddr: 0x3CF8, symBinAddr: 0x28238, symSize: 0x58 }
  - { offset: 0x392FAC, size: 0x8, addend: 0x0, symName: '___44-[RNSScreenStackView didUpdateReactSubviews]_block_invoke', symObjAddr: 0x3D50, symBinAddr: 0x28290, symSize: 0x8 }
  - { offset: 0x392FEE, size: 0x8, addend: 0x0, symName: '-[RNSScreenStackView startScreenTransition]', symObjAddr: 0x3D60, symBinAddr: 0x28298, symSize: 0x70 }
  - { offset: 0x393020, size: 0x8, addend: 0x0, symName: '-[RNSScreenStackView updateScreenTransition:]', symObjAddr: 0x3DD0, symBinAddr: 0x28308, symSize: 0x10 }
  - { offset: 0x393062, size: 0x8, addend: 0x0, symName: '-[RNSScreenStackView finishScreenTransition:]', symObjAddr: 0x3DE0, symBinAddr: 0x28318, symSize: 0x64 }
  - { offset: 0x3930A5, size: 0x8, addend: 0x0, symName: '-[RNSScreenStackView screenIds]', symObjAddr: 0x3E44, symBinAddr: 0x2837C, symSize: 0x16C }
  - { offset: 0x393104, size: 0x8, addend: 0x0, symName: '-[RNSScreenStackView mountChildComponentView:index:]', symObjAddr: 0x3FB0, symBinAddr: 0x284E8, symSize: 0xAC }
  - { offset: 0x393175, size: 0x8, addend: 0x0, symName: '-[RNSScreenStackView childScreenForTag:]', symObjAddr: 0x405C, symBinAddr: 0x28594, symSize: 0x13C }
  - { offset: 0x3931D4, size: 0x8, addend: 0x0, symName: '-[RNSScreenStackView unmountChildComponentView:index:]', symObjAddr: 0x4198, symBinAddr: 0x286D0, symSize: 0xA0 }
  - { offset: 0x39328C, size: 0x8, addend: 0x0, symName: '-[RNSScreenStackView mountingTransactionWillMount:withSurfaceTelemetry:]', symObjAddr: 0x4238, symBinAddr: 0x28770, symSize: 0xA4 }
  - { offset: 0x3933B7, size: 0x8, addend: 0x0, symName: __ZNSt3__16vectorIU8__strongP13RNSScreenViewNS_9allocatorIS3_EEE12emplace_backIJRU8__strongKS2_EEERS3_DpOT_, symObjAddr: 0x4970, symBinAddr: 0x28EA8, symSize: 0xF8 }
  - { offset: 0x39375F, size: 0x8, addend: 0x0, symName: '-[RNSScreenStackView mountingTransactionDidMount:withSurfaceTelemetry:]', symObjAddr: 0x42DC, symBinAddr: 0x28814, symSize: 0x12C }
  - { offset: 0x39389F, size: 0x8, addend: 0x0, symName: '___71-[RNSScreenStackView mountingTransactionDidMount:withSurfaceTelemetry:]_block_invoke', symObjAddr: 0x4408, symBinAddr: 0x28940, symSize: 0x8 }
  - { offset: 0x3939A6, size: 0x8, addend: 0x0, symName: '___71-[RNSScreenStackView mountingTransactionDidMount:withSurfaceTelemetry:]_block_invoke_2', symObjAddr: 0x4410, symBinAddr: 0x28948, symSize: 0xA8 }
  - { offset: 0x393B16, size: 0x8, addend: 0x0, symName: '-[RNSScreenStackView prepareForRecycle]', symObjAddr: 0x44B8, symBinAddr: 0x289F0, symSize: 0x1DC }
  - { offset: 0x393BDA, size: 0x8, addend: 0x0, symName: '+[RNSScreenStackView componentDescriptorProvider]', symObjAddr: 0x4694, symBinAddr: 0x28BCC, symSize: 0x20 }
  - { offset: 0x393C0F, size: 0x8, addend: 0x0, symName: '+[RNSScreenStackView componentDescriptorProvider]', symObjAddr: 0x4694, symBinAddr: 0x28BCC, symSize: 0x20 }
  - { offset: 0x393C73, size: 0x8, addend: 0x0, symName: '-[RNSScreenStackView customAnimation]', symObjAddr: 0x46B4, symBinAddr: 0x28BEC, symSize: 0x10 }
  - { offset: 0x393CA9, size: 0x8, addend: 0x0, symName: '-[RNSScreenStackView setCustomAnimation:]', symObjAddr: 0x46C4, symBinAddr: 0x28BFC, symSize: 0x10 }
  - { offset: 0x393CE4, size: 0x8, addend: 0x0, symName: '-[RNSScreenStackView disableSwipeBack]', symObjAddr: 0x46D4, symBinAddr: 0x28C0C, symSize: 0x10 }
  - { offset: 0x393D1A, size: 0x8, addend: 0x0, symName: '-[RNSScreenStackView setDisableSwipeBack:]', symObjAddr: 0x46E4, symBinAddr: 0x28C1C, symSize: 0x10 }
  - { offset: 0x393D55, size: 0x8, addend: 0x0, symName: '-[RNSScreenStackView presentedModals]', symObjAddr: 0x46F4, symBinAddr: 0x28C2C, symSize: 0x10 }
  - { offset: 0x393D8A, size: 0x8, addend: 0x0, symName: '-[RNSScreenStackView setPresentedModals:]', symObjAddr: 0x4704, symBinAddr: 0x28C3C, symSize: 0x14 }
  - { offset: 0x393DC9, size: 0x8, addend: 0x0, symName: '-[RNSScreenStackView updatingModals]', symObjAddr: 0x4718, symBinAddr: 0x28C50, symSize: 0x10 }
  - { offset: 0x393DFE, size: 0x8, addend: 0x0, symName: '-[RNSScreenStackView setUpdatingModals:]', symObjAddr: 0x4728, symBinAddr: 0x28C60, symSize: 0x10 }
  - { offset: 0x393E38, size: 0x8, addend: 0x0, symName: '-[RNSScreenStackView scheduleModalsUpdate]', symObjAddr: 0x4738, symBinAddr: 0x28C70, symSize: 0x10 }
  - { offset: 0x393E6D, size: 0x8, addend: 0x0, symName: '-[RNSScreenStackView setScheduleModalsUpdate:]', symObjAddr: 0x4748, symBinAddr: 0x28C80, symSize: 0x10 }
  - { offset: 0x393F28, size: 0x8, addend: 0x0, symName: '-[RNSScreenStackView .cxx_destruct]', symObjAddr: 0x4758, symBinAddr: 0x28C90, symSize: 0x9C }
  - { offset: 0x393FFF, size: 0x8, addend: 0x0, symName: __ZNSt3__16vectorIU8__strongP13RNSScreenViewNS_9allocatorIS3_EEE16__destroy_vectorclB8ne200100Ev, symObjAddr: 0x4C58, symBinAddr: 0x2909C, symSize: 0x6C }
  - { offset: 0x394190, size: 0x8, addend: 0x0, symName: '-[RNSScreenStackView .cxx_construct]', symObjAddr: 0x47F4, symBinAddr: 0x28D2C, symSize: 0x18 }
  - { offset: 0x394202, size: 0x8, addend: 0x0, symName: __Z17RNSScreenStackClsv, symObjAddr: 0x480C, symBinAddr: 0x28D44, symSize: 0xC }
  - { offset: 0x394221, size: 0x8, addend: 0x0, symName: '+[RNSScreenStackManager moduleName]', symObjAddr: 0x4818, symBinAddr: 0x28D50, symSize: 0xC }
  - { offset: 0x394253, size: 0x8, addend: 0x0, symName: '+[RNSScreenStackManager load]', symObjAddr: 0x4824, symBinAddr: 0x28D5C, symSize: 0x4 }
  - { offset: 0x394287, size: 0x8, addend: 0x0, symName: '+[RNSScreenStackManager load]', symObjAddr: 0x4824, symBinAddr: 0x28D5C, symSize: 0x4 }
  - { offset: 0x3942A9, size: 0x8, addend: 0x0, symName: '+[RNSScreenStackManager propConfig_onFinishTransitioning]', symObjAddr: 0x4828, symBinAddr: 0x28D60, symSize: 0xC }
  - { offset: 0x3942DB, size: 0x8, addend: 0x0, symName: '-[RNSScreenStackManager invalidate]', symObjAddr: 0x4834, symBinAddr: 0x28D6C, symSize: 0x128 }
  - { offset: 0x394325, size: 0x8, addend: 0x0, symName: '-[RNSScreenStackManager .cxx_destruct]', symObjAddr: 0x495C, symBinAddr: 0x28E94, symSize: 0x14 }
  - { offset: 0x394569, size: 0x8, addend: 0x0, symName: __ZNSt3__16vectorIU8__strongP13RNSScreenViewNS_9allocatorIS3_EEE26__swap_out_circular_bufferERNS_14__split_bufferIS3_RS5_EE, symObjAddr: 0x4A68, symBinAddr: 0x28FA0, symSize: 0xAC }
  - { offset: 0x3947A3, size: 0x8, addend: 0x0, symName: __ZNSt3__114__split_bufferIU8__strongP13RNSScreenViewRNS_9allocatorIS3_EEED2Ev, symObjAddr: 0x4C08, symBinAddr: 0x2904C, symSize: 0x50 }
  - { offset: 0x394CCD, size: 0x8, addend: 0x0, symName: __ZNSt3__120__shared_ptr_emplaceIKN8facebook5react19RNSScreenStackPropsENS_9allocatorIS3_EEEC2B8ne200100IJES6_Li0EEES6_DpOT_, symObjAddr: 0x4D0C, symBinAddr: 0x29150, symSize: 0x74 }
  - { offset: 0x396301, size: 0x8, addend: 0x0, symName: __ZNSt3__120__shared_ptr_emplaceIKN8facebook5react19RNSScreenStackPropsENS_9allocatorIS3_EEED1Ev, symObjAddr: 0x4D80, symBinAddr: 0x291C4, symSize: 0x14 }
  - { offset: 0x396325, size: 0x8, addend: 0x0, symName: __ZNSt3__120__shared_ptr_emplaceIKN8facebook5react19RNSScreenStackPropsENS_9allocatorIS3_EEED1Ev, symObjAddr: 0x4D80, symBinAddr: 0x291C4, symSize: 0x14 }
  - { offset: 0x39635B, size: 0x8, addend: 0x0, symName: __ZNSt3__120__shared_ptr_emplaceIKN8facebook5react19RNSScreenStackPropsENS_9allocatorIS3_EEED0Ev, symObjAddr: 0x4D94, symBinAddr: 0x291D8, symSize: 0x24 }
  - { offset: 0x39646F, size: 0x8, addend: 0x0, symName: __ZNSt3__120__shared_ptr_emplaceIKN8facebook5react19RNSScreenStackPropsENS_9allocatorIS3_EEE16__on_zero_sharedEv, symObjAddr: 0x4DB8, symBinAddr: 0x291FC, symSize: 0x14 }
  - { offset: 0x396498, size: 0x8, addend: 0x0, symName: __ZNSt3__120__shared_ptr_emplaceIKN8facebook5react19RNSScreenStackPropsENS_9allocatorIS3_EEE16__on_zero_sharedEv, symObjAddr: 0x4DB8, symBinAddr: 0x291FC, symSize: 0x14 }
  - { offset: 0x3969AE, size: 0x8, addend: 0x0, symName: __ZNSt3__120__shared_ptr_emplaceIKN8facebook5react19RNSScreenStackPropsENS_9allocatorIS3_EEE21__on_zero_shared_weakEv, symObjAddr: 0x4DCC, symBinAddr: 0x29210, symSize: 0x4 }
  - { offset: 0x3969E2, size: 0x8, addend: 0x0, symName: __ZNSt3__120__shared_ptr_emplaceIKN8facebook5react19RNSScreenStackPropsENS_9allocatorIS3_EEE21__on_zero_shared_weakEv, symObjAddr: 0x4DCC, symBinAddr: 0x29210, symSize: 0x4 }
  - { offset: 0x396A06, size: 0x8, addend: 0x0, symName: __ZNSt3__120__shared_ptr_emplaceIKN8facebook5react19RNSScreenStackPropsENS_9allocatorIS3_EEE21__on_zero_shared_weakEv, symObjAddr: 0x4DCC, symBinAddr: 0x29210, symSize: 0x4 }
  - { offset: 0x396A2B, size: 0x8, addend: 0x0, symName: __ZNSt3__120__shared_ptr_emplaceIKN8facebook5react19RNSScreenStackPropsENS_9allocatorIS3_EEE21__on_zero_shared_weakEv, symObjAddr: 0x4DCC, symBinAddr: 0x29210, symSize: 0x4 }
  - { offset: 0x396A63, size: 0x8, addend: 0x0, symName: __ZNSt3__120__shared_ptr_emplaceIKN8facebook5react19RNSScreenStackPropsENS_9allocatorIS3_EEE21__on_zero_shared_weakEv, symObjAddr: 0x4DCC, symBinAddr: 0x29210, symSize: 0x4 }
  - { offset: 0x397BF8, size: 0x8, addend: 0x0, symName: __ZN8facebook5react19RNSScreenStackPropsD1Ev, symObjAddr: 0x521C, symBinAddr: 0x29214, symSize: 0x10 }
  - { offset: 0x397C1C, size: 0x8, addend: 0x0, symName: __ZN8facebook5react19RNSScreenStackPropsD1Ev, symObjAddr: 0x521C, symBinAddr: 0x29214, symSize: 0x10 }
  - { offset: 0x397C59, size: 0x8, addend: 0x0, symName: __ZN8facebook5react19RNSScreenStackPropsD0Ev, symObjAddr: 0x522C, symBinAddr: 0x29224, symSize: 0x20 }
  - { offset: 0x39AFE0, size: 0x8, addend: 0x0, symName: __ZN8facebook5react14RawPropsParser7prepareINS0_19RNSScreenStackPropsEEEvv, symObjAddr: 0x5CAC, symBinAddr: 0x2934C, symSize: 0x1C4 }
  - { offset: 0x39C0ED, size: 0x8, addend: 0x0, symName: __ZN8facebook5react27ConcreteComponentDescriptorINS0_22ConcreteViewShadowNodeIXadL_ZNS0_27RNSScreenStackComponentNameEEENS0_19RNSScreenStackPropsENS0_26RNSScreenStackEventEmitterENS0_9StateDataEEEED1Ev, symObjAddr: 0x5E70, symBinAddr: 0x29510, symSize: 0x4 }
  - { offset: 0x39C111, size: 0x8, addend: 0x0, symName: __ZN8facebook5react27ConcreteComponentDescriptorINS0_22ConcreteViewShadowNodeIXadL_ZNS0_27RNSScreenStackComponentNameEEENS0_19RNSScreenStackPropsENS0_26RNSScreenStackEventEmitterENS0_9StateDataEEEED1Ev, symObjAddr: 0x5E70, symBinAddr: 0x29510, symSize: 0x4 }
  - { offset: 0x39C130, size: 0x8, addend: 0x0, symName: __ZN8facebook5react27ConcreteComponentDescriptorINS0_22ConcreteViewShadowNodeIXadL_ZNS0_27RNSScreenStackComponentNameEEENS0_19RNSScreenStackPropsENS0_26RNSScreenStackEventEmitterENS0_9StateDataEEEED1Ev, symObjAddr: 0x5E70, symBinAddr: 0x29510, symSize: 0x4 }
  - { offset: 0x39C40B, size: 0x8, addend: 0x0, symName: __ZN8facebook5react27ConcreteComponentDescriptorINS0_22ConcreteViewShadowNodeIXadL_ZNS0_27RNSScreenStackComponentNameEEENS0_19RNSScreenStackPropsENS0_26RNSScreenStackEventEmitterENS0_9StateDataEEEED0Ev, symObjAddr: 0x5E74, symBinAddr: 0x29514, symSize: 0x14 }
  - { offset: 0x39C48C, size: 0x8, addend: 0x0, symName: __ZNK8facebook5react27ConcreteComponentDescriptorINS0_22ConcreteViewShadowNodeIXadL_ZNS0_27RNSScreenStackComponentNameEEENS0_19RNSScreenStackPropsENS0_26RNSScreenStackEventEmitterENS0_9StateDataEEEE18getComponentHandleEv, symObjAddr: 0x5E88, symBinAddr: 0x29528, symSize: 0xC }
  - { offset: 0x39C4B2, size: 0x8, addend: 0x0, symName: __ZNK8facebook5react27ConcreteComponentDescriptorINS0_22ConcreteViewShadowNodeIXadL_ZNS0_27RNSScreenStackComponentNameEEENS0_19RNSScreenStackPropsENS0_26RNSScreenStackEventEmitterENS0_9StateDataEEEE16getComponentNameEv, symObjAddr: 0x5E94, symBinAddr: 0x29534, symSize: 0xC }
  - { offset: 0x39C4D8, size: 0x8, addend: 0x0, symName: __ZNK8facebook5react27ConcreteComponentDescriptorINS0_22ConcreteViewShadowNodeIXadL_ZNS0_27RNSScreenStackComponentNameEEENS0_19RNSScreenStackPropsENS0_26RNSScreenStackEventEmitterENS0_9StateDataEEEE9getTraitsEv, symObjAddr: 0x5EA0, symBinAddr: 0x29540, symSize: 0x8 }
  - { offset: 0x39C5D9, size: 0x8, addend: 0x0, symName: __ZNK8facebook5react27ConcreteComponentDescriptorINS0_22ConcreteViewShadowNodeIXadL_ZNS0_27RNSScreenStackComponentNameEEENS0_19RNSScreenStackPropsENS0_26RNSScreenStackEventEmitterENS0_9StateDataEEEE16createShadowNodeERKNS0_18ShadowNodeFragmentERKNSt3__110shared_ptrIKNS0_16ShadowNodeFamilyEEE, symObjAddr: 0x5EA8, symBinAddr: 0x29548, symSize: 0x90 }
  - { offset: 0x39C87A, size: 0x8, addend: 0x0, symName: __ZNK8facebook5react27ConcreteComponentDescriptorINS0_22ConcreteViewShadowNodeIXadL_ZNS0_27RNSScreenStackComponentNameEEENS0_19RNSScreenStackPropsENS0_26RNSScreenStackEventEmitterENS0_9StateDataEEEE15cloneShadowNodeERKNS0_10ShadowNodeERKNS0_18ShadowNodeFragmentE, symObjAddr: 0x5F38, symBinAddr: 0x295D8, symSize: 0x104 }
  - { offset: 0x39CC21, size: 0x8, addend: 0x0, symName: __ZNK8facebook5react27ConcreteComponentDescriptorINS0_22ConcreteViewShadowNodeIXadL_ZNS0_27RNSScreenStackComponentNameEEENS0_19RNSScreenStackPropsENS0_26RNSScreenStackEventEmitterENS0_9StateDataEEEE11appendChildERKNSt3__110shared_ptrIKNS0_10ShadowNodeEEESE_, symObjAddr: 0x603C, symBinAddr: 0x296DC, symSize: 0x14 }
  - { offset: 0x39CC7D, size: 0x8, addend: 0x0, symName: __ZNK8facebook5react27ConcreteComponentDescriptorINS0_22ConcreteViewShadowNodeIXadL_ZNS0_27RNSScreenStackComponentNameEEENS0_19RNSScreenStackPropsENS0_26RNSScreenStackEventEmitterENS0_9StateDataEEEE11appendChildERKNSt3__110shared_ptrIKNS0_10ShadowNodeEEESE_, symObjAddr: 0x603C, symBinAddr: 0x296DC, symSize: 0x14 }
  - { offset: 0x39D557, size: 0x8, addend: 0x0, symName: __ZNK8facebook5react27ConcreteComponentDescriptorINS0_22ConcreteViewShadowNodeIXadL_ZNS0_27RNSScreenStackComponentNameEEENS0_19RNSScreenStackPropsENS0_26RNSScreenStackEventEmitterENS0_9StateDataEEEE10clonePropsERKNS0_18PropsParserContextERKNSt3__110shared_ptrIKNS0_5PropsEEENS0_8RawPropsE, symObjAddr: 0x6050, symBinAddr: 0x296F0, symSize: 0x21C }
  - { offset: 0x39E123, size: 0x8, addend: 0x0, symName: __ZN8facebook5react18ConcreteShadowNodeIXadL_ZNS0_27RNSScreenStackComponentNameEEENS0_24YogaLayoutableShadowNodeENS0_19RNSScreenStackPropsENS0_26RNSScreenStackEventEmitterENS0_9StateDataEE5PropsERKNS0_18PropsParserContextERKNS0_8RawPropsERKNSt3__110shared_ptrIKNS0_5PropsEEE, symObjAddr: 0x6E14, symBinAddr: 0x29E5C, symSize: 0x58 }
  - { offset: 0x39E393, size: 0x8, addend: 0x0, symName: __ZNK8facebook5react27ConcreteComponentDescriptorINS0_22ConcreteViewShadowNodeIXadL_ZNS0_27RNSScreenStackComponentNameEEENS0_19RNSScreenStackPropsENS0_26RNSScreenStackEventEmitterENS0_9StateDataEEEE18createInitialStateERKNSt3__110shared_ptrIKNS0_5PropsEEERKNS9_IKNS0_16ShadowNodeFamilyEEE, symObjAddr: 0x626C, symBinAddr: 0x2990C, symSize: 0x8 }
  - { offset: 0x39E3D9, size: 0x8, addend: 0x0, symName: __ZNK8facebook5react27ConcreteComponentDescriptorINS0_22ConcreteViewShadowNodeIXadL_ZNS0_27RNSScreenStackComponentNameEEENS0_19RNSScreenStackPropsENS0_26RNSScreenStackEventEmitterENS0_9StateDataEEEE18createInitialStateERKNSt3__110shared_ptrIKNS0_5PropsEEERKNS9_IKNS0_16ShadowNodeFamilyEEE, symObjAddr: 0x626C, symBinAddr: 0x2990C, symSize: 0x8 }
  - { offset: 0x39E3FE, size: 0x8, addend: 0x0, symName: __ZNK8facebook5react27ConcreteComponentDescriptorINS0_22ConcreteViewShadowNodeIXadL_ZNS0_27RNSScreenStackComponentNameEEENS0_19RNSScreenStackPropsENS0_26RNSScreenStackEventEmitterENS0_9StateDataEEEE18createInitialStateERKNSt3__110shared_ptrIKNS0_5PropsEEERKNS9_IKNS0_16ShadowNodeFamilyEEE, symObjAddr: 0x626C, symBinAddr: 0x2990C, symSize: 0x8 }
