---
triple:          'arm64-apple-darwin'
binary-path:     '/Users/uk-aplatts/Development/InjuryIQ/ios/DerivedData/Build/Intermediates.noindex/ArchiveIntermediates/InjuryIQ/IntermediateBuildFilesPath/UninstalledProducts/iphoneos/React_featureflags.framework/React_featureflags'
relocations:
  - { offset: 0x33, size: 0x8, addend: 0x0, symName: _React_featureflagsVersionString, symObjAddr: 0x0, symBinAddr: 0x6B18, symSize: 0x0 }
  - { offset: 0x67, size: 0x8, addend: 0x0, symName: _React_featureflagsVersionNumber, symObjAddr: 0x30, symBinAddr: 0x6B48, symSize: 0x0 }
  - { offset: 0xC5, size: 0x8, addend: 0x0, symName: __ZN8facebook5react9accessor_E, symObjAddr: 0x21BF0, symBinAddr: 0xC0E0, symSize: 0x0 }
  - { offset: 0x6C6E, size: 0x8, addend: 0x0, symName: __ZNSt3__110unique_ptrIN8facebook5react31ReactNativeFeatureFlagsAccessorENS_14default_deleteIS3_EEED1B8ne200100Ev, symObjAddr: 0x0, symBinAddr: 0x4000, symSize: 0x28 }
  - { offset: 0x6CC6, size: 0x8, addend: 0x0, symName: __ZNSt3__110unique_ptrIN8facebook5react31ReactNativeFeatureFlagsAccessorENS_14default_deleteIS3_EEE5resetB8ne200100EPS3_, symObjAddr: 0x6E8, symBinAddr: 0x46E8, symSize: 0x4C }
  - { offset: 0x6DE9, size: 0x8, addend: 0x0, symName: __ZN8facebook5react23ReactNativeFeatureFlags14commonTestFlagEv, symObjAddr: 0x28, symBinAddr: 0x4028, symSize: 0x14 }
  - { offset: 0x6E0C, size: 0x8, addend: 0x0, symName: __ZN8facebook5react23ReactNativeFeatureFlags11getAccessorEv, symObjAddr: 0x3C, symBinAddr: 0x403C, symSize: 0x60 }
  - { offset: 0x6F00, size: 0x8, addend: 0x0, symName: __ZN8facebook5react23ReactNativeFeatureFlags25animatedShouldSignalBatchEv, symObjAddr: 0x9C, symBinAddr: 0x409C, symSize: 0x14 }
  - { offset: 0x6F23, size: 0x8, addend: 0x0, symName: __ZN8facebook5react23ReactNativeFeatureFlags24cxxNativeAnimatedEnabledEv, symObjAddr: 0xB0, symBinAddr: 0x40B0, symSize: 0x14 }
  - { offset: 0x6F46, size: 0x8, addend: 0x0, symName: __ZN8facebook5react23ReactNativeFeatureFlags29cxxNativeAnimatedRemoveJsSyncEv, symObjAddr: 0xC4, symBinAddr: 0x40C4, symSize: 0x14 }
  - { offset: 0x6F69, size: 0x8, addend: 0x0, symName: __ZN8facebook5react23ReactNativeFeatureFlags31disableMainQueueSyncDispatchIOSEv, symObjAddr: 0xD8, symBinAddr: 0x40D8, symSize: 0x14 }
  - { offset: 0x6F8C, size: 0x8, addend: 0x0, symName: __ZN8facebook5react23ReactNativeFeatureFlags33disableMountItemReorderingAndroidEv, symObjAddr: 0xEC, symBinAddr: 0x40EC, symSize: 0x14 }
  - { offset: 0x6FAF, size: 0x8, addend: 0x0, symName: __ZN8facebook5react23ReactNativeFeatureFlags36disableTextLayoutManagerCacheAndroidEv, symObjAddr: 0x100, symBinAddr: 0x4100, symSize: 0x14 }
  - { offset: 0x6FD2, size: 0x8, addend: 0x0, symName: __ZN8facebook5react23ReactNativeFeatureFlags24enableAccessibilityOrderEv, symObjAddr: 0x114, symBinAddr: 0x4114, symSize: 0x14 }
  - { offset: 0x6FF5, size: 0x8, addend: 0x0, symName: __ZN8facebook5react23ReactNativeFeatureFlags41enableAccumulatedUpdatesInRawPropsAndroidEv, symObjAddr: 0x128, symBinAddr: 0x4128, symSize: 0x14 }
  - { offset: 0x7018, size: 0x8, addend: 0x0, symName: __ZN8facebook5react23ReactNativeFeatureFlags41enableAndroidTextMeasurementOptimizationsEv, symObjAddr: 0x13C, symBinAddr: 0x413C, symSize: 0x14 }
  - { offset: 0x703B, size: 0x8, addend: 0x0, symName: __ZN8facebook5react23ReactNativeFeatureFlags28enableBridgelessArchitectureEv, symObjAddr: 0x150, symBinAddr: 0x4150, symSize: 0x14 }
  - { offset: 0x705E, size: 0x8, addend: 0x0, symName: __ZN8facebook5react23ReactNativeFeatureFlags28enableCppPropsIteratorSetterEv, symObjAddr: 0x164, symBinAddr: 0x4164, symSize: 0x14 }
  - { offset: 0x7081, size: 0x8, addend: 0x0, symName: __ZN8facebook5react23ReactNativeFeatureFlags47enableCustomFocusSearchOnClippedElementsAndroidEv, symObjAddr: 0x178, symBinAddr: 0x4178, symSize: 0x14 }
  - { offset: 0x70A4, size: 0x8, addend: 0x0, symName: __ZN8facebook5react23ReactNativeFeatureFlags36enableDestroyShadowTreeRevisionAsyncEv, symObjAddr: 0x18C, symBinAddr: 0x418C, symSize: 0x14 }
  - { offset: 0x70C7, size: 0x8, addend: 0x0, symName: __ZN8facebook5react23ReactNativeFeatureFlags33enableDoubleMeasurementFixAndroidEv, symObjAddr: 0x1A0, symBinAddr: 0x41A0, symSize: 0x14 }
  - { offset: 0x70EA, size: 0x8, addend: 0x0, symName: __ZN8facebook5react23ReactNativeFeatureFlags29enableEagerRootViewAttachmentEv, symObjAddr: 0x1B4, symBinAddr: 0x41B4, symSize: 0x14 }
  - { offset: 0x710D, size: 0x8, addend: 0x0, symName: __ZN8facebook5react23ReactNativeFeatureFlags16enableFabricLogsEv, symObjAddr: 0x1C8, symBinAddr: 0x41C8, symSize: 0x14 }
  - { offset: 0x7130, size: 0x8, addend: 0x0, symName: __ZN8facebook5react23ReactNativeFeatureFlags20enableFabricRendererEv, symObjAddr: 0x1DC, symBinAddr: 0x41DC, symSize: 0x14 }
  - { offset: 0x7153, size: 0x8, addend: 0x0, symName: __ZN8facebook5react23ReactNativeFeatureFlags38enableFixForParentTagDuringReparentingEv, symObjAddr: 0x1F0, symBinAddr: 0x41F0, symSize: 0x14 }
  - { offset: 0x7176, size: 0x8, addend: 0x0, symName: __ZN8facebook5react23ReactNativeFeatureFlags36enableFontScaleChangesUpdatingLayoutEv, symObjAddr: 0x204, symBinAddr: 0x4204, symSize: 0x14 }
  - { offset: 0x7199, size: 0x8, addend: 0x0, symName: __ZN8facebook5react23ReactNativeFeatureFlags34enableIOSTextBaselineOffsetPerLineEv, symObjAddr: 0x218, symBinAddr: 0x4218, symSize: 0x14 }
  - { offset: 0x71BC, size: 0x8, addend: 0x0, symName: __ZN8facebook5react23ReactNativeFeatureFlags29enableIOSViewClipToPaddingBoxEv, symObjAddr: 0x22C, symBinAddr: 0x422C, symSize: 0x14 }
  - { offset: 0x71DF, size: 0x8, addend: 0x0, symName: __ZN8facebook5react23ReactNativeFeatureFlags50enableInteropViewManagerClassLookUpOptimizationIOSEv, symObjAddr: 0x240, symBinAddr: 0x4240, symSize: 0x14 }
  - { offset: 0x7202, size: 0x8, addend: 0x0, symName: __ZN8facebook5react23ReactNativeFeatureFlags31enableLayoutAnimationsOnAndroidEv, symObjAddr: 0x254, symBinAddr: 0x4254, symSize: 0x14 }
  - { offset: 0x7225, size: 0x8, addend: 0x0, symName: __ZN8facebook5react23ReactNativeFeatureFlags27enableLayoutAnimationsOnIOSEv, symObjAddr: 0x268, symBinAddr: 0x4268, symSize: 0x14 }
  - { offset: 0x7248, size: 0x8, addend: 0x0, symName: __ZN8facebook5react23ReactNativeFeatureFlags31enableMainQueueCoordinatorOnIOSEv, symObjAddr: 0x27C, symBinAddr: 0x427C, symSize: 0x14 }
  - { offset: 0x726B, size: 0x8, addend: 0x0, symName: __ZN8facebook5react23ReactNativeFeatureFlags27enableMainQueueModulesOnIOSEv, symObjAddr: 0x290, symBinAddr: 0x4290, symSize: 0x14 }
  - { offset: 0x728E, size: 0x8, addend: 0x0, symName: __ZN8facebook5react23ReactNativeFeatureFlags39enableModuleArgumentNSNullConversionIOSEv, symObjAddr: 0x2A4, symBinAddr: 0x42A4, symSize: 0x14 }
  - { offset: 0x72B1, size: 0x8, addend: 0x0, symName: __ZN8facebook5react23ReactNativeFeatureFlags22enableNativeCSSParsingEv, symObjAddr: 0x2B8, symBinAddr: 0x42B8, symSize: 0x14 }
  - { offset: 0x72D4, size: 0x8, addend: 0x0, symName: __ZN8facebook5react23ReactNativeFeatureFlags27enableNetworkEventReportingEv, symObjAddr: 0x2CC, symBinAddr: 0x42CC, symSize: 0x14 }
  - { offset: 0x72F7, size: 0x8, addend: 0x0, symName: __ZN8facebook5react23ReactNativeFeatureFlags37enableNewBackgroundAndBorderDrawablesEv, symObjAddr: 0x2E0, symBinAddr: 0x42E0, symSize: 0x14 }
  - { offset: 0x731A, size: 0x8, addend: 0x0, symName: __ZN8facebook5react23ReactNativeFeatureFlags24enablePreparedTextLayoutEv, symObjAddr: 0x2F4, symBinAddr: 0x42F4, symSize: 0x14 }
  - { offset: 0x733D, size: 0x8, addend: 0x0, symName: __ZN8facebook5react23ReactNativeFeatureFlags38enablePropsUpdateReconciliationAndroidEv, symObjAddr: 0x308, symBinAddr: 0x4308, symSize: 0x14 }
  - { offset: 0x7360, size: 0x8, addend: 0x0, symName: __ZN8facebook5react23ReactNativeFeatureFlags23enableResourceTimingAPIEv, symObjAddr: 0x31C, symBinAddr: 0x431C, symSize: 0x14 }
  - { offset: 0x7383, size: 0x8, addend: 0x0, symName: __ZN8facebook5react23ReactNativeFeatureFlags29enableSynchronousStateUpdatesEv, symObjAddr: 0x330, symBinAddr: 0x4330, symSize: 0x14 }
  - { offset: 0x73A6, size: 0x8, addend: 0x0, symName: __ZN8facebook5react23ReactNativeFeatureFlags17enableViewCullingEv, symObjAddr: 0x344, symBinAddr: 0x4344, symSize: 0x14 }
  - { offset: 0x73C9, size: 0x8, addend: 0x0, symName: __ZN8facebook5react23ReactNativeFeatureFlags19enableViewRecyclingEv, symObjAddr: 0x358, symBinAddr: 0x4358, symSize: 0x14 }
  - { offset: 0x73EC, size: 0x8, addend: 0x0, symName: __ZN8facebook5react23ReactNativeFeatureFlags26enableViewRecyclingForTextEv, symObjAddr: 0x36C, symBinAddr: 0x436C, symSize: 0x14 }
  - { offset: 0x740F, size: 0x8, addend: 0x0, symName: __ZN8facebook5react23ReactNativeFeatureFlags26enableViewRecyclingForViewEv, symObjAddr: 0x380, symBinAddr: 0x4380, symSize: 0x14 }
  - { offset: 0x7432, size: 0x8, addend: 0x0, symName: __ZN8facebook5react23ReactNativeFeatureFlags30enableVirtualViewDebugFeaturesEv, symObjAddr: 0x394, symBinAddr: 0x4394, symSize: 0x14 }
  - { offset: 0x7455, size: 0x8, addend: 0x0, symName: __ZN8facebook5react23ReactNativeFeatureFlags28enableVirtualViewRenderStateEv, symObjAddr: 0x3A8, symBinAddr: 0x43A8, symSize: 0x14 }
  - { offset: 0x7478, size: 0x8, addend: 0x0, symName: __ZN8facebook5react23ReactNativeFeatureFlags37enableVirtualViewWindowFocusDetectionEv, symObjAddr: 0x3BC, symBinAddr: 0x43BC, symSize: 0x14 }
  - { offset: 0x749B, size: 0x8, addend: 0x0, symName: __ZN8facebook5react23ReactNativeFeatureFlags48fixMappingOfEventPrioritiesBetweenFabricAndReactEv, symObjAddr: 0x3D0, symBinAddr: 0x43D0, symSize: 0x14 }
  - { offset: 0x74BE, size: 0x8, addend: 0x0, symName: __ZN8facebook5react23ReactNativeFeatureFlags21fuseboxEnabledReleaseEv, symObjAddr: 0x3E4, symBinAddr: 0x43E4, symSize: 0x14 }
  - { offset: 0x74E1, size: 0x8, addend: 0x0, symName: __ZN8facebook5react23ReactNativeFeatureFlags31fuseboxNetworkInspectionEnabledEv, symObjAddr: 0x3F8, symBinAddr: 0x43F8, symSize: 0x14 }
  - { offset: 0x7504, size: 0x8, addend: 0x0, symName: __ZN8facebook5react23ReactNativeFeatureFlags30hideOffscreenVirtualViewsOnIOSEv, symObjAddr: 0x40C, symBinAddr: 0x440C, symSize: 0x14 }
  - { offset: 0x7527, size: 0x8, addend: 0x0, symName: __ZN8facebook5react23ReactNativeFeatureFlags21preparedTextCacheSizeEv, symObjAddr: 0x420, symBinAddr: 0x4420, symSize: 0x14 }
  - { offset: 0x754A, size: 0x8, addend: 0x0, symName: __ZN8facebook5react23ReactNativeFeatureFlags33preventShadowTreeCommitExhaustionEv, symObjAddr: 0x434, symBinAddr: 0x4434, symSize: 0x14 }
  - { offset: 0x756D, size: 0x8, addend: 0x0, symName: __ZN8facebook5react23ReactNativeFeatureFlags42traceTurboModulePromiseRejectionsOnAndroidEv, symObjAddr: 0x448, symBinAddr: 0x4448, symSize: 0x14 }
  - { offset: 0x7590, size: 0x8, addend: 0x0, symName: __ZN8facebook5react23ReactNativeFeatureFlags41updateRuntimeShadowNodeReferencesOnCommitEv, symObjAddr: 0x45C, symBinAddr: 0x445C, symSize: 0x14 }
  - { offset: 0x75B3, size: 0x8, addend: 0x0, symName: __ZN8facebook5react23ReactNativeFeatureFlags33useAlwaysAvailableJSErrorHandlingEv, symObjAddr: 0x470, symBinAddr: 0x4470, symSize: 0x14 }
  - { offset: 0x75D6, size: 0x8, addend: 0x0, symName: __ZN8facebook5react23ReactNativeFeatureFlags16useFabricInteropEv, symObjAddr: 0x484, symBinAddr: 0x4484, symSize: 0x14 }
  - { offset: 0x75F9, size: 0x8, addend: 0x0, symName: __ZN8facebook5react23ReactNativeFeatureFlags36useNativeViewConfigsInBridgelessModeEv, symObjAddr: 0x498, symBinAddr: 0x4498, symSize: 0x14 }
  - { offset: 0x761C, size: 0x8, addend: 0x0, symName: __ZN8facebook5react23ReactNativeFeatureFlags34useOptimizedEventBatchingOnAndroidEv, symObjAddr: 0x4AC, symBinAddr: 0x44AC, symSize: 0x14 }
  - { offset: 0x763F, size: 0x8, addend: 0x0, symName: __ZN8facebook5react23ReactNativeFeatureFlags19useRawPropsJsiValueEv, symObjAddr: 0x4C0, symBinAddr: 0x44C0, symSize: 0x14 }
  - { offset: 0x7662, size: 0x8, addend: 0x0, symName: __ZN8facebook5react23ReactNativeFeatureFlags25useShadowNodeStateOnCloneEv, symObjAddr: 0x4D4, symBinAddr: 0x44D4, symSize: 0x14 }
  - { offset: 0x7685, size: 0x8, addend: 0x0, symName: __ZN8facebook5react23ReactNativeFeatureFlags21useTurboModuleInteropEv, symObjAddr: 0x4E8, symBinAddr: 0x44E8, symSize: 0x14 }
  - { offset: 0x76A8, size: 0x8, addend: 0x0, symName: __ZN8facebook5react23ReactNativeFeatureFlags15useTurboModulesEv, symObjAddr: 0x4FC, symBinAddr: 0x44FC, symSize: 0x14 }
  - { offset: 0x76CC, size: 0x8, addend: 0x0, symName: __ZN8facebook5react23ReactNativeFeatureFlags25virtualViewPrerenderRatioEv, symObjAddr: 0x510, symBinAddr: 0x4510, symSize: 0x14 }
  - { offset: 0x77DD, size: 0x8, addend: 0x0, symName: __ZN8facebook5react23ReactNativeFeatureFlags8overrideENSt3__110unique_ptrINS0_31ReactNativeFeatureFlagsProviderENS2_14default_deleteIS4_EEEE, symObjAddr: 0x524, symBinAddr: 0x4524, symSize: 0x78 }
  - { offset: 0x79BC, size: 0x8, addend: 0x0, symName: __ZN8facebook5react23ReactNativeFeatureFlags16dangerouslyResetEv, symObjAddr: 0x59C, symBinAddr: 0x459C, symSize: 0x48 }
  - { offset: 0x7C24, size: 0x8, addend: 0x0, symName: __ZN8facebook5react23ReactNativeFeatureFlags24dangerouslyForceOverrideENSt3__110unique_ptrINS0_31ReactNativeFeatureFlagsProviderENS2_14default_deleteIS4_EEEE, symObjAddr: 0x5E4, symBinAddr: 0x45E4, symSize: 0x104 }
  - { offset: 0x8156, size: 0x8, addend: 0x0, symName: __GLOBAL__sub_I_ReactNativeFeatureFlags.cpp, symObjAddr: 0x784, symBinAddr: 0x4734, symSize: 0x1C }
  - { offset: 0x816E, size: 0x8, addend: 0x0, symName: __GLOBAL__sub_I_ReactNativeFeatureFlags.cpp, symObjAddr: 0x784, symBinAddr: 0x4734, symSize: 0x1C }
  - { offset: 0xE5C4, size: 0x8, addend: 0x0, symName: __ZNSt3__124__put_character_sequenceB8ne200100IcNS_11char_traitsIcEEEERNS_13basic_ostreamIT_T0_EES7_PKS4_m, symObjAddr: 0x1E30, symBinAddr: 0x6580, symSize: 0x168 }
  - { offset: 0xFAC0, size: 0x8, addend: 0x0, symName: __ZNSt3__127__throw_bad_optional_accessB8ne200100Ev, symObjAddr: 0x195C, symBinAddr: 0x60AC, symSize: 0x34 }
  - { offset: 0xFD88, size: 0x8, addend: 0x0, symName: __ZNSt3__120__throw_length_errorB8ne200100EPKc, symObjAddr: 0x19A4, symBinAddr: 0x60F4, symSize: 0x50 }
  - { offset: 0x103AE, size: 0x8, addend: 0x0, symName: __ZNSt3__116__pad_and_outputB8ne200100IcNS_11char_traitsIcEEEENS_19ostreambuf_iteratorIT_T0_EES6_PKS4_S8_S8_RNS_8ios_baseES4_, symObjAddr: 0x1F98, symBinAddr: 0x66E8, symSize: 0x13C }
  - { offset: 0x12E66, size: 0x8, addend: 0x0, symName: __ZN8facebook5react31ReactNativeFeatureFlagsAccessorC2Ev, symObjAddr: 0x0, symBinAddr: 0x4750, symSize: 0x64 }
  - { offset: 0x1310A, size: 0x8, addend: 0x0, symName: __ZN8facebook5react31ReactNativeFeatureFlagsAccessorC1Ev, symObjAddr: 0x64, symBinAddr: 0x47B4, symSize: 0x64 }
  - { offset: 0x134CE, size: 0x8, addend: 0x0, symName: __ZN8facebook5react31ReactNativeFeatureFlagsAccessor14commonTestFlagEv, symObjAddr: 0xC8, symBinAddr: 0x4818, symSize: 0x54 }
  - { offset: 0x136B7, size: 0x8, addend: 0x0, symName: __ZN8facebook5react31ReactNativeFeatureFlagsAccessor18markFlagAsAccessedEiPKc, symObjAddr: 0x11C, symBinAddr: 0x486C, symSize: 0x10 }
  - { offset: 0x13771, size: 0x8, addend: 0x0, symName: __ZN8facebook5react31ReactNativeFeatureFlagsAccessor25animatedShouldSignalBatchEv, symObjAddr: 0x12C, symBinAddr: 0x487C, symSize: 0x54 }
  - { offset: 0x1395F, size: 0x8, addend: 0x0, symName: __ZN8facebook5react31ReactNativeFeatureFlagsAccessor24cxxNativeAnimatedEnabledEv, symObjAddr: 0x180, symBinAddr: 0x48D0, symSize: 0x54 }
  - { offset: 0x13B4D, size: 0x8, addend: 0x0, symName: __ZN8facebook5react31ReactNativeFeatureFlagsAccessor29cxxNativeAnimatedRemoveJsSyncEv, symObjAddr: 0x1D4, symBinAddr: 0x4924, symSize: 0x54 }
  - { offset: 0x13D3B, size: 0x8, addend: 0x0, symName: __ZN8facebook5react31ReactNativeFeatureFlagsAccessor31disableMainQueueSyncDispatchIOSEv, symObjAddr: 0x228, symBinAddr: 0x4978, symSize: 0x54 }
  - { offset: 0x13F29, size: 0x8, addend: 0x0, symName: __ZN8facebook5react31ReactNativeFeatureFlagsAccessor33disableMountItemReorderingAndroidEv, symObjAddr: 0x27C, symBinAddr: 0x49CC, symSize: 0x54 }
  - { offset: 0x14117, size: 0x8, addend: 0x0, symName: __ZN8facebook5react31ReactNativeFeatureFlagsAccessor36disableTextLayoutManagerCacheAndroidEv, symObjAddr: 0x2D0, symBinAddr: 0x4A20, symSize: 0x54 }
  - { offset: 0x14305, size: 0x8, addend: 0x0, symName: __ZN8facebook5react31ReactNativeFeatureFlagsAccessor24enableAccessibilityOrderEv, symObjAddr: 0x324, symBinAddr: 0x4A74, symSize: 0x54 }
  - { offset: 0x144F3, size: 0x8, addend: 0x0, symName: __ZN8facebook5react31ReactNativeFeatureFlagsAccessor41enableAccumulatedUpdatesInRawPropsAndroidEv, symObjAddr: 0x378, symBinAddr: 0x4AC8, symSize: 0x54 }
  - { offset: 0x146E1, size: 0x8, addend: 0x0, symName: __ZN8facebook5react31ReactNativeFeatureFlagsAccessor41enableAndroidTextMeasurementOptimizationsEv, symObjAddr: 0x3CC, symBinAddr: 0x4B1C, symSize: 0x54 }
  - { offset: 0x148CF, size: 0x8, addend: 0x0, symName: __ZN8facebook5react31ReactNativeFeatureFlagsAccessor28enableBridgelessArchitectureEv, symObjAddr: 0x420, symBinAddr: 0x4B70, symSize: 0x54 }
  - { offset: 0x14ABD, size: 0x8, addend: 0x0, symName: __ZN8facebook5react31ReactNativeFeatureFlagsAccessor28enableCppPropsIteratorSetterEv, symObjAddr: 0x474, symBinAddr: 0x4BC4, symSize: 0x54 }
  - { offset: 0x14CAB, size: 0x8, addend: 0x0, symName: __ZN8facebook5react31ReactNativeFeatureFlagsAccessor47enableCustomFocusSearchOnClippedElementsAndroidEv, symObjAddr: 0x4C8, symBinAddr: 0x4C18, symSize: 0x54 }
  - { offset: 0x14E9C, size: 0x8, addend: 0x0, symName: __ZN8facebook5react31ReactNativeFeatureFlagsAccessor36enableDestroyShadowTreeRevisionAsyncEv, symObjAddr: 0x51C, symBinAddr: 0x4C6C, symSize: 0x54 }
  - { offset: 0x15090, size: 0x8, addend: 0x0, symName: __ZN8facebook5react31ReactNativeFeatureFlagsAccessor33enableDoubleMeasurementFixAndroidEv, symObjAddr: 0x570, symBinAddr: 0x4CC0, symSize: 0x54 }
  - { offset: 0x15284, size: 0x8, addend: 0x0, symName: __ZN8facebook5react31ReactNativeFeatureFlagsAccessor29enableEagerRootViewAttachmentEv, symObjAddr: 0x5C4, symBinAddr: 0x4D14, symSize: 0x54 }
  - { offset: 0x15478, size: 0x8, addend: 0x0, symName: __ZN8facebook5react31ReactNativeFeatureFlagsAccessor16enableFabricLogsEv, symObjAddr: 0x618, symBinAddr: 0x4D68, symSize: 0x54 }
  - { offset: 0x1566C, size: 0x8, addend: 0x0, symName: __ZN8facebook5react31ReactNativeFeatureFlagsAccessor20enableFabricRendererEv, symObjAddr: 0x66C, symBinAddr: 0x4DBC, symSize: 0x54 }
  - { offset: 0x15860, size: 0x8, addend: 0x0, symName: __ZN8facebook5react31ReactNativeFeatureFlagsAccessor38enableFixForParentTagDuringReparentingEv, symObjAddr: 0x6C0, symBinAddr: 0x4E10, symSize: 0x54 }
  - { offset: 0x15A54, size: 0x8, addend: 0x0, symName: __ZN8facebook5react31ReactNativeFeatureFlagsAccessor36enableFontScaleChangesUpdatingLayoutEv, symObjAddr: 0x714, symBinAddr: 0x4E64, symSize: 0x54 }
  - { offset: 0x15C48, size: 0x8, addend: 0x0, symName: __ZN8facebook5react31ReactNativeFeatureFlagsAccessor34enableIOSTextBaselineOffsetPerLineEv, symObjAddr: 0x768, symBinAddr: 0x4EB8, symSize: 0x54 }
  - { offset: 0x15E3C, size: 0x8, addend: 0x0, symName: __ZN8facebook5react31ReactNativeFeatureFlagsAccessor29enableIOSViewClipToPaddingBoxEv, symObjAddr: 0x7BC, symBinAddr: 0x4F0C, symSize: 0x54 }
  - { offset: 0x16030, size: 0x8, addend: 0x0, symName: __ZN8facebook5react31ReactNativeFeatureFlagsAccessor50enableInteropViewManagerClassLookUpOptimizationIOSEv, symObjAddr: 0x810, symBinAddr: 0x4F60, symSize: 0x54 }
  - { offset: 0x16224, size: 0x8, addend: 0x0, symName: __ZN8facebook5react31ReactNativeFeatureFlagsAccessor31enableLayoutAnimationsOnAndroidEv, symObjAddr: 0x864, symBinAddr: 0x4FB4, symSize: 0x54 }
  - { offset: 0x16418, size: 0x8, addend: 0x0, symName: __ZN8facebook5react31ReactNativeFeatureFlagsAccessor27enableLayoutAnimationsOnIOSEv, symObjAddr: 0x8B8, symBinAddr: 0x5008, symSize: 0x54 }
  - { offset: 0x1660C, size: 0x8, addend: 0x0, symName: __ZN8facebook5react31ReactNativeFeatureFlagsAccessor31enableMainQueueCoordinatorOnIOSEv, symObjAddr: 0x90C, symBinAddr: 0x505C, symSize: 0x54 }
  - { offset: 0x16800, size: 0x8, addend: 0x0, symName: __ZN8facebook5react31ReactNativeFeatureFlagsAccessor27enableMainQueueModulesOnIOSEv, symObjAddr: 0x960, symBinAddr: 0x50B0, symSize: 0x54 }
  - { offset: 0x169F4, size: 0x8, addend: 0x0, symName: __ZN8facebook5react31ReactNativeFeatureFlagsAccessor39enableModuleArgumentNSNullConversionIOSEv, symObjAddr: 0x9B4, symBinAddr: 0x5104, symSize: 0x54 }
  - { offset: 0x16BE8, size: 0x8, addend: 0x0, symName: __ZN8facebook5react31ReactNativeFeatureFlagsAccessor22enableNativeCSSParsingEv, symObjAddr: 0xA08, symBinAddr: 0x5158, symSize: 0x54 }
  - { offset: 0x16DDC, size: 0x8, addend: 0x0, symName: __ZN8facebook5react31ReactNativeFeatureFlagsAccessor27enableNetworkEventReportingEv, symObjAddr: 0xA5C, symBinAddr: 0x51AC, symSize: 0x54 }
  - { offset: 0x16FD0, size: 0x8, addend: 0x0, symName: __ZN8facebook5react31ReactNativeFeatureFlagsAccessor37enableNewBackgroundAndBorderDrawablesEv, symObjAddr: 0xAB0, symBinAddr: 0x5200, symSize: 0x54 }
  - { offset: 0x171C4, size: 0x8, addend: 0x0, symName: __ZN8facebook5react31ReactNativeFeatureFlagsAccessor24enablePreparedTextLayoutEv, symObjAddr: 0xB04, symBinAddr: 0x5254, symSize: 0x54 }
  - { offset: 0x173B8, size: 0x8, addend: 0x0, symName: __ZN8facebook5react31ReactNativeFeatureFlagsAccessor38enablePropsUpdateReconciliationAndroidEv, symObjAddr: 0xB58, symBinAddr: 0x52A8, symSize: 0x54 }
  - { offset: 0x175AC, size: 0x8, addend: 0x0, symName: __ZN8facebook5react31ReactNativeFeatureFlagsAccessor23enableResourceTimingAPIEv, symObjAddr: 0xBAC, symBinAddr: 0x52FC, symSize: 0x54 }
  - { offset: 0x177A0, size: 0x8, addend: 0x0, symName: __ZN8facebook5react31ReactNativeFeatureFlagsAccessor29enableSynchronousStateUpdatesEv, symObjAddr: 0xC00, symBinAddr: 0x5350, symSize: 0x54 }
  - { offset: 0x17994, size: 0x8, addend: 0x0, symName: __ZN8facebook5react31ReactNativeFeatureFlagsAccessor17enableViewCullingEv, symObjAddr: 0xC54, symBinAddr: 0x53A4, symSize: 0x54 }
  - { offset: 0x17B88, size: 0x8, addend: 0x0, symName: __ZN8facebook5react31ReactNativeFeatureFlagsAccessor19enableViewRecyclingEv, symObjAddr: 0xCA8, symBinAddr: 0x53F8, symSize: 0x54 }
  - { offset: 0x17D7C, size: 0x8, addend: 0x0, symName: __ZN8facebook5react31ReactNativeFeatureFlagsAccessor26enableViewRecyclingForTextEv, symObjAddr: 0xCFC, symBinAddr: 0x544C, symSize: 0x54 }
  - { offset: 0x17F70, size: 0x8, addend: 0x0, symName: __ZN8facebook5react31ReactNativeFeatureFlagsAccessor26enableViewRecyclingForViewEv, symObjAddr: 0xD50, symBinAddr: 0x54A0, symSize: 0x54 }
  - { offset: 0x18164, size: 0x8, addend: 0x0, symName: __ZN8facebook5react31ReactNativeFeatureFlagsAccessor30enableVirtualViewDebugFeaturesEv, symObjAddr: 0xDA4, symBinAddr: 0x54F4, symSize: 0x54 }
  - { offset: 0x18358, size: 0x8, addend: 0x0, symName: __ZN8facebook5react31ReactNativeFeatureFlagsAccessor28enableVirtualViewRenderStateEv, symObjAddr: 0xDF8, symBinAddr: 0x5548, symSize: 0x54 }
  - { offset: 0x1854C, size: 0x8, addend: 0x0, symName: __ZN8facebook5react31ReactNativeFeatureFlagsAccessor37enableVirtualViewWindowFocusDetectionEv, symObjAddr: 0xE4C, symBinAddr: 0x559C, symSize: 0x54 }
  - { offset: 0x18740, size: 0x8, addend: 0x0, symName: __ZN8facebook5react31ReactNativeFeatureFlagsAccessor48fixMappingOfEventPrioritiesBetweenFabricAndReactEv, symObjAddr: 0xEA0, symBinAddr: 0x55F0, symSize: 0x54 }
  - { offset: 0x18934, size: 0x8, addend: 0x0, symName: __ZN8facebook5react31ReactNativeFeatureFlagsAccessor21fuseboxEnabledReleaseEv, symObjAddr: 0xEF4, symBinAddr: 0x5644, symSize: 0x54 }
  - { offset: 0x18B28, size: 0x8, addend: 0x0, symName: __ZN8facebook5react31ReactNativeFeatureFlagsAccessor31fuseboxNetworkInspectionEnabledEv, symObjAddr: 0xF48, symBinAddr: 0x5698, symSize: 0x54 }
  - { offset: 0x18D1C, size: 0x8, addend: 0x0, symName: __ZN8facebook5react31ReactNativeFeatureFlagsAccessor30hideOffscreenVirtualViewsOnIOSEv, symObjAddr: 0xF9C, symBinAddr: 0x56EC, symSize: 0x54 }
  - { offset: 0x18F87, size: 0x8, addend: 0x0, symName: __ZN8facebook5react31ReactNativeFeatureFlagsAccessor21preparedTextCacheSizeEv, symObjAddr: 0xFF0, symBinAddr: 0x5740, symSize: 0x80 }
  - { offset: 0x19167, size: 0x8, addend: 0x0, symName: __ZN8facebook5react31ReactNativeFeatureFlagsAccessor33preventShadowTreeCommitExhaustionEv, symObjAddr: 0x1070, symBinAddr: 0x57C0, symSize: 0x54 }
  - { offset: 0x1935B, size: 0x8, addend: 0x0, symName: __ZN8facebook5react31ReactNativeFeatureFlagsAccessor42traceTurboModulePromiseRejectionsOnAndroidEv, symObjAddr: 0x10C4, symBinAddr: 0x5814, symSize: 0x54 }
  - { offset: 0x1954F, size: 0x8, addend: 0x0, symName: __ZN8facebook5react31ReactNativeFeatureFlagsAccessor41updateRuntimeShadowNodeReferencesOnCommitEv, symObjAddr: 0x1118, symBinAddr: 0x5868, symSize: 0x54 }
  - { offset: 0x19743, size: 0x8, addend: 0x0, symName: __ZN8facebook5react31ReactNativeFeatureFlagsAccessor33useAlwaysAvailableJSErrorHandlingEv, symObjAddr: 0x116C, symBinAddr: 0x58BC, symSize: 0x54 }
  - { offset: 0x19937, size: 0x8, addend: 0x0, symName: __ZN8facebook5react31ReactNativeFeatureFlagsAccessor16useFabricInteropEv, symObjAddr: 0x11C0, symBinAddr: 0x5910, symSize: 0x54 }
  - { offset: 0x19B2B, size: 0x8, addend: 0x0, symName: __ZN8facebook5react31ReactNativeFeatureFlagsAccessor36useNativeViewConfigsInBridgelessModeEv, symObjAddr: 0x1214, symBinAddr: 0x5964, symSize: 0x54 }
  - { offset: 0x19D1F, size: 0x8, addend: 0x0, symName: __ZN8facebook5react31ReactNativeFeatureFlagsAccessor34useOptimizedEventBatchingOnAndroidEv, symObjAddr: 0x1268, symBinAddr: 0x59B8, symSize: 0x54 }
  - { offset: 0x19F13, size: 0x8, addend: 0x0, symName: __ZN8facebook5react31ReactNativeFeatureFlagsAccessor19useRawPropsJsiValueEv, symObjAddr: 0x12BC, symBinAddr: 0x5A0C, symSize: 0x54 }
  - { offset: 0x1A107, size: 0x8, addend: 0x0, symName: __ZN8facebook5react31ReactNativeFeatureFlagsAccessor25useShadowNodeStateOnCloneEv, symObjAddr: 0x1310, symBinAddr: 0x5A60, symSize: 0x54 }
  - { offset: 0x1A2FB, size: 0x8, addend: 0x0, symName: __ZN8facebook5react31ReactNativeFeatureFlagsAccessor21useTurboModuleInteropEv, symObjAddr: 0x1364, symBinAddr: 0x5AB4, symSize: 0x54 }
  - { offset: 0x1A4EF, size: 0x8, addend: 0x0, symName: __ZN8facebook5react31ReactNativeFeatureFlagsAccessor15useTurboModulesEv, symObjAddr: 0x13B8, symBinAddr: 0x5B08, symSize: 0x54 }
  - { offset: 0x1A6E3, size: 0x8, addend: 0x0, symName: __ZN8facebook5react31ReactNativeFeatureFlagsAccessor25virtualViewPrerenderRatioEv, symObjAddr: 0x140C, symBinAddr: 0x5B5C, symSize: 0x80 }
  - { offset: 0x1A954, size: 0x8, addend: 0x0, symName: __ZN8facebook5react31ReactNativeFeatureFlagsAccessor8overrideENSt3__110unique_ptrINS0_31ReactNativeFeatureFlagsProviderENS2_14default_deleteIS4_EEEE, symObjAddr: 0x148C, symBinAddr: 0x5BDC, symSize: 0xA4 }
  - { offset: 0x1AA42, size: 0x8, addend: 0x0, symName: __ZN8facebook5react31ReactNativeFeatureFlagsAccessor22ensureFlagsNotAccessedEv, symObjAddr: 0x1530, symBinAddr: 0x5C80, symSize: 0xF0 }
  - { offset: 0x1AFB6, size: 0x8, addend: 0x0, symName: __ZNK8facebook5react31ReactNativeFeatureFlagsAccessor27getAccessedFeatureFlagNamesEv, symObjAddr: 0x1620, symBinAddr: 0x5D70, symSize: 0x1F0 }
  - { offset: 0x1C029, size: 0x8, addend: 0x0, symName: __ZNSt3__119basic_ostringstreamIcNS_11char_traitsIcEENS_9allocatorIcEEEC1B8ne200100Ev, symObjAddr: 0x1810, symBinAddr: 0x5F60, symSize: 0xC4 }
  - { offset: 0x1C130, size: 0x8, addend: 0x0, symName: __ZNKSt3__115basic_stringbufIcNS_11char_traitsIcEENS_9allocatorIcEEE3strB8ne200100IS4_EENS_12basic_stringIcS2_T_EERKS8_, symObjAddr: 0x2170, symBinAddr: 0x68C0, symSize: 0x90 }
  - { offset: 0x1C37C, size: 0x8, addend: 0x0, symName: __ZNKSt3__115basic_stringbufIcNS_11char_traitsIcEENS_9allocatorIcEEE4viewB8ne200100Ev, symObjAddr: 0x2200, symBinAddr: 0x6950, symSize: 0x4C }
  - { offset: 0x1C390, size: 0x8, addend: 0x0, symName: __ZNSt3__112basic_stringIcNS_11char_traitsIcEENS_9allocatorIcEEE25__init_copy_ctor_externalEPKcm, symObjAddr: 0x1A28, symBinAddr: 0x6178, symSize: 0x80 }
  - { offset: 0x1C562, size: 0x8, addend: 0x0, symName: __ZN8facebook5react31ReactNativeFeatureFlagsDefaultsD1Ev, symObjAddr: 0x1AA8, symBinAddr: 0x61F8, symSize: 0x4 }
  - { offset: 0x1C56C, size: 0x8, addend: 0x0, symName: __ZNSt3__119basic_ostringstreamIcNS_11char_traitsIcEENS_9allocatorIcEEED1Ev, symObjAddr: 0x18D4, symBinAddr: 0x6024, symSize: 0x88 }
  - { offset: 0x1C7E7, size: 0x8, addend: 0x0, symName: __ZNSt3__115basic_stringbufIcNS_11char_traitsIcEENS_9allocatorIcEEEC2B8ne200100Ej, symObjAddr: 0x1C8C, symBinAddr: 0x63DC, symSize: 0xA0 }
  - { offset: 0x1C99F, size: 0x8, addend: 0x0, symName: __ZNSt3__112basic_stringIcNS_11char_traitsIcEENS_9allocatorIcEEE20__throw_length_errorB8ne200100Ev, symObjAddr: 0x1990, symBinAddr: 0x60E0, symSize: 0x14 }
  - { offset: 0x1C9B6, size: 0x8, addend: 0x0, symName: __ZNSt3__120__throw_length_errorB8ne200100EPKc, symObjAddr: 0x19A4, symBinAddr: 0x60F4, symSize: 0x50 }
  - { offset: 0x1C9C1, size: 0x8, addend: 0x0, symName: __ZNSt12length_errorC1B8ne200100EPKc, symObjAddr: 0x19F4, symBinAddr: 0x6144, symSize: 0x24 }
  - { offset: 0x1CB22, size: 0x8, addend: 0x0, symName: __ZN8facebook5react31ReactNativeFeatureFlagsDefaultsD1Ev, symObjAddr: 0x1AA8, symBinAddr: 0x61F8, symSize: 0x4 }
  - { offset: 0x1CB4D, size: 0x8, addend: 0x0, symName: __ZN8facebook5react31ReactNativeFeatureFlagsDefaultsD0Ev, symObjAddr: 0x1AAC, symBinAddr: 0x61FC, symSize: 0x4 }
  - { offset: 0x1CB78, size: 0x8, addend: 0x0, symName: __ZN8facebook5react31ReactNativeFeatureFlagsDefaults14commonTestFlagEv, symObjAddr: 0x1AB0, symBinAddr: 0x6200, symSize: 0x8 }
  - { offset: 0x1CB9F, size: 0x8, addend: 0x0, symName: __ZN8facebook5react31ReactNativeFeatureFlagsDefaults25animatedShouldSignalBatchEv, symObjAddr: 0x1AB8, symBinAddr: 0x6208, symSize: 0x8 }
  - { offset: 0x1CBC6, size: 0x8, addend: 0x0, symName: __ZN8facebook5react31ReactNativeFeatureFlagsDefaults24cxxNativeAnimatedEnabledEv, symObjAddr: 0x1AC0, symBinAddr: 0x6210, symSize: 0x8 }
  - { offset: 0x1CBED, size: 0x8, addend: 0x0, symName: __ZN8facebook5react31ReactNativeFeatureFlagsDefaults29cxxNativeAnimatedRemoveJsSyncEv, symObjAddr: 0x1AC8, symBinAddr: 0x6218, symSize: 0x8 }
  - { offset: 0x1CC14, size: 0x8, addend: 0x0, symName: __ZN8facebook5react31ReactNativeFeatureFlagsDefaults31disableMainQueueSyncDispatchIOSEv, symObjAddr: 0x1AD0, symBinAddr: 0x6220, symSize: 0x8 }
  - { offset: 0x1CC3B, size: 0x8, addend: 0x0, symName: __ZN8facebook5react31ReactNativeFeatureFlagsDefaults33disableMountItemReorderingAndroidEv, symObjAddr: 0x1AD8, symBinAddr: 0x6228, symSize: 0x8 }
  - { offset: 0x1CC62, size: 0x8, addend: 0x0, symName: __ZN8facebook5react31ReactNativeFeatureFlagsDefaults36disableTextLayoutManagerCacheAndroidEv, symObjAddr: 0x1AE0, symBinAddr: 0x6230, symSize: 0x8 }
  - { offset: 0x1CC89, size: 0x8, addend: 0x0, symName: __ZN8facebook5react31ReactNativeFeatureFlagsDefaults24enableAccessibilityOrderEv, symObjAddr: 0x1AE8, symBinAddr: 0x6238, symSize: 0x8 }
  - { offset: 0x1CCB0, size: 0x8, addend: 0x0, symName: __ZN8facebook5react31ReactNativeFeatureFlagsDefaults41enableAccumulatedUpdatesInRawPropsAndroidEv, symObjAddr: 0x1AF0, symBinAddr: 0x6240, symSize: 0x8 }
  - { offset: 0x1CCD7, size: 0x8, addend: 0x0, symName: __ZN8facebook5react31ReactNativeFeatureFlagsDefaults41enableAndroidTextMeasurementOptimizationsEv, symObjAddr: 0x1AF8, symBinAddr: 0x6248, symSize: 0x8 }
  - { offset: 0x1CCFE, size: 0x8, addend: 0x0, symName: __ZN8facebook5react31ReactNativeFeatureFlagsDefaults28enableBridgelessArchitectureEv, symObjAddr: 0x1B00, symBinAddr: 0x6250, symSize: 0x8 }
  - { offset: 0x1CD25, size: 0x8, addend: 0x0, symName: __ZN8facebook5react31ReactNativeFeatureFlagsDefaults28enableCppPropsIteratorSetterEv, symObjAddr: 0x1B08, symBinAddr: 0x6258, symSize: 0x8 }
  - { offset: 0x1CD4C, size: 0x8, addend: 0x0, symName: __ZN8facebook5react31ReactNativeFeatureFlagsDefaults47enableCustomFocusSearchOnClippedElementsAndroidEv, symObjAddr: 0x1B10, symBinAddr: 0x6260, symSize: 0x8 }
  - { offset: 0x1CD73, size: 0x8, addend: 0x0, symName: __ZN8facebook5react31ReactNativeFeatureFlagsDefaults36enableDestroyShadowTreeRevisionAsyncEv, symObjAddr: 0x1B18, symBinAddr: 0x6268, symSize: 0x8 }
  - { offset: 0x1CD9A, size: 0x8, addend: 0x0, symName: __ZN8facebook5react31ReactNativeFeatureFlagsDefaults33enableDoubleMeasurementFixAndroidEv, symObjAddr: 0x1B20, symBinAddr: 0x6270, symSize: 0x8 }
  - { offset: 0x1CDC1, size: 0x8, addend: 0x0, symName: __ZN8facebook5react31ReactNativeFeatureFlagsDefaults29enableEagerRootViewAttachmentEv, symObjAddr: 0x1B28, symBinAddr: 0x6278, symSize: 0x8 }
  - { offset: 0x1CDE8, size: 0x8, addend: 0x0, symName: __ZN8facebook5react31ReactNativeFeatureFlagsDefaults16enableFabricLogsEv, symObjAddr: 0x1B30, symBinAddr: 0x6280, symSize: 0x8 }
  - { offset: 0x1CE0F, size: 0x8, addend: 0x0, symName: __ZN8facebook5react31ReactNativeFeatureFlagsDefaults20enableFabricRendererEv, symObjAddr: 0x1B38, symBinAddr: 0x6288, symSize: 0x8 }
  - { offset: 0x1CE36, size: 0x8, addend: 0x0, symName: __ZN8facebook5react31ReactNativeFeatureFlagsDefaults38enableFixForParentTagDuringReparentingEv, symObjAddr: 0x1B40, symBinAddr: 0x6290, symSize: 0x8 }
  - { offset: 0x1CE5D, size: 0x8, addend: 0x0, symName: __ZN8facebook5react31ReactNativeFeatureFlagsDefaults36enableFontScaleChangesUpdatingLayoutEv, symObjAddr: 0x1B48, symBinAddr: 0x6298, symSize: 0x8 }
  - { offset: 0x1CE84, size: 0x8, addend: 0x0, symName: __ZN8facebook5react31ReactNativeFeatureFlagsDefaults34enableIOSTextBaselineOffsetPerLineEv, symObjAddr: 0x1B50, symBinAddr: 0x62A0, symSize: 0x8 }
  - { offset: 0x1CEAB, size: 0x8, addend: 0x0, symName: __ZN8facebook5react31ReactNativeFeatureFlagsDefaults29enableIOSViewClipToPaddingBoxEv, symObjAddr: 0x1B58, symBinAddr: 0x62A8, symSize: 0x8 }
  - { offset: 0x1CED2, size: 0x8, addend: 0x0, symName: __ZN8facebook5react31ReactNativeFeatureFlagsDefaults50enableInteropViewManagerClassLookUpOptimizationIOSEv, symObjAddr: 0x1B60, symBinAddr: 0x62B0, symSize: 0x8 }
  - { offset: 0x1CEF9, size: 0x8, addend: 0x0, symName: __ZN8facebook5react31ReactNativeFeatureFlagsDefaults31enableLayoutAnimationsOnAndroidEv, symObjAddr: 0x1B68, symBinAddr: 0x62B8, symSize: 0x8 }
  - { offset: 0x1CF20, size: 0x8, addend: 0x0, symName: __ZN8facebook5react31ReactNativeFeatureFlagsDefaults27enableLayoutAnimationsOnIOSEv, symObjAddr: 0x1B70, symBinAddr: 0x62C0, symSize: 0x8 }
  - { offset: 0x1CF47, size: 0x8, addend: 0x0, symName: __ZN8facebook5react31ReactNativeFeatureFlagsDefaults31enableMainQueueCoordinatorOnIOSEv, symObjAddr: 0x1B78, symBinAddr: 0x62C8, symSize: 0x8 }
  - { offset: 0x1CF6E, size: 0x8, addend: 0x0, symName: __ZN8facebook5react31ReactNativeFeatureFlagsDefaults27enableMainQueueModulesOnIOSEv, symObjAddr: 0x1B80, symBinAddr: 0x62D0, symSize: 0x8 }
  - { offset: 0x1CF95, size: 0x8, addend: 0x0, symName: __ZN8facebook5react31ReactNativeFeatureFlagsDefaults39enableModuleArgumentNSNullConversionIOSEv, symObjAddr: 0x1B88, symBinAddr: 0x62D8, symSize: 0x8 }
  - { offset: 0x1CFBC, size: 0x8, addend: 0x0, symName: __ZN8facebook5react31ReactNativeFeatureFlagsDefaults22enableNativeCSSParsingEv, symObjAddr: 0x1B90, symBinAddr: 0x62E0, symSize: 0x8 }
  - { offset: 0x1CFE3, size: 0x8, addend: 0x0, symName: __ZN8facebook5react31ReactNativeFeatureFlagsDefaults27enableNetworkEventReportingEv, symObjAddr: 0x1B98, symBinAddr: 0x62E8, symSize: 0x8 }
  - { offset: 0x1D00A, size: 0x8, addend: 0x0, symName: __ZN8facebook5react31ReactNativeFeatureFlagsDefaults37enableNewBackgroundAndBorderDrawablesEv, symObjAddr: 0x1BA0, symBinAddr: 0x62F0, symSize: 0x8 }
  - { offset: 0x1D031, size: 0x8, addend: 0x0, symName: __ZN8facebook5react31ReactNativeFeatureFlagsDefaults24enablePreparedTextLayoutEv, symObjAddr: 0x1BA8, symBinAddr: 0x62F8, symSize: 0x8 }
  - { offset: 0x1D058, size: 0x8, addend: 0x0, symName: __ZN8facebook5react31ReactNativeFeatureFlagsDefaults38enablePropsUpdateReconciliationAndroidEv, symObjAddr: 0x1BB0, symBinAddr: 0x6300, symSize: 0x8 }
  - { offset: 0x1D07F, size: 0x8, addend: 0x0, symName: __ZN8facebook5react31ReactNativeFeatureFlagsDefaults23enableResourceTimingAPIEv, symObjAddr: 0x1BB8, symBinAddr: 0x6308, symSize: 0x8 }
  - { offset: 0x1D0A6, size: 0x8, addend: 0x0, symName: __ZN8facebook5react31ReactNativeFeatureFlagsDefaults29enableSynchronousStateUpdatesEv, symObjAddr: 0x1BC0, symBinAddr: 0x6310, symSize: 0x8 }
  - { offset: 0x1D0CD, size: 0x8, addend: 0x0, symName: __ZN8facebook5react31ReactNativeFeatureFlagsDefaults17enableViewCullingEv, symObjAddr: 0x1BC8, symBinAddr: 0x6318, symSize: 0x8 }
  - { offset: 0x1D0F4, size: 0x8, addend: 0x0, symName: __ZN8facebook5react31ReactNativeFeatureFlagsDefaults19enableViewRecyclingEv, symObjAddr: 0x1BD0, symBinAddr: 0x6320, symSize: 0x8 }
  - { offset: 0x1D11B, size: 0x8, addend: 0x0, symName: __ZN8facebook5react31ReactNativeFeatureFlagsDefaults26enableViewRecyclingForTextEv, symObjAddr: 0x1BD8, symBinAddr: 0x6328, symSize: 0x8 }
  - { offset: 0x1D142, size: 0x8, addend: 0x0, symName: __ZN8facebook5react31ReactNativeFeatureFlagsDefaults26enableViewRecyclingForViewEv, symObjAddr: 0x1BE0, symBinAddr: 0x6330, symSize: 0x8 }
  - { offset: 0x1D169, size: 0x8, addend: 0x0, symName: __ZN8facebook5react31ReactNativeFeatureFlagsDefaults30enableVirtualViewDebugFeaturesEv, symObjAddr: 0x1BE8, symBinAddr: 0x6338, symSize: 0x8 }
  - { offset: 0x1D190, size: 0x8, addend: 0x0, symName: __ZN8facebook5react31ReactNativeFeatureFlagsDefaults28enableVirtualViewRenderStateEv, symObjAddr: 0x1BF0, symBinAddr: 0x6340, symSize: 0x8 }
  - { offset: 0x1D1B7, size: 0x8, addend: 0x0, symName: __ZN8facebook5react31ReactNativeFeatureFlagsDefaults37enableVirtualViewWindowFocusDetectionEv, symObjAddr: 0x1BF8, symBinAddr: 0x6348, symSize: 0x8 }
  - { offset: 0x1D1DE, size: 0x8, addend: 0x0, symName: __ZN8facebook5react31ReactNativeFeatureFlagsDefaults48fixMappingOfEventPrioritiesBetweenFabricAndReactEv, symObjAddr: 0x1C00, symBinAddr: 0x6350, symSize: 0x8 }
  - { offset: 0x1D205, size: 0x8, addend: 0x0, symName: __ZN8facebook5react31ReactNativeFeatureFlagsDefaults21fuseboxEnabledReleaseEv, symObjAddr: 0x1C08, symBinAddr: 0x6358, symSize: 0x8 }
  - { offset: 0x1D22C, size: 0x8, addend: 0x0, symName: __ZN8facebook5react31ReactNativeFeatureFlagsDefaults31fuseboxNetworkInspectionEnabledEv, symObjAddr: 0x1C10, symBinAddr: 0x6360, symSize: 0x8 }
  - { offset: 0x1D253, size: 0x8, addend: 0x0, symName: __ZN8facebook5react31ReactNativeFeatureFlagsDefaults30hideOffscreenVirtualViewsOnIOSEv, symObjAddr: 0x1C18, symBinAddr: 0x6368, symSize: 0x8 }
  - { offset: 0x1D27A, size: 0x8, addend: 0x0, symName: __ZN8facebook5react31ReactNativeFeatureFlagsDefaults21preparedTextCacheSizeEv, symObjAddr: 0x1C20, symBinAddr: 0x6370, symSize: 0xC }
  - { offset: 0x1D29F, size: 0x8, addend: 0x0, symName: __ZN8facebook5react31ReactNativeFeatureFlagsDefaults33preventShadowTreeCommitExhaustionEv, symObjAddr: 0x1C2C, symBinAddr: 0x637C, symSize: 0x8 }
  - { offset: 0x1D2C6, size: 0x8, addend: 0x0, symName: __ZN8facebook5react31ReactNativeFeatureFlagsDefaults42traceTurboModulePromiseRejectionsOnAndroidEv, symObjAddr: 0x1C34, symBinAddr: 0x6384, symSize: 0x8 }
  - { offset: 0x1D2ED, size: 0x8, addend: 0x0, symName: __ZN8facebook5react31ReactNativeFeatureFlagsDefaults41updateRuntimeShadowNodeReferencesOnCommitEv, symObjAddr: 0x1C3C, symBinAddr: 0x638C, symSize: 0x8 }
  - { offset: 0x1D314, size: 0x8, addend: 0x0, symName: __ZN8facebook5react31ReactNativeFeatureFlagsDefaults33useAlwaysAvailableJSErrorHandlingEv, symObjAddr: 0x1C44, symBinAddr: 0x6394, symSize: 0x8 }
  - { offset: 0x1D33B, size: 0x8, addend: 0x0, symName: __ZN8facebook5react31ReactNativeFeatureFlagsDefaults16useFabricInteropEv, symObjAddr: 0x1C4C, symBinAddr: 0x639C, symSize: 0x8 }
  - { offset: 0x1D362, size: 0x8, addend: 0x0, symName: __ZN8facebook5react31ReactNativeFeatureFlagsDefaults36useNativeViewConfigsInBridgelessModeEv, symObjAddr: 0x1C54, symBinAddr: 0x63A4, symSize: 0x8 }
  - { offset: 0x1D389, size: 0x8, addend: 0x0, symName: __ZN8facebook5react31ReactNativeFeatureFlagsDefaults34useOptimizedEventBatchingOnAndroidEv, symObjAddr: 0x1C5C, symBinAddr: 0x63AC, symSize: 0x8 }
  - { offset: 0x1D3B0, size: 0x8, addend: 0x0, symName: __ZN8facebook5react31ReactNativeFeatureFlagsDefaults19useRawPropsJsiValueEv, symObjAddr: 0x1C64, symBinAddr: 0x63B4, symSize: 0x8 }
  - { offset: 0x1D3D7, size: 0x8, addend: 0x0, symName: __ZN8facebook5react31ReactNativeFeatureFlagsDefaults25useShadowNodeStateOnCloneEv, symObjAddr: 0x1C6C, symBinAddr: 0x63BC, symSize: 0x8 }
  - { offset: 0x1D3FE, size: 0x8, addend: 0x0, symName: __ZN8facebook5react31ReactNativeFeatureFlagsDefaults21useTurboModuleInteropEv, symObjAddr: 0x1C74, symBinAddr: 0x63C4, symSize: 0x8 }
  - { offset: 0x1D425, size: 0x8, addend: 0x0, symName: __ZN8facebook5react31ReactNativeFeatureFlagsDefaults15useTurboModulesEv, symObjAddr: 0x1C7C, symBinAddr: 0x63CC, symSize: 0x8 }
  - { offset: 0x1D44C, size: 0x8, addend: 0x0, symName: __ZN8facebook5react31ReactNativeFeatureFlagsDefaults25virtualViewPrerenderRatioEv, symObjAddr: 0x1C84, symBinAddr: 0x63D4, symSize: 0x8 }
  - { offset: 0x1D489, size: 0x8, addend: 0x0, symName: __ZNSt3__115basic_stringbufIcNS_11char_traitsIcEENS_9allocatorIcEEE15__init_buf_ptrsB8ne200100Ev, symObjAddr: 0x1D2C, symBinAddr: 0x647C, symSize: 0x104 }
  - { offset: 0x1DA01, size: 0x8, addend: 0x0, symName: __ZNSt3__112basic_stringIcNS_11char_traitsIcEENS_9allocatorIcEEEC2B8ne200100Emc, symObjAddr: 0x20D4, symBinAddr: 0x6824, symSize: 0x9C }
  - { offset: 0x1DC37, size: 0x8, addend: 0x0, symName: __ZNKSt3__115basic_stringbufIcNS_11char_traitsIcEENS_9allocatorIcEEE3strB8ne200100IS4_EENS_12basic_stringIcS2_T_EERKS8_, symObjAddr: 0x2170, symBinAddr: 0x68C0, symSize: 0x90 }
  - { offset: 0x1DDB4, size: 0x8, addend: 0x0, symName: __ZNKSt3__115basic_stringbufIcNS_11char_traitsIcEENS_9allocatorIcEEE4viewB8ne200100Ev, symObjAddr: 0x2200, symBinAddr: 0x6950, symSize: 0x4C }
...
