---
triple:          'arm64-apple-darwin'
binary-path:     '/Users/uk-aplatts/Development/InjuryIQ/ios/DerivedData/Build/Intermediates.noindex/ArchiveIntermediates/InjuryIQ/IntermediateBuildFilesPath/UninstalledProducts/iphoneos/React_runtimescheduler.framework/React_runtimescheduler'
relocations:
  - { offset: 0x33, size: 0x8, addend: 0x0, symName: _React_runtimeschedulerVersionString, symObjAddr: 0x0, symBinAddr: 0x10600, symSize: 0x0 }
  - { offset: 0x67, size: 0x8, addend: 0x0, symName: _React_runtimeschedulerVersionNumber, symObjAddr: 0x38, symBinAddr: 0x10638, symSize: 0x0 }
  - { offset: 0xC5, size: 0x8, addend: 0x0, symName: __ZN8facebook5react19RuntimeSchedulerKeyE, symObjAddr: 0xF04, symBinAddr: 0x10640, symSize: 0x0 }
  - { offset: 0x1ABB4, size: 0x8, addend: 0x0, symName: __ZNSt3__111make_uniqueB8ne200100IN8facebook5react23RuntimeScheduler_ModernEJNS_8functionIFvONS4_IFvRNS1_3jsi7RuntimeEEEEEEENS4_IFNS2_16HighResTimeStampEvEEENS4_IFvS7_RNS5_7JSErrorEEEEELi0EEENS_10unique_ptrIT_NS_14default_deleteISL_EEEEDpOT0_, symObjAddr: 0x774, symBinAddr: 0x4774, symSize: 0x188 }
  - { offset: 0x1B102, size: 0x8, addend: 0x0, symName: __ZNSt3__111make_uniqueB8ne200100IN8facebook5react23RuntimeScheduler_LegacyEJNS_8functionIFvONS4_IFvRNS1_3jsi7RuntimeEEEEEEENS4_IFNS2_16HighResTimeStampEvEEENS4_IFvS7_RNS5_7JSErrorEEEEELi0EEENS_10unique_ptrIT_NS_14default_deleteISL_EEEEDpOT0_, symObjAddr: 0x8FC, symBinAddr: 0x48FC, symSize: 0x188 }
  - { offset: 0x1B6E2, size: 0x8, addend: 0x0, symName: __ZNSt3__120__throw_length_errorB8ne200100EPKc, symObjAddr: 0xAA8, symBinAddr: 0x4AA8, symSize: 0x50 }
  - { offset: 0x1F095, size: 0x8, addend: 0x0, symName: __ZN8facebook5react16RuntimeSchedulerC2ENSt3__18functionIFvONS3_IFvRNS_3jsi7RuntimeEEEEEEENS3_IFNS0_16HighResTimeStampEvEEENS3_IFvS6_RNS4_7JSErrorEEEE, symObjAddr: 0x0, symBinAddr: 0x4000, symSize: 0x19C }
  - { offset: 0x1F5FE, size: 0x8, addend: 0x0, symName: __ZNSt3__110__function12__value_funcIFvONS_8functionIFvRN8facebook3jsi7RuntimeEEEEEEC2B8ne200100EOSB_, symObjAddr: 0xB9C, symBinAddr: 0x4B9C, symSize: 0x64 }
  - { offset: 0x1F64E, size: 0x8, addend: 0x0, symName: __ZNSt3__110__function12__value_funcIFN8facebook5react16HighResTimeStampEvEEC2B8ne200100EOS6_, symObjAddr: 0xC00, symBinAddr: 0x4C00, symSize: 0x64 }
  - { offset: 0x1F69E, size: 0x8, addend: 0x0, symName: __ZNSt3__110__function12__value_funcIFvRN8facebook3jsi7RuntimeERNS3_7JSErrorEEEC2B8ne200100EOS9_, symObjAddr: 0xC64, symBinAddr: 0x4C64, symSize: 0x64 }
  - { offset: 0x1F6EE, size: 0x8, addend: 0x0, symName: __ZN8facebook5react16RuntimeSchedulerC2ENSt3__18functionIFvONS3_IFvRNS_3jsi7RuntimeEEEEEEENS3_IFNS0_16HighResTimeStampEvEEENS3_IFvS6_RNS4_7JSErrorEEEE.cold.1, symObjAddr: 0xCC8, symBinAddr: 0x10258, symSize: 0x50 }
  - { offset: 0x1F7BB, size: 0x8, addend: 0x0, symName: __ZN8facebook5react16RuntimeSchedulerC1ENSt3__18functionIFvONS3_IFvRNS_3jsi7RuntimeEEEEEEENS3_IFNS0_16HighResTimeStampEvEEENS3_IFvS6_RNS4_7JSErrorEEEE, symObjAddr: 0x19C, symBinAddr: 0x419C, symSize: 0x4 }
  - { offset: 0x1F816, size: 0x8, addend: 0x0, symName: __ZN8facebook5react16RuntimeSchedulerC1ENSt3__18functionIFvONS3_IFvRNS_3jsi7RuntimeEEEEEEENS3_IFNS0_16HighResTimeStampEvEEENS3_IFvS6_RNS4_7JSErrorEEEE, symObjAddr: 0x19C, symBinAddr: 0x419C, symSize: 0x4 }
  - { offset: 0x1FD88, size: 0x8, addend: 0x0, symName: __ZN8facebook5react16RuntimeScheduler22handleTaskErrorDefaultERNS_3jsi7RuntimeERNS2_7JSErrorE, symObjAddr: 0x1A0, symBinAddr: 0x41A0, symSize: 0x464 }
  - { offset: 0x20DEC, size: 0x8, addend: 0x0, symName: __ZNSt3__112basic_stringIcNS_11char_traitsIcEENS_9allocatorIcEEE25__init_copy_ctor_externalEPKcm, symObjAddr: 0xB1C, symBinAddr: 0x4B1C, symSize: 0x80 }
  - { offset: 0x20FDA, size: 0x8, addend: 0x0, symName: __ZNSt3__110__function12__value_funcIFvONS_8functionIFvRN8facebook3jsi7RuntimeEEEEEEC2B8ne200100EOSB_, symObjAddr: 0xB9C, symBinAddr: 0x4B9C, symSize: 0x64 }
  - { offset: 0x21001, size: 0x8, addend: 0x0, symName: __ZN8facebook5react16RuntimeScheduler12scheduleWorkEONSt3__18functionIFvRNS_3jsi7RuntimeEEEE, symObjAddr: 0x604, symBinAddr: 0x4604, symSize: 0x10 }
  - { offset: 0x2103B, size: 0x8, addend: 0x0, symName: __ZN8facebook5react16RuntimeScheduler12scheduleWorkEONSt3__18functionIFvRNS_3jsi7RuntimeEEEE, symObjAddr: 0x604, symBinAddr: 0x4604, symSize: 0x10 }
  - { offset: 0x2106D, size: 0x8, addend: 0x0, symName: __ZN8facebook5react16RuntimeScheduler12scheduleTaskENS0_17SchedulerPriorityEONS_3jsi8FunctionE, symObjAddr: 0x614, symBinAddr: 0x4614, symSize: 0x10 }
  - { offset: 0x210B5, size: 0x8, addend: 0x0, symName: __ZN8facebook5react16RuntimeScheduler12scheduleTaskENS0_17SchedulerPriorityEONS_3jsi8FunctionE, symObjAddr: 0x614, symBinAddr: 0x4614, symSize: 0x10 }
  - { offset: 0x210F7, size: 0x8, addend: 0x0, symName: __ZN8facebook5react16RuntimeScheduler12scheduleTaskENS0_17SchedulerPriorityEONSt3__18functionIFvRNS_3jsi7RuntimeEEEE, symObjAddr: 0x624, symBinAddr: 0x4624, symSize: 0x10 }
  - { offset: 0x2113F, size: 0x8, addend: 0x0, symName: __ZN8facebook5react16RuntimeScheduler12scheduleTaskENS0_17SchedulerPriorityEONSt3__18functionIFvRNS_3jsi7RuntimeEEEE, symObjAddr: 0x624, symBinAddr: 0x4624, symSize: 0x10 }
  - { offset: 0x21181, size: 0x8, addend: 0x0, symName: __ZN8facebook5react16RuntimeScheduler16scheduleIdleTaskEONS_3jsi8FunctionENS0_15HighResDurationE, symObjAddr: 0x634, symBinAddr: 0x4634, symSize: 0x10 }
  - { offset: 0x211C9, size: 0x8, addend: 0x0, symName: __ZN8facebook5react16RuntimeScheduler16scheduleIdleTaskEONS_3jsi8FunctionENS0_15HighResDurationE, symObjAddr: 0x634, symBinAddr: 0x4634, symSize: 0x10 }
  - { offset: 0x2120B, size: 0x8, addend: 0x0, symName: __ZN8facebook5react16RuntimeScheduler16scheduleIdleTaskEONSt3__18functionIFvRNS_3jsi7RuntimeEEEENS0_15HighResDurationE, symObjAddr: 0x644, symBinAddr: 0x4644, symSize: 0x10 }
  - { offset: 0x21253, size: 0x8, addend: 0x0, symName: __ZN8facebook5react16RuntimeScheduler16scheduleIdleTaskEONSt3__18functionIFvRNS_3jsi7RuntimeEEEENS0_15HighResDurationE, symObjAddr: 0x644, symBinAddr: 0x4644, symSize: 0x10 }
  - { offset: 0x21295, size: 0x8, addend: 0x0, symName: __ZN8facebook5react16RuntimeScheduler14getShouldYieldEv, symObjAddr: 0x654, symBinAddr: 0x4654, symSize: 0x10 }
  - { offset: 0x212C1, size: 0x8, addend: 0x0, symName: __ZN8facebook5react16RuntimeScheduler14getShouldYieldEv, symObjAddr: 0x654, symBinAddr: 0x4654, symSize: 0x10 }
  - { offset: 0x212EA, size: 0x8, addend: 0x0, symName: __ZN8facebook5react16RuntimeScheduler10cancelTaskERNS0_4TaskE, symObjAddr: 0x664, symBinAddr: 0x4664, symSize: 0x10 }
  - { offset: 0x21324, size: 0x8, addend: 0x0, symName: __ZN8facebook5react16RuntimeScheduler10cancelTaskERNS0_4TaskE, symObjAddr: 0x664, symBinAddr: 0x4664, symSize: 0x10 }
  - { offset: 0x21356, size: 0x8, addend: 0x0, symName: __ZNK8facebook5react16RuntimeScheduler23getCurrentPriorityLevelEv, symObjAddr: 0x674, symBinAddr: 0x4674, symSize: 0x10 }
  - { offset: 0x21382, size: 0x8, addend: 0x0, symName: __ZNK8facebook5react16RuntimeScheduler23getCurrentPriorityLevelEv, symObjAddr: 0x674, symBinAddr: 0x4674, symSize: 0x10 }
  - { offset: 0x213AB, size: 0x8, addend: 0x0, symName: __ZNK8facebook5react16RuntimeScheduler3nowEv, symObjAddr: 0x684, symBinAddr: 0x4684, symSize: 0x10 }
  - { offset: 0x213D7, size: 0x8, addend: 0x0, symName: __ZNK8facebook5react16RuntimeScheduler3nowEv, symObjAddr: 0x684, symBinAddr: 0x4684, symSize: 0x10 }
  - { offset: 0x21400, size: 0x8, addend: 0x0, symName: __ZN8facebook5react16RuntimeScheduler25executeNowOnTheSameThreadEONSt3__18functionIFvRNS_3jsi7RuntimeEEEE, symObjAddr: 0x694, symBinAddr: 0x4694, symSize: 0x10 }
  - { offset: 0x2143A, size: 0x8, addend: 0x0, symName: __ZN8facebook5react16RuntimeScheduler25executeNowOnTheSameThreadEONSt3__18functionIFvRNS_3jsi7RuntimeEEEE, symObjAddr: 0x694, symBinAddr: 0x4694, symSize: 0x10 }
  - { offset: 0x2146C, size: 0x8, addend: 0x0, symName: __ZN8facebook5react16RuntimeScheduler16callExpiredTasksERNS_3jsi7RuntimeE, symObjAddr: 0x6A4, symBinAddr: 0x46A4, symSize: 0x10 }
  - { offset: 0x214A6, size: 0x8, addend: 0x0, symName: __ZN8facebook5react16RuntimeScheduler16callExpiredTasksERNS_3jsi7RuntimeE, symObjAddr: 0x6A4, symBinAddr: 0x46A4, symSize: 0x10 }
  - { offset: 0x214D8, size: 0x8, addend: 0x0, symName: __ZN8facebook5react16RuntimeScheduler23scheduleRenderingUpdateEiONSt3__18functionIFvvEEE, symObjAddr: 0x6B4, symBinAddr: 0x46B4, symSize: 0x10 }
  - { offset: 0x21520, size: 0x8, addend: 0x0, symName: __ZN8facebook5react16RuntimeScheduler23scheduleRenderingUpdateEiONSt3__18functionIFvvEEE, symObjAddr: 0x6B4, symBinAddr: 0x46B4, symSize: 0x10 }
  - { offset: 0x2155A, size: 0x8, addend: 0x0, symName: __ZN8facebook5react16RuntimeScheduler39setShadowTreeRevisionConsistencyManagerEPNS0_36ShadowTreeRevisionConsistencyManagerE, symObjAddr: 0x6C4, symBinAddr: 0x46C4, symSize: 0x10 }
  - { offset: 0x21594, size: 0x8, addend: 0x0, symName: __ZN8facebook5react16RuntimeScheduler39setShadowTreeRevisionConsistencyManagerEPNS0_36ShadowTreeRevisionConsistencyManagerE, symObjAddr: 0x6C4, symBinAddr: 0x46C4, symSize: 0x10 }
  - { offset: 0x215C6, size: 0x8, addend: 0x0, symName: __ZN8facebook5react16RuntimeScheduler27setPerformanceEntryReporterEPNS0_24PerformanceEntryReporterE, symObjAddr: 0x6D4, symBinAddr: 0x46D4, symSize: 0x10 }
  - { offset: 0x21600, size: 0x8, addend: 0x0, symName: __ZN8facebook5react16RuntimeScheduler27setPerformanceEntryReporterEPNS0_24PerformanceEntryReporterE, symObjAddr: 0x6D4, symBinAddr: 0x46D4, symSize: 0x10 }
  - { offset: 0x21632, size: 0x8, addend: 0x0, symName: __ZN8facebook5react16RuntimeScheduler22setEventTimingDelegateEPNS0_35RuntimeSchedulerEventTimingDelegateE, symObjAddr: 0x6E4, symBinAddr: 0x46E4, symSize: 0x10 }
  - { offset: 0x2166C, size: 0x8, addend: 0x0, symName: __ZN8facebook5react16RuntimeScheduler22setEventTimingDelegateEPNS0_35RuntimeSchedulerEventTimingDelegateE, symObjAddr: 0x6E4, symBinAddr: 0x46E4, symSize: 0x10 }
  - { offset: 0x2169E, size: 0x8, addend: 0x0, symName: __ZN8facebook5react16RuntimeScheduler31setIntersectionObserverDelegateEPNS0_44RuntimeSchedulerIntersectionObserverDelegateE, symObjAddr: 0x6F4, symBinAddr: 0x46F4, symSize: 0x10 }
  - { offset: 0x216D8, size: 0x8, addend: 0x0, symName: __ZN8facebook5react16RuntimeScheduler31setIntersectionObserverDelegateEPNS0_44RuntimeSchedulerIntersectionObserverDelegateE, symObjAddr: 0x6F4, symBinAddr: 0x46F4, symSize: 0x10 }
  - { offset: 0x217BD, size: 0x8, addend: 0x0, symName: __ZN8facebook5react16RuntimeSchedulerD1Ev, symObjAddr: 0x704, symBinAddr: 0x4704, symSize: 0x38 }
  - { offset: 0x218C2, size: 0x8, addend: 0x0, symName: __ZN8facebook5react16RuntimeSchedulerD0Ev, symObjAddr: 0x73C, symBinAddr: 0x473C, symSize: 0x38 }
  - { offset: 0x21B61, size: 0x8, addend: 0x0, symName: __ZNSt3__112basic_stringIcNS_11char_traitsIcEENS_9allocatorIcEEE20__throw_length_errorB8ne200100Ev, symObjAddr: 0xA94, symBinAddr: 0x4A94, symSize: 0x14 }
  - { offset: 0x21B79, size: 0x8, addend: 0x0, symName: __ZNSt3__120__throw_length_errorB8ne200100EPKc, symObjAddr: 0xAA8, symBinAddr: 0x4AA8, symSize: 0x50 }
  - { offset: 0x21B84, size: 0x8, addend: 0x0, symName: __ZNSt12length_errorC1B8ne200100EPKc, symObjAddr: 0xAF8, symBinAddr: 0x4AF8, symSize: 0x24 }
  - { offset: 0x21CF8, size: 0x8, addend: 0x0, symName: _OUTLINED_FUNCTION_0, symObjAddr: 0xDB8, symBinAddr: 0x4CC8, symSize: 0xC }
  - { offset: 0x21D10, size: 0x8, addend: 0x0, symName: _OUTLINED_FUNCTION_1, symObjAddr: 0xDC4, symBinAddr: 0x4CD4, symSize: 0x14 }
  - { offset: 0x21D28, size: 0x8, addend: 0x0, symName: _OUTLINED_FUNCTION_2, symObjAddr: 0xDD8, symBinAddr: 0x4CE8, symSize: 0x8 }
  - { offset: 0x24D1C, size: 0x8, addend: 0x0, symName: __ZN8facebook5react8systrace20instrumentsLogHandleE, symObjAddr: 0x53E8, symBinAddr: 0x1C0E0, symSize: 0x0 }
  - { offset: 0x24D38, size: 0x8, addend: 0x0, symName: __ZZN8facebook5react8systraceL31getOrCreateInstrumentsLogHandleEvE4flag, symObjAddr: 0xF0940, symBinAddr: 0x1C130, symSize: 0x0 }
  - { offset: 0x345C8, size: 0x8, addend: 0x0, symName: __ZNSt3__124__put_character_sequenceB8ne200100IcNS_11char_traitsIcEEEERNS_13basic_ostreamIT_T0_EES7_PKS4_m, symObjAddr: 0x2620, symBinAddr: 0x714C, symSize: 0x168 }
  - { offset: 0x35999, size: 0x8, addend: 0x0, symName: __ZNSt3__117__floyd_sift_downB8ne200100INS_17_ClassicAlgPolicyERN8facebook5react20TaskPriorityComparerENS_11__wrap_iterIPNS_10shared_ptrINS3_4TaskEEEEEEET1_SC_OT0_NS_15iterator_traitsISC_E15difference_typeE, symObjAddr: 0x4480, symBinAddr: 0x8F18, symSize: 0x90 }
  - { offset: 0x35FCA, size: 0x8, addend: 0x0, symName: __ZNSt3__125__throw_bad_function_callB8ne200100Ev, symObjAddr: 0x1998, symBinAddr: 0x64C4, symSize: 0x34 }
  - { offset: 0x36158, size: 0x8, addend: 0x0, symName: __ZNSt3__115allocate_sharedB8ne200100IN8facebook5react4TaskENS_9allocatorIS3_EEJRNS2_17SchedulerPriorityENS1_3jsi8FunctionERNS2_16HighResTimeStampEELi0EEENS_10shared_ptrIT_EERKT0_DpOT1_, symObjAddr: 0x3040, symBinAddr: 0x7AEC, symSize: 0x70 }
  - { offset: 0x36437, size: 0x8, addend: 0x0, symName: __ZNSt3__19__sift_upB8ne200100INS_17_ClassicAlgPolicyERN8facebook5react20TaskPriorityComparerENS_11__wrap_iterIPNS_10shared_ptrINS3_4TaskEEEEEEEvT1_SC_OT0_NS_15iterator_traitsISC_E15difference_typeE, symObjAddr: 0x3328, symBinAddr: 0x7DC0, symSize: 0xDC }
  - { offset: 0x36A0C, size: 0x8, addend: 0x0, symName: __ZNSt3__115allocate_sharedB8ne200100IN8facebook5react4TaskENS_9allocatorIS3_EEJRNS2_17SchedulerPriorityENS_8functionIFvRNS1_3jsi7RuntimeEEEERNS2_16HighResTimeStampEELi0EEENS_10shared_ptrIT_EERKT0_DpOT1_, symObjAddr: 0x39DC, symBinAddr: 0x8474, symSize: 0x70 }
  - { offset: 0x37033, size: 0x8, addend: 0x0, symName: __ZNSt3__1plB8ne200100IcNS_11char_traitsIcEENS_9allocatorIcEEEENS_12basic_stringIT_T0_T1_EEOS9_PKS6_, symObjAddr: 0xC44, symBinAddr: 0x5924, symSize: 0x5C }
  - { offset: 0x3720B, size: 0x8, addend: 0x0, symName: __ZNSt3__110__pop_heapB8ne200100INS_17_ClassicAlgPolicyEN8facebook5react20TaskPriorityComparerENS_11__wrap_iterIPNS_10shared_ptrINS3_4TaskEEEEEEEvT1_SB_RT0_NS_15iterator_traitsISB_E15difference_typeE, symObjAddr: 0x438C, symBinAddr: 0x8E24, symSize: 0xF4 }
  - { offset: 0x37A11, size: 0x8, addend: 0x0, symName: __ZNSt3__117__call_once_proxyB8ne200100INS_5tupleIJOZN8facebook5react8systraceL31getOrCreateInstrumentsLogHandleEvEUlvE_EEEEEvPv, symObjAddr: 0x187C, symBinAddr: 0x63A8, symSize: 0x40 }
  - { offset: 0x38665, size: 0x8, addend: 0x0, symName: __ZNSt3__116__pad_and_outputB8ne200100IcNS_11char_traitsIcEEEENS_19ostreambuf_iteratorIT_T0_EES6_PKS4_S8_S8_RNS_8ios_baseES4_, symObjAddr: 0x2788, symBinAddr: 0x72B4, symSize: 0x13C }
  - { offset: 0x38D2E, size: 0x8, addend: 0x0, symName: __ZNSt3__135__uninitialized_allocator_copy_implB8ne200100INS_9allocatorINS_12basic_stringIcNS_11char_traitsIcEENS1_IcEEEEEEPKS6_S9_PS6_EET2_RT_T0_T1_SB_, symObjAddr: 0x2E00, symBinAddr: 0x792C, symSize: 0xBC }
  - { offset: 0x38FD2, size: 0x8, addend: 0x0, symName: __ZNSt3__119__allocate_at_leastB8ne200100INS_9allocatorINS_12basic_stringIcNS_11char_traitsIcEENS1_IcEEEEEEEENS_19__allocation_resultINS_16allocator_traitsIT_E7pointerEEERSA_m, symObjAddr: 0x2DBC, symBinAddr: 0x78E8, symSize: 0x44 }
  - { offset: 0x39083, size: 0x8, addend: 0x0, symName: __ZNSt3__135__uninitialized_allocator_copy_implB8ne200100INS_9allocatorINS_12basic_stringIcNS_11char_traitsIcEENS1_IcEEEEEEPKS6_S9_PS6_EET2_RT_T0_T1_SB_, symObjAddr: 0x2E00, symBinAddr: 0x792C, symSize: 0xBC }
  - { offset: 0x39970, size: 0x8, addend: 0x0, symName: __ZNSt3__119__allocate_at_leastB8ne200100INS_9allocatorINS_10shared_ptrIN8facebook5react4TaskEEEEEEENS_19__allocation_resultINS_16allocator_traitsIT_E7pointerEEERSA_m, symObjAddr: 0x32A8, symBinAddr: 0x7D40, symSize: 0x34 }
  - { offset: 0x39A21, size: 0x8, addend: 0x0, symName: __ZNSt3__114__split_bufferINS_10shared_ptrIN8facebook5react4TaskEEERNS_9allocatorIS5_EEED2Ev, symObjAddr: 0x32DC, symBinAddr: 0x7D74, symSize: 0x4C }
  - { offset: 0x3B19F, size: 0x8, addend: 0x0, symName: __ZSt28__throw_bad_array_new_lengthB8ne200100v, symObjAddr: 0x13F0, symBinAddr: 0x6048, symSize: 0x28 }
  - { offset: 0x3C082, size: 0x8, addend: 0x0, symName: __ZN8facebook5react23RuntimeScheduler_Legacy25executeNowOnTheSameThreadEONSt3__18functionIFvRNS_3jsi7RuntimeEEEE, symObjAddr: 0x5DC, symBinAddr: 0x52BC, symSize: 0x15C }
  - { offset: 0x3C0A8, size: 0x8, addend: 0x0, symName: __ZZN8facebook5react23RuntimeScheduler_Legacy25executeNowOnTheSameThreadEONSt3__18functionIFvRNS_3jsi7RuntimeEEEEE10runtimePtr, symObjAddr: 0x4FB6, symBinAddr: 0x1C0F0, symSize: 0x0 }
  - { offset: 0x3C541, size: 0x8, addend: 0x0, symName: __ZN8facebook5react12TraceSectionD2Ev, symObjAddr: 0x1208, symBinAddr: 0x5EE8, symSize: 0xC8 }
  - { offset: 0x3C69E, size: 0x8, addend: 0x0, symName: __ZN8facebook5react12TraceSectionC2IJEEEPKcDpOT_, symObjAddr: 0x1700, symBinAddr: 0x622C, symSize: 0x17C }
  - { offset: 0x3CCE8, size: 0x8, addend: 0x0, symName: __ZN8facebook5react12TraceSectionC2IJRA9_KciRA13_S3_RA14_S3_EEEPS3_DpOT_, symObjAddr: 0x1DBC, symBinAddr: 0x68E8, symSize: 0x490 }
  - { offset: 0x3E62B, size: 0x8, addend: 0x0, symName: __ZN8facebook5react12TraceSectionC2IJRA9_KciRA13_S3_RA12_S3_EEEPS3_DpOT_, symObjAddr: 0x3468, symBinAddr: 0x7F00, symSize: 0x490 }
  - { offset: 0x3FF6E, size: 0x8, addend: 0x0, symName: __ZN8facebook5react12TraceSectionC2IJRA9_KciRA23_S3_RbEEEPS3_DpOT_, symObjAddr: 0x3D40, symBinAddr: 0x87D8, symSize: 0x490 }
  - { offset: 0x41A93, size: 0x8, addend: 0x0, symName: __ZN8facebook5react23RuntimeScheduler_Legacy12scheduleWorkEONSt3__18functionIFvRNS_3jsi7RuntimeEEEE, symObjAddr: 0x78, symBinAddr: 0x4D68, symSize: 0x14C }
  - { offset: 0x423CA, size: 0x8, addend: 0x0, symName: __ZN8facebook5react23RuntimeScheduler_Legacy27scheduleWorkLoopIfNecessaryEv, symObjAddr: 0x30C, symBinAddr: 0x4FEC, symSize: 0x108 }
  - { offset: 0x42D1E, size: 0x8, addend: 0x0, symName: __ZN8facebook5react23RuntimeScheduler_LegacyC2ENSt3__18functionIFvONS3_IFvRNS_3jsi7RuntimeEEEEEEENS3_IFNS0_16HighResTimeStampEvEEENS3_IFvS6_RNS4_7JSErrorEEEE, symObjAddr: 0x0, symBinAddr: 0x4CF0, symSize: 0x74 }
  - { offset: 0x43316, size: 0x8, addend: 0x0, symName: __ZN8facebook5react23RuntimeScheduler_LegacyC1ENSt3__18functionIFvONS3_IFvRNS_3jsi7RuntimeEEEEEEENS3_IFNS0_16HighResTimeStampEvEEENS3_IFvS6_RNS4_7JSErrorEEEE, symObjAddr: 0x74, symBinAddr: 0x4D64, symSize: 0x4 }
  - { offset: 0x43371, size: 0x8, addend: 0x0, symName: __ZN8facebook5react23RuntimeScheduler_LegacyC1ENSt3__18functionIFvONS3_IFvRNS_3jsi7RuntimeEEEEEEENS3_IFNS0_16HighResTimeStampEvEEENS3_IFvS6_RNS4_7JSErrorEEEE, symObjAddr: 0x74, symBinAddr: 0x4D64, symSize: 0x4 }
  - { offset: 0x4388E, size: 0x8, addend: 0x0, symName: __ZNSt3__110__function12__value_funcIFvRN8facebook3jsi7RuntimeEEEC2B8ne200100EOS7_, symObjAddr: 0x1934, symBinAddr: 0x6460, symSize: 0x64 }
  - { offset: 0x439D6, size: 0x8, addend: 0x0, symName: __ZN8facebook5react23RuntimeScheduler_Legacy12scheduleTaskENS0_17SchedulerPriorityEONS_3jsi8FunctionE, symObjAddr: 0x1D4, symBinAddr: 0x4EB4, symSize: 0x138 }
  - { offset: 0x43D03, size: 0x8, addend: 0x0, symName: __ZNSt3__16vectorINS_10shared_ptrIN8facebook5react4TaskEEENS_9allocatorIS5_EEE9push_backB8ne200100ERKS5_, symObjAddr: 0x3174, symBinAddr: 0x7C20, symSize: 0x120 }
  - { offset: 0x444C0, size: 0x8, addend: 0x0, symName: __ZN8facebook5react23RuntimeScheduler_Legacy12scheduleTaskENS0_17SchedulerPriorityEONSt3__18functionIFvRNS_3jsi7RuntimeEEEE, symObjAddr: 0x414, symBinAddr: 0x50F4, symSize: 0x138 }
  - { offset: 0x44833, size: 0x8, addend: 0x0, symName: __ZN8facebook5react23RuntimeScheduler_Legacy16scheduleIdleTaskEONS_3jsi8FunctionENS0_15HighResDurationE, symObjAddr: 0x54C, symBinAddr: 0x522C, symSize: 0x8 }
  - { offset: 0x4486B, size: 0x8, addend: 0x0, symName: __ZN8facebook5react23RuntimeScheduler_Legacy16scheduleIdleTaskEONS_3jsi8FunctionENS0_15HighResDurationE, symObjAddr: 0x54C, symBinAddr: 0x522C, symSize: 0x8 }
  - { offset: 0x4488F, size: 0x8, addend: 0x0, symName: __ZN8facebook5react23RuntimeScheduler_Legacy16scheduleIdleTaskEONS_3jsi8FunctionENS0_15HighResDurationE, symObjAddr: 0x54C, symBinAddr: 0x522C, symSize: 0x8 }
  - { offset: 0x448B3, size: 0x8, addend: 0x0, symName: __ZN8facebook5react23RuntimeScheduler_Legacy16scheduleIdleTaskEONSt3__18functionIFvRNS_3jsi7RuntimeEEEENS0_15HighResDurationE, symObjAddr: 0x554, symBinAddr: 0x5234, symSize: 0x8 }
  - { offset: 0x448EB, size: 0x8, addend: 0x0, symName: __ZN8facebook5react23RuntimeScheduler_Legacy16scheduleIdleTaskEONSt3__18functionIFvRNS_3jsi7RuntimeEEEENS0_15HighResDurationE, symObjAddr: 0x554, symBinAddr: 0x5234, symSize: 0x8 }
  - { offset: 0x4490F, size: 0x8, addend: 0x0, symName: __ZN8facebook5react23RuntimeScheduler_Legacy16scheduleIdleTaskEONSt3__18functionIFvRNS_3jsi7RuntimeEEEENS0_15HighResDurationE, symObjAddr: 0x554, symBinAddr: 0x5234, symSize: 0x8 }
  - { offset: 0x4497B, size: 0x8, addend: 0x0, symName: __ZN8facebook5react23RuntimeScheduler_Legacy14getShouldYieldEv, symObjAddr: 0x55C, symBinAddr: 0x523C, symSize: 0x14 }
  - { offset: 0x44B88, size: 0x8, addend: 0x0, symName: __ZN8facebook5react23RuntimeScheduler_Legacy10cancelTaskERNS0_4TaskE, symObjAddr: 0x570, symBinAddr: 0x5250, symSize: 0x34 }
  - { offset: 0x44CDF, size: 0x8, addend: 0x0, symName: __ZNSt3__116__variant_detail6__dtorINS0_8__traitsIJN8facebook3jsi8FunctionENS_8functionIFvRNS4_7RuntimeEEEEEEELNS0_6_TraitE1EE9__destroyB8ne200100Ev, symObjAddr: 0x12D0, symBinAddr: 0x5FB0, symSize: 0x54 }
  - { offset: 0x44E08, size: 0x8, addend: 0x0, symName: __ZNK8facebook5react23RuntimeScheduler_Legacy23getCurrentPriorityLevelEv, symObjAddr: 0x5A4, symBinAddr: 0x5284, symSize: 0x8 }
  - { offset: 0x44E31, size: 0x8, addend: 0x0, symName: __ZNK8facebook5react23RuntimeScheduler_Legacy3nowEv, symObjAddr: 0x5AC, symBinAddr: 0x528C, symSize: 0x30 }
  - { offset: 0x4541A, size: 0x8, addend: 0x0, symName: __ZN8facebook5react23RuntimeScheduler_Legacy16callExpiredTasksERNS_3jsi7RuntimeE, symObjAddr: 0x738, symBinAddr: 0x5418, symSize: 0x2C0 }
  - { offset: 0x45E3D, size: 0x8, addend: 0x0, symName: __ZN8facebook5react23RuntimeScheduler_Legacy11executeTaskERNS_3jsi7RuntimeERKNSt3__110shared_ptrINS0_4TaskEEEb, symObjAddr: 0x9F8, symBinAddr: 0x56D8, symSize: 0x24C }
  - { offset: 0x466EC, size: 0x8, addend: 0x0, symName: __ZNSt3__110shared_ptrIN8facebook5react4TaskEED2B8ne200100Ev, symObjAddr: 0x16A8, symBinAddr: 0x61D4, symSize: 0x58 }
  - { offset: 0x4677E, size: 0x8, addend: 0x0, symName: __ZNSt3__112basic_stringIcNS_11char_traitsIcEENS_9allocatorIcEEEC2B8ne200100ILi0EEEPKc, symObjAddr: 0x1418, symBinAddr: 0x6070, symSize: 0xA4 }
  - { offset: 0x46A02, size: 0x8, addend: 0x0, symName: __ZNSt3__116__variant_detail12__assignmentINS0_8__traitsIJN8facebook3jsi8FunctionENS_8functionIFvRNS4_7RuntimeEEEEEEEE12__assign_altB8ne200100ILm0ES5_S5_EEvRNS0_5__altIXT_ET0_EEOT1_, symObjAddr: 0x14BC, symBinAddr: 0x6114, symSize: 0x50 }
  - { offset: 0x46E66, size: 0x8, addend: 0x0, symName: __ZNSt3__18optionalINS_7variantIJN8facebook3jsi8FunctionENS_8functionIFvRNS3_7RuntimeEEEEEEEEaSB8ne200100IS4_vEERSB_OT_, symObjAddr: 0x1030, symBinAddr: 0x5D10, symSize: 0x5C }
  - { offset: 0x473AB, size: 0x8, addend: 0x0, symName: __ZN8facebook5react23RuntimeScheduler_Legacy23scheduleRenderingUpdateEiONSt3__18functionIFvvEEE, symObjAddr: 0xCA0, symBinAddr: 0x5980, symSize: 0x98 }
  - { offset: 0x4758D, size: 0x8, addend: 0x0, symName: __ZN8facebook5react23RuntimeScheduler_Legacy39setShadowTreeRevisionConsistencyManagerEPNS0_36ShadowTreeRevisionConsistencyManagerE, symObjAddr: 0xD38, symBinAddr: 0x5A18, symSize: 0xC }
  - { offset: 0x47643, size: 0x8, addend: 0x0, symName: __ZN8facebook5react23RuntimeScheduler_Legacy27setPerformanceEntryReporterEPNS0_24PerformanceEntryReporterE, symObjAddr: 0xD44, symBinAddr: 0x5A24, symSize: 0x4 }
  - { offset: 0x47670, size: 0x8, addend: 0x0, symName: __ZN8facebook5react23RuntimeScheduler_Legacy22setEventTimingDelegateEPNS0_35RuntimeSchedulerEventTimingDelegateE, symObjAddr: 0xD48, symBinAddr: 0x5A28, symSize: 0x4 }
  - { offset: 0x4769D, size: 0x8, addend: 0x0, symName: __ZN8facebook5react23RuntimeScheduler_Legacy31setIntersectionObserverDelegateEPNS0_44RuntimeSchedulerIntersectionObserverDelegateE, symObjAddr: 0xD4C, symBinAddr: 0x5A2C, symSize: 0x4 }
  - { offset: 0x476E2, size: 0x8, addend: 0x0, symName: __ZN8facebook5react23RuntimeScheduler_Legacy13startWorkLoopERNS_3jsi7RuntimeE, symObjAddr: 0xD50, symBinAddr: 0x5A30, symSize: 0x2E0 }
  - { offset: 0x48778, size: 0x8, addend: 0x0, symName: __ZNSt3__116__variant_detail12__assignmentINS0_8__traitsIJN8facebook3jsi8FunctionENS_8functionIFvRNS4_7RuntimeEEEEEEEE12__assign_altB8ne200100ILm0ES5_S5_EEvRNS0_5__altIXT_ET0_EEOT1_, symObjAddr: 0x14BC, symBinAddr: 0x6114, symSize: 0x50 }
  - { offset: 0x48CA8, size: 0x8, addend: 0x0, symName: __ZN8facebook5react23RuntimeScheduler_LegacyD1Ev, symObjAddr: 0x108C, symBinAddr: 0x5D6C, symSize: 0xBC }
  - { offset: 0x48F78, size: 0x8, addend: 0x0, symName: __ZNSt3__16vectorINS_10shared_ptrIN8facebook5react4TaskEEENS_9allocatorIS5_EEE16__destroy_vectorclB8ne200100Ev, symObjAddr: 0x150C, symBinAddr: 0x6164, symSize: 0x70 }
  - { offset: 0x4911B, size: 0x8, addend: 0x0, symName: __ZN8facebook5react23RuntimeScheduler_LegacyD0Ev, symObjAddr: 0x1148, symBinAddr: 0x5E28, symSize: 0xC0 }
  - { offset: 0x49645, size: 0x8, addend: 0x0, symName: __ZNSt3__116__variant_detail12__visitation6__base12__dispatcherIJLm0EEE10__dispatchB8ne200100IOZNS0_6__dtorINS0_8__traitsIJN8facebook3jsi8FunctionENS_8functionIFvRNS9_7RuntimeEEEEEEELNS0_6_TraitE1EE9__destroyB8ne200100EvEUlRT_E_JRNS0_6__baseILSH_1EJSA_SF_EEEEEEDcSJ_DpT0_, symObjAddr: 0x1324, symBinAddr: 0x6004, symSize: 0x18 }
  - { offset: 0x4967F, size: 0x8, addend: 0x0, symName: __ZNSt3__116__variant_detail12__visitation6__base12__dispatcherIJLm0EEE10__dispatchB8ne200100IOZNS0_6__dtorINS0_8__traitsIJN8facebook3jsi8FunctionENS_8functionIFvRNS9_7RuntimeEEEEEEELNS0_6_TraitE1EE9__destroyB8ne200100EvEUlRT_E_JRNS0_6__baseILSH_1EJSA_SF_EEEEEEDcSJ_DpT0_, symObjAddr: 0x1324, symBinAddr: 0x6004, symSize: 0x18 }
  - { offset: 0x496A9, size: 0x8, addend: 0x0, symName: __ZNSt3__116__variant_detail12__visitation6__base12__dispatcherIJLm0EEE10__dispatchB8ne200100IOZNS0_6__dtorINS0_8__traitsIJN8facebook3jsi8FunctionENS_8functionIFvRNS9_7RuntimeEEEEEEELNS0_6_TraitE1EE9__destroyB8ne200100EvEUlRT_E_JRNS0_6__baseILSH_1EJSA_SF_EEEEEEDcSJ_DpT0_, symObjAddr: 0x1324, symBinAddr: 0x6004, symSize: 0x18 }
  - { offset: 0x496D2, size: 0x8, addend: 0x0, symName: __ZNSt3__116__variant_detail12__visitation6__base12__dispatcherIJLm0EEE10__dispatchB8ne200100IOZNS0_6__dtorINS0_8__traitsIJN8facebook3jsi8FunctionENS_8functionIFvRNS9_7RuntimeEEEEEEELNS0_6_TraitE1EE9__destroyB8ne200100EvEUlRT_E_JRNS0_6__baseILSH_1EJSA_SF_EEEEEEDcSJ_DpT0_, symObjAddr: 0x1324, symBinAddr: 0x6004, symSize: 0x18 }
  - { offset: 0x496F2, size: 0x8, addend: 0x0, symName: __ZNSt3__116__variant_detail12__visitation6__base12__dispatcherIJLm0EEE10__dispatchB8ne200100IOZNS0_6__dtorINS0_8__traitsIJN8facebook3jsi8FunctionENS_8functionIFvRNS9_7RuntimeEEEEEEELNS0_6_TraitE1EE9__destroyB8ne200100EvEUlRT_E_JRNS0_6__baseILSH_1EJSA_SF_EEEEEEDcSJ_DpT0_, symObjAddr: 0x1324, symBinAddr: 0x6004, symSize: 0x18 }
  - { offset: 0x49712, size: 0x8, addend: 0x0, symName: __ZNSt3__116__variant_detail12__visitation6__base12__dispatcherIJLm0EEE10__dispatchB8ne200100IOZNS0_6__dtorINS0_8__traitsIJN8facebook3jsi8FunctionENS_8functionIFvRNS9_7RuntimeEEEEEEELNS0_6_TraitE1EE9__destroyB8ne200100EvEUlRT_E_JRNS0_6__baseILSH_1EJSA_SF_EEEEEEDcSJ_DpT0_, symObjAddr: 0x1324, symBinAddr: 0x6004, symSize: 0x18 }
  - { offset: 0x49732, size: 0x8, addend: 0x0, symName: __ZNSt3__116__variant_detail12__visitation6__base12__dispatcherIJLm0EEE10__dispatchB8ne200100IOZNS0_6__dtorINS0_8__traitsIJN8facebook3jsi8FunctionENS_8functionIFvRNS9_7RuntimeEEEEEEELNS0_6_TraitE1EE9__destroyB8ne200100EvEUlRT_E_JRNS0_6__baseILSH_1EJSA_SF_EEEEEEDcSJ_DpT0_, symObjAddr: 0x1324, symBinAddr: 0x6004, symSize: 0x18 }
  - { offset: 0x49752, size: 0x8, addend: 0x0, symName: __ZNSt3__116__variant_detail12__visitation6__base12__dispatcherIJLm0EEE10__dispatchB8ne200100IOZNS0_6__dtorINS0_8__traitsIJN8facebook3jsi8FunctionENS_8functionIFvRNS9_7RuntimeEEEEEEELNS0_6_TraitE1EE9__destroyB8ne200100EvEUlRT_E_JRNS0_6__baseILSH_1EJSA_SF_EEEEEEDcSJ_DpT0_, symObjAddr: 0x1324, symBinAddr: 0x6004, symSize: 0x18 }
  - { offset: 0x49772, size: 0x8, addend: 0x0, symName: __ZNSt3__116__variant_detail12__visitation6__base12__dispatcherIJLm0EEE10__dispatchB8ne200100IOZNS0_6__dtorINS0_8__traitsIJN8facebook3jsi8FunctionENS_8functionIFvRNS9_7RuntimeEEEEEEELNS0_6_TraitE1EE9__destroyB8ne200100EvEUlRT_E_JRNS0_6__baseILSH_1EJSA_SF_EEEEEEDcSJ_DpT0_, symObjAddr: 0x1324, symBinAddr: 0x6004, symSize: 0x18 }
  - { offset: 0x49833, size: 0x8, addend: 0x0, symName: __ZNSt3__116__variant_detail12__visitation6__base12__dispatcherIJLm1EEE10__dispatchB8ne200100IOZNS0_6__dtorINS0_8__traitsIJN8facebook3jsi8FunctionENS_8functionIFvRNS9_7RuntimeEEEEEEELNS0_6_TraitE1EE9__destroyB8ne200100EvEUlRT_E_JRNS0_6__baseILSH_1EJSA_SF_EEEEEEDcSJ_DpT0_, symObjAddr: 0x133C, symBinAddr: 0x601C, symSize: 0x2C }
  - { offset: 0x4986D, size: 0x8, addend: 0x0, symName: __ZNSt3__116__variant_detail12__visitation6__base12__dispatcherIJLm1EEE10__dispatchB8ne200100IOZNS0_6__dtorINS0_8__traitsIJN8facebook3jsi8FunctionENS_8functionIFvRNS9_7RuntimeEEEEEEELNS0_6_TraitE1EE9__destroyB8ne200100EvEUlRT_E_JRNS0_6__baseILSH_1EJSA_SF_EEEEEEDcSJ_DpT0_, symObjAddr: 0x133C, symBinAddr: 0x601C, symSize: 0x2C }
  - { offset: 0x49897, size: 0x8, addend: 0x0, symName: __ZNSt3__116__variant_detail12__visitation6__base12__dispatcherIJLm1EEE10__dispatchB8ne200100IOZNS0_6__dtorINS0_8__traitsIJN8facebook3jsi8FunctionENS_8functionIFvRNS9_7RuntimeEEEEEEELNS0_6_TraitE1EE9__destroyB8ne200100EvEUlRT_E_JRNS0_6__baseILSH_1EJSA_SF_EEEEEEDcSJ_DpT0_, symObjAddr: 0x133C, symBinAddr: 0x601C, symSize: 0x2C }
  - { offset: 0x498C0, size: 0x8, addend: 0x0, symName: __ZNSt3__116__variant_detail12__visitation6__base12__dispatcherIJLm1EEE10__dispatchB8ne200100IOZNS0_6__dtorINS0_8__traitsIJN8facebook3jsi8FunctionENS_8functionIFvRNS9_7RuntimeEEEEEEELNS0_6_TraitE1EE9__destroyB8ne200100EvEUlRT_E_JRNS0_6__baseILSH_1EJSA_SF_EEEEEEDcSJ_DpT0_, symObjAddr: 0x133C, symBinAddr: 0x601C, symSize: 0x2C }
  - { offset: 0x498E0, size: 0x8, addend: 0x0, symName: __ZNSt3__116__variant_detail12__visitation6__base12__dispatcherIJLm1EEE10__dispatchB8ne200100IOZNS0_6__dtorINS0_8__traitsIJN8facebook3jsi8FunctionENS_8functionIFvRNS9_7RuntimeEEEEEEELNS0_6_TraitE1EE9__destroyB8ne200100EvEUlRT_E_JRNS0_6__baseILSH_1EJSA_SF_EEEEEEDcSJ_DpT0_, symObjAddr: 0x133C, symBinAddr: 0x601C, symSize: 0x2C }
  - { offset: 0x49900, size: 0x8, addend: 0x0, symName: __ZNSt3__116__variant_detail12__visitation6__base12__dispatcherIJLm1EEE10__dispatchB8ne200100IOZNS0_6__dtorINS0_8__traitsIJN8facebook3jsi8FunctionENS_8functionIFvRNS9_7RuntimeEEEEEEELNS0_6_TraitE1EE9__destroyB8ne200100EvEUlRT_E_JRNS0_6__baseILSH_1EJSA_SF_EEEEEEDcSJ_DpT0_, symObjAddr: 0x133C, symBinAddr: 0x601C, symSize: 0x2C }
  - { offset: 0x49920, size: 0x8, addend: 0x0, symName: __ZNSt3__116__variant_detail12__visitation6__base12__dispatcherIJLm1EEE10__dispatchB8ne200100IOZNS0_6__dtorINS0_8__traitsIJN8facebook3jsi8FunctionENS_8functionIFvRNS9_7RuntimeEEEEEEELNS0_6_TraitE1EE9__destroyB8ne200100EvEUlRT_E_JRNS0_6__baseILSH_1EJSA_SF_EEEEEEDcSJ_DpT0_, symObjAddr: 0x133C, symBinAddr: 0x601C, symSize: 0x2C }
  - { offset: 0x49940, size: 0x8, addend: 0x0, symName: __ZNSt3__116__variant_detail12__visitation6__base12__dispatcherIJLm1EEE10__dispatchB8ne200100IOZNS0_6__dtorINS0_8__traitsIJN8facebook3jsi8FunctionENS_8functionIFvRNS9_7RuntimeEEEEEEELNS0_6_TraitE1EE9__destroyB8ne200100EvEUlRT_E_JRNS0_6__baseILSH_1EJSA_SF_EEEEEEDcSJ_DpT0_, symObjAddr: 0x133C, symBinAddr: 0x601C, symSize: 0x2C }
  - { offset: 0x49960, size: 0x8, addend: 0x0, symName: __ZNSt3__116__variant_detail12__visitation6__base12__dispatcherIJLm1EEE10__dispatchB8ne200100IOZNS0_6__dtorINS0_8__traitsIJN8facebook3jsi8FunctionENS_8functionIFvRNS9_7RuntimeEEEEEEELNS0_6_TraitE1EE9__destroyB8ne200100EvEUlRT_E_JRNS0_6__baseILSH_1EJSA_SF_EEEEEEDcSJ_DpT0_, symObjAddr: 0x133C, symBinAddr: 0x601C, symSize: 0x2C }
  - { offset: 0x4A07C, size: 0x8, addend: 0x0, symName: __ZNSt3__112basic_stringIcNS_11char_traitsIcEENS_9allocatorIcEEEC2B8ne200100ENS_24__uninitialized_size_tagEmRKS4_, symObjAddr: 0x18BC, symBinAddr: 0x63E8, symSize: 0x78 }
  - { offset: 0x4A233, size: 0x8, addend: 0x0, symName: __ZNSt3__110__function12__value_funcIFvRN8facebook3jsi7RuntimeEEEC2B8ne200100EOS7_, symObjAddr: 0x1934, symBinAddr: 0x6460, symSize: 0x64 }
  - { offset: 0x4A2A9, size: 0x8, addend: 0x0, symName: __ZNSt3__117bad_function_callD1Ev, symObjAddr: 0x19CC, symBinAddr: 0x64F8, symSize: 0x4 }
  - { offset: 0x4A2CD, size: 0x8, addend: 0x0, symName: __ZNSt3__117bad_function_callD1Ev, symObjAddr: 0x19CC, symBinAddr: 0x64F8, symSize: 0x4 }
  - { offset: 0x4A302, size: 0x8, addend: 0x0, symName: __ZNSt3__117bad_function_callD0Ev, symObjAddr: 0x19D0, symBinAddr: 0x64FC, symSize: 0x14 }
  - { offset: 0x4A3BC, size: 0x8, addend: 0x0, symName: '__ZNSt3__110__function6__funcIZN8facebook5react23RuntimeScheduler_Legacy12scheduleWorkEONS_8functionIFvRNS2_3jsi7RuntimeEEEEE3$_0NS_9allocatorISC_EES9_ED1Ev', symObjAddr: 0x19E4, symBinAddr: 0x6510, symSize: 0x58 }
  - { offset: 0x4A52B, size: 0x8, addend: 0x0, symName: '__ZNSt3__110__function6__funcIZN8facebook5react23RuntimeScheduler_Legacy12scheduleWorkEONS_8functionIFvRNS2_3jsi7RuntimeEEEEE3$_0NS_9allocatorISC_EES9_ED0Ev', symObjAddr: 0x1A3C, symBinAddr: 0x6568, symSize: 0x58 }
  - { offset: 0x4A950, size: 0x8, addend: 0x0, symName: '__ZNKSt3__110__function6__funcIZN8facebook5react23RuntimeScheduler_Legacy12scheduleWorkEONS_8functionIFvRNS2_3jsi7RuntimeEEEEE3$_0NS_9allocatorISC_EES9_E7__cloneEv', symObjAddr: 0x1A94, symBinAddr: 0x65C0, symSize: 0x58 }
  - { offset: 0x4AC2E, size: 0x8, addend: 0x0, symName: __ZNSt3__110__function12__value_funcIFvRN8facebook3jsi7RuntimeEEEC2B8ne200100ERKS7_, symObjAddr: 0x1D0C, symBinAddr: 0x6838, symSize: 0x64 }
  - { offset: 0x4AD52, size: 0x8, addend: 0x0, symName: '__ZNKSt3__110__function6__funcIZN8facebook5react23RuntimeScheduler_Legacy12scheduleWorkEONS_8functionIFvRNS2_3jsi7RuntimeEEEEE3$_0NS_9allocatorISC_EES9_E7__cloneEPNS0_6__baseIS9_EE', symObjAddr: 0x1AEC, symBinAddr: 0x6618, symSize: 0x20 }
  - { offset: 0x4AEF8, size: 0x8, addend: 0x0, symName: '__ZNSt3__110__function6__funcIZN8facebook5react23RuntimeScheduler_Legacy12scheduleWorkEONS_8functionIFvRNS2_3jsi7RuntimeEEEEE3$_0NS_9allocatorISC_EES9_E7destroyEv', symObjAddr: 0x1B0C, symBinAddr: 0x6638, symSize: 0x30 }
  - { offset: 0x4AF22, size: 0x8, addend: 0x0, symName: '__ZNSt3__110__function6__funcIZN8facebook5react23RuntimeScheduler_Legacy12scheduleWorkEONS_8functionIFvRNS2_3jsi7RuntimeEEEEE3$_0NS_9allocatorISC_EES9_E7destroyEv', symObjAddr: 0x1B0C, symBinAddr: 0x6638, symSize: 0x30 }
  - { offset: 0x4AF42, size: 0x8, addend: 0x0, symName: '__ZNSt3__110__function6__funcIZN8facebook5react23RuntimeScheduler_Legacy12scheduleWorkEONS_8functionIFvRNS2_3jsi7RuntimeEEEEE3$_0NS_9allocatorISC_EES9_E7destroyEv', symObjAddr: 0x1B0C, symBinAddr: 0x6638, symSize: 0x30 }
  - { offset: 0x4AF61, size: 0x8, addend: 0x0, symName: '__ZNSt3__110__function6__funcIZN8facebook5react23RuntimeScheduler_Legacy12scheduleWorkEONS_8functionIFvRNS2_3jsi7RuntimeEEEEE3$_0NS_9allocatorISC_EES9_E7destroyEv', symObjAddr: 0x1B0C, symBinAddr: 0x6638, symSize: 0x30 }
  - { offset: 0x4B00F, size: 0x8, addend: 0x0, symName: '__ZNSt3__110__function6__funcIZN8facebook5react23RuntimeScheduler_Legacy12scheduleWorkEONS_8functionIFvRNS2_3jsi7RuntimeEEEEE3$_0NS_9allocatorISC_EES9_E18destroy_deallocateEv', symObjAddr: 0x1B3C, symBinAddr: 0x6668, symSize: 0x4C }
  - { offset: 0x4B2AC, size: 0x8, addend: 0x0, symName: '__ZNSt3__110__function6__funcIZN8facebook5react23RuntimeScheduler_Legacy12scheduleWorkEONS_8functionIFvRNS2_3jsi7RuntimeEEEEE3$_0NS_9allocatorISC_EES9_EclES8_', symObjAddr: 0x1B88, symBinAddr: 0x66B4, symSize: 0x13C }
  - { offset: 0x4B65B, size: 0x8, addend: 0x0, symName: '__ZNKSt3__110__function6__funcIZN8facebook5react23RuntimeScheduler_Legacy12scheduleWorkEONS_8functionIFvRNS2_3jsi7RuntimeEEEEE3$_0NS_9allocatorISC_EES9_E6targetERKSt9type_info', symObjAddr: 0x1CC4, symBinAddr: 0x67F0, symSize: 0x3C }
  - { offset: 0x4B6AA, size: 0x8, addend: 0x0, symName: __ZNKSt9type_infoeqB8ne200100ERKS_, symObjAddr: 0x1D70, symBinAddr: 0x689C, symSize: 0x4C }
  - { offset: 0x4B74F, size: 0x8, addend: 0x0, symName: '__ZNKSt3__110__function6__funcIZN8facebook5react23RuntimeScheduler_Legacy12scheduleWorkEONS_8functionIFvRNS2_3jsi7RuntimeEEEEE3$_0NS_9allocatorISC_EES9_E11target_typeEv', symObjAddr: 0x1D00, symBinAddr: 0x682C, symSize: 0xC }
  - { offset: 0x4B9A8, size: 0x8, addend: 0x0, symName: __ZN8facebook5react8systrace8rendererIA9_cvE6renderERA9_Kc, symObjAddr: 0x224C, symBinAddr: 0x6D78, symSize: 0xE4 }
  - { offset: 0x4BC9C, size: 0x8, addend: 0x0, symName: __ZN8facebook5react8systrace8rendererIivE6renderERKi, symObjAddr: 0x2A3C, symBinAddr: 0x7568, symSize: 0xD8 }
  - { offset: 0x4BEFA, size: 0x8, addend: 0x0, symName: __ZN8facebook5react8systrace8rendererIA13_cvE6renderERA13_Kc, symObjAddr: 0x2B14, symBinAddr: 0x7640, symSize: 0xE4 }
  - { offset: 0x4C1EE, size: 0x8, addend: 0x0, symName: __ZN8facebook5react8systrace8rendererIA14_cvE6renderERA14_Kc, symObjAddr: 0x2BF8, symBinAddr: 0x7724, symSize: 0xE4 }
  - { offset: 0x4C4E2, size: 0x8, addend: 0x0, symName: __ZNSt3__16vectorINS_12basic_stringIcNS_11char_traitsIcEENS_9allocatorIcEEEENS4_IS6_EEE16__init_with_sizeB8ne200100IPKS6_SB_EEvT_T0_m, symObjAddr: 0x2CDC, symBinAddr: 0x7808, symSize: 0x84 }
  - { offset: 0x4C765, size: 0x8, addend: 0x0, symName: __ZNSt3__16vectorINS_12basic_stringIcNS_11char_traitsIcEENS_9allocatorIcEEEENS4_IS6_EEE16__destroy_vectorclB8ne200100Ev, symObjAddr: 0x2FB4, symBinAddr: 0x7A60, symSize: 0x40 }
  - { offset: 0x4C93C, size: 0x8, addend: 0x0, symName: __ZNSt3__119basic_ostringstreamIcNS_11char_traitsIcEENS_9allocatorIcEEEC1B8ne200100Ev, symObjAddr: 0x2330, symBinAddr: 0x6E5C, symSize: 0xC4 }
  - { offset: 0x4CA40, size: 0x8, addend: 0x0, symName: __ZNKSt3__115basic_stringbufIcNS_11char_traitsIcEENS_9allocatorIcEEE3strB8ne200100IS4_EENS_12basic_stringIcS2_T_EERKS8_, symObjAddr: 0x2960, symBinAddr: 0x748C, symSize: 0x90 }
  - { offset: 0x4CCB2, size: 0x8, addend: 0x0, symName: __ZNKSt3__115basic_stringbufIcNS_11char_traitsIcEENS_9allocatorIcEEE4viewB8ne200100Ev, symObjAddr: 0x29F0, symBinAddr: 0x751C, symSize: 0x4C }
  - { offset: 0x4CCC6, size: 0x8, addend: 0x0, symName: __ZNSt3__119basic_ostringstreamIcNS_11char_traitsIcEENS_9allocatorIcEEED1Ev, symObjAddr: 0x23F4, symBinAddr: 0x6F20, symSize: 0x88 }
  - { offset: 0x4CF6E, size: 0x8, addend: 0x0, symName: __ZNSt3__115basic_stringbufIcNS_11char_traitsIcEENS_9allocatorIcEEEC2B8ne200100Ej, symObjAddr: 0x247C, symBinAddr: 0x6FA8, symSize: 0xA0 }
  - { offset: 0x4D107, size: 0x8, addend: 0x0, symName: __ZNSt3__115basic_stringbufIcNS_11char_traitsIcEENS_9allocatorIcEEE15__init_buf_ptrsB8ne200100Ev, symObjAddr: 0x251C, symBinAddr: 0x7048, symSize: 0x104 }
  - { offset: 0x4D6E3, size: 0x8, addend: 0x0, symName: __ZNSt3__112basic_stringIcNS_11char_traitsIcEENS_9allocatorIcEEEC2B8ne200100Emc, symObjAddr: 0x28C4, symBinAddr: 0x73F0, symSize: 0x9C }
  - { offset: 0x4D93D, size: 0x8, addend: 0x0, symName: __ZNKSt3__115basic_stringbufIcNS_11char_traitsIcEENS_9allocatorIcEEE3strB8ne200100IS4_EENS_12basic_stringIcS2_T_EERKS8_, symObjAddr: 0x2960, symBinAddr: 0x748C, symSize: 0x90 }
  - { offset: 0x4DA5A, size: 0x8, addend: 0x0, symName: __ZNKSt3__115basic_stringbufIcNS_11char_traitsIcEENS_9allocatorIcEEE4viewB8ne200100Ev, symObjAddr: 0x29F0, symBinAddr: 0x751C, symSize: 0x4C }
  - { offset: 0x4DE21, size: 0x8, addend: 0x0, symName: __ZNSt3__16vectorINS_12basic_stringIcNS_11char_traitsIcEENS_9allocatorIcEEEENS4_IS6_EEE11__vallocateB8ne200100Em, symObjAddr: 0x2D60, symBinAddr: 0x788C, symSize: 0x48 }
  - { offset: 0x4DE7B, size: 0x8, addend: 0x0, symName: __ZNSt3__16vectorINS_12basic_stringIcNS_11char_traitsIcEENS_9allocatorIcEEEENS4_IS6_EEE20__throw_length_errorB8ne200100Ev, symObjAddr: 0x2DA8, symBinAddr: 0x78D4, symSize: 0x14 }
  - { offset: 0x4DE86, size: 0x8, addend: 0x0, symName: __ZNSt3__16vectorINS_12basic_stringIcNS_11char_traitsIcEENS_9allocatorIcEEEENS4_IS6_EEE20__throw_length_errorB8ne200100Ev, symObjAddr: 0x2DA8, symBinAddr: 0x78D4, symSize: 0x14 }
  - { offset: 0x4DE9E, size: 0x8, addend: 0x0, symName: __ZNSt3__119__allocate_at_leastB8ne200100INS_9allocatorINS_12basic_stringIcNS_11char_traitsIcEENS1_IcEEEEEEEENS_19__allocation_resultINS_16allocator_traitsIT_E7pointerEEERSA_m, symObjAddr: 0x2DBC, symBinAddr: 0x78E8, symSize: 0x44 }
  - { offset: 0x4E122, size: 0x8, addend: 0x0, symName: __ZNSt3__128__exception_guard_exceptionsINS_29_AllocatorDestroyRangeReverseINS_9allocatorINS_12basic_stringIcNS_11char_traitsIcEENS2_IcEEEEEEPS7_EEED2B8ne200100Ev, symObjAddr: 0x2F3C, symBinAddr: 0x79E8, symSize: 0x34 }
  - { offset: 0x4E12D, size: 0x8, addend: 0x0, symName: __ZNSt3__128__exception_guard_exceptionsINS_29_AllocatorDestroyRangeReverseINS_9allocatorINS_12basic_stringIcNS_11char_traitsIcEENS2_IcEEEEEEPS7_EEED2B8ne200100Ev, symObjAddr: 0x2F3C, symBinAddr: 0x79E8, symSize: 0x34 }
  - { offset: 0x4E16E, size: 0x8, addend: 0x0, symName: __ZNKSt3__129_AllocatorDestroyRangeReverseINS_9allocatorINS_12basic_stringIcNS_11char_traitsIcEENS1_IcEEEEEEPS6_EclB8ne200100Ev, symObjAddr: 0x2F70, symBinAddr: 0x7A1C, symSize: 0x44 }
  - { offset: 0x4E40C, size: 0x8, addend: 0x0, symName: __ZNSt3__16vectorINS_12basic_stringIcNS_11char_traitsIcEENS_9allocatorIcEEEENS4_IS6_EEE5clearB8ne200100Ev, symObjAddr: 0x2FF4, symBinAddr: 0x7AA0, symSize: 0x4C }
  - { offset: 0x4E85C, size: 0x8, addend: 0x0, symName: __ZNSt3__120__shared_ptr_emplaceIN8facebook5react4TaskENS_9allocatorIS3_EEEC2B8ne200100IJRNS2_17SchedulerPriorityENS1_3jsi8FunctionERNS2_16HighResTimeStampEES5_Li0EEES5_DpOT_, symObjAddr: 0x30B0, symBinAddr: 0x7B5C, symSize: 0x54 }
  - { offset: 0x4EABC, size: 0x8, addend: 0x0, symName: __ZNSt3__120__shared_ptr_emplaceIN8facebook5react4TaskENS_9allocatorIS3_EEED1Ev, symObjAddr: 0x3104, symBinAddr: 0x7BB0, symSize: 0x14 }
  - { offset: 0x4EAE0, size: 0x8, addend: 0x0, symName: __ZNSt3__120__shared_ptr_emplaceIN8facebook5react4TaskENS_9allocatorIS3_EEED1Ev, symObjAddr: 0x3104, symBinAddr: 0x7BB0, symSize: 0x14 }
  - { offset: 0x4EB17, size: 0x8, addend: 0x0, symName: __ZNSt3__120__shared_ptr_emplaceIN8facebook5react4TaskENS_9allocatorIS3_EEED0Ev, symObjAddr: 0x3118, symBinAddr: 0x7BC4, symSize: 0x24 }
  - { offset: 0x4ED24, size: 0x8, addend: 0x0, symName: __ZNSt3__120__shared_ptr_emplaceIN8facebook5react4TaskENS_9allocatorIS3_EEE16__on_zero_sharedEv, symObjAddr: 0x313C, symBinAddr: 0x7BE8, symSize: 0x34 }
  - { offset: 0x4EFBA, size: 0x8, addend: 0x0, symName: __ZNSt3__120__shared_ptr_emplaceIN8facebook5react4TaskENS_9allocatorIS3_EEE21__on_zero_shared_weakEv, symObjAddr: 0x3170, symBinAddr: 0x7C1C, symSize: 0x4 }
  - { offset: 0x4EFED, size: 0x8, addend: 0x0, symName: __ZNSt3__120__shared_ptr_emplaceIN8facebook5react4TaskENS_9allocatorIS3_EEE21__on_zero_shared_weakEv, symObjAddr: 0x3170, symBinAddr: 0x7C1C, symSize: 0x4 }
  - { offset: 0x4F011, size: 0x8, addend: 0x0, symName: __ZNSt3__120__shared_ptr_emplaceIN8facebook5react4TaskENS_9allocatorIS3_EEE21__on_zero_shared_weakEv, symObjAddr: 0x3170, symBinAddr: 0x7C1C, symSize: 0x4 }
  - { offset: 0x4F036, size: 0x8, addend: 0x0, symName: __ZNSt3__120__shared_ptr_emplaceIN8facebook5react4TaskENS_9allocatorIS3_EEE21__on_zero_shared_weakEv, symObjAddr: 0x3170, symBinAddr: 0x7C1C, symSize: 0x4 }
  - { offset: 0x4F06D, size: 0x8, addend: 0x0, symName: __ZNSt3__120__shared_ptr_emplaceIN8facebook5react4TaskENS_9allocatorIS3_EEE21__on_zero_shared_weakEv, symObjAddr: 0x3170, symBinAddr: 0x7C1C, symSize: 0x4 }
  - { offset: 0x4F2E7, size: 0x8, addend: 0x0, symName: __ZNSt3__114__split_bufferINS_10shared_ptrIN8facebook5react4TaskEEERNS_9allocatorIS5_EEED2Ev, symObjAddr: 0x32DC, symBinAddr: 0x7D74, symSize: 0x4C }
  - { offset: 0x4F474, size: 0x8, addend: 0x0, symName: __ZNSt3__119__allocate_at_leastB8ne200100INS_9allocatorINS_10shared_ptrIN8facebook5react4TaskEEEEEEENS_19__allocation_resultINS_16allocator_traitsIT_E7pointerEEERSA_m, symObjAddr: 0x32A8, symBinAddr: 0x7D40, symSize: 0x34 }
  - { offset: 0x4F5D5, size: 0x8, addend: 0x0, symName: __ZNSt3__110shared_ptrIN8facebook5react4TaskEEaSB8ne200100EOS4_, symObjAddr: 0x3404, symBinAddr: 0x7E9C, symSize: 0x64 }
  - { offset: 0x4F776, size: 0x8, addend: 0x0, symName: __ZN8facebook5react8systrace8rendererIA12_cvE6renderERA12_Kc, symObjAddr: 0x38F8, symBinAddr: 0x8390, symSize: 0xE4 }
  - { offset: 0x4FAD5, size: 0x8, addend: 0x0, symName: __ZNSt3__120__shared_ptr_emplaceIN8facebook5react4TaskENS_9allocatorIS3_EEEC2B8ne200100IJRNS2_17SchedulerPriorityENS_8functionIFvRNS1_3jsi7RuntimeEEEERNS2_16HighResTimeStampEES5_Li0EEES5_DpOT_, symObjAddr: 0x3A4C, symBinAddr: 0x84E4, symSize: 0x54 }
  - { offset: 0x4FCC9, size: 0x8, addend: 0x0, symName: '__ZNSt3__110__function6__funcIZN8facebook5react23RuntimeScheduler_Legacy25executeNowOnTheSameThreadEONS_8functionIFvRNS2_3jsi7RuntimeEEEEE3$_0NS_9allocatorISC_EES9_ED1Ev', symObjAddr: 0x3AA0, symBinAddr: 0x8538, symSize: 0x4 }
  - { offset: 0x4FCF5, size: 0x8, addend: 0x0, symName: '__ZNSt3__110__function6__funcIZN8facebook5react23RuntimeScheduler_Legacy25executeNowOnTheSameThreadEONS_8functionIFvRNS2_3jsi7RuntimeEEEEE3$_0NS_9allocatorISC_EES9_ED0Ev', symObjAddr: 0x3AA4, symBinAddr: 0x853C, symSize: 0x4 }
  - { offset: 0x4FE10, size: 0x8, addend: 0x0, symName: '__ZNKSt3__110__function6__funcIZN8facebook5react23RuntimeScheduler_Legacy25executeNowOnTheSameThreadEONS_8functionIFvRNS2_3jsi7RuntimeEEEEE3$_0NS_9allocatorISC_EES9_E7__cloneEv', symObjAddr: 0x3AA8, symBinAddr: 0x8540, symSize: 0x38 }
  - { offset: 0x50036, size: 0x8, addend: 0x0, symName: '__ZNKSt3__110__function6__funcIZN8facebook5react23RuntimeScheduler_Legacy25executeNowOnTheSameThreadEONS_8functionIFvRNS2_3jsi7RuntimeEEEEE3$_0NS_9allocatorISC_EES9_E7__cloneEPNS0_6__baseIS9_EE', symObjAddr: 0x3AE0, symBinAddr: 0x8578, symSize: 0x18 }
  - { offset: 0x5006D, size: 0x8, addend: 0x0, symName: '__ZNKSt3__110__function6__funcIZN8facebook5react23RuntimeScheduler_Legacy25executeNowOnTheSameThreadEONS_8functionIFvRNS2_3jsi7RuntimeEEEEE3$_0NS_9allocatorISC_EES9_E7__cloneEPNS0_6__baseIS9_EE', symObjAddr: 0x3AE0, symBinAddr: 0x8578, symSize: 0x18 }
  - { offset: 0x5009F, size: 0x8, addend: 0x0, symName: '__ZNKSt3__110__function6__funcIZN8facebook5react23RuntimeScheduler_Legacy25executeNowOnTheSameThreadEONS_8functionIFvRNS2_3jsi7RuntimeEEEEE3$_0NS_9allocatorISC_EES9_E7__cloneEPNS0_6__baseIS9_EE', symObjAddr: 0x3AE0, symBinAddr: 0x8578, symSize: 0x18 }
  - { offset: 0x50139, size: 0x8, addend: 0x0, symName: '__ZNSt3__110__function6__funcIZN8facebook5react23RuntimeScheduler_Legacy25executeNowOnTheSameThreadEONS_8functionIFvRNS2_3jsi7RuntimeEEEEE3$_0NS_9allocatorISC_EES9_E7destroyEv', symObjAddr: 0x3AF8, symBinAddr: 0x8590, symSize: 0x4 }
  - { offset: 0x5018E, size: 0x8, addend: 0x0, symName: '__ZNSt3__110__function6__funcIZN8facebook5react23RuntimeScheduler_Legacy25executeNowOnTheSameThreadEONS_8functionIFvRNS2_3jsi7RuntimeEEEEE3$_0NS_9allocatorISC_EES9_E18destroy_deallocateEv', symObjAddr: 0x3AFC, symBinAddr: 0x8594, symSize: 0x4 }
  - { offset: 0x501C3, size: 0x8, addend: 0x0, symName: '__ZNSt3__110__function6__funcIZN8facebook5react23RuntimeScheduler_Legacy25executeNowOnTheSameThreadEONS_8functionIFvRNS2_3jsi7RuntimeEEEEE3$_0NS_9allocatorISC_EES9_E18destroy_deallocateEv', symObjAddr: 0x3AFC, symBinAddr: 0x8594, symSize: 0x4 }
  - { offset: 0x501E8, size: 0x8, addend: 0x0, symName: '__ZNSt3__110__function6__funcIZN8facebook5react23RuntimeScheduler_Legacy25executeNowOnTheSameThreadEONS_8functionIFvRNS2_3jsi7RuntimeEEEEE3$_0NS_9allocatorISC_EES9_E18destroy_deallocateEv', symObjAddr: 0x3AFC, symBinAddr: 0x8594, symSize: 0x4 }
  - { offset: 0x5021E, size: 0x8, addend: 0x0, symName: '__ZNSt3__110__function6__funcIZN8facebook5react23RuntimeScheduler_Legacy25executeNowOnTheSameThreadEONS_8functionIFvRNS2_3jsi7RuntimeEEEEE3$_0NS_9allocatorISC_EES9_E18destroy_deallocateEv', symObjAddr: 0x3AFC, symBinAddr: 0x8594, symSize: 0x4 }
  - { offset: 0x502E5, size: 0x8, addend: 0x0, symName: '__ZNSt3__110__function6__funcIZN8facebook5react23RuntimeScheduler_Legacy25executeNowOnTheSameThreadEONS_8functionIFvRNS2_3jsi7RuntimeEEEEE3$_0NS_9allocatorISC_EES9_EclES8_', symObjAddr: 0x3B00, symBinAddr: 0x8598, symSize: 0x148 }
  - { offset: 0x50683, size: 0x8, addend: 0x0, symName: '__ZNKSt3__110__function6__funcIZN8facebook5react23RuntimeScheduler_Legacy25executeNowOnTheSameThreadEONS_8functionIFvRNS2_3jsi7RuntimeEEEEE3$_0NS_9allocatorISC_EES9_E6targetERKSt9type_info', symObjAddr: 0x3C48, symBinAddr: 0x86E0, symSize: 0x3C }
  - { offset: 0x506D2, size: 0x8, addend: 0x0, symName: '__ZNKSt3__110__function6__funcIZN8facebook5react23RuntimeScheduler_Legacy25executeNowOnTheSameThreadEONS_8functionIFvRNS2_3jsi7RuntimeEEEEE3$_0NS_9allocatorISC_EES9_E11target_typeEv', symObjAddr: 0x3C84, symBinAddr: 0x871C, symSize: 0xC }
  - { offset: 0x506F5, size: 0x8, addend: 0x0, symName: '__ZNSt3__110__function6__funcIZN8facebook5react23RuntimeScheduler_Legacy27scheduleWorkLoopIfNecessaryEvE3$_0NS_9allocatorIS5_EEFvRNS2_3jsi7RuntimeEEED1Ev', symObjAddr: 0x3C90, symBinAddr: 0x8728, symSize: 0x4 }
  - { offset: 0x50721, size: 0x8, addend: 0x0, symName: '__ZNSt3__110__function6__funcIZN8facebook5react23RuntimeScheduler_Legacy27scheduleWorkLoopIfNecessaryEvE3$_0NS_9allocatorIS5_EEFvRNS2_3jsi7RuntimeEEED0Ev', symObjAddr: 0x3C94, symBinAddr: 0x872C, symSize: 0x4 }
  - { offset: 0x5083C, size: 0x8, addend: 0x0, symName: '__ZNKSt3__110__function6__funcIZN8facebook5react23RuntimeScheduler_Legacy27scheduleWorkLoopIfNecessaryEvE3$_0NS_9allocatorIS5_EEFvRNS2_3jsi7RuntimeEEE7__cloneEv', symObjAddr: 0x3C98, symBinAddr: 0x8730, symSize: 0x34 }
  - { offset: 0x50A4E, size: 0x8, addend: 0x0, symName: '__ZNKSt3__110__function6__funcIZN8facebook5react23RuntimeScheduler_Legacy27scheduleWorkLoopIfNecessaryEvE3$_0NS_9allocatorIS5_EEFvRNS2_3jsi7RuntimeEEE7__cloneEPNS0_6__baseISB_EE', symObjAddr: 0x3CCC, symBinAddr: 0x8764, symSize: 0x14 }
  - { offset: 0x50A85, size: 0x8, addend: 0x0, symName: '__ZNKSt3__110__function6__funcIZN8facebook5react23RuntimeScheduler_Legacy27scheduleWorkLoopIfNecessaryEvE3$_0NS_9allocatorIS5_EEFvRNS2_3jsi7RuntimeEEE7__cloneEPNS0_6__baseISB_EE', symObjAddr: 0x3CCC, symBinAddr: 0x8764, symSize: 0x14 }
  - { offset: 0x50AB7, size: 0x8, addend: 0x0, symName: '__ZNKSt3__110__function6__funcIZN8facebook5react23RuntimeScheduler_Legacy27scheduleWorkLoopIfNecessaryEvE3$_0NS_9allocatorIS5_EEFvRNS2_3jsi7RuntimeEEE7__cloneEPNS0_6__baseISB_EE', symObjAddr: 0x3CCC, symBinAddr: 0x8764, symSize: 0x14 }
  - { offset: 0x50AE9, size: 0x8, addend: 0x0, symName: '__ZNKSt3__110__function6__funcIZN8facebook5react23RuntimeScheduler_Legacy27scheduleWorkLoopIfNecessaryEvE3$_0NS_9allocatorIS5_EEFvRNS2_3jsi7RuntimeEEE7__cloneEPNS0_6__baseISB_EE', symObjAddr: 0x3CCC, symBinAddr: 0x8764, symSize: 0x14 }
  - { offset: 0x50AFF, size: 0x8, addend: 0x0, symName: '__ZNKSt3__110__function6__funcIZN8facebook5react23RuntimeScheduler_Legacy27scheduleWorkLoopIfNecessaryEvE3$_0NS_9allocatorIS5_EEFvRNS2_3jsi7RuntimeEEE7__cloneEPNS0_6__baseISB_EE', symObjAddr: 0x3CCC, symBinAddr: 0x8764, symSize: 0x14 }
  - { offset: 0x50B14, size: 0x8, addend: 0x0, symName: '__ZNSt3__110__function6__funcIZN8facebook5react23RuntimeScheduler_Legacy27scheduleWorkLoopIfNecessaryEvE3$_0NS_9allocatorIS5_EEFvRNS2_3jsi7RuntimeEEE7destroyEv', symObjAddr: 0x3CE0, symBinAddr: 0x8778, symSize: 0x4 }
  - { offset: 0x50B69, size: 0x8, addend: 0x0, symName: '__ZNSt3__110__function6__funcIZN8facebook5react23RuntimeScheduler_Legacy27scheduleWorkLoopIfNecessaryEvE3$_0NS_9allocatorIS5_EEFvRNS2_3jsi7RuntimeEEE18destroy_deallocateEv', symObjAddr: 0x3CE4, symBinAddr: 0x877C, symSize: 0x4 }
  - { offset: 0x50B9E, size: 0x8, addend: 0x0, symName: '__ZNSt3__110__function6__funcIZN8facebook5react23RuntimeScheduler_Legacy27scheduleWorkLoopIfNecessaryEvE3$_0NS_9allocatorIS5_EEFvRNS2_3jsi7RuntimeEEE18destroy_deallocateEv', symObjAddr: 0x3CE4, symBinAddr: 0x877C, symSize: 0x4 }
  - { offset: 0x50BC3, size: 0x8, addend: 0x0, symName: '__ZNSt3__110__function6__funcIZN8facebook5react23RuntimeScheduler_Legacy27scheduleWorkLoopIfNecessaryEvE3$_0NS_9allocatorIS5_EEFvRNS2_3jsi7RuntimeEEE18destroy_deallocateEv', symObjAddr: 0x3CE4, symBinAddr: 0x877C, symSize: 0x4 }
  - { offset: 0x50BF9, size: 0x8, addend: 0x0, symName: '__ZNSt3__110__function6__funcIZN8facebook5react23RuntimeScheduler_Legacy27scheduleWorkLoopIfNecessaryEvE3$_0NS_9allocatorIS5_EEFvRNS2_3jsi7RuntimeEEE18destroy_deallocateEv', symObjAddr: 0x3CE4, symBinAddr: 0x877C, symSize: 0x4 }
  - { offset: 0x50CA8, size: 0x8, addend: 0x0, symName: '__ZNSt3__110__function6__funcIZN8facebook5react23RuntimeScheduler_Legacy27scheduleWorkLoopIfNecessaryEvE3$_0NS_9allocatorIS5_EEFvRNS2_3jsi7RuntimeEEEclESA_', symObjAddr: 0x3CE8, symBinAddr: 0x8780, symSize: 0x10 }
  - { offset: 0x50E0E, size: 0x8, addend: 0x0, symName: '__ZNKSt3__110__function6__funcIZN8facebook5react23RuntimeScheduler_Legacy27scheduleWorkLoopIfNecessaryEvE3$_0NS_9allocatorIS5_EEFvRNS2_3jsi7RuntimeEEE6targetERKSt9type_info', symObjAddr: 0x3CF8, symBinAddr: 0x8790, symSize: 0x3C }
  - { offset: 0x50E5D, size: 0x8, addend: 0x0, symName: '__ZNKSt3__110__function6__funcIZN8facebook5react23RuntimeScheduler_Legacy27scheduleWorkLoopIfNecessaryEvE3$_0NS_9allocatorIS5_EEFvRNS2_3jsi7RuntimeEEE11target_typeEv', symObjAddr: 0x3D34, symBinAddr: 0x87CC, symSize: 0xC }
  - { offset: 0x50E86, size: 0x8, addend: 0x0, symName: __ZN8facebook5react8systrace8rendererIA23_cvE6renderERA23_Kc, symObjAddr: 0x41D0, symBinAddr: 0x8C68, symSize: 0xE4 }
  - { offset: 0x5117A, size: 0x8, addend: 0x0, symName: __ZN8facebook5react8systrace8rendererIbvE6renderERKb, symObjAddr: 0x42B4, symBinAddr: 0x8D4C, symSize: 0xD8 }
  - { offset: 0x54228, size: 0x8, addend: 0x0, symName: __ZZN8facebook5react8systraceL31getOrCreateInstrumentsLogHandleEvE4flag, symObjAddr: 0x117130, symBinAddr: 0x1C138, symSize: 0x0 }
  - { offset: 0x67905, size: 0x8, addend: 0x0, symName: __ZNSt3__115allocate_sharedB8ne200100IN8facebook5react4TaskENS_9allocatorIS3_EEJNS2_17SchedulerPriorityENS1_3jsi8FunctionERNS2_16HighResTimeStampEELi0EEENS_10shared_ptrIT_EERKT0_DpOT1_, symObjAddr: 0x386C, symBinAddr: 0xB180, symSize: 0x70 }
  - { offset: 0x67C43, size: 0x8, addend: 0x0, symName: __ZNSt3__115allocate_sharedB8ne200100IN8facebook5react4TaskENS_9allocatorIS3_EEJNS2_17SchedulerPriorityENS_8functionIFvRNS1_3jsi7RuntimeEEEERNS2_16HighResTimeStampEELi0EEENS_10shared_ptrIT_EERKT0_DpOT1_, symObjAddr: 0x3EA4, symBinAddr: 0xB6D4, symSize: 0x70 }
  - { offset: 0x68E7F, size: 0x8, addend: 0x0, symName: __ZNSt3__117__call_once_proxyB8ne200100INS_5tupleIJOZN8facebook5react8systraceL31getOrCreateInstrumentsLogHandleEvEUlvE_EEEEEvPv, symObjAddr: 0x23D0, symBinAddr: 0xABD8, symSize: 0x40 }
  - { offset: 0x6A8C0, size: 0x8, addend: 0x0, symName: __ZNSt3__119__allocate_at_leastB8ne200100INS_9allocatorIPNS_8functionIFvvEEEEEEENS_19__allocation_resultINS_16allocator_traitsIT_E7pointerEEERS9_m, symObjAddr: 0x4D0C, symBinAddr: 0xC3EC, symSize: 0x34 }
  - { offset: 0x6D8FC, size: 0x8, addend: 0x0, symName: __ZN8facebook5react23RuntimeScheduler_Modern25executeNowOnTheSameThreadEONSt3__18functionIFvRNS_3jsi7RuntimeEEEE, symObjAddr: 0x95C, symBinAddr: 0x98F4, symSize: 0x204 }
  - { offset: 0x6D922, size: 0x8, addend: 0x0, symName: __ZZN8facebook5react23RuntimeScheduler_Modern25executeNowOnTheSameThreadEONSt3__18functionIFvRNS_3jsi7RuntimeEEEEE10runtimePtr, symObjAddr: 0x6E47, symBinAddr: 0x1C108, symSize: 0x0 }
  - { offset: 0x6E18A, size: 0x8, addend: 0x0, symName: __ZN8facebook5react23RuntimeScheduler_Modern26performMicrotaskCheckpointERNS_3jsi7RuntimeE, symObjAddr: 0x1514, symBinAddr: 0xA448, symSize: 0x2A8 }
  - { offset: 0x6EE4F, size: 0x8, addend: 0x0, symName: __ZN8facebook5react12TraceSectionC2IJRA14_KcxRA13_S3_S5_EEEPS3_DpOT_, symObjAddr: 0x26CC, symBinAddr: 0xAC18, symSize: 0x490 }
  - { offset: 0x70792, size: 0x8, addend: 0x0, symName: __ZN8facebook5react12TraceSectionC2IJRA14_KcxRA13_S3_RA12_S3_EEEPS3_DpOT_, symObjAddr: 0x3930, symBinAddr: 0xB244, symSize: 0x490 }
  - { offset: 0x720F8, size: 0x8, addend: 0x0, symName: __ZN8facebook5react12TraceSectionC2IJRA9_KciRA3_S3_RyEEEPS3_DpOT_, symObjAddr: 0x4DA4, symBinAddr: 0xC420, symSize: 0x490 }
  - { offset: 0x73A41, size: 0x8, addend: 0x0, symName: __ZN8facebook5react12TraceSectionC2IJRA3_KcRyRA9_S3_iRA23_S3_RbEEEPS3_DpOT_, symObjAddr: 0x5B74, symBinAddr: 0xCD40, symSize: 0x4BC }
  - { offset: 0x757E9, size: 0x8, addend: 0x0, symName: __ZN8facebook5react23RuntimeScheduler_Modern17scheduleEventLoopEv, symObjAddr: 0xE60, symBinAddr: 0x9DF8, symSize: 0xE4 }
  - { offset: 0x76155, size: 0x8, addend: 0x0, symName: __ZN8facebook5react23RuntimeScheduler_ModernC2ENSt3__18functionIFvONS3_IFvRNS_3jsi7RuntimeEEEEEEENS3_IFNS0_16HighResTimeStampEvEEENS3_IFvS6_RNS4_7JSErrorEEEE, symObjAddr: 0x0, symBinAddr: 0x8FA8, symSize: 0xE0 }
  - { offset: 0x7698F, size: 0x8, addend: 0x0, symName: __ZN8facebook5react23RuntimeScheduler_ModernC1ENSt3__18functionIFvONS3_IFvRNS_3jsi7RuntimeEEEEEEENS3_IFNS0_16HighResTimeStampEvEEENS3_IFvS6_RNS4_7JSErrorEEEE, symObjAddr: 0xE0, symBinAddr: 0x9088, symSize: 0x4 }
  - { offset: 0x769EA, size: 0x8, addend: 0x0, symName: __ZN8facebook5react23RuntimeScheduler_ModernC1ENSt3__18functionIFvONS3_IFvRNS_3jsi7RuntimeEEEEEEENS3_IFNS0_16HighResTimeStampEvEEENS3_IFvS6_RNS4_7JSErrorEEEE, symObjAddr: 0xE0, symBinAddr: 0x9088, symSize: 0x4 }
  - { offset: 0x76AC6, size: 0x8, addend: 0x0, symName: __ZN8facebook5react23RuntimeScheduler_Modern12scheduleWorkEONSt3__18functionIFvRNS_3jsi7RuntimeEEEE, symObjAddr: 0xE4, symBinAddr: 0x908C, symSize: 0xC4 }
  - { offset: 0x76C5E, size: 0x8, addend: 0x0, symName: __ZN8facebook5react23RuntimeScheduler_Modern12scheduleTaskENS0_17SchedulerPriorityEONSt3__18functionIFvRNS_3jsi7RuntimeEEEE, symObjAddr: 0x1B8, symBinAddr: 0x9150, symSize: 0x108 }
  - { offset: 0x77005, size: 0x8, addend: 0x0, symName: __ZN8facebook5react23RuntimeScheduler_Modern12scheduleTaskENSt3__110shared_ptrINS0_4TaskEEE, symObjAddr: 0x3C8, symBinAddr: 0x9360, symSize: 0x148 }
  - { offset: 0x7736F, size: 0x8, addend: 0x0, symName: __ZN8facebook5react23RuntimeScheduler_Modern12scheduleTaskENS0_17SchedulerPriorityEONS_3jsi8FunctionE, symObjAddr: 0x2C0, symBinAddr: 0x9258, symSize: 0x108 }
  - { offset: 0x77835, size: 0x8, addend: 0x0, symName: __ZNSt3__16vectorINS_10shared_ptrIN8facebook5react4TaskEEENS_9allocatorIS5_EEE9push_backB8ne200100EOS5_, symObjAddr: 0x55AC, symBinAddr: 0xCA6C, symSize: 0xF0 }
  - { offset: 0x77C9E, size: 0x8, addend: 0x0, symName: __ZNSt3__111unique_lockINS_12shared_mutexEED2B8ne200100Ev, symObjAddr: 0x4130, symBinAddr: 0xB914, symSize: 0x38 }
  - { offset: 0x77D50, size: 0x8, addend: 0x0, symName: __ZN8facebook5react23RuntimeScheduler_Modern16scheduleIdleTaskEONS_3jsi8FunctionENS0_15HighResDurationE, symObjAddr: 0x510, symBinAddr: 0x94A8, symSize: 0x190 }
  - { offset: 0x78184, size: 0x8, addend: 0x0, symName: __ZN8facebook5react23RuntimeScheduler_Modern16scheduleIdleTaskEONSt3__18functionIFvRNS_3jsi7RuntimeEEEENS0_15HighResDurationE, symObjAddr: 0x6A0, symBinAddr: 0x9638, symSize: 0x190 }
  - { offset: 0x786CD, size: 0x8, addend: 0x0, symName: __ZN8facebook5react23RuntimeScheduler_Modern14getShouldYieldEv, symObjAddr: 0x830, symBinAddr: 0x97C8, symSize: 0xA4 }
  - { offset: 0x78935, size: 0x8, addend: 0x0, symName: __ZN8facebook5react23RuntimeScheduler_Modern23markYieldingOpportunityENS0_16HighResTimeStampE, symObjAddr: 0x8D4, symBinAddr: 0x986C, symSize: 0x1C }
  - { offset: 0x7896B, size: 0x8, addend: 0x0, symName: __ZN8facebook5react23RuntimeScheduler_Modern23markYieldingOpportunityENS0_16HighResTimeStampE, symObjAddr: 0x8D4, symBinAddr: 0x986C, symSize: 0x1C }
  - { offset: 0x7898B, size: 0x8, addend: 0x0, symName: __ZN8facebook5react23RuntimeScheduler_Modern23markYieldingOpportunityENS0_16HighResTimeStampE, symObjAddr: 0x8D4, symBinAddr: 0x986C, symSize: 0x1C }
  - { offset: 0x789AB, size: 0x8, addend: 0x0, symName: __ZN8facebook5react23RuntimeScheduler_Modern23markYieldingOpportunityENS0_16HighResTimeStampE, symObjAddr: 0x8D4, symBinAddr: 0x986C, symSize: 0x1C }
  - { offset: 0x78B61, size: 0x8, addend: 0x0, symName: __ZN8facebook5react23RuntimeScheduler_Modern10cancelTaskERNS0_4TaskE, symObjAddr: 0x8F0, symBinAddr: 0x9888, symSize: 0x34 }
  - { offset: 0x78D81, size: 0x8, addend: 0x0, symName: __ZNK8facebook5react23RuntimeScheduler_Modern23getCurrentPriorityLevelEv, symObjAddr: 0x924, symBinAddr: 0x98BC, symSize: 0x8 }
  - { offset: 0x78DAA, size: 0x8, addend: 0x0, symName: __ZNK8facebook5react23RuntimeScheduler_Modern3nowEv, symObjAddr: 0x92C, symBinAddr: 0x98C4, symSize: 0x30 }
  - { offset: 0x7923B, size: 0x8, addend: 0x0, symName: __ZNK8facebook5react23RuntimeScheduler_Modern11executeTaskERNS_3jsi7RuntimeERNS0_4TaskEb, symObjAddr: 0xB60, symBinAddr: 0x9AF8, symSize: 0x300 }
  - { offset: 0x79D1A, size: 0x8, addend: 0x0, symName: __ZN8facebook5react4TaskD1Ev, symObjAddr: 0xF44, symBinAddr: 0x9EDC, symSize: 0x34 }
  - { offset: 0x7A729, size: 0x8, addend: 0x0, symName: __ZNSt3__112__hash_tableIiNS_4hashIiEENS_8equal_toIiEENS_9allocatorIiEEED2Ev, symObjAddr: 0x1EF0, symBinAddr: 0xA9F8, symSize: 0x48 }
  - { offset: 0x7A949, size: 0x8, addend: 0x0, symName: __ZN8facebook5react23RuntimeScheduler_Modern16callExpiredTasksERNS_3jsi7RuntimeE, symObjAddr: 0xF78, symBinAddr: 0x9F10, symSize: 0x4 }
  - { offset: 0x7A9E2, size: 0x8, addend: 0x0, symName: __ZN8facebook5react23RuntimeScheduler_Modern23scheduleRenderingUpdateEiONSt3__18functionIFvvEEE, symObjAddr: 0xF7C, symBinAddr: 0x9F14, symSize: 0xA8 }
  - { offset: 0x7AB88, size: 0x8, addend: 0x0, symName: __ZNSt3__112__hash_tableIiNS_4hashIiEENS_8equal_toIiEENS_9allocatorIiEEE25__emplace_unique_key_argsIiJRKiEEENS_4pairINS_15__hash_iteratorIPNS_11__hash_nodeIiPvEEEEbEERKT_DpOT0_, symObjAddr: 0x4168, symBinAddr: 0xB94C, symSize: 0x218 }
  - { offset: 0x7B1FF, size: 0x8, addend: 0x0, symName: __ZNSt3__15dequeINS_8functionIFvvEEENS_9allocatorIS3_EEE9push_backERKS3_, symObjAddr: 0x45AC, symBinAddr: 0xBD90, symSize: 0x94 }
  - { offset: 0x7B467, size: 0x8, addend: 0x0, symName: __ZN8facebook5react23RuntimeScheduler_Modern39setShadowTreeRevisionConsistencyManagerEPNS0_36ShadowTreeRevisionConsistencyManagerE, symObjAddr: 0x1024, symBinAddr: 0x9FBC, symSize: 0xC }
  - { offset: 0x7B51D, size: 0x8, addend: 0x0, symName: __ZN8facebook5react23RuntimeScheduler_Modern27setPerformanceEntryReporterEPNS0_24PerformanceEntryReporterE, symObjAddr: 0x1030, symBinAddr: 0x9FC8, symSize: 0x8 }
  - { offset: 0x7B5A1, size: 0x8, addend: 0x0, symName: __ZN8facebook5react23RuntimeScheduler_Modern22setEventTimingDelegateEPNS0_35RuntimeSchedulerEventTimingDelegateE, symObjAddr: 0x1038, symBinAddr: 0x9FD0, symSize: 0xC }
  - { offset: 0x7B657, size: 0x8, addend: 0x0, symName: __ZN8facebook5react23RuntimeScheduler_Modern31setIntersectionObserverDelegateEPNS0_44RuntimeSchedulerIntersectionObserverDelegateE, symObjAddr: 0x1044, symBinAddr: 0x9FDC, symSize: 0x8 }
  - { offset: 0x7B758, size: 0x8, addend: 0x0, symName: __ZN8facebook5react23RuntimeScheduler_Modern12runEventLoopERNS_3jsi7RuntimeE, symObjAddr: 0x104C, symBinAddr: 0x9FE4, symSize: 0x1A0 }
  - { offset: 0x7BC96, size: 0x8, addend: 0x0, symName: __ZN8facebook5react23RuntimeScheduler_Modern10selectTaskEv, symObjAddr: 0x11EC, symBinAddr: 0xA184, symSize: 0xDC }
  - { offset: 0x7C0DB, size: 0x8, addend: 0x0, symName: __ZN8facebook5react23RuntimeScheduler_Modern16runEventLoopTickERNS_3jsi7RuntimeERNS0_4TaskE, symObjAddr: 0x12C8, symBinAddr: 0xA260, symSize: 0x1E8 }
  - { offset: 0x7C910, size: 0x8, addend: 0x0, symName: __ZN8facebook5react23RuntimeScheduler_Modern15updateRenderingEv, symObjAddr: 0x17F0, symBinAddr: 0xA724, symSize: 0x108 }
  - { offset: 0x7CD98, size: 0x8, addend: 0x0, symName: __ZN8facebook5react23RuntimeScheduler_Modern15reportLongTasksERKNS0_4TaskENS0_16HighResTimeStampES5_, symObjAddr: 0x17BC, symBinAddr: 0xA6F0, symSize: 0x34 }
  - { offset: 0x7CFD4, size: 0x8, addend: 0x0, symName: __ZNSt3__112__hash_tableIiNS_4hashIiEENS_8equal_toIiEENS_9allocatorIiEEE5clearEv, symObjAddr: 0x5A38, symBinAddr: 0xCC04, symSize: 0x64 }
  - { offset: 0x7D1B1, size: 0x8, addend: 0x0, symName: __ZNSt3__15dequeINS_8functionIFvvEEENS_9allocatorIS3_EEE9pop_frontEv, symObjAddr: 0x5A9C, symBinAddr: 0xCC68, symSize: 0x7C }
  - { offset: 0x7DCBA, size: 0x8, addend: 0x0, symName: __ZN8facebook5react23RuntimeScheduler_ModernD1Ev, symObjAddr: 0x19B0, symBinAddr: 0xA82C, symSize: 0xE4 }
  - { offset: 0x7E075, size: 0x8, addend: 0x0, symName: __ZNSt3__112__hash_tableIiNS_4hashIiEENS_8equal_toIiEENS_9allocatorIiEEED2Ev, symObjAddr: 0x1EF0, symBinAddr: 0xA9F8, symSize: 0x48 }
  - { offset: 0x7E2DB, size: 0x8, addend: 0x0, symName: __ZNSt3__15dequeINS_8functionIFvvEEENS_9allocatorIS3_EEED2B8ne200100Ev, symObjAddr: 0x1F38, symBinAddr: 0xAA40, symSize: 0x14C }
  - { offset: 0x7E73A, size: 0x8, addend: 0x0, symName: __ZN8facebook5react23RuntimeScheduler_ModernD0Ev, symObjAddr: 0x1A94, symBinAddr: 0xA910, symSize: 0xE8 }
  - { offset: 0x7F3E3, size: 0x8, addend: 0x0, symName: __ZNSt3__114__split_bufferIPNS_8functionIFvvEEENS_9allocatorIS4_EEED2Ev, symObjAddr: 0x2084, symBinAddr: 0xAB8C, symSize: 0x4C }
  - { offset: 0x80464, size: 0x8, addend: 0x0, symName: __ZN8facebook5react8systrace8rendererIxvE6renderERKx, symObjAddr: 0x334C, symBinAddr: 0xB0A8, symSize: 0xD8 }
  - { offset: 0x82194, size: 0x8, addend: 0x0, symName: __ZNSt3__120__shared_ptr_emplaceIN8facebook5react4TaskENS_9allocatorIS3_EEEC2B8ne200100IJNS2_17SchedulerPriorityENS1_3jsi8FunctionERNS2_16HighResTimeStampEES5_Li0EEES5_DpOT_, symObjAddr: 0x38DC, symBinAddr: 0xB1F0, symSize: 0x54 }
  - { offset: 0x825B4, size: 0x8, addend: 0x0, symName: __ZNSt3__120__shared_ptr_emplaceIN8facebook5react4TaskENS_9allocatorIS3_EEEC2B8ne200100IJNS2_17SchedulerPriorityENS_8functionIFvRNS1_3jsi7RuntimeEEEERNS2_16HighResTimeStampEES5_Li0EEES5_DpOT_, symObjAddr: 0x3F14, symBinAddr: 0xB744, symSize: 0x54 }
  - { offset: 0x827A8, size: 0x8, addend: 0x0, symName: '__ZNSt3__110__function6__funcIZN8facebook5react23RuntimeScheduler_Modern25executeNowOnTheSameThreadEONS_8functionIFvRNS2_3jsi7RuntimeEEEEE3$_0NS_9allocatorISC_EES9_ED1Ev', symObjAddr: 0x3F68, symBinAddr: 0xB798, symSize: 0x4 }
  - { offset: 0x827D4, size: 0x8, addend: 0x0, symName: '__ZNSt3__110__function6__funcIZN8facebook5react23RuntimeScheduler_Modern25executeNowOnTheSameThreadEONS_8functionIFvRNS2_3jsi7RuntimeEEEEE3$_0NS_9allocatorISC_EES9_ED0Ev', symObjAddr: 0x3F6C, symBinAddr: 0xB79C, symSize: 0x4 }
  - { offset: 0x828EF, size: 0x8, addend: 0x0, symName: '__ZNKSt3__110__function6__funcIZN8facebook5react23RuntimeScheduler_Modern25executeNowOnTheSameThreadEONS_8functionIFvRNS2_3jsi7RuntimeEEEEE3$_0NS_9allocatorISC_EES9_E7__cloneEv', symObjAddr: 0x3F70, symBinAddr: 0xB7A0, symSize: 0x38 }
  - { offset: 0x82B15, size: 0x8, addend: 0x0, symName: '__ZNKSt3__110__function6__funcIZN8facebook5react23RuntimeScheduler_Modern25executeNowOnTheSameThreadEONS_8functionIFvRNS2_3jsi7RuntimeEEEEE3$_0NS_9allocatorISC_EES9_E7__cloneEPNS0_6__baseIS9_EE', symObjAddr: 0x3FA8, symBinAddr: 0xB7D8, symSize: 0x18 }
  - { offset: 0x82B4C, size: 0x8, addend: 0x0, symName: '__ZNKSt3__110__function6__funcIZN8facebook5react23RuntimeScheduler_Modern25executeNowOnTheSameThreadEONS_8functionIFvRNS2_3jsi7RuntimeEEEEE3$_0NS_9allocatorISC_EES9_E7__cloneEPNS0_6__baseIS9_EE', symObjAddr: 0x3FA8, symBinAddr: 0xB7D8, symSize: 0x18 }
  - { offset: 0x82B7E, size: 0x8, addend: 0x0, symName: '__ZNKSt3__110__function6__funcIZN8facebook5react23RuntimeScheduler_Modern25executeNowOnTheSameThreadEONS_8functionIFvRNS2_3jsi7RuntimeEEEEE3$_0NS_9allocatorISC_EES9_E7__cloneEPNS0_6__baseIS9_EE', symObjAddr: 0x3FA8, symBinAddr: 0xB7D8, symSize: 0x18 }
  - { offset: 0x82C18, size: 0x8, addend: 0x0, symName: '__ZNSt3__110__function6__funcIZN8facebook5react23RuntimeScheduler_Modern25executeNowOnTheSameThreadEONS_8functionIFvRNS2_3jsi7RuntimeEEEEE3$_0NS_9allocatorISC_EES9_E7destroyEv', symObjAddr: 0x3FC0, symBinAddr: 0xB7F0, symSize: 0x4 }
  - { offset: 0x82C6D, size: 0x8, addend: 0x0, symName: '__ZNSt3__110__function6__funcIZN8facebook5react23RuntimeScheduler_Modern25executeNowOnTheSameThreadEONS_8functionIFvRNS2_3jsi7RuntimeEEEEE3$_0NS_9allocatorISC_EES9_E18destroy_deallocateEv', symObjAddr: 0x3FC4, symBinAddr: 0xB7F4, symSize: 0x4 }
  - { offset: 0x82CA2, size: 0x8, addend: 0x0, symName: '__ZNSt3__110__function6__funcIZN8facebook5react23RuntimeScheduler_Modern25executeNowOnTheSameThreadEONS_8functionIFvRNS2_3jsi7RuntimeEEEEE3$_0NS_9allocatorISC_EES9_E18destroy_deallocateEv', symObjAddr: 0x3FC4, symBinAddr: 0xB7F4, symSize: 0x4 }
  - { offset: 0x82CC7, size: 0x8, addend: 0x0, symName: '__ZNSt3__110__function6__funcIZN8facebook5react23RuntimeScheduler_Modern25executeNowOnTheSameThreadEONS_8functionIFvRNS2_3jsi7RuntimeEEEEE3$_0NS_9allocatorISC_EES9_E18destroy_deallocateEv', symObjAddr: 0x3FC4, symBinAddr: 0xB7F4, symSize: 0x4 }
  - { offset: 0x82CFD, size: 0x8, addend: 0x0, symName: '__ZNSt3__110__function6__funcIZN8facebook5react23RuntimeScheduler_Modern25executeNowOnTheSameThreadEONS_8functionIFvRNS2_3jsi7RuntimeEEEEE3$_0NS_9allocatorISC_EES9_E18destroy_deallocateEv', symObjAddr: 0x3FC4, symBinAddr: 0xB7F4, symSize: 0x4 }
  - { offset: 0x82DFB, size: 0x8, addend: 0x0, symName: '__ZNSt3__110__function6__funcIZN8facebook5react23RuntimeScheduler_Modern25executeNowOnTheSameThreadEONS_8functionIFvRNS2_3jsi7RuntimeEEEEE3$_0NS_9allocatorISC_EES9_EclES8_', symObjAddr: 0x3FC8, symBinAddr: 0xB7F8, symSize: 0xD4 }
  - { offset: 0x83008, size: 0x8, addend: 0x0, symName: '__ZNKSt3__110__function6__funcIZN8facebook5react23RuntimeScheduler_Modern25executeNowOnTheSameThreadEONS_8functionIFvRNS2_3jsi7RuntimeEEEEE3$_0NS_9allocatorISC_EES9_E6targetERKSt9type_info', symObjAddr: 0x409C, symBinAddr: 0xB8CC, symSize: 0x3C }
  - { offset: 0x830BE, size: 0x8, addend: 0x0, symName: '__ZNKSt3__110__function6__funcIZN8facebook5react23RuntimeScheduler_Modern25executeNowOnTheSameThreadEONS_8functionIFvRNS2_3jsi7RuntimeEEEEE3$_0NS_9allocatorISC_EES9_E11target_typeEv', symObjAddr: 0x40D8, symBinAddr: 0xB908, symSize: 0xC }
  - { offset: 0x83405, size: 0x8, addend: 0x0, symName: __ZNSt3__112__hash_tableIiNS_4hashIiEENS_8equal_toIiEENS_9allocatorIiEEE8__rehashILb1EEEvm, symObjAddr: 0x4380, symBinAddr: 0xBB64, symSize: 0xDC }
  - { offset: 0x83508, size: 0x8, addend: 0x0, symName: __ZNSt3__112__hash_tableIiNS_4hashIiEENS_8equal_toIiEENS_9allocatorIiEEE11__do_rehashILb1EEEvm, symObjAddr: 0x445C, symBinAddr: 0xBC40, symSize: 0x150 }
  - { offset: 0x83953, size: 0x8, addend: 0x0, symName: __ZNSt3__15dequeINS_8functionIFvvEEENS_9allocatorIS3_EEE9push_backERKS3_, symObjAddr: 0x45AC, symBinAddr: 0xBD90, symSize: 0x94 }
  - { offset: 0x83AD7, size: 0x8, addend: 0x0, symName: __ZNSt3__15dequeINS_8functionIFvvEEENS_9allocatorIS3_EEE19__add_back_capacityEv, symObjAddr: 0x4640, symBinAddr: 0xBE24, symSize: 0x1B0 }
  - { offset: 0x845AC, size: 0x8, addend: 0x0, symName: __ZNSt3__114__split_bufferIPNS_8functionIFvvEEENS_9allocatorIS4_EEE12emplace_backIJRS4_EEEvDpOT_, symObjAddr: 0x47F0, symBinAddr: 0xBFD4, symSize: 0x104 }
  - { offset: 0x84CB1, size: 0x8, addend: 0x0, symName: __ZNSt3__114__split_bufferIPNS_8functionIFvvEEERNS_9allocatorIS4_EEE12emplace_backIJS4_EEEvDpOT_, symObjAddr: 0x4B00, symBinAddr: 0xC1E0, symSize: 0x104 }
  - { offset: 0x85116, size: 0x8, addend: 0x0, symName: __ZNSt3__114__split_bufferIPNS_8functionIFvvEEERNS_9allocatorIS4_EEE13emplace_frontIJRS4_EEEvDpOT_, symObjAddr: 0x4C04, symBinAddr: 0xC2E4, symSize: 0x108 }
  - { offset: 0x8559F, size: 0x8, addend: 0x0, symName: __ZNSt3__114__split_bufferIPNS_8functionIFvvEEENS_9allocatorIS4_EEE13emplace_frontIJS4_EEEvDpOT_, symObjAddr: 0x49F8, symBinAddr: 0xC0D8, symSize: 0x108 }
  - { offset: 0x85F80, size: 0x8, addend: 0x0, symName: __ZN8facebook5react8systrace8rendererIA3_cvE6renderERA3_Kc, symObjAddr: 0x53F0, symBinAddr: 0xC8B0, symSize: 0xE4 }
  - { offset: 0x86274, size: 0x8, addend: 0x0, symName: __ZN8facebook5react8systrace8rendererIyvE6renderERKy, symObjAddr: 0x54D4, symBinAddr: 0xC994, symSize: 0xD8 }
  - { offset: 0x86921, size: 0x8, addend: 0x0, symName: '__ZNSt3__110__function6__funcIZN8facebook5react23RuntimeScheduler_Modern17scheduleEventLoopEvE3$_0NS_9allocatorIS5_EEFvRNS2_3jsi7RuntimeEEED1Ev', symObjAddr: 0x580C, symBinAddr: 0xCB5C, symSize: 0x4 }
  - { offset: 0x8694D, size: 0x8, addend: 0x0, symName: '__ZNSt3__110__function6__funcIZN8facebook5react23RuntimeScheduler_Modern17scheduleEventLoopEvE3$_0NS_9allocatorIS5_EEFvRNS2_3jsi7RuntimeEEED0Ev', symObjAddr: 0x5810, symBinAddr: 0xCB60, symSize: 0x4 }
  - { offset: 0x86A68, size: 0x8, addend: 0x0, symName: '__ZNKSt3__110__function6__funcIZN8facebook5react23RuntimeScheduler_Modern17scheduleEventLoopEvE3$_0NS_9allocatorIS5_EEFvRNS2_3jsi7RuntimeEEE7__cloneEv', symObjAddr: 0x5814, symBinAddr: 0xCB64, symSize: 0x34 }
  - { offset: 0x86C7A, size: 0x8, addend: 0x0, symName: '__ZNKSt3__110__function6__funcIZN8facebook5react23RuntimeScheduler_Modern17scheduleEventLoopEvE3$_0NS_9allocatorIS5_EEFvRNS2_3jsi7RuntimeEEE7__cloneEPNS0_6__baseISB_EE', symObjAddr: 0x5848, symBinAddr: 0xCB98, symSize: 0x14 }
  - { offset: 0x86CB1, size: 0x8, addend: 0x0, symName: '__ZNKSt3__110__function6__funcIZN8facebook5react23RuntimeScheduler_Modern17scheduleEventLoopEvE3$_0NS_9allocatorIS5_EEFvRNS2_3jsi7RuntimeEEE7__cloneEPNS0_6__baseISB_EE', symObjAddr: 0x5848, symBinAddr: 0xCB98, symSize: 0x14 }
  - { offset: 0x86CE3, size: 0x8, addend: 0x0, symName: '__ZNKSt3__110__function6__funcIZN8facebook5react23RuntimeScheduler_Modern17scheduleEventLoopEvE3$_0NS_9allocatorIS5_EEFvRNS2_3jsi7RuntimeEEE7__cloneEPNS0_6__baseISB_EE', symObjAddr: 0x5848, symBinAddr: 0xCB98, symSize: 0x14 }
  - { offset: 0x86D15, size: 0x8, addend: 0x0, symName: '__ZNKSt3__110__function6__funcIZN8facebook5react23RuntimeScheduler_Modern17scheduleEventLoopEvE3$_0NS_9allocatorIS5_EEFvRNS2_3jsi7RuntimeEEE7__cloneEPNS0_6__baseISB_EE', symObjAddr: 0x5848, symBinAddr: 0xCB98, symSize: 0x14 }
  - { offset: 0x86D2B, size: 0x8, addend: 0x0, symName: '__ZNKSt3__110__function6__funcIZN8facebook5react23RuntimeScheduler_Modern17scheduleEventLoopEvE3$_0NS_9allocatorIS5_EEFvRNS2_3jsi7RuntimeEEE7__cloneEPNS0_6__baseISB_EE', symObjAddr: 0x5848, symBinAddr: 0xCB98, symSize: 0x14 }
  - { offset: 0x86D40, size: 0x8, addend: 0x0, symName: '__ZNSt3__110__function6__funcIZN8facebook5react23RuntimeScheduler_Modern17scheduleEventLoopEvE3$_0NS_9allocatorIS5_EEFvRNS2_3jsi7RuntimeEEE7destroyEv', symObjAddr: 0x585C, symBinAddr: 0xCBAC, symSize: 0x4 }
  - { offset: 0x86D95, size: 0x8, addend: 0x0, symName: '__ZNSt3__110__function6__funcIZN8facebook5react23RuntimeScheduler_Modern17scheduleEventLoopEvE3$_0NS_9allocatorIS5_EEFvRNS2_3jsi7RuntimeEEE18destroy_deallocateEv', symObjAddr: 0x5860, symBinAddr: 0xCBB0, symSize: 0x4 }
  - { offset: 0x86DCA, size: 0x8, addend: 0x0, symName: '__ZNSt3__110__function6__funcIZN8facebook5react23RuntimeScheduler_Modern17scheduleEventLoopEvE3$_0NS_9allocatorIS5_EEFvRNS2_3jsi7RuntimeEEE18destroy_deallocateEv', symObjAddr: 0x5860, symBinAddr: 0xCBB0, symSize: 0x4 }
  - { offset: 0x86DEF, size: 0x8, addend: 0x0, symName: '__ZNSt3__110__function6__funcIZN8facebook5react23RuntimeScheduler_Modern17scheduleEventLoopEvE3$_0NS_9allocatorIS5_EEFvRNS2_3jsi7RuntimeEEE18destroy_deallocateEv', symObjAddr: 0x5860, symBinAddr: 0xCBB0, symSize: 0x4 }
  - { offset: 0x86E25, size: 0x8, addend: 0x0, symName: '__ZNSt3__110__function6__funcIZN8facebook5react23RuntimeScheduler_Modern17scheduleEventLoopEvE3$_0NS_9allocatorIS5_EEFvRNS2_3jsi7RuntimeEEE18destroy_deallocateEv', symObjAddr: 0x5860, symBinAddr: 0xCBB0, symSize: 0x4 }
  - { offset: 0x86ED4, size: 0x8, addend: 0x0, symName: '__ZNSt3__110__function6__funcIZN8facebook5react23RuntimeScheduler_Modern17scheduleEventLoopEvE3$_0NS_9allocatorIS5_EEFvRNS2_3jsi7RuntimeEEEclESA_', symObjAddr: 0x5864, symBinAddr: 0xCBB4, symSize: 0x8 }
  - { offset: 0x86FB9, size: 0x8, addend: 0x0, symName: '__ZNKSt3__110__function6__funcIZN8facebook5react23RuntimeScheduler_Modern17scheduleEventLoopEvE3$_0NS_9allocatorIS5_EEFvRNS2_3jsi7RuntimeEEE6targetERKSt9type_info', symObjAddr: 0x586C, symBinAddr: 0xCBBC, symSize: 0x3C }
  - { offset: 0x87008, size: 0x8, addend: 0x0, symName: '__ZNKSt3__110__function6__funcIZN8facebook5react23RuntimeScheduler_Modern17scheduleEventLoopEvE3$_0NS_9allocatorIS5_EEFvRNS2_3jsi7RuntimeEEE11target_typeEv', symObjAddr: 0x58A8, symBinAddr: 0xCBF8, symSize: 0xC }
  - { offset: 0x8707E, size: 0x8, addend: 0x0, symName: __ZNSt3__15dequeINS_8functionIFvvEEENS_9allocatorIS3_EEE26__maybe_remove_front_spareB8ne200100Eb, symObjAddr: 0x5B18, symBinAddr: 0xCCE4, symSize: 0x5C }
  - { offset: 0x919E6, size: 0x8, addend: 0x0, symName: __ZNSt3__115allocate_sharedB8ne200100IN8facebook5react23RuntimeSchedulerBindingENS_9allocatorIS3_EEJRKNS_10shared_ptrINS2_16RuntimeSchedulerEEEELi0EEENS6_IT_EERKT0_DpOT1_, symObjAddr: 0x123C, symBinAddr: 0xE378, symSize: 0x70 }
  - { offset: 0x92489, size: 0x8, addend: 0x0, symName: __ZNSt3__1eqB8ne200100IcNS_11char_traitsIcEENS_9allocatorIcEEEEbRKNS_12basic_stringIT_T0_T1_EEPKS6_, symObjAddr: 0xEB4, symBinAddr: 0xE0B0, symSize: 0x80 }
  - { offset: 0x9266F, size: 0x8, addend: 0x0, symName: __ZNSt3__120__throw_out_of_rangeB8ne200100EPKc, symObjAddr: 0x10B4, symBinAddr: 0xE2A0, symSize: 0x50 }
  - { offset: 0x95A5B, size: 0x8, addend: 0x0, symName: __ZN8facebook5react23RuntimeSchedulerBinding3getERNS_3jsi7RuntimeERKNS2_10PropNameIDE, symObjAddr: 0x578, symBinAddr: 0xD774, symSize: 0x93C }
  - { offset: 0x98AFD, size: 0x8, addend: 0x0, symName: __ZN8facebook5react23RuntimeSchedulerBinding24createAndInstallIfNeededERNS_3jsi7RuntimeERKNSt3__110shared_ptrINS0_16RuntimeSchedulerEEE, symObjAddr: 0x0, symBinAddr: 0xD1FC, symSize: 0x27C }
  - { offset: 0x9948D, size: 0x8, addend: 0x0, symName: __ZN8facebook3jsi6Object20createFromHostObjectERNS0_7RuntimeENSt3__110shared_ptrINS0_10HostObjectEEE, symObjAddr: 0x27C, symBinAddr: 0xD478, symSize: 0x9C }
  - { offset: 0x99667, size: 0x8, addend: 0x0, symName: __ZNK8facebook3jsi6Object11setPropertyIS1_EEvRNS0_7RuntimeEPKcOT_, symObjAddr: 0x318, symBinAddr: 0xD514, symSize: 0xA4 }
  - { offset: 0x9996C, size: 0x8, addend: 0x0, symName: __ZNK8facebook3jsi6Object11setPropertyIS1_EEvRNS0_7RuntimeERKNS0_6StringEOT_, symObjAddr: 0x134C, symBinAddr: 0xE430, symSize: 0x90 }
  - { offset: 0x99B89, size: 0x8, addend: 0x0, symName: __ZN8facebook5react23RuntimeSchedulerBinding10getBindingERNS_3jsi7RuntimeE, symObjAddr: 0x3BC, symBinAddr: 0xD5B8, symSize: 0x160 }
  - { offset: 0x9A12A, size: 0x8, addend: 0x0, symName: __ZN8facebook5react23RuntimeSchedulerBindingC2ENSt3__110shared_ptrINS0_16RuntimeSchedulerEEE, symObjAddr: 0x51C, symBinAddr: 0xD718, symSize: 0x1C }
  - { offset: 0x9A1CC, size: 0x8, addend: 0x0, symName: __ZN8facebook5react23RuntimeSchedulerBindingC1ENSt3__110shared_ptrINS0_16RuntimeSchedulerEEE, symObjAddr: 0x538, symBinAddr: 0xD734, symSize: 0x1C }
  - { offset: 0x9A1F9, size: 0x8, addend: 0x0, symName: __ZN8facebook5react23RuntimeSchedulerBindingC1ENSt3__110shared_ptrINS0_16RuntimeSchedulerEEE, symObjAddr: 0x538, symBinAddr: 0xD734, symSize: 0x1C }
  - { offset: 0x9A2BC, size: 0x8, addend: 0x0, symName: __ZN8facebook5react23RuntimeSchedulerBinding19getRuntimeSchedulerEv, symObjAddr: 0x554, symBinAddr: 0xD750, symSize: 0x24 }
  - { offset: 0x9A2E6, size: 0x8, addend: 0x0, symName: __ZN8facebook5react23RuntimeSchedulerBinding19getRuntimeSchedulerEv, symObjAddr: 0x554, symBinAddr: 0xD750, symSize: 0x24 }
  - { offset: 0x9A30F, size: 0x8, addend: 0x0, symName: __ZN8facebook5react23RuntimeSchedulerBinding19getRuntimeSchedulerEv, symObjAddr: 0x554, symBinAddr: 0xD750, symSize: 0x24 }
  - { offset: 0x9B277, size: 0x8, addend: 0x0, symName: __ZNSt3__110__function12__value_funcIFN8facebook3jsi5ValueERNS3_7RuntimeERKS4_PS7_mEEC2B8ne200100EOSB_, symObjAddr: 0x1128, symBinAddr: 0xE314, symSize: 0x64 }
  - { offset: 0x9B2C7, size: 0x8, addend: 0x0, symName: __ZN8facebook3jsi8Function22createFromHostFunctionERNS0_7RuntimeERKNS0_10PropNameIDEjNSt3__18functionIFNS0_5ValueES3_RKS9_PSA_mEEE, symObjAddr: 0xF34, symBinAddr: 0xE130, symSize: 0xF8 }
  - { offset: 0x9B532, size: 0x8, addend: 0x0, symName: __ZNSt3__112basic_stringIcNS_11char_traitsIcEENS_9allocatorIcEEE20__throw_out_of_rangeB8ne200100Ev, symObjAddr: 0x10A0, symBinAddr: 0xE28C, symSize: 0x14 }
  - { offset: 0x9B54A, size: 0x8, addend: 0x0, symName: __ZNSt3__120__throw_out_of_rangeB8ne200100EPKc, symObjAddr: 0x10B4, symBinAddr: 0xE2A0, symSize: 0x50 }
  - { offset: 0x9B58B, size: 0x8, addend: 0x0, symName: __ZN8facebook5react23RuntimeSchedulerBindingD1Ev, symObjAddr: 0x102C, symBinAddr: 0xE228, symSize: 0x30 }
  - { offset: 0x9B672, size: 0x8, addend: 0x0, symName: __ZN8facebook5react23RuntimeSchedulerBindingD0Ev, symObjAddr: 0x105C, symBinAddr: 0xE258, symSize: 0x34 }
  - { offset: 0x9B707, size: 0x8, addend: 0x0, symName: __ZNSt12out_of_rangeC1B8ne200100EPKc, symObjAddr: 0x1104, symBinAddr: 0xE2F0, symSize: 0x24 }
  - { offset: 0x9BA2D, size: 0x8, addend: 0x0, symName: __ZNSt3__120__shared_ptr_emplaceIN8facebook5react23RuntimeSchedulerBindingENS_9allocatorIS3_EEED1Ev, symObjAddr: 0x12AC, symBinAddr: 0xE3E8, symSize: 0x14 }
  - { offset: 0x9BA51, size: 0x8, addend: 0x0, symName: __ZNSt3__120__shared_ptr_emplaceIN8facebook5react23RuntimeSchedulerBindingENS_9allocatorIS3_EEED1Ev, symObjAddr: 0x12AC, symBinAddr: 0xE3E8, symSize: 0x14 }
  - { offset: 0x9BA88, size: 0x8, addend: 0x0, symName: __ZNSt3__120__shared_ptr_emplaceIN8facebook5react23RuntimeSchedulerBindingENS_9allocatorIS3_EEED0Ev, symObjAddr: 0x12C0, symBinAddr: 0xE3FC, symSize: 0x24 }
  - { offset: 0x9BB5A, size: 0x8, addend: 0x0, symName: __ZNSt3__120__shared_ptr_emplaceIN8facebook5react23RuntimeSchedulerBindingENS_9allocatorIS3_EEE16__on_zero_sharedEv, symObjAddr: 0x12E4, symBinAddr: 0xE420, symSize: 0xC }
  - { offset: 0x9BB84, size: 0x8, addend: 0x0, symName: __ZNSt3__120__shared_ptr_emplaceIN8facebook5react23RuntimeSchedulerBindingENS_9allocatorIS3_EEE16__on_zero_sharedEv, symObjAddr: 0x12E4, symBinAddr: 0xE420, symSize: 0xC }
  - { offset: 0x9BBA3, size: 0x8, addend: 0x0, symName: __ZNSt3__120__shared_ptr_emplaceIN8facebook5react23RuntimeSchedulerBindingENS_9allocatorIS3_EEE16__on_zero_sharedEv, symObjAddr: 0x12E4, symBinAddr: 0xE420, symSize: 0xC }
  - { offset: 0x9BBC2, size: 0x8, addend: 0x0, symName: __ZNSt3__120__shared_ptr_emplaceIN8facebook5react23RuntimeSchedulerBindingENS_9allocatorIS3_EEE16__on_zero_sharedEv, symObjAddr: 0x12E4, symBinAddr: 0xE420, symSize: 0xC }
  - { offset: 0x9BC4F, size: 0x8, addend: 0x0, symName: __ZNSt3__120__shared_ptr_emplaceIN8facebook5react23RuntimeSchedulerBindingENS_9allocatorIS3_EEE21__on_zero_shared_weakEv, symObjAddr: 0x12F0, symBinAddr: 0xE42C, symSize: 0x4 }
  - { offset: 0x9BC82, size: 0x8, addend: 0x0, symName: __ZNSt3__120__shared_ptr_emplaceIN8facebook5react23RuntimeSchedulerBindingENS_9allocatorIS3_EEE21__on_zero_shared_weakEv, symObjAddr: 0x12F0, symBinAddr: 0xE42C, symSize: 0x4 }
  - { offset: 0x9BCA6, size: 0x8, addend: 0x0, symName: __ZNSt3__120__shared_ptr_emplaceIN8facebook5react23RuntimeSchedulerBindingENS_9allocatorIS3_EEE21__on_zero_shared_weakEv, symObjAddr: 0x12F0, symBinAddr: 0xE42C, symSize: 0x4 }
  - { offset: 0x9BCCB, size: 0x8, addend: 0x0, symName: __ZNSt3__120__shared_ptr_emplaceIN8facebook5react23RuntimeSchedulerBindingENS_9allocatorIS3_EEE21__on_zero_shared_weakEv, symObjAddr: 0x12F0, symBinAddr: 0xE42C, symSize: 0x4 }
  - { offset: 0x9BD02, size: 0x8, addend: 0x0, symName: __ZNSt3__120__shared_ptr_emplaceIN8facebook5react23RuntimeSchedulerBindingENS_9allocatorIS3_EEE21__on_zero_shared_weakEv, symObjAddr: 0x12F0, symBinAddr: 0xE42C, symSize: 0x4 }
  - { offset: 0x9BE07, size: 0x8, addend: 0x0, symName: '__ZNSt3__110__function6__funcIZN8facebook5react23RuntimeSchedulerBinding3getERNS2_3jsi7RuntimeERKNS5_10PropNameIDEE3$_0NS_9allocatorISB_EEFNS5_5ValueES7_RKSE_PSF_mEED1Ev', symObjAddr: 0x13DC, symBinAddr: 0xE4C0, symSize: 0x4 }
  - { offset: 0x9BE33, size: 0x8, addend: 0x0, symName: '__ZNSt3__110__function6__funcIZN8facebook5react23RuntimeSchedulerBinding3getERNS2_3jsi7RuntimeERKNS5_10PropNameIDEE3$_0NS_9allocatorISB_EEFNS5_5ValueES7_RKSE_PSF_mEED0Ev', symObjAddr: 0x13E0, symBinAddr: 0xE4C4, symSize: 0x4 }
  - { offset: 0x9BF4E, size: 0x8, addend: 0x0, symName: '__ZNKSt3__110__function6__funcIZN8facebook5react23RuntimeSchedulerBinding3getERNS2_3jsi7RuntimeERKNS5_10PropNameIDEE3$_0NS_9allocatorISB_EEFNS5_5ValueES7_RKSE_PSF_mEE7__cloneEv', symObjAddr: 0x13E4, symBinAddr: 0xE4C8, symSize: 0x34 }
  - { offset: 0x9C160, size: 0x8, addend: 0x0, symName: '__ZNKSt3__110__function6__funcIZN8facebook5react23RuntimeSchedulerBinding3getERNS2_3jsi7RuntimeERKNS5_10PropNameIDEE3$_0NS_9allocatorISB_EEFNS5_5ValueES7_RKSE_PSF_mEE7__cloneEPNS0_6__baseISI_EE', symObjAddr: 0x1418, symBinAddr: 0xE4FC, symSize: 0x14 }
  - { offset: 0x9C197, size: 0x8, addend: 0x0, symName: '__ZNKSt3__110__function6__funcIZN8facebook5react23RuntimeSchedulerBinding3getERNS2_3jsi7RuntimeERKNS5_10PropNameIDEE3$_0NS_9allocatorISB_EEFNS5_5ValueES7_RKSE_PSF_mEE7__cloneEPNS0_6__baseISI_EE', symObjAddr: 0x1418, symBinAddr: 0xE4FC, symSize: 0x14 }
  - { offset: 0x9C1C9, size: 0x8, addend: 0x0, symName: '__ZNKSt3__110__function6__funcIZN8facebook5react23RuntimeSchedulerBinding3getERNS2_3jsi7RuntimeERKNS5_10PropNameIDEE3$_0NS_9allocatorISB_EEFNS5_5ValueES7_RKSE_PSF_mEE7__cloneEPNS0_6__baseISI_EE', symObjAddr: 0x1418, symBinAddr: 0xE4FC, symSize: 0x14 }
  - { offset: 0x9C1FB, size: 0x8, addend: 0x0, symName: '__ZNKSt3__110__function6__funcIZN8facebook5react23RuntimeSchedulerBinding3getERNS2_3jsi7RuntimeERKNS5_10PropNameIDEE3$_0NS_9allocatorISB_EEFNS5_5ValueES7_RKSE_PSF_mEE7__cloneEPNS0_6__baseISI_EE', symObjAddr: 0x1418, symBinAddr: 0xE4FC, symSize: 0x14 }
  - { offset: 0x9C211, size: 0x8, addend: 0x0, symName: '__ZNKSt3__110__function6__funcIZN8facebook5react23RuntimeSchedulerBinding3getERNS2_3jsi7RuntimeERKNS5_10PropNameIDEE3$_0NS_9allocatorISB_EEFNS5_5ValueES7_RKSE_PSF_mEE7__cloneEPNS0_6__baseISI_EE', symObjAddr: 0x1418, symBinAddr: 0xE4FC, symSize: 0x14 }
  - { offset: 0x9C226, size: 0x8, addend: 0x0, symName: '__ZNSt3__110__function6__funcIZN8facebook5react23RuntimeSchedulerBinding3getERNS2_3jsi7RuntimeERKNS5_10PropNameIDEE3$_0NS_9allocatorISB_EEFNS5_5ValueES7_RKSE_PSF_mEE7destroyEv', symObjAddr: 0x142C, symBinAddr: 0xE510, symSize: 0x4 }
  - { offset: 0x9C27B, size: 0x8, addend: 0x0, symName: '__ZNSt3__110__function6__funcIZN8facebook5react23RuntimeSchedulerBinding3getERNS2_3jsi7RuntimeERKNS5_10PropNameIDEE3$_0NS_9allocatorISB_EEFNS5_5ValueES7_RKSE_PSF_mEE18destroy_deallocateEv', symObjAddr: 0x1430, symBinAddr: 0xE514, symSize: 0x4 }
  - { offset: 0x9C2B0, size: 0x8, addend: 0x0, symName: '__ZNSt3__110__function6__funcIZN8facebook5react23RuntimeSchedulerBinding3getERNS2_3jsi7RuntimeERKNS5_10PropNameIDEE3$_0NS_9allocatorISB_EEFNS5_5ValueES7_RKSE_PSF_mEE18destroy_deallocateEv', symObjAddr: 0x1430, symBinAddr: 0xE514, symSize: 0x4 }
  - { offset: 0x9C2D5, size: 0x8, addend: 0x0, symName: '__ZNSt3__110__function6__funcIZN8facebook5react23RuntimeSchedulerBinding3getERNS2_3jsi7RuntimeERKNS5_10PropNameIDEE3$_0NS_9allocatorISB_EEFNS5_5ValueES7_RKSE_PSF_mEE18destroy_deallocateEv', symObjAddr: 0x1430, symBinAddr: 0xE514, symSize: 0x4 }
  - { offset: 0x9C30B, size: 0x8, addend: 0x0, symName: '__ZNSt3__110__function6__funcIZN8facebook5react23RuntimeSchedulerBinding3getERNS2_3jsi7RuntimeERKNS5_10PropNameIDEE3$_0NS_9allocatorISB_EEFNS5_5ValueES7_RKSE_PSF_mEE18destroy_deallocateEv', symObjAddr: 0x1430, symBinAddr: 0xE514, symSize: 0x4 }
  - { offset: 0x9C777, size: 0x8, addend: 0x0, symName: '__ZNSt3__110__function6__funcIZN8facebook5react23RuntimeSchedulerBinding3getERNS2_3jsi7RuntimeERKNS5_10PropNameIDEE3$_0NS_9allocatorISB_EEFNS5_5ValueES7_RKSE_PSF_mEEclES7_SG_OSH_Om', symObjAddr: 0x1434, symBinAddr: 0xE518, symSize: 0x1EC }
  - { offset: 0x9D11F, size: 0x8, addend: 0x0, symName: '__ZNKSt3__110__function6__funcIZN8facebook5react23RuntimeSchedulerBinding3getERNS2_3jsi7RuntimeERKNS5_10PropNameIDEE3$_0NS_9allocatorISB_EEFNS5_5ValueES7_RKSE_PSF_mEE6targetERKSt9type_info', symObjAddr: 0x1620, symBinAddr: 0xE704, symSize: 0x3C }
  - { offset: 0x9D1D5, size: 0x8, addend: 0x0, symName: '__ZNKSt3__110__function6__funcIZN8facebook5react23RuntimeSchedulerBinding3getERNS2_3jsi7RuntimeERKNS5_10PropNameIDEE3$_0NS_9allocatorISB_EEFNS5_5ValueES7_RKSE_PSF_mEE11target_typeEv', symObjAddr: 0x165C, symBinAddr: 0xE740, symSize: 0xC }
  - { offset: 0x9D240, size: 0x8, addend: 0x0, symName: '__ZNSt3__110__function6__funcIZN8facebook5react23RuntimeSchedulerBinding3getERNS2_3jsi7RuntimeERKNS5_10PropNameIDEE3$_1NS_9allocatorISB_EEFNS5_5ValueES7_RKSE_PSF_mEED1Ev', symObjAddr: 0x170C, symBinAddr: 0xE74C, symSize: 0x4 }
  - { offset: 0x9D26C, size: 0x8, addend: 0x0, symName: '__ZNSt3__110__function6__funcIZN8facebook5react23RuntimeSchedulerBinding3getERNS2_3jsi7RuntimeERKNS5_10PropNameIDEE3$_1NS_9allocatorISB_EEFNS5_5ValueES7_RKSE_PSF_mEED0Ev', symObjAddr: 0x1710, symBinAddr: 0xE750, symSize: 0x4 }
  - { offset: 0x9D387, size: 0x8, addend: 0x0, symName: '__ZNKSt3__110__function6__funcIZN8facebook5react23RuntimeSchedulerBinding3getERNS2_3jsi7RuntimeERKNS5_10PropNameIDEE3$_1NS_9allocatorISB_EEFNS5_5ValueES7_RKSE_PSF_mEE7__cloneEv', symObjAddr: 0x1714, symBinAddr: 0xE754, symSize: 0x34 }
  - { offset: 0x9D599, size: 0x8, addend: 0x0, symName: '__ZNKSt3__110__function6__funcIZN8facebook5react23RuntimeSchedulerBinding3getERNS2_3jsi7RuntimeERKNS5_10PropNameIDEE3$_1NS_9allocatorISB_EEFNS5_5ValueES7_RKSE_PSF_mEE7__cloneEPNS0_6__baseISI_EE', symObjAddr: 0x1748, symBinAddr: 0xE788, symSize: 0x14 }
  - { offset: 0x9D5D0, size: 0x8, addend: 0x0, symName: '__ZNKSt3__110__function6__funcIZN8facebook5react23RuntimeSchedulerBinding3getERNS2_3jsi7RuntimeERKNS5_10PropNameIDEE3$_1NS_9allocatorISB_EEFNS5_5ValueES7_RKSE_PSF_mEE7__cloneEPNS0_6__baseISI_EE', symObjAddr: 0x1748, symBinAddr: 0xE788, symSize: 0x14 }
  - { offset: 0x9D602, size: 0x8, addend: 0x0, symName: '__ZNKSt3__110__function6__funcIZN8facebook5react23RuntimeSchedulerBinding3getERNS2_3jsi7RuntimeERKNS5_10PropNameIDEE3$_1NS_9allocatorISB_EEFNS5_5ValueES7_RKSE_PSF_mEE7__cloneEPNS0_6__baseISI_EE', symObjAddr: 0x1748, symBinAddr: 0xE788, symSize: 0x14 }
  - { offset: 0x9D634, size: 0x8, addend: 0x0, symName: '__ZNKSt3__110__function6__funcIZN8facebook5react23RuntimeSchedulerBinding3getERNS2_3jsi7RuntimeERKNS5_10PropNameIDEE3$_1NS_9allocatorISB_EEFNS5_5ValueES7_RKSE_PSF_mEE7__cloneEPNS0_6__baseISI_EE', symObjAddr: 0x1748, symBinAddr: 0xE788, symSize: 0x14 }
  - { offset: 0x9D64A, size: 0x8, addend: 0x0, symName: '__ZNKSt3__110__function6__funcIZN8facebook5react23RuntimeSchedulerBinding3getERNS2_3jsi7RuntimeERKNS5_10PropNameIDEE3$_1NS_9allocatorISB_EEFNS5_5ValueES7_RKSE_PSF_mEE7__cloneEPNS0_6__baseISI_EE', symObjAddr: 0x1748, symBinAddr: 0xE788, symSize: 0x14 }
  - { offset: 0x9D65F, size: 0x8, addend: 0x0, symName: '__ZNSt3__110__function6__funcIZN8facebook5react23RuntimeSchedulerBinding3getERNS2_3jsi7RuntimeERKNS5_10PropNameIDEE3$_1NS_9allocatorISB_EEFNS5_5ValueES7_RKSE_PSF_mEE7destroyEv', symObjAddr: 0x175C, symBinAddr: 0xE79C, symSize: 0x4 }
  - { offset: 0x9D6B4, size: 0x8, addend: 0x0, symName: '__ZNSt3__110__function6__funcIZN8facebook5react23RuntimeSchedulerBinding3getERNS2_3jsi7RuntimeERKNS5_10PropNameIDEE3$_1NS_9allocatorISB_EEFNS5_5ValueES7_RKSE_PSF_mEE18destroy_deallocateEv', symObjAddr: 0x1760, symBinAddr: 0xE7A0, symSize: 0x4 }
  - { offset: 0x9D6E9, size: 0x8, addend: 0x0, symName: '__ZNSt3__110__function6__funcIZN8facebook5react23RuntimeSchedulerBinding3getERNS2_3jsi7RuntimeERKNS5_10PropNameIDEE3$_1NS_9allocatorISB_EEFNS5_5ValueES7_RKSE_PSF_mEE18destroy_deallocateEv', symObjAddr: 0x1760, symBinAddr: 0xE7A0, symSize: 0x4 }
  - { offset: 0x9D70E, size: 0x8, addend: 0x0, symName: '__ZNSt3__110__function6__funcIZN8facebook5react23RuntimeSchedulerBinding3getERNS2_3jsi7RuntimeERKNS5_10PropNameIDEE3$_1NS_9allocatorISB_EEFNS5_5ValueES7_RKSE_PSF_mEE18destroy_deallocateEv', symObjAddr: 0x1760, symBinAddr: 0xE7A0, symSize: 0x4 }
  - { offset: 0x9D744, size: 0x8, addend: 0x0, symName: '__ZNSt3__110__function6__funcIZN8facebook5react23RuntimeSchedulerBinding3getERNS2_3jsi7RuntimeERKNS5_10PropNameIDEE3$_1NS_9allocatorISB_EEFNS5_5ValueES7_RKSE_PSF_mEE18destroy_deallocateEv', symObjAddr: 0x1760, symBinAddr: 0xE7A0, symSize: 0x4 }
  - { offset: 0x9D8B5, size: 0x8, addend: 0x0, symName: '__ZNSt3__110__function6__funcIZN8facebook5react23RuntimeSchedulerBinding3getERNS2_3jsi7RuntimeERKNS5_10PropNameIDEE3$_1NS_9allocatorISB_EEFNS5_5ValueES7_RKSE_PSF_mEEclES7_SG_OSH_Om', symObjAddr: 0x1764, symBinAddr: 0xE7A4, symSize: 0x10C }
  - { offset: 0x9DD45, size: 0x8, addend: 0x0, symName: '__ZNKSt3__110__function6__funcIZN8facebook5react23RuntimeSchedulerBinding3getERNS2_3jsi7RuntimeERKNS5_10PropNameIDEE3$_1NS_9allocatorISB_EEFNS5_5ValueES7_RKSE_PSF_mEE6targetERKSt9type_info', symObjAddr: 0x1870, symBinAddr: 0xE8B0, symSize: 0x3C }
  - { offset: 0x9DD94, size: 0x8, addend: 0x0, symName: '__ZNKSt3__110__function6__funcIZN8facebook5react23RuntimeSchedulerBinding3getERNS2_3jsi7RuntimeERKNS5_10PropNameIDEE3$_1NS_9allocatorISB_EEFNS5_5ValueES7_RKSE_PSF_mEE11target_typeEv', symObjAddr: 0x18AC, symBinAddr: 0xE8EC, symSize: 0xC }
  - { offset: 0x9DDB7, size: 0x8, addend: 0x0, symName: '__ZNSt3__110__function6__funcIZN8facebook5react23RuntimeSchedulerBinding3getERNS2_3jsi7RuntimeERKNS5_10PropNameIDEE3$_2NS_9allocatorISB_EEFNS5_5ValueES7_RKSE_PSF_mEED1Ev', symObjAddr: 0x18B8, symBinAddr: 0xE8F8, symSize: 0x4 }
  - { offset: 0x9DDE3, size: 0x8, addend: 0x0, symName: '__ZNSt3__110__function6__funcIZN8facebook5react23RuntimeSchedulerBinding3getERNS2_3jsi7RuntimeERKNS5_10PropNameIDEE3$_2NS_9allocatorISB_EEFNS5_5ValueES7_RKSE_PSF_mEED0Ev', symObjAddr: 0x18BC, symBinAddr: 0xE8FC, symSize: 0x4 }
  - { offset: 0x9DEFE, size: 0x8, addend: 0x0, symName: '__ZNKSt3__110__function6__funcIZN8facebook5react23RuntimeSchedulerBinding3getERNS2_3jsi7RuntimeERKNS5_10PropNameIDEE3$_2NS_9allocatorISB_EEFNS5_5ValueES7_RKSE_PSF_mEE7__cloneEv', symObjAddr: 0x18C0, symBinAddr: 0xE900, symSize: 0x34 }
  - { offset: 0x9E110, size: 0x8, addend: 0x0, symName: '__ZNKSt3__110__function6__funcIZN8facebook5react23RuntimeSchedulerBinding3getERNS2_3jsi7RuntimeERKNS5_10PropNameIDEE3$_2NS_9allocatorISB_EEFNS5_5ValueES7_RKSE_PSF_mEE7__cloneEPNS0_6__baseISI_EE', symObjAddr: 0x18F4, symBinAddr: 0xE934, symSize: 0x14 }
  - { offset: 0x9E147, size: 0x8, addend: 0x0, symName: '__ZNKSt3__110__function6__funcIZN8facebook5react23RuntimeSchedulerBinding3getERNS2_3jsi7RuntimeERKNS5_10PropNameIDEE3$_2NS_9allocatorISB_EEFNS5_5ValueES7_RKSE_PSF_mEE7__cloneEPNS0_6__baseISI_EE', symObjAddr: 0x18F4, symBinAddr: 0xE934, symSize: 0x14 }
  - { offset: 0x9E179, size: 0x8, addend: 0x0, symName: '__ZNKSt3__110__function6__funcIZN8facebook5react23RuntimeSchedulerBinding3getERNS2_3jsi7RuntimeERKNS5_10PropNameIDEE3$_2NS_9allocatorISB_EEFNS5_5ValueES7_RKSE_PSF_mEE7__cloneEPNS0_6__baseISI_EE', symObjAddr: 0x18F4, symBinAddr: 0xE934, symSize: 0x14 }
  - { offset: 0x9E1AB, size: 0x8, addend: 0x0, symName: '__ZNKSt3__110__function6__funcIZN8facebook5react23RuntimeSchedulerBinding3getERNS2_3jsi7RuntimeERKNS5_10PropNameIDEE3$_2NS_9allocatorISB_EEFNS5_5ValueES7_RKSE_PSF_mEE7__cloneEPNS0_6__baseISI_EE', symObjAddr: 0x18F4, symBinAddr: 0xE934, symSize: 0x14 }
  - { offset: 0x9E1C1, size: 0x8, addend: 0x0, symName: '__ZNKSt3__110__function6__funcIZN8facebook5react23RuntimeSchedulerBinding3getERNS2_3jsi7RuntimeERKNS5_10PropNameIDEE3$_2NS_9allocatorISB_EEFNS5_5ValueES7_RKSE_PSF_mEE7__cloneEPNS0_6__baseISI_EE', symObjAddr: 0x18F4, symBinAddr: 0xE934, symSize: 0x14 }
  - { offset: 0x9E1D6, size: 0x8, addend: 0x0, symName: '__ZNSt3__110__function6__funcIZN8facebook5react23RuntimeSchedulerBinding3getERNS2_3jsi7RuntimeERKNS5_10PropNameIDEE3$_2NS_9allocatorISB_EEFNS5_5ValueES7_RKSE_PSF_mEE7destroyEv', symObjAddr: 0x1908, symBinAddr: 0xE948, symSize: 0x4 }
  - { offset: 0x9E22B, size: 0x8, addend: 0x0, symName: '__ZNSt3__110__function6__funcIZN8facebook5react23RuntimeSchedulerBinding3getERNS2_3jsi7RuntimeERKNS5_10PropNameIDEE3$_2NS_9allocatorISB_EEFNS5_5ValueES7_RKSE_PSF_mEE18destroy_deallocateEv', symObjAddr: 0x190C, symBinAddr: 0xE94C, symSize: 0x4 }
  - { offset: 0x9E260, size: 0x8, addend: 0x0, symName: '__ZNSt3__110__function6__funcIZN8facebook5react23RuntimeSchedulerBinding3getERNS2_3jsi7RuntimeERKNS5_10PropNameIDEE3$_2NS_9allocatorISB_EEFNS5_5ValueES7_RKSE_PSF_mEE18destroy_deallocateEv', symObjAddr: 0x190C, symBinAddr: 0xE94C, symSize: 0x4 }
  - { offset: 0x9E285, size: 0x8, addend: 0x0, symName: '__ZNSt3__110__function6__funcIZN8facebook5react23RuntimeSchedulerBinding3getERNS2_3jsi7RuntimeERKNS5_10PropNameIDEE3$_2NS_9allocatorISB_EEFNS5_5ValueES7_RKSE_PSF_mEE18destroy_deallocateEv', symObjAddr: 0x190C, symBinAddr: 0xE94C, symSize: 0x4 }
  - { offset: 0x9E2BB, size: 0x8, addend: 0x0, symName: '__ZNSt3__110__function6__funcIZN8facebook5react23RuntimeSchedulerBinding3getERNS2_3jsi7RuntimeERKNS5_10PropNameIDEE3$_2NS_9allocatorISB_EEFNS5_5ValueES7_RKSE_PSF_mEE18destroy_deallocateEv', symObjAddr: 0x190C, symBinAddr: 0xE94C, symSize: 0x4 }
  - { offset: 0x9E3FC, size: 0x8, addend: 0x0, symName: '__ZNSt3__110__function6__funcIZN8facebook5react23RuntimeSchedulerBinding3getERNS2_3jsi7RuntimeERKNS5_10PropNameIDEE3$_2NS_9allocatorISB_EEFNS5_5ValueES7_RKSE_PSF_mEEclES7_SG_OSH_Om', symObjAddr: 0x1910, symBinAddr: 0xE950, symSize: 0x34 }
  - { offset: 0x9E58D, size: 0x8, addend: 0x0, symName: '__ZNKSt3__110__function6__funcIZN8facebook5react23RuntimeSchedulerBinding3getERNS2_3jsi7RuntimeERKNS5_10PropNameIDEE3$_2NS_9allocatorISB_EEFNS5_5ValueES7_RKSE_PSF_mEE6targetERKSt9type_info', symObjAddr: 0x1944, symBinAddr: 0xE984, symSize: 0x3C }
  - { offset: 0x9E5DC, size: 0x8, addend: 0x0, symName: '__ZNKSt3__110__function6__funcIZN8facebook5react23RuntimeSchedulerBinding3getERNS2_3jsi7RuntimeERKNS5_10PropNameIDEE3$_2NS_9allocatorISB_EEFNS5_5ValueES7_RKSE_PSF_mEE11target_typeEv', symObjAddr: 0x1980, symBinAddr: 0xE9C0, symSize: 0xC }
  - { offset: 0x9E5FF, size: 0x8, addend: 0x0, symName: '__ZNSt3__110__function6__funcIZN8facebook5react23RuntimeSchedulerBinding3getERNS2_3jsi7RuntimeERKNS5_10PropNameIDEE3$_3NS_9allocatorISB_EEFNS5_5ValueES7_RKSE_PSF_mEED1Ev', symObjAddr: 0x198C, symBinAddr: 0xE9CC, symSize: 0x4 }
  - { offset: 0x9E62B, size: 0x8, addend: 0x0, symName: '__ZNSt3__110__function6__funcIZN8facebook5react23RuntimeSchedulerBinding3getERNS2_3jsi7RuntimeERKNS5_10PropNameIDEE3$_3NS_9allocatorISB_EEFNS5_5ValueES7_RKSE_PSF_mEED0Ev', symObjAddr: 0x1990, symBinAddr: 0xE9D0, symSize: 0x4 }
  - { offset: 0x9E6E6, size: 0x8, addend: 0x0, symName: '__ZNKSt3__110__function6__funcIZN8facebook5react23RuntimeSchedulerBinding3getERNS2_3jsi7RuntimeERKNS5_10PropNameIDEE3$_3NS_9allocatorISB_EEFNS5_5ValueES7_RKSE_PSF_mEE7__cloneEv', symObjAddr: 0x1994, symBinAddr: 0xE9D4, symSize: 0x24 }
  - { offset: 0x9E83F, size: 0x8, addend: 0x0, symName: '__ZNKSt3__110__function6__funcIZN8facebook5react23RuntimeSchedulerBinding3getERNS2_3jsi7RuntimeERKNS5_10PropNameIDEE3$_3NS_9allocatorISB_EEFNS5_5ValueES7_RKSE_PSF_mEE7__cloneEPNS0_6__baseISI_EE', symObjAddr: 0x19B8, symBinAddr: 0xE9F8, symSize: 0x10 }
  - { offset: 0x9E874, size: 0x8, addend: 0x0, symName: '__ZNKSt3__110__function6__funcIZN8facebook5react23RuntimeSchedulerBinding3getERNS2_3jsi7RuntimeERKNS5_10PropNameIDEE3$_3NS_9allocatorISB_EEFNS5_5ValueES7_RKSE_PSF_mEE7__cloneEPNS0_6__baseISI_EE', symObjAddr: 0x19B8, symBinAddr: 0xE9F8, symSize: 0x10 }
  - { offset: 0x9E892, size: 0x8, addend: 0x0, symName: '__ZNKSt3__110__function6__funcIZN8facebook5react23RuntimeSchedulerBinding3getERNS2_3jsi7RuntimeERKNS5_10PropNameIDEE3$_3NS_9allocatorISB_EEFNS5_5ValueES7_RKSE_PSF_mEE7__cloneEPNS0_6__baseISI_EE', symObjAddr: 0x19B8, symBinAddr: 0xE9F8, symSize: 0x10 }
  - { offset: 0x9E8AF, size: 0x8, addend: 0x0, symName: '__ZNSt3__110__function6__funcIZN8facebook5react23RuntimeSchedulerBinding3getERNS2_3jsi7RuntimeERKNS5_10PropNameIDEE3$_3NS_9allocatorISB_EEFNS5_5ValueES7_RKSE_PSF_mEE7destroyEv', symObjAddr: 0x19C8, symBinAddr: 0xEA08, symSize: 0x4 }
  - { offset: 0x9E904, size: 0x8, addend: 0x0, symName: '__ZNSt3__110__function6__funcIZN8facebook5react23RuntimeSchedulerBinding3getERNS2_3jsi7RuntimeERKNS5_10PropNameIDEE3$_3NS_9allocatorISB_EEFNS5_5ValueES7_RKSE_PSF_mEE18destroy_deallocateEv', symObjAddr: 0x19CC, symBinAddr: 0xEA0C, symSize: 0x4 }
  - { offset: 0x9E939, size: 0x8, addend: 0x0, symName: '__ZNSt3__110__function6__funcIZN8facebook5react23RuntimeSchedulerBinding3getERNS2_3jsi7RuntimeERKNS5_10PropNameIDEE3$_3NS_9allocatorISB_EEFNS5_5ValueES7_RKSE_PSF_mEE18destroy_deallocateEv', symObjAddr: 0x19CC, symBinAddr: 0xEA0C, symSize: 0x4 }
  - { offset: 0x9E95E, size: 0x8, addend: 0x0, symName: '__ZNSt3__110__function6__funcIZN8facebook5react23RuntimeSchedulerBinding3getERNS2_3jsi7RuntimeERKNS5_10PropNameIDEE3$_3NS_9allocatorISB_EEFNS5_5ValueES7_RKSE_PSF_mEE18destroy_deallocateEv', symObjAddr: 0x19CC, symBinAddr: 0xEA0C, symSize: 0x4 }
  - { offset: 0x9E994, size: 0x8, addend: 0x0, symName: '__ZNSt3__110__function6__funcIZN8facebook5react23RuntimeSchedulerBinding3getERNS2_3jsi7RuntimeERKNS5_10PropNameIDEE3$_3NS_9allocatorISB_EEFNS5_5ValueES7_RKSE_PSF_mEE18destroy_deallocateEv', symObjAddr: 0x19CC, symBinAddr: 0xEA0C, symSize: 0x4 }
  - { offset: 0x9EAA3, size: 0x8, addend: 0x0, symName: '__ZNSt3__110__function6__funcIZN8facebook5react23RuntimeSchedulerBinding3getERNS2_3jsi7RuntimeERKNS5_10PropNameIDEE3$_3NS_9allocatorISB_EEFNS5_5ValueES7_RKSE_PSF_mEEclES7_SG_OSH_Om', symObjAddr: 0x19D0, symBinAddr: 0xEA10, symSize: 0x8 }
  - { offset: 0x9EAFD, size: 0x8, addend: 0x0, symName: '__ZNSt3__110__function6__funcIZN8facebook5react23RuntimeSchedulerBinding3getERNS2_3jsi7RuntimeERKNS5_10PropNameIDEE3$_3NS_9allocatorISB_EEFNS5_5ValueES7_RKSE_PSF_mEEclES7_SG_OSH_Om', symObjAddr: 0x19D0, symBinAddr: 0xEA10, symSize: 0x8 }
  - { offset: 0x9EB13, size: 0x8, addend: 0x0, symName: '__ZNSt3__110__function6__funcIZN8facebook5react23RuntimeSchedulerBinding3getERNS2_3jsi7RuntimeERKNS5_10PropNameIDEE3$_3NS_9allocatorISB_EEFNS5_5ValueES7_RKSE_PSF_mEEclES7_SG_OSH_Om', symObjAddr: 0x19D0, symBinAddr: 0xEA10, symSize: 0x8 }
  - { offset: 0x9EB28, size: 0x8, addend: 0x0, symName: '__ZNSt3__110__function6__funcIZN8facebook5react23RuntimeSchedulerBinding3getERNS2_3jsi7RuntimeERKNS5_10PropNameIDEE3$_3NS_9allocatorISB_EEFNS5_5ValueES7_RKSE_PSF_mEEclES7_SG_OSH_Om', symObjAddr: 0x19D0, symBinAddr: 0xEA10, symSize: 0x8 }
  - { offset: 0x9EB3E, size: 0x8, addend: 0x0, symName: '__ZNSt3__110__function6__funcIZN8facebook5react23RuntimeSchedulerBinding3getERNS2_3jsi7RuntimeERKNS5_10PropNameIDEE3$_3NS_9allocatorISB_EEFNS5_5ValueES7_RKSE_PSF_mEEclES7_SG_OSH_Om', symObjAddr: 0x19D0, symBinAddr: 0xEA10, symSize: 0x8 }
  - { offset: 0x9EB53, size: 0x8, addend: 0x0, symName: '__ZNSt3__110__function6__funcIZN8facebook5react23RuntimeSchedulerBinding3getERNS2_3jsi7RuntimeERKNS5_10PropNameIDEE3$_3NS_9allocatorISB_EEFNS5_5ValueES7_RKSE_PSF_mEEclES7_SG_OSH_Om', symObjAddr: 0x19D0, symBinAddr: 0xEA10, symSize: 0x8 }
  - { offset: 0x9EB68, size: 0x8, addend: 0x0, symName: '__ZNSt3__110__function6__funcIZN8facebook5react23RuntimeSchedulerBinding3getERNS2_3jsi7RuntimeERKNS5_10PropNameIDEE3$_3NS_9allocatorISB_EEFNS5_5ValueES7_RKSE_PSF_mEEclES7_SG_OSH_Om', symObjAddr: 0x19D0, symBinAddr: 0xEA10, symSize: 0x8 }
  - { offset: 0x9EB7D, size: 0x8, addend: 0x0, symName: '__ZNSt3__110__function6__funcIZN8facebook5react23RuntimeSchedulerBinding3getERNS2_3jsi7RuntimeERKNS5_10PropNameIDEE3$_3NS_9allocatorISB_EEFNS5_5ValueES7_RKSE_PSF_mEEclES7_SG_OSH_Om', symObjAddr: 0x19D0, symBinAddr: 0xEA10, symSize: 0x8 }
  - { offset: 0x9EB9B, size: 0x8, addend: 0x0, symName: '__ZNSt3__110__function6__funcIZN8facebook5react23RuntimeSchedulerBinding3getERNS2_3jsi7RuntimeERKNS5_10PropNameIDEE3$_3NS_9allocatorISB_EEFNS5_5ValueES7_RKSE_PSF_mEEclES7_SG_OSH_Om', symObjAddr: 0x19D0, symBinAddr: 0xEA10, symSize: 0x8 }
  - { offset: 0x9EBC0, size: 0x8, addend: 0x0, symName: '__ZNSt3__110__function6__funcIZN8facebook5react23RuntimeSchedulerBinding3getERNS2_3jsi7RuntimeERKNS5_10PropNameIDEE3$_3NS_9allocatorISB_EEFNS5_5ValueES7_RKSE_PSF_mEEclES7_SG_OSH_Om', symObjAddr: 0x19D0, symBinAddr: 0xEA10, symSize: 0x8 }
  - { offset: 0x9EBEB, size: 0x8, addend: 0x0, symName: '__ZNKSt3__110__function6__funcIZN8facebook5react23RuntimeSchedulerBinding3getERNS2_3jsi7RuntimeERKNS5_10PropNameIDEE3$_3NS_9allocatorISB_EEFNS5_5ValueES7_RKSE_PSF_mEE6targetERKSt9type_info', symObjAddr: 0x19D8, symBinAddr: 0xEA18, symSize: 0x3C }
  - { offset: 0x9EC3A, size: 0x8, addend: 0x0, symName: '__ZNKSt3__110__function6__funcIZN8facebook5react23RuntimeSchedulerBinding3getERNS2_3jsi7RuntimeERKNS5_10PropNameIDEE3$_3NS_9allocatorISB_EEFNS5_5ValueES7_RKSE_PSF_mEE11target_typeEv', symObjAddr: 0x1A14, symBinAddr: 0xEA54, symSize: 0xC }
  - { offset: 0x9EC5D, size: 0x8, addend: 0x0, symName: '__ZNSt3__110__function6__funcIZN8facebook5react23RuntimeSchedulerBinding3getERNS2_3jsi7RuntimeERKNS5_10PropNameIDEE3$_4NS_9allocatorISB_EEFNS5_5ValueES7_RKSE_PSF_mEED1Ev', symObjAddr: 0x1A20, symBinAddr: 0xEA60, symSize: 0x4 }
  - { offset: 0x9EC89, size: 0x8, addend: 0x0, symName: '__ZNSt3__110__function6__funcIZN8facebook5react23RuntimeSchedulerBinding3getERNS2_3jsi7RuntimeERKNS5_10PropNameIDEE3$_4NS_9allocatorISB_EEFNS5_5ValueES7_RKSE_PSF_mEED0Ev', symObjAddr: 0x1A24, symBinAddr: 0xEA64, symSize: 0x4 }
  - { offset: 0x9EDA4, size: 0x8, addend: 0x0, symName: '__ZNKSt3__110__function6__funcIZN8facebook5react23RuntimeSchedulerBinding3getERNS2_3jsi7RuntimeERKNS5_10PropNameIDEE3$_4NS_9allocatorISB_EEFNS5_5ValueES7_RKSE_PSF_mEE7__cloneEv', symObjAddr: 0x1A28, symBinAddr: 0xEA68, symSize: 0x34 }
  - { offset: 0x9EFB6, size: 0x8, addend: 0x0, symName: '__ZNKSt3__110__function6__funcIZN8facebook5react23RuntimeSchedulerBinding3getERNS2_3jsi7RuntimeERKNS5_10PropNameIDEE3$_4NS_9allocatorISB_EEFNS5_5ValueES7_RKSE_PSF_mEE7__cloneEPNS0_6__baseISI_EE', symObjAddr: 0x1A5C, symBinAddr: 0xEA9C, symSize: 0x14 }
  - { offset: 0x9EFED, size: 0x8, addend: 0x0, symName: '__ZNKSt3__110__function6__funcIZN8facebook5react23RuntimeSchedulerBinding3getERNS2_3jsi7RuntimeERKNS5_10PropNameIDEE3$_4NS_9allocatorISB_EEFNS5_5ValueES7_RKSE_PSF_mEE7__cloneEPNS0_6__baseISI_EE', symObjAddr: 0x1A5C, symBinAddr: 0xEA9C, symSize: 0x14 }
  - { offset: 0x9F01F, size: 0x8, addend: 0x0, symName: '__ZNKSt3__110__function6__funcIZN8facebook5react23RuntimeSchedulerBinding3getERNS2_3jsi7RuntimeERKNS5_10PropNameIDEE3$_4NS_9allocatorISB_EEFNS5_5ValueES7_RKSE_PSF_mEE7__cloneEPNS0_6__baseISI_EE', symObjAddr: 0x1A5C, symBinAddr: 0xEA9C, symSize: 0x14 }
  - { offset: 0x9F051, size: 0x8, addend: 0x0, symName: '__ZNKSt3__110__function6__funcIZN8facebook5react23RuntimeSchedulerBinding3getERNS2_3jsi7RuntimeERKNS5_10PropNameIDEE3$_4NS_9allocatorISB_EEFNS5_5ValueES7_RKSE_PSF_mEE7__cloneEPNS0_6__baseISI_EE', symObjAddr: 0x1A5C, symBinAddr: 0xEA9C, symSize: 0x14 }
  - { offset: 0x9F067, size: 0x8, addend: 0x0, symName: '__ZNKSt3__110__function6__funcIZN8facebook5react23RuntimeSchedulerBinding3getERNS2_3jsi7RuntimeERKNS5_10PropNameIDEE3$_4NS_9allocatorISB_EEFNS5_5ValueES7_RKSE_PSF_mEE7__cloneEPNS0_6__baseISI_EE', symObjAddr: 0x1A5C, symBinAddr: 0xEA9C, symSize: 0x14 }
  - { offset: 0x9F07C, size: 0x8, addend: 0x0, symName: '__ZNSt3__110__function6__funcIZN8facebook5react23RuntimeSchedulerBinding3getERNS2_3jsi7RuntimeERKNS5_10PropNameIDEE3$_4NS_9allocatorISB_EEFNS5_5ValueES7_RKSE_PSF_mEE7destroyEv', symObjAddr: 0x1A70, symBinAddr: 0xEAB0, symSize: 0x4 }
  - { offset: 0x9F0D1, size: 0x8, addend: 0x0, symName: '__ZNSt3__110__function6__funcIZN8facebook5react23RuntimeSchedulerBinding3getERNS2_3jsi7RuntimeERKNS5_10PropNameIDEE3$_4NS_9allocatorISB_EEFNS5_5ValueES7_RKSE_PSF_mEE18destroy_deallocateEv', symObjAddr: 0x1A74, symBinAddr: 0xEAB4, symSize: 0x4 }
  - { offset: 0x9F106, size: 0x8, addend: 0x0, symName: '__ZNSt3__110__function6__funcIZN8facebook5react23RuntimeSchedulerBinding3getERNS2_3jsi7RuntimeERKNS5_10PropNameIDEE3$_4NS_9allocatorISB_EEFNS5_5ValueES7_RKSE_PSF_mEE18destroy_deallocateEv', symObjAddr: 0x1A74, symBinAddr: 0xEAB4, symSize: 0x4 }
  - { offset: 0x9F12B, size: 0x8, addend: 0x0, symName: '__ZNSt3__110__function6__funcIZN8facebook5react23RuntimeSchedulerBinding3getERNS2_3jsi7RuntimeERKNS5_10PropNameIDEE3$_4NS_9allocatorISB_EEFNS5_5ValueES7_RKSE_PSF_mEE18destroy_deallocateEv', symObjAddr: 0x1A74, symBinAddr: 0xEAB4, symSize: 0x4 }
  - { offset: 0x9F161, size: 0x8, addend: 0x0, symName: '__ZNSt3__110__function6__funcIZN8facebook5react23RuntimeSchedulerBinding3getERNS2_3jsi7RuntimeERKNS5_10PropNameIDEE3$_4NS_9allocatorISB_EEFNS5_5ValueES7_RKSE_PSF_mEE18destroy_deallocateEv', symObjAddr: 0x1A74, symBinAddr: 0xEAB4, symSize: 0x4 }
  - { offset: 0x9F388, size: 0x8, addend: 0x0, symName: '__ZNSt3__110__function6__funcIZN8facebook5react23RuntimeSchedulerBinding3getERNS2_3jsi7RuntimeERKNS5_10PropNameIDEE3$_4NS_9allocatorISB_EEFNS5_5ValueES7_RKSE_PSF_mEEclES7_SG_OSH_Om', symObjAddr: 0x1A78, symBinAddr: 0xEAB8, symSize: 0x44 }
  - { offset: 0x9F5AF, size: 0x8, addend: 0x0, symName: '__ZNKSt3__110__function6__funcIZN8facebook5react23RuntimeSchedulerBinding3getERNS2_3jsi7RuntimeERKNS5_10PropNameIDEE3$_4NS_9allocatorISB_EEFNS5_5ValueES7_RKSE_PSF_mEE6targetERKSt9type_info', symObjAddr: 0x1ABC, symBinAddr: 0xEAFC, symSize: 0x3C }
  - { offset: 0x9F5FE, size: 0x8, addend: 0x0, symName: '__ZNKSt3__110__function6__funcIZN8facebook5react23RuntimeSchedulerBinding3getERNS2_3jsi7RuntimeERKNS5_10PropNameIDEE3$_4NS_9allocatorISB_EEFNS5_5ValueES7_RKSE_PSF_mEE11target_typeEv', symObjAddr: 0x1AF8, symBinAddr: 0xEB38, symSize: 0xC }
  - { offset: 0x9F621, size: 0x8, addend: 0x0, symName: '__ZNSt3__110__function6__funcIZN8facebook5react23RuntimeSchedulerBinding3getERNS2_3jsi7RuntimeERKNS5_10PropNameIDEE3$_5NS_9allocatorISB_EEFNS5_5ValueES7_RKSE_PSF_mEED1Ev', symObjAddr: 0x1B04, symBinAddr: 0xEB44, symSize: 0x4 }
  - { offset: 0x9F64D, size: 0x8, addend: 0x0, symName: '__ZNSt3__110__function6__funcIZN8facebook5react23RuntimeSchedulerBinding3getERNS2_3jsi7RuntimeERKNS5_10PropNameIDEE3$_5NS_9allocatorISB_EEFNS5_5ValueES7_RKSE_PSF_mEED0Ev', symObjAddr: 0x1B08, symBinAddr: 0xEB48, symSize: 0x4 }
  - { offset: 0x9F768, size: 0x8, addend: 0x0, symName: '__ZNKSt3__110__function6__funcIZN8facebook5react23RuntimeSchedulerBinding3getERNS2_3jsi7RuntimeERKNS5_10PropNameIDEE3$_5NS_9allocatorISB_EEFNS5_5ValueES7_RKSE_PSF_mEE7__cloneEv', symObjAddr: 0x1B0C, symBinAddr: 0xEB4C, symSize: 0x34 }
  - { offset: 0x9F97A, size: 0x8, addend: 0x0, symName: '__ZNKSt3__110__function6__funcIZN8facebook5react23RuntimeSchedulerBinding3getERNS2_3jsi7RuntimeERKNS5_10PropNameIDEE3$_5NS_9allocatorISB_EEFNS5_5ValueES7_RKSE_PSF_mEE7__cloneEPNS0_6__baseISI_EE', symObjAddr: 0x1B40, symBinAddr: 0xEB80, symSize: 0x14 }
  - { offset: 0x9F9B1, size: 0x8, addend: 0x0, symName: '__ZNKSt3__110__function6__funcIZN8facebook5react23RuntimeSchedulerBinding3getERNS2_3jsi7RuntimeERKNS5_10PropNameIDEE3$_5NS_9allocatorISB_EEFNS5_5ValueES7_RKSE_PSF_mEE7__cloneEPNS0_6__baseISI_EE', symObjAddr: 0x1B40, symBinAddr: 0xEB80, symSize: 0x14 }
  - { offset: 0x9F9E3, size: 0x8, addend: 0x0, symName: '__ZNKSt3__110__function6__funcIZN8facebook5react23RuntimeSchedulerBinding3getERNS2_3jsi7RuntimeERKNS5_10PropNameIDEE3$_5NS_9allocatorISB_EEFNS5_5ValueES7_RKSE_PSF_mEE7__cloneEPNS0_6__baseISI_EE', symObjAddr: 0x1B40, symBinAddr: 0xEB80, symSize: 0x14 }
  - { offset: 0x9FA15, size: 0x8, addend: 0x0, symName: '__ZNKSt3__110__function6__funcIZN8facebook5react23RuntimeSchedulerBinding3getERNS2_3jsi7RuntimeERKNS5_10PropNameIDEE3$_5NS_9allocatorISB_EEFNS5_5ValueES7_RKSE_PSF_mEE7__cloneEPNS0_6__baseISI_EE', symObjAddr: 0x1B40, symBinAddr: 0xEB80, symSize: 0x14 }
  - { offset: 0x9FA2B, size: 0x8, addend: 0x0, symName: '__ZNKSt3__110__function6__funcIZN8facebook5react23RuntimeSchedulerBinding3getERNS2_3jsi7RuntimeERKNS5_10PropNameIDEE3$_5NS_9allocatorISB_EEFNS5_5ValueES7_RKSE_PSF_mEE7__cloneEPNS0_6__baseISI_EE', symObjAddr: 0x1B40, symBinAddr: 0xEB80, symSize: 0x14 }
  - { offset: 0x9FA40, size: 0x8, addend: 0x0, symName: '__ZNSt3__110__function6__funcIZN8facebook5react23RuntimeSchedulerBinding3getERNS2_3jsi7RuntimeERKNS5_10PropNameIDEE3$_5NS_9allocatorISB_EEFNS5_5ValueES7_RKSE_PSF_mEE7destroyEv', symObjAddr: 0x1B54, symBinAddr: 0xEB94, symSize: 0x4 }
  - { offset: 0x9FA95, size: 0x8, addend: 0x0, symName: '__ZNSt3__110__function6__funcIZN8facebook5react23RuntimeSchedulerBinding3getERNS2_3jsi7RuntimeERKNS5_10PropNameIDEE3$_5NS_9allocatorISB_EEFNS5_5ValueES7_RKSE_PSF_mEE18destroy_deallocateEv', symObjAddr: 0x1B58, symBinAddr: 0xEB98, symSize: 0x4 }
  - { offset: 0x9FACA, size: 0x8, addend: 0x0, symName: '__ZNSt3__110__function6__funcIZN8facebook5react23RuntimeSchedulerBinding3getERNS2_3jsi7RuntimeERKNS5_10PropNameIDEE3$_5NS_9allocatorISB_EEFNS5_5ValueES7_RKSE_PSF_mEE18destroy_deallocateEv', symObjAddr: 0x1B58, symBinAddr: 0xEB98, symSize: 0x4 }
  - { offset: 0x9FAEF, size: 0x8, addend: 0x0, symName: '__ZNSt3__110__function6__funcIZN8facebook5react23RuntimeSchedulerBinding3getERNS2_3jsi7RuntimeERKNS5_10PropNameIDEE3$_5NS_9allocatorISB_EEFNS5_5ValueES7_RKSE_PSF_mEE18destroy_deallocateEv', symObjAddr: 0x1B58, symBinAddr: 0xEB98, symSize: 0x4 }
  - { offset: 0x9FB25, size: 0x8, addend: 0x0, symName: '__ZNSt3__110__function6__funcIZN8facebook5react23RuntimeSchedulerBinding3getERNS2_3jsi7RuntimeERKNS5_10PropNameIDEE3$_5NS_9allocatorISB_EEFNS5_5ValueES7_RKSE_PSF_mEE18destroy_deallocateEv', symObjAddr: 0x1B58, symBinAddr: 0xEB98, symSize: 0x4 }
  - { offset: 0x9FC42, size: 0x8, addend: 0x0, symName: '__ZNSt3__110__function6__funcIZN8facebook5react23RuntimeSchedulerBinding3getERNS2_3jsi7RuntimeERKNS5_10PropNameIDEE3$_5NS_9allocatorISB_EEFNS5_5ValueES7_RKSE_PSF_mEEclES7_SG_OSH_Om', symObjAddr: 0x1B5C, symBinAddr: 0xEB9C, symSize: 0x60 }
  - { offset: 0x9FDE9, size: 0x8, addend: 0x0, symName: '__ZNKSt3__110__function6__funcIZN8facebook5react23RuntimeSchedulerBinding3getERNS2_3jsi7RuntimeERKNS5_10PropNameIDEE3$_5NS_9allocatorISB_EEFNS5_5ValueES7_RKSE_PSF_mEE6targetERKSt9type_info', symObjAddr: 0x1BBC, symBinAddr: 0xEBFC, symSize: 0x3C }
  - { offset: 0x9FE38, size: 0x8, addend: 0x0, symName: '__ZNKSt3__110__function6__funcIZN8facebook5react23RuntimeSchedulerBinding3getERNS2_3jsi7RuntimeERKNS5_10PropNameIDEE3$_5NS_9allocatorISB_EEFNS5_5ValueES7_RKSE_PSF_mEE11target_typeEv', symObjAddr: 0x1BF8, symBinAddr: 0xEC38, symSize: 0xC }
  - { offset: 0xAB6CF, size: 0x8, addend: 0x0, symName: __ZN8facebook5react11CallInvoker11invokeAsyncEONSt3__18functionIFvvEEE, symObjAddr: 0x4DC, symBinAddr: 0xF110, symSize: 0xF8 }
  - { offset: 0xABC6B, size: 0x8, addend: 0x0, symName: __ZN8facebook5react11CallInvoker10invokeSyncEONSt3__18functionIFvvEEE, symObjAddr: 0x5D4, symBinAddr: 0xF208, symSize: 0x15C }
  - { offset: 0xAC3A1, size: 0x8, addend: 0x0, symName: __ZN8facebook5react27RuntimeSchedulerCallInvoker11invokeAsyncEONSt3__18functionIFvRNS_3jsi7RuntimeEEEE, symObjAddr: 0x38, symBinAddr: 0xEC7C, symSize: 0x14C }
  - { offset: 0xAC9FA, size: 0x8, addend: 0x0, symName: __ZN8facebook5react27RuntimeSchedulerCallInvoker10invokeSyncEONSt3__18functionIFvRNS_3jsi7RuntimeEEEE, symObjAddr: 0x194, symBinAddr: 0xEDC8, symSize: 0x1B8 }
  - { offset: 0xAD203, size: 0x8, addend: 0x0, symName: __ZN8facebook5react27RuntimeSchedulerCallInvoker11invokeAsyncENS0_17SchedulerPriorityEONSt3__18functionIFvRNS_3jsi7RuntimeEEEE, symObjAddr: 0x34C, symBinAddr: 0xEF80, symSize: 0x190 }
  - { offset: 0xAD974, size: 0x8, addend: 0x0, symName: __ZN8facebook5react27RuntimeSchedulerCallInvokerC2ENSt3__18weak_ptrINS0_16RuntimeSchedulerEEE, symObjAddr: 0x0, symBinAddr: 0xEC44, symSize: 0x1C }
  - { offset: 0xADA1C, size: 0x8, addend: 0x0, symName: __ZN8facebook5react27RuntimeSchedulerCallInvokerC1ENSt3__18weak_ptrINS0_16RuntimeSchedulerEEE, symObjAddr: 0x1C, symBinAddr: 0xEC60, symSize: 0x1C }
  - { offset: 0xADA59, size: 0x8, addend: 0x0, symName: __ZN8facebook5react27RuntimeSchedulerCallInvokerC1ENSt3__18weak_ptrINS0_16RuntimeSchedulerEEE, symObjAddr: 0x1C, symBinAddr: 0xEC60, symSize: 0x1C }
  - { offset: 0xAEB15, size: 0x8, addend: 0x0, symName: __ZNSt3__110__function12__value_funcIFvvEEC2B8ne200100EOS3_, symObjAddr: 0xA08, symBinAddr: 0xF5D8, symSize: 0x64 }
  - { offset: 0xAEEC9, size: 0x8, addend: 0x0, symName: __ZN8facebook5react27RuntimeSchedulerCallInvokerD1Ev, symObjAddr: 0x730, symBinAddr: 0xF364, symSize: 0x38 }
  - { offset: 0xAEF67, size: 0x8, addend: 0x0, symName: __ZN8facebook5react27RuntimeSchedulerCallInvokerD0Ev, symObjAddr: 0x768, symBinAddr: 0xF39C, symSize: 0x38 }
  - { offset: 0xAF066, size: 0x8, addend: 0x0, symName: __ZNSt3__110__function6__funcIZN8facebook5react11CallInvoker11invokeAsyncEONS_8functionIFvvEEEEUlRNS2_3jsi7RuntimeEE_NS_9allocatorISC_EEFvSB_EED1Ev, symObjAddr: 0x804, symBinAddr: 0xF3D4, symSize: 0x58 }
  - { offset: 0xAF1D5, size: 0x8, addend: 0x0, symName: __ZNSt3__110__function6__funcIZN8facebook5react11CallInvoker11invokeAsyncEONS_8functionIFvvEEEEUlRNS2_3jsi7RuntimeEE_NS_9allocatorISC_EEFvSB_EED0Ev, symObjAddr: 0x85C, symBinAddr: 0xF42C, symSize: 0x58 }
  - { offset: 0xAF581, size: 0x8, addend: 0x0, symName: __ZNKSt3__110__function6__funcIZN8facebook5react11CallInvoker11invokeAsyncEONS_8functionIFvvEEEEUlRNS2_3jsi7RuntimeEE_NS_9allocatorISC_EEFvSB_EE7__cloneEv, symObjAddr: 0x8B4, symBinAddr: 0xF484, symSize: 0x54 }
  - { offset: 0xAF90C, size: 0x8, addend: 0x0, symName: __ZNKSt3__110__function6__funcIZN8facebook5react11CallInvoker11invokeAsyncEONS_8functionIFvvEEEEUlRNS2_3jsi7RuntimeEE_NS_9allocatorISC_EEFvSB_EE7__cloneEPNS0_6__baseISF_EE, symObjAddr: 0x908, symBinAddr: 0xF4D8, symSize: 0x1C }
  - { offset: 0xAFA6F, size: 0x8, addend: 0x0, symName: __ZNSt3__110__function6__funcIZN8facebook5react11CallInvoker11invokeAsyncEONS_8functionIFvvEEEEUlRNS2_3jsi7RuntimeEE_NS_9allocatorISC_EEFvSB_EE7destroyEv, symObjAddr: 0x924, symBinAddr: 0xF4F4, symSize: 0x30 }
  - { offset: 0xAFB86, size: 0x8, addend: 0x0, symName: __ZNSt3__110__function6__funcIZN8facebook5react11CallInvoker11invokeAsyncEONS_8functionIFvvEEEEUlRNS2_3jsi7RuntimeEE_NS_9allocatorISC_EEFvSB_EE18destroy_deallocateEv, symObjAddr: 0x954, symBinAddr: 0xF524, symSize: 0x4C }
  - { offset: 0xAFDF5, size: 0x8, addend: 0x0, symName: __ZNSt3__110__function6__funcIZN8facebook5react11CallInvoker11invokeAsyncEONS_8functionIFvvEEEEUlRNS2_3jsi7RuntimeEE_NS_9allocatorISC_EEFvSB_EEclESB_, symObjAddr: 0x9A0, symBinAddr: 0xF570, symSize: 0x20 }
  - { offset: 0xAFE30, size: 0x8, addend: 0x0, symName: __ZNSt3__110__function6__funcIZN8facebook5react11CallInvoker11invokeAsyncEONS_8functionIFvvEEEEUlRNS2_3jsi7RuntimeEE_NS_9allocatorISC_EEFvSB_EEclESB_, symObjAddr: 0x9A0, symBinAddr: 0xF570, symSize: 0x20 }
  - { offset: 0xAFE5A, size: 0x8, addend: 0x0, symName: __ZNSt3__110__function6__funcIZN8facebook5react11CallInvoker11invokeAsyncEONS_8functionIFvvEEEEUlRNS2_3jsi7RuntimeEE_NS_9allocatorISC_EEFvSB_EEclESB_, symObjAddr: 0x9A0, symBinAddr: 0xF570, symSize: 0x20 }
  - { offset: 0xAFE83, size: 0x8, addend: 0x0, symName: __ZNSt3__110__function6__funcIZN8facebook5react11CallInvoker11invokeAsyncEONS_8functionIFvvEEEEUlRNS2_3jsi7RuntimeEE_NS_9allocatorISC_EEFvSB_EEclESB_, symObjAddr: 0x9A0, symBinAddr: 0xF570, symSize: 0x20 }
  - { offset: 0xAFEAD, size: 0x8, addend: 0x0, symName: __ZNSt3__110__function6__funcIZN8facebook5react11CallInvoker11invokeAsyncEONS_8functionIFvvEEEEUlRNS2_3jsi7RuntimeEE_NS_9allocatorISC_EEFvSB_EEclESB_, symObjAddr: 0x9A0, symBinAddr: 0xF570, symSize: 0x20 }
  - { offset: 0xAFED6, size: 0x8, addend: 0x0, symName: __ZNSt3__110__function6__funcIZN8facebook5react11CallInvoker11invokeAsyncEONS_8functionIFvvEEEEUlRNS2_3jsi7RuntimeEE_NS_9allocatorISC_EEFvSB_EEclESB_, symObjAddr: 0x9A0, symBinAddr: 0xF570, symSize: 0x20 }
  - { offset: 0xAFEFF, size: 0x8, addend: 0x0, symName: __ZNSt3__110__function6__funcIZN8facebook5react11CallInvoker11invokeAsyncEONS_8functionIFvvEEEEUlRNS2_3jsi7RuntimeEE_NS_9allocatorISC_EEFvSB_EEclESB_, symObjAddr: 0x9A0, symBinAddr: 0xF570, symSize: 0x20 }
  - { offset: 0xAFF1E, size: 0x8, addend: 0x0, symName: __ZNSt3__110__function6__funcIZN8facebook5react11CallInvoker11invokeAsyncEONS_8functionIFvvEEEEUlRNS2_3jsi7RuntimeEE_NS_9allocatorISC_EEFvSB_EEclESB_, symObjAddr: 0x9A0, symBinAddr: 0xF570, symSize: 0x20 }
  - { offset: 0xAFF51, size: 0x8, addend: 0x0, symName: __ZNKSt3__110__function6__funcIZN8facebook5react11CallInvoker11invokeAsyncEONS_8functionIFvvEEEEUlRNS2_3jsi7RuntimeEE_NS_9allocatorISC_EEFvSB_EE6targetERKSt9type_info, symObjAddr: 0x9C0, symBinAddr: 0xF590, symSize: 0x3C }
  - { offset: 0xAFF5C, size: 0x8, addend: 0x0, symName: __ZNKSt3__110__function6__funcIZN8facebook5react11CallInvoker11invokeAsyncEONS_8functionIFvvEEEEUlRNS2_3jsi7RuntimeEE_NS_9allocatorISC_EEFvSB_EE6targetERKSt9type_info, symObjAddr: 0x9C0, symBinAddr: 0xF590, symSize: 0x3C }
  - { offset: 0xB0012, size: 0x8, addend: 0x0, symName: __ZNKSt3__110__function6__funcIZN8facebook5react11CallInvoker11invokeAsyncEONS_8functionIFvvEEEEUlRNS2_3jsi7RuntimeEE_NS_9allocatorISC_EEFvSB_EE11target_typeEv, symObjAddr: 0x9FC, symBinAddr: 0xF5CC, symSize: 0xC }
  - { offset: 0xB0110, size: 0x8, addend: 0x0, symName: __ZNSt3__110__function6__funcIZN8facebook5react11CallInvoker10invokeSyncEONS_8functionIFvvEEEEUlRNS2_3jsi7RuntimeEE_NS_9allocatorISC_EEFvSB_EED1Ev, symObjAddr: 0xB04, symBinAddr: 0xF63C, symSize: 0x58 }
  - { offset: 0xB027F, size: 0x8, addend: 0x0, symName: __ZNSt3__110__function6__funcIZN8facebook5react11CallInvoker10invokeSyncEONS_8functionIFvvEEEEUlRNS2_3jsi7RuntimeEE_NS_9allocatorISC_EEFvSB_EED0Ev, symObjAddr: 0xB5C, symBinAddr: 0xF694, symSize: 0x58 }
  - { offset: 0xB062B, size: 0x8, addend: 0x0, symName: __ZNKSt3__110__function6__funcIZN8facebook5react11CallInvoker10invokeSyncEONS_8functionIFvvEEEEUlRNS2_3jsi7RuntimeEE_NS_9allocatorISC_EEFvSB_EE7__cloneEv, symObjAddr: 0xBB4, symBinAddr: 0xF6EC, symSize: 0x54 }
  - { offset: 0xB09B6, size: 0x8, addend: 0x0, symName: __ZNKSt3__110__function6__funcIZN8facebook5react11CallInvoker10invokeSyncEONS_8functionIFvvEEEEUlRNS2_3jsi7RuntimeEE_NS_9allocatorISC_EEFvSB_EE7__cloneEPNS0_6__baseISF_EE, symObjAddr: 0xC08, symBinAddr: 0xF740, symSize: 0x1C }
  - { offset: 0xB0B19, size: 0x8, addend: 0x0, symName: __ZNSt3__110__function6__funcIZN8facebook5react11CallInvoker10invokeSyncEONS_8functionIFvvEEEEUlRNS2_3jsi7RuntimeEE_NS_9allocatorISC_EEFvSB_EE7destroyEv, symObjAddr: 0xC24, symBinAddr: 0xF75C, symSize: 0x30 }
  - { offset: 0xB0C30, size: 0x8, addend: 0x0, symName: __ZNSt3__110__function6__funcIZN8facebook5react11CallInvoker10invokeSyncEONS_8functionIFvvEEEEUlRNS2_3jsi7RuntimeEE_NS_9allocatorISC_EEFvSB_EE18destroy_deallocateEv, symObjAddr: 0xC54, symBinAddr: 0xF78C, symSize: 0x4C }
  - { offset: 0xB0E65, size: 0x8, addend: 0x0, symName: __ZNSt3__110__function6__funcIZN8facebook5react11CallInvoker10invokeSyncEONS_8functionIFvvEEEEUlRNS2_3jsi7RuntimeEE_NS_9allocatorISC_EEFvSB_EEclESB_, symObjAddr: 0xCA0, symBinAddr: 0xF7D8, symSize: 0x20 }
  - { offset: 0xB0EA0, size: 0x8, addend: 0x0, symName: __ZNSt3__110__function6__funcIZN8facebook5react11CallInvoker10invokeSyncEONS_8functionIFvvEEEEUlRNS2_3jsi7RuntimeEE_NS_9allocatorISC_EEFvSB_EEclESB_, symObjAddr: 0xCA0, symBinAddr: 0xF7D8, symSize: 0x20 }
  - { offset: 0xB0ECA, size: 0x8, addend: 0x0, symName: __ZNSt3__110__function6__funcIZN8facebook5react11CallInvoker10invokeSyncEONS_8functionIFvvEEEEUlRNS2_3jsi7RuntimeEE_NS_9allocatorISC_EEFvSB_EEclESB_, symObjAddr: 0xCA0, symBinAddr: 0xF7D8, symSize: 0x20 }
  - { offset: 0xB0EF3, size: 0x8, addend: 0x0, symName: __ZNSt3__110__function6__funcIZN8facebook5react11CallInvoker10invokeSyncEONS_8functionIFvvEEEEUlRNS2_3jsi7RuntimeEE_NS_9allocatorISC_EEFvSB_EEclESB_, symObjAddr: 0xCA0, symBinAddr: 0xF7D8, symSize: 0x20 }
  - { offset: 0xB0F1D, size: 0x8, addend: 0x0, symName: __ZNSt3__110__function6__funcIZN8facebook5react11CallInvoker10invokeSyncEONS_8functionIFvvEEEEUlRNS2_3jsi7RuntimeEE_NS_9allocatorISC_EEFvSB_EEclESB_, symObjAddr: 0xCA0, symBinAddr: 0xF7D8, symSize: 0x20 }
  - { offset: 0xB0F46, size: 0x8, addend: 0x0, symName: __ZNSt3__110__function6__funcIZN8facebook5react11CallInvoker10invokeSyncEONS_8functionIFvvEEEEUlRNS2_3jsi7RuntimeEE_NS_9allocatorISC_EEFvSB_EEclESB_, symObjAddr: 0xCA0, symBinAddr: 0xF7D8, symSize: 0x20 }
  - { offset: 0xB0F6F, size: 0x8, addend: 0x0, symName: __ZNSt3__110__function6__funcIZN8facebook5react11CallInvoker10invokeSyncEONS_8functionIFvvEEEEUlRNS2_3jsi7RuntimeEE_NS_9allocatorISC_EEFvSB_EEclESB_, symObjAddr: 0xCA0, symBinAddr: 0xF7D8, symSize: 0x20 }
  - { offset: 0xB0F8E, size: 0x8, addend: 0x0, symName: __ZNSt3__110__function6__funcIZN8facebook5react11CallInvoker10invokeSyncEONS_8functionIFvvEEEEUlRNS2_3jsi7RuntimeEE_NS_9allocatorISC_EEFvSB_EEclESB_, symObjAddr: 0xCA0, symBinAddr: 0xF7D8, symSize: 0x20 }
  - { offset: 0xB0FC1, size: 0x8, addend: 0x0, symName: __ZNKSt3__110__function6__funcIZN8facebook5react11CallInvoker10invokeSyncEONS_8functionIFvvEEEEUlRNS2_3jsi7RuntimeEE_NS_9allocatorISC_EEFvSB_EE6targetERKSt9type_info, symObjAddr: 0xCC0, symBinAddr: 0xF7F8, symSize: 0x3C }
  - { offset: 0xB0FCC, size: 0x8, addend: 0x0, symName: __ZNKSt3__110__function6__funcIZN8facebook5react11CallInvoker10invokeSyncEONS_8functionIFvvEEEEUlRNS2_3jsi7RuntimeEE_NS_9allocatorISC_EEFvSB_EE6targetERKSt9type_info, symObjAddr: 0xCC0, symBinAddr: 0xF7F8, symSize: 0x3C }
  - { offset: 0xB101B, size: 0x8, addend: 0x0, symName: __ZNKSt3__110__function6__funcIZN8facebook5react11CallInvoker10invokeSyncEONS_8functionIFvvEEEEUlRNS2_3jsi7RuntimeEE_NS_9allocatorISC_EEFvSB_EE11target_typeEv, symObjAddr: 0xCFC, symBinAddr: 0xF834, symSize: 0xC }
  - { offset: 0xB1097, size: 0x8, addend: 0x0, symName: '__ZNSt3__110__function6__funcIZN8facebook5react27RuntimeSchedulerCallInvoker11invokeAsyncEONS_8functionIFvRNS2_3jsi7RuntimeEEEEE3$_0NS_9allocatorISC_EES9_ED1Ev', symObjAddr: 0xDC4, symBinAddr: 0xF840, symSize: 0x58 }
  - { offset: 0xB1206, size: 0x8, addend: 0x0, symName: '__ZNSt3__110__function6__funcIZN8facebook5react27RuntimeSchedulerCallInvoker11invokeAsyncEONS_8functionIFvRNS2_3jsi7RuntimeEEEEE3$_0NS_9allocatorISC_EES9_ED0Ev', symObjAddr: 0xE1C, symBinAddr: 0xF898, symSize: 0x58 }
  - { offset: 0xB162B, size: 0x8, addend: 0x0, symName: '__ZNKSt3__110__function6__funcIZN8facebook5react27RuntimeSchedulerCallInvoker11invokeAsyncEONS_8functionIFvRNS2_3jsi7RuntimeEEEEE3$_0NS_9allocatorISC_EES9_E7__cloneEv', symObjAddr: 0xE74, symBinAddr: 0xF8F0, symSize: 0x54 }
  - { offset: 0xB19FA, size: 0x8, addend: 0x0, symName: '__ZNKSt3__110__function6__funcIZN8facebook5react27RuntimeSchedulerCallInvoker11invokeAsyncEONS_8functionIFvRNS2_3jsi7RuntimeEEEEE3$_0NS_9allocatorISC_EES9_E7__cloneEPNS0_6__baseIS9_EE', symObjAddr: 0xEC8, symBinAddr: 0xF944, symSize: 0x1C }
  - { offset: 0xB1B5D, size: 0x8, addend: 0x0, symName: '__ZNSt3__110__function6__funcIZN8facebook5react27RuntimeSchedulerCallInvoker11invokeAsyncEONS_8functionIFvRNS2_3jsi7RuntimeEEEEE3$_0NS_9allocatorISC_EES9_E7destroyEv', symObjAddr: 0xEE4, symBinAddr: 0xF960, symSize: 0x30 }
  - { offset: 0xB1C74, size: 0x8, addend: 0x0, symName: '__ZNSt3__110__function6__funcIZN8facebook5react27RuntimeSchedulerCallInvoker11invokeAsyncEONS_8functionIFvRNS2_3jsi7RuntimeEEEEE3$_0NS_9allocatorISC_EES9_E18destroy_deallocateEv', symObjAddr: 0xF14, symBinAddr: 0xF990, symSize: 0x4C }
  - { offset: 0xB1F00, size: 0x8, addend: 0x0, symName: '__ZNSt3__110__function6__funcIZN8facebook5react27RuntimeSchedulerCallInvoker11invokeAsyncEONS_8functionIFvRNS2_3jsi7RuntimeEEEEE3$_0NS_9allocatorISC_EES9_EclES8_', symObjAddr: 0xF60, symBinAddr: 0xF9DC, symSize: 0x20 }
  - { offset: 0xB1F3B, size: 0x8, addend: 0x0, symName: '__ZNSt3__110__function6__funcIZN8facebook5react27RuntimeSchedulerCallInvoker11invokeAsyncEONS_8functionIFvRNS2_3jsi7RuntimeEEEEE3$_0NS_9allocatorISC_EES9_EclES8_', symObjAddr: 0xF60, symBinAddr: 0xF9DC, symSize: 0x20 }
  - { offset: 0xB1F63, size: 0x8, addend: 0x0, symName: '__ZNSt3__110__function6__funcIZN8facebook5react27RuntimeSchedulerCallInvoker11invokeAsyncEONS_8functionIFvRNS2_3jsi7RuntimeEEEEE3$_0NS_9allocatorISC_EES9_EclES8_', symObjAddr: 0xF60, symBinAddr: 0xF9DC, symSize: 0x20 }
  - { offset: 0xB1F8A, size: 0x8, addend: 0x0, symName: '__ZNSt3__110__function6__funcIZN8facebook5react27RuntimeSchedulerCallInvoker11invokeAsyncEONS_8functionIFvRNS2_3jsi7RuntimeEEEEE3$_0NS_9allocatorISC_EES9_EclES8_', symObjAddr: 0xF60, symBinAddr: 0xF9DC, symSize: 0x20 }
  - { offset: 0xB1FB2, size: 0x8, addend: 0x0, symName: '__ZNSt3__110__function6__funcIZN8facebook5react27RuntimeSchedulerCallInvoker11invokeAsyncEONS_8functionIFvRNS2_3jsi7RuntimeEEEEE3$_0NS_9allocatorISC_EES9_EclES8_', symObjAddr: 0xF60, symBinAddr: 0xF9DC, symSize: 0x20 }
  - { offset: 0xB1FD9, size: 0x8, addend: 0x0, symName: '__ZNSt3__110__function6__funcIZN8facebook5react27RuntimeSchedulerCallInvoker11invokeAsyncEONS_8functionIFvRNS2_3jsi7RuntimeEEEEE3$_0NS_9allocatorISC_EES9_EclES8_', symObjAddr: 0xF60, symBinAddr: 0xF9DC, symSize: 0x20 }
  - { offset: 0xB2000, size: 0x8, addend: 0x0, symName: '__ZNSt3__110__function6__funcIZN8facebook5react27RuntimeSchedulerCallInvoker11invokeAsyncEONS_8functionIFvRNS2_3jsi7RuntimeEEEEE3$_0NS_9allocatorISC_EES9_EclES8_', symObjAddr: 0xF60, symBinAddr: 0xF9DC, symSize: 0x20 }
  - { offset: 0xB2027, size: 0x8, addend: 0x0, symName: '__ZNSt3__110__function6__funcIZN8facebook5react27RuntimeSchedulerCallInvoker11invokeAsyncEONS_8functionIFvRNS2_3jsi7RuntimeEEEEE3$_0NS_9allocatorISC_EES9_EclES8_', symObjAddr: 0xF60, symBinAddr: 0xF9DC, symSize: 0x20 }
  - { offset: 0xB2062, size: 0x8, addend: 0x0, symName: '__ZNKSt3__110__function6__funcIZN8facebook5react27RuntimeSchedulerCallInvoker11invokeAsyncEONS_8functionIFvRNS2_3jsi7RuntimeEEEEE3$_0NS_9allocatorISC_EES9_E6targetERKSt9type_info', symObjAddr: 0xF80, symBinAddr: 0xF9FC, symSize: 0x3C }
  - { offset: 0xB206D, size: 0x8, addend: 0x0, symName: '__ZNKSt3__110__function6__funcIZN8facebook5react27RuntimeSchedulerCallInvoker11invokeAsyncEONS_8functionIFvRNS2_3jsi7RuntimeEEEEE3$_0NS_9allocatorISC_EES9_E6targetERKSt9type_info', symObjAddr: 0xF80, symBinAddr: 0xF9FC, symSize: 0x3C }
  - { offset: 0xB20BC, size: 0x8, addend: 0x0, symName: '__ZNKSt3__110__function6__funcIZN8facebook5react27RuntimeSchedulerCallInvoker11invokeAsyncEONS_8functionIFvRNS2_3jsi7RuntimeEEEEE3$_0NS_9allocatorISC_EES9_E11target_typeEv', symObjAddr: 0xFBC, symBinAddr: 0xFA38, symSize: 0xC }
  - { offset: 0xB2134, size: 0x8, addend: 0x0, symName: '__ZNSt3__110__function6__funcIZN8facebook5react27RuntimeSchedulerCallInvoker10invokeSyncEONS_8functionIFvRNS2_3jsi7RuntimeEEEEE3$_0NS_9allocatorISC_EES9_ED1Ev', symObjAddr: 0x102C, symBinAddr: 0xFA44, symSize: 0x58 }
  - { offset: 0xB22A3, size: 0x8, addend: 0x0, symName: '__ZNSt3__110__function6__funcIZN8facebook5react27RuntimeSchedulerCallInvoker10invokeSyncEONS_8functionIFvRNS2_3jsi7RuntimeEEEEE3$_0NS_9allocatorISC_EES9_ED0Ev', symObjAddr: 0x1084, symBinAddr: 0xFA9C, symSize: 0x58 }
  - { offset: 0xB264F, size: 0x8, addend: 0x0, symName: '__ZNKSt3__110__function6__funcIZN8facebook5react27RuntimeSchedulerCallInvoker10invokeSyncEONS_8functionIFvRNS2_3jsi7RuntimeEEEEE3$_0NS_9allocatorISC_EES9_E7__cloneEv', symObjAddr: 0x10DC, symBinAddr: 0xFAF4, symSize: 0x54 }
  - { offset: 0xB29DA, size: 0x8, addend: 0x0, symName: '__ZNKSt3__110__function6__funcIZN8facebook5react27RuntimeSchedulerCallInvoker10invokeSyncEONS_8functionIFvRNS2_3jsi7RuntimeEEEEE3$_0NS_9allocatorISC_EES9_E7__cloneEPNS0_6__baseIS9_EE', symObjAddr: 0x1130, symBinAddr: 0xFB48, symSize: 0x1C }
  - { offset: 0xB2B3D, size: 0x8, addend: 0x0, symName: '__ZNSt3__110__function6__funcIZN8facebook5react27RuntimeSchedulerCallInvoker10invokeSyncEONS_8functionIFvRNS2_3jsi7RuntimeEEEEE3$_0NS_9allocatorISC_EES9_E7destroyEv', symObjAddr: 0x114C, symBinAddr: 0xFB64, symSize: 0x30 }
  - { offset: 0xB2C54, size: 0x8, addend: 0x0, symName: '__ZNSt3__110__function6__funcIZN8facebook5react27RuntimeSchedulerCallInvoker10invokeSyncEONS_8functionIFvRNS2_3jsi7RuntimeEEEEE3$_0NS_9allocatorISC_EES9_E18destroy_deallocateEv', symObjAddr: 0x117C, symBinAddr: 0xFB94, symSize: 0x4C }
  - { offset: 0xB2E8C, size: 0x8, addend: 0x0, symName: '__ZNSt3__110__function6__funcIZN8facebook5react27RuntimeSchedulerCallInvoker10invokeSyncEONS_8functionIFvRNS2_3jsi7RuntimeEEEEE3$_0NS_9allocatorISC_EES9_EclES8_', symObjAddr: 0x11C8, symBinAddr: 0xFBE0, symSize: 0x20 }
  - { offset: 0xB2EC7, size: 0x8, addend: 0x0, symName: '__ZNSt3__110__function6__funcIZN8facebook5react27RuntimeSchedulerCallInvoker10invokeSyncEONS_8functionIFvRNS2_3jsi7RuntimeEEEEE3$_0NS_9allocatorISC_EES9_EclES8_', symObjAddr: 0x11C8, symBinAddr: 0xFBE0, symSize: 0x20 }
  - { offset: 0xB2EEF, size: 0x8, addend: 0x0, symName: '__ZNSt3__110__function6__funcIZN8facebook5react27RuntimeSchedulerCallInvoker10invokeSyncEONS_8functionIFvRNS2_3jsi7RuntimeEEEEE3$_0NS_9allocatorISC_EES9_EclES8_', symObjAddr: 0x11C8, symBinAddr: 0xFBE0, symSize: 0x20 }
  - { offset: 0xB2F16, size: 0x8, addend: 0x0, symName: '__ZNSt3__110__function6__funcIZN8facebook5react27RuntimeSchedulerCallInvoker10invokeSyncEONS_8functionIFvRNS2_3jsi7RuntimeEEEEE3$_0NS_9allocatorISC_EES9_EclES8_', symObjAddr: 0x11C8, symBinAddr: 0xFBE0, symSize: 0x20 }
  - { offset: 0xB2F3E, size: 0x8, addend: 0x0, symName: '__ZNSt3__110__function6__funcIZN8facebook5react27RuntimeSchedulerCallInvoker10invokeSyncEONS_8functionIFvRNS2_3jsi7RuntimeEEEEE3$_0NS_9allocatorISC_EES9_EclES8_', symObjAddr: 0x11C8, symBinAddr: 0xFBE0, symSize: 0x20 }
  - { offset: 0xB2F65, size: 0x8, addend: 0x0, symName: '__ZNSt3__110__function6__funcIZN8facebook5react27RuntimeSchedulerCallInvoker10invokeSyncEONS_8functionIFvRNS2_3jsi7RuntimeEEEEE3$_0NS_9allocatorISC_EES9_EclES8_', symObjAddr: 0x11C8, symBinAddr: 0xFBE0, symSize: 0x20 }
  - { offset: 0xB2F8C, size: 0x8, addend: 0x0, symName: '__ZNSt3__110__function6__funcIZN8facebook5react27RuntimeSchedulerCallInvoker10invokeSyncEONS_8functionIFvRNS2_3jsi7RuntimeEEEEE3$_0NS_9allocatorISC_EES9_EclES8_', symObjAddr: 0x11C8, symBinAddr: 0xFBE0, symSize: 0x20 }
  - { offset: 0xB2FB3, size: 0x8, addend: 0x0, symName: '__ZNSt3__110__function6__funcIZN8facebook5react27RuntimeSchedulerCallInvoker10invokeSyncEONS_8functionIFvRNS2_3jsi7RuntimeEEEEE3$_0NS_9allocatorISC_EES9_EclES8_', symObjAddr: 0x11C8, symBinAddr: 0xFBE0, symSize: 0x20 }
  - { offset: 0xB2FEE, size: 0x8, addend: 0x0, symName: '__ZNKSt3__110__function6__funcIZN8facebook5react27RuntimeSchedulerCallInvoker10invokeSyncEONS_8functionIFvRNS2_3jsi7RuntimeEEEEE3$_0NS_9allocatorISC_EES9_E6targetERKSt9type_info', symObjAddr: 0x11E8, symBinAddr: 0xFC00, symSize: 0x3C }
  - { offset: 0xB2FF9, size: 0x8, addend: 0x0, symName: '__ZNKSt3__110__function6__funcIZN8facebook5react27RuntimeSchedulerCallInvoker10invokeSyncEONS_8functionIFvRNS2_3jsi7RuntimeEEEEE3$_0NS_9allocatorISC_EES9_E6targetERKSt9type_info', symObjAddr: 0x11E8, symBinAddr: 0xFC00, symSize: 0x3C }
  - { offset: 0xB3048, size: 0x8, addend: 0x0, symName: '__ZNKSt3__110__function6__funcIZN8facebook5react27RuntimeSchedulerCallInvoker10invokeSyncEONS_8functionIFvRNS2_3jsi7RuntimeEEEEE3$_0NS_9allocatorISC_EES9_E11target_typeEv', symObjAddr: 0x1224, symBinAddr: 0xFC3C, symSize: 0xC }
  - { offset: 0xB30C0, size: 0x8, addend: 0x0, symName: '__ZNSt3__110__function6__funcIZN8facebook5react27RuntimeSchedulerCallInvoker11invokeAsyncENS3_17SchedulerPriorityEONS_8functionIFvRNS2_3jsi7RuntimeEEEEE3$_0NS_9allocatorISD_EESA_ED1Ev', symObjAddr: 0x1230, symBinAddr: 0xFC48, symSize: 0x58 }
  - { offset: 0xB322F, size: 0x8, addend: 0x0, symName: '__ZNSt3__110__function6__funcIZN8facebook5react27RuntimeSchedulerCallInvoker11invokeAsyncENS3_17SchedulerPriorityEONS_8functionIFvRNS2_3jsi7RuntimeEEEEE3$_0NS_9allocatorISD_EESA_ED0Ev', symObjAddr: 0x1288, symBinAddr: 0xFCA0, symSize: 0x58 }
  - { offset: 0xB35DB, size: 0x8, addend: 0x0, symName: '__ZNKSt3__110__function6__funcIZN8facebook5react27RuntimeSchedulerCallInvoker11invokeAsyncENS3_17SchedulerPriorityEONS_8functionIFvRNS2_3jsi7RuntimeEEEEE3$_0NS_9allocatorISD_EESA_E7__cloneEv', symObjAddr: 0x12E0, symBinAddr: 0xFCF8, symSize: 0x54 }
  - { offset: 0xB3966, size: 0x8, addend: 0x0, symName: '__ZNKSt3__110__function6__funcIZN8facebook5react27RuntimeSchedulerCallInvoker11invokeAsyncENS3_17SchedulerPriorityEONS_8functionIFvRNS2_3jsi7RuntimeEEEEE3$_0NS_9allocatorISD_EESA_E7__cloneEPNS0_6__baseISA_EE', symObjAddr: 0x1334, symBinAddr: 0xFD4C, symSize: 0x1C }
  - { offset: 0xB3AC9, size: 0x8, addend: 0x0, symName: '__ZNSt3__110__function6__funcIZN8facebook5react27RuntimeSchedulerCallInvoker11invokeAsyncENS3_17SchedulerPriorityEONS_8functionIFvRNS2_3jsi7RuntimeEEEEE3$_0NS_9allocatorISD_EESA_E7destroyEv', symObjAddr: 0x1350, symBinAddr: 0xFD68, symSize: 0x30 }
  - { offset: 0xB3BE0, size: 0x8, addend: 0x0, symName: '__ZNSt3__110__function6__funcIZN8facebook5react27RuntimeSchedulerCallInvoker11invokeAsyncENS3_17SchedulerPriorityEONS_8functionIFvRNS2_3jsi7RuntimeEEEEE3$_0NS_9allocatorISD_EESA_E18destroy_deallocateEv', symObjAddr: 0x1380, symBinAddr: 0xFD98, symSize: 0x4C }
  - { offset: 0xB3E18, size: 0x8, addend: 0x0, symName: '__ZNSt3__110__function6__funcIZN8facebook5react27RuntimeSchedulerCallInvoker11invokeAsyncENS3_17SchedulerPriorityEONS_8functionIFvRNS2_3jsi7RuntimeEEEEE3$_0NS_9allocatorISD_EESA_EclES9_', symObjAddr: 0x13CC, symBinAddr: 0xFDE4, symSize: 0x20 }
  - { offset: 0xB3E53, size: 0x8, addend: 0x0, symName: '__ZNSt3__110__function6__funcIZN8facebook5react27RuntimeSchedulerCallInvoker11invokeAsyncENS3_17SchedulerPriorityEONS_8functionIFvRNS2_3jsi7RuntimeEEEEE3$_0NS_9allocatorISD_EESA_EclES9_', symObjAddr: 0x13CC, symBinAddr: 0xFDE4, symSize: 0x20 }
  - { offset: 0xB3E7B, size: 0x8, addend: 0x0, symName: '__ZNSt3__110__function6__funcIZN8facebook5react27RuntimeSchedulerCallInvoker11invokeAsyncENS3_17SchedulerPriorityEONS_8functionIFvRNS2_3jsi7RuntimeEEEEE3$_0NS_9allocatorISD_EESA_EclES9_', symObjAddr: 0x13CC, symBinAddr: 0xFDE4, symSize: 0x20 }
  - { offset: 0xB3EA2, size: 0x8, addend: 0x0, symName: '__ZNSt3__110__function6__funcIZN8facebook5react27RuntimeSchedulerCallInvoker11invokeAsyncENS3_17SchedulerPriorityEONS_8functionIFvRNS2_3jsi7RuntimeEEEEE3$_0NS_9allocatorISD_EESA_EclES9_', symObjAddr: 0x13CC, symBinAddr: 0xFDE4, symSize: 0x20 }
  - { offset: 0xB3ECA, size: 0x8, addend: 0x0, symName: '__ZNSt3__110__function6__funcIZN8facebook5react27RuntimeSchedulerCallInvoker11invokeAsyncENS3_17SchedulerPriorityEONS_8functionIFvRNS2_3jsi7RuntimeEEEEE3$_0NS_9allocatorISD_EESA_EclES9_', symObjAddr: 0x13CC, symBinAddr: 0xFDE4, symSize: 0x20 }
  - { offset: 0xB3EF1, size: 0x8, addend: 0x0, symName: '__ZNSt3__110__function6__funcIZN8facebook5react27RuntimeSchedulerCallInvoker11invokeAsyncENS3_17SchedulerPriorityEONS_8functionIFvRNS2_3jsi7RuntimeEEEEE3$_0NS_9allocatorISD_EESA_EclES9_', symObjAddr: 0x13CC, symBinAddr: 0xFDE4, symSize: 0x20 }
  - { offset: 0xB3F18, size: 0x8, addend: 0x0, symName: '__ZNSt3__110__function6__funcIZN8facebook5react27RuntimeSchedulerCallInvoker11invokeAsyncENS3_17SchedulerPriorityEONS_8functionIFvRNS2_3jsi7RuntimeEEEEE3$_0NS_9allocatorISD_EESA_EclES9_', symObjAddr: 0x13CC, symBinAddr: 0xFDE4, symSize: 0x20 }
  - { offset: 0xB3F3F, size: 0x8, addend: 0x0, symName: '__ZNSt3__110__function6__funcIZN8facebook5react27RuntimeSchedulerCallInvoker11invokeAsyncENS3_17SchedulerPriorityEONS_8functionIFvRNS2_3jsi7RuntimeEEEEE3$_0NS_9allocatorISD_EESA_EclES9_', symObjAddr: 0x13CC, symBinAddr: 0xFDE4, symSize: 0x20 }
  - { offset: 0xB3F7A, size: 0x8, addend: 0x0, symName: '__ZNKSt3__110__function6__funcIZN8facebook5react27RuntimeSchedulerCallInvoker11invokeAsyncENS3_17SchedulerPriorityEONS_8functionIFvRNS2_3jsi7RuntimeEEEEE3$_0NS_9allocatorISD_EESA_E6targetERKSt9type_info', symObjAddr: 0x13EC, symBinAddr: 0xFE04, symSize: 0x3C }
  - { offset: 0xB3F85, size: 0x8, addend: 0x0, symName: '__ZNKSt3__110__function6__funcIZN8facebook5react27RuntimeSchedulerCallInvoker11invokeAsyncENS3_17SchedulerPriorityEONS_8functionIFvRNS2_3jsi7RuntimeEEEEE3$_0NS_9allocatorISD_EESA_E6targetERKSt9type_info', symObjAddr: 0x13EC, symBinAddr: 0xFE04, symSize: 0x3C }
  - { offset: 0xB3FD4, size: 0x8, addend: 0x0, symName: '__ZNKSt3__110__function6__funcIZN8facebook5react27RuntimeSchedulerCallInvoker11invokeAsyncENS3_17SchedulerPriorityEONS_8functionIFvRNS2_3jsi7RuntimeEEEEE3$_0NS_9allocatorISD_EESA_E11target_typeEv', symObjAddr: 0x1428, symBinAddr: 0xFE40, symSize: 0xC }
  - { offset: 0xBB8B3, size: 0x8, addend: 0x0, symName: __ZNSt3__126__throw_bad_variant_accessB8ne200100Ev, symObjAddr: 0x514, symBinAddr: 0x10220, symSize: 0x34 }
  - { offset: 0xBE24F, size: 0x8, addend: 0x0, symName: __ZN8facebook5react4TaskC2ENS0_17SchedulerPriorityEONS_3jsi8FunctionENS0_16HighResTimeStampE, symObjAddr: 0x0, symBinAddr: 0xFE4C, symSize: 0x50 }
  - { offset: 0xBE7C1, size: 0x8, addend: 0x0, symName: __ZN8facebook5react4TaskC1ENS0_17SchedulerPriorityEONS_3jsi8FunctionENS0_16HighResTimeStampE, symObjAddr: 0x50, symBinAddr: 0xFE9C, symSize: 0x50 }
  - { offset: 0xBE819, size: 0x8, addend: 0x0, symName: __ZN8facebook5react4TaskC1ENS0_17SchedulerPriorityEONS_3jsi8FunctionENS0_16HighResTimeStampE, symObjAddr: 0x50, symBinAddr: 0xFE9C, symSize: 0x50 }
  - { offset: 0xBF31D, size: 0x8, addend: 0x0, symName: __ZN8facebook5react4TaskC2ENS0_17SchedulerPriorityEONSt3__18functionIFvRNS_3jsi7RuntimeEEEENS0_16HighResTimeStampE, symObjAddr: 0xA0, symBinAddr: 0xFEEC, symSize: 0x70 }
  - { offset: 0xBF821, size: 0x8, addend: 0x0, symName: __ZN8facebook5react4TaskC1ENS0_17SchedulerPriorityEONSt3__18functionIFvRNS_3jsi7RuntimeEEEENS0_16HighResTimeStampE, symObjAddr: 0x110, symBinAddr: 0xFF5C, symSize: 0x70 }
  - { offset: 0xC015F, size: 0x8, addend: 0x0, symName: __ZN8facebook5react4Task7executeERNS_3jsi7RuntimeEb, symObjAddr: 0x180, symBinAddr: 0xFFCC, symSize: 0x16C }
  - { offset: 0xC0A28, size: 0x8, addend: 0x0, symName: __ZNSt3__116__variant_detail18__move_constructorINS0_8__traitsIJN8facebook3jsi8FunctionENS_8functionIFvRNS4_7RuntimeEEEEEEELNS0_6_TraitE1EEC2B8ne200100EOSD_, symObjAddr: 0x3CC, symBinAddr: 0x10170, symSize: 0x34 }
  - { offset: 0xC0D23, size: 0x8, addend: 0x0, symName: __ZN8facebook5react4TaskD0Ev, symObjAddr: 0x320, symBinAddr: 0x10138, symSize: 0x38 }
  - { offset: 0xC103E, size: 0x8, addend: 0x0, symName: __ZNSt3__116__variant_detail6__ctorINS0_8__traitsIJN8facebook3jsi8FunctionENS_8functionIFvRNS4_7RuntimeEEEEEEEE19__generic_constructB8ne200100INS0_18__move_constructorISB_LNS0_6_TraitE1EEEEEvRSC_OT_, symObjAddr: 0x400, symBinAddr: 0x101A4, symSize: 0x60 }
  - { offset: 0xC13C9, size: 0x8, addend: 0x0, symName: __ZNSt3__116__variant_detail12__visitation6__base12__dispatcherIJLm0EEE10__dispatchB8ne200100IOZNS0_6__ctorINS0_8__traitsIJN8facebook3jsi8FunctionENS_8functionIFvRNS9_7RuntimeEEEEEEEE19__generic_constructB8ne200100INS0_18__move_constructorISG_LNS0_6_TraitE1EEEEEvRSH_OT_EUlSO_E_JONS0_6__baseILSK_1EJSA_SF_EEEEEEDcSN_DpT0_, symObjAddr: 0x4F8, symBinAddr: 0x10204, symSize: 0x14 }
  - { offset: 0xC13FF, size: 0x8, addend: 0x0, symName: __ZNSt3__116__variant_detail12__visitation6__base12__dispatcherIJLm0EEE10__dispatchB8ne200100IOZNS0_6__ctorINS0_8__traitsIJN8facebook3jsi8FunctionENS_8functionIFvRNS9_7RuntimeEEEEEEEE19__generic_constructB8ne200100INS0_18__move_constructorISG_LNS0_6_TraitE1EEEEEvRSH_OT_EUlSO_E_JONS0_6__baseILSK_1EJSA_SF_EEEEEEDcSN_DpT0_, symObjAddr: 0x4F8, symBinAddr: 0x10204, symSize: 0x14 }
  - { offset: 0xC1425, size: 0x8, addend: 0x0, symName: __ZNSt3__116__variant_detail12__visitation6__base12__dispatcherIJLm0EEE10__dispatchB8ne200100IOZNS0_6__ctorINS0_8__traitsIJN8facebook3jsi8FunctionENS_8functionIFvRNS9_7RuntimeEEEEEEEE19__generic_constructB8ne200100INS0_18__move_constructorISG_LNS0_6_TraitE1EEEEEvRSH_OT_EUlSO_E_JONS0_6__baseILSK_1EJSA_SF_EEEEEEDcSN_DpT0_, symObjAddr: 0x4F8, symBinAddr: 0x10204, symSize: 0x14 }
  - { offset: 0xC161D, size: 0x8, addend: 0x0, symName: __ZNSt3__116__variant_detail12__visitation6__base12__dispatcherIJLm1EEE10__dispatchB8ne200100IOZNS0_6__ctorINS0_8__traitsIJN8facebook3jsi8FunctionENS_8functionIFvRNS9_7RuntimeEEEEEEEE19__generic_constructB8ne200100INS0_18__move_constructorISG_LNS0_6_TraitE1EEEEEvRSH_OT_EUlSO_E_JONS0_6__baseILSK_1EJSA_SF_EEEEEEDcSN_DpT0_, symObjAddr: 0x50C, symBinAddr: 0x10218, symSize: 0x8 }
  - { offset: 0xC1655, size: 0x8, addend: 0x0, symName: __ZNSt3__116__variant_detail12__visitation6__base12__dispatcherIJLm1EEE10__dispatchB8ne200100IOZNS0_6__ctorINS0_8__traitsIJN8facebook3jsi8FunctionENS_8functionIFvRNS9_7RuntimeEEEEEEEE19__generic_constructB8ne200100INS0_18__move_constructorISG_LNS0_6_TraitE1EEEEEvRSH_OT_EUlSO_E_JONS0_6__baseILSK_1EJSA_SF_EEEEEEDcSN_DpT0_, symObjAddr: 0x50C, symBinAddr: 0x10218, symSize: 0x8 }
  - { offset: 0xC167D, size: 0x8, addend: 0x0, symName: __ZNSt3__116__variant_detail12__visitation6__base12__dispatcherIJLm1EEE10__dispatchB8ne200100IOZNS0_6__ctorINS0_8__traitsIJN8facebook3jsi8FunctionENS_8functionIFvRNS9_7RuntimeEEEEEEEE19__generic_constructB8ne200100INS0_18__move_constructorISG_LNS0_6_TraitE1EEEEEvRSH_OT_EUlSO_E_JONS0_6__baseILSK_1EJSA_SF_EEEEEEDcSN_DpT0_, symObjAddr: 0x50C, symBinAddr: 0x10218, symSize: 0x8 }
  - { offset: 0xC18E7, size: 0x8, addend: 0x0, symName: __ZNSt18bad_variant_accessD1Ev, symObjAddr: 0x548, symBinAddr: 0x10254, symSize: 0x4 }
  - { offset: 0xC1916, size: 0x8, addend: 0x0, symName: __ZNSt18bad_variant_accessD1Ev, symObjAddr: 0x548, symBinAddr: 0x10254, symSize: 0x4 }
...
