---
triple:          'arm64-apple-darwin'
binary-path:     '/Users/uk-aplatts/Development/InjuryIQ/ios/DerivedData/Build/Intermediates.noindex/ArchiveIntermediates/InjuryIQ/IntermediateBuildFilesPath/UninstalledProducts/iphoneos/jsinspector_modern.framework/jsinspector_modern'
relocations:
  - { offset: 0x33, size: 0x8, addend: 0x0, symName: _jsinspector_modernVersionString, symObjAddr: 0x0, symBinAddr: 0x2C2D0, symSize: 0x0 }
  - { offset: 0x67, size: 0x8, addend: 0x0, symName: _jsinspector_modernVersionNumber, symObjAddr: 0x30, symBinAddr: 0x2C300, symSize: 0x0 }
  - { offset: 0xA2, size: 0x8, addend: 0x0, symName: __ZN8facebook5react18jsinspector_modern20SimpleConsoleMessageC2EdNS1_14ConsoleAPITypeENSt3__16vectorINS4_12basic_stringIcNS4_11char_traitsIcEENS4_9allocatorIcEEEENS9_ISB_EEEE, symObjAddr: 0x0, symBinAddr: 0x4000, symSize: 0x2C }
  - { offset: 0xB781, size: 0x8, addend: 0x0, symName: __ZNSt3__119__allocate_at_leastB8ne200100INS_9allocatorIN8facebook3jsi5ValueEEEEENS_19__allocation_resultINS_16allocator_traitsIT_E7pointerEEERS8_m, symObjAddr: 0x414, symBinAddr: 0x4414, symSize: 0x34 }
  - { offset: 0xB826, size: 0x8, addend: 0x0, symName: __ZSt28__throw_bad_array_new_lengthB8ne200100v, symObjAddr: 0x448, symBinAddr: 0x4448, symSize: 0x28 }
  - { offset: 0xB839, size: 0x8, addend: 0x0, symName: __ZNSt3__134__uninitialized_allocator_relocateB8ne200100INS_9allocatorIN8facebook3jsi5ValueEEEPS4_EEvRT_T0_S9_S9_, symObjAddr: 0x470, symBinAddr: 0x4470, symSize: 0x68 }
  - { offset: 0xB893, size: 0x8, addend: 0x0, symName: __ZNSt3__134__uninitialized_allocator_relocateB8ne200100INS_9allocatorIN8facebook3jsi5ValueEEEPS4_EEvRT_T0_S9_S9_, symObjAddr: 0x470, symBinAddr: 0x4470, symSize: 0x68 }
  - { offset: 0xB9A8, size: 0x8, addend: 0x0, symName: __ZNSt3__120__throw_length_errorB8ne200100EPKc, symObjAddr: 0x3A0, symBinAddr: 0x43A0, symSize: 0x50 }
  - { offset: 0xCEDF, size: 0x8, addend: 0x0, symName: __ZSt28__throw_bad_array_new_lengthB8ne200100v, symObjAddr: 0x448, symBinAddr: 0x4448, symSize: 0x28 }
  - { offset: 0xD851, size: 0x8, addend: 0x0, symName: __ZN8facebook5react18jsinspector_modern20SimpleConsoleMessageC2EdNS1_14ConsoleAPITypeENSt3__16vectorINS4_12basic_stringIcNS4_11char_traitsIcEENS4_9allocatorIcEEEENS9_ISB_EEEE, symObjAddr: 0x0, symBinAddr: 0x4000, symSize: 0x2C }
  - { offset: 0xD916, size: 0x8, addend: 0x0, symName: __ZN8facebook5react18jsinspector_modern20SimpleConsoleMessageC1EdNS1_14ConsoleAPITypeENSt3__16vectorINS4_12basic_stringIcNS4_11char_traitsIcEENS4_9allocatorIcEEEENS9_ISB_EEEE, symObjAddr: 0x2C, symBinAddr: 0x402C, symSize: 0x2C }
  - { offset: 0xD96F, size: 0x8, addend: 0x0, symName: __ZN8facebook5react18jsinspector_modern20SimpleConsoleMessageC1EdNS1_14ConsoleAPITypeENSt3__16vectorINS4_12basic_stringIcNS4_11char_traitsIcEENS4_9allocatorIcEEEENS9_ISB_EEEE, symObjAddr: 0x2C, symBinAddr: 0x402C, symSize: 0x2C }
  - { offset: 0xDA12, size: 0x8, addend: 0x0, symName: __ZN8facebook5react18jsinspector_modern20SimpleConsoleMessageC2ENS1_14ConsoleAPITypeENSt3__16vectorINS4_12basic_stringIcNS4_11char_traitsIcEENS4_9allocatorIcEEEENS9_ISB_EEEE, symObjAddr: 0x58, symBinAddr: 0x4058, symSize: 0x6C }
  - { offset: 0xDAED, size: 0x8, addend: 0x0, symName: __ZN8facebook5react18jsinspector_modern20SimpleConsoleMessageC1ENS1_14ConsoleAPITypeENSt3__16vectorINS4_12basic_stringIcNS4_11char_traitsIcEENS4_9allocatorIcEEEENS9_ISB_EEEE, symObjAddr: 0xC4, symBinAddr: 0x40C4, symSize: 0x6C }
  - { offset: 0xE066, size: 0x8, addend: 0x0, symName: __ZN8facebook5react18jsinspector_modern14ConsoleMessageC2ERNS_3jsi7RuntimeENS1_20SimpleConsoleMessageE, symObjAddr: 0x130, symBinAddr: 0x4130, symSize: 0x13C }
  - { offset: 0xE5AB, size: 0x8, addend: 0x0, symName: __ZNSt3__16vectorIN8facebook3jsi5ValueENS_9allocatorIS3_EEE24__emplace_back_slow_pathIJNS2_6StringEEEEPS3_DpOT_, symObjAddr: 0x270, symBinAddr: 0x4270, symSize: 0x11C }
  - { offset: 0xE921, size: 0x8, addend: 0x0, symName: __ZNSt3__16vectorIN8facebook3jsi5ValueENS_9allocatorIS3_EEE16__destroy_vectorclB8ne200100Ev, symObjAddr: 0x524, symBinAddr: 0x4524, symSize: 0x70 }
  - { offset: 0xEA66, size: 0x8, addend: 0x0, symName: __ZN8facebook5react18jsinspector_modern14ConsoleMessageC1ERNS_3jsi7RuntimeENS1_20SimpleConsoleMessageE, symObjAddr: 0x26C, symBinAddr: 0x426C, symSize: 0x4 }
  - { offset: 0xEAB1, size: 0x8, addend: 0x0, symName: __ZN8facebook5react18jsinspector_modern14ConsoleMessageC1ERNS_3jsi7RuntimeENS1_20SimpleConsoleMessageE, symObjAddr: 0x26C, symBinAddr: 0x426C, symSize: 0x4 }
  - { offset: 0xEC19, size: 0x8, addend: 0x0, symName: __ZNSt3__114__split_bufferIN8facebook3jsi5ValueERNS_9allocatorIS3_EEED2Ev, symObjAddr: 0x4D8, symBinAddr: 0x44D8, symSize: 0x4C }
  - { offset: 0xED59, size: 0x8, addend: 0x0, symName: __ZNSt3__16vectorIN8facebook3jsi5ValueENS_9allocatorIS3_EEE20__throw_length_errorB8ne200100Ev, symObjAddr: 0x38C, symBinAddr: 0x438C, symSize: 0x14 }
  - { offset: 0xED70, size: 0x8, addend: 0x0, symName: __ZNSt3__120__throw_length_errorB8ne200100EPKc, symObjAddr: 0x3A0, symBinAddr: 0x43A0, symSize: 0x50 }
  - { offset: 0xED7B, size: 0x8, addend: 0x0, symName: __ZNSt12length_errorC1B8ne200100EPKc, symObjAddr: 0x3F0, symBinAddr: 0x43F0, symSize: 0x24 }
  - { offset: 0x16077, size: 0x8, addend: 0x0, symName: __ZNSt3__126__throw_bad_variant_accessB8ne200100Ev, symObjAddr: 0x1B0, symBinAddr: 0x4744, symSize: 0x34 }
  - { offset: 0x17F7D, size: 0x8, addend: 0x0, symName: __ZN8facebook5react18jsinspector_modern10matchesAnyERKNS1_27ExecutionContextDescriptionERKNSt3__113unordered_setINS1_24ExecutionContextSelectorENS5_4hashIS7_EENS5_8equal_toIS7_EENS5_9allocatorIS7_EEEE, symObjAddr: 0x170, symBinAddr: 0x4704, symSize: 0x40 }
  - { offset: 0x1830E, size: 0x8, addend: 0x0, symName: __ZNK8facebook5react18jsinspector_modern24ExecutionContextSelector7matchesERKNS1_27ExecutionContextDescriptionE, symObjAddr: 0x0, symBinAddr: 0x4594, symSize: 0x58 }
  - { offset: 0x18F15, size: 0x8, addend: 0x0, symName: __ZN8facebook5react18jsinspector_modern24ExecutionContextSelector4byIdEi, symObjAddr: 0x68, symBinAddr: 0x45FC, symSize: 0x54 }
  - { offset: 0x19544, size: 0x8, addend: 0x0, symName: __ZNSt3__116__variant_detail18__copy_constructorINS0_8__traitsIJN8facebook5react18jsinspector_modern15UniqueMonostateILm0EEEiNS_12basic_stringIcNS_11char_traitsIcEENS_9allocatorIcEEEEEEELNS0_6_TraitE1EEC2B8ne200100ERKSG_, symObjAddr: 0x280, symBinAddr: 0x4814, symSize: 0x44 }
  - { offset: 0x196EE, size: 0x8, addend: 0x0, symName: __ZNSt3__116__variant_detail6__dtorINS0_8__traitsIJN8facebook5react18jsinspector_modern15UniqueMonostateILm0EEEiNS_12basic_stringIcNS_11char_traitsIcEENS_9allocatorIcEEEEEEELNS0_6_TraitE1EE9__destroyB8ne200100Ev, symObjAddr: 0x324, symBinAddr: 0x48B8, symSize: 0x54 }
  - { offset: 0x19CAA, size: 0x8, addend: 0x0, symName: __ZN8facebook5react18jsinspector_modern24ExecutionContextSelector6byNameENSt3__112basic_stringIcNS3_11char_traitsIcEENS3_9allocatorIcEEEE, symObjAddr: 0xBC, symBinAddr: 0x4650, symSize: 0x68 }
  - { offset: 0x1A647, size: 0x8, addend: 0x0, symName: __ZN8facebook5react18jsinspector_modern24ExecutionContextSelector3allEv, symObjAddr: 0x124, symBinAddr: 0x46B8, symSize: 0x4C }
  - { offset: 0x1ACEE, size: 0x8, addend: 0x0, symName: __ZNSt18bad_variant_accessD1Ev, symObjAddr: 0x1E4, symBinAddr: 0x4778, symSize: 0x4 }
  - { offset: 0x1AD1C, size: 0x8, addend: 0x0, symName: __ZNSt18bad_variant_accessD1Ev, symObjAddr: 0x1E4, symBinAddr: 0x4778, symSize: 0x4 }
  - { offset: 0x1AD37, size: 0x8, addend: 0x0, symName: '__ZNSt3__116__variant_detail12__visitation6__base12__dispatcherIJLm0EEE10__dispatchB8ne200100IONS1_9__variant15__value_visitorIZNK8facebook5react18jsinspector_modern24ExecutionContextSelector7matchesERKNSA_27ExecutionContextDescriptionEE3$_0EEJRKNS0_6__baseILNS0_6_TraitE1EJNSA_15UniqueMonostateILm0EEEiNS_12basic_stringIcNS_11char_traitsIcEENS_9allocatorIcEEEEEEEEEEDcT_DpT0_', symObjAddr: 0x1E8, symBinAddr: 0x477C, symSize: 0x8 }
  - { offset: 0x1AE03, size: 0x8, addend: 0x0, symName: '__ZNSt3__116__variant_detail12__visitation6__base12__dispatcherIJLm1EEE10__dispatchB8ne200100IONS1_9__variant15__value_visitorIZNK8facebook5react18jsinspector_modern24ExecutionContextSelector7matchesERKNSA_27ExecutionContextDescriptionEE3$_0EEJRKNS0_6__baseILNS0_6_TraitE1EJNSA_15UniqueMonostateILm0EEEiNS_12basic_stringIcNS_11char_traitsIcEENS_9allocatorIcEEEEEEEEEEDcT_DpT0_', symObjAddr: 0x1F0, symBinAddr: 0x4784, symSize: 0x1C }
  - { offset: 0x1AE39, size: 0x8, addend: 0x0, symName: '__ZNSt3__116__variant_detail12__visitation6__base12__dispatcherIJLm1EEE10__dispatchB8ne200100IONS1_9__variant15__value_visitorIZNK8facebook5react18jsinspector_modern24ExecutionContextSelector7matchesERKNSA_27ExecutionContextDescriptionEE3$_0EEJRKNS0_6__baseILNS0_6_TraitE1EJNSA_15UniqueMonostateILm0EEEiNS_12basic_stringIcNS_11char_traitsIcEENS_9allocatorIcEEEEEEEEEEDcT_DpT0_', symObjAddr: 0x1F0, symBinAddr: 0x4784, symSize: 0x1C }
  - { offset: 0x1AE5C, size: 0x8, addend: 0x0, symName: '__ZNSt3__116__variant_detail12__visitation6__base12__dispatcherIJLm1EEE10__dispatchB8ne200100IONS1_9__variant15__value_visitorIZNK8facebook5react18jsinspector_modern24ExecutionContextSelector7matchesERKNSA_27ExecutionContextDescriptionEE3$_0EEJRKNS0_6__baseILNS0_6_TraitE1EJNSA_15UniqueMonostateILm0EEEiNS_12basic_stringIcNS_11char_traitsIcEENS_9allocatorIcEEEEEEEEEEDcT_DpT0_', symObjAddr: 0x1F0, symBinAddr: 0x4784, symSize: 0x1C }
  - { offset: 0x1AFC4, size: 0x8, addend: 0x0, symName: '__ZNSt3__116__variant_detail12__visitation6__base12__dispatcherIJLm2EEE10__dispatchB8ne200100IONS1_9__variant15__value_visitorIZNK8facebook5react18jsinspector_modern24ExecutionContextSelector7matchesERKNSA_27ExecutionContextDescriptionEE3$_0EEJRKNS0_6__baseILNS0_6_TraitE1EJNSA_15UniqueMonostateILm0EEEiNS_12basic_stringIcNS_11char_traitsIcEENS_9allocatorIcEEEEEEEEEEDcT_DpT0_', symObjAddr: 0x20C, symBinAddr: 0x47A0, symSize: 0x74 }
  - { offset: 0x1AFFB, size: 0x8, addend: 0x0, symName: '__ZNSt3__116__variant_detail12__visitation6__base12__dispatcherIJLm2EEE10__dispatchB8ne200100IONS1_9__variant15__value_visitorIZNK8facebook5react18jsinspector_modern24ExecutionContextSelector7matchesERKNSA_27ExecutionContextDescriptionEE3$_0EEJRKNS0_6__baseILNS0_6_TraitE1EJNSA_15UniqueMonostateILm0EEEiNS_12basic_stringIcNS_11char_traitsIcEENS_9allocatorIcEEEEEEEEEEDcT_DpT0_', symObjAddr: 0x20C, symBinAddr: 0x47A0, symSize: 0x74 }
  - { offset: 0x1B022, size: 0x8, addend: 0x0, symName: '__ZNSt3__116__variant_detail12__visitation6__base12__dispatcherIJLm2EEE10__dispatchB8ne200100IONS1_9__variant15__value_visitorIZNK8facebook5react18jsinspector_modern24ExecutionContextSelector7matchesERKNSA_27ExecutionContextDescriptionEE3$_0EEJRKNS0_6__baseILNS0_6_TraitE1EJNSA_15UniqueMonostateILm0EEEiNS_12basic_stringIcNS_11char_traitsIcEENS_9allocatorIcEEEEEEEEEEDcT_DpT0_', symObjAddr: 0x20C, symBinAddr: 0x47A0, symSize: 0x74 }
  - { offset: 0x1B315, size: 0x8, addend: 0x0, symName: __ZNSt3__116__variant_detail6__ctorINS0_8__traitsIJN8facebook5react18jsinspector_modern15UniqueMonostateILm0EEEiNS_12basic_stringIcNS_11char_traitsIcEENS_9allocatorIcEEEEEEEE19__generic_constructB8ne200100IRKNS0_18__copy_constructorISE_LNS0_6_TraitE1EEEEEvRSF_OT_, symObjAddr: 0x2C4, symBinAddr: 0x4858, symSize: 0x60 }
  - { offset: 0x1B61F, size: 0x8, addend: 0x0, symName: __ZNSt3__116__variant_detail12__visitation6__base12__dispatcherIJLm0EEE10__dispatchB8ne200100IOZNS0_6__dtorINS0_8__traitsIJN8facebook5react18jsinspector_modern15UniqueMonostateILm0EEEiNS_12basic_stringIcNS_11char_traitsIcEENS_9allocatorIcEEEEEEELNS0_6_TraitE1EE9__destroyB8ne200100EvEUlRT_E_JRNS0_6__baseILSK_1EJSC_iSI_EEEEEEDcSM_DpT0_, symObjAddr: 0x378, symBinAddr: 0x490C, symSize: 0x4 }
  - { offset: 0x1B666, size: 0x8, addend: 0x0, symName: __ZNSt3__116__variant_detail12__visitation6__base12__dispatcherIJLm1EEE10__dispatchB8ne200100IOZNS0_6__dtorINS0_8__traitsIJN8facebook5react18jsinspector_modern15UniqueMonostateILm0EEEiNS_12basic_stringIcNS_11char_traitsIcEENS_9allocatorIcEEEEEEELNS0_6_TraitE1EE9__destroyB8ne200100EvEUlRT_E_JRNS0_6__baseILSK_1EJSC_iSI_EEEEEEDcSM_DpT0_, symObjAddr: 0x37C, symBinAddr: 0x4910, symSize: 0x4 }
  - { offset: 0x1B7DF, size: 0x8, addend: 0x0, symName: __ZNSt3__116__variant_detail12__visitation6__base12__dispatcherIJLm2EEE10__dispatchB8ne200100IOZNS0_6__dtorINS0_8__traitsIJN8facebook5react18jsinspector_modern15UniqueMonostateILm0EEEiNS_12basic_stringIcNS_11char_traitsIcEENS_9allocatorIcEEEEEEELNS0_6_TraitE1EE9__destroyB8ne200100EvEUlRT_E_JRNS0_6__baseILSK_1EJSC_iSI_EEEEEEDcSM_DpT0_, symObjAddr: 0x380, symBinAddr: 0x4914, symSize: 0x14 }
  - { offset: 0x1B8AF, size: 0x8, addend: 0x0, symName: __ZNSt3__116__variant_detail12__visitation6__base12__dispatcherIJLm2EEE10__dispatchB8ne200100IOZNS0_6__dtorINS0_8__traitsIJN8facebook5react18jsinspector_modern15UniqueMonostateILm0EEEiNS_12basic_stringIcNS_11char_traitsIcEENS_9allocatorIcEEEEEEELNS0_6_TraitE1EE9__destroyB8ne200100EvEUlRT_E_JRNS0_6__baseILSK_1EJSC_iSI_EEEEEEDcSM_DpT0_, symObjAddr: 0x380, symBinAddr: 0x4914, symSize: 0x14 }
  - { offset: 0x1B979, size: 0x8, addend: 0x0, symName: __ZNSt3__116__variant_detail12__visitation6__base12__dispatcherIJLm0EEE10__dispatchB8ne200100IOZNS0_6__ctorINS0_8__traitsIJN8facebook5react18jsinspector_modern15UniqueMonostateILm0EEEiNS_12basic_stringIcNS_11char_traitsIcEENS_9allocatorIcEEEEEEEE19__generic_constructB8ne200100IRKNS0_18__copy_constructorISJ_LNS0_6_TraitE1EEEEEvRSK_OT_EUlST_E_JRKNS0_6__baseILSN_1EJSC_iSI_EEEEEEDcSS_DpT0_, symObjAddr: 0x394, symBinAddr: 0x4928, symSize: 0x4 }
  - { offset: 0x1BB7A, size: 0x8, addend: 0x0, symName: __ZNSt3__116__variant_detail12__visitation6__base12__dispatcherIJLm1EEE10__dispatchB8ne200100IOZNS0_6__ctorINS0_8__traitsIJN8facebook5react18jsinspector_modern15UniqueMonostateILm0EEEiNS_12basic_stringIcNS_11char_traitsIcEENS_9allocatorIcEEEEEEEE19__generic_constructB8ne200100IRKNS0_18__copy_constructorISJ_LNS0_6_TraitE1EEEEEvRSK_OT_EUlST_E_JRKNS0_6__baseILSN_1EJSC_iSI_EEEEEEDcSS_DpT0_, symObjAddr: 0x398, symBinAddr: 0x492C, symSize: 0x10 }
  - { offset: 0x1BBAF, size: 0x8, addend: 0x0, symName: __ZNSt3__116__variant_detail12__visitation6__base12__dispatcherIJLm1EEE10__dispatchB8ne200100IOZNS0_6__ctorINS0_8__traitsIJN8facebook5react18jsinspector_modern15UniqueMonostateILm0EEEiNS_12basic_stringIcNS_11char_traitsIcEENS_9allocatorIcEEEEEEEE19__generic_constructB8ne200100IRKNS0_18__copy_constructorISJ_LNS0_6_TraitE1EEEEEvRSK_OT_EUlST_E_JRKNS0_6__baseILSN_1EJSC_iSI_EEEEEEDcSS_DpT0_, symObjAddr: 0x398, symBinAddr: 0x492C, symSize: 0x10 }
  - { offset: 0x1BBD2, size: 0x8, addend: 0x0, symName: __ZNSt3__116__variant_detail12__visitation6__base12__dispatcherIJLm1EEE10__dispatchB8ne200100IOZNS0_6__ctorINS0_8__traitsIJN8facebook5react18jsinspector_modern15UniqueMonostateILm0EEEiNS_12basic_stringIcNS_11char_traitsIcEENS_9allocatorIcEEEEEEEE19__generic_constructB8ne200100IRKNS0_18__copy_constructorISJ_LNS0_6_TraitE1EEEEEvRSK_OT_EUlST_E_JRKNS0_6__baseILSN_1EJSC_iSI_EEEEEEDcSS_DpT0_, symObjAddr: 0x398, symBinAddr: 0x492C, symSize: 0x10 }
  - { offset: 0x1BFBF, size: 0x8, addend: 0x0, symName: __ZNSt3__116__variant_detail12__visitation6__base12__dispatcherIJLm2EEE10__dispatchB8ne200100IOZNS0_6__ctorINS0_8__traitsIJN8facebook5react18jsinspector_modern15UniqueMonostateILm0EEEiNS_12basic_stringIcNS_11char_traitsIcEENS_9allocatorIcEEEEEEEE19__generic_constructB8ne200100IRKNS0_18__copy_constructorISJ_LNS0_6_TraitE1EEEEEvRSK_OT_EUlST_E_JRKNS0_6__baseILSN_1EJSC_iSI_EEEEEEDcSS_DpT0_, symObjAddr: 0x3A8, symBinAddr: 0x493C, symSize: 0x2C }
  - { offset: 0x1C200, size: 0x8, addend: 0x0, symName: __ZNSt3__112basic_stringIcNS_11char_traitsIcEENS_9allocatorIcEEE25__init_copy_ctor_externalEPKcm, symObjAddr: 0x3D4, symBinAddr: 0x4968, symSize: 0x80 }
  - { offset: 0x1C3CE, size: 0x8, addend: 0x0, symName: __ZNSt3__112basic_stringIcNS_11char_traitsIcEENS_9allocatorIcEEE20__throw_length_errorB8ne200100Ev, symObjAddr: 0x454, symBinAddr: 0x49E8, symSize: 0x14 }
  - { offset: 0x1C4C0, size: 0x8, addend: 0x0, symName: __ZNSt3__112basic_stringIcNS_11char_traitsIcEENS_9allocatorIcEEE20__throw_length_errorB8ne200100Ev, symObjAddr: 0x454, symBinAddr: 0x49E8, symSize: 0x14 }
  - { offset: 0x1E51C, size: 0x8, addend: 0x0, symName: __ZN8facebook5react18jsinspector_modern23ExecutionContextManager26allocateExecutionContextIdEv, symObjAddr: 0x0, symBinAddr: 0x49FC, symSize: 0x14 }
  - { offset: 0x1E574, size: 0x8, addend: 0x0, symName: __ZN8facebook5react18jsinspector_modern23ExecutionContextManager26allocateExecutionContextIdEv, symObjAddr: 0x0, symBinAddr: 0x49FC, symSize: 0x14 }
  - { offset: 0x1E803, size: 0x8, addend: 0x0, symName: __ZN8facebook5react18jsinspector_modern28FallbackRuntimeAgentDelegateC2ENSt3__18functionIFvNS3_17basic_string_viewIcNS3_11char_traitsIcEEEEEEERKNS1_12SessionStateENS3_12basic_stringIcS7_NS3_9allocatorIcEEEE, symObjAddr: 0x0, symBinAddr: 0x4A10, symSize: 0xDC }
  - { offset: 0x1E851, size: 0x8, addend: 0x0, symName: __ZNSt3__119piecewise_constructE, symObjAddr: 0x1574, symBinAddr: 0x2C3A3, symSize: 0x0 }
  - { offset: 0x31B3A, size: 0x8, addend: 0x0, symName: __ZNSt3__125__throw_bad_function_callB8ne200100Ev, symObjAddr: 0x119C, symBinAddr: 0x59E0, symSize: 0x34 }
  - { offset: 0x359C2, size: 0x8, addend: 0x0, symName: __ZN5folly6detail16throw_exception_INS_9TypeErrorEJPKcNS_7dynamic4TypeEEEEvDpT0_, symObjAddr: 0x9D4, symBinAddr: 0x2B90C, symSize: 0x68 }
  - { offset: 0x36A55, size: 0x8, addend: 0x0, symName: __ZN5folly15throw_exceptionINS_9TypeErrorEEEvOT_, symObjAddr: 0xA3C, symBinAddr: 0x2B974, symSize: 0x34 }
  - { offset: 0x3A0E7, size: 0x8, addend: 0x0, symName: __ZN8facebook5react18jsinspector_modern28FallbackRuntimeAgentDelegateC2ENSt3__18functionIFvNS3_17basic_string_viewIcNS3_11char_traitsIcEEEEEEERKNS1_12SessionStateENS3_12basic_stringIcS7_NS3_9allocatorIcEEEE, symObjAddr: 0x0, symBinAddr: 0x4A10, symSize: 0xDC }
  - { offset: 0x3A3DA, size: 0x8, addend: 0x0, symName: __ZNSt3__110__function12__value_funcIFvNS_17basic_string_viewIcNS_11char_traitsIcEEEEEEC2B8ne200100ERKS7_, symObjAddr: 0x109C, symBinAddr: 0x58E0, symSize: 0x64 }
  - { offset: 0x3A562, size: 0x8, addend: 0x0, symName: __ZN8facebook5react18jsinspector_modern28FallbackRuntimeAgentDelegate26sendFallbackRuntimeWarningEv, symObjAddr: 0xDC, symBinAddr: 0x4AEC, symSize: 0xDC }
  - { offset: 0x3AB8A, size: 0x8, addend: 0x0, symName: __ZN8facebook5react18jsinspector_modern28FallbackRuntimeAgentDelegate19sendWarningLogEntryENSt3__117basic_string_viewIcNS3_11char_traitsIcEEEE, symObjAddr: 0x224, symBinAddr: 0x4C34, symSize: 0x490 }
  - { offset: 0x3C3B3, size: 0x8, addend: 0x0, symName: __ZN8facebook5react18jsinspector_modern28FallbackRuntimeAgentDelegateC1ENSt3__18functionIFvNS3_17basic_string_viewIcNS3_11char_traitsIcEEEEEEERKNS1_12SessionStateENS3_12basic_stringIcS7_NS3_9allocatorIcEEEE, symObjAddr: 0x1B8, symBinAddr: 0x4BC8, symSize: 0x4 }
  - { offset: 0x3C40D, size: 0x8, addend: 0x0, symName: __ZN8facebook5react18jsinspector_modern28FallbackRuntimeAgentDelegateC1ENSt3__18functionIFvNS3_17basic_string_viewIcNS3_11char_traitsIcEEEEEEERKNS1_12SessionStateENS3_12basic_stringIcS7_NS3_9allocatorIcEEEE, symObjAddr: 0x1B8, symBinAddr: 0x4BC8, symSize: 0x4 }
  - { offset: 0x3C4FB, size: 0x8, addend: 0x0, symName: __ZN8facebook5react18jsinspector_modern28FallbackRuntimeAgentDelegate13handleRequestERKNS1_3cdp16PreparsedRequestE, symObjAddr: 0x1BC, symBinAddr: 0x4BCC, symSize: 0x68 }
  - { offset: 0x3CECD, size: 0x8, addend: 0x0, symName: __ZNSt3__112basic_stringIcNS_11char_traitsIcEENS_9allocatorIcEEEC2B8ne200100ILi0EEEPKc, symObjAddr: 0xAAC, symBinAddr: 0x52F0, symSize: 0xA4 }
  - { offset: 0x3D125, size: 0x8, addend: 0x0, symName: __ZNSt3__112__hash_tableINS_17__hash_value_typeIN5folly7dynamicES3_EENS_22__unordered_map_hasherIS3_S4_NS2_6detail13DynamicHasherENS6_15DynamicKeyEqualELb1EEENS_21__unordered_map_equalIS3_S4_S8_S7_Lb1EEENS_9allocatorIS4_EEE25__emplace_unique_key_argsIS3_JRKNS_21piecewise_construct_tENS_5tupleIJOS3_EEENSJ_IJEEEEEENS_4pairINS_15__hash_iteratorIPNS_11__hash_nodeIS4_PvEEEEbEERKT_DpOT0_, symObjAddr: 0xB50, symBinAddr: 0x5394, symSize: 0x25C }
  - { offset: 0x3D136, size: 0x8, addend: 0x0, symName: __ZN5folly7dynamic11ObjectMakerC2ES0_S0_, symObjAddr: 0x950, symBinAddr: 0x5230, symSize: 0x84 }
  - { offset: 0x3D330, size: 0x8, addend: 0x0, symName: __ZN5folly7dynamic11ObjectMakerclES0_S0_, symObjAddr: 0x6B4, symBinAddr: 0x50C4, symSize: 0x64 }
  - { offset: 0x3D417, size: 0x8, addend: 0x0, symName: __ZN8facebook5react18jsinspector_modern28FallbackRuntimeAgentDelegateD1Ev, symObjAddr: 0x718, symBinAddr: 0x5128, symSize: 0x68 }
  - { offset: 0x3D422, size: 0x8, addend: 0x0, symName: __ZNSt3__112basic_stringIcNS_11char_traitsIcEENS_9allocatorIcEEEC2B8ne200100EPKcm, symObjAddr: 0x1100, symBinAddr: 0x5944, symSize: 0x9C }
  - { offset: 0x3D645, size: 0x8, addend: 0x0, symName: __ZNSt3__125__throw_bad_function_callB8ne200100Ev, symObjAddr: 0x119C, symBinAddr: 0x59E0, symSize: 0x34 }
  - { offset: 0x3D650, size: 0x8, addend: 0x0, symName: __ZNSt3__112__hash_tableINS_17__hash_value_typeIN5folly7dynamicES3_EENS_22__unordered_map_hasherIS3_S4_NS2_6detail13DynamicHasherENS6_15DynamicKeyEqualELb1EEENS_21__unordered_map_equalIS3_S4_S8_S7_Lb1EEENS_9allocatorIS4_EEEC2EOSE_, symObjAddr: 0x1024, symBinAddr: 0x5868, symSize: 0x70 }
  - { offset: 0x3D6B7, size: 0x8, addend: 0x0, symName: __ZNSt3__112__hash_tableINS_17__hash_value_typeIN5folly7dynamicES3_EENS_22__unordered_map_hasherIS3_S4_NS2_6detail13DynamicHasherENS6_15DynamicKeyEqualELb1EEENS_21__unordered_map_equalIS3_S4_S8_S7_Lb1EEENS_9allocatorIS4_EEEC2EOSE_, symObjAddr: 0x1024, symBinAddr: 0x5868, symSize: 0x70 }
  - { offset: 0x3D890, size: 0x8, addend: 0x0, symName: __ZNSt3__112__hash_tableINS_17__hash_value_typeIN5folly7dynamicES3_EENS_22__unordered_map_hasherIS3_S4_NS2_6detail13DynamicHasherENS6_15DynamicKeyEqualELb1EEENS_21__unordered_map_equalIS3_S4_S8_S7_Lb1EEENS_9allocatorIS4_EEE25__emplace_unique_key_argsIS3_JRKNS_21piecewise_construct_tENS_5tupleIJOS3_EEENSJ_IJEEEEEENS_4pairINS_15__hash_iteratorIPNS_11__hash_nodeIS4_PvEEEEbEERKT_DpOT0_, symObjAddr: 0xB50, symBinAddr: 0x5394, symSize: 0x25C }
  - { offset: 0x3DFFF, size: 0x8, addend: 0x0, symName: __ZN5folly7dynamic11ObjectMakerclES0_S0_.cold.1, symObjAddr: 0x11E8, symBinAddr: 0x2B9A8, symSize: 0x1C }
  - { offset: 0x3E083, size: 0x8, addend: 0x0, symName: __ZN8facebook5react18jsinspector_modern28FallbackRuntimeAgentDelegateD1Ev, symObjAddr: 0x718, symBinAddr: 0x5128, symSize: 0x68 }
  - { offset: 0x3E269, size: 0x8, addend: 0x0, symName: __ZN8facebook5react18jsinspector_modern28FallbackRuntimeAgentDelegateD0Ev, symObjAddr: 0x780, symBinAddr: 0x5190, symSize: 0x68 }
  - { offset: 0x3E4F7, size: 0x8, addend: 0x0, symName: __ZN8facebook5react18jsinspector_modern20RuntimeAgentDelegate16getExportedStateEv, symObjAddr: 0x7E8, symBinAddr: 0x51F8, symSize: 0x38 }
  - { offset: 0x3E85F, size: 0x8, addend: 0x0, symName: __ZN5folly9TypeErrorC1EOS0_, symObjAddr: 0xA74, symBinAddr: 0x52B8, symSize: 0x24 }
  - { offset: 0x3E8B9, size: 0x8, addend: 0x0, symName: __ZN5folly9TypeErrorD1Ev, symObjAddr: 0xA70, symBinAddr: 0x52B4, symSize: 0x4 }
  - { offset: 0x3E8DB, size: 0x8, addend: 0x0, symName: __ZN5folly9TypeErrorD1Ev, symObjAddr: 0xA70, symBinAddr: 0x52B4, symSize: 0x4 }
  - { offset: 0x3E916, size: 0x8, addend: 0x0, symName: __ZN5folly9TypeErrorD0Ev, symObjAddr: 0xA98, symBinAddr: 0x52DC, symSize: 0x14 }
  - { offset: 0x3EFCA, size: 0x8, addend: 0x0, symName: __ZNSt3__112__hash_tableINS_17__hash_value_typeIN5folly7dynamicES3_EENS_22__unordered_map_hasherIS3_S4_NS2_6detail13DynamicHasherENS6_15DynamicKeyEqualELb1EEENS_21__unordered_map_equalIS3_S4_S8_S7_Lb1EEENS_9allocatorIS4_EEE8__rehashILb1EEEvm, symObjAddr: 0xDAC, symBinAddr: 0x55F0, symSize: 0xDC }
  - { offset: 0x3F0C0, size: 0x8, addend: 0x0, symName: __ZNSt3__122__hash_node_destructorINS_9allocatorINS_11__hash_nodeINS_17__hash_value_typeIN5folly7dynamicES5_EEPvEEEEEclB8ne200100EPS8_, symObjAddr: 0xFD8, symBinAddr: 0x581C, symSize: 0x4C }
  - { offset: 0x3F240, size: 0x8, addend: 0x0, symName: __ZNSt3__112__hash_tableINS_17__hash_value_typeIN5folly7dynamicES3_EENS_22__unordered_map_hasherIS3_S4_NS2_6detail13DynamicHasherENS6_15DynamicKeyEqualELb1EEENS_21__unordered_map_equalIS3_S4_S8_S7_Lb1EEENS_9allocatorIS4_EEE11__do_rehashILb1EEEvm, symObjAddr: 0xE88, symBinAddr: 0x56CC, symSize: 0x150 }
  - { offset: 0x3F642, size: 0x8, addend: 0x0, symName: __ZNSt3__122__hash_node_destructorINS_9allocatorINS_11__hash_nodeINS_17__hash_value_typeIN5folly7dynamicES5_EEPvEEEEEclB8ne200100EPS8_, symObjAddr: 0xFD8, symBinAddr: 0x581C, symSize: 0x4C }
  - { offset: 0x3F87A, size: 0x8, addend: 0x0, symName: __ZN8facebook5react18jsinspector_modern20RuntimeAgentDelegate13ExportedStateD1Ev, symObjAddr: 0x1094, symBinAddr: 0x58D8, symSize: 0x4 }
  - { offset: 0x3F8A3, size: 0x8, addend: 0x0, symName: __ZN8facebook5react18jsinspector_modern20RuntimeAgentDelegate13ExportedStateD0Ev, symObjAddr: 0x1098, symBinAddr: 0x58DC, symSize: 0x4 }
  - { offset: 0x3F933, size: 0x8, addend: 0x0, symName: __ZNSt3__117bad_function_callD1Ev, symObjAddr: 0x11D0, symBinAddr: 0x5A14, symSize: 0x4 }
  - { offset: 0x3F955, size: 0x8, addend: 0x0, symName: __ZNSt3__117bad_function_callD1Ev, symObjAddr: 0x11D0, symBinAddr: 0x5A14, symSize: 0x4 }
  - { offset: 0x3F989, size: 0x8, addend: 0x0, symName: __ZNSt3__117bad_function_callD0Ev, symObjAddr: 0x11D4, symBinAddr: 0x5A18, symSize: 0x14 }
  - { offset: 0x4E240, size: 0x8, addend: 0x0, symName: __ZNSt3__111make_uniqueB8ne200100IN8facebook5react18jsinspector_modern28FallbackRuntimeAgentDelegateEJNS_8functionIFvNS_17basic_string_viewIcNS_11char_traitsIcEEEEEEERNS3_12SessionStateERNS_12basic_stringIcS8_NS_9allocatorIcEEEEELi0EEENS_10unique_ptrIT_NS_14default_deleteISK_EEEEDpOT0_, symObjAddr: 0x94, symBinAddr: 0x5AC0, symSize: 0x158 }
  - { offset: 0x5329C, size: 0x8, addend: 0x0, symName: __ZN8facebook5react18jsinspector_modern29FallbackRuntimeTargetDelegateC2ENSt3__112basic_stringIcNS3_11char_traitsIcEENS3_9allocatorIcEEEE, symObjAddr: 0x0, symBinAddr: 0x5A2C, symSize: 0x28 }
  - { offset: 0x5333B, size: 0x8, addend: 0x0, symName: __ZN8facebook5react18jsinspector_modern29FallbackRuntimeTargetDelegateC1ENSt3__112basic_stringIcNS3_11char_traitsIcEENS3_9allocatorIcEEEE, symObjAddr: 0x28, symBinAddr: 0x5A54, symSize: 0x28 }
  - { offset: 0x53377, size: 0x8, addend: 0x0, symName: __ZN8facebook5react18jsinspector_modern29FallbackRuntimeTargetDelegateC1ENSt3__112basic_stringIcNS3_11char_traitsIcEENS3_9allocatorIcEEEE, symObjAddr: 0x28, symBinAddr: 0x5A54, symSize: 0x28 }
  - { offset: 0x53483, size: 0x8, addend: 0x0, symName: __ZN8facebook5react18jsinspector_modern29FallbackRuntimeTargetDelegate19createAgentDelegateENSt3__18functionIFvNS3_17basic_string_viewIcNS3_11char_traitsIcEEEEEEERNS1_12SessionStateENS3_10unique_ptrINS1_20RuntimeAgentDelegate13ExportedStateENS3_14default_deleteISF_EEEERKNS1_27ExecutionContextDescriptionENS4_IFvONS4_IFvRNS_3jsi7RuntimeEEEEEEE, symObjAddr: 0x50, symBinAddr: 0x5A7C, symSize: 0x44 }
  - { offset: 0x537E9, size: 0x8, addend: 0x0, symName: __ZNSt3__110__function12__value_funcIFvNS_17basic_string_viewIcNS_11char_traitsIcEEEEEEC2B8ne200100EOS7_, symObjAddr: 0x318, symBinAddr: 0x5D34, symSize: 0x64 }
  - { offset: 0x53965, size: 0x8, addend: 0x0, symName: __ZN8facebook5react18jsinspector_modern29FallbackRuntimeTargetDelegate17addConsoleMessageERNS_3jsi7RuntimeENS1_14ConsoleMessageE, symObjAddr: 0x1EC, symBinAddr: 0x5C18, symSize: 0x4 }
  - { offset: 0x5399A, size: 0x8, addend: 0x0, symName: __ZNK8facebook5react18jsinspector_modern29FallbackRuntimeTargetDelegate15supportsConsoleEv, symObjAddr: 0x1F0, symBinAddr: 0x5C1C, symSize: 0x8 }
  - { offset: 0x53A58, size: 0x8, addend: 0x0, symName: __ZN8facebook5react18jsinspector_modern29FallbackRuntimeTargetDelegate17captureStackTraceERNS_3jsi7RuntimeEm, symObjAddr: 0x1F8, symBinAddr: 0x5C24, symSize: 0x38 }
  - { offset: 0x53B21, size: 0x8, addend: 0x0, symName: __ZN8facebook5react18jsinspector_modern29FallbackRuntimeTargetDelegate22enableSamplingProfilerEv, symObjAddr: 0x230, symBinAddr: 0x5C5C, symSize: 0x4 }
  - { offset: 0x53B46, size: 0x8, addend: 0x0, symName: __ZN8facebook5react18jsinspector_modern29FallbackRuntimeTargetDelegate23disableSamplingProfilerEv, symObjAddr: 0x234, symBinAddr: 0x5C60, symSize: 0x4 }
  - { offset: 0x53B6B, size: 0x8, addend: 0x0, symName: __ZN8facebook5react18jsinspector_modern29FallbackRuntimeTargetDelegate22collectSamplingProfileEv, symObjAddr: 0x238, symBinAddr: 0x5C64, symSize: 0x50 }
  - { offset: 0x53BAC, size: 0x8, addend: 0x0, symName: __ZN8facebook5react18jsinspector_modern29FallbackRuntimeTargetDelegateD1Ev, symObjAddr: 0x288, symBinAddr: 0x5CB4, symSize: 0x3C }
  - { offset: 0x53D0B, size: 0x8, addend: 0x0, symName: __ZN8facebook5react18jsinspector_modern29FallbackRuntimeTargetDelegateD0Ev, symObjAddr: 0x2C4, symBinAddr: 0x5CF0, symSize: 0x3C }
  - { offset: 0x53E75, size: 0x8, addend: 0x0, symName: __ZN8facebook5react18jsinspector_modern10StackTraceD1Ev, symObjAddr: 0x310, symBinAddr: 0x5D2C, symSize: 0x4 }
  - { offset: 0x53E9E, size: 0x8, addend: 0x0, symName: __ZN8facebook5react18jsinspector_modern10StackTraceD0Ev, symObjAddr: 0x314, symBinAddr: 0x5D30, symSize: 0x4 }
  - { offset: 0x658D4, size: 0x8, addend: 0x0, symName: __ZNSt3__111make_uniqueB8ne200100IN8facebook5react18jsinspector_modern9HostAgent4ImplEJRS4_RKNS_8functionIFvNS_17basic_string_viewIcNS_11char_traitsIcEEEEEEERNS3_20HostTargetControllerENS3_18HostTargetMetadataERNS3_12SessionStateENS7_IFvONS7_IFvvEEEEEEELi0EEENS_10unique_ptrIT_NS_14default_deleteISR_EEEEDpOT0_, symObjAddr: 0x28, symBinAddr: 0x5DC0, symSize: 0x2A4 }
  - { offset: 0x6A1D2, size: 0x8, addend: 0x0, symName: __ZN8facebook5react18jsinspector_modern9HostAgentC2ERKNSt3__18functionIFvNS3_17basic_string_viewIcNS3_11char_traitsIcEEEEEEERNS1_20HostTargetControllerENS1_18HostTargetMetadataERNS1_12SessionStateENS4_IFvONS4_IFvvEEEEEE, symObjAddr: 0x0, symBinAddr: 0x5D98, symSize: 0x28 }
  - { offset: 0x6A893, size: 0x8, addend: 0x0, symName: __ZNSt3__110__function12__value_funcIFvONS_8functionIFvvEEEEEC2B8ne200100EOS7_, symObjAddr: 0x428, symBinAddr: 0x614C, symSize: 0x64 }
  - { offset: 0x6A944, size: 0x8, addend: 0x0, symName: __ZN8facebook5react18jsinspector_modern9HostAgentC1ERKNSt3__18functionIFvNS3_17basic_string_viewIcNS3_11char_traitsIcEEEEEEERNS1_20HostTargetControllerENS1_18HostTargetMetadataERNS1_12SessionStateENS4_IFvONS4_IFvvEEEEEE, symObjAddr: 0x2CC, symBinAddr: 0x6064, symSize: 0x28 }
  - { offset: 0x6AACD, size: 0x8, addend: 0x0, symName: __ZN8facebook5react18jsinspector_modern9HostAgentD2Ev, symObjAddr: 0x2F4, symBinAddr: 0x608C, symSize: 0x30 }
  - { offset: 0x6AB96, size: 0x8, addend: 0x0, symName: __ZN8facebook5react18jsinspector_modern9HostAgentD1Ev, symObjAddr: 0x324, symBinAddr: 0x60BC, symSize: 0x30 }
  - { offset: 0x6AC6B, size: 0x8, addend: 0x0, symName: __ZN8facebook5react18jsinspector_modern9HostAgent13handleRequestERKNS1_3cdp16PreparsedRequestE, symObjAddr: 0x354, symBinAddr: 0x60EC, symSize: 0x4 }
  - { offset: 0x6AD5A, size: 0x8, addend: 0x0, symName: __ZN8facebook5react18jsinspector_modern9HostAgent23setCurrentInstanceAgentENSt3__110shared_ptrINS1_13InstanceAgentEEE, symObjAddr: 0x358, symBinAddr: 0x60F0, symSize: 0x5C }
  - { offset: 0x80075, size: 0x8, addend: 0x0, symName: __ZNSt3__115allocate_sharedB8ne200100IN8facebook5react18jsinspector_modern17HostTargetSessionENS_9allocatorIS4_EEJNS_10unique_ptrINS3_17IRemoteConnectionENS_14default_deleteIS8_EEEERNS3_20HostTargetControllerENS3_18HostTargetMetadataENS_8functionIFvONSF_IFvvEEEEEEELi0EEENS_10shared_ptrIT_EERKT0_DpOT1_, symObjAddr: 0x3148, symBinAddr: 0x8C84, symSize: 0x78 }
  - { offset: 0x8227A, size: 0x8, addend: 0x0, symName: __ZNSt3__120__throw_bad_weak_ptrB8ne200100Ev, symObjAddr: 0x2A20, symBinAddr: 0x8624, symSize: 0x34 }
  - { offset: 0x830B0, size: 0x8, addend: 0x0, symName: __ZNSt3__112construct_atB8ne200100IN8facebook5react18jsinspector_modern17HostTargetSessionEJNS_10unique_ptrINS3_17IRemoteConnectionENS_14default_deleteIS6_EEEERNS3_20HostTargetControllerENS3_18HostTargetMetadataENS_8functionIFvONSD_IFvvEEEEEEEPS4_EEPT_SL_DpOT0_, symObjAddr: 0x3250, symBinAddr: 0x8D8C, symSize: 0x308 }
  - { offset: 0x8487B, size: 0x8, addend: 0x0, symName: __ZNSt3__112__destroy_atB8ne200100IN8facebook5react18jsinspector_modern17HostTargetSessionELi0EEEvPT_, symObjAddr: 0x4064, symBinAddr: 0x9AD8, symSize: 0x90 }
  - { offset: 0x84D6F, size: 0x8, addend: 0x0, symName: __ZNSt3__115allocate_sharedB8ne200100IN8facebook5react18jsinspector_modern20RAIIRemoteConnectionENS_9allocatorIS4_EEJNS_10unique_ptrINS3_17IRemoteConnectionENS_14default_deleteIS8_EEEEELi0EEENS_10shared_ptrIT_EERKT0_DpOT1_, symObjAddr: 0x3948, symBinAddr: 0x9484, symSize: 0x58 }
  - { offset: 0x853DD, size: 0x8, addend: 0x0, symName: __ZNSt3__112construct_atB8ne200100IN8facebook5react18jsinspector_modern20RAIIRemoteConnectionEJNS_10unique_ptrINS3_17IRemoteConnectionENS_14default_deleteIS6_EEEEEPS4_EEPT_SC_DpOT0_, symObjAddr: 0x3A30, symBinAddr: 0x956C, symSize: 0x78 }
  - { offset: 0x85AA3, size: 0x8, addend: 0x0, symName: __ZNSt3__112__destroy_atB8ne200100INS_4pairIKNS_12basic_stringIcNS_11char_traitsIcEENS_9allocatorIcEEEENS_13unordered_setIN8facebook5react18jsinspector_modern24ExecutionContextSelectorENS_4hashISD_EENS_8equal_toISD_EENS5_ISD_EEEEEELi0EEEvPT_, symObjAddr: 0x3EEC, symBinAddr: 0x9A28, symSize: 0x3C }
  - { offset: 0x89833, size: 0x8, addend: 0x0, symName: __ZN8facebook5react18jsinspector_modern18makeScopedExecutorINS1_10HostTargetEEENSt3__18functionIFvONS5_IFvRT_EEEEEENS4_10shared_ptrIS6_EENS5_IFvONS5_IFvvEEEEEE, symObjAddr: 0x1E44, symBinAddr: 0x7C68, symSize: 0xE8 }
  - { offset: 0x89B92, size: 0x8, addend: 0x0, symName: __ZN8facebook5react18jsinspector_modern16makeVoidExecutorINS1_10HostTargetEEENSt3__18functionIFvONS5_IFvvEEEEEENS5_IFvONS5_IFvRT_EEEEEE, symObjAddr: 0x58C, symBinAddr: 0x673C, symSize: 0xFC }
  - { offset: 0x8A300, size: 0x8, addend: 0x0, symName: __ZN8facebook5react18jsinspector_modern25createHostMetadataPayloadERKNS1_18HostTargetMetadataE, symObjAddr: 0x1020, symBinAddr: 0x71D0, symSize: 0x51C }
  - { offset: 0x8EA05, size: 0x8, addend: 0x0, symName: __ZNSt3__110shared_ptrIN8facebook5react18jsinspector_modern10HostTargetEE18__enable_weak_thisB8ne200100IS4_S4_Li0EEEvPKNS_23enable_shared_from_thisIT_EEPT0_, symObjAddr: 0x1B00, symBinAddr: 0x7A2C, symSize: 0xB0 }
  - { offset: 0x8EDA2, size: 0x8, addend: 0x0, symName: __ZZN8facebook5react18jsinspector_modern18makeScopedExecutorINS1_10HostTargetEEENSt3__18functionIFvONS5_IFvRT_EEEEEENS4_10shared_ptrIS6_EENS5_IFvONS5_IFvvEEEEEEENKUlOS6_E_clINS5_IFvRS3_EEEEEDaSK_, symObjAddr: 0x234C, symBinAddr: 0x80B4, symSize: 0x188 }
  - { offset: 0x8F511, size: 0x8, addend: 0x0, symName: __ZZN8facebook5react18jsinspector_modern16makeVoidExecutorINS1_10HostTargetEEENSt3__18functionIFvONS5_IFvvEEEEEENS5_IFvONS5_IFvRT_EEEEEEENKUlOSB_E_clIS7_EEDaSI_, symObjAddr: 0x2D18, symBinAddr: 0x88B8, symSize: 0x164 }
  - { offset: 0x8FC81, size: 0x8, addend: 0x0, symName: __ZN8facebook5react18jsinspector_modern17HostTargetSessionC2ENSt3__110unique_ptrINS1_17IRemoteConnectionENS3_14default_deleteIS5_EEEERNS1_20HostTargetControllerENS1_18HostTargetMetadataENS3_8functionIFvONSC_IFvvEEEEEE, symObjAddr: 0x3558, symBinAddr: 0x9094, symSize: 0x398 }
  - { offset: 0x9181E, size: 0x8, addend: 0x0, symName: __ZN8facebook5react18jsinspector_modern10HostTarget7connectENSt3__110unique_ptrINS1_17IRemoteConnectionENS3_14default_deleteIS5_EEEE, symObjAddr: 0x1F0, symBinAddr: 0x63A0, symSize: 0x39C }
  - { offset: 0x92E9B, size: 0x8, addend: 0x0, symName: __ZN8facebook5react18jsinspector_modern10HostTarget11sendCommandENS1_11HostCommandE, symObjAddr: 0xE80, symBinAddr: 0x7030, symSize: 0x154 }
  - { offset: 0x9351A, size: 0x8, addend: 0x0, symName: __ZN8facebook5react18jsinspector_modern10HostTarget6createERNS1_18HostTargetDelegateENSt3__18functionIFvONS6_IFvvEEEEEE, symObjAddr: 0x0, symBinAddr: 0x61B0, symSize: 0xFC }
  - { offset: 0x9377B, size: 0x8, addend: 0x0, symName: __ZN8facebook5react18jsinspector_modern10HostTargetC2ERNS1_18HostTargetDelegateE, symObjAddr: 0x100, symBinAddr: 0x62B0, symSize: 0x90 }
  - { offset: 0x93C88, size: 0x8, addend: 0x0, symName: __ZNSt3__110shared_ptrIN8facebook5react18jsinspector_modern10HostTargetEEC2B8ne200100IS4_Li0EEEPT_, symObjAddr: 0x1A8C, symBinAddr: 0x79B8, symSize: 0x74 }
  - { offset: 0x93E5B, size: 0x8, addend: 0x0, symName: __ZNSt3__110__function12__value_funcIFvONS_8functionIFvvEEEEEaSB8ne200100EOS7_, symObjAddr: 0x1CC8, symBinAddr: 0x7B9C, symSize: 0x8C }
  - { offset: 0x93F31, size: 0x8, addend: 0x0, symName: __ZN8facebook5react18jsinspector_modern10HostTargetC1ERNS1_18HostTargetDelegateE, symObjAddr: 0xFC, symBinAddr: 0x62AC, symSize: 0x4 }
  - { offset: 0x93F5B, size: 0x8, addend: 0x0, symName: __ZN8facebook5react18jsinspector_modern10HostTargetC1ERNS1_18HostTargetDelegateE, symObjAddr: 0xFC, symBinAddr: 0x62AC, symSize: 0x4 }
  - { offset: 0x944AB, size: 0x8, addend: 0x0, symName: __ZNSt3__110__list_impINS_8weak_ptrIN8facebook5react18jsinspector_modern17HostTargetSessionEEENS_9allocatorIS6_EEE5clearEv, symObjAddr: 0x15E8, symBinAddr: 0x7788, symSize: 0x70 }
  - { offset: 0x944D6, size: 0x8, addend: 0x0, symName: __ZNSt3__110__list_impINS_8weak_ptrIN8facebook5react18jsinspector_modern17HostTargetSessionEEENS_9allocatorIS6_EEE5clearEv, symObjAddr: 0x15E8, symBinAddr: 0x7788, symSize: 0x70 }
  - { offset: 0x946AC, size: 0x8, addend: 0x0, symName: __ZN8facebook5react18jsinspector_modern22EnableExecutorFromThisINS1_10HostTargetEED2Ev, symObjAddr: 0x198, symBinAddr: 0x6348, symSize: 0x58 }
  - { offset: 0x947AB, size: 0x8, addend: 0x0, symName: __ZN8facebook5react18jsinspector_modern20HostTargetControllerC1ERNS1_10HostTargetE, symObjAddr: 0x190, symBinAddr: 0x6340, symSize: 0x8 }
  - { offset: 0x947D4, size: 0x8, addend: 0x0, symName: __ZN8facebook5react18jsinspector_modern20HostTargetControllerC1ERNS1_10HostTargetE, symObjAddr: 0x190, symBinAddr: 0x6340, symSize: 0x8 }
  - { offset: 0x9507D, size: 0x8, addend: 0x0, symName: __ZN8facebook5react18jsinspector_modern22EnableExecutorFromThisINS1_10HostTargetEE16executorFromThisEv, symObjAddr: 0x688, symBinAddr: 0x6838, symSize: 0x12C }
  - { offset: 0x95365, size: 0x8, addend: 0x0, symName: __ZN8facebook5react18jsinspector_modern17HostTargetSession18setCurrentInstanceEPNS1_14InstanceTargetE, symObjAddr: 0x7B4, symBinAddr: 0x6964, symSize: 0x194 }
  - { offset: 0x956E3, size: 0x8, addend: 0x0, symName: __ZNSt3__14listINS_8weak_ptrIN8facebook5react18jsinspector_modern17HostTargetSessionEEENS_9allocatorIS6_EEE9push_backERKS6_, symObjAddr: 0x414C, symBinAddr: 0x9B68, symSize: 0x64 }
  - { offset: 0x9599C, size: 0x8, addend: 0x0, symName: __ZN8facebook5react18jsinspector_modern18HostTargetMetadataD2Ev, symObjAddr: 0x1658, symBinAddr: 0x77F8, symSize: 0xC8 }
  - { offset: 0x96A00, size: 0x8, addend: 0x0, symName: __ZNSt3__110__function12__value_funcIFvONS_8functionIFvRN8facebook5react18jsinspector_modern10HostTargetEEEEEEC2B8ne200100EOSC_, symObjAddr: 0x2CB4, symBinAddr: 0x8854, symSize: 0x64 }
  - { offset: 0x96AB4, size: 0x8, addend: 0x0, symName: __ZNSt3__110shared_ptrIN8facebook5react18jsinspector_modern10HostTargetEEC2B8ne200100IS4_Li0EEERKNS_8weak_ptrIT_EE, symObjAddr: 0x29E0, symBinAddr: 0x85E4, symSize: 0x40 }
  - { offset: 0x96AF1, size: 0x8, addend: 0x0, symName: __ZNSt3__120__throw_bad_weak_ptrB8ne200100Ev, symObjAddr: 0x2A20, symBinAddr: 0x8624, symSize: 0x34 }
  - { offset: 0x96CBD, size: 0x8, addend: 0x0, symName: __ZNSt3__110shared_ptrIN8facebook5react18jsinspector_modern13InstanceAgentEED2B8ne200100Ev, symObjAddr: 0x1784, symBinAddr: 0x78C0, symSize: 0x58 }
  - { offset: 0x96DD5, size: 0x8, addend: 0x0, symName: __ZN8facebook5react18jsinspector_modern10HostTargetD2Ev, symObjAddr: 0x948, symBinAddr: 0x6AF8, symSize: 0x88 }
  - { offset: 0x97026, size: 0x8, addend: 0x0, symName: __ZNSt3__110unique_ptrIN8facebook5react18jsinspector_modern17HostCommandSenderENS_14default_deleteIS4_EEE5resetB8ne200100EPS4_, symObjAddr: 0x9D0, symBinAddr: 0x6B80, symSize: 0x4C }
  - { offset: 0x972F1, size: 0x8, addend: 0x0, symName: __ZN8facebook5react18jsinspector_modern10HostTargetD1Ev, symObjAddr: 0xA1C, symBinAddr: 0x6BCC, symSize: 0x4 }
  - { offset: 0x97314, size: 0x8, addend: 0x0, symName: __ZN8facebook5react18jsinspector_modern10HostTargetD1Ev, symObjAddr: 0xA1C, symBinAddr: 0x6BCC, symSize: 0x4 }
  - { offset: 0x97327, size: 0x8, addend: 0x0, symName: __ZN8facebook5react18jsinspector_modern18HostTargetDelegateD2Ev, symObjAddr: 0xA20, symBinAddr: 0x6BD0, symSize: 0x4 }
  - { offset: 0x97352, size: 0x8, addend: 0x0, symName: __ZN8facebook5react18jsinspector_modern18HostTargetDelegateD1Ev, symObjAddr: 0xA24, symBinAddr: 0x6BD4, symSize: 0x4 }
  - { offset: 0x9737B, size: 0x8, addend: 0x0, symName: __ZN8facebook5react18jsinspector_modern18HostTargetDelegateD0Ev, symObjAddr: 0xA28, symBinAddr: 0x6BD8, symSize: 0x4 }
  - { offset: 0x97468, size: 0x8, addend: 0x0, symName: __ZN8facebook5react18jsinspector_modern10HostTarget16registerInstanceERNS1_22InstanceTargetDelegateE, symObjAddr: 0xA2C, symBinAddr: 0x6BDC, symSize: 0x2B8 }
  - { offset: 0x97C8C, size: 0x8, addend: 0x0, symName: __ZNSt3__110shared_ptrIN8facebook5react18jsinspector_modern14InstanceTargetEEaSB8ne200100EOS5_, symObjAddr: 0xCE4, symBinAddr: 0x6E94, symSize: 0x64 }
  - { offset: 0x97DEA, size: 0x8, addend: 0x0, symName: __ZNSt3__14listINS_8weak_ptrIN8facebook5react18jsinspector_modern17HostTargetSessionEEENS_9allocatorIS6_EEE5eraseENS_21__list_const_iteratorIS6_PvEE, symObjAddr: 0x493C, symBinAddr: 0xA358, symSize: 0x4C }
  - { offset: 0x98010, size: 0x8, addend: 0x0, symName: __ZN8facebook5react18jsinspector_modern10HostTarget18unregisterInstanceERNS1_14InstanceTargetE, symObjAddr: 0xD48, symBinAddr: 0x6EF8, symSize: 0xDC }
  - { offset: 0x982EE, size: 0x8, addend: 0x0, symName: __ZNSt3__110shared_ptrIN8facebook5react18jsinspector_modern14InstanceTargetEE5resetB8ne200100Ev, symObjAddr: 0xE24, symBinAddr: 0x6FD4, symSize: 0x5C }
  - { offset: 0x986D5, size: 0x8, addend: 0x0, symName: __ZN8facebook5react18jsinspector_modern20HostTargetControllerC2ERNS1_10HostTargetE, symObjAddr: 0xFD4, symBinAddr: 0x7184, symSize: 0x8 }
  - { offset: 0x98712, size: 0x8, addend: 0x0, symName: __ZN8facebook5react18jsinspector_modern20HostTargetController11getDelegateEv, symObjAddr: 0xFDC, symBinAddr: 0x718C, symSize: 0xC }
  - { offset: 0x98783, size: 0x8, addend: 0x0, symName: __ZNK8facebook5react18jsinspector_modern20HostTargetController11hasInstanceEv, symObjAddr: 0xFE8, symBinAddr: 0x7198, symSize: 0x14 }
  - { offset: 0x9882E, size: 0x8, addend: 0x0, symName: __ZN8facebook5react18jsinspector_modern20HostTargetController28incrementPauseOverlayCounterEv, symObjAddr: 0xFFC, symBinAddr: 0x71AC, symSize: 0x10 }
  - { offset: 0x98855, size: 0x8, addend: 0x0, symName: __ZN8facebook5react18jsinspector_modern20HostTargetController28decrementPauseOverlayCounterEv, symObjAddr: 0x100C, symBinAddr: 0x71BC, symSize: 0x14 }
  - { offset: 0x98DBE, size: 0x8, addend: 0x0, symName: __ZN8facebook5react18jsinspector_modern18HostTargetDelegate19loadNetworkResourceERKNS1_26LoadNetworkResourceRequestENSt3__18functionIFvONS7_IFvRNS1_22NetworkRequestListenerEEEEEEE, symObjAddr: 0x153C, symBinAddr: 0x76EC, symSize: 0x9C }
  - { offset: 0x99157, size: 0x8, addend: 0x0, symName: __ZN8facebook5react18jsinspector_modern23NotImplementedExceptionD0Ev, symObjAddr: 0x19C8, symBinAddr: 0x7958, symSize: 0x44 }
  - { offset: 0x993D8, size: 0x8, addend: 0x0, symName: __ZN8facebook5react18jsinspector_modern23NotImplementedExceptionD1Ev, symObjAddr: 0x18E4, symBinAddr: 0x7918, symSize: 0x40 }
  - { offset: 0x995C8, size: 0x8, addend: 0x0, symName: __ZN8facebook5react18jsinspector_modern23NotImplementedExceptionD0Ev, symObjAddr: 0x19C8, symBinAddr: 0x7958, symSize: 0x44 }
  - { offset: 0x99774, size: 0x8, addend: 0x0, symName: __ZNK8facebook5react18jsinspector_modern23NotImplementedException4whatEv, symObjAddr: 0x1A0C, symBinAddr: 0x799C, symSize: 0x1C }
  - { offset: 0x99B4B, size: 0x8, addend: 0x0, symName: __ZNSt3__120__shared_ptr_pointerIPN8facebook5react18jsinspector_modern10HostTargetENS_10shared_ptrIS4_E27__shared_ptr_default_deleteIS4_S4_EENS_9allocatorIS4_EEED1Ev, symObjAddr: 0x1BB0, symBinAddr: 0x7ADC, symSize: 0x4 }
  - { offset: 0x99B6D, size: 0x8, addend: 0x0, symName: __ZNSt3__120__shared_ptr_pointerIPN8facebook5react18jsinspector_modern10HostTargetENS_10shared_ptrIS4_E27__shared_ptr_default_deleteIS4_S4_EENS_9allocatorIS4_EEED1Ev, symObjAddr: 0x1BB0, symBinAddr: 0x7ADC, symSize: 0x4 }
  - { offset: 0x99BA3, size: 0x8, addend: 0x0, symName: __ZNSt3__120__shared_ptr_pointerIPN8facebook5react18jsinspector_modern10HostTargetENS_10shared_ptrIS4_E27__shared_ptr_default_deleteIS4_S4_EENS_9allocatorIS4_EEED0Ev, symObjAddr: 0x1BB4, symBinAddr: 0x7AE0, symSize: 0x14 }
  - { offset: 0x99C06, size: 0x8, addend: 0x0, symName: __ZNSt3__120__shared_ptr_pointerIPN8facebook5react18jsinspector_modern10HostTargetENS_10shared_ptrIS4_E27__shared_ptr_default_deleteIS4_S4_EENS_9allocatorIS4_EEE16__on_zero_sharedEv, symObjAddr: 0x1BC8, symBinAddr: 0x7AF4, symSize: 0x20 }
  - { offset: 0x99C72, size: 0x8, addend: 0x0, symName: __ZNKSt3__120__shared_ptr_pointerIPN8facebook5react18jsinspector_modern10HostTargetENS_10shared_ptrIS4_E27__shared_ptr_default_deleteIS4_S4_EENS_9allocatorIS4_EEE13__get_deleterERKSt9type_info, symObjAddr: 0x1BE8, symBinAddr: 0x7B14, symSize: 0x38 }
  - { offset: 0x99CBD, size: 0x8, addend: 0x0, symName: __ZNKSt9type_infoeqB8ne200100ERKS_, symObjAddr: 0x1C24, symBinAddr: 0x7B50, symSize: 0x4C }
  - { offset: 0x99D9A, size: 0x8, addend: 0x0, symName: __ZNSt3__120__shared_ptr_pointerIPN8facebook5react18jsinspector_modern10HostTargetENS_10shared_ptrIS4_E27__shared_ptr_default_deleteIS4_S4_EENS_9allocatorIS4_EEE21__on_zero_shared_weakEv, symObjAddr: 0x1C20, symBinAddr: 0x7B4C, symSize: 0x4 }
  - { offset: 0x99DCC, size: 0x8, addend: 0x0, symName: __ZNSt3__120__shared_ptr_pointerIPN8facebook5react18jsinspector_modern10HostTargetENS_10shared_ptrIS4_E27__shared_ptr_default_deleteIS4_S4_EENS_9allocatorIS4_EEE21__on_zero_shared_weakEv, symObjAddr: 0x1C20, symBinAddr: 0x7B4C, symSize: 0x4 }
  - { offset: 0x99DED, size: 0x8, addend: 0x0, symName: __ZNSt3__120__shared_ptr_pointerIPN8facebook5react18jsinspector_modern10HostTargetENS_10shared_ptrIS4_E27__shared_ptr_default_deleteIS4_S4_EENS_9allocatorIS4_EEE21__on_zero_shared_weakEv, symObjAddr: 0x1C20, symBinAddr: 0x7B4C, symSize: 0x4 }
  - { offset: 0x99E20, size: 0x8, addend: 0x0, symName: __ZNSt3__120__shared_ptr_pointerIPN8facebook5react18jsinspector_modern10HostTargetENS_10shared_ptrIS4_E27__shared_ptr_default_deleteIS4_S4_EENS_9allocatorIS4_EEE21__on_zero_shared_weakEv, symObjAddr: 0x1C20, symBinAddr: 0x7B4C, symSize: 0x4 }
  - { offset: 0x99ED7, size: 0x8, addend: 0x0, symName: __ZNSt3__120__shared_ptr_emplaceIN8facebook5react18jsinspector_modern23ExecutionContextManagerENS_9allocatorIS4_EEED1Ev, symObjAddr: 0x1D54, symBinAddr: 0x7C28, symSize: 0x14 }
  - { offset: 0x99EF9, size: 0x8, addend: 0x0, symName: __ZNSt3__120__shared_ptr_emplaceIN8facebook5react18jsinspector_modern23ExecutionContextManagerENS_9allocatorIS4_EEED1Ev, symObjAddr: 0x1D54, symBinAddr: 0x7C28, symSize: 0x14 }
  - { offset: 0x99F2F, size: 0x8, addend: 0x0, symName: __ZNSt3__120__shared_ptr_emplaceIN8facebook5react18jsinspector_modern23ExecutionContextManagerENS_9allocatorIS4_EEED0Ev, symObjAddr: 0x1D68, symBinAddr: 0x7C3C, symSize: 0x24 }
  - { offset: 0x99F92, size: 0x8, addend: 0x0, symName: __ZNSt3__120__shared_ptr_emplaceIN8facebook5react18jsinspector_modern23ExecutionContextManagerENS_9allocatorIS4_EEE16__on_zero_sharedEv, symObjAddr: 0x1D8C, symBinAddr: 0x7C60, symSize: 0x4 }
  - { offset: 0x9A017, size: 0x8, addend: 0x0, symName: __ZNSt3__120__shared_ptr_emplaceIN8facebook5react18jsinspector_modern23ExecutionContextManagerENS_9allocatorIS4_EEE21__on_zero_shared_weakEv, symObjAddr: 0x1D90, symBinAddr: 0x7C64, symSize: 0x4 }
  - { offset: 0x9A049, size: 0x8, addend: 0x0, symName: __ZNSt3__120__shared_ptr_emplaceIN8facebook5react18jsinspector_modern23ExecutionContextManagerENS_9allocatorIS4_EEE21__on_zero_shared_weakEv, symObjAddr: 0x1D90, symBinAddr: 0x7C64, symSize: 0x4 }
  - { offset: 0x9A06A, size: 0x8, addend: 0x0, symName: __ZNSt3__120__shared_ptr_emplaceIN8facebook5react18jsinspector_modern23ExecutionContextManagerENS_9allocatorIS4_EEE21__on_zero_shared_weakEv, symObjAddr: 0x1D90, symBinAddr: 0x7C64, symSize: 0x4 }
  - { offset: 0x9A08C, size: 0x8, addend: 0x0, symName: __ZNSt3__120__shared_ptr_emplaceIN8facebook5react18jsinspector_modern23ExecutionContextManagerENS_9allocatorIS4_EEE21__on_zero_shared_weakEv, symObjAddr: 0x1D90, symBinAddr: 0x7C64, symSize: 0x4 }
  - { offset: 0x9A0BF, size: 0x8, addend: 0x0, symName: __ZNSt3__120__shared_ptr_emplaceIN8facebook5react18jsinspector_modern23ExecutionContextManagerENS_9allocatorIS4_EEE21__on_zero_shared_weakEv, symObjAddr: 0x1D90, symBinAddr: 0x7C64, symSize: 0x4 }
  - { offset: 0x9A186, size: 0x8, addend: 0x0, symName: __ZNSt3__110__function12__value_funcIFvONS_8functionIFvRN8facebook5react18jsinspector_modern10HostTargetEEEEEEC1B8ne200100IZNS5_18makeScopedExecutorIS6_EENS2_IFvONS2_IFvRT_EEEEEENS_10shared_ptrISF_EENS2_IFvONS2_IFvvEEEEEEEUlOSF_E_Li0EEEST_, symObjAddr: 0x1F84, symBinAddr: 0x7D50, symSize: 0x68 }
  - { offset: 0x9A821, size: 0x8, addend: 0x0, symName: __ZNSt3__110__function6__funcIZN8facebook5react18jsinspector_modern18makeScopedExecutorINS4_10HostTargetEEENS_8functionIFvONS7_IFvRT_EEEEEENS_10shared_ptrIS8_EENS7_IFvONS7_IFvvEEEEEEEUlOS8_E_NS_9allocatorISN_EEFvONS7_IFvRS6_EEEEED1Ev, symObjAddr: 0x1FEC, symBinAddr: 0x7DB8, symSize: 0x68 }
  - { offset: 0x9A9BA, size: 0x8, addend: 0x0, symName: __ZNSt3__110__function6__funcIZN8facebook5react18jsinspector_modern18makeScopedExecutorINS4_10HostTargetEEENS_8functionIFvONS7_IFvRT_EEEEEENS_10shared_ptrIS8_EENS7_IFvONS7_IFvvEEEEEEEUlOS8_E_NS_9allocatorISN_EEFvONS7_IFvRS6_EEEEED0Ev, symObjAddr: 0x2054, symBinAddr: 0x7E20, symSize: 0x68 }
  - { offset: 0x9AD14, size: 0x8, addend: 0x0, symName: __ZNKSt3__110__function6__funcIZN8facebook5react18jsinspector_modern18makeScopedExecutorINS4_10HostTargetEEENS_8functionIFvONS7_IFvRT_EEEEEENS_10shared_ptrIS8_EENS7_IFvONS7_IFvvEEEEEEEUlOS8_E_NS_9allocatorISN_EEFvONS7_IFvRS6_EEEEE7__cloneEv, symObjAddr: 0x20BC, symBinAddr: 0x7E88, symSize: 0x64 }
  - { offset: 0x9AF25, size: 0x8, addend: 0x0, symName: __ZNSt3__110__function12__alloc_funcIZN8facebook5react18jsinspector_modern18makeScopedExecutorINS4_10HostTargetEEENS_8functionIFvONS7_IFvRT_EEEEEENS_10shared_ptrIS8_EENS7_IFvONS7_IFvvEEEEEEEUlOS8_E_NS_9allocatorISN_EEFvONS7_IFvRS6_EEEEEC2B8ne200100ERKSN_OSP_, symObjAddr: 0x2228, symBinAddr: 0x7F90, symSize: 0x64 }
  - { offset: 0x9B154, size: 0x8, addend: 0x0, symName: __ZNKSt3__110__function6__funcIZN8facebook5react18jsinspector_modern18makeScopedExecutorINS4_10HostTargetEEENS_8functionIFvONS7_IFvRT_EEEEEENS_10shared_ptrIS8_EENS7_IFvONS7_IFvvEEEEEEEUlOS8_E_NS_9allocatorISN_EEFvONS7_IFvRS6_EEEEE7__cloneEPNS0_6__baseISU_EE, symObjAddr: 0x2120, symBinAddr: 0x7EEC, symSize: 0x24 }
  - { offset: 0x9B1E6, size: 0x8, addend: 0x0, symName: __ZNSt3__110__function12__alloc_funcIZN8facebook5react18jsinspector_modern18makeScopedExecutorINS4_10HostTargetEEENS_8functionIFvONS7_IFvRT_EEEEEENS_10shared_ptrIS8_EENS7_IFvONS7_IFvvEEEEEEEUlOS8_E_NS_9allocatorISN_EEFvONS7_IFvRS6_EEEEEC2B8ne200100ERKSN_RKSP_, symObjAddr: 0x228C, symBinAddr: 0x7FF4, symSize: 0x64 }
  - { offset: 0x9B37D, size: 0x8, addend: 0x0, symName: __ZNSt3__110__function6__funcIZN8facebook5react18jsinspector_modern18makeScopedExecutorINS4_10HostTargetEEENS_8functionIFvONS7_IFvRT_EEEEEENS_10shared_ptrIS8_EENS7_IFvONS7_IFvvEEEEEEEUlOS8_E_NS_9allocatorISN_EEFvONS7_IFvRS6_EEEEE7destroyEv, symObjAddr: 0x2144, symBinAddr: 0x7F10, symSize: 0x8 }
  - { offset: 0x9B3B2, size: 0x8, addend: 0x0, symName: __ZNSt3__110__function12__alloc_funcIZN8facebook5react18jsinspector_modern18makeScopedExecutorINS4_10HostTargetEEENS_8functionIFvONS7_IFvRT_EEEEEENS_10shared_ptrIS8_EENS7_IFvONS7_IFvvEEEEEEEUlOS8_E_NS_9allocatorISN_EEFvONS7_IFvRS6_EEEEE7destroyB8ne200100Ev, symObjAddr: 0x22F0, symBinAddr: 0x8058, symSize: 0x5C }
  - { offset: 0x9B4D9, size: 0x8, addend: 0x0, symName: __ZNSt3__110__function6__funcIZN8facebook5react18jsinspector_modern18makeScopedExecutorINS4_10HostTargetEEENS_8functionIFvONS7_IFvRT_EEEEEENS_10shared_ptrIS8_EENS7_IFvONS7_IFvvEEEEEEEUlOS8_E_NS_9allocatorISN_EEFvONS7_IFvRS6_EEEEE18destroy_deallocateEv, symObjAddr: 0x214C, symBinAddr: 0x7F18, symSize: 0x28 }
  - { offset: 0x9B5F3, size: 0x8, addend: 0x0, symName: __ZNSt3__110__function6__funcIZN8facebook5react18jsinspector_modern18makeScopedExecutorINS4_10HostTargetEEENS_8functionIFvONS7_IFvRT_EEEEEENS_10shared_ptrIS8_EENS7_IFvONS7_IFvvEEEEEEEUlOS8_E_NS_9allocatorISN_EEFvONS7_IFvRS6_EEEEEclEST_, symObjAddr: 0x2174, symBinAddr: 0x7F40, symSize: 0x8 }
  - { offset: 0x9B6B1, size: 0x8, addend: 0x0, symName: __ZNKSt3__110__function6__funcIZN8facebook5react18jsinspector_modern18makeScopedExecutorINS4_10HostTargetEEENS_8functionIFvONS7_IFvRT_EEEEEENS_10shared_ptrIS8_EENS7_IFvONS7_IFvvEEEEEEEUlOS8_E_NS_9allocatorISN_EEFvONS7_IFvRS6_EEEEE6targetERKSt9type_info, symObjAddr: 0x217C, symBinAddr: 0x7F48, symSize: 0x3C }
  - { offset: 0x9B6FD, size: 0x8, addend: 0x0, symName: __ZNKSt3__110__function6__funcIZN8facebook5react18jsinspector_modern18makeScopedExecutorINS4_10HostTargetEEENS_8functionIFvONS7_IFvRT_EEEEEENS_10shared_ptrIS8_EENS7_IFvONS7_IFvvEEEEEEEUlOS8_E_NS_9allocatorISN_EEFvONS7_IFvRS6_EEEEE11target_typeEv, symObjAddr: 0x21B8, symBinAddr: 0x7F84, symSize: 0xC }
  - { offset: 0x9BBFB, size: 0x8, addend: 0x0, symName: __ZNSt3__110__function12__value_funcIFvRN8facebook5react18jsinspector_modern10HostTargetEEEC2B8ne200100EOS8_, symObjAddr: 0x2578, symBinAddr: 0x823C, symSize: 0x64 }
  - { offset: 0x9BD68, size: 0x8, addend: 0x0, symName: __ZNSt3__110__function6__funcIZZN8facebook5react18jsinspector_modern18makeScopedExecutorINS4_10HostTargetEEENS_8functionIFvONS7_IFvRT_EEEEEENS_10shared_ptrIS8_EENS7_IFvONS7_IFvvEEEEEEENKUlOS8_E_clINS7_IFvRS6_EEEEEDaSM_EUlvE_NS_9allocatorIST_EESH_ED1Ev, symObjAddr: 0x25DC, symBinAddr: 0x82A0, symSize: 0x64 }
  - { offset: 0x9BF01, size: 0x8, addend: 0x0, symName: __ZNSt3__110__function6__funcIZZN8facebook5react18jsinspector_modern18makeScopedExecutorINS4_10HostTargetEEENS_8functionIFvONS7_IFvRT_EEEEEENS_10shared_ptrIS8_EENS7_IFvONS7_IFvvEEEEEEENKUlOS8_E_clINS7_IFvRS6_EEEEEDaSM_EUlvE_NS_9allocatorIST_EESH_ED0Ev, symObjAddr: 0x2640, symBinAddr: 0x8304, symSize: 0x64 }
  - { offset: 0x9C25B, size: 0x8, addend: 0x0, symName: __ZNKSt3__110__function6__funcIZZN8facebook5react18jsinspector_modern18makeScopedExecutorINS4_10HostTargetEEENS_8functionIFvONS7_IFvRT_EEEEEENS_10shared_ptrIS8_EENS7_IFvONS7_IFvvEEEEEEENKUlOS8_E_clINS7_IFvRS6_EEEEEDaSM_EUlvE_NS_9allocatorIST_EESH_E7__cloneEv, symObjAddr: 0x26A4, symBinAddr: 0x8368, symSize: 0x60 }
  - { offset: 0x9C46C, size: 0x8, addend: 0x0, symName: __ZNSt3__110__function12__alloc_funcIZZN8facebook5react18jsinspector_modern18makeScopedExecutorINS4_10HostTargetEEENS_8functionIFvONS7_IFvRT_EEEEEENS_10shared_ptrIS8_EENS7_IFvONS7_IFvvEEEEEEENKUlOS8_E_clINS7_IFvRS6_EEEEEDaSM_EUlvE_NS_9allocatorIST_EESH_EC2B8ne200100ERKST_OSV_, symObjAddr: 0x27A4, symBinAddr: 0x8468, symSize: 0x64 }
  - { offset: 0x9C69B, size: 0x8, addend: 0x0, symName: __ZNKSt3__110__function6__funcIZZN8facebook5react18jsinspector_modern18makeScopedExecutorINS4_10HostTargetEEENS_8functionIFvONS7_IFvRT_EEEEEENS_10shared_ptrIS8_EENS7_IFvONS7_IFvvEEEEEEENKUlOS8_E_clINS7_IFvRS6_EEEEEDaSM_EUlvE_NS_9allocatorIST_EESH_E7__cloneEPNS0_6__baseISH_EE, symObjAddr: 0x2704, symBinAddr: 0x83C8, symSize: 0x20 }
  - { offset: 0x9C72D, size: 0x8, addend: 0x0, symName: __ZNSt3__110__function12__alloc_funcIZZN8facebook5react18jsinspector_modern18makeScopedExecutorINS4_10HostTargetEEENS_8functionIFvONS7_IFvRT_EEEEEENS_10shared_ptrIS8_EENS7_IFvONS7_IFvvEEEEEEENKUlOS8_E_clINS7_IFvRS6_EEEEEDaSM_EUlvE_NS_9allocatorIST_EESH_EC2B8ne200100ERKST_RKSV_, symObjAddr: 0x286C, symBinAddr: 0x84CC, symSize: 0x64 }
  - { offset: 0x9C8C4, size: 0x8, addend: 0x0, symName: __ZNSt3__110__function6__funcIZZN8facebook5react18jsinspector_modern18makeScopedExecutorINS4_10HostTargetEEENS_8functionIFvONS7_IFvRT_EEEEEENS_10shared_ptrIS8_EENS7_IFvONS7_IFvvEEEEEEENKUlOS8_E_clINS7_IFvRS6_EEEEEDaSM_EUlvE_NS_9allocatorIST_EESH_E7destroyEv, symObjAddr: 0x2724, symBinAddr: 0x83E8, symSize: 0x8 }
  - { offset: 0x9C99E, size: 0x8, addend: 0x0, symName: __ZNSt3__110__function6__funcIZZN8facebook5react18jsinspector_modern18makeScopedExecutorINS4_10HostTargetEEENS_8functionIFvONS7_IFvRT_EEEEEENS_10shared_ptrIS8_EENS7_IFvONS7_IFvvEEEEEEENKUlOS8_E_clINS7_IFvRS6_EEEEEDaSM_EUlvE_NS_9allocatorIST_EESH_E18destroy_deallocateEv, symObjAddr: 0x272C, symBinAddr: 0x83F0, symSize: 0x28 }
  - { offset: 0x9CA7F, size: 0x8, addend: 0x0, symName: __ZNSt3__110__function6__funcIZZN8facebook5react18jsinspector_modern18makeScopedExecutorINS4_10HostTargetEEENS_8functionIFvONS7_IFvRT_EEEEEENS_10shared_ptrIS8_EENS7_IFvONS7_IFvvEEEEEEENKUlOS8_E_clINS7_IFvRS6_EEEEEDaSM_EUlvE_NS_9allocatorIST_EESH_EclEv, symObjAddr: 0x2754, symBinAddr: 0x8418, symSize: 0x8 }
  - { offset: 0x9CADF, size: 0x8, addend: 0x0, symName: __ZNSt3__128__invoke_void_return_wrapperIvLb1EE6__callB8ne200100IJRZZN8facebook5react18jsinspector_modern18makeScopedExecutorINS5_10HostTargetEEENS_8functionIFvONS8_IFvRT_EEEEEENS_10shared_ptrIS9_EENS8_IFvONS8_IFvvEEEEEEENKUlOS9_E_clINS8_IFvRS7_EEEEEDaSN_EUlvE_EEEvDpOT_, symObjAddr: 0x292C, symBinAddr: 0x8530, symSize: 0xB4 }
  - { offset: 0x9CC7C, size: 0x8, addend: 0x0, symName: __ZNKSt3__110__function6__funcIZZN8facebook5react18jsinspector_modern18makeScopedExecutorINS4_10HostTargetEEENS_8functionIFvONS7_IFvRT_EEEEEENS_10shared_ptrIS8_EENS7_IFvONS7_IFvvEEEEEEENKUlOS8_E_clINS7_IFvRS6_EEEEEDaSM_EUlvE_NS_9allocatorIST_EESH_E6targetERKSt9type_info, symObjAddr: 0x275C, symBinAddr: 0x8420, symSize: 0x3C }
  - { offset: 0x9CCC8, size: 0x8, addend: 0x0, symName: __ZNKSt3__110__function6__funcIZZN8facebook5react18jsinspector_modern18makeScopedExecutorINS4_10HostTargetEEENS_8functionIFvONS7_IFvRT_EEEEEENS_10shared_ptrIS8_EENS7_IFvONS7_IFvvEEEEEEENKUlOS8_E_clINS7_IFvRS6_EEEEEDaSM_EUlvE_NS_9allocatorIST_EESH_E11target_typeEv, symObjAddr: 0x2798, symBinAddr: 0x845C, symSize: 0xC }
  - { offset: 0x9CF3B, size: 0x8, addend: 0x0, symName: __ZNSt3__110__function6__funcIZN8facebook5react18jsinspector_modern16makeVoidExecutorINS4_10HostTargetEEENS_8functionIFvONS7_IFvvEEEEEENS7_IFvONS7_IFvRT_EEEEEEEUlOSD_E_NS_9allocatorISL_EESB_ED1Ev, symObjAddr: 0x2AB8, symBinAddr: 0x8658, symSize: 0x5C }
  - { offset: 0x9D097, size: 0x8, addend: 0x0, symName: __ZNSt3__110__function6__funcIZN8facebook5react18jsinspector_modern16makeVoidExecutorINS4_10HostTargetEEENS_8functionIFvONS7_IFvvEEEEEENS7_IFvONS7_IFvRT_EEEEEEEUlOSD_E_NS_9allocatorISL_EESB_ED0Ev, symObjAddr: 0x2B14, symBinAddr: 0x86B4, symSize: 0x5C }
  - { offset: 0x9D426, size: 0x8, addend: 0x0, symName: __ZNKSt3__110__function6__funcIZN8facebook5react18jsinspector_modern16makeVoidExecutorINS4_10HostTargetEEENS_8functionIFvONS7_IFvvEEEEEENS7_IFvONS7_IFvRT_EEEEEEEUlOSD_E_NS_9allocatorISL_EESB_E7__cloneEv, symObjAddr: 0x2B70, symBinAddr: 0x8710, symSize: 0x58 }
  - { offset: 0x9D788, size: 0x8, addend: 0x0, symName: __ZNKSt3__110__function6__funcIZN8facebook5react18jsinspector_modern16makeVoidExecutorINS4_10HostTargetEEENS_8functionIFvONS7_IFvvEEEEEENS7_IFvONS7_IFvRT_EEEEEEEUlOSD_E_NS_9allocatorISL_EESB_E7__cloneEPNS0_6__baseISB_EE, symObjAddr: 0x2BC8, symBinAddr: 0x8768, symSize: 0x20 }
  - { offset: 0x9D8DA, size: 0x8, addend: 0x0, symName: __ZNSt3__110__function6__funcIZN8facebook5react18jsinspector_modern16makeVoidExecutorINS4_10HostTargetEEENS_8functionIFvONS7_IFvvEEEEEENS7_IFvONS7_IFvRT_EEEEEEEUlOSD_E_NS_9allocatorISL_EESB_E7destroyEv, symObjAddr: 0x2BE8, symBinAddr: 0x8788, symSize: 0x30 }
  - { offset: 0x9D9E3, size: 0x8, addend: 0x0, symName: __ZNSt3__110__function6__funcIZN8facebook5react18jsinspector_modern16makeVoidExecutorINS4_10HostTargetEEENS_8functionIFvONS7_IFvvEEEEEENS7_IFvONS7_IFvRT_EEEEEEEUlOSD_E_NS_9allocatorISL_EESB_E18destroy_deallocateEv, symObjAddr: 0x2C18, symBinAddr: 0x87B8, symSize: 0x4C }
  - { offset: 0x9DBD2, size: 0x8, addend: 0x0, symName: __ZNSt3__110__function6__funcIZN8facebook5react18jsinspector_modern16makeVoidExecutorINS4_10HostTargetEEENS_8functionIFvONS7_IFvvEEEEEENS7_IFvONS7_IFvRT_EEEEEEEUlOSD_E_NS_9allocatorISL_EESB_EclESA_, symObjAddr: 0x2C64, symBinAddr: 0x8804, symSize: 0x8 }
  - { offset: 0x9DC90, size: 0x8, addend: 0x0, symName: __ZNKSt3__110__function6__funcIZN8facebook5react18jsinspector_modern16makeVoidExecutorINS4_10HostTargetEEENS_8functionIFvONS7_IFvvEEEEEENS7_IFvONS7_IFvRT_EEEEEEEUlOSD_E_NS_9allocatorISL_EESB_E6targetERKSt9type_info, symObjAddr: 0x2C6C, symBinAddr: 0x880C, symSize: 0x3C }
  - { offset: 0x9DCDC, size: 0x8, addend: 0x0, symName: __ZNKSt3__110__function6__funcIZN8facebook5react18jsinspector_modern16makeVoidExecutorINS4_10HostTargetEEENS_8functionIFvONS7_IFvvEEEEEENS7_IFvONS7_IFvRT_EEEEEEEUlOSD_E_NS_9allocatorISL_EESB_E11target_typeEv, symObjAddr: 0x2CA8, symBinAddr: 0x8848, symSize: 0xC }
  - { offset: 0x9E07E, size: 0x8, addend: 0x0, symName: __ZNSt3__110__function12__value_funcIFvvEEC2B8ne200100EOS3_, symObjAddr: 0x2E7C, symBinAddr: 0x8A1C, symSize: 0x64 }
  - { offset: 0x9E121, size: 0x8, addend: 0x0, symName: __ZNSt3__110__function6__funcIZZN8facebook5react18jsinspector_modern16makeVoidExecutorINS4_10HostTargetEEENS_8functionIFvONS7_IFvvEEEEEENS7_IFvONS7_IFvRT_EEEEEEENKUlOSD_E_clIS9_EEDaSK_EUlRS6_E_NS_9allocatorISP_EEFvSO_EED1Ev, symObjAddr: 0x2EE0, symBinAddr: 0x8A80, symSize: 0x58 }
  - { offset: 0x9E27D, size: 0x8, addend: 0x0, symName: __ZNSt3__110__function6__funcIZZN8facebook5react18jsinspector_modern16makeVoidExecutorINS4_10HostTargetEEENS_8functionIFvONS7_IFvvEEEEEENS7_IFvONS7_IFvRT_EEEEEEENKUlOSD_E_clIS9_EEDaSK_EUlRS6_E_NS_9allocatorISP_EEFvSO_EED0Ev, symObjAddr: 0x2F38, symBinAddr: 0x8AD8, symSize: 0x58 }
  - { offset: 0x9E685, size: 0x8, addend: 0x0, symName: __ZNKSt3__110__function6__funcIZZN8facebook5react18jsinspector_modern16makeVoidExecutorINS4_10HostTargetEEENS_8functionIFvONS7_IFvvEEEEEENS7_IFvONS7_IFvRT_EEEEEEENKUlOSD_E_clIS9_EEDaSK_EUlRS6_E_NS_9allocatorISP_EEFvSO_EE7__cloneEv, symObjAddr: 0x2F90, symBinAddr: 0x8B30, symSize: 0x54 }
  - { offset: 0x9EA2B, size: 0x8, addend: 0x0, symName: __ZNKSt3__110__function6__funcIZZN8facebook5react18jsinspector_modern16makeVoidExecutorINS4_10HostTargetEEENS_8functionIFvONS7_IFvvEEEEEENS7_IFvONS7_IFvRT_EEEEEEENKUlOSD_E_clIS9_EEDaSK_EUlRS6_E_NS_9allocatorISP_EEFvSO_EE7__cloneEPNS0_6__baseISS_EE, symObjAddr: 0x2FE4, symBinAddr: 0x8B84, symSize: 0x1C }
  - { offset: 0x9EB7D, size: 0x8, addend: 0x0, symName: __ZNSt3__110__function6__funcIZZN8facebook5react18jsinspector_modern16makeVoidExecutorINS4_10HostTargetEEENS_8functionIFvONS7_IFvvEEEEEENS7_IFvONS7_IFvRT_EEEEEEENKUlOSD_E_clIS9_EEDaSK_EUlRS6_E_NS_9allocatorISP_EEFvSO_EE7destroyEv, symObjAddr: 0x3000, symBinAddr: 0x8BA0, symSize: 0x30 }
  - { offset: 0x9EC86, size: 0x8, addend: 0x0, symName: __ZNSt3__110__function6__funcIZZN8facebook5react18jsinspector_modern16makeVoidExecutorINS4_10HostTargetEEENS_8functionIFvONS7_IFvvEEEEEENS7_IFvONS7_IFvRT_EEEEEEENKUlOSD_E_clIS9_EEDaSK_EUlRS6_E_NS_9allocatorISP_EEFvSO_EE18destroy_deallocateEv, symObjAddr: 0x3030, symBinAddr: 0x8BD0, symSize: 0x4C }
  - { offset: 0x9EED9, size: 0x8, addend: 0x0, symName: __ZNSt3__110__function6__funcIZZN8facebook5react18jsinspector_modern16makeVoidExecutorINS4_10HostTargetEEENS_8functionIFvONS7_IFvvEEEEEENS7_IFvONS7_IFvRT_EEEEEEENKUlOSD_E_clIS9_EEDaSK_EUlRS6_E_NS_9allocatorISP_EEFvSO_EEclESO_, symObjAddr: 0x307C, symBinAddr: 0x8C1C, symSize: 0x20 }
  - { offset: 0x9EF12, size: 0x8, addend: 0x0, symName: __ZNSt3__110__function6__funcIZZN8facebook5react18jsinspector_modern16makeVoidExecutorINS4_10HostTargetEEENS_8functionIFvONS7_IFvvEEEEEENS7_IFvONS7_IFvRT_EEEEEEENKUlOSD_E_clIS9_EEDaSK_EUlRS6_E_NS_9allocatorISP_EEFvSO_EEclESO_, symObjAddr: 0x307C, symBinAddr: 0x8C1C, symSize: 0x20 }
  - { offset: 0x9EF39, size: 0x8, addend: 0x0, symName: __ZNSt3__110__function6__funcIZZN8facebook5react18jsinspector_modern16makeVoidExecutorINS4_10HostTargetEEENS_8functionIFvONS7_IFvvEEEEEENS7_IFvONS7_IFvRT_EEEEEEENKUlOSD_E_clIS9_EEDaSK_EUlRS6_E_NS_9allocatorISP_EEFvSO_EEclESO_, symObjAddr: 0x307C, symBinAddr: 0x8C1C, symSize: 0x20 }
  - { offset: 0x9EF5F, size: 0x8, addend: 0x0, symName: __ZNSt3__110__function6__funcIZZN8facebook5react18jsinspector_modern16makeVoidExecutorINS4_10HostTargetEEENS_8functionIFvONS7_IFvvEEEEEENS7_IFvONS7_IFvRT_EEEEEEENKUlOSD_E_clIS9_EEDaSK_EUlRS6_E_NS_9allocatorISP_EEFvSO_EEclESO_, symObjAddr: 0x307C, symBinAddr: 0x8C1C, symSize: 0x20 }
  - { offset: 0x9EF86, size: 0x8, addend: 0x0, symName: __ZNSt3__110__function6__funcIZZN8facebook5react18jsinspector_modern16makeVoidExecutorINS4_10HostTargetEEENS_8functionIFvONS7_IFvvEEEEEENS7_IFvONS7_IFvRT_EEEEEEENKUlOSD_E_clIS9_EEDaSK_EUlRS6_E_NS_9allocatorISP_EEFvSO_EEclESO_, symObjAddr: 0x307C, symBinAddr: 0x8C1C, symSize: 0x20 }
  - { offset: 0x9EFAC, size: 0x8, addend: 0x0, symName: __ZNSt3__110__function6__funcIZZN8facebook5react18jsinspector_modern16makeVoidExecutorINS4_10HostTargetEEENS_8functionIFvONS7_IFvvEEEEEENS7_IFvONS7_IFvRT_EEEEEEENKUlOSD_E_clIS9_EEDaSK_EUlRS6_E_NS_9allocatorISP_EEFvSO_EEclESO_, symObjAddr: 0x307C, symBinAddr: 0x8C1C, symSize: 0x20 }
  - { offset: 0x9EFD2, size: 0x8, addend: 0x0, symName: __ZNSt3__110__function6__funcIZZN8facebook5react18jsinspector_modern16makeVoidExecutorINS4_10HostTargetEEENS_8functionIFvONS7_IFvvEEEEEENS7_IFvONS7_IFvRT_EEEEEEENKUlOSD_E_clIS9_EEDaSK_EUlRS6_E_NS_9allocatorISP_EEFvSO_EEclESO_, symObjAddr: 0x307C, symBinAddr: 0x8C1C, symSize: 0x20 }
  - { offset: 0x9EFEF, size: 0x8, addend: 0x0, symName: __ZNSt3__110__function6__funcIZZN8facebook5react18jsinspector_modern16makeVoidExecutorINS4_10HostTargetEEENS_8functionIFvONS7_IFvvEEEEEENS7_IFvONS7_IFvRT_EEEEEEENKUlOSD_E_clIS9_EEDaSK_EUlRS6_E_NS_9allocatorISP_EEFvSO_EEclESO_, symObjAddr: 0x307C, symBinAddr: 0x8C1C, symSize: 0x20 }
  - { offset: 0x9F020, size: 0x8, addend: 0x0, symName: __ZNKSt3__110__function6__funcIZZN8facebook5react18jsinspector_modern16makeVoidExecutorINS4_10HostTargetEEENS_8functionIFvONS7_IFvvEEEEEENS7_IFvONS7_IFvRT_EEEEEEENKUlOSD_E_clIS9_EEDaSK_EUlRS6_E_NS_9allocatorISP_EEFvSO_EE6targetERKSt9type_info, symObjAddr: 0x309C, symBinAddr: 0x8C3C, symSize: 0x3C }
  - { offset: 0x9F02B, size: 0x8, addend: 0x0, symName: __ZNKSt3__110__function6__funcIZZN8facebook5react18jsinspector_modern16makeVoidExecutorINS4_10HostTargetEEENS_8functionIFvONS7_IFvvEEEEEENS7_IFvONS7_IFvRT_EEEEEEENKUlOSD_E_clIS9_EEDaSK_EUlRS6_E_NS_9allocatorISP_EEFvSO_EE6targetERKSt9type_info, symObjAddr: 0x309C, symBinAddr: 0x8C3C, symSize: 0x3C }
  - { offset: 0x9F077, size: 0x8, addend: 0x0, symName: __ZNKSt3__110__function6__funcIZZN8facebook5react18jsinspector_modern16makeVoidExecutorINS4_10HostTargetEEENS_8functionIFvONS7_IFvvEEEEEENS7_IFvONS7_IFvRT_EEEEEEENKUlOSD_E_clIS9_EEDaSK_EUlRS6_E_NS_9allocatorISP_EEFvSO_EE11target_typeEv, symObjAddr: 0x30D8, symBinAddr: 0x8C78, symSize: 0xC }
  - { offset: 0x9F306, size: 0x8, addend: 0x0, symName: __ZNSt3__120__shared_ptr_emplaceIN8facebook5react18jsinspector_modern17HostTargetSessionENS_9allocatorIS4_EEEC2B8ne200100IJNS_10unique_ptrINS3_17IRemoteConnectionENS_14default_deleteISA_EEEERNS3_20HostTargetControllerENS3_18HostTargetMetadataENS_8functionIFvONSH_IFvvEEEEEEES6_Li0EEES6_DpOT_, symObjAddr: 0x31C0, symBinAddr: 0x8CFC, symSize: 0x4C }
  - { offset: 0x9F543, size: 0x8, addend: 0x0, symName: __ZNSt3__120__shared_ptr_emplaceIN8facebook5react18jsinspector_modern17HostTargetSessionENS_9allocatorIS4_EEED1Ev, symObjAddr: 0x320C, symBinAddr: 0x8D48, symSize: 0x14 }
  - { offset: 0x9F565, size: 0x8, addend: 0x0, symName: __ZNSt3__120__shared_ptr_emplaceIN8facebook5react18jsinspector_modern17HostTargetSessionENS_9allocatorIS4_EEED1Ev, symObjAddr: 0x320C, symBinAddr: 0x8D48, symSize: 0x14 }
  - { offset: 0x9F59B, size: 0x8, addend: 0x0, symName: __ZNSt3__120__shared_ptr_emplaceIN8facebook5react18jsinspector_modern17HostTargetSessionENS_9allocatorIS4_EEED0Ev, symObjAddr: 0x3220, symBinAddr: 0x8D5C, symSize: 0x24 }
  - { offset: 0x9F667, size: 0x8, addend: 0x0, symName: __ZNSt3__120__shared_ptr_emplaceIN8facebook5react18jsinspector_modern17HostTargetSessionENS_9allocatorIS4_EEE16__on_zero_sharedEv, symObjAddr: 0x3244, symBinAddr: 0x8D80, symSize: 0x8 }
  - { offset: 0x9F690, size: 0x8, addend: 0x0, symName: __ZNSt3__120__shared_ptr_emplaceIN8facebook5react18jsinspector_modern17HostTargetSessionENS_9allocatorIS4_EEE16__on_zero_sharedEv, symObjAddr: 0x3244, symBinAddr: 0x8D80, symSize: 0x8 }
  - { offset: 0x9F6AD, size: 0x8, addend: 0x0, symName: __ZNSt3__120__shared_ptr_emplaceIN8facebook5react18jsinspector_modern17HostTargetSessionENS_9allocatorIS4_EEE16__on_zero_sharedEv, symObjAddr: 0x3244, symBinAddr: 0x8D80, symSize: 0x8 }
  - { offset: 0x9F6EB, size: 0x8, addend: 0x0, symName: __ZNSt3__120__shared_ptr_emplaceIN8facebook5react18jsinspector_modern17HostTargetSessionENS_9allocatorIS4_EEE21__on_zero_shared_weakEv, symObjAddr: 0x324C, symBinAddr: 0x8D88, symSize: 0x4 }
  - { offset: 0x9F71D, size: 0x8, addend: 0x0, symName: __ZNSt3__120__shared_ptr_emplaceIN8facebook5react18jsinspector_modern17HostTargetSessionENS_9allocatorIS4_EEE21__on_zero_shared_weakEv, symObjAddr: 0x324C, symBinAddr: 0x8D88, symSize: 0x4 }
  - { offset: 0x9F73E, size: 0x8, addend: 0x0, symName: __ZNSt3__120__shared_ptr_emplaceIN8facebook5react18jsinspector_modern17HostTargetSessionENS_9allocatorIS4_EEE21__on_zero_shared_weakEv, symObjAddr: 0x324C, symBinAddr: 0x8D88, symSize: 0x4 }
  - { offset: 0x9F760, size: 0x8, addend: 0x0, symName: __ZNSt3__120__shared_ptr_emplaceIN8facebook5react18jsinspector_modern17HostTargetSessionENS_9allocatorIS4_EEE21__on_zero_shared_weakEv, symObjAddr: 0x324C, symBinAddr: 0x8D88, symSize: 0x4 }
  - { offset: 0x9F794, size: 0x8, addend: 0x0, symName: __ZNSt3__120__shared_ptr_emplaceIN8facebook5react18jsinspector_modern17HostTargetSessionENS_9allocatorIS4_EEE21__on_zero_shared_weakEv, symObjAddr: 0x324C, symBinAddr: 0x8D88, symSize: 0x4 }
  - { offset: 0x9FA9E, size: 0x8, addend: 0x0, symName: __ZNSt3__112construct_atB8ne200100IN8facebook5react18jsinspector_modern17HostTargetSessionEJNS_10unique_ptrINS3_17IRemoteConnectionENS_14default_deleteIS6_EEEERNS3_20HostTargetControllerENS3_18HostTargetMetadataENS_8functionIFvONSD_IFvvEEEEEEEPS4_EEPT_SL_DpOT0_.cold.1, symObjAddr: 0x4CE0, symBinAddr: 0x2B9C4, symSize: 0x38 }
  - { offset: 0x9FFF1, size: 0x8, addend: 0x0, symName: __ZN8facebook5react18jsinspector_modern12SessionStateD1Ev, symObjAddr: 0x38F0, symBinAddr: 0x942C, symSize: 0x58 }
  - { offset: 0xA0405, size: 0x8, addend: 0x0, symName: __ZNSt3__16vectorIN8facebook5react18jsinspector_modern20SimpleConsoleMessageENS_9allocatorIS4_EEE16__destroy_vectorclB8ne200100Ev, symObjAddr: 0x3D74, symBinAddr: 0x98B0, symSize: 0x78 }
  - { offset: 0xA0626, size: 0x8, addend: 0x0, symName: __ZNSt3__112__hash_tableINS_17__hash_value_typeINS_12basic_stringIcNS_11char_traitsIcEENS_9allocatorIcEEEENS_13unordered_setIN8facebook5react18jsinspector_modern24ExecutionContextSelectorENS_4hashISC_EENS_8equal_toISC_EENS5_ISC_EEEEEENS_22__unordered_map_hasherIS7_SJ_NSD_IS7_EENSF_IS7_EELb1EEENS_21__unordered_map_equalIS7_SJ_SM_SL_Lb1EEENS5_ISJ_EEED2Ev, symObjAddr: 0x3E78, symBinAddr: 0x99B4, symSize: 0x38 }
  - { offset: 0xA09B6, size: 0x8, addend: 0x0, symName: __ZNSt3__120__shared_ptr_emplaceIN8facebook5react18jsinspector_modern20RAIIRemoteConnectionENS_9allocatorIS4_EEEC2B8ne200100IJNS_10unique_ptrINS3_17IRemoteConnectionENS_14default_deleteISA_EEEEES6_Li0EEES6_DpOT_, symObjAddr: 0x39A0, symBinAddr: 0x94DC, symSize: 0x4C }
  - { offset: 0xA0B1D, size: 0x8, addend: 0x0, symName: __ZNSt3__120__shared_ptr_emplaceIN8facebook5react18jsinspector_modern20RAIIRemoteConnectionENS_9allocatorIS4_EEED1Ev, symObjAddr: 0x39EC, symBinAddr: 0x9528, symSize: 0x14 }
  - { offset: 0xA0B3F, size: 0x8, addend: 0x0, symName: __ZNSt3__120__shared_ptr_emplaceIN8facebook5react18jsinspector_modern20RAIIRemoteConnectionENS_9allocatorIS4_EEED1Ev, symObjAddr: 0x39EC, symBinAddr: 0x9528, symSize: 0x14 }
  - { offset: 0xA0B75, size: 0x8, addend: 0x0, symName: __ZNSt3__120__shared_ptr_emplaceIN8facebook5react18jsinspector_modern20RAIIRemoteConnectionENS_9allocatorIS4_EEED0Ev, symObjAddr: 0x3A00, symBinAddr: 0x953C, symSize: 0x24 }
  - { offset: 0xA0C41, size: 0x8, addend: 0x0, symName: __ZNSt3__120__shared_ptr_emplaceIN8facebook5react18jsinspector_modern20RAIIRemoteConnectionENS_9allocatorIS4_EEE16__on_zero_sharedEv, symObjAddr: 0x3A24, symBinAddr: 0x9560, symSize: 0x8 }
  - { offset: 0xA0C6A, size: 0x8, addend: 0x0, symName: __ZNSt3__120__shared_ptr_emplaceIN8facebook5react18jsinspector_modern20RAIIRemoteConnectionENS_9allocatorIS4_EEE16__on_zero_sharedEv, symObjAddr: 0x3A24, symBinAddr: 0x9560, symSize: 0x8 }
  - { offset: 0xA0C87, size: 0x8, addend: 0x0, symName: __ZNSt3__120__shared_ptr_emplaceIN8facebook5react18jsinspector_modern20RAIIRemoteConnectionENS_9allocatorIS4_EEE16__on_zero_sharedEv, symObjAddr: 0x3A24, symBinAddr: 0x9560, symSize: 0x8 }
  - { offset: 0xA0CCD, size: 0x8, addend: 0x0, symName: __ZNSt3__120__shared_ptr_emplaceIN8facebook5react18jsinspector_modern20RAIIRemoteConnectionENS_9allocatorIS4_EEE21__on_zero_shared_weakEv, symObjAddr: 0x3A2C, symBinAddr: 0x9568, symSize: 0x4 }
  - { offset: 0xA0CFF, size: 0x8, addend: 0x0, symName: __ZNSt3__120__shared_ptr_emplaceIN8facebook5react18jsinspector_modern20RAIIRemoteConnectionENS_9allocatorIS4_EEE21__on_zero_shared_weakEv, symObjAddr: 0x3A2C, symBinAddr: 0x9568, symSize: 0x4 }
  - { offset: 0xA0D20, size: 0x8, addend: 0x0, symName: __ZNSt3__120__shared_ptr_emplaceIN8facebook5react18jsinspector_modern20RAIIRemoteConnectionENS_9allocatorIS4_EEE21__on_zero_shared_weakEv, symObjAddr: 0x3A2C, symBinAddr: 0x9568, symSize: 0x4 }
  - { offset: 0xA0D42, size: 0x8, addend: 0x0, symName: __ZNSt3__120__shared_ptr_emplaceIN8facebook5react18jsinspector_modern20RAIIRemoteConnectionENS_9allocatorIS4_EEE21__on_zero_shared_weakEv, symObjAddr: 0x3A2C, symBinAddr: 0x9568, symSize: 0x4 }
  - { offset: 0xA0D75, size: 0x8, addend: 0x0, symName: __ZNSt3__120__shared_ptr_emplaceIN8facebook5react18jsinspector_modern20RAIIRemoteConnectionENS_9allocatorIS4_EEE21__on_zero_shared_weakEv, symObjAddr: 0x3A2C, symBinAddr: 0x9568, symSize: 0x4 }
  - { offset: 0xA0E5E, size: 0x8, addend: 0x0, symName: __ZNSt3__110__function6__funcIZN8facebook5react18jsinspector_modern17HostTargetSessionC1ENS_10unique_ptrINS4_17IRemoteConnectionENS_14default_deleteIS7_EEEERNS4_20HostTargetControllerENS4_18HostTargetMetadataENS_8functionIFvONSE_IFvvEEEEEEEUlNS_17basic_string_viewIcNS_11char_traitsIcEEEEE_NS_9allocatorISO_EEFvSN_EED1Ev, symObjAddr: 0x3AA8, symBinAddr: 0x95E4, symSize: 0x38 }
  - { offset: 0xA0F70, size: 0x8, addend: 0x0, symName: __ZNSt3__110__function6__funcIZN8facebook5react18jsinspector_modern17HostTargetSessionC1ENS_10unique_ptrINS4_17IRemoteConnectionENS_14default_deleteIS7_EEEERNS4_20HostTargetControllerENS4_18HostTargetMetadataENS_8functionIFvONSE_IFvvEEEEEEEUlNS_17basic_string_viewIcNS_11char_traitsIcEEEEE_NS_9allocatorISO_EEFvSN_EED0Ev, symObjAddr: 0x3AE0, symBinAddr: 0x961C, symSize: 0x38 }
  - { offset: 0xA120C, size: 0x8, addend: 0x0, symName: __ZNKSt3__110__function6__funcIZN8facebook5react18jsinspector_modern17HostTargetSessionC1ENS_10unique_ptrINS4_17IRemoteConnectionENS_14default_deleteIS7_EEEERNS4_20HostTargetControllerENS4_18HostTargetMetadataENS_8functionIFvONSE_IFvvEEEEEEEUlNS_17basic_string_viewIcNS_11char_traitsIcEEEEE_NS_9allocatorISO_EEFvSN_EE7__cloneEv, symObjAddr: 0x3B18, symBinAddr: 0x9654, symSize: 0x50 }
  - { offset: 0xA1492, size: 0x8, addend: 0x0, symName: __ZNKSt3__110__function6__funcIZN8facebook5react18jsinspector_modern17HostTargetSessionC1ENS_10unique_ptrINS4_17IRemoteConnectionENS_14default_deleteIS7_EEEERNS4_20HostTargetControllerENS4_18HostTargetMetadataENS_8functionIFvONSE_IFvvEEEEEEEUlNS_17basic_string_viewIcNS_11char_traitsIcEEEEE_NS_9allocatorISO_EEFvSN_EE7__cloneEPNS0_6__baseISR_EE, symObjAddr: 0x3B68, symBinAddr: 0x96A4, symSize: 0x30 }
  - { offset: 0xA14C8, size: 0x8, addend: 0x0, symName: __ZNKSt3__110__function6__funcIZN8facebook5react18jsinspector_modern17HostTargetSessionC1ENS_10unique_ptrINS4_17IRemoteConnectionENS_14default_deleteIS7_EEEERNS4_20HostTargetControllerENS4_18HostTargetMetadataENS_8functionIFvONSE_IFvvEEEEEEEUlNS_17basic_string_viewIcNS_11char_traitsIcEEEEE_NS_9allocatorISO_EEFvSN_EE7__cloneEPNS0_6__baseISR_EE, symObjAddr: 0x3B68, symBinAddr: 0x96A4, symSize: 0x30 }
  - { offset: 0xA14F6, size: 0x8, addend: 0x0, symName: __ZNKSt3__110__function6__funcIZN8facebook5react18jsinspector_modern17HostTargetSessionC1ENS_10unique_ptrINS4_17IRemoteConnectionENS_14default_deleteIS7_EEEERNS4_20HostTargetControllerENS4_18HostTargetMetadataENS_8functionIFvONSE_IFvvEEEEEEEUlNS_17basic_string_viewIcNS_11char_traitsIcEEEEE_NS_9allocatorISO_EEFvSN_EE7__cloneEPNS0_6__baseISR_EE, symObjAddr: 0x3B68, symBinAddr: 0x96A4, symSize: 0x30 }
  - { offset: 0xA15FD, size: 0x8, addend: 0x0, symName: __ZNSt3__110__function6__funcIZN8facebook5react18jsinspector_modern17HostTargetSessionC1ENS_10unique_ptrINS4_17IRemoteConnectionENS_14default_deleteIS7_EEEERNS4_20HostTargetControllerENS4_18HostTargetMetadataENS_8functionIFvONSE_IFvvEEEEEEEUlNS_17basic_string_viewIcNS_11char_traitsIcEEEEE_NS_9allocatorISO_EEFvSN_EE7destroyEv, symObjAddr: 0x3B98, symBinAddr: 0x96D4, symSize: 0x10 }
  - { offset: 0xA1626, size: 0x8, addend: 0x0, symName: __ZNSt3__110__function6__funcIZN8facebook5react18jsinspector_modern17HostTargetSessionC1ENS_10unique_ptrINS4_17IRemoteConnectionENS_14default_deleteIS7_EEEERNS4_20HostTargetControllerENS4_18HostTargetMetadataENS_8functionIFvONSE_IFvvEEEEEEEUlNS_17basic_string_viewIcNS_11char_traitsIcEEEEE_NS_9allocatorISO_EEFvSN_EE7destroyEv, symObjAddr: 0x3B98, symBinAddr: 0x96D4, symSize: 0x10 }
  - { offset: 0xA1644, size: 0x8, addend: 0x0, symName: __ZNSt3__110__function6__funcIZN8facebook5react18jsinspector_modern17HostTargetSessionC1ENS_10unique_ptrINS4_17IRemoteConnectionENS_14default_deleteIS7_EEEERNS4_20HostTargetControllerENS4_18HostTargetMetadataENS_8functionIFvONSE_IFvvEEEEEEEUlNS_17basic_string_viewIcNS_11char_traitsIcEEEEE_NS_9allocatorISO_EEFvSN_EE7destroyEv, symObjAddr: 0x3B98, symBinAddr: 0x96D4, symSize: 0x10 }
  - { offset: 0xA1661, size: 0x8, addend: 0x0, symName: __ZNSt3__110__function6__funcIZN8facebook5react18jsinspector_modern17HostTargetSessionC1ENS_10unique_ptrINS4_17IRemoteConnectionENS_14default_deleteIS7_EEEERNS4_20HostTargetControllerENS4_18HostTargetMetadataENS_8functionIFvONSE_IFvvEEEEEEEUlNS_17basic_string_viewIcNS_11char_traitsIcEEEEE_NS_9allocatorISO_EEFvSN_EE7destroyEv, symObjAddr: 0x3B98, symBinAddr: 0x96D4, symSize: 0x10 }
  - { offset: 0xA167E, size: 0x8, addend: 0x0, symName: __ZNSt3__110__function6__funcIZN8facebook5react18jsinspector_modern17HostTargetSessionC1ENS_10unique_ptrINS4_17IRemoteConnectionENS_14default_deleteIS7_EEEERNS4_20HostTargetControllerENS4_18HostTargetMetadataENS_8functionIFvONSE_IFvvEEEEEEEUlNS_17basic_string_viewIcNS_11char_traitsIcEEEEE_NS_9allocatorISO_EEFvSN_EE7destroyEv, symObjAddr: 0x3B98, symBinAddr: 0x96D4, symSize: 0x10 }
  - { offset: 0xA169B, size: 0x8, addend: 0x0, symName: __ZNSt3__110__function6__funcIZN8facebook5react18jsinspector_modern17HostTargetSessionC1ENS_10unique_ptrINS4_17IRemoteConnectionENS_14default_deleteIS7_EEEERNS4_20HostTargetControllerENS4_18HostTargetMetadataENS_8functionIFvONSE_IFvvEEEEEEEUlNS_17basic_string_viewIcNS_11char_traitsIcEEEEE_NS_9allocatorISO_EEFvSN_EE7destroyEv, symObjAddr: 0x3B98, symBinAddr: 0x96D4, symSize: 0x10 }
  - { offset: 0xA16ED, size: 0x8, addend: 0x0, symName: __ZNSt3__110__function6__funcIZN8facebook5react18jsinspector_modern17HostTargetSessionC1ENS_10unique_ptrINS4_17IRemoteConnectionENS_14default_deleteIS7_EEEERNS4_20HostTargetControllerENS4_18HostTargetMetadataENS_8functionIFvONSE_IFvvEEEEEEEUlNS_17basic_string_viewIcNS_11char_traitsIcEEEEE_NS_9allocatorISO_EEFvSN_EE18destroy_deallocateEv, symObjAddr: 0x3BA8, symBinAddr: 0x96E4, symSize: 0x2C }
  - { offset: 0xA1891, size: 0x8, addend: 0x0, symName: __ZNSt3__110__function6__funcIZN8facebook5react18jsinspector_modern17HostTargetSessionC1ENS_10unique_ptrINS4_17IRemoteConnectionENS_14default_deleteIS7_EEEERNS4_20HostTargetControllerENS4_18HostTargetMetadataENS_8functionIFvONSE_IFvvEEEEEEEUlNS_17basic_string_viewIcNS_11char_traitsIcEEEEE_NS_9allocatorISO_EEFvSN_EEclEOSN_, symObjAddr: 0x3BD4, symBinAddr: 0x9710, symSize: 0x10 }
  - { offset: 0xA1937, size: 0x8, addend: 0x0, symName: __ZZN8facebook5react18jsinspector_modern17HostTargetSessionC1ENSt3__110unique_ptrINS1_17IRemoteConnectionENS3_14default_deleteIS5_EEEERNS1_20HostTargetControllerENS1_18HostTargetMetadataENS3_8functionIFvONSC_IFvvEEEEEEENKUlNS3_17basic_string_viewIcNS3_11char_traitsIcEEEEE_clESL_, symObjAddr: 0x3C2C, symBinAddr: 0x9768, symSize: 0x148 }
  - { offset: 0xA1EEF, size: 0x8, addend: 0x0, symName: __ZNKSt3__110__function6__funcIZN8facebook5react18jsinspector_modern17HostTargetSessionC1ENS_10unique_ptrINS4_17IRemoteConnectionENS_14default_deleteIS7_EEEERNS4_20HostTargetControllerENS4_18HostTargetMetadataENS_8functionIFvONSE_IFvvEEEEEEEUlNS_17basic_string_viewIcNS_11char_traitsIcEEEEE_NS_9allocatorISO_EEFvSN_EE6targetERKSt9type_info, symObjAddr: 0x3BE4, symBinAddr: 0x9720, symSize: 0x3C }
  - { offset: 0xA1F3B, size: 0x8, addend: 0x0, symName: __ZNKSt3__110__function6__funcIZN8facebook5react18jsinspector_modern17HostTargetSessionC1ENS_10unique_ptrINS4_17IRemoteConnectionENS_14default_deleteIS7_EEEERNS4_20HostTargetControllerENS4_18HostTargetMetadataENS_8functionIFvONSE_IFvvEEEEEEEUlNS_17basic_string_viewIcNS_11char_traitsIcEEEEE_NS_9allocatorISO_EEFvSN_EE11target_typeEv, symObjAddr: 0x3C20, symBinAddr: 0x975C, symSize: 0xC }
  - { offset: 0xA2210, size: 0x8, addend: 0x0, symName: __ZNSt3__16vectorINS_12basic_stringIcNS_11char_traitsIcEENS_9allocatorIcEEEENS4_IS6_EEE16__destroy_vectorclB8ne200100Ev, symObjAddr: 0x3DEC, symBinAddr: 0x9928, symSize: 0x40 }
  - { offset: 0xA2320, size: 0x8, addend: 0x0, symName: __ZNSt3__16vectorINS_12basic_stringIcNS_11char_traitsIcEENS_9allocatorIcEEEENS4_IS6_EEE5clearB8ne200100Ev, symObjAddr: 0x3E2C, symBinAddr: 0x9968, symSize: 0x4C }
  - { offset: 0xA2630, size: 0x8, addend: 0x0, symName: __ZNSt3__112__hash_tableINS_17__hash_value_typeINS_12basic_stringIcNS_11char_traitsIcEENS_9allocatorIcEEEENS_13unordered_setIN8facebook5react18jsinspector_modern24ExecutionContextSelectorENS_4hashISC_EENS_8equal_toISC_EENS5_ISC_EEEEEENS_22__unordered_map_hasherIS7_SJ_NSD_IS7_EENSF_IS7_EELb1EEENS_21__unordered_map_equalIS7_SJ_SM_SL_Lb1EEENS5_ISJ_EEE17__deallocate_nodeEPNS_16__hash_node_baseIPNS_11__hash_nodeISJ_PvEEEE, symObjAddr: 0x3EB0, symBinAddr: 0x99EC, symSize: 0x3C }
  - { offset: 0xA2891, size: 0x8, addend: 0x0, symName: __ZNSt3__112__hash_tableIN8facebook5react18jsinspector_modern24ExecutionContextSelectorENS_4hashIS4_EENS_8equal_toIS4_EENS_9allocatorIS4_EEED2Ev, symObjAddr: 0x3F28, symBinAddr: 0x9A64, symSize: 0x38 }
  - { offset: 0xA2ADB, size: 0x8, addend: 0x0, symName: __ZNSt3__112__hash_tableIN8facebook5react18jsinspector_modern24ExecutionContextSelectorENS_4hashIS4_EENS_8equal_toIS4_EENS_9allocatorIS4_EEE17__deallocate_nodeEPNS_16__hash_node_baseIPNS_11__hash_nodeIS4_PvEEEE, symObjAddr: 0x3F60, symBinAddr: 0x9A9C, symSize: 0x3C }
  - { offset: 0xA3442, size: 0x8, addend: 0x0, symName: '__ZNSt3__110__function6__funcIZN8facebook5react18jsinspector_modern10HostTarget7connectENS_10unique_ptrINS4_17IRemoteConnectionENS_14default_deleteIS7_EEEEE3$_0NS_9allocatorISB_EEFvNS_12basic_stringIcNS_11char_traitsIcEENSC_IcEEEEEED1Ev', symObjAddr: 0x41B0, symBinAddr: 0x9BCC, symSize: 0x30 }
  - { offset: 0xA3538, size: 0x8, addend: 0x0, symName: '__ZNSt3__110__function6__funcIZN8facebook5react18jsinspector_modern10HostTarget7connectENS_10unique_ptrINS4_17IRemoteConnectionENS_14default_deleteIS7_EEEEE3$_0NS_9allocatorISB_EEFvNS_12basic_stringIcNS_11char_traitsIcEENSC_IcEEEEEED0Ev', symObjAddr: 0x41E0, symBinAddr: 0x9BFC, symSize: 0x30 }
  - { offset: 0xA376A, size: 0x8, addend: 0x0, symName: '__ZNKSt3__110__function6__funcIZN8facebook5react18jsinspector_modern10HostTarget7connectENS_10unique_ptrINS4_17IRemoteConnectionENS_14default_deleteIS7_EEEEE3$_0NS_9allocatorISB_EEFvNS_12basic_stringIcNS_11char_traitsIcEENSC_IcEEEEEE7__cloneEv', symObjAddr: 0x4210, symBinAddr: 0x9C2C, symSize: 0x50 }
  - { offset: 0xA3A0E, size: 0x8, addend: 0x0, symName: '__ZNKSt3__110__function6__funcIZN8facebook5react18jsinspector_modern10HostTarget7connectENS_10unique_ptrINS4_17IRemoteConnectionENS_14default_deleteIS7_EEEEE3$_0NS_9allocatorISB_EEFvNS_12basic_stringIcNS_11char_traitsIcEENSC_IcEEEEEE7__cloneEPNS0_6__baseISJ_EE', symObjAddr: 0x4260, symBinAddr: 0x9C7C, symSize: 0x30 }
  - { offset: 0xA3A44, size: 0x8, addend: 0x0, symName: '__ZNKSt3__110__function6__funcIZN8facebook5react18jsinspector_modern10HostTarget7connectENS_10unique_ptrINS4_17IRemoteConnectionENS_14default_deleteIS7_EEEEE3$_0NS_9allocatorISB_EEFvNS_12basic_stringIcNS_11char_traitsIcEENSC_IcEEEEEE7__cloneEPNS0_6__baseISJ_EE', symObjAddr: 0x4260, symBinAddr: 0x9C7C, symSize: 0x30 }
  - { offset: 0xA3A72, size: 0x8, addend: 0x0, symName: '__ZNKSt3__110__function6__funcIZN8facebook5react18jsinspector_modern10HostTarget7connectENS_10unique_ptrINS4_17IRemoteConnectionENS_14default_deleteIS7_EEEEE3$_0NS_9allocatorISB_EEFvNS_12basic_stringIcNS_11char_traitsIcEENSC_IcEEEEEE7__cloneEPNS0_6__baseISJ_EE', symObjAddr: 0x4260, symBinAddr: 0x9C7C, symSize: 0x30 }
  - { offset: 0xA3B97, size: 0x8, addend: 0x0, symName: '__ZNSt3__110__function6__funcIZN8facebook5react18jsinspector_modern10HostTarget7connectENS_10unique_ptrINS4_17IRemoteConnectionENS_14default_deleteIS7_EEEEE3$_0NS_9allocatorISB_EEFvNS_12basic_stringIcNS_11char_traitsIcEENSC_IcEEEEEE7destroyEv', symObjAddr: 0x4290, symBinAddr: 0x9CAC, symSize: 0x8 }
  - { offset: 0xA3C52, size: 0x8, addend: 0x0, symName: '__ZNSt3__110__function6__funcIZN8facebook5react18jsinspector_modern10HostTarget7connectENS_10unique_ptrINS4_17IRemoteConnectionENS_14default_deleteIS7_EEEEE3$_0NS_9allocatorISB_EEFvNS_12basic_stringIcNS_11char_traitsIcEENSC_IcEEEEEE18destroy_deallocateEv', symObjAddr: 0x4298, symBinAddr: 0x9CB4, symSize: 0x28 }
  - { offset: 0xA3E05, size: 0x8, addend: 0x0, symName: '__ZNSt3__110__function6__funcIZN8facebook5react18jsinspector_modern10HostTarget7connectENS_10unique_ptrINS4_17IRemoteConnectionENS_14default_deleteIS7_EEEEE3$_0NS_9allocatorISB_EEFvNS_12basic_stringIcNS_11char_traitsIcEENSC_IcEEEEEEclEOSI_', symObjAddr: 0x42C0, symBinAddr: 0x9CDC, symSize: 0xD8 }
  - { offset: 0xA42C6, size: 0x8, addend: 0x0, symName: __ZN8facebook5react18jsinspector_modern17HostTargetSessionclENSt3__112basic_stringIcNS3_11char_traitsIcEENS3_9allocatorIcEEEE, symObjAddr: 0x43E0, symBinAddr: 0x9DFC, symSize: 0x4EC }
  - { offset: 0xA6A19, size: 0x8, addend: 0x0, symName: '__ZNKSt3__110__function6__funcIZN8facebook5react18jsinspector_modern10HostTarget7connectENS_10unique_ptrINS4_17IRemoteConnectionENS_14default_deleteIS7_EEEEE3$_0NS_9allocatorISB_EEFvNS_12basic_stringIcNS_11char_traitsIcEENSC_IcEEEEEE6targetERKSt9type_info', symObjAddr: 0x4398, symBinAddr: 0x9DB4, symSize: 0x3C }
  - { offset: 0xA6A65, size: 0x8, addend: 0x0, symName: '__ZNKSt3__110__function6__funcIZN8facebook5react18jsinspector_modern10HostTarget7connectENS_10unique_ptrINS4_17IRemoteConnectionENS_14default_deleteIS7_EEEEE3$_0NS_9allocatorISB_EEFvNS_12basic_stringIcNS_11char_traitsIcEENSC_IcEEEEEE11target_typeEv', symObjAddr: 0x43D4, symBinAddr: 0x9DF0, symSize: 0xC }
  - { offset: 0xA7039, size: 0x8, addend: 0x0, symName: __ZNKSt3__18functionIFvNS_17basic_string_viewIcNS_11char_traitsIcEEEEEEclES4_, symObjAddr: 0x4904, symBinAddr: 0xA320, symSize: 0x38 }
  - { offset: 0xA70A8, size: 0x8, addend: 0x0, symName: __ZNSt3__14listINS_8weak_ptrIN8facebook5react18jsinspector_modern17HostTargetSessionEEENS_9allocatorIS6_EEE5eraseENS_21__list_const_iteratorIS6_PvEE, symObjAddr: 0x493C, symBinAddr: 0xA358, symSize: 0x4C }
  - { offset: 0xA70B3, size: 0x8, addend: 0x0, symName: __ZN8facebook5react18jsinspector_modern3cdp16PreparsedRequestD1Ev, symObjAddr: 0x48CC, symBinAddr: 0xA2E8, symSize: 0x38 }
  - { offset: 0xA7249, size: 0x8, addend: 0x0, symName: '__ZNSt3__110__function6__funcIZN8facebook5react18jsinspector_modern10HostTarget11sendCommandENS4_11HostCommandEE3$_0NS_9allocatorIS7_EEFvRS5_EED1Ev', symObjAddr: 0x4988, symBinAddr: 0xA3A4, symSize: 0x4 }
  - { offset: 0xA7275, size: 0x8, addend: 0x0, symName: '__ZNSt3__110__function6__funcIZN8facebook5react18jsinspector_modern10HostTarget11sendCommandENS4_11HostCommandEE3$_0NS_9allocatorIS7_EEFvRS5_EED0Ev', symObjAddr: 0x498C, symBinAddr: 0xA3A8, symSize: 0x4 }
  - { offset: 0xA738F, size: 0x8, addend: 0x0, symName: '__ZNKSt3__110__function6__funcIZN8facebook5react18jsinspector_modern10HostTarget11sendCommandENS4_11HostCommandEE3$_0NS_9allocatorIS7_EEFvRS5_EE7__cloneEv', symObjAddr: 0x4990, symBinAddr: 0xA3AC, symSize: 0x38 }
  - { offset: 0xA75A1, size: 0x8, addend: 0x0, symName: '__ZNKSt3__110__function6__funcIZN8facebook5react18jsinspector_modern10HostTarget11sendCommandENS4_11HostCommandEE3$_0NS_9allocatorIS7_EEFvRS5_EE7__cloneEPNS0_6__baseISB_EE', symObjAddr: 0x49C8, symBinAddr: 0xA3E4, symSize: 0x18 }
  - { offset: 0xA75D7, size: 0x8, addend: 0x0, symName: '__ZNKSt3__110__function6__funcIZN8facebook5react18jsinspector_modern10HostTarget11sendCommandENS4_11HostCommandEE3$_0NS_9allocatorIS7_EEFvRS5_EE7__cloneEPNS0_6__baseISB_EE', symObjAddr: 0x49C8, symBinAddr: 0xA3E4, symSize: 0x18 }
  - { offset: 0xA7605, size: 0x8, addend: 0x0, symName: '__ZNKSt3__110__function6__funcIZN8facebook5react18jsinspector_modern10HostTarget11sendCommandENS4_11HostCommandEE3$_0NS_9allocatorIS7_EEFvRS5_EE7__cloneEPNS0_6__baseISB_EE', symObjAddr: 0x49C8, symBinAddr: 0xA3E4, symSize: 0x18 }
  - { offset: 0xA7694, size: 0x8, addend: 0x0, symName: '__ZNSt3__110__function6__funcIZN8facebook5react18jsinspector_modern10HostTarget11sendCommandENS4_11HostCommandEE3$_0NS_9allocatorIS7_EEFvRS5_EE7destroyEv', symObjAddr: 0x49E0, symBinAddr: 0xA3FC, symSize: 0x4 }
  - { offset: 0xA76E8, size: 0x8, addend: 0x0, symName: '__ZNSt3__110__function6__funcIZN8facebook5react18jsinspector_modern10HostTarget11sendCommandENS4_11HostCommandEE3$_0NS_9allocatorIS7_EEFvRS5_EE18destroy_deallocateEv', symObjAddr: 0x49E4, symBinAddr: 0xA400, symSize: 0x4 }
  - { offset: 0xA771C, size: 0x8, addend: 0x0, symName: '__ZNSt3__110__function6__funcIZN8facebook5react18jsinspector_modern10HostTarget11sendCommandENS4_11HostCommandEE3$_0NS_9allocatorIS7_EEFvRS5_EE18destroy_deallocateEv', symObjAddr: 0x49E4, symBinAddr: 0xA400, symSize: 0x4 }
  - { offset: 0xA773E, size: 0x8, addend: 0x0, symName: '__ZNSt3__110__function6__funcIZN8facebook5react18jsinspector_modern10HostTarget11sendCommandENS4_11HostCommandEE3$_0NS_9allocatorIS7_EEFvRS5_EE18destroy_deallocateEv', symObjAddr: 0x49E4, symBinAddr: 0xA400, symSize: 0x4 }
  - { offset: 0xA7770, size: 0x8, addend: 0x0, symName: '__ZNSt3__110__function6__funcIZN8facebook5react18jsinspector_modern10HostTarget11sendCommandENS4_11HostCommandEE3$_0NS_9allocatorIS7_EEFvRS5_EE18destroy_deallocateEv', symObjAddr: 0x49E4, symBinAddr: 0xA400, symSize: 0x4 }
  - { offset: 0xA7892, size: 0x8, addend: 0x0, symName: '__ZNSt3__110__function6__funcIZN8facebook5react18jsinspector_modern10HostTarget11sendCommandENS4_11HostCommandEE3$_0NS_9allocatorIS7_EEFvRS5_EEclESA_', symObjAddr: 0x49E8, symBinAddr: 0xA404, symSize: 0x70 }
  - { offset: 0xA7A4A, size: 0x8, addend: 0x0, symName: __ZN8facebook5react18jsinspector_modern17HostCommandSenderC2ERNS1_10HostTargetE, symObjAddr: 0x4C18, symBinAddr: 0xA634, symSize: 0xA8 }
  - { offset: 0xA7C68, size: 0x8, addend: 0x0, symName: __ZN8facebook5react18jsinspector_modern17HostCommandSender11sendCommandENS1_11HostCommandE, symObjAddr: 0x4AA0, symBinAddr: 0xA4BC, symSize: 0x178 }
  - { offset: 0xA880B, size: 0x8, addend: 0x0, symName: '__ZNKSt3__110__function6__funcIZN8facebook5react18jsinspector_modern10HostTarget11sendCommandENS4_11HostCommandEE3$_0NS_9allocatorIS7_EEFvRS5_EE6targetERKSt9type_info', symObjAddr: 0x4A58, symBinAddr: 0xA474, symSize: 0x3C }
  - { offset: 0xA8857, size: 0x8, addend: 0x0, symName: '__ZNKSt3__110__function6__funcIZN8facebook5react18jsinspector_modern10HostTarget11sendCommandENS4_11HostCommandEE3$_0NS_9allocatorIS7_EEFvRS5_EE11target_typeEv', symObjAddr: 0x4A94, symBinAddr: 0xA4B0, symSize: 0xC }
  - { offset: 0xA8C2F, size: 0x8, addend: 0x0, symName: __ZN8facebook5react18jsinspector_modern20NullRemoteConnectionD1Ev, symObjAddr: 0x4CC0, symBinAddr: 0xA6DC, symSize: 0x4 }
  - { offset: 0xA8C51, size: 0x8, addend: 0x0, symName: __ZN8facebook5react18jsinspector_modern20NullRemoteConnectionD1Ev, symObjAddr: 0x4CC0, symBinAddr: 0xA6DC, symSize: 0x4 }
  - { offset: 0xA8C87, size: 0x8, addend: 0x0, symName: __ZN8facebook5react18jsinspector_modern20NullRemoteConnectionD0Ev, symObjAddr: 0x4CC4, symBinAddr: 0xA6E0, symSize: 0x14 }
  - { offset: 0xA8CEA, size: 0x8, addend: 0x0, symName: __ZN8facebook5react18jsinspector_modern20NullRemoteConnection9onMessageENSt3__112basic_stringIcNS3_11char_traitsIcEENS3_9allocatorIcEEEE, symObjAddr: 0x4CD8, symBinAddr: 0xA6F4, symSize: 0x4 }
  - { offset: 0xA8D1A, size: 0x8, addend: 0x0, symName: __ZN8facebook5react18jsinspector_modern20NullRemoteConnection12onDisconnectEv, symObjAddr: 0x4CDC, symBinAddr: 0xA6F8, symSize: 0x4 }
  - { offset: 0xAD4C6, size: 0x8, addend: 0x0, symName: __ZNSt3__124__put_character_sequenceB8ne200100IcNS_11char_traitsIcEEEERNS_13basic_ostreamIT_T0_EES7_PKS4_m, symObjAddr: 0x1B4, symBinAddr: 0xA8B0, symSize: 0x168 }
  - { offset: 0xAE83D, size: 0x8, addend: 0x0, symName: __ZNSt3__116__pad_and_outputB8ne200100IcNS_11char_traitsIcEEEENS_19ostreambuf_iteratorIT_T0_EES6_PKS4_S8_S8_RNS_8ios_baseES4_, symObjAddr: 0x31C, symBinAddr: 0xAA18, symSize: 0x13C }
  - { offset: 0xAFC21, size: 0x8, addend: 0x0, symName: __ZN8facebook5react18jsinspector_modern14InspectorFlags11getInstanceEv, symObjAddr: 0x0, symBinAddr: 0xA6FC, symSize: 0xC }
  - { offset: 0xAFC43, size: 0x8, addend: 0x0, symName: __ZZN8facebook5react18jsinspector_modern14InspectorFlags11getInstanceEvE8instance, symObjAddr: 0x1D4A9, symBinAddr: 0x3C0E0, symSize: 0x0 }
  - { offset: 0xAFEFC, size: 0x8, addend: 0x0, symName: __ZNK8facebook5react18jsinspector_modern14InspectorFlags17getFuseboxEnabledEv, symObjAddr: 0xC, symBinAddr: 0xA708, symSize: 0x2C }
  - { offset: 0xAFF32, size: 0x8, addend: 0x0, symName: __ZNK8facebook5react18jsinspector_modern14InspectorFlags27loadFlagsAndAssertUnchangedEv, symObjAddr: 0x38, symBinAddr: 0xA734, symSize: 0x134 }
  - { offset: 0xB015C, size: 0x8, addend: 0x0, symName: __ZNK8facebook5react18jsinspector_modern14InspectorFlags19getIsProfilingBuildEv, symObjAddr: 0x16C, symBinAddr: 0xA868, symSize: 0x18 }
  - { offset: 0xB019A, size: 0x8, addend: 0x0, symName: __ZNK8facebook5react18jsinspector_modern14InspectorFlags27getNetworkInspectionEnabledEv, symObjAddr: 0x184, symBinAddr: 0xA880, symSize: 0x18 }
  - { offset: 0xB01D8, size: 0x8, addend: 0x0, symName: __ZN8facebook5react18jsinspector_modern14InspectorFlags21dangerouslyResetFlagsEv, symObjAddr: 0x19C, symBinAddr: 0xA898, symSize: 0xC }
  - { offset: 0xB01FF, size: 0x8, addend: 0x0, symName: __ZN8facebook5react18jsinspector_modern14InspectorFlags32dangerouslyDisableFuseboxForTestEv, symObjAddr: 0x1A8, symBinAddr: 0xA8A4, symSize: 0xC }
  - { offset: 0xB05D9, size: 0x8, addend: 0x0, symName: __ZNSt3__112basic_stringIcNS_11char_traitsIcEENS_9allocatorIcEEEC2B8ne200100Emc, symObjAddr: 0x468, symBinAddr: 0xAB54, symSize: 0x9C }
  - { offset: 0xB2A5E, size: 0x8, addend: 0x0, symName: __ZN8facebook5react18jsinspector_modern20getInspectorInstanceEv, symObjAddr: 0x2B4, symBinAddr: 0xAE40, symSize: 0x30 }
  - { offset: 0xB2A88, size: 0x8, addend: 0x0, symName: __MergedGlobals, symObjAddr: 0x8BA18, symBinAddr: 0x3C0E8, symSize: 0x0 }
  - { offset: 0xB2E4E, size: 0x8, addend: 0x0, symName: __ZN8facebook5react18jsinspector_modern27targetCapabilitiesToDynamicERKNS1_27InspectorTargetCapabilitiesE, symObjAddr: 0x3C, symBinAddr: 0xAC2C, symSize: 0x214 }
  - { offset: 0xB37EA, size: 0x8, addend: 0x0, symName: __ZN8facebook5react18jsinspector_modern25makeTestInspectorInstanceEv, symObjAddr: 0x324, symBinAddr: 0xAEB0, symSize: 0x6C }
  - { offset: 0xBE48E, size: 0x8, addend: 0x0, symName: __ZNSt3__127__tree_balance_after_insertB8ne200100IPNS_16__tree_node_baseIPvEEEEvT_S5_, symObjAddr: 0x14D8, symBinAddr: 0xB860, symSize: 0x19C }
  - { offset: 0xBE90E, size: 0x8, addend: 0x0, symName: __ZNSt3__113__tree_removeB8ne200100IPNS_16__tree_node_baseIPvEEEEvT_S5_, symObjAddr: 0x17C8, symBinAddr: 0xBAD0, symSize: 0x380 }
  - { offset: 0xBEED5, size: 0x8, addend: 0x0, symName: __ZNSt3__112construct_atB8ne200100IN8facebook5react18jsinspector_modern24InspectorPageDescriptionEJS4_EPS4_EEPT_S7_DpOT0_, symObjAddr: 0x1D3C, symBinAddr: 0xBFEC, symSize: 0xB4 }
  - { offset: 0xBF18E, size: 0x8, addend: 0x0, symName: __ZNSt3__119__allocate_at_leastB8ne200100INS_9allocatorIN8facebook5react18jsinspector_modern24InspectorPageDescriptionEEEEENS_19__allocation_resultINS_16allocator_traitsIT_E7pointerEEERS9_m, symObjAddr: 0x1E04, symBinAddr: 0xC0A0, symSize: 0x34 }
  - { offset: 0xBF233, size: 0x8, addend: 0x0, symName: __ZNSt3__134__uninitialized_allocator_relocateB8ne200100INS_9allocatorIN8facebook5react18jsinspector_modern24InspectorPageDescriptionEEEPS5_EEvRT_T0_SA_SA_, symObjAddr: 0x1E38, symBinAddr: 0xC0D4, symSize: 0xA4 }
  - { offset: 0xBF246, size: 0x8, addend: 0x0, symName: __ZNSt3__134__uninitialized_allocator_relocateB8ne200100INS_9allocatorIN8facebook5react18jsinspector_modern24InspectorPageDescriptionEEEPS5_EEvRT_T0_SA_SA_, symObjAddr: 0x1E38, symBinAddr: 0xC0D4, symSize: 0xA4 }
  - { offset: 0xBF5CA, size: 0x8, addend: 0x0, symName: __ZNSt3__112construct_atB8ne200100IN8facebook5react18jsinspector_modern24InspectorPageDescriptionEJRKS4_EPS4_EEPT_S9_DpOT0_, symObjAddr: 0x1EDC, symBinAddr: 0xC178, symSize: 0xB4 }
  - { offset: 0xBF81E, size: 0x8, addend: 0x0, symName: __ZNSt3__112__destroy_atB8ne200100IN8facebook5react18jsinspector_modern24InspectorPageDescriptionELi0EEEvPT_, symObjAddr: 0x1F90, symBinAddr: 0xC22C, symSize: 0x44 }
  - { offset: 0xC35EB, size: 0x8, addend: 0x0, symName: __ZN8facebook5react18jsinspector_modern13IDestructibleD2Ev, symObjAddr: 0x0, symBinAddr: 0xABF0, symSize: 0x4 }
  - { offset: 0xC3616, size: 0x8, addend: 0x0, symName: __ZN8facebook5react18jsinspector_modern13IDestructibleD1Ev, symObjAddr: 0x4, symBinAddr: 0xABF4, symSize: 0x4 }
  - { offset: 0xC3641, size: 0x8, addend: 0x0, symName: __ZN8facebook5react18jsinspector_modern13IDestructibleD0Ev, symObjAddr: 0x8, symBinAddr: 0xABF8, symSize: 0x4 }
  - { offset: 0xC366C, size: 0x8, addend: 0x0, symName: __ZN8facebook5react18jsinspector_modern16ILocalConnectionD2Ev, symObjAddr: 0xC, symBinAddr: 0xABFC, symSize: 0x4 }
  - { offset: 0xC3697, size: 0x8, addend: 0x0, symName: __ZN8facebook5react18jsinspector_modern16ILocalConnectionD1Ev, symObjAddr: 0x10, symBinAddr: 0xAC00, symSize: 0x4 }
  - { offset: 0xC36C2, size: 0x8, addend: 0x0, symName: __ZN8facebook5react18jsinspector_modern16ILocalConnectionD0Ev, symObjAddr: 0x14, symBinAddr: 0xAC04, symSize: 0x4 }
  - { offset: 0xC36ED, size: 0x8, addend: 0x0, symName: __ZN8facebook5react18jsinspector_modern17IRemoteConnectionD2Ev, symObjAddr: 0x18, symBinAddr: 0xAC08, symSize: 0x4 }
  - { offset: 0xC3718, size: 0x8, addend: 0x0, symName: __ZN8facebook5react18jsinspector_modern17IRemoteConnectionD1Ev, symObjAddr: 0x1C, symBinAddr: 0xAC0C, symSize: 0x4 }
  - { offset: 0xC3743, size: 0x8, addend: 0x0, symName: __ZN8facebook5react18jsinspector_modern17IRemoteConnectionD0Ev, symObjAddr: 0x20, symBinAddr: 0xAC10, symSize: 0x4 }
  - { offset: 0xC376E, size: 0x8, addend: 0x0, symName: __ZN8facebook5react18jsinspector_modern10IInspectorD2Ev, symObjAddr: 0x24, symBinAddr: 0xAC14, symSize: 0x4 }
  - { offset: 0xC3799, size: 0x8, addend: 0x0, symName: __ZN8facebook5react18jsinspector_modern10IInspectorD1Ev, symObjAddr: 0x28, symBinAddr: 0xAC18, symSize: 0x4 }
  - { offset: 0xC37C4, size: 0x8, addend: 0x0, symName: __ZN8facebook5react18jsinspector_modern10IInspectorD0Ev, symObjAddr: 0x2C, symBinAddr: 0xAC1C, symSize: 0x4 }
  - { offset: 0xC37EF, size: 0x8, addend: 0x0, symName: __ZN8facebook5react18jsinspector_modern19IPageStatusListenerD2Ev, symObjAddr: 0x30, symBinAddr: 0xAC20, symSize: 0x4 }
  - { offset: 0xC381A, size: 0x8, addend: 0x0, symName: __ZN8facebook5react18jsinspector_modern19IPageStatusListenerD1Ev, symObjAddr: 0x34, symBinAddr: 0xAC24, symSize: 0x4 }
  - { offset: 0xC3845, size: 0x8, addend: 0x0, symName: __ZN8facebook5react18jsinspector_modern19IPageStatusListenerD0Ev, symObjAddr: 0x38, symBinAddr: 0xAC28, symSize: 0x4 }
  - { offset: 0xC3F32, size: 0x8, addend: 0x0, symName: __ZN8facebook5react18jsinspector_modern20getInspectorInstanceEv, symObjAddr: 0x2B4, symBinAddr: 0xAE40, symSize: 0x30 }
  - { offset: 0xC4601, size: 0x8, addend: 0x0, symName: __ZN8facebook5react18jsinspector_modern20getInspectorInstanceEv.cold.1, symObjAddr: 0x2308, symBinAddr: 0x2B9FC, symSize: 0xA0 }
  - { offset: 0xC4873, size: 0x8, addend: 0x0, symName: __ZN8facebook5react18jsinspector_modern12_GLOBAL__N_113InspectorImplD1Ev, symObjAddr: 0x2E4, symBinAddr: 0xAE70, symSize: 0x40 }
  - { offset: 0xC4AE1, size: 0x8, addend: 0x0, symName: __ZNSt3__16__treeINS_12__value_typeIiN8facebook5react18jsinspector_modern12_GLOBAL__N_113InspectorImpl4PageEEENS_19__map_value_compareIiS8_NS_4lessIiEELb1EEENS_9allocatorIS8_EEE7destroyEPNS_11__tree_nodeIS8_PvEE, symObjAddr: 0x22A0, symBinAddr: 0xC32C, symSize: 0x4C }
  - { offset: 0xC5E9F, size: 0x8, addend: 0x0, symName: __ZN8facebook5react18jsinspector_modern12_GLOBAL__N_113InspectorImplD0Ev, symObjAddr: 0xB94, symBinAddr: 0xAF1C, symSize: 0x40 }
  - { offset: 0xC6714, size: 0x8, addend: 0x0, symName: __ZN8facebook5react18jsinspector_modern12_GLOBAL__N_113InspectorImpl7addPageERKNSt3__112basic_stringIcNS4_11char_traitsIcEENS4_9allocatorIcEEEESC_NS4_8functionIFNS4_10unique_ptrINS1_16ILocalConnectionENS4_14default_deleteISF_EEEENSE_INS1_17IRemoteConnectionENSG_ISJ_EEEEEEENS1_27InspectorTargetCapabilitiesE, symObjAddr: 0xBD4, symBinAddr: 0xAF5C, symSize: 0x2E8 }
  - { offset: 0xC735C, size: 0x8, addend: 0x0, symName: __ZNSt3__110__function12__value_funcIFNS_10unique_ptrIN8facebook5react18jsinspector_modern16ILocalConnectionENS_14default_deleteIS6_EEEENS2_INS5_17IRemoteConnectionENS7_ISA_EEEEEEC2B8ne200100EOSE_, symObjAddr: 0x16E4, symBinAddr: 0xBA6C, symSize: 0x64 }
  - { offset: 0xC74CD, size: 0x8, addend: 0x0, symName: __ZNSt3__113__tree_removeB8ne200100IPNS_16__tree_node_baseIPvEEEEvT_S5_, symObjAddr: 0x17C8, symBinAddr: 0xBAD0, symSize: 0x380 }
  - { offset: 0xC74D8, size: 0x8, addend: 0x0, symName: __ZN8facebook5react18jsinspector_modern12_GLOBAL__N_113InspectorImpl4PageD1Ev, symObjAddr: 0x146C, symBinAddr: 0xB7F4, symSize: 0x6C }
  - { offset: 0xC7ADA, size: 0x8, addend: 0x0, symName: __ZN8facebook5react18jsinspector_modern12_GLOBAL__N_113InspectorImpl10removePageEi, symObjAddr: 0xEBC, symBinAddr: 0xB244, symSize: 0x1C0 }
  - { offset: 0xC80B7, size: 0x8, addend: 0x0, symName: __ZNSt3__116allocator_traitsINS_9allocatorINS_11__tree_nodeINS_12__value_typeIiN8facebook5react18jsinspector_modern12_GLOBAL__N_113InspectorImpl4PageEEEPvEEEEE7destroyB8ne200100INS_4pairIKiS9_EEvLi0EEEvRSD_PT_, symObjAddr: 0x1674, symBinAddr: 0xB9FC, symSize: 0x70 }
  - { offset: 0xC85E7, size: 0x8, addend: 0x0, symName: __ZNK8facebook5react18jsinspector_modern12_GLOBAL__N_113InspectorImpl8getPagesEv, symObjAddr: 0x107C, symBinAddr: 0xB404, symSize: 0x178 }
  - { offset: 0xC8CDC, size: 0x8, addend: 0x0, symName: __ZNSt3__16vectorIN8facebook5react18jsinspector_modern24InspectorPageDescriptionENS_9allocatorIS4_EEE9push_backB8ne200100EOS4_, symObjAddr: 0x1BA0, symBinAddr: 0xBE50, symSize: 0x50 }
  - { offset: 0xC8E36, size: 0x8, addend: 0x0, symName: __ZN8facebook5react18jsinspector_modern24InspectorPageDescriptionD1Ev, symObjAddr: 0x1BF0, symBinAddr: 0xBEA0, symSize: 0x40 }
  - { offset: 0xC907E, size: 0x8, addend: 0x0, symName: __ZNSt3__16vectorIN8facebook5react18jsinspector_modern24InspectorPageDescriptionENS_9allocatorIS4_EEE16__destroy_vectorclB8ne200100Ev, symObjAddr: 0x2020, symBinAddr: 0xC2BC, symSize: 0x70 }
  - { offset: 0xC94D3, size: 0x8, addend: 0x0, symName: __ZN8facebook5react18jsinspector_modern12_GLOBAL__N_113InspectorImpl7connectEiNSt3__110unique_ptrINS1_17IRemoteConnectionENS4_14default_deleteIS6_EEEE, symObjAddr: 0x11F4, symBinAddr: 0xB57C, symSize: 0x1E4 }
  - { offset: 0xC9D58, size: 0x8, addend: 0x0, symName: __ZN8facebook5react18jsinspector_modern12_GLOBAL__N_113InspectorImpl26registerPageStatusListenerENSt3__18weak_ptrINS1_19IPageStatusListenerEEE, symObjAddr: 0x13D8, symBinAddr: 0xB760, symSize: 0x94 }
  - { offset: 0xCA342, size: 0x8, addend: 0x0, symName: __ZNSt3__16vectorIN8facebook5react18jsinspector_modern24InspectorPageDescriptionENS_9allocatorIS4_EEE24__emplace_back_slow_pathIJS4_EEEPS4_DpOT_, symObjAddr: 0x1C30, symBinAddr: 0xBEE0, symSize: 0x10C }
  - { offset: 0xCA751, size: 0x8, addend: 0x0, symName: __ZNSt3__114__split_bufferIN8facebook5react18jsinspector_modern24InspectorPageDescriptionERNS_9allocatorIS4_EEED2Ev, symObjAddr: 0x1FD4, symBinAddr: 0xC270, symSize: 0x4C }
  - { offset: 0xCA88A, size: 0x8, addend: 0x0, symName: __ZNSt3__119__allocate_at_leastB8ne200100INS_9allocatorIN8facebook5react18jsinspector_modern24InspectorPageDescriptionEEEEENS_19__allocation_resultINS_16allocator_traitsIT_E7pointerEEERS9_m, symObjAddr: 0x1E04, symBinAddr: 0xC0A0, symSize: 0x34 }
  - { offset: 0xDADDD, size: 0x8, addend: 0x0, symName: __ZNSt3__119__allocate_at_leastB8ne200100INS_9allocatorIN5folly7dynamicEEEEENS_19__allocation_resultINS_16allocator_traitsIT_E7pointerEEERS7_m, symObjAddr: 0x3D04, symBinAddr: 0xF824, symSize: 0x44 }
  - { offset: 0xDAE82, size: 0x8, addend: 0x0, symName: __ZNSt3__134__uninitialized_allocator_relocateB8ne200100INS_9allocatorIN5folly7dynamicEEEPS3_EEvRT_T0_S8_S8_, symObjAddr: 0x3D48, symBinAddr: 0xF868, symSize: 0x68 }
  - { offset: 0xDAE95, size: 0x8, addend: 0x0, symName: __ZNSt3__134__uninitialized_allocator_relocateB8ne200100INS_9allocatorIN5folly7dynamicEEEPS3_EEvRT_T0_S8_S8_, symObjAddr: 0x3D48, symBinAddr: 0xF868, symSize: 0x68 }
  - { offset: 0xDAEEF, size: 0x8, addend: 0x0, symName: __ZNSt3__134__uninitialized_allocator_relocateB8ne200100INS_9allocatorIN5folly7dynamicEEEPS3_EEvRT_T0_S8_S8_, symObjAddr: 0x3D48, symBinAddr: 0xF868, symSize: 0x68 }
  - { offset: 0xDB537, size: 0x8, addend: 0x0, symName: __ZNSt3__112__destroy_atB8ne200100INS_4pairIKNS_12basic_stringIcNS_11char_traitsIcEENS_9allocatorIcEEEEN8facebook5react18jsinspector_modern27InspectorPackagerConnection4Impl7SessionEEELi0EEEvPT_, symObjAddr: 0x407C, symBinAddr: 0xFA44, symSize: 0x4C }
  - { offset: 0xE200A, size: 0x8, addend: 0x0, symName: __ZN8facebook5react18jsinspector_modern27InspectorPackagerConnection4Impl9reconnectEv, symObjAddr: 0x1EA4, symBinAddr: 0xE1A8, symSize: 0x1C4 }
  - { offset: 0xE2521, size: 0x8, addend: 0x0, symName: __ZN8facebook5react18jsinspector_modern27InspectorPackagerConnection4Impl22scheduleSendToPackagerEN5folly7dynamicEjNSt3__112basic_stringIcNS6_11char_traitsIcEENS6_9allocatorIcEEEE, symObjAddr: 0x24DC, symBinAddr: 0xE7E0, symSize: 0x1D8 }
  - { offset: 0xE31EF, size: 0x8, addend: 0x0, symName: __ZN8facebook5react18jsinspector_modern27InspectorPackagerConnection4Impl6createENSt3__112basic_stringIcNS4_11char_traitsIcEENS4_9allocatorIcEEEESA_SA_NS4_10unique_ptrINS1_35InspectorPackagerConnectionDelegateENS4_14default_deleteISC_EEEE, symObjAddr: 0x0, symBinAddr: 0xC378, symSize: 0x274 }
  - { offset: 0xE3F94, size: 0x8, addend: 0x0, symName: __ZNSt3__110shared_ptrIN8facebook5react18jsinspector_modern27InspectorPackagerConnection4ImplEEC2B8ne200100IS5_Li0EEEPT_, symObjAddr: 0x4408, symBinAddr: 0xFA90, symSize: 0x80 }
  - { offset: 0xE4191, size: 0x8, addend: 0x0, symName: __ZN8facebook5react18jsinspector_modern27InspectorPackagerConnection4ImplC1ENSt3__112basic_stringIcNS4_11char_traitsIcEENS4_9allocatorIcEEEESA_SA_NS4_10unique_ptrINS1_35InspectorPackagerConnectionDelegateENS4_14default_deleteISC_EEEE, symObjAddr: 0x274, symBinAddr: 0xC5EC, symSize: 0x88 }
  - { offset: 0xE41D3, size: 0x8, addend: 0x0, symName: __ZN8facebook5react18jsinspector_modern27InspectorPackagerConnection4ImplC1ENSt3__112basic_stringIcNS4_11char_traitsIcEENS4_9allocatorIcEEEESA_SA_NS4_10unique_ptrINS1_35InspectorPackagerConnectionDelegateENS4_14default_deleteISC_EEEE, symObjAddr: 0x274, symBinAddr: 0xC5EC, symSize: 0x88 }
  - { offset: 0xE420E, size: 0x8, addend: 0x0, symName: __ZN8facebook5react18jsinspector_modern27InspectorPackagerConnection4ImplC1ENSt3__112basic_stringIcNS4_11char_traitsIcEENS4_9allocatorIcEEEESA_SA_NS4_10unique_ptrINS1_35InspectorPackagerConnectionDelegateENS4_14default_deleteISC_EEEE, symObjAddr: 0x274, symBinAddr: 0xC5EC, symSize: 0x88 }
  - { offset: 0xE422B, size: 0x8, addend: 0x0, symName: __ZN8facebook5react18jsinspector_modern27InspectorPackagerConnection4ImplC1ENSt3__112basic_stringIcNS4_11char_traitsIcEENS4_9allocatorIcEEEESA_SA_NS4_10unique_ptrINS1_35InspectorPackagerConnectionDelegateENS4_14default_deleteISC_EEEE, symObjAddr: 0x274, symBinAddr: 0xC5EC, symSize: 0x88 }
  - { offset: 0xE4249, size: 0x8, addend: 0x0, symName: __ZN8facebook5react18jsinspector_modern27InspectorPackagerConnection4ImplC1ENSt3__112basic_stringIcNS4_11char_traitsIcEENS4_9allocatorIcEEEESA_SA_NS4_10unique_ptrINS1_35InspectorPackagerConnectionDelegateENS4_14default_deleteISC_EEEE, symObjAddr: 0x274, symBinAddr: 0xC5EC, symSize: 0x88 }
  - { offset: 0xE447F, size: 0x8, addend: 0x0, symName: __ZN8facebook5react18jsinspector_modern27InspectorPackagerConnection4ImplC2ENSt3__112basic_stringIcNS4_11char_traitsIcEENS4_9allocatorIcEEEESA_SA_NS4_10unique_ptrINS1_35InspectorPackagerConnectionDelegateENS4_14default_deleteISC_EEEE, symObjAddr: 0x2FC, symBinAddr: 0xC674, symSize: 0x88 }
  - { offset: 0xE44C1, size: 0x8, addend: 0x0, symName: __ZN8facebook5react18jsinspector_modern27InspectorPackagerConnection4ImplC2ENSt3__112basic_stringIcNS4_11char_traitsIcEENS4_9allocatorIcEEEESA_SA_NS4_10unique_ptrINS1_35InspectorPackagerConnectionDelegateENS4_14default_deleteISC_EEEE, symObjAddr: 0x2FC, symBinAddr: 0xC674, symSize: 0x88 }
  - { offset: 0xE44DE, size: 0x8, addend: 0x0, symName: __ZN8facebook5react18jsinspector_modern27InspectorPackagerConnection4ImplC2ENSt3__112basic_stringIcNS4_11char_traitsIcEENS4_9allocatorIcEEEESA_SA_NS4_10unique_ptrINS1_35InspectorPackagerConnectionDelegateENS4_14default_deleteISC_EEEE, symObjAddr: 0x2FC, symBinAddr: 0xC674, symSize: 0x88 }
  - { offset: 0xE44FC, size: 0x8, addend: 0x0, symName: __ZN8facebook5react18jsinspector_modern27InspectorPackagerConnection4ImplC2ENSt3__112basic_stringIcNS4_11char_traitsIcEENS4_9allocatorIcEEEESA_SA_NS4_10unique_ptrINS1_35InspectorPackagerConnectionDelegateENS4_14default_deleteISC_EEEE, symObjAddr: 0x2FC, symBinAddr: 0xC674, symSize: 0x88 }
  - { offset: 0xE4E55, size: 0x8, addend: 0x0, symName: __ZN8facebook5react18jsinspector_modern27InspectorPackagerConnection4Impl18handleProxyMessageEN5folly18const_dynamic_viewE, symObjAddr: 0x384, symBinAddr: 0xC6FC, symSize: 0x5C8 }
  - { offset: 0xE632A, size: 0x8, addend: 0x0, symName: __ZN5folly3f146detail11F14BasicMapINS_7dynamicES3_NS_6detail13DynamicHasherENS4_15DynamicKeyEqualENSt3__19allocatorINS7_4pairIKS3_S3_EEEEE9findLocalIKSD_NS_5RangeIPKcEEEENS_8OptionalIDTcldtfp_5beginLi0EEEEERT_RKT0_, symObjAddr: 0x4648, symBinAddr: 0xFB7C, symSize: 0xE4 }
  - { offset: 0xE67C5, size: 0x8, addend: 0x0, symName: __ZN8facebook5react18jsinspector_modern27InspectorPackagerConnection4ImplD2Ev, symObjAddr: 0x3F54, symBinAddr: 0xF91C, symSize: 0xB4 }
  - { offset: 0xE690C, size: 0x8, addend: 0x0, symName: __ZN8facebook5react18jsinspector_modern27InspectorPackagerConnection4Impl5pagesEv, symObjAddr: 0xA3C, symBinAddr: 0xCD50, symSize: 0x55C }
  - { offset: 0xE84DA, size: 0x8, addend: 0x0, symName: __ZN8facebook5react18jsinspector_modern27InspectorPackagerConnection4Impl5pagesEv, symObjAddr: 0xA3C, symBinAddr: 0xCD50, symSize: 0x55C }
  - { offset: 0xE85AD, size: 0x8, addend: 0x0, symName: __ZN8facebook5react18jsinspector_modern27InspectorPackagerConnection4Impl14sendToPackagerEN5folly7dynamicE, symObjAddr: 0x94C, symBinAddr: 0xCCC4, symSize: 0x8C }
  - { offset: 0xE88B6, size: 0x8, addend: 0x0, symName: __ZN8facebook5react18jsinspector_modern27InspectorPackagerConnection4Impl18handleWrappedEventEN5folly18const_dynamic_viewE, symObjAddr: 0xF98, symBinAddr: 0xD2AC, symSize: 0x2CC }
  - { offset: 0xE9645, size: 0x8, addend: 0x0, symName: __ZN8facebook5react18jsinspector_modern27InspectorPackagerConnection4Impl13handleConnectEN5folly18const_dynamic_viewE, symObjAddr: 0x1264, symBinAddr: 0xD578, symSize: 0x7D4 }
  - { offset: 0xEB842, size: 0x8, addend: 0x0, symName: __ZN8facebook5react18jsinspector_modern27InspectorPackagerConnection4Impl16handleDisconnectEN5folly18const_dynamic_viewE, symObjAddr: 0x1A38, symBinAddr: 0xDD4C, symSize: 0x18C }
  - { offset: 0xECBA0, size: 0x8, addend: 0x0, symName: __ZNSt3__16vectorIN5folly7dynamicENS_9allocatorIS2_EEE16__destroy_vectorclB8ne200100Ev, symObjAddr: 0x55A8, symBinAddr: 0x10840, symSize: 0x70 }
  - { offset: 0xECD1E, size: 0x8, addend: 0x0, symName: __ZNSt3__112basic_stringIcNS_11char_traitsIcEENS_9allocatorIcEEEC2B8ne200100ENS_24__uninitialized_size_tagEmRKS4_, symObjAddr: 0x3AFC, symBinAddr: 0xF630, symSize: 0x78 }
  - { offset: 0xECEB9, size: 0x8, addend: 0x0, symName: __ZNSt3__16vectorIN5folly7dynamicENS_9allocatorIS2_EEE9push_backB8ne200100ERKS2_, symObjAddr: 0x3B74, symBinAddr: 0xF6A8, symSize: 0x50 }
  - { offset: 0xECEC9, size: 0x8, addend: 0x0, symName: __ZNSt3__16vectorIN5folly7dynamicENS_9allocatorIS2_EEE9push_backB8ne200100ERKS2_, symObjAddr: 0x3B74, symBinAddr: 0xF6A8, symSize: 0x50 }
  - { offset: 0xED218, size: 0x8, addend: 0x0, symName: __ZNSt3__112__hash_tableINS_17__hash_value_typeINS_12basic_stringIcNS_11char_traitsIcEENS_9allocatorIcEEEEN8facebook5react18jsinspector_modern27InspectorPackagerConnection4Impl7SessionEEENS_22__unordered_map_hasherIS7_SE_NS_4hashIS7_EENS_8equal_toIS7_EELb1EEENS_21__unordered_map_equalIS7_SE_SJ_SH_Lb1EEENS5_ISE_EEE4findIS7_EENS_15__hash_iteratorIPNS_11__hash_nodeISE_PvEEEERKT_, symObjAddr: 0x4858, symBinAddr: 0xFD1C, symSize: 0xF8 }
  - { offset: 0xED9C5, size: 0x8, addend: 0x0, symName: __ZNSt3__112__hash_tableINS_17__hash_value_typeINS_12basic_stringIcNS_11char_traitsIcEENS_9allocatorIcEEEEN8facebook5react18jsinspector_modern27InspectorPackagerConnection4Impl7SessionEEENS_22__unordered_map_hasherIS7_SE_NS_4hashIS7_EENS_8equal_toIS7_EELb1EEENS_21__unordered_map_equalIS7_SE_SJ_SH_Lb1EEENS5_ISE_EEE5eraseENS_21__hash_const_iteratorIPNS_11__hash_nodeISE_PvEEEE, symObjAddr: 0x4E68, symBinAddr: 0x1032C, symSize: 0x58 }
  - { offset: 0xEDBCC, size: 0x8, addend: 0x0, symName: __ZNSt3__112__hash_tableINS_17__hash_value_typeINS_12basic_stringIcNS_11char_traitsIcEENS_9allocatorIcEEEEN8facebook5react18jsinspector_modern27InspectorPackagerConnection4Impl7SessionEEENS_22__unordered_map_hasherIS7_SE_NS_4hashIS7_EENS_8equal_toIS7_EELb1EEENS_21__unordered_map_equalIS7_SE_SJ_SH_Lb1EEENS5_ISE_EEE25__emplace_unique_key_argsIS7_JRS7_SD_EEENS_4pairINS_15__hash_iteratorIPNS_11__hash_nodeISE_PvEEEEbEERKT_DpOT0_, symObjAddr: 0x5044, symBinAddr: 0x10508, symSize: 0x258 }
  - { offset: 0xEE06D, size: 0x8, addend: 0x0, symName: __ZN8facebook5react18jsinspector_modern27InspectorPackagerConnection4Impl23removeConnectionForPageENSt3__112basic_stringIcNS4_11char_traitsIcEENS4_9allocatorIcEEEE, symObjAddr: 0x1CBC, symBinAddr: 0xDFC0, symSize: 0x54 }
  - { offset: 0xEE1CF, size: 0x8, addend: 0x0, symName: __ZN8facebook5react18jsinspector_modern27InspectorPackagerConnection4Impl25sendEventToAllConnectionsENSt3__112basic_stringIcNS4_11char_traitsIcEENS4_9allocatorIcEEEE, symObjAddr: 0x1BC4, symBinAddr: 0xDED8, symSize: 0xA8 }
  - { offset: 0xEE523, size: 0x8, addend: 0x0, symName: __ZN8facebook5react18jsinspector_modern27InspectorPackagerConnection4Impl19closeAllConnectionsEv, symObjAddr: 0x1C6C, symBinAddr: 0xDF80, symSize: 0x40 }
  - { offset: 0xEE5EC, size: 0x8, addend: 0x0, symName: __ZNSt3__112__hash_tableINS_17__hash_value_typeINS_12basic_stringIcNS_11char_traitsIcEENS_9allocatorIcEEEEN8facebook5react18jsinspector_modern27InspectorPackagerConnection4Impl7SessionEEENS_22__unordered_map_hasherIS7_SE_NS_4hashIS7_EENS_8equal_toIS7_EELb1EEENS_21__unordered_map_equalIS7_SE_SJ_SH_Lb1EEENS5_ISE_EEE5clearEv, symObjAddr: 0x4804, symBinAddr: 0xFCC8, symSize: 0x54 }
  - { offset: 0xEE6BE, size: 0x8, addend: 0x0, symName: __ZN8facebook5react18jsinspector_modern27InspectorPackagerConnection4Impl16didFailWithErrorENSt3__18optionalIiEENS4_12basic_stringIcNS4_11char_traitsIcEENS4_9allocatorIcEEEE, symObjAddr: 0x1D10, symBinAddr: 0xE014, symSize: 0x9C }
  - { offset: 0xEE9A3, size: 0x8, addend: 0x0, symName: __ZN8facebook5react18jsinspector_modern27InspectorPackagerConnection4Impl5abortENSt3__18optionalIiEERKNS4_12basic_stringIcNS4_11char_traitsIcEENS4_9allocatorIcEEEESE_, symObjAddr: 0x1DAC, symBinAddr: 0xE0B0, symSize: 0xF8 }
  - { offset: 0xEF073, size: 0x8, addend: 0x0, symName: __ZN8facebook5react18jsinspector_modern27InspectorPackagerConnection4Impl17didReceiveMessageENSt3__117basic_string_viewIcNS4_11char_traitsIcEEEE, symObjAddr: 0x2068, symBinAddr: 0xE36C, symSize: 0x15C }
  - { offset: 0xEF32B, size: 0x8, addend: 0x0, symName: __ZN8facebook5react18jsinspector_modern27InspectorPackagerConnection4Impl7didOpenEv, symObjAddr: 0x21C4, symBinAddr: 0xE4C8, symSize: 0xC }
  - { offset: 0xEF352, size: 0x8, addend: 0x0, symName: __ZN8facebook5react18jsinspector_modern27InspectorPackagerConnection4Impl8didCloseEv, symObjAddr: 0x21D0, symBinAddr: 0xE4D4, symSize: 0x58 }
  - { offset: 0xEF3FE, size: 0x8, addend: 0x0, symName: __ZN8facebook5react18jsinspector_modern27InspectorPackagerConnection4Impl13onPageRemovedEi, symObjAddr: 0x2228, symBinAddr: 0xE52C, symSize: 0xB0 }
  - { offset: 0xEF7E5, size: 0x8, addend: 0x0, symName: __ZThn8_N8facebook5react18jsinspector_modern27InspectorPackagerConnection4Impl13onPageRemovedEi, symObjAddr: 0x22D8, symBinAddr: 0xE5DC, symSize: 0x8 }
  - { offset: 0xEF812, size: 0x8, addend: 0x0, symName: __ZNK8facebook5react18jsinspector_modern27InspectorPackagerConnection4Impl11isConnectedEv, symObjAddr: 0x22E0, symBinAddr: 0xE5E4, symSize: 0x14 }
  - { offset: 0xEF836, size: 0x8, addend: 0x0, symName: __ZNK8facebook5react18jsinspector_modern27InspectorPackagerConnection4Impl11isConnectedEv, symObjAddr: 0x22E0, symBinAddr: 0xE5E4, symSize: 0x14 }
  - { offset: 0xEF85A, size: 0x8, addend: 0x0, symName: __ZNK8facebook5react18jsinspector_modern27InspectorPackagerConnection4Impl11isConnectedEv, symObjAddr: 0x22E0, symBinAddr: 0xE5E4, symSize: 0x14 }
  - { offset: 0xEFAF6, size: 0x8, addend: 0x0, symName: __ZN8facebook5react18jsinspector_modern27InspectorPackagerConnection4Impl7connectEv, symObjAddr: 0x22F4, symBinAddr: 0xE5F8, symSize: 0x1A0 }
  - { offset: 0xEFFB3, size: 0x8, addend: 0x0, symName: __ZN8facebook5react18jsinspector_modern27InspectorPackagerConnection4Impl12closeQuietlyEv, symObjAddr: 0x2494, symBinAddr: 0xE798, symSize: 0x28 }
  - { offset: 0xF004B, size: 0x8, addend: 0x0, symName: __ZN8facebook5react18jsinspector_modern27InspectorPackagerConnection4Impl16disposeWebSocketEv, symObjAddr: 0x24BC, symBinAddr: 0xE7C0, symSize: 0x20 }
  - { offset: 0xF03CA, size: 0x8, addend: 0x0, symName: '__ZZN8facebook5react18jsinspector_modern27InspectorPackagerConnection4Impl22scheduleSendToPackagerEN5folly7dynamicEjNSt3__112basic_stringIcNS6_11char_traitsIcEENS6_9allocatorIcEEEEEN3$_0D1Ev', symObjAddr: 0x26B4, symBinAddr: 0xE9B8, symSize: 0x44 }
  - { offset: 0xF057B, size: 0x8, addend: 0x0, symName: __ZN8facebook5react18jsinspector_modern27InspectorPackagerConnection4Impl16RemoteConnectionC2ENSt3__18weak_ptrIS3_EENS5_12basic_stringIcNS5_11char_traitsIcEENS5_9allocatorIcEEEEj, symObjAddr: 0x26F8, symBinAddr: 0xE9FC, symSize: 0x4C }
  - { offset: 0xF0669, size: 0x8, addend: 0x0, symName: __ZN8facebook5react18jsinspector_modern27InspectorPackagerConnection4Impl16RemoteConnectionC1ENSt3__18weak_ptrIS3_EENS5_12basic_stringIcNS5_11char_traitsIcEENS5_9allocatorIcEEEEj, symObjAddr: 0x2744, symBinAddr: 0xEA48, symSize: 0x4C }
  - { offset: 0xF06A2, size: 0x8, addend: 0x0, symName: __ZN8facebook5react18jsinspector_modern27InspectorPackagerConnection4Impl16RemoteConnectionC1ENSt3__18weak_ptrIS3_EENS5_12basic_stringIcNS5_11char_traitsIcEENS5_9allocatorIcEEEEj, symObjAddr: 0x2744, symBinAddr: 0xEA48, symSize: 0x4C }
  - { offset: 0xF078B, size: 0x8, addend: 0x0, symName: __ZN8facebook5react18jsinspector_modern27InspectorPackagerConnection4Impl16RemoteConnection9onMessageENSt3__112basic_stringIcNS5_11char_traitsIcEENS5_9allocatorIcEEEE, symObjAddr: 0x2790, symBinAddr: 0xEA94, symSize: 0x47C }
  - { offset: 0xF1FA9, size: 0x8, addend: 0x0, symName: __ZN8facebook5react18jsinspector_modern27InspectorPackagerConnection4Impl16RemoteConnection12onDisconnectEv, symObjAddr: 0x2C0C, symBinAddr: 0xEF10, symSize: 0x3F8 }
  - { offset: 0xF3378, size: 0x8, addend: 0x0, symName: __ZN8facebook5react18jsinspector_modern27InspectorPackagerConnectionC2ENSt3__112basic_stringIcNS3_11char_traitsIcEENS3_9allocatorIcEEEES9_S9_NS3_10unique_ptrINS1_35InspectorPackagerConnectionDelegateENS3_14default_deleteISB_EEEE, symObjAddr: 0x3004, symBinAddr: 0xF308, symSize: 0x180 }
  - { offset: 0xF3DB4, size: 0x8, addend: 0x0, symName: __ZN8facebook5react18jsinspector_modern27InspectorPackagerConnectionC1ENSt3__112basic_stringIcNS3_11char_traitsIcEENS3_9allocatorIcEEEES9_S9_NS3_10unique_ptrINS1_35InspectorPackagerConnectionDelegateENS3_14default_deleteISB_EEEE, symObjAddr: 0x3184, symBinAddr: 0xF488, symSize: 0x4 }
  - { offset: 0xF3E23, size: 0x8, addend: 0x0, symName: __ZN8facebook5react18jsinspector_modern27InspectorPackagerConnectionC1ENSt3__112basic_stringIcNS3_11char_traitsIcEENS3_9allocatorIcEEEES9_S9_NS3_10unique_ptrINS1_35InspectorPackagerConnectionDelegateENS3_14default_deleteISB_EEEE, symObjAddr: 0x3184, symBinAddr: 0xF488, symSize: 0x4 }
  - { offset: 0xF3E6D, size: 0x8, addend: 0x0, symName: __ZNK8facebook5react18jsinspector_modern27InspectorPackagerConnection11isConnectedEv, symObjAddr: 0x3188, symBinAddr: 0xF48C, symSize: 0x20 }
  - { offset: 0xF3E99, size: 0x8, addend: 0x0, symName: __ZNK8facebook5react18jsinspector_modern27InspectorPackagerConnection11isConnectedEv, symObjAddr: 0x3188, symBinAddr: 0xF48C, symSize: 0x20 }
  - { offset: 0xF3F18, size: 0x8, addend: 0x0, symName: __ZN8facebook5react18jsinspector_modern27InspectorPackagerConnection7connectEv, symObjAddr: 0x31A8, symBinAddr: 0xF4AC, symSize: 0x8 }
  - { offset: 0xF3F44, size: 0x8, addend: 0x0, symName: __ZN8facebook5react18jsinspector_modern27InspectorPackagerConnection7connectEv, symObjAddr: 0x31A8, symBinAddr: 0xF4AC, symSize: 0x8 }
  - { offset: 0xF3F86, size: 0x8, addend: 0x0, symName: __ZN8facebook5react18jsinspector_modern27InspectorPackagerConnection12closeQuietlyEv, symObjAddr: 0x31B0, symBinAddr: 0xF4B4, symSize: 0x28 }
  - { offset: 0xF3FB2, size: 0x8, addend: 0x0, symName: __ZN8facebook5react18jsinspector_modern27InspectorPackagerConnection12closeQuietlyEv, symObjAddr: 0x31B0, symBinAddr: 0xF4B4, symSize: 0x28 }
  - { offset: 0xF4062, size: 0x8, addend: 0x0, symName: __ZN8facebook5react18jsinspector_modern27InspectorPackagerConnection25sendEventToAllConnectionsENSt3__112basic_stringIcNS3_11char_traitsIcEENS3_9allocatorIcEEEE, symObjAddr: 0x31D8, symBinAddr: 0xF4DC, symSize: 0x88 }
  - { offset: 0xF4361, size: 0x8, addend: 0x0, symName: __ZN8facebook5react18jsinspector_modern27InspectorPackagerConnection4ImplD1Ev, symObjAddr: 0x3260, symBinAddr: 0xF564, symSize: 0x4 }
  - { offset: 0xF4384, size: 0x8, addend: 0x0, symName: __ZN8facebook5react18jsinspector_modern27InspectorPackagerConnection4ImplD1Ev, symObjAddr: 0x3260, symBinAddr: 0xF564, symSize: 0x4 }
  - { offset: 0xF4397, size: 0x8, addend: 0x0, symName: __ZN8facebook5react18jsinspector_modern27InspectorPackagerConnection4ImplD2Ev, symObjAddr: 0x3F54, symBinAddr: 0xF91C, symSize: 0xB4 }
  - { offset: 0xF48E9, size: 0x8, addend: 0x0, symName: __ZN8facebook5react18jsinspector_modern27InspectorPackagerConnection4ImplD0Ev, symObjAddr: 0x3264, symBinAddr: 0xF568, symSize: 0x14 }
  - { offset: 0xF493A, size: 0x8, addend: 0x0, symName: __ZThn8_N8facebook5react18jsinspector_modern27InspectorPackagerConnection4ImplD1Ev, symObjAddr: 0x3278, symBinAddr: 0xF57C, symSize: 0x8 }
  - { offset: 0xF4997, size: 0x8, addend: 0x0, symName: __ZThn8_N8facebook5react18jsinspector_modern27InspectorPackagerConnection4ImplD0Ev, symObjAddr: 0x3280, symBinAddr: 0xF584, symSize: 0x18 }
  - { offset: 0xF4A0F, size: 0x8, addend: 0x0, symName: __ZN8facebook5react18jsinspector_modern27InspectorPackagerConnection4Impl16RemoteConnectionD1Ev, symObjAddr: 0x3298, symBinAddr: 0xF59C, symSize: 0x48 }
  - { offset: 0xF4BAD, size: 0x8, addend: 0x0, symName: __ZN8facebook5react18jsinspector_modern27InspectorPackagerConnection4Impl16RemoteConnectionD0Ev, symObjAddr: 0x32E0, symBinAddr: 0xF5E4, symSize: 0x4C }
  - { offset: 0xF5BF0, size: 0x8, addend: 0x0, symName: __ZNSt3__16vectorIN5folly7dynamicENS_9allocatorIS2_EEE24__emplace_back_slow_pathIJRKS2_EEEPS2_DpOT_, symObjAddr: 0x3BC4, symBinAddr: 0xF6F8, symSize: 0x12C }
  - { offset: 0xF600E, size: 0x8, addend: 0x0, symName: __ZNSt3__114__split_bufferIN5folly7dynamicERNS_9allocatorIS2_EEED2Ev, symObjAddr: 0x3DB0, symBinAddr: 0xF8D0, symSize: 0x4C }
  - { offset: 0xF6190, size: 0x8, addend: 0x0, symName: __ZNSt3__119__allocate_at_leastB8ne200100INS_9allocatorIN5folly7dynamicEEEEENS_19__allocation_resultINS_16allocator_traitsIT_E7pointerEEERS7_m, symObjAddr: 0x3D04, symBinAddr: 0xF824, symSize: 0x44 }
  - { offset: 0xF6507, size: 0x8, addend: 0x0, symName: __ZNSt3__112__hash_tableINS_17__hash_value_typeINS_12basic_stringIcNS_11char_traitsIcEENS_9allocatorIcEEEEN8facebook5react18jsinspector_modern27InspectorPackagerConnection4Impl7SessionEEENS_22__unordered_map_hasherIS7_SE_NS_4hashIS7_EENS_8equal_toIS7_EELb1EEENS_21__unordered_map_equalIS7_SE_SJ_SH_Lb1EEENS5_ISE_EEED2Ev, symObjAddr: 0x4008, symBinAddr: 0xF9D0, symSize: 0x38 }
  - { offset: 0xF6751, size: 0x8, addend: 0x0, symName: __ZNSt3__112__hash_tableINS_17__hash_value_typeINS_12basic_stringIcNS_11char_traitsIcEENS_9allocatorIcEEEEN8facebook5react18jsinspector_modern27InspectorPackagerConnection4Impl7SessionEEENS_22__unordered_map_hasherIS7_SE_NS_4hashIS7_EENS_8equal_toIS7_EELb1EEENS_21__unordered_map_equalIS7_SE_SJ_SH_Lb1EEENS5_ISE_EEE17__deallocate_nodeEPNS_16__hash_node_baseIPNS_11__hash_nodeISE_PvEEEE, symObjAddr: 0x4040, symBinAddr: 0xFA08, symSize: 0x3C }
  - { offset: 0xF6D3A, size: 0x8, addend: 0x0, symName: __ZNSt3__110shared_ptrIN8facebook5react18jsinspector_modern27InspectorPackagerConnection4ImplEEC2B8ne200100IS5_Li0EEEPT_, symObjAddr: 0x4408, symBinAddr: 0xFA90, symSize: 0x80 }
  - { offset: 0xF70F8, size: 0x8, addend: 0x0, symName: __ZNSt3__120__shared_ptr_pointerIPN8facebook5react18jsinspector_modern27InspectorPackagerConnection4ImplENS_10shared_ptrIS5_E27__shared_ptr_default_deleteIS5_S5_EENS_9allocatorIS5_EEED1Ev, symObjAddr: 0x4538, symBinAddr: 0xFB10, symSize: 0x4 }
  - { offset: 0xF711A, size: 0x8, addend: 0x0, symName: __ZNSt3__120__shared_ptr_pointerIPN8facebook5react18jsinspector_modern27InspectorPackagerConnection4ImplENS_10shared_ptrIS5_E27__shared_ptr_default_deleteIS5_S5_EENS_9allocatorIS5_EEED1Ev, symObjAddr: 0x4538, symBinAddr: 0xFB10, symSize: 0x4 }
  - { offset: 0xF7150, size: 0x8, addend: 0x0, symName: __ZNSt3__120__shared_ptr_pointerIPN8facebook5react18jsinspector_modern27InspectorPackagerConnection4ImplENS_10shared_ptrIS5_E27__shared_ptr_default_deleteIS5_S5_EENS_9allocatorIS5_EEED0Ev, symObjAddr: 0x453C, symBinAddr: 0xFB14, symSize: 0x14 }
  - { offset: 0xF71B3, size: 0x8, addend: 0x0, symName: __ZNSt3__120__shared_ptr_pointerIPN8facebook5react18jsinspector_modern27InspectorPackagerConnection4ImplENS_10shared_ptrIS5_E27__shared_ptr_default_deleteIS5_S5_EENS_9allocatorIS5_EEE16__on_zero_sharedEv, symObjAddr: 0x4550, symBinAddr: 0xFB28, symSize: 0x18 }
  - { offset: 0xF7202, size: 0x8, addend: 0x0, symName: __ZNKSt3__120__shared_ptr_pointerIPN8facebook5react18jsinspector_modern27InspectorPackagerConnection4ImplENS_10shared_ptrIS5_E27__shared_ptr_default_deleteIS5_S5_EENS_9allocatorIS5_EEE13__get_deleterERKSt9type_info, symObjAddr: 0x4568, symBinAddr: 0xFB40, symSize: 0x38 }
  - { offset: 0xF72F3, size: 0x8, addend: 0x0, symName: __ZNSt3__120__shared_ptr_pointerIPN8facebook5react18jsinspector_modern27InspectorPackagerConnection4ImplENS_10shared_ptrIS5_E27__shared_ptr_default_deleteIS5_S5_EENS_9allocatorIS5_EEE21__on_zero_shared_weakEv, symObjAddr: 0x45A0, symBinAddr: 0xFB78, symSize: 0x4 }
  - { offset: 0xF7325, size: 0x8, addend: 0x0, symName: __ZNSt3__120__shared_ptr_pointerIPN8facebook5react18jsinspector_modern27InspectorPackagerConnection4ImplENS_10shared_ptrIS5_E27__shared_ptr_default_deleteIS5_S5_EENS_9allocatorIS5_EEE21__on_zero_shared_weakEv, symObjAddr: 0x45A0, symBinAddr: 0xFB78, symSize: 0x4 }
  - { offset: 0xF7346, size: 0x8, addend: 0x0, symName: __ZNSt3__120__shared_ptr_pointerIPN8facebook5react18jsinspector_modern27InspectorPackagerConnection4ImplENS_10shared_ptrIS5_E27__shared_ptr_default_deleteIS5_S5_EENS_9allocatorIS5_EEE21__on_zero_shared_weakEv, symObjAddr: 0x45A0, symBinAddr: 0xFB78, symSize: 0x4 }
  - { offset: 0xF7379, size: 0x8, addend: 0x0, symName: __ZNSt3__120__shared_ptr_pointerIPN8facebook5react18jsinspector_modern27InspectorPackagerConnection4ImplENS_10shared_ptrIS5_E27__shared_ptr_default_deleteIS5_S5_EENS_9allocatorIS5_EEE21__on_zero_shared_weakEv, symObjAddr: 0x45A0, symBinAddr: 0xFB78, symSize: 0x4 }
  - { offset: 0xF766D, size: 0x8, addend: 0x0, symName: __ZNKSt3__112__hash_tableINS_17__hash_value_typeIN5folly5RangeIPKcEENS2_7dynamicEEENS_22__unordered_map_hasherIS6_S8_NS2_6detail13DynamicHasherENS2_3f146detail11F14BasicMapIS7_S7_SB_NSA_15DynamicKeyEqualENS_9allocatorINS_4pairIKS7_S7_EEEEE14BottomKeyEqualIS6_EELb1EEENS_21__unordered_map_equalIS6_S8_SN_SB_Lb1EEENSG_IS8_EEE6bucketB8ne200100IS6_EEmRKT_, symObjAddr: 0x479C, symBinAddr: 0xFC60, symSize: 0x68 }
  - { offset: 0xF77DE, size: 0x8, addend: 0x0, symName: __ZNK5folly6detail15DynamicKeyEqualclINS_5RangeIPKcEEEENSt3__19enable_ifIXsr3std14is_convertibleIT_S6_EE5valueEbE4typeERKS9_RKNS_7dynamicE, symObjAddr: 0x472C, symBinAddr: 0x2BA9C, symSize: 0x70 }
  - { offset: 0xF7825, size: 0x8, addend: 0x0, symName: __ZNK5folly6detail15DynamicKeyEqualclINS_5RangeIPKcEEEENSt3__19enable_ifIXsr3std14is_convertibleIT_S6_EE5valueEbE4typeERKS9_RKNS_7dynamicE, symObjAddr: 0x472C, symBinAddr: 0x2BA9C, symSize: 0x70 }
  - { offset: 0xF7D00, size: 0x8, addend: 0x0, symName: __ZNKSt3__113__string_hashIcNS_9allocatorIcEEEclB8ne200100ERKNS_12basic_stringIcNS_11char_traitsIcEES2_EE, symObjAddr: 0x4950, symBinAddr: 0xFE14, symSize: 0x3C }
  - { offset: 0xF7DCF, size: 0x8, addend: 0x0, symName: __ZNKSt3__18equal_toINS_12basic_stringIcNS_11char_traitsIcEENS_9allocatorIcEEEEEclB8ne200100ERKS6_S9_, symObjAddr: 0x4DF8, symBinAddr: 0x102BC, symSize: 0x70 }
  - { offset: 0xF7E18, size: 0x8, addend: 0x0, symName: __ZNKSt3__18equal_toINS_12basic_stringIcNS_11char_traitsIcEENS_9allocatorIcEEEEEclB8ne200100ERKS6_S9_, symObjAddr: 0x4DF8, symBinAddr: 0x102BC, symSize: 0x70 }
  - { offset: 0xF7E48, size: 0x8, addend: 0x0, symName: __ZNKSt3__18equal_toINS_12basic_stringIcNS_11char_traitsIcEENS_9allocatorIcEEEEEclB8ne200100ERKS6_S9_, symObjAddr: 0x4DF8, symBinAddr: 0x102BC, symSize: 0x70 }
  - { offset: 0xF7E64, size: 0x8, addend: 0x0, symName: __ZNKSt3__18equal_toINS_12basic_stringIcNS_11char_traitsIcEENS_9allocatorIcEEEEEclB8ne200100ERKS6_S9_, symObjAddr: 0x4DF8, symBinAddr: 0x102BC, symSize: 0x70 }
  - { offset: 0xF7F67, size: 0x8, addend: 0x0, symName: __ZNKSt3__121__murmur2_or_cityhashImLm64EEclB8ne200100EPKvm, symObjAddr: 0x498C, symBinAddr: 0xFE50, symSize: 0x208 }
  - { offset: 0xF85CD, size: 0x8, addend: 0x0, symName: __ZNSt3__121__murmur2_or_cityhashImLm64EE18__hash_len_0_to_16B8ne200100EPKcm, symObjAddr: 0x4B94, symBinAddr: 0x10058, symSize: 0xF8 }
  - { offset: 0xF87D5, size: 0x8, addend: 0x0, symName: __ZNSt3__121__murmur2_or_cityhashImLm64EE19__hash_len_33_to_64B8ne200100EPKcm, symObjAddr: 0x4D38, symBinAddr: 0x101FC, symSize: 0xC0 }
  - { offset: 0xF8A43, size: 0x8, addend: 0x0, symName: __ZNSt3__121__murmur2_or_cityhashImLm64EE19__hash_len_17_to_32B8ne200100EPKcm, symObjAddr: 0x4C8C, symBinAddr: 0x10150, symSize: 0xAC }
  - { offset: 0xF8C5D, size: 0x8, addend: 0x0, symName: __ZNSt3__112__hash_tableINS_17__hash_value_typeINS_12basic_stringIcNS_11char_traitsIcEENS_9allocatorIcEEEEN8facebook5react18jsinspector_modern27InspectorPackagerConnection4Impl7SessionEEENS_22__unordered_map_hasherIS7_SE_NS_4hashIS7_EENS_8equal_toIS7_EELb1EEENS_21__unordered_map_equalIS7_SE_SJ_SH_Lb1EEENS5_ISE_EEE6removeENS_21__hash_const_iteratorIPNS_11__hash_nodeISE_PvEEEE, symObjAddr: 0x4EC0, symBinAddr: 0x10384, symSize: 0x13C }
  - { offset: 0xF8CD4, size: 0x8, addend: 0x0, symName: __ZNSt3__112__hash_tableINS_17__hash_value_typeINS_12basic_stringIcNS_11char_traitsIcEENS_9allocatorIcEEEEN8facebook5react18jsinspector_modern27InspectorPackagerConnection4Impl7SessionEEENS_22__unordered_map_hasherIS7_SE_NS_4hashIS7_EENS_8equal_toIS7_EELb1EEENS_21__unordered_map_equalIS7_SE_SJ_SH_Lb1EEENS5_ISE_EEE6removeENS_21__hash_const_iteratorIPNS_11__hash_nodeISE_PvEEEE, symObjAddr: 0x4EC0, symBinAddr: 0x10384, symSize: 0x13C }
  - { offset: 0xF8CF0, size: 0x8, addend: 0x0, symName: __ZNSt3__112__hash_tableINS_17__hash_value_typeINS_12basic_stringIcNS_11char_traitsIcEENS_9allocatorIcEEEEN8facebook5react18jsinspector_modern27InspectorPackagerConnection4Impl7SessionEEENS_22__unordered_map_hasherIS7_SE_NS_4hashIS7_EENS_8equal_toIS7_EELb1EEENS_21__unordered_map_equalIS7_SE_SJ_SH_Lb1EEENS5_ISE_EEE6removeENS_21__hash_const_iteratorIPNS_11__hash_nodeISE_PvEEEE, symObjAddr: 0x4EC0, symBinAddr: 0x10384, symSize: 0x13C }
  - { offset: 0xF8FC3, size: 0x8, addend: 0x0, symName: __ZNSt3__110unique_ptrINS_11__hash_nodeINS_17__hash_value_typeINS_12basic_stringIcNS_11char_traitsIcEENS_9allocatorIcEEEEN8facebook5react18jsinspector_modern27InspectorPackagerConnection4Impl7SessionEEEPvEENS_22__hash_node_destructorINS6_ISH_EEEEE5resetB8ne200100EPSH_, symObjAddr: 0x4FFC, symBinAddr: 0x104C0, symSize: 0x48 }
  - { offset: 0xF9165, size: 0x8, addend: 0x0, symName: __ZNSt3__112__hash_tableINS_17__hash_value_typeINS_12basic_stringIcNS_11char_traitsIcEENS_9allocatorIcEEEEN8facebook5react18jsinspector_modern27InspectorPackagerConnection4Impl7SessionEEENS_22__unordered_map_hasherIS7_SE_NS_4hashIS7_EENS_8equal_toIS7_EELb1EEENS_21__unordered_map_equalIS7_SE_SJ_SH_Lb1EEENS5_ISE_EEE21__construct_node_hashIRS7_JSD_EEENS_10unique_ptrINS_11__hash_nodeISE_PvEENS_22__hash_node_destructorINS5_ISU_EEEEEEmOT_DpOT0_, symObjAddr: 0x529C, symBinAddr: 0x10760, symSize: 0x7C }
  - { offset: 0xF96B7, size: 0x8, addend: 0x0, symName: __ZNSt3__14pairIKNS_12basic_stringIcNS_11char_traitsIcEENS_9allocatorIcEEEEN8facebook5react18jsinspector_modern27InspectorPackagerConnection4Impl7SessionEEC2B8ne200100IRS6_SD_Li0EEEOT_OT0_, symObjAddr: 0x5318, symBinAddr: 0x107DC, symSize: 0x64 }
  - { offset: 0xF9AF0, size: 0x8, addend: 0x0, symName: __ZNSt3__16vectorIN5folly7dynamicENS_9allocatorIS2_EEE16__destroy_vectorclB8ne200100Ev, symObjAddr: 0x55A8, symBinAddr: 0x10840, symSize: 0x70 }
  - { offset: 0xF9C69, size: 0x8, addend: 0x0, symName: '__ZNSt3__110__function6__funcIZN8facebook5react18jsinspector_modern27InspectorPackagerConnection4Impl9reconnectEvE3$_0NS_9allocatorIS7_EEFvvEED1Ev', symObjAddr: 0x5618, symBinAddr: 0x108B0, symSize: 0x38 }
  - { offset: 0xF9D7D, size: 0x8, addend: 0x0, symName: '__ZNSt3__110__function6__funcIZN8facebook5react18jsinspector_modern27InspectorPackagerConnection4Impl9reconnectEvE3$_0NS_9allocatorIS7_EEFvvEED0Ev', symObjAddr: 0x5650, symBinAddr: 0x108E8, symSize: 0x38 }
  - { offset: 0xF9FCF, size: 0x8, addend: 0x0, symName: '__ZNKSt3__110__function6__funcIZN8facebook5react18jsinspector_modern27InspectorPackagerConnection4Impl9reconnectEvE3$_0NS_9allocatorIS7_EEFvvEE7__cloneEv', symObjAddr: 0x5688, symBinAddr: 0x10920, symSize: 0x50 }
  - { offset: 0xFA259, size: 0x8, addend: 0x0, symName: '__ZNKSt3__110__function6__funcIZN8facebook5react18jsinspector_modern27InspectorPackagerConnection4Impl9reconnectEvE3$_0NS_9allocatorIS7_EEFvvEE7__cloneEPNS0_6__baseISA_EE', symObjAddr: 0x56D8, symBinAddr: 0x10970, symSize: 0x30 }
  - { offset: 0xFA28F, size: 0x8, addend: 0x0, symName: '__ZNKSt3__110__function6__funcIZN8facebook5react18jsinspector_modern27InspectorPackagerConnection4Impl9reconnectEvE3$_0NS_9allocatorIS7_EEFvvEE7__cloneEPNS0_6__baseISA_EE', symObjAddr: 0x56D8, symBinAddr: 0x10970, symSize: 0x30 }
  - { offset: 0xFA2BD, size: 0x8, addend: 0x0, symName: '__ZNKSt3__110__function6__funcIZN8facebook5react18jsinspector_modern27InspectorPackagerConnection4Impl9reconnectEvE3$_0NS_9allocatorIS7_EEFvvEE7__cloneEPNS0_6__baseISA_EE', symObjAddr: 0x56D8, symBinAddr: 0x10970, symSize: 0x30 }
  - { offset: 0xFA3C8, size: 0x8, addend: 0x0, symName: '__ZNSt3__110__function6__funcIZN8facebook5react18jsinspector_modern27InspectorPackagerConnection4Impl9reconnectEvE3$_0NS_9allocatorIS7_EEFvvEE7destroyEv', symObjAddr: 0x5708, symBinAddr: 0x109A0, symSize: 0x10 }
  - { offset: 0xFA3F1, size: 0x8, addend: 0x0, symName: '__ZNSt3__110__function6__funcIZN8facebook5react18jsinspector_modern27InspectorPackagerConnection4Impl9reconnectEvE3$_0NS_9allocatorIS7_EEFvvEE7destroyEv', symObjAddr: 0x5708, symBinAddr: 0x109A0, symSize: 0x10 }
  - { offset: 0xFA40F, size: 0x8, addend: 0x0, symName: '__ZNSt3__110__function6__funcIZN8facebook5react18jsinspector_modern27InspectorPackagerConnection4Impl9reconnectEvE3$_0NS_9allocatorIS7_EEFvvEE7destroyEv', symObjAddr: 0x5708, symBinAddr: 0x109A0, symSize: 0x10 }
  - { offset: 0xFA42C, size: 0x8, addend: 0x0, symName: '__ZNSt3__110__function6__funcIZN8facebook5react18jsinspector_modern27InspectorPackagerConnection4Impl9reconnectEvE3$_0NS_9allocatorIS7_EEFvvEE7destroyEv', symObjAddr: 0x5708, symBinAddr: 0x109A0, symSize: 0x10 }
  - { offset: 0xFA44A, size: 0x8, addend: 0x0, symName: '__ZNSt3__110__function6__funcIZN8facebook5react18jsinspector_modern27InspectorPackagerConnection4Impl9reconnectEvE3$_0NS_9allocatorIS7_EEFvvEE7destroyEv', symObjAddr: 0x5708, symBinAddr: 0x109A0, symSize: 0x10 }
  - { offset: 0xFA468, size: 0x8, addend: 0x0, symName: '__ZNSt3__110__function6__funcIZN8facebook5react18jsinspector_modern27InspectorPackagerConnection4Impl9reconnectEvE3$_0NS_9allocatorIS7_EEFvvEE7destroyEv', symObjAddr: 0x5708, symBinAddr: 0x109A0, symSize: 0x10 }
  - { offset: 0xFA4BA, size: 0x8, addend: 0x0, symName: '__ZNSt3__110__function6__funcIZN8facebook5react18jsinspector_modern27InspectorPackagerConnection4Impl9reconnectEvE3$_0NS_9allocatorIS7_EEFvvEE18destroy_deallocateEv', symObjAddr: 0x5718, symBinAddr: 0x109B0, symSize: 0x2C }
  - { offset: 0xFA676, size: 0x8, addend: 0x0, symName: '__ZNSt3__110__function6__funcIZN8facebook5react18jsinspector_modern27InspectorPackagerConnection4Impl9reconnectEvE3$_0NS_9allocatorIS7_EEFvvEEclEv', symObjAddr: 0x5744, symBinAddr: 0x109DC, symSize: 0xD4 }
  - { offset: 0xFA8EA, size: 0x8, addend: 0x0, symName: '__ZNKSt3__110__function6__funcIZN8facebook5react18jsinspector_modern27InspectorPackagerConnection4Impl9reconnectEvE3$_0NS_9allocatorIS7_EEFvvEE6targetERKSt9type_info', symObjAddr: 0x5818, symBinAddr: 0x10AB0, symSize: 0x3C }
  - { offset: 0xFA936, size: 0x8, addend: 0x0, symName: '__ZNKSt3__110__function6__funcIZN8facebook5react18jsinspector_modern27InspectorPackagerConnection4Impl9reconnectEvE3$_0NS_9allocatorIS7_EEFvvEE11target_typeEv', symObjAddr: 0x5854, symBinAddr: 0x10AEC, symSize: 0xC }
  - { offset: 0xFA9AE, size: 0x8, addend: 0x0, symName: '__ZNSt3__110__function6__funcIZN8facebook5react18jsinspector_modern27InspectorPackagerConnection4Impl22scheduleSendToPackagerEN5folly7dynamicEjNS_12basic_stringIcNS_11char_traitsIcEENS_9allocatorIcEEEEE3$_0NSC_ISF_EEFvvEED1Ev', symObjAddr: 0x5860, symBinAddr: 0x10AF8, symSize: 0x50 }
  - { offset: 0xFABFA, size: 0x8, addend: 0x0, symName: '__ZNSt3__110__function6__funcIZN8facebook5react18jsinspector_modern27InspectorPackagerConnection4Impl22scheduleSendToPackagerEN5folly7dynamicEjNS_12basic_stringIcNS_11char_traitsIcEENS_9allocatorIcEEEEE3$_0NSC_ISF_EEFvvEED0Ev', symObjAddr: 0x58B0, symBinAddr: 0x10B48, symSize: 0x50 }
  - { offset: 0xFB07B, size: 0x8, addend: 0x0, symName: '__ZNKSt3__110__function6__funcIZN8facebook5react18jsinspector_modern27InspectorPackagerConnection4Impl22scheduleSendToPackagerEN5folly7dynamicEjNS_12basic_stringIcNS_11char_traitsIcEENS_9allocatorIcEEEEE3$_0NSC_ISF_EEFvvEE7__cloneEv', symObjAddr: 0x5900, symBinAddr: 0x10B98, symSize: 0xC4 }
  - { offset: 0xFB4DE, size: 0x8, addend: 0x0, symName: '__ZNKSt3__110__function6__funcIZN8facebook5react18jsinspector_modern27InspectorPackagerConnection4Impl22scheduleSendToPackagerEN5folly7dynamicEjNS_12basic_stringIcNS_11char_traitsIcEENS_9allocatorIcEEEEE3$_0NSC_ISF_EEFvvEE7__cloneEPNS0_6__baseISH_EE', symObjAddr: 0x59C4, symBinAddr: 0x10C5C, symSize: 0xB0 }
  - { offset: 0xFB741, size: 0x8, addend: 0x0, symName: '__ZNSt3__110__function6__funcIZN8facebook5react18jsinspector_modern27InspectorPackagerConnection4Impl22scheduleSendToPackagerEN5folly7dynamicEjNS_12basic_stringIcNS_11char_traitsIcEENS_9allocatorIcEEEEE3$_0NSC_ISF_EEFvvEE7destroyEv', symObjAddr: 0x5A74, symBinAddr: 0x10D0C, symSize: 0x8 }
  - { offset: 0xFB776, size: 0x8, addend: 0x0, symName: '__ZNSt3__110__function12__alloc_funcIZN8facebook5react18jsinspector_modern27InspectorPackagerConnection4Impl22scheduleSendToPackagerEN5folly7dynamicEjNS_12basic_stringIcNS_11char_traitsIcEENS_9allocatorIcEEEEE3$_0NSC_ISF_EEFvvEE7destroyB8ne200100Ev', symObjAddr: 0x5BFC, symBinAddr: 0x10E94, symSize: 0x48 }
  - { offset: 0xFB950, size: 0x8, addend: 0x0, symName: '__ZNSt3__110__function6__funcIZN8facebook5react18jsinspector_modern27InspectorPackagerConnection4Impl22scheduleSendToPackagerEN5folly7dynamicEjNS_12basic_stringIcNS_11char_traitsIcEENS_9allocatorIcEEEEE3$_0NSC_ISF_EEFvvEE18destroy_deallocateEv', symObjAddr: 0x5A7C, symBinAddr: 0x10D14, symSize: 0x28 }
  - { offset: 0xFBA83, size: 0x8, addend: 0x0, symName: '__ZNSt3__110__function6__funcIZN8facebook5react18jsinspector_modern27InspectorPackagerConnection4Impl22scheduleSendToPackagerEN5folly7dynamicEjNS_12basic_stringIcNS_11char_traitsIcEENS_9allocatorIcEEEEE3$_0NSC_ISF_EEFvvEEclEv', symObjAddr: 0x5AA4, symBinAddr: 0x10D3C, symSize: 0x110 }
  - { offset: 0xFBCF7, size: 0x8, addend: 0x0, symName: '__ZNKSt3__110__function6__funcIZN8facebook5react18jsinspector_modern27InspectorPackagerConnection4Impl22scheduleSendToPackagerEN5folly7dynamicEjNS_12basic_stringIcNS_11char_traitsIcEENS_9allocatorIcEEEEE3$_0NSC_ISF_EEFvvEE6targetERKSt9type_info', symObjAddr: 0x5BB4, symBinAddr: 0x10E4C, symSize: 0x3C }
  - { offset: 0xFBD43, size: 0x8, addend: 0x0, symName: '__ZNKSt3__110__function6__funcIZN8facebook5react18jsinspector_modern27InspectorPackagerConnection4Impl22scheduleSendToPackagerEN5folly7dynamicEjNS_12basic_stringIcNS_11char_traitsIcEENS_9allocatorIcEEEEE3$_0NSC_ISF_EEFvvEE11target_typeEv', symObjAddr: 0x5BF0, symBinAddr: 0x10E88, symSize: 0xC }
  - { offset: 0x100F81, size: 0x8, addend: 0x0, symName: __ZN8facebook5react18jsinspector_modern23CallbackLocalConnectionC2ENSt3__18functionIFvNS3_12basic_stringIcNS3_11char_traitsIcEENS3_9allocatorIcEEEEEEE, symObjAddr: 0x0, symBinAddr: 0x10EDC, symSize: 0x30 }
  - { offset: 0x10102C, size: 0x8, addend: 0x0, symName: __ZNSt3__110__function12__value_funcIFvNS_12basic_stringIcNS_11char_traitsIcEENS_9allocatorIcEEEEEEC2B8ne200100EOS9_, symObjAddr: 0x2C8, symBinAddr: 0x11194, symSize: 0x64 }
  - { offset: 0x1010A6, size: 0x8, addend: 0x0, symName: __ZN8facebook5react18jsinspector_modern23CallbackLocalConnectionC1ENSt3__18functionIFvNS3_12basic_stringIcNS3_11char_traitsIcEENS3_9allocatorIcEEEEEEE, symObjAddr: 0x30, symBinAddr: 0x10F0C, symSize: 0x30 }
  - { offset: 0x1012FA, size: 0x8, addend: 0x0, symName: __ZN8facebook5react18jsinspector_modern23CallbackLocalConnection11sendMessageENSt3__112basic_stringIcNS3_11char_traitsIcEENS3_9allocatorIcEEEE, symObjAddr: 0x60, symBinAddr: 0x10F3C, symSize: 0x84 }
  - { offset: 0x101618, size: 0x8, addend: 0x0, symName: __ZN8facebook5react18jsinspector_modern23CallbackLocalConnection10disconnectEv, symObjAddr: 0xE4, symBinAddr: 0x10FC0, symSize: 0x38 }
  - { offset: 0x101726, size: 0x8, addend: 0x0, symName: __ZN8facebook5react18jsinspector_modern20RAIIRemoteConnectionC2ENSt3__110unique_ptrINS1_17IRemoteConnectionENS3_14default_deleteIS5_EEEE, symObjAddr: 0x11C, symBinAddr: 0x10FF8, symSize: 0x10 }
  - { offset: 0x101750, size: 0x8, addend: 0x0, symName: __ZN8facebook5react18jsinspector_modern20RAIIRemoteConnectionC2ENSt3__110unique_ptrINS1_17IRemoteConnectionENS3_14default_deleteIS5_EEEE, symObjAddr: 0x11C, symBinAddr: 0x10FF8, symSize: 0x10 }
  - { offset: 0x101772, size: 0x8, addend: 0x0, symName: __ZN8facebook5react18jsinspector_modern20RAIIRemoteConnectionC2ENSt3__110unique_ptrINS1_17IRemoteConnectionENS3_14default_deleteIS5_EEEE, symObjAddr: 0x11C, symBinAddr: 0x10FF8, symSize: 0x10 }
  - { offset: 0x101794, size: 0x8, addend: 0x0, symName: __ZN8facebook5react18jsinspector_modern20RAIIRemoteConnectionC2ENSt3__110unique_ptrINS1_17IRemoteConnectionENS3_14default_deleteIS5_EEEE, symObjAddr: 0x11C, symBinAddr: 0x10FF8, symSize: 0x10 }
  - { offset: 0x1017E5, size: 0x8, addend: 0x0, symName: __ZN8facebook5react18jsinspector_modern20RAIIRemoteConnectionC1ENSt3__110unique_ptrINS1_17IRemoteConnectionENS3_14default_deleteIS5_EEEE, symObjAddr: 0x12C, symBinAddr: 0x11008, symSize: 0x10 }
  - { offset: 0x101821, size: 0x8, addend: 0x0, symName: __ZN8facebook5react18jsinspector_modern20RAIIRemoteConnectionC1ENSt3__110unique_ptrINS1_17IRemoteConnectionENS3_14default_deleteIS5_EEEE, symObjAddr: 0x12C, symBinAddr: 0x11008, symSize: 0x10 }
  - { offset: 0x101844, size: 0x8, addend: 0x0, symName: __ZN8facebook5react18jsinspector_modern20RAIIRemoteConnectionC1ENSt3__110unique_ptrINS1_17IRemoteConnectionENS3_14default_deleteIS5_EEEE, symObjAddr: 0x12C, symBinAddr: 0x11008, symSize: 0x10 }
  - { offset: 0x101866, size: 0x8, addend: 0x0, symName: __ZN8facebook5react18jsinspector_modern20RAIIRemoteConnectionC1ENSt3__110unique_ptrINS1_17IRemoteConnectionENS3_14default_deleteIS5_EEEE, symObjAddr: 0x12C, symBinAddr: 0x11008, symSize: 0x10 }
  - { offset: 0x101888, size: 0x8, addend: 0x0, symName: __ZN8facebook5react18jsinspector_modern20RAIIRemoteConnectionC1ENSt3__110unique_ptrINS1_17IRemoteConnectionENS3_14default_deleteIS5_EEEE, symObjAddr: 0x12C, symBinAddr: 0x11008, symSize: 0x10 }
  - { offset: 0x1018C9, size: 0x8, addend: 0x0, symName: __ZN8facebook5react18jsinspector_modern20RAIIRemoteConnection9onMessageENSt3__112basic_stringIcNS3_11char_traitsIcEENS3_9allocatorIcEEEE, symObjAddr: 0x13C, symBinAddr: 0x11018, symSize: 0x78 }
  - { offset: 0x101BF3, size: 0x8, addend: 0x0, symName: __ZN8facebook5react18jsinspector_modern20RAIIRemoteConnectionD2Ev, symObjAddr: 0x1B4, symBinAddr: 0x11090, symSize: 0x4C }
  - { offset: 0x101CDD, size: 0x8, addend: 0x0, symName: __ZN8facebook5react18jsinspector_modern20RAIIRemoteConnectionD1Ev, symObjAddr: 0x210, symBinAddr: 0x110DC, symSize: 0x4 }
  - { offset: 0x101D0B, size: 0x8, addend: 0x0, symName: __ZN8facebook5react18jsinspector_modern20RAIIRemoteConnectionD1Ev, symObjAddr: 0x210, symBinAddr: 0x110DC, symSize: 0x4 }
  - { offset: 0x101DA6, size: 0x8, addend: 0x0, symName: __ZN8facebook5react18jsinspector_modern23CallbackLocalConnectionD1Ev, symObjAddr: 0x214, symBinAddr: 0x110E0, symSize: 0x58 }
  - { offset: 0x101E89, size: 0x8, addend: 0x0, symName: __ZN8facebook5react18jsinspector_modern23CallbackLocalConnectionD0Ev, symObjAddr: 0x26C, symBinAddr: 0x11138, symSize: 0x5C }
  - { offset: 0x110127, size: 0x8, addend: 0x0, symName: __ZNSt3__119__allocate_at_leastB8ne200100INS_9allocatorIN8facebook5react18jsinspector_modern20SimpleConsoleMessageEEEEENS_19__allocation_resultINS_16allocator_traitsIT_E7pointerEEERS9_m, symObjAddr: 0x20B0, symBinAddr: 0x12860, symSize: 0x44 }
  - { offset: 0x1101CC, size: 0x8, addend: 0x0, symName: __ZNSt3__134__uninitialized_allocator_relocateB8ne200100INS_9allocatorIN8facebook5react18jsinspector_modern20SimpleConsoleMessageEEEPS5_EEvRT_T0_SA_SA_, symObjAddr: 0x20F4, symBinAddr: 0x128A4, symSize: 0xC8 }
  - { offset: 0x1101DF, size: 0x8, addend: 0x0, symName: __ZNSt3__134__uninitialized_allocator_relocateB8ne200100INS_9allocatorIN8facebook5react18jsinspector_modern20SimpleConsoleMessageEEEPS5_EEvRT_T0_SA_SA_, symObjAddr: 0x20F4, symBinAddr: 0x128A4, symSize: 0xC8 }
  - { offset: 0x115539, size: 0x8, addend: 0x0, symName: __ZN8facebook5react18jsinspector_modern13InstanceAgentC2ENSt3__18functionIFvNS3_17basic_string_viewIcNS3_11char_traitsIcEEEEEEERNS1_14InstanceTargetERNS1_12SessionStateE, symObjAddr: 0x0, symBinAddr: 0x111F8, symSize: 0x2C }
  - { offset: 0x1156BE, size: 0x8, addend: 0x0, symName: __ZN8facebook5react18jsinspector_modern13InstanceAgentC1ENSt3__18functionIFvNS3_17basic_string_viewIcNS3_11char_traitsIcEEEEEEERNS1_14InstanceTargetERNS1_12SessionStateE, symObjAddr: 0x2C, symBinAddr: 0x11224, symSize: 0x2C }
  - { offset: 0x115946, size: 0x8, addend: 0x0, symName: __ZN8facebook5react18jsinspector_modern13InstanceAgent13handleRequestERKNS1_3cdp16PreparsedRequestE, symObjAddr: 0x58, symBinAddr: 0x11250, symSize: 0xAC }
  - { offset: 0x115AF3, size: 0x8, addend: 0x0, symName: __ZN8facebook5react18jsinspector_modern13InstanceAgent44maybeSendExecutionContextCreatedNotificationEv, symObjAddr: 0x104, symBinAddr: 0x112FC, symSize: 0x55C }
  - { offset: 0x117AD3, size: 0x8, addend: 0x0, symName: __ZN8facebook5react18jsinspector_modern13InstanceAgent31maybeSendPendingConsoleMessagesEv, symObjAddr: 0x660, symBinAddr: 0x11858, symSize: 0x128 }
  - { offset: 0x118FE1, size: 0x8, addend: 0x0, symName: __ZN8facebook5react18jsinspector_modern13InstanceAgent18sendConsoleMessageENS1_20SimpleConsoleMessageE, symObjAddr: 0xD00, symBinAddr: 0x11DD4, symSize: 0xEC }
  - { offset: 0x11944E, size: 0x8, addend: 0x0, symName: __ZN8facebook5react18jsinspector_modern13InstanceAgent29sendConsoleMessageImmediatelyENS1_20SimpleConsoleMessageE, symObjAddr: 0xDEC, symBinAddr: 0x11EC0, symSize: 0x738 }
  - { offset: 0x11BFC0, size: 0x8, addend: 0x0, symName: __ZN8facebook5react18jsinspector_modern13InstanceAgent17setCurrentRuntimeEPNS1_13RuntimeTargetE, symObjAddr: 0x788, symBinAddr: 0x11980, symSize: 0x454 }
  - { offset: 0x11DDC9, size: 0x8, addend: 0x0, symName: __ZN8facebook5react18jsinspector_modern13InstanceAgent18sendConsoleMessageENS1_20SimpleConsoleMessageE, symObjAddr: 0xD00, symBinAddr: 0x11DD4, symSize: 0xEC }
  - { offset: 0x11E1ED, size: 0x8, addend: 0x0, symName: __ZNSt3__16vectorIN8facebook5react18jsinspector_modern20SimpleConsoleMessageENS_9allocatorIS4_EEE24__emplace_back_slow_pathIJS4_EEEPS4_DpOT_, symObjAddr: 0x1F50, symBinAddr: 0x12714, symSize: 0x14C }
  - { offset: 0x11EAC8, size: 0x8, addend: 0x0, symName: __ZNSt3__16vectorIN5folly7dynamicENS_9allocatorIS2_EEE9push_backB8ne200100EOS2_, symObjAddr: 0x22C8, symBinAddr: 0x12A78, symSize: 0x44 }
  - { offset: 0x11ECF8, size: 0x8, addend: 0x0, symName: __ZN8facebook5react18jsinspector_modern13InstanceAgent12startTracingEv, symObjAddr: 0x1524, symBinAddr: 0x125F8, symSize: 0x38 }
  - { offset: 0x11ED7C, size: 0x8, addend: 0x0, symName: __ZN8facebook5react18jsinspector_modern13InstanceAgent11stopTracingEv, symObjAddr: 0x155C, symBinAddr: 0x12630, symSize: 0x10 }
  - { offset: 0x11EDA7, size: 0x8, addend: 0x0, symName: __ZN8facebook5react18jsinspector_modern13InstanceAgent11stopTracingEv, symObjAddr: 0x155C, symBinAddr: 0x12630, symSize: 0x10 }
  - { offset: 0x11EDC4, size: 0x8, addend: 0x0, symName: __ZN8facebook5react18jsinspector_modern13InstanceAgent11stopTracingEv, symObjAddr: 0x155C, symBinAddr: 0x12630, symSize: 0x10 }
  - { offset: 0x11F084, size: 0x8, addend: 0x0, symName: __ZN8facebook5react18jsinspector_modern13InstanceAgent21collectTracingProfileEv, symObjAddr: 0x156C, symBinAddr: 0x12640, symSize: 0xD4 }
  - { offset: 0x11F791, size: 0x8, addend: 0x0, symName: __ZNSt3__16vectorIN8facebook5react18jsinspector_modern7tracing22RuntimeSamplingProfile6SampleENS_9allocatorIS6_EEE16__destroy_vectorclB8ne200100Ev, symObjAddr: 0x2630, symBinAddr: 0x12BE4, symSize: 0x40 }
  - { offset: 0x120ABC, size: 0x8, addend: 0x0, symName: __ZNSt3__114__split_bufferIN8facebook5react18jsinspector_modern20SimpleConsoleMessageERNS_9allocatorIS4_EEED2Ev, symObjAddr: 0x2244, symBinAddr: 0x129F4, symSize: 0x30 }
  - { offset: 0x120B7D, size: 0x8, addend: 0x0, symName: __ZNSt3__119__allocate_at_leastB8ne200100INS_9allocatorIN8facebook5react18jsinspector_modern20SimpleConsoleMessageEEEEENS_19__allocation_resultINS_16allocator_traitsIT_E7pointerEEERS9_m, symObjAddr: 0x20B0, symBinAddr: 0x12860, symSize: 0x44 }
  - { offset: 0x120BE3, size: 0x8, addend: 0x0, symName: __ZNSt3__128__exception_guard_exceptionsINS_29_AllocatorDestroyRangeReverseINS_9allocatorIN8facebook5react18jsinspector_modern20SimpleConsoleMessageEEEPS6_EEED2B8ne200100Ev, symObjAddr: 0x21BC, symBinAddr: 0x1296C, symSize: 0x34 }
  - { offset: 0x120C22, size: 0x8, addend: 0x0, symName: __ZNKSt3__129_AllocatorDestroyRangeReverseINS_9allocatorIN8facebook5react18jsinspector_modern20SimpleConsoleMessageEEEPS5_EclB8ne200100Ev, symObjAddr: 0x21F0, symBinAddr: 0x129A0, symSize: 0x54 }
  - { offset: 0x120E6E, size: 0x8, addend: 0x0, symName: __ZNSt3__114__split_bufferIN8facebook5react18jsinspector_modern20SimpleConsoleMessageERNS_9allocatorIS4_EEE5clearB8ne200100Ev, symObjAddr: 0x2274, symBinAddr: 0x12A24, symSize: 0x54 }
  - { offset: 0x1210EC, size: 0x8, addend: 0x0, symName: __ZNSt3__16vectorIN5folly7dynamicENS_9allocatorIS2_EEE24__emplace_back_slow_pathIJS2_EEEPS2_DpOT_, symObjAddr: 0x230C, symBinAddr: 0x12ABC, symSize: 0x128 }
  - { offset: 0x12179E, size: 0x8, addend: 0x0, symName: __ZNSt3__16vectorIN8facebook5react18jsinspector_modern7tracing22RuntimeSamplingProfile6SampleENS_9allocatorIS6_EEE5clearB8ne200100Ev, symObjAddr: 0x2670, symBinAddr: 0x12C24, symSize: 0x4C }
  - { offset: 0x12FFD0, size: 0x8, addend: 0x0, symName: __ZNSt3__115allocate_sharedB8ne200100IN8facebook5react18jsinspector_modern13InstanceAgentENS_9allocatorIS4_EEJRNS_8functionIFvNS_17basic_string_viewIcNS_11char_traitsIcEEEEEEERNS3_14InstanceTargetERNS3_12SessionStateEELi0EEENS_10shared_ptrIT_EERKT0_DpOT1_, symObjAddr: 0xFB4, symBinAddr: 0x136C4, symSize: 0x70 }
  - { offset: 0x13108C, size: 0x8, addend: 0x0, symName: __ZNSt3__112construct_atB8ne200100IN8facebook5react18jsinspector_modern13InstanceAgentEJRNS_8functionIFvNS_17basic_string_viewIcNS_11char_traitsIcEEEEEEERNS3_14InstanceTargetERNS3_12SessionStateEEPS4_EEPT_SJ_DpOT0_, symObjAddr: 0x1104, symBinAddr: 0x13814, symSize: 0xE8 }
  - { offset: 0x1361BD, size: 0x8, addend: 0x0, symName: __ZN8facebook5react18jsinspector_modern18makeScopedExecutorINS1_14InstanceTargetEEENSt3__18functionIFvONS5_IFvRT_EEEEEENS4_10shared_ptrIS6_EENS5_IFvONS5_IFvvEEEEEE, symObjAddr: 0x1364, symBinAddr: 0x138FC, symSize: 0xE8 }
  - { offset: 0x13651C, size: 0x8, addend: 0x0, symName: __ZN8facebook5react18jsinspector_modern16makeVoidExecutorINS1_14InstanceTargetEEENSt3__18functionIFvONS5_IFvvEEEEEENS5_IFvONS5_IFvRT_EEEEEE, symObjAddr: 0x60C, symBinAddr: 0x1327C, symSize: 0xFC }
  - { offset: 0x1375C2, size: 0x8, addend: 0x0, symName: __ZZN8facebook5react18jsinspector_modern18makeScopedExecutorINS1_14InstanceTargetEEENSt3__18functionIFvONS5_IFvRT_EEEEEENS4_10shared_ptrIS6_EENS5_IFvONS5_IFvvEEEEEEENKUlOS6_E_clINS5_IFvRS3_EEEEEDaSK_, symObjAddr: 0x186C, symBinAddr: 0x13CEC, symSize: 0x188 }
  - { offset: 0x137D1D, size: 0x8, addend: 0x0, symName: __ZZN8facebook5react18jsinspector_modern16makeVoidExecutorINS1_14InstanceTargetEEENSt3__18functionIFvONS5_IFvvEEEEEENS5_IFvONS5_IFvRT_EEEEEEENKUlOSB_E_clIS7_EEDaSI_, symObjAddr: 0x2238, symBinAddr: 0x1447C, symSize: 0x164 }
  - { offset: 0x1388DD, size: 0x8, addend: 0x0, symName: __ZN8facebook5react18jsinspector_modern14InstanceTarget6createENSt3__110shared_ptrINS1_23ExecutionContextManagerEEERNS1_22InstanceTargetDelegateENS3_8functionIFvONS9_IFvvEEEEEE, symObjAddr: 0x0, symBinAddr: 0x12C70, symSize: 0x130 }
  - { offset: 0x138E80, size: 0x8, addend: 0x0, symName: __ZNSt3__110shared_ptrIN8facebook5react18jsinspector_modern14InstanceTargetEEC2B8ne200100IS4_Li0EEEPT_, symObjAddr: 0xC30, symBinAddr: 0x135DC, symSize: 0x74 }
  - { offset: 0x139160, size: 0x8, addend: 0x0, symName: __ZN8facebook5react18jsinspector_modern14InstanceTargetC1ENSt3__110shared_ptrINS1_23ExecutionContextManagerEEERNS1_22InstanceTargetDelegateE, symObjAddr: 0x130, symBinAddr: 0x12DA0, symSize: 0x28 }
  - { offset: 0x139191, size: 0x8, addend: 0x0, symName: __ZN8facebook5react18jsinspector_modern14InstanceTargetC1ENSt3__110shared_ptrINS1_23ExecutionContextManagerEEERNS1_22InstanceTargetDelegateE, symObjAddr: 0x130, symBinAddr: 0x12DA0, symSize: 0x28 }
  - { offset: 0x1391BB, size: 0x8, addend: 0x0, symName: __ZN8facebook5react18jsinspector_modern14InstanceTargetC1ENSt3__110shared_ptrINS1_23ExecutionContextManagerEEERNS1_22InstanceTargetDelegateE, symObjAddr: 0x130, symBinAddr: 0x12DA0, symSize: 0x28 }
  - { offset: 0x1391D6, size: 0x8, addend: 0x0, symName: __ZN8facebook5react18jsinspector_modern14InstanceTargetC1ENSt3__110shared_ptrINS1_23ExecutionContextManagerEEERNS1_22InstanceTargetDelegateE, symObjAddr: 0x130, symBinAddr: 0x12DA0, symSize: 0x28 }
  - { offset: 0x1391F1, size: 0x8, addend: 0x0, symName: __ZN8facebook5react18jsinspector_modern14InstanceTargetC1ENSt3__110shared_ptrINS1_23ExecutionContextManagerEEERNS1_22InstanceTargetDelegateE, symObjAddr: 0x130, symBinAddr: 0x12DA0, symSize: 0x28 }
  - { offset: 0x13920D, size: 0x8, addend: 0x0, symName: __ZN8facebook5react18jsinspector_modern14InstanceTargetC1ENSt3__110shared_ptrINS1_23ExecutionContextManagerEEERNS1_22InstanceTargetDelegateE, symObjAddr: 0x130, symBinAddr: 0x12DA0, symSize: 0x28 }
  - { offset: 0x139405, size: 0x8, addend: 0x0, symName: __ZN8facebook5react18jsinspector_modern14InstanceTargetC2ENSt3__110shared_ptrINS1_23ExecutionContextManagerEEERNS1_22InstanceTargetDelegateE, symObjAddr: 0x158, symBinAddr: 0x12DC8, symSize: 0x28 }
  - { offset: 0x139436, size: 0x8, addend: 0x0, symName: __ZN8facebook5react18jsinspector_modern14InstanceTargetC2ENSt3__110shared_ptrINS1_23ExecutionContextManagerEEERNS1_22InstanceTargetDelegateE, symObjAddr: 0x158, symBinAddr: 0x12DC8, symSize: 0x28 }
  - { offset: 0x139451, size: 0x8, addend: 0x0, symName: __ZN8facebook5react18jsinspector_modern14InstanceTargetC2ENSt3__110shared_ptrINS1_23ExecutionContextManagerEEERNS1_22InstanceTargetDelegateE, symObjAddr: 0x158, symBinAddr: 0x12DC8, symSize: 0x28 }
  - { offset: 0x13946C, size: 0x8, addend: 0x0, symName: __ZN8facebook5react18jsinspector_modern14InstanceTargetC2ENSt3__110shared_ptrINS1_23ExecutionContextManagerEEERNS1_22InstanceTargetDelegateE, symObjAddr: 0x158, symBinAddr: 0x12DC8, symSize: 0x28 }
  - { offset: 0x139488, size: 0x8, addend: 0x0, symName: __ZN8facebook5react18jsinspector_modern14InstanceTargetC2ENSt3__110shared_ptrINS1_23ExecutionContextManagerEEERNS1_22InstanceTargetDelegateE, symObjAddr: 0x158, symBinAddr: 0x12DC8, symSize: 0x28 }
  - { offset: 0x13967F, size: 0x8, addend: 0x0, symName: __ZN8facebook5react18jsinspector_modern22InstanceTargetDelegateD2Ev, symObjAddr: 0x180, symBinAddr: 0x12DF0, symSize: 0x4 }
  - { offset: 0x1396AA, size: 0x8, addend: 0x0, symName: __ZN8facebook5react18jsinspector_modern22InstanceTargetDelegateD1Ev, symObjAddr: 0x184, symBinAddr: 0x12DF4, symSize: 0x4 }
  - { offset: 0x1396D5, size: 0x8, addend: 0x0, symName: __ZN8facebook5react18jsinspector_modern22InstanceTargetDelegateD0Ev, symObjAddr: 0x188, symBinAddr: 0x12DF8, symSize: 0x4 }
  - { offset: 0x139830, size: 0x8, addend: 0x0, symName: __ZN8facebook5react18jsinspector_modern14InstanceTarget11createAgentENSt3__18functionIFvNS3_17basic_string_viewIcNS3_11char_traitsIcEEEEEEERNS1_12SessionStateE, symObjAddr: 0x18C, symBinAddr: 0x12DFC, symSize: 0xA4 }
  - { offset: 0x139D71, size: 0x8, addend: 0x0, symName: __ZN8facebook5react18jsinspector_modern14InstanceTargetD2Ev, symObjAddr: 0x230, symBinAddr: 0x12EA0, symSize: 0x70 }
  - { offset: 0x13A0EC, size: 0x8, addend: 0x0, symName: __ZN8facebook5react18jsinspector_modern14InstanceTargetD1Ev, symObjAddr: 0x2A0, symBinAddr: 0x12F10, symSize: 0x4 }
  - { offset: 0x13A10F, size: 0x8, addend: 0x0, symName: __ZN8facebook5react18jsinspector_modern14InstanceTargetD1Ev, symObjAddr: 0x2A0, symBinAddr: 0x12F10, symSize: 0x4 }
  - { offset: 0x13A655, size: 0x8, addend: 0x0, symName: __ZN8facebook5react18jsinspector_modern14InstanceTarget15registerRuntimeERNS1_21RuntimeTargetDelegateENSt3__18functionIFvONS6_IFvRNS_3jsi7RuntimeEEEEEEE, symObjAddr: 0x2A4, symBinAddr: 0x12F14, symSize: 0x368 }
  - { offset: 0x13B68D, size: 0x8, addend: 0x0, symName: __ZN8facebook5react18jsinspector_modern22EnableExecutorFromThisINS1_14InstanceTargetEE16executorFromThisEv, symObjAddr: 0x708, symBinAddr: 0x13378, symSize: 0x12C }
  - { offset: 0x13BB4E, size: 0x8, addend: 0x0, symName: __ZN8facebook5react18jsinspector_modern27ExecutionContextDescriptionD1Ev, symObjAddr: 0x898, symBinAddr: 0x134A4, symSize: 0x5C }
  - { offset: 0x13C398, size: 0x8, addend: 0x0, symName: __ZNSt3__110__function12__value_funcIFvONS_8functionIFvRN8facebook5react18jsinspector_modern14InstanceTargetEEEEEEC2B8ne200100EOSC_, symObjAddr: 0x21D4, symBinAddr: 0x14418, symSize: 0x64 }
  - { offset: 0x13C509, size: 0x8, addend: 0x0, symName: __ZN8facebook5react18jsinspector_modern14InstanceTarget17unregisterRuntimeERNS1_13RuntimeTargetE, symObjAddr: 0x8F4, symBinAddr: 0x13500, symSize: 0xDC }
  - { offset: 0x13CEBB, size: 0x8, addend: 0x0, symName: __ZNSt3__120__shared_ptr_pointerIPN8facebook5react18jsinspector_modern14InstanceTargetENS_10shared_ptrIS4_E27__shared_ptr_default_deleteIS4_S4_EENS_9allocatorIS4_EEED1Ev, symObjAddr: 0xD54, symBinAddr: 0x13650, symSize: 0x4 }
  - { offset: 0x13CEDD, size: 0x8, addend: 0x0, symName: __ZNSt3__120__shared_ptr_pointerIPN8facebook5react18jsinspector_modern14InstanceTargetENS_10shared_ptrIS4_E27__shared_ptr_default_deleteIS4_S4_EENS_9allocatorIS4_EEED1Ev, symObjAddr: 0xD54, symBinAddr: 0x13650, symSize: 0x4 }
  - { offset: 0x13CF13, size: 0x8, addend: 0x0, symName: __ZNSt3__120__shared_ptr_pointerIPN8facebook5react18jsinspector_modern14InstanceTargetENS_10shared_ptrIS4_E27__shared_ptr_default_deleteIS4_S4_EENS_9allocatorIS4_EEED0Ev, symObjAddr: 0xD58, symBinAddr: 0x13654, symSize: 0x14 }
  - { offset: 0x13CF76, size: 0x8, addend: 0x0, symName: __ZNSt3__120__shared_ptr_pointerIPN8facebook5react18jsinspector_modern14InstanceTargetENS_10shared_ptrIS4_E27__shared_ptr_default_deleteIS4_S4_EENS_9allocatorIS4_EEE16__on_zero_sharedEv, symObjAddr: 0xD6C, symBinAddr: 0x13668, symSize: 0x20 }
  - { offset: 0x13CFE2, size: 0x8, addend: 0x0, symName: __ZNKSt3__120__shared_ptr_pointerIPN8facebook5react18jsinspector_modern14InstanceTargetENS_10shared_ptrIS4_E27__shared_ptr_default_deleteIS4_S4_EENS_9allocatorIS4_EEE13__get_deleterERKSt9type_info, symObjAddr: 0xD8C, symBinAddr: 0x13688, symSize: 0x38 }
  - { offset: 0x13D0D3, size: 0x8, addend: 0x0, symName: __ZNSt3__120__shared_ptr_pointerIPN8facebook5react18jsinspector_modern14InstanceTargetENS_10shared_ptrIS4_E27__shared_ptr_default_deleteIS4_S4_EENS_9allocatorIS4_EEE21__on_zero_shared_weakEv, symObjAddr: 0xDC4, symBinAddr: 0x136C0, symSize: 0x4 }
  - { offset: 0x13D105, size: 0x8, addend: 0x0, symName: __ZNSt3__120__shared_ptr_pointerIPN8facebook5react18jsinspector_modern14InstanceTargetENS_10shared_ptrIS4_E27__shared_ptr_default_deleteIS4_S4_EENS_9allocatorIS4_EEE21__on_zero_shared_weakEv, symObjAddr: 0xDC4, symBinAddr: 0x136C0, symSize: 0x4 }
  - { offset: 0x13D126, size: 0x8, addend: 0x0, symName: __ZNSt3__120__shared_ptr_pointerIPN8facebook5react18jsinspector_modern14InstanceTargetENS_10shared_ptrIS4_E27__shared_ptr_default_deleteIS4_S4_EENS_9allocatorIS4_EEE21__on_zero_shared_weakEv, symObjAddr: 0xDC4, symBinAddr: 0x136C0, symSize: 0x4 }
  - { offset: 0x13D159, size: 0x8, addend: 0x0, symName: __ZNSt3__120__shared_ptr_pointerIPN8facebook5react18jsinspector_modern14InstanceTargetENS_10shared_ptrIS4_E27__shared_ptr_default_deleteIS4_S4_EENS_9allocatorIS4_EEE21__on_zero_shared_weakEv, symObjAddr: 0xDC4, symBinAddr: 0x136C0, symSize: 0x4 }
  - { offset: 0x13D44C, size: 0x8, addend: 0x0, symName: __ZNSt3__120__shared_ptr_emplaceIN8facebook5react18jsinspector_modern13InstanceAgentENS_9allocatorIS4_EEEC2B8ne200100IJRNS_8functionIFvNS_17basic_string_viewIcNS_11char_traitsIcEEEEEEERNS3_14InstanceTargetERNS3_12SessionStateEES6_Li0EEES6_DpOT_, symObjAddr: 0x1024, symBinAddr: 0x13734, symSize: 0x4C }
  - { offset: 0x13D64E, size: 0x8, addend: 0x0, symName: __ZNSt3__120__shared_ptr_emplaceIN8facebook5react18jsinspector_modern13InstanceAgentENS_9allocatorIS4_EEED1Ev, symObjAddr: 0x1070, symBinAddr: 0x13780, symSize: 0x14 }
  - { offset: 0x13D670, size: 0x8, addend: 0x0, symName: __ZNSt3__120__shared_ptr_emplaceIN8facebook5react18jsinspector_modern13InstanceAgentENS_9allocatorIS4_EEED1Ev, symObjAddr: 0x1070, symBinAddr: 0x13780, symSize: 0x14 }
  - { offset: 0x13D6A6, size: 0x8, addend: 0x0, symName: __ZNSt3__120__shared_ptr_emplaceIN8facebook5react18jsinspector_modern13InstanceAgentENS_9allocatorIS4_EEED0Ev, symObjAddr: 0x1084, symBinAddr: 0x13794, symSize: 0x24 }
  - { offset: 0x13D83F, size: 0x8, addend: 0x0, symName: __ZNSt3__120__shared_ptr_emplaceIN8facebook5react18jsinspector_modern13InstanceAgentENS_9allocatorIS4_EEE16__on_zero_sharedEv, symObjAddr: 0x10A8, symBinAddr: 0x137B8, symSize: 0x58 }
  - { offset: 0x13DA1E, size: 0x8, addend: 0x0, symName: __ZNSt3__120__shared_ptr_emplaceIN8facebook5react18jsinspector_modern13InstanceAgentENS_9allocatorIS4_EEE21__on_zero_shared_weakEv, symObjAddr: 0x1100, symBinAddr: 0x13810, symSize: 0x4 }
  - { offset: 0x13DA50, size: 0x8, addend: 0x0, symName: __ZNSt3__120__shared_ptr_emplaceIN8facebook5react18jsinspector_modern13InstanceAgentENS_9allocatorIS4_EEE21__on_zero_shared_weakEv, symObjAddr: 0x1100, symBinAddr: 0x13810, symSize: 0x4 }
  - { offset: 0x13DA71, size: 0x8, addend: 0x0, symName: __ZNSt3__120__shared_ptr_emplaceIN8facebook5react18jsinspector_modern13InstanceAgentENS_9allocatorIS4_EEE21__on_zero_shared_weakEv, symObjAddr: 0x1100, symBinAddr: 0x13810, symSize: 0x4 }
  - { offset: 0x13DA93, size: 0x8, addend: 0x0, symName: __ZNSt3__120__shared_ptr_emplaceIN8facebook5react18jsinspector_modern13InstanceAgentENS_9allocatorIS4_EEE21__on_zero_shared_weakEv, symObjAddr: 0x1100, symBinAddr: 0x13810, symSize: 0x4 }
  - { offset: 0x13DAC6, size: 0x8, addend: 0x0, symName: __ZNSt3__120__shared_ptr_emplaceIN8facebook5react18jsinspector_modern13InstanceAgentENS_9allocatorIS4_EEE21__on_zero_shared_weakEv, symObjAddr: 0x1100, symBinAddr: 0x13810, symSize: 0x4 }
  - { offset: 0x13DE42, size: 0x8, addend: 0x0, symName: __ZNSt3__110__function12__value_funcIFvONS_8functionIFvRN8facebook5react18jsinspector_modern14InstanceTargetEEEEEEC1B8ne200100IZNS5_18makeScopedExecutorIS6_EENS2_IFvONS2_IFvRT_EEEEEENS_10shared_ptrISF_EENS2_IFvONS2_IFvvEEEEEEEUlOSF_E_Li0EEEST_, symObjAddr: 0x14A4, symBinAddr: 0x139E4, symSize: 0x68 }
  - { offset: 0x13E4DD, size: 0x8, addend: 0x0, symName: __ZNSt3__110__function6__funcIZN8facebook5react18jsinspector_modern18makeScopedExecutorINS4_14InstanceTargetEEENS_8functionIFvONS7_IFvRT_EEEEEENS_10shared_ptrIS8_EENS7_IFvONS7_IFvvEEEEEEEUlOS8_E_NS_9allocatorISN_EEFvONS7_IFvRS6_EEEEED1Ev, symObjAddr: 0x150C, symBinAddr: 0x13A4C, symSize: 0x68 }
  - { offset: 0x13E676, size: 0x8, addend: 0x0, symName: __ZNSt3__110__function6__funcIZN8facebook5react18jsinspector_modern18makeScopedExecutorINS4_14InstanceTargetEEENS_8functionIFvONS7_IFvRT_EEEEEENS_10shared_ptrIS8_EENS7_IFvONS7_IFvvEEEEEEEUlOS8_E_NS_9allocatorISN_EEFvONS7_IFvRS6_EEEEED0Ev, symObjAddr: 0x1574, symBinAddr: 0x13AB4, symSize: 0x68 }
  - { offset: 0x13E9D0, size: 0x8, addend: 0x0, symName: __ZNKSt3__110__function6__funcIZN8facebook5react18jsinspector_modern18makeScopedExecutorINS4_14InstanceTargetEEENS_8functionIFvONS7_IFvRT_EEEEEENS_10shared_ptrIS8_EENS7_IFvONS7_IFvvEEEEEEEUlOS8_E_NS_9allocatorISN_EEFvONS7_IFvRS6_EEEEE7__cloneEv, symObjAddr: 0x15DC, symBinAddr: 0x13B1C, symSize: 0x64 }
  - { offset: 0x13EBE1, size: 0x8, addend: 0x0, symName: __ZNSt3__110__function12__alloc_funcIZN8facebook5react18jsinspector_modern18makeScopedExecutorINS4_14InstanceTargetEEENS_8functionIFvONS7_IFvRT_EEEEEENS_10shared_ptrIS8_EENS7_IFvONS7_IFvvEEEEEEEUlOS8_E_NS_9allocatorISN_EEFvONS7_IFvRS6_EEEEEC2B8ne200100ERKSN_OSP_, symObjAddr: 0x1748, symBinAddr: 0x13C24, symSize: 0x64 }
  - { offset: 0x13EE10, size: 0x8, addend: 0x0, symName: __ZNKSt3__110__function6__funcIZN8facebook5react18jsinspector_modern18makeScopedExecutorINS4_14InstanceTargetEEENS_8functionIFvONS7_IFvRT_EEEEEENS_10shared_ptrIS8_EENS7_IFvONS7_IFvvEEEEEEEUlOS8_E_NS_9allocatorISN_EEFvONS7_IFvRS6_EEEEE7__cloneEPNS0_6__baseISU_EE, symObjAddr: 0x1640, symBinAddr: 0x13B80, symSize: 0x24 }
  - { offset: 0x13EEA2, size: 0x8, addend: 0x0, symName: __ZNSt3__110__function12__alloc_funcIZN8facebook5react18jsinspector_modern18makeScopedExecutorINS4_14InstanceTargetEEENS_8functionIFvONS7_IFvRT_EEEEEENS_10shared_ptrIS8_EENS7_IFvONS7_IFvvEEEEEEEUlOS8_E_NS_9allocatorISN_EEFvONS7_IFvRS6_EEEEEC2B8ne200100ERKSN_RKSP_, symObjAddr: 0x17AC, symBinAddr: 0x13C88, symSize: 0x64 }
  - { offset: 0x13F039, size: 0x8, addend: 0x0, symName: __ZNSt3__110__function6__funcIZN8facebook5react18jsinspector_modern18makeScopedExecutorINS4_14InstanceTargetEEENS_8functionIFvONS7_IFvRT_EEEEEENS_10shared_ptrIS8_EENS7_IFvONS7_IFvvEEEEEEEUlOS8_E_NS_9allocatorISN_EEFvONS7_IFvRS6_EEEEE7destroyEv, symObjAddr: 0x1664, symBinAddr: 0x13BA4, symSize: 0x8 }
  - { offset: 0x13F113, size: 0x8, addend: 0x0, symName: __ZNSt3__110__function6__funcIZN8facebook5react18jsinspector_modern18makeScopedExecutorINS4_14InstanceTargetEEENS_8functionIFvONS7_IFvRT_EEEEEENS_10shared_ptrIS8_EENS7_IFvONS7_IFvvEEEEEEEUlOS8_E_NS_9allocatorISN_EEFvONS7_IFvRS6_EEEEE18destroy_deallocateEv, symObjAddr: 0x166C, symBinAddr: 0x13BAC, symSize: 0x28 }
  - { offset: 0x13F22D, size: 0x8, addend: 0x0, symName: __ZNSt3__110__function6__funcIZN8facebook5react18jsinspector_modern18makeScopedExecutorINS4_14InstanceTargetEEENS_8functionIFvONS7_IFvRT_EEEEEENS_10shared_ptrIS8_EENS7_IFvONS7_IFvvEEEEEEEUlOS8_E_NS_9allocatorISN_EEFvONS7_IFvRS6_EEEEEclEST_, symObjAddr: 0x1694, symBinAddr: 0x13BD4, symSize: 0x8 }
  - { offset: 0x13F2EB, size: 0x8, addend: 0x0, symName: __ZNKSt3__110__function6__funcIZN8facebook5react18jsinspector_modern18makeScopedExecutorINS4_14InstanceTargetEEENS_8functionIFvONS7_IFvRT_EEEEEENS_10shared_ptrIS8_EENS7_IFvONS7_IFvvEEEEEEEUlOS8_E_NS_9allocatorISN_EEFvONS7_IFvRS6_EEEEE6targetERKSt9type_info, symObjAddr: 0x169C, symBinAddr: 0x13BDC, symSize: 0x3C }
  - { offset: 0x13F337, size: 0x8, addend: 0x0, symName: __ZNKSt3__110__function6__funcIZN8facebook5react18jsinspector_modern18makeScopedExecutorINS4_14InstanceTargetEEENS_8functionIFvONS7_IFvRT_EEEEEENS_10shared_ptrIS8_EENS7_IFvONS7_IFvvEEEEEEEUlOS8_E_NS_9allocatorISN_EEFvONS7_IFvRS6_EEEEE11target_typeEv, symObjAddr: 0x16D8, symBinAddr: 0x13C18, symSize: 0xC }
  - { offset: 0x13F878, size: 0x8, addend: 0x0, symName: __ZNSt3__110__function12__value_funcIFvRN8facebook5react18jsinspector_modern14InstanceTargetEEEC2B8ne200100EOS8_, symObjAddr: 0x1A98, symBinAddr: 0x13E74, symSize: 0x64 }
  - { offset: 0x13F9E5, size: 0x8, addend: 0x0, symName: __ZNSt3__110__function6__funcIZZN8facebook5react18jsinspector_modern18makeScopedExecutorINS4_14InstanceTargetEEENS_8functionIFvONS7_IFvRT_EEEEEENS_10shared_ptrIS8_EENS7_IFvONS7_IFvvEEEEEEENKUlOS8_E_clINS7_IFvRS6_EEEEEDaSM_EUlvE_NS_9allocatorIST_EESH_ED1Ev, symObjAddr: 0x1AFC, symBinAddr: 0x13ED8, symSize: 0x64 }
  - { offset: 0x13FB7E, size: 0x8, addend: 0x0, symName: __ZNSt3__110__function6__funcIZZN8facebook5react18jsinspector_modern18makeScopedExecutorINS4_14InstanceTargetEEENS_8functionIFvONS7_IFvRT_EEEEEENS_10shared_ptrIS8_EENS7_IFvONS7_IFvvEEEEEEENKUlOS8_E_clINS7_IFvRS6_EEEEEDaSM_EUlvE_NS_9allocatorIST_EESH_ED0Ev, symObjAddr: 0x1B60, symBinAddr: 0x13F3C, symSize: 0x64 }
  - { offset: 0x13FED8, size: 0x8, addend: 0x0, symName: __ZNKSt3__110__function6__funcIZZN8facebook5react18jsinspector_modern18makeScopedExecutorINS4_14InstanceTargetEEENS_8functionIFvONS7_IFvRT_EEEEEENS_10shared_ptrIS8_EENS7_IFvONS7_IFvvEEEEEEENKUlOS8_E_clINS7_IFvRS6_EEEEEDaSM_EUlvE_NS_9allocatorIST_EESH_E7__cloneEv, symObjAddr: 0x1BC4, symBinAddr: 0x13FA0, symSize: 0x60 }
  - { offset: 0x1400E9, size: 0x8, addend: 0x0, symName: __ZNSt3__110__function12__alloc_funcIZZN8facebook5react18jsinspector_modern18makeScopedExecutorINS4_14InstanceTargetEEENS_8functionIFvONS7_IFvRT_EEEEEENS_10shared_ptrIS8_EENS7_IFvONS7_IFvvEEEEEEENKUlOS8_E_clINS7_IFvRS6_EEEEEDaSM_EUlvE_NS_9allocatorIST_EESH_EC2B8ne200100ERKST_OSV_, symObjAddr: 0x1CC4, symBinAddr: 0x140A0, symSize: 0x64 }
  - { offset: 0x140318, size: 0x8, addend: 0x0, symName: __ZNKSt3__110__function6__funcIZZN8facebook5react18jsinspector_modern18makeScopedExecutorINS4_14InstanceTargetEEENS_8functionIFvONS7_IFvRT_EEEEEENS_10shared_ptrIS8_EENS7_IFvONS7_IFvvEEEEEEENKUlOS8_E_clINS7_IFvRS6_EEEEEDaSM_EUlvE_NS_9allocatorIST_EESH_E7__cloneEPNS0_6__baseISH_EE, symObjAddr: 0x1C24, symBinAddr: 0x14000, symSize: 0x20 }
  - { offset: 0x1403AA, size: 0x8, addend: 0x0, symName: __ZNSt3__110__function12__alloc_funcIZZN8facebook5react18jsinspector_modern18makeScopedExecutorINS4_14InstanceTargetEEENS_8functionIFvONS7_IFvRT_EEEEEENS_10shared_ptrIS8_EENS7_IFvONS7_IFvvEEEEEEENKUlOS8_E_clINS7_IFvRS6_EEEEEDaSM_EUlvE_NS_9allocatorIST_EESH_EC2B8ne200100ERKST_RKSV_, symObjAddr: 0x1D8C, symBinAddr: 0x14104, symSize: 0x64 }
  - { offset: 0x140541, size: 0x8, addend: 0x0, symName: __ZNSt3__110__function6__funcIZZN8facebook5react18jsinspector_modern18makeScopedExecutorINS4_14InstanceTargetEEENS_8functionIFvONS7_IFvRT_EEEEEENS_10shared_ptrIS8_EENS7_IFvONS7_IFvvEEEEEEENKUlOS8_E_clINS7_IFvRS6_EEEEEDaSM_EUlvE_NS_9allocatorIST_EESH_E7destroyEv, symObjAddr: 0x1C44, symBinAddr: 0x14020, symSize: 0x8 }
  - { offset: 0x14061B, size: 0x8, addend: 0x0, symName: __ZNSt3__110__function6__funcIZZN8facebook5react18jsinspector_modern18makeScopedExecutorINS4_14InstanceTargetEEENS_8functionIFvONS7_IFvRT_EEEEEENS_10shared_ptrIS8_EENS7_IFvONS7_IFvvEEEEEEENKUlOS8_E_clINS7_IFvRS6_EEEEEDaSM_EUlvE_NS_9allocatorIST_EESH_E18destroy_deallocateEv, symObjAddr: 0x1C4C, symBinAddr: 0x14028, symSize: 0x28 }
  - { offset: 0x1406FC, size: 0x8, addend: 0x0, symName: __ZNSt3__110__function6__funcIZZN8facebook5react18jsinspector_modern18makeScopedExecutorINS4_14InstanceTargetEEENS_8functionIFvONS7_IFvRT_EEEEEENS_10shared_ptrIS8_EENS7_IFvONS7_IFvvEEEEEEENKUlOS8_E_clINS7_IFvRS6_EEEEEDaSM_EUlvE_NS_9allocatorIST_EESH_EclEv, symObjAddr: 0x1C74, symBinAddr: 0x14050, symSize: 0x8 }
  - { offset: 0x14075C, size: 0x8, addend: 0x0, symName: __ZNSt3__128__invoke_void_return_wrapperIvLb1EE6__callB8ne200100IJRZZN8facebook5react18jsinspector_modern18makeScopedExecutorINS5_14InstanceTargetEEENS_8functionIFvONS8_IFvRT_EEEEEENS_10shared_ptrIS9_EENS8_IFvONS8_IFvvEEEEEEENKUlOS9_E_clINS8_IFvRS7_EEEEEDaSN_EUlvE_EEEvDpOT_, symObjAddr: 0x1E4C, symBinAddr: 0x14168, symSize: 0xB4 }
  - { offset: 0x1408F9, size: 0x8, addend: 0x0, symName: __ZNKSt3__110__function6__funcIZZN8facebook5react18jsinspector_modern18makeScopedExecutorINS4_14InstanceTargetEEENS_8functionIFvONS7_IFvRT_EEEEEENS_10shared_ptrIS8_EENS7_IFvONS7_IFvvEEEEEEENKUlOS8_E_clINS7_IFvRS6_EEEEEDaSM_EUlvE_NS_9allocatorIST_EESH_E6targetERKSt9type_info, symObjAddr: 0x1C7C, symBinAddr: 0x14058, symSize: 0x3C }
  - { offset: 0x140945, size: 0x8, addend: 0x0, symName: __ZNKSt3__110__function6__funcIZZN8facebook5react18jsinspector_modern18makeScopedExecutorINS4_14InstanceTargetEEENS_8functionIFvONS7_IFvRT_EEEEEENS_10shared_ptrIS8_EENS7_IFvONS7_IFvvEEEEEEENKUlOS8_E_clINS7_IFvRS6_EEEEEDaSM_EUlvE_NS_9allocatorIST_EESH_E11target_typeEv, symObjAddr: 0x1CB8, symBinAddr: 0x14094, symSize: 0xC }
  - { offset: 0x140B9F, size: 0x8, addend: 0x0, symName: __ZNSt3__110__function6__funcIZN8facebook5react18jsinspector_modern16makeVoidExecutorINS4_14InstanceTargetEEENS_8functionIFvONS7_IFvvEEEEEENS7_IFvONS7_IFvRT_EEEEEEEUlOSD_E_NS_9allocatorISL_EESB_ED1Ev, symObjAddr: 0x1FD8, symBinAddr: 0x1421C, symSize: 0x5C }
  - { offset: 0x140CFB, size: 0x8, addend: 0x0, symName: __ZNSt3__110__function6__funcIZN8facebook5react18jsinspector_modern16makeVoidExecutorINS4_14InstanceTargetEEENS_8functionIFvONS7_IFvvEEEEEENS7_IFvONS7_IFvRT_EEEEEEEUlOSD_E_NS_9allocatorISL_EESB_ED0Ev, symObjAddr: 0x2034, symBinAddr: 0x14278, symSize: 0x5C }
  - { offset: 0x14108A, size: 0x8, addend: 0x0, symName: __ZNKSt3__110__function6__funcIZN8facebook5react18jsinspector_modern16makeVoidExecutorINS4_14InstanceTargetEEENS_8functionIFvONS7_IFvvEEEEEENS7_IFvONS7_IFvRT_EEEEEEEUlOSD_E_NS_9allocatorISL_EESB_E7__cloneEv, symObjAddr: 0x2090, symBinAddr: 0x142D4, symSize: 0x58 }
  - { offset: 0x1413EC, size: 0x8, addend: 0x0, symName: __ZNKSt3__110__function6__funcIZN8facebook5react18jsinspector_modern16makeVoidExecutorINS4_14InstanceTargetEEENS_8functionIFvONS7_IFvvEEEEEENS7_IFvONS7_IFvRT_EEEEEEEUlOSD_E_NS_9allocatorISL_EESB_E7__cloneEPNS0_6__baseISB_EE, symObjAddr: 0x20E8, symBinAddr: 0x1432C, symSize: 0x20 }
  - { offset: 0x14153E, size: 0x8, addend: 0x0, symName: __ZNSt3__110__function6__funcIZN8facebook5react18jsinspector_modern16makeVoidExecutorINS4_14InstanceTargetEEENS_8functionIFvONS7_IFvvEEEEEENS7_IFvONS7_IFvRT_EEEEEEEUlOSD_E_NS_9allocatorISL_EESB_E7destroyEv, symObjAddr: 0x2108, symBinAddr: 0x1434C, symSize: 0x30 }
  - { offset: 0x141647, size: 0x8, addend: 0x0, symName: __ZNSt3__110__function6__funcIZN8facebook5react18jsinspector_modern16makeVoidExecutorINS4_14InstanceTargetEEENS_8functionIFvONS7_IFvvEEEEEENS7_IFvONS7_IFvRT_EEEEEEEUlOSD_E_NS_9allocatorISL_EESB_E18destroy_deallocateEv, symObjAddr: 0x2138, symBinAddr: 0x1437C, symSize: 0x4C }
  - { offset: 0x141836, size: 0x8, addend: 0x0, symName: __ZNSt3__110__function6__funcIZN8facebook5react18jsinspector_modern16makeVoidExecutorINS4_14InstanceTargetEEENS_8functionIFvONS7_IFvvEEEEEENS7_IFvONS7_IFvRT_EEEEEEEUlOSD_E_NS_9allocatorISL_EESB_EclESA_, symObjAddr: 0x2184, symBinAddr: 0x143C8, symSize: 0x8 }
  - { offset: 0x1418F4, size: 0x8, addend: 0x0, symName: __ZNKSt3__110__function6__funcIZN8facebook5react18jsinspector_modern16makeVoidExecutorINS4_14InstanceTargetEEENS_8functionIFvONS7_IFvvEEEEEENS7_IFvONS7_IFvRT_EEEEEEEUlOSD_E_NS_9allocatorISL_EESB_E6targetERKSt9type_info, symObjAddr: 0x218C, symBinAddr: 0x143D0, symSize: 0x3C }
  - { offset: 0x141940, size: 0x8, addend: 0x0, symName: __ZNKSt3__110__function6__funcIZN8facebook5react18jsinspector_modern16makeVoidExecutorINS4_14InstanceTargetEEENS_8functionIFvONS7_IFvvEEEEEENS7_IFvONS7_IFvRT_EEEEEEEUlOSD_E_NS_9allocatorISL_EESB_E11target_typeEv, symObjAddr: 0x21C8, symBinAddr: 0x1440C, symSize: 0xC }
  - { offset: 0x141DC1, size: 0x8, addend: 0x0, symName: __ZNSt3__110__function6__funcIZZN8facebook5react18jsinspector_modern16makeVoidExecutorINS4_14InstanceTargetEEENS_8functionIFvONS7_IFvvEEEEEENS7_IFvONS7_IFvRT_EEEEEEENKUlOSD_E_clIS9_EEDaSK_EUlRS6_E_NS_9allocatorISP_EEFvSO_EED1Ev, symObjAddr: 0x2400, symBinAddr: 0x145E0, symSize: 0x58 }
  - { offset: 0x141F1D, size: 0x8, addend: 0x0, symName: __ZNSt3__110__function6__funcIZZN8facebook5react18jsinspector_modern16makeVoidExecutorINS4_14InstanceTargetEEENS_8functionIFvONS7_IFvvEEEEEENS7_IFvONS7_IFvRT_EEEEEEENKUlOSD_E_clIS9_EEDaSK_EUlRS6_E_NS_9allocatorISP_EEFvSO_EED0Ev, symObjAddr: 0x2458, symBinAddr: 0x14638, symSize: 0x58 }
  - { offset: 0x142325, size: 0x8, addend: 0x0, symName: __ZNKSt3__110__function6__funcIZZN8facebook5react18jsinspector_modern16makeVoidExecutorINS4_14InstanceTargetEEENS_8functionIFvONS7_IFvvEEEEEENS7_IFvONS7_IFvRT_EEEEEEENKUlOSD_E_clIS9_EEDaSK_EUlRS6_E_NS_9allocatorISP_EEFvSO_EE7__cloneEv, symObjAddr: 0x24B0, symBinAddr: 0x14690, symSize: 0x54 }
  - { offset: 0x1426CB, size: 0x8, addend: 0x0, symName: __ZNKSt3__110__function6__funcIZZN8facebook5react18jsinspector_modern16makeVoidExecutorINS4_14InstanceTargetEEENS_8functionIFvONS7_IFvvEEEEEENS7_IFvONS7_IFvRT_EEEEEEENKUlOSD_E_clIS9_EEDaSK_EUlRS6_E_NS_9allocatorISP_EEFvSO_EE7__cloneEPNS0_6__baseISS_EE, symObjAddr: 0x2504, symBinAddr: 0x146E4, symSize: 0x1C }
  - { offset: 0x14281D, size: 0x8, addend: 0x0, symName: __ZNSt3__110__function6__funcIZZN8facebook5react18jsinspector_modern16makeVoidExecutorINS4_14InstanceTargetEEENS_8functionIFvONS7_IFvvEEEEEENS7_IFvONS7_IFvRT_EEEEEEENKUlOSD_E_clIS9_EEDaSK_EUlRS6_E_NS_9allocatorISP_EEFvSO_EE7destroyEv, symObjAddr: 0x2520, symBinAddr: 0x14700, symSize: 0x30 }
  - { offset: 0x142926, size: 0x8, addend: 0x0, symName: __ZNSt3__110__function6__funcIZZN8facebook5react18jsinspector_modern16makeVoidExecutorINS4_14InstanceTargetEEENS_8functionIFvONS7_IFvvEEEEEENS7_IFvONS7_IFvRT_EEEEEEENKUlOSD_E_clIS9_EEDaSK_EUlRS6_E_NS_9allocatorISP_EEFvSO_EE18destroy_deallocateEv, symObjAddr: 0x2550, symBinAddr: 0x14730, symSize: 0x4C }
  - { offset: 0x142B79, size: 0x8, addend: 0x0, symName: __ZNSt3__110__function6__funcIZZN8facebook5react18jsinspector_modern16makeVoidExecutorINS4_14InstanceTargetEEENS_8functionIFvONS7_IFvvEEEEEENS7_IFvONS7_IFvRT_EEEEEEENKUlOSD_E_clIS9_EEDaSK_EUlRS6_E_NS_9allocatorISP_EEFvSO_EEclESO_, symObjAddr: 0x259C, symBinAddr: 0x1477C, symSize: 0x20 }
  - { offset: 0x142BB2, size: 0x8, addend: 0x0, symName: __ZNSt3__110__function6__funcIZZN8facebook5react18jsinspector_modern16makeVoidExecutorINS4_14InstanceTargetEEENS_8functionIFvONS7_IFvvEEEEEENS7_IFvONS7_IFvRT_EEEEEEENKUlOSD_E_clIS9_EEDaSK_EUlRS6_E_NS_9allocatorISP_EEFvSO_EEclESO_, symObjAddr: 0x259C, symBinAddr: 0x1477C, symSize: 0x20 }
  - { offset: 0x142BD9, size: 0x8, addend: 0x0, symName: __ZNSt3__110__function6__funcIZZN8facebook5react18jsinspector_modern16makeVoidExecutorINS4_14InstanceTargetEEENS_8functionIFvONS7_IFvvEEEEEENS7_IFvONS7_IFvRT_EEEEEEENKUlOSD_E_clIS9_EEDaSK_EUlRS6_E_NS_9allocatorISP_EEFvSO_EEclESO_, symObjAddr: 0x259C, symBinAddr: 0x1477C, symSize: 0x20 }
  - { offset: 0x142BFF, size: 0x8, addend: 0x0, symName: __ZNSt3__110__function6__funcIZZN8facebook5react18jsinspector_modern16makeVoidExecutorINS4_14InstanceTargetEEENS_8functionIFvONS7_IFvvEEEEEENS7_IFvONS7_IFvRT_EEEEEEENKUlOSD_E_clIS9_EEDaSK_EUlRS6_E_NS_9allocatorISP_EEFvSO_EEclESO_, symObjAddr: 0x259C, symBinAddr: 0x1477C, symSize: 0x20 }
  - { offset: 0x142C26, size: 0x8, addend: 0x0, symName: __ZNSt3__110__function6__funcIZZN8facebook5react18jsinspector_modern16makeVoidExecutorINS4_14InstanceTargetEEENS_8functionIFvONS7_IFvvEEEEEENS7_IFvONS7_IFvRT_EEEEEEENKUlOSD_E_clIS9_EEDaSK_EUlRS6_E_NS_9allocatorISP_EEFvSO_EEclESO_, symObjAddr: 0x259C, symBinAddr: 0x1477C, symSize: 0x20 }
  - { offset: 0x142C4C, size: 0x8, addend: 0x0, symName: __ZNSt3__110__function6__funcIZZN8facebook5react18jsinspector_modern16makeVoidExecutorINS4_14InstanceTargetEEENS_8functionIFvONS7_IFvvEEEEEENS7_IFvONS7_IFvRT_EEEEEEENKUlOSD_E_clIS9_EEDaSK_EUlRS6_E_NS_9allocatorISP_EEFvSO_EEclESO_, symObjAddr: 0x259C, symBinAddr: 0x1477C, symSize: 0x20 }
  - { offset: 0x142C72, size: 0x8, addend: 0x0, symName: __ZNSt3__110__function6__funcIZZN8facebook5react18jsinspector_modern16makeVoidExecutorINS4_14InstanceTargetEEENS_8functionIFvONS7_IFvvEEEEEENS7_IFvONS7_IFvRT_EEEEEEENKUlOSD_E_clIS9_EEDaSK_EUlRS6_E_NS_9allocatorISP_EEFvSO_EEclESO_, symObjAddr: 0x259C, symBinAddr: 0x1477C, symSize: 0x20 }
  - { offset: 0x142C8F, size: 0x8, addend: 0x0, symName: __ZNSt3__110__function6__funcIZZN8facebook5react18jsinspector_modern16makeVoidExecutorINS4_14InstanceTargetEEENS_8functionIFvONS7_IFvvEEEEEENS7_IFvONS7_IFvRT_EEEEEEENKUlOSD_E_clIS9_EEDaSK_EUlRS6_E_NS_9allocatorISP_EEFvSO_EEclESO_, symObjAddr: 0x259C, symBinAddr: 0x1477C, symSize: 0x20 }
  - { offset: 0x142CC0, size: 0x8, addend: 0x0, symName: __ZNKSt3__110__function6__funcIZZN8facebook5react18jsinspector_modern16makeVoidExecutorINS4_14InstanceTargetEEENS_8functionIFvONS7_IFvvEEEEEENS7_IFvONS7_IFvRT_EEEEEEENKUlOSD_E_clIS9_EEDaSK_EUlRS6_E_NS_9allocatorISP_EEFvSO_EE6targetERKSt9type_info, symObjAddr: 0x25BC, symBinAddr: 0x1479C, symSize: 0x3C }
  - { offset: 0x142CCB, size: 0x8, addend: 0x0, symName: __ZNKSt3__110__function6__funcIZZN8facebook5react18jsinspector_modern16makeVoidExecutorINS4_14InstanceTargetEEENS_8functionIFvONS7_IFvvEEEEEENS7_IFvONS7_IFvRT_EEEEEEENKUlOSD_E_clIS9_EEDaSK_EUlRS6_E_NS_9allocatorISP_EEFvSO_EE6targetERKSt9type_info, symObjAddr: 0x25BC, symBinAddr: 0x1479C, symSize: 0x3C }
  - { offset: 0x142D17, size: 0x8, addend: 0x0, symName: __ZNKSt3__110__function6__funcIZZN8facebook5react18jsinspector_modern16makeVoidExecutorINS4_14InstanceTargetEEENS_8functionIFvONS7_IFvvEEEEEENS7_IFvONS7_IFvRT_EEEEEEENKUlOSD_E_clIS9_EEDaSK_EUlRS6_E_NS_9allocatorISP_EEFvSO_EE11target_typeEv, symObjAddr: 0x25F8, symBinAddr: 0x147D8, symSize: 0xC }
  - { offset: 0x144D51, size: 0x8, addend: 0x0, symName: __ZN8facebook5react18jsinspector_modernL21kTextMIMETypePrefixesE, symObjAddr: 0xC858, symBinAddr: 0x39628, symSize: 0x0 }
  - { offset: 0x1458C5, size: 0x8, addend: 0x0, symName: __ZN8facebook5react18jsinspector_modern19truncateToValidUTF8ERNSt3__16vectorIcNS2_9allocatorIcEEEE, symObjAddr: 0x55DC, symBinAddr: 0x19180, symSize: 0xF4 }
  - { offset: 0x15D0F4, size: 0x8, addend: 0x0, symName: __ZNSt3__1eqB8ne200100IcNS_11char_traitsIcEENS_9allocatorIcEEEEbRKNS_12basic_stringIT_T0_T1_EEPKS6_, symObjAddr: 0x480, symBinAddr: 0x14C64, symSize: 0x80 }
  - { offset: 0x1644E8, size: 0x8, addend: 0x0, symName: __ZNSt3__120__throw_out_of_rangeB8ne200100EPKc, symObjAddr: 0x2A54, symBinAddr: 0x17198, symSize: 0x50 }
  - { offset: 0x16499F, size: 0x8, addend: 0x0, symName: __ZNSt3__1ssB8ne200100IcNS_11char_traitsIcEENS_9allocatorIcEEEEDaRKNS_12basic_stringIT_T0_T1_EESC_, symObjAddr: 0x46C4, symBinAddr: 0x187DC, symSize: 0x38 }
  - { offset: 0x1649E1, size: 0x8, addend: 0x0, symName: __ZNSt3__1ssB8ne200100IcNS_11char_traitsIcEENS_9allocatorIcEEEEDaRKNS_12basic_stringIT_T0_T1_EESC_, symObjAddr: 0x46C4, symBinAddr: 0x187DC, symSize: 0x38 }
  - { offset: 0x1649FF, size: 0x8, addend: 0x0, symName: __ZNSt3__1ssB8ne200100IcNS_11char_traitsIcEENS_9allocatorIcEEEEDaRKNS_12basic_stringIT_T0_T1_EESC_, symObjAddr: 0x46C4, symBinAddr: 0x187DC, symSize: 0x38 }
  - { offset: 0x164A1D, size: 0x8, addend: 0x0, symName: __ZNSt3__1ssB8ne200100IcNS_11char_traitsIcEENS_9allocatorIcEEEEDaRKNS_12basic_stringIT_T0_T1_EESC_, symObjAddr: 0x46C4, symBinAddr: 0x187DC, symSize: 0x38 }
  - { offset: 0x164A3B, size: 0x8, addend: 0x0, symName: __ZNSt3__1ssB8ne200100IcNS_11char_traitsIcEENS_9allocatorIcEEEEDaRKNS_12basic_stringIT_T0_T1_EESC_, symObjAddr: 0x46C4, symBinAddr: 0x187DC, symSize: 0x38 }
  - { offset: 0x164DFA, size: 0x8, addend: 0x0, symName: __ZNSt3__1ssB8ne200100IcNS_11char_traitsIcEEEEDaNS_17basic_string_viewIT_T0_EENS_13type_identityIS7_E4typeE, symObjAddr: 0x46FC, symBinAddr: 0x18814, symSize: 0x5C }
  - { offset: 0x164FA8, size: 0x8, addend: 0x0, symName: __ZNSt3__112__destroy_atB8ne200100INS_4pairIKNS_12basic_stringIcNS_11char_traitsIcEENS_9allocatorIcEEEES7_EELi0EEEvPT_, symObjAddr: 0x49CC, symBinAddr: 0x18948, symSize: 0x44 }
  - { offset: 0x1654B2, size: 0x8, addend: 0x0, symName: __ZNSt3__127__memberwise_forward_assignB8ne200100INS_5tupleIJlNS_8functionIFvNS_7variantIJKNS_12basic_stringIcNS_11char_traitsIcEENS_9allocatorIcEEEEN8facebook5react18jsinspector_modern12IOReadResultEEEEEEEEEESI_JlSH_EJLm0ELm1EEEEvRT_OT0_NS_13__tuple_typesIJDpT1_EEENS_15__tuple_indicesIJXspT2_EEEE, symObjAddr: 0x5928, symBinAddr: 0x194B8, symSize: 0x20 }
  - { offset: 0x165E28, size: 0x8, addend: 0x0, symName: __ZNSt3__134__uninitialized_allocator_relocateB8ne200100INS_9allocatorINS_5tupleIJlNS_8functionIFvNS_7variantIJKNS_12basic_stringIcNS_11char_traitsIcEENS1_IcEEEEN8facebook5react18jsinspector_modern12IOReadResultEEEEEEEEEEEEPSI_EEvRT_T0_SN_SN_, symObjAddr: 0x6968, symBinAddr: 0x1A1CC, symSize: 0xD8 }
  - { offset: 0x165E3B, size: 0x8, addend: 0x0, symName: __ZNSt3__134__uninitialized_allocator_relocateB8ne200100INS_9allocatorINS_5tupleIJlNS_8functionIFvNS_7variantIJKNS_12basic_stringIcNS_11char_traitsIcEENS1_IcEEEEN8facebook5react18jsinspector_modern12IOReadResultEEEEEEEEEEEEPSI_EEvRT_T0_SN_SN_, symObjAddr: 0x6968, symBinAddr: 0x1A1CC, symSize: 0xD8 }
  - { offset: 0x16C7BB, size: 0x8, addend: 0x0, symName: __ZN5folly6detail15reserveInTargetIxPNSt3__112basic_stringIcNS2_11char_traitsIcEENS2_9allocatorIcEEEEEEvRKT_RKT0_, symObjAddr: 0x3128, symBinAddr: 0x17414, symSize: 0x50 }
  - { offset: 0x16C896, size: 0x8, addend: 0x0, symName: __ZN5folly6detail24toAppendDoubleConversionINSt3__112basic_stringIcNS2_11char_traitsIcEENS2_9allocatorIcEEEEdEENS2_9enable_ifIXaasr3std17is_floating_pointIT0_EE5valuesr12IsSomeStringIT_EE5valueEvE4typeESA_PSB_NS_8DtoaModeEjNS_9DtoaFlagsE, symObjAddr: 0x32B4, symBinAddr: 0x175A0, symSize: 0x130 }
  - { offset: 0x16CE4B, size: 0x8, addend: 0x0, symName: __ZN5folly6detail15reserveInTargetIbPNSt3__112basic_stringIcNS2_11char_traitsIcEENS2_9allocatorIcEEEEEEvRKT_RKT0_, symObjAddr: 0x345C, symBinAddr: 0x17748, symSize: 0x44 }
  - { offset: 0x16CF36, size: 0x8, addend: 0x0, symName: __ZN5folly6detail16throw_exception_INS_17BadExpectedAccessIvEEJEEEvDpT0_, symObjAddr: 0x34A0, symBinAddr: 0x2BB0C, symSize: 0x40 }
  - { offset: 0x16CFEB, size: 0x8, addend: 0x0, symName: __ZN5folly6detail16throw_exception_INS_17BadExpectedAccessINS_14ConversionCodeEEEJS3_EEEvDpT0_, symObjAddr: 0x35BC, symBinAddr: 0x2BBB4, symSize: 0x44 }
  - { offset: 0x16D170, size: 0x8, addend: 0x0, symName: __ZN5folly6detail9convertToIxdEENSt3__19enable_ifIXooaa13is_integral_vIT0_Esr3std17is_floating_pointIT_EE5valueaasr3std17is_floating_pointIS4_EE5value13is_integral_vIS5_EENS_8ExpectedIS5_NS_14ConversionCodeEEEE4typeERKS4_, symObjAddr: 0x5EC0, symBinAddr: 0x1977C, symSize: 0xD4 }
  - { offset: 0x16DF51, size: 0x8, addend: 0x0, symName: __ZN5folly8identityE, symObjAddr: 0xB7FD, symBinAddr: 0x2E81E, symSize: 0x0 }
  - { offset: 0x16F078, size: 0x8, addend: 0x0, symName: __ZN5folly2toINSt3__112basic_stringIcNS1_11char_traitsIcEENS1_9allocatorIcEEEEdEENS1_9enable_ifIXaasr12IsSomeStringIT_EE5valuesr3std17is_floating_pointIT0_EE5valueES9_E4typeESA_, symObjAddr: 0x3080, symBinAddr: 0x1736C, symSize: 0x54 }
  - { offset: 0x16F27B, size: 0x8, addend: 0x0, symName: __ZN5folly2toINSt3__112basic_stringIcNS1_11char_traitsIcEENS1_9allocatorIcEEEEJxELi0EEET_DpRKT0_, symObjAddr: 0x301C, symBinAddr: 0x17308, symSize: 0x64 }
  - { offset: 0x16F449, size: 0x8, addend: 0x0, symName: __ZN5folly2toINSt3__112basic_stringIcNS1_11char_traitsIcEENS1_9allocatorIcEEEEJbELi0EEET_DpRKT0_, symObjAddr: 0x30D4, symBinAddr: 0x173C0, symSize: 0x54 }
  - { offset: 0x16F623, size: 0x8, addend: 0x0, symName: __ZN5folly8toAppendINSt3__112basic_stringIcNS1_11char_traitsIcEENS1_9allocatorIcEEEExEENS1_9enable_ifIXaaaaaa13is_integral_vIT0_E11is_signed_vIS9_Esr12IsSomeStringIT_EE5valuegestS9_Li4EEvE4typeES9_PSA_, symObjAddr: 0x3178, symBinAddr: 0x17464, symSize: 0x84 }
  - { offset: 0x16F79D, size: 0x8, addend: 0x0, symName: __ZN5folly11toAppendFitIJbPNSt3__112basic_stringIcNS1_11char_traitsIcEENS1_9allocatorIcEEEEELi0EEEvDpRKT_, symObjAddr: 0x33E4, symBinAddr: 0x176D0, symSize: 0x78 }
  - { offset: 0x16F9B3, size: 0x8, addend: 0x0, symName: __ZN5folly13to_ascii_withILy10ENS_17to_ascii_alphabetILb0EEELm20EEEmRAT1__cy, symObjAddr: 0x31FC, symBinAddr: 0x174E8, symSize: 0xB8 }
  - { offset: 0x16FBD6, size: 0x8, addend: 0x0, symName: __ZN5folly15throw_exceptionINS_17BadExpectedAccessIvEEEEvOT_, symObjAddr: 0x34E0, symBinAddr: 0x2BB4C, symSize: 0x34 }
  - { offset: 0x16FC40, size: 0x8, addend: 0x0, symName: __ZN5folly15throw_exceptionINS_15ConversionErrorEEEvOT_, symObjAddr: 0x3538, symBinAddr: 0x2BB80, symSize: 0x34 }
  - { offset: 0x16FD4C, size: 0x8, addend: 0x0, symName: __ZN5folly15throw_exceptionINS_17BadExpectedAccessINS_14ConversionCodeEEEEEvOT_, symObjAddr: 0x3600, symBinAddr: 0x2BBF8, symSize: 0x44 }
  - { offset: 0x17051D, size: 0x8, addend: 0x0, symName: __ZN5folly2toIxdEENSt3__19enable_ifIXsr6detail14IsArithToArithIT_T0_EE5valueES3_E4typeERKS4_, symObjAddr: 0x5E78, symBinAddr: 0x19734, symSize: 0x48 }
  - { offset: 0x17063C, size: 0x8, addend: 0x0, symName: __ZN5folly2toINSt3__112basic_stringIcNS1_11char_traitsIcEENS1_9allocatorIcEEEEJA2_cPKcA3_cdELi0EEET_DpRKT0_, symObjAddr: 0x60A8, symBinAddr: 0x19964, symSize: 0x54 }
  - { offset: 0x170844, size: 0x8, addend: 0x0, symName: __ZN5folly11toAppendFitIJA2_cPKcA3_cdPNSt3__112basic_stringIcNS5_11char_traitsIcEENS5_9allocatorIcEEEEELi0EEEvDpRKT_, symObjAddr: 0x60FC, symBinAddr: 0x199B8, symSize: 0x64 }
  - { offset: 0x170ACA, size: 0x8, addend: 0x0, symName: __ZN5folly8toAppendINSt3__112basic_stringIcNS1_11char_traitsIcEENS1_9allocatorIcEEEEPKcEENS1_9enable_ifIXaasr3std14is_convertibleIT0_S9_EE5valuesr12IsSomeStringIT_EE5valueEvE4typeESB_PSC_, symObjAddr: 0x6298, symBinAddr: 0x19B54, symSize: 0x38 }
  - { offset: 0x170B68, size: 0x8, addend: 0x0, symName: __ZN5folly2toINSt3__112basic_stringIcNS1_11char_traitsIcEENS1_9allocatorIcEEEEJA2_cPKcA3_cbELi0EEET_DpRKT0_, symObjAddr: 0x63E4, symBinAddr: 0x19CA0, symSize: 0x54 }
  - { offset: 0x170D56, size: 0x8, addend: 0x0, symName: __ZN5folly11toAppendFitIJA2_cPKcA3_cbPNSt3__112basic_stringIcNS5_11char_traitsIcEENS5_9allocatorIcEEEEELi0EEEvDpRKT_, symObjAddr: 0x6438, symBinAddr: 0x19CF4, symSize: 0x64 }
  - { offset: 0x1717A5, size: 0x8, addend: 0x0, symName: __ZN5folly6detail18pretty_name_zarrayIxNS0_14pretty_tag_gccEE6zarrayE, symObjAddr: 0xB7FE, symBinAddr: 0x2E81F, symSize: 0x0 }
  - { offset: 0x17343F, size: 0x8, addend: 0x0, symName: __ZN8facebook5react18jsinspector_modern14NetworkIOAgent25handleLoadNetworkResourceERKNS1_3cdp16PreparsedRequestERNS1_27LoadNetworkResourceDelegateE, symObjAddr: 0x500, symBinAddr: 0x14CE4, symSize: 0xE54 }
  - { offset: 0x177E6E, size: 0x8, addend: 0x0, symName: __ZN8facebook5react18jsinspector_modern14NetworkIOAgent12handleIoReadERKNS1_3cdp16PreparsedRequestE, symObjAddr: 0x1354, symBinAddr: 0x15B38, symSize: 0x6B0 }
  - { offset: 0x17B47B, size: 0x8, addend: 0x0, symName: __ZN8facebook5react18jsinspector_modern14NetworkIOAgent13handleRequestERKNS1_3cdp16PreparsedRequestERNS1_27LoadNetworkResourceDelegateE, symObjAddr: 0x0, symBinAddr: 0x147E4, symSize: 0x480 }
  - { offset: 0x17C30B, size: 0x8, addend: 0x0, symName: __ZN8facebook5react18jsinspector_modern14NetworkIOAgent13handleIoCloseERKNS1_3cdp16PreparsedRequestE, symObjAddr: 0x1A04, symBinAddr: 0x161E8, symSize: 0x5E8 }
  - { offset: 0x17F337, size: 0x8, addend: 0x0, symName: __ZN8facebook5react18jsinspector_modern14NetworkIOAgent21handleGetResponseBodyERKNS1_3cdp16PreparsedRequestE, symObjAddr: 0x2024, symBinAddr: 0x167D0, symSize: 0x60C }
  - { offset: 0x17F342, size: 0x8, addend: 0x0, symName: __ZN8facebook5react18jsinspector_modern14NetworkIOAgent21handleGetResponseBodyERKNS1_3cdp16PreparsedRequestE, symObjAddr: 0x2024, symBinAddr: 0x167D0, symSize: 0x60C }
  - { offset: 0x18250E, size: 0x8, addend: 0x0, symName: __ZNSt3__112basic_stringIcNS_11char_traitsIcEENS_9allocatorIcEEE20__throw_out_of_rangeB8ne200100Ev, symObjAddr: 0x2A40, symBinAddr: 0x17184, symSize: 0x14 }
  - { offset: 0x182525, size: 0x8, addend: 0x0, symName: __ZNSt3__120__throw_out_of_rangeB8ne200100EPKc, symObjAddr: 0x2A54, symBinAddr: 0x17198, symSize: 0x50 }
  - { offset: 0x1850C1, size: 0x8, addend: 0x0, symName: __ZNK5folly7dynamic6asImplINSt3__112basic_stringIcNS2_11char_traitsIcEENS2_9allocatorIcEEEEEET_v, symObjAddr: 0x2F20, symBinAddr: 0x1720C, symSize: 0xFC }
  - { offset: 0x18577E, size: 0x8, addend: 0x0, symName: __ZNK5folly7dynamic6asImplIxEET_v, symObjAddr: 0x5D40, symBinAddr: 0x195FC, symSize: 0x138 }
  - { offset: 0x1857C1, size: 0x8, addend: 0x0, symName: __ZNSt3__118basic_stringstreamIcNS_11char_traitsIcEENS_9allocatorIcEEEC1B8ne200100Ev, symObjAddr: 0x368C, symBinAddr: 0x17848, symSize: 0x104 }
  - { offset: 0x18594F, size: 0x8, addend: 0x0, symName: __ZNSt3__123enable_shared_from_thisIN8facebook5react18jsinspector_modern12_GLOBAL__N_16StreamEE16shared_from_thisB8ne200100Ev, symObjAddr: 0x4144, symBinAddr: 0x1825C, symSize: 0x3C }
  - { offset: 0x1859BA, size: 0x8, addend: 0x0, symName: __ZN8facebook5react18jsinspector_modern12_GLOBAL__N_116InitStreamResultD1Ev, symObjAddr: 0x4180, symBinAddr: 0x18298, symSize: 0x34 }
  - { offset: 0x185B7A, size: 0x8, addend: 0x0, symName: __ZNSt3__110unique_ptrINS_11__hash_nodeINS_17__hash_value_typeINS_12basic_stringIcNS_11char_traitsIcEENS_9allocatorIcEEEENS_10shared_ptrIN8facebook5react18jsinspector_modern12_GLOBAL__N_16StreamEEEEEPvEENS_22__hash_node_destructorINS6_ISI_EEEEED1B8ne200100Ev, symObjAddr: 0x7378, symBinAddr: 0x1A504, symSize: 0x58 }
  - { offset: 0x185F38, size: 0x8, addend: 0x0, symName: __ZNSt3__118basic_stringstreamIcNS_11char_traitsIcEENS_9allocatorIcEEED1Ev, symObjAddr: 0x3790, symBinAddr: 0x1794C, symSize: 0x88 }
  - { offset: 0x18616C, size: 0x8, addend: 0x0, symName: '__ZZN8facebook5react18jsinspector_modern14NetworkIOAgent25handleLoadNetworkResourceERKNS1_3cdp16PreparsedRequestERNS1_27LoadNetworkResourceDelegateEEN3$_0D1Ev', symObjAddr: 0x2630, symBinAddr: 0x16DDC, symSize: 0x68 }
  - { offset: 0x18704F, size: 0x8, addend: 0x0, symName: __ZNK5folly7dynamic6asImplIxEET_v, symObjAddr: 0x5D40, symBinAddr: 0x195FC, symSize: 0x138 }
  - { offset: 0x187457, size: 0x8, addend: 0x0, symName: __ZN5folly2toIxdEENSt3__19enable_ifIXsr6detail14IsArithToArithIT_T0_EE5valueES3_E4typeERKS4_, symObjAddr: 0x5E78, symBinAddr: 0x19734, symSize: 0x48 }
  - { offset: 0x1875B4, size: 0x8, addend: 0x0, symName: __ZNSt3__110__function12__value_funcIFvNS_7variantIJKNS_12basic_stringIcNS_11char_traitsIcEENS_9allocatorIcEEEEN8facebook5react18jsinspector_modern12IOReadResultEEEEEEC2B8ne200100EOSG_, symObjAddr: 0x68AC, symBinAddr: 0x1A168, symSize: 0x64 }
  - { offset: 0x187602, size: 0x8, addend: 0x0, symName: __ZNSt3__16vectorINS_5tupleIJlNS_8functionIFvNS_7variantIJKNS_12basic_stringIcNS_11char_traitsIcEENS_9allocatorIcEEEEN8facebook5react18jsinspector_modern12IOReadResultEEEEEEEEEENS7_ISI_EEE24__emplace_back_slow_pathIJSI_EEEPSI_DpOT_, symObjAddr: 0x677C, symBinAddr: 0x1A038, symSize: 0x130 }
  - { offset: 0x187A08, size: 0x8, addend: 0x0, symName: __ZN8facebook5react18jsinspector_modern12_GLOBAL__N_16Stream14processPendingEv, symObjAddr: 0x4B70, symBinAddr: 0x18AB8, symSize: 0x64C }
  - { offset: 0x18A2A0, size: 0x8, addend: 0x0, symName: '__ZZN8facebook5react18jsinspector_modern14NetworkIOAgent12handleIoReadERKNS1_3cdp16PreparsedRequestEEN3$_0D1Ev', symObjAddr: 0x26F0, symBinAddr: 0x16E44, symSize: 0x68 }
  - { offset: 0x18AB14, size: 0x8, addend: 0x0, symName: __ZNSt3__18optionalINS_12basic_stringIcNS_11char_traitsIcEENS_9allocatorIcEEEEEaSB8ne200100IRA10_KcvEERS7_OT_, symObjAddr: 0x6B74, symBinAddr: 0x1A3D8, symSize: 0x40 }
  - { offset: 0x18AC4E, size: 0x8, addend: 0x0, symName: __ZNSt3__116__variant_detail6__dtorINS0_8__traitsIJKNS_12basic_stringIcNS_11char_traitsIcEENS_9allocatorIcEEEEN8facebook5react18jsinspector_modern12_GLOBAL__N_116InitStreamResultEEEELNS0_6_TraitE1EE9__destroyB8ne200100Ev, symObjAddr: 0x4ADC, symBinAddr: 0x18A24, symSize: 0x54 }
  - { offset: 0x18AD6C, size: 0x8, addend: 0x0, symName: __ZNSt3__110unique_ptrINS_8functionIFvNS_7variantIJKNS_12basic_stringIcNS_11char_traitsIcEENS_9allocatorIcEEEEN8facebook5react18jsinspector_modern12_GLOBAL__N_116InitStreamResultEEEEEEENS_14default_deleteISH_EEED1B8ne200100Ev, symObjAddr: 0x4008, symBinAddr: 0x1816C, symSize: 0x5C }
  - { offset: 0x18AE83, size: 0x8, addend: 0x0, symName: __ZNSt3__113unordered_mapINS_12basic_stringIcNS_11char_traitsIcEENS_9allocatorIcEEEENS_10shared_ptrIN8facebook5react18jsinspector_modern12_GLOBAL__N_16StreamEEENS_4hashIS6_EENS_8equal_toIS6_EENS4_INS_4pairIKS6_SD_EEEEE5eraseB8ne200100ERSJ_, symObjAddr: 0x2758, symBinAddr: 0x16EAC, symSize: 0x16C }
  - { offset: 0x18BFAE, size: 0x8, addend: 0x0, symName: __ZNK8facebook5react18jsinspector_modern21GetResponseBodyResult9toDynamicEv, symObjAddr: 0x28C4, symBinAddr: 0x17018, symSize: 0x16C }
  - { offset: 0x18C6BA, size: 0x8, addend: 0x0, symName: __ZNSt12out_of_rangeC1B8ne200100EPKc, symObjAddr: 0x2AA4, symBinAddr: 0x171E8, symSize: 0x24 }
  - { offset: 0x18D5EF, size: 0x8, addend: 0x0, symName: __ZN5folly17BadExpectedAccessIvED1Ev, symObjAddr: 0x3514, symBinAddr: 0x1778C, symSize: 0x4 }
  - { offset: 0x18D611, size: 0x8, addend: 0x0, symName: __ZN5folly17BadExpectedAccessIvED1Ev, symObjAddr: 0x3514, symBinAddr: 0x1778C, symSize: 0x4 }
  - { offset: 0x18D62B, size: 0x8, addend: 0x0, symName: __ZN5folly17BadExpectedAccessIvED0Ev, symObjAddr: 0x3518, symBinAddr: 0x17790, symSize: 0x14 }
  - { offset: 0x18D68E, size: 0x8, addend: 0x0, symName: __ZNK5folly17BadExpectedAccessIvE4whatEv, symObjAddr: 0x352C, symBinAddr: 0x177A4, symSize: 0xC }
  - { offset: 0x18D6DE, size: 0x8, addend: 0x0, symName: __ZN5folly15ConversionErrorC1EOS0_, symObjAddr: 0x3570, symBinAddr: 0x177B4, symSize: 0x38 }
  - { offset: 0x18D7C3, size: 0x8, addend: 0x0, symName: __ZN5folly15ConversionErrorD1Ev, symObjAddr: 0x356C, symBinAddr: 0x177B0, symSize: 0x4 }
  - { offset: 0x18D7E5, size: 0x8, addend: 0x0, symName: __ZN5folly15ConversionErrorD1Ev, symObjAddr: 0x356C, symBinAddr: 0x177B0, symSize: 0x4 }
  - { offset: 0x18D800, size: 0x8, addend: 0x0, symName: __ZN5folly15ConversionErrorD1Ev, symObjAddr: 0x356C, symBinAddr: 0x177B0, symSize: 0x4 }
  - { offset: 0x18D8A6, size: 0x8, addend: 0x0, symName: __ZN5folly15ConversionErrorD0Ev, symObjAddr: 0x35A8, symBinAddr: 0x177EC, symSize: 0x14 }
  - { offset: 0x18D9F4, size: 0x8, addend: 0x0, symName: __ZN5folly17BadExpectedAccessINS_14ConversionCodeEED1Ev, symObjAddr: 0x3644, symBinAddr: 0x17800, symSize: 0x4 }
  - { offset: 0x18DA16, size: 0x8, addend: 0x0, symName: __ZN5folly17BadExpectedAccessINS_14ConversionCodeEED1Ev, symObjAddr: 0x3644, symBinAddr: 0x17800, symSize: 0x4 }
  - { offset: 0x18DA31, size: 0x8, addend: 0x0, symName: __ZN5folly17BadExpectedAccessINS_14ConversionCodeEED1Ev, symObjAddr: 0x3644, symBinAddr: 0x17800, symSize: 0x4 }
  - { offset: 0x18DA4C, size: 0x8, addend: 0x0, symName: __ZN5folly17BadExpectedAccessINS_14ConversionCodeEED0Ev, symObjAddr: 0x3648, symBinAddr: 0x17804, symSize: 0x14 }
  - { offset: 0x18DAE6, size: 0x8, addend: 0x0, symName: __ZNK5folly8ExpectedINS_5RangeIPKcEENS_14ConversionCodeEE12requireValueEv, symObjAddr: 0x365C, symBinAddr: 0x17818, symSize: 0x30 }
  - { offset: 0x18DB6E, size: 0x8, addend: 0x0, symName: __ZNSt3__118basic_stringstreamIcNS_11char_traitsIcEENS_9allocatorIcEEEC1B8ne200100Ev, symObjAddr: 0x368C, symBinAddr: 0x17848, symSize: 0x104 }
  - { offset: 0x18DCAC, size: 0x8, addend: 0x0, symName: __ZNSt3__115basic_stringbufIcNS_11char_traitsIcEENS_9allocatorIcEEEC2B8ne200100Ej, symObjAddr: 0x3E64, symBinAddr: 0x17FC8, symSize: 0xA0 }
  - { offset: 0x18DF8A, size: 0x8, addend: 0x0, symName: __ZN8facebook5react18jsinspector_modern12_GLOBAL__N_16StreamD1Ev, symObjAddr: 0x3870, symBinAddr: 0x179D4, symSize: 0x178 }
  - { offset: 0x18E6CA, size: 0x8, addend: 0x0, symName: __ZNSt3__16vectorINS_5tupleIJlNS_8functionIFvNS_7variantIJKNS_12basic_stringIcNS_11char_traitsIcEENS_9allocatorIcEEEEN8facebook5react18jsinspector_modern12IOReadResultEEEEEEEEEENS7_ISI_EEE16__destroy_vectorclB8ne200100Ev, symObjAddr: 0x40B0, symBinAddr: 0x181C8, symSize: 0x94 }
  - { offset: 0x18E8FF, size: 0x8, addend: 0x0, symName: __ZN8facebook5react18jsinspector_modern12_GLOBAL__N_16StreamD0Ev, symObjAddr: 0x39E8, symBinAddr: 0x17B4C, symSize: 0x14 }
  - { offset: 0x18F04B, size: 0x8, addend: 0x0, symName: __ZN8facebook5react18jsinspector_modern12_GLOBAL__N_16Stream9onHeadersEjRKNSt3__13mapINS4_12basic_stringIcNS4_11char_traitsIcEENS4_9allocatorIcEEEESB_NS4_4lessISB_EENS9_INS4_4pairIKSB_SB_EEEEEE, symObjAddr: 0x39FC, symBinAddr: 0x17B60, symSize: 0x2F4 }
  - { offset: 0x190026, size: 0x8, addend: 0x0, symName: __ZNKSt3__112basic_stringIcNS_11char_traitsIcEENS_9allocatorIcEEE11starts_withB8ne200100EPKc, symObjAddr: 0x41B4, symBinAddr: 0x182CC, symSize: 0x50 }
  - { offset: 0x190214, size: 0x8, addend: 0x0, symName: __ZNSt3__13mapINS_12basic_stringIcNS_11char_traitsIcEENS_9allocatorIcEEEES6_NS_4lessIS6_EENS4_INS_4pairIKS6_S6_EEEEEC2B8ne200100ERKSD_, symObjAddr: 0x42B0, symBinAddr: 0x183C8, symSize: 0x54 }
  - { offset: 0x19037D, size: 0x8, addend: 0x0, symName: __ZNSt3__16__treeINS_12__value_typeINS_12basic_stringIcNS_11char_traitsIcEENS_9allocatorIcEEEES7_EENS_19__map_value_compareIS7_S8_NS_4lessIS7_EELb1EEENS5_IS8_EEE7destroyEPNS_11__tree_nodeIS8_PvEE, symObjAddr: 0x4A10, symBinAddr: 0x1898C, symSize: 0x48 }
  - { offset: 0x1904BA, size: 0x8, addend: 0x0, symName: __ZN8facebook5react18jsinspector_modern12_GLOBAL__N_116InitStreamResultD1Ev, symObjAddr: 0x4180, symBinAddr: 0x18298, symSize: 0x34 }
  - { offset: 0x190569, size: 0x8, addend: 0x0, symName: __ZN8facebook5react18jsinspector_modern12_GLOBAL__N_16Stream6onDataENSt3__117basic_string_viewIcNS4_11char_traitsIcEEEE, symObjAddr: 0x3CF0, symBinAddr: 0x17E54, symSize: 0x38 }
  - { offset: 0x19061D, size: 0x8, addend: 0x0, symName: __ZN8facebook5react18jsinspector_modern12_GLOBAL__N_16Stream7onErrorERKNSt3__112basic_stringIcNS4_11char_traitsIcEENS4_9allocatorIcEEEE, symObjAddr: 0x3D28, symBinAddr: 0x17E8C, symSize: 0x128 }
  - { offset: 0x19103F, size: 0x8, addend: 0x0, symName: __ZNSt3__18optionalINS_12basic_stringIcNS_11char_traitsIcEENS_9allocatorIcEEEEEaSB8ne200100IRKS6_vEERS7_OT_, symObjAddr: 0x59D4, symBinAddr: 0x194D8, symSize: 0x6C }
  - { offset: 0x1911A7, size: 0x8, addend: 0x0, symName: __ZN8facebook5react18jsinspector_modern12_GLOBAL__N_16Stream12onCompletionEv, symObjAddr: 0x3E50, symBinAddr: 0x17FB4, symSize: 0xC }
  - { offset: 0x1911E2, size: 0x8, addend: 0x0, symName: __ZN8facebook5react18jsinspector_modern12_GLOBAL__N_16Stream17setCancelFunctionENSt3__18functionIFvvEEE, symObjAddr: 0x3E5C, symBinAddr: 0x17FC0, symSize: 0x8 }
  - { offset: 0x19122E, size: 0x8, addend: 0x0, symName: __ZNSt3__18optionalINS_8functionIFvvEEEEaSB8ne200100IS3_vEERS4_OT_, symObjAddr: 0x5A40, symBinAddr: 0x19544, symSize: 0x4C }
  - { offset: 0x1913D1, size: 0x8, addend: 0x0, symName: __ZNSt3__115basic_stringbufIcNS_11char_traitsIcEENS_9allocatorIcEEE15__init_buf_ptrsB8ne200100Ev, symObjAddr: 0x3F04, symBinAddr: 0x18068, symSize: 0x104 }
  - { offset: 0x1919D4, size: 0x8, addend: 0x0, symName: __ZNKSt3__117basic_string_viewIcNS_11char_traitsIcEEE11starts_withB8ne200100ES3_, symObjAddr: 0x4204, symBinAddr: 0x1831C, symSize: 0x40 }
  - { offset: 0x191A56, size: 0x8, addend: 0x0, symName: __ZNKSt3__117basic_string_viewIcNS_11char_traitsIcEEE7compareB8ne200100EmmS3_, symObjAddr: 0x4244, symBinAddr: 0x1835C, symSize: 0x6C }
  - { offset: 0x191B6B, size: 0x8, addend: 0x0, symName: __ZNSt3__13mapINS_12basic_stringIcNS_11char_traitsIcEENS_9allocatorIcEEEES6_NS_4lessIS6_EENS4_INS_4pairIKS6_S6_EEEEEC2B8ne200100ERKSD_, symObjAddr: 0x42B0, symBinAddr: 0x183C8, symSize: 0x54 }
  - { offset: 0x191C7F, size: 0x8, addend: 0x0, symName: __ZNSt3__13mapINS_12basic_stringIcNS_11char_traitsIcEENS_9allocatorIcEEEES6_NS_4lessIS6_EENS4_INS_4pairIKS6_S6_EEEEE6insertB8ne200100INS_20__map_const_iteratorINS_21__tree_const_iteratorINS_12__value_typeIS6_S6_EEPNS_11__tree_nodeISI_PvEElEEEEEEvT_SP_, symObjAddr: 0x4304, symBinAddr: 0x1841C, symSize: 0x80 }
  - { offset: 0x191CC4, size: 0x8, addend: 0x0, symName: __ZNSt3__13mapINS_12basic_stringIcNS_11char_traitsIcEENS_9allocatorIcEEEES6_NS_4lessIS6_EENS4_INS_4pairIKS6_S6_EEEEE6insertB8ne200100INS_20__map_const_iteratorINS_21__tree_const_iteratorINS_12__value_typeIS6_S6_EEPNS_11__tree_nodeISI_PvEElEEEEEEvT_SP_, symObjAddr: 0x4304, symBinAddr: 0x1841C, symSize: 0x80 }
  - { offset: 0x191F42, size: 0x8, addend: 0x0, symName: __ZNSt3__16__treeINS_12__value_typeINS_12basic_stringIcNS_11char_traitsIcEENS_9allocatorIcEEEES7_EENS_19__map_value_compareIS7_S8_NS_4lessIS7_EELb1EEENS5_IS8_EEE30__emplace_hint_unique_key_argsIS7_JRKNS_4pairIKS7_S7_EEEEENSG_INS_15__tree_iteratorIS8_PNS_11__tree_nodeIS8_PvEElEEbEENS_21__tree_const_iteratorIS8_SP_lEERKT_DpOT0_, symObjAddr: 0x4384, symBinAddr: 0x1849C, symSize: 0x80 }
  - { offset: 0x19210E, size: 0x8, addend: 0x0, symName: __ZNSt3__16__treeINS_12__value_typeINS_12basic_stringIcNS_11char_traitsIcEENS_9allocatorIcEEEES7_EENS_19__map_value_compareIS7_S8_NS_4lessIS7_EELb1EEENS5_IS8_EEE12__find_equalIS7_EERPNS_16__tree_node_baseIPvEENS_21__tree_const_iteratorIS8_PNS_11__tree_nodeIS8_SH_EElEERPNS_15__tree_end_nodeISJ_EESK_RKT_, symObjAddr: 0x4404, symBinAddr: 0x1851C, symSize: 0x180 }
  - { offset: 0x1924CA, size: 0x8, addend: 0x0, symName: __ZNSt3__16__treeINS_12__value_typeINS_12basic_stringIcNS_11char_traitsIcEENS_9allocatorIcEEEES7_EENS_19__map_value_compareIS7_S8_NS_4lessIS7_EELb1EEENS5_IS8_EEE16__construct_nodeIJRKNS_4pairIKS7_S7_EEEEENS_10unique_ptrINS_11__tree_nodeIS8_PvEENS_22__tree_node_destructorINS5_ISO_EEEEEEDpOT_, symObjAddr: 0x4584, symBinAddr: 0x1869C, symSize: 0x68 }
  - { offset: 0x192711, size: 0x8, addend: 0x0, symName: __ZNSt3__16__treeINS_12__value_typeINS_12basic_stringIcNS_11char_traitsIcEENS_9allocatorIcEEEES7_EENS_19__map_value_compareIS7_S8_NS_4lessIS7_EELb1EEENS5_IS8_EEE16__insert_node_atEPNS_15__tree_end_nodeIPNS_16__tree_node_baseIPvEEEERSJ_SJ_, symObjAddr: 0x45EC, symBinAddr: 0x18704, symSize: 0x54 }
  - { offset: 0x19287F, size: 0x8, addend: 0x0, symName: __ZNSt3__16__treeINS_12__value_typeINS_12basic_stringIcNS_11char_traitsIcEENS_9allocatorIcEEEES7_EENS_19__map_value_compareIS7_S8_NS_4lessIS7_EELb1EEENS5_IS8_EEE12__find_equalIS7_EERPNS_16__tree_node_baseIPvEERPNS_15__tree_end_nodeISJ_EERKT_, symObjAddr: 0x4640, symBinAddr: 0x18758, symSize: 0x84 }
  - { offset: 0x192B6C, size: 0x8, addend: 0x0, symName: __ZNSt3__14pairIKNS_12basic_stringIcNS_11char_traitsIcEENS_9allocatorIcEEEES6_EC2B8ne200100ERKS8_, symObjAddr: 0x4758, symBinAddr: 0x18870, symSize: 0x90 }
  - { offset: 0x192D7F, size: 0x8, addend: 0x0, symName: __ZNSt3__110unique_ptrINS_11__tree_nodeINS_12__value_typeINS_12basic_stringIcNS_11char_traitsIcEENS_9allocatorIcEEEES8_EEPvEENS_22__tree_node_destructorINS6_ISB_EEEEE5resetB8ne200100EPSB_, symObjAddr: 0x4984, symBinAddr: 0x18900, symSize: 0x48 }
  - { offset: 0x19301B, size: 0x8, addend: 0x0, symName: __ZNSt3__116__variant_detail7__unionILNS0_6_TraitE1ELm0EJKNS_12basic_stringIcNS_11char_traitsIcEENS_9allocatorIcEEEEN8facebook5react18jsinspector_modern12_GLOBAL__N_116InitStreamResultEEEC1B8ne200100ILm1EJSE_EEENS_16in_place_index_tIXT_EEEDpOT0_, symObjAddr: 0x4A8C, symBinAddr: 0x189D4, symSize: 0x50 }
  - { offset: 0x19304A, size: 0x8, addend: 0x0, symName: __ZNSt3__116__variant_detail7__unionILNS0_6_TraitE1ELm0EJKNS_12basic_stringIcNS_11char_traitsIcEENS_9allocatorIcEEEEN8facebook5react18jsinspector_modern12_GLOBAL__N_116InitStreamResultEEEC1B8ne200100ILm1EJSE_EEENS_16in_place_index_tIXT_EEEDpOT0_, symObjAddr: 0x4A8C, symBinAddr: 0x189D4, symSize: 0x50 }
  - { offset: 0x19306D, size: 0x8, addend: 0x0, symName: __ZNSt3__116__variant_detail7__unionILNS0_6_TraitE1ELm0EJKNS_12basic_stringIcNS_11char_traitsIcEENS_9allocatorIcEEEEN8facebook5react18jsinspector_modern12_GLOBAL__N_116InitStreamResultEEEC1B8ne200100ILm1EJSE_EEENS_16in_place_index_tIXT_EEEDpOT0_, symObjAddr: 0x4A8C, symBinAddr: 0x189D4, symSize: 0x50 }
  - { offset: 0x193090, size: 0x8, addend: 0x0, symName: __ZNSt3__116__variant_detail7__unionILNS0_6_TraitE1ELm0EJKNS_12basic_stringIcNS_11char_traitsIcEENS_9allocatorIcEEEEN8facebook5react18jsinspector_modern12_GLOBAL__N_116InitStreamResultEEEC1B8ne200100ILm1EJSE_EEENS_16in_place_index_tIXT_EEEDpOT0_, symObjAddr: 0x4A8C, symBinAddr: 0x189D4, symSize: 0x50 }
  - { offset: 0x1930B3, size: 0x8, addend: 0x0, symName: __ZNSt3__116__variant_detail7__unionILNS0_6_TraitE1ELm0EJKNS_12basic_stringIcNS_11char_traitsIcEENS_9allocatorIcEEEEN8facebook5react18jsinspector_modern12_GLOBAL__N_116InitStreamResultEEEC1B8ne200100ILm1EJSE_EEENS_16in_place_index_tIXT_EEEDpOT0_, symObjAddr: 0x4A8C, symBinAddr: 0x189D4, symSize: 0x50 }
  - { offset: 0x1930D6, size: 0x8, addend: 0x0, symName: __ZNSt3__116__variant_detail7__unionILNS0_6_TraitE1ELm0EJKNS_12basic_stringIcNS_11char_traitsIcEENS_9allocatorIcEEEEN8facebook5react18jsinspector_modern12_GLOBAL__N_116InitStreamResultEEEC1B8ne200100ILm1EJSE_EEENS_16in_place_index_tIXT_EEEDpOT0_, symObjAddr: 0x4A8C, symBinAddr: 0x189D4, symSize: 0x50 }
  - { offset: 0x1930F9, size: 0x8, addend: 0x0, symName: __ZNSt3__116__variant_detail7__unionILNS0_6_TraitE1ELm0EJKNS_12basic_stringIcNS_11char_traitsIcEENS_9allocatorIcEEEEN8facebook5react18jsinspector_modern12_GLOBAL__N_116InitStreamResultEEEC1B8ne200100ILm1EJSE_EEENS_16in_place_index_tIXT_EEEDpOT0_, symObjAddr: 0x4A8C, symBinAddr: 0x189D4, symSize: 0x50 }
  - { offset: 0x19311C, size: 0x8, addend: 0x0, symName: __ZNSt3__116__variant_detail7__unionILNS0_6_TraitE1ELm0EJKNS_12basic_stringIcNS_11char_traitsIcEENS_9allocatorIcEEEEN8facebook5react18jsinspector_modern12_GLOBAL__N_116InitStreamResultEEEC1B8ne200100ILm1EJSE_EEENS_16in_place_index_tIXT_EEEDpOT0_, symObjAddr: 0x4A8C, symBinAddr: 0x189D4, symSize: 0x50 }
  - { offset: 0x1933BE, size: 0x8, addend: 0x0, symName: __ZNSt3__116__variant_detail12__visitation6__base12__dispatcherIJLm0EEE10__dispatchB8ne200100IOZNS0_6__dtorINS0_8__traitsIJKNS_12basic_stringIcNS_11char_traitsIcEENS_9allocatorIcEEEEN8facebook5react18jsinspector_modern12_GLOBAL__N_116InitStreamResultEEEELNS0_6_TraitE1EE9__destroyB8ne200100EvEUlRT_E_JRNS0_6__baseILSL_1EJSE_SJ_EEEEEEDcSN_DpT0_, symObjAddr: 0x4B30, symBinAddr: 0x18A78, symSize: 0x14 }
  - { offset: 0x193479, size: 0x8, addend: 0x0, symName: __ZNSt3__116__variant_detail12__visitation6__base12__dispatcherIJLm0EEE10__dispatchB8ne200100IOZNS0_6__dtorINS0_8__traitsIJKNS_12basic_stringIcNS_11char_traitsIcEENS_9allocatorIcEEEEN8facebook5react18jsinspector_modern12_GLOBAL__N_116InitStreamResultEEEELNS0_6_TraitE1EE9__destroyB8ne200100EvEUlRT_E_JRNS0_6__baseILSL_1EJSE_SJ_EEEEEEDcSN_DpT0_, symObjAddr: 0x4B30, symBinAddr: 0x18A78, symSize: 0x14 }
  - { offset: 0x1935B2, size: 0x8, addend: 0x0, symName: __ZNSt3__116__variant_detail12__visitation6__base12__dispatcherIJLm1EEE10__dispatchB8ne200100IOZNS0_6__dtorINS0_8__traitsIJKNS_12basic_stringIcNS_11char_traitsIcEENS_9allocatorIcEEEEN8facebook5react18jsinspector_modern12_GLOBAL__N_116InitStreamResultEEEELNS0_6_TraitE1EE9__destroyB8ne200100EvEUlRT_E_JRNS0_6__baseILSL_1EJSE_SJ_EEEEEEDcSN_DpT0_, symObjAddr: 0x4B44, symBinAddr: 0x18A8C, symSize: 0x2C }
  - { offset: 0x194580, size: 0x8, addend: 0x0, symName: __ZNSt3__16vectorIcNS_9allocatorIcEEEC2B8ne200100Em, symObjAddr: 0x56D0, symBinAddr: 0x19274, symSize: 0x70 }
  - { offset: 0x1947E2, size: 0x8, addend: 0x0, symName: __ZNSt3__16vectorIcNS_9allocatorIcEEE8__appendEm, symObjAddr: 0x5790, symBinAddr: 0x19320, symSize: 0xFC }
  - { offset: 0x194C79, size: 0x8, addend: 0x0, symName: __ZNSt3__112basic_stringIcNS_11char_traitsIcEENS_9allocatorIcEEE16__init_with_sizeB8ne200100INS_11__wrap_iterIPcEES9_EEvT_T0_m, symObjAddr: 0x588C, symBinAddr: 0x1941C, symSize: 0x9C }
  - { offset: 0x194C84, size: 0x8, addend: 0x0, symName: __ZNSt3__112basic_stringIcNS_11char_traitsIcEENS_9allocatorIcEEE16__init_with_sizeB8ne200100INS_11__wrap_iterIPcEES9_EEvT_T0_m, symObjAddr: 0x588C, symBinAddr: 0x1941C, symSize: 0x9C }
  - { offset: 0x194EFA, size: 0x8, addend: 0x0, symName: __ZNSt3__127__memberwise_forward_assignB8ne200100INS_5tupleIJlNS_8functionIFvNS_7variantIJKNS_12basic_stringIcNS_11char_traitsIcEENS_9allocatorIcEEEEN8facebook5react18jsinspector_modern12IOReadResultEEEEEEEEEESI_JlSH_EJLm0ELm1EEEEvRT_OT0_NS_13__tuple_typesIJDpT1_EEENS_15__tuple_indicesIJXspT2_EEEE, symObjAddr: 0x5928, symBinAddr: 0x194B8, symSize: 0x20 }
  - { offset: 0x195086, size: 0x8, addend: 0x0, symName: __ZNSt3__116__variant_detail6__dtorINS0_8__traitsIJKNS_12basic_stringIcNS_11char_traitsIcEENS_9allocatorIcEEEEN8facebook5react18jsinspector_modern12IOReadResultEEEELNS0_6_TraitE1EE9__destroyB8ne200100Ev, symObjAddr: 0x5560, symBinAddr: 0x19104, symSize: 0x54 }
  - { offset: 0x1955B2, size: 0x8, addend: 0x0, symName: __ZNSt3__116__variant_detail12__visitation6__base12__dispatcherIJLm0EEE10__dispatchB8ne200100IOZNS0_6__dtorINS0_8__traitsIJKNS_12basic_stringIcNS_11char_traitsIcEENS_9allocatorIcEEEEN8facebook5react18jsinspector_modern12IOReadResultEEEELNS0_6_TraitE1EE9__destroyB8ne200100EvEUlRT_E_JRNS0_6__baseILSK_1EJSE_SI_EEEEEEDcSM_DpT0_, symObjAddr: 0x55B4, symBinAddr: 0x19158, symSize: 0x14 }
  - { offset: 0x195682, size: 0x8, addend: 0x0, symName: __ZNSt3__116__variant_detail12__visitation6__base12__dispatcherIJLm0EEE10__dispatchB8ne200100IOZNS0_6__dtorINS0_8__traitsIJKNS_12basic_stringIcNS_11char_traitsIcEENS_9allocatorIcEEEEN8facebook5react18jsinspector_modern12IOReadResultEEEELNS0_6_TraitE1EE9__destroyB8ne200100EvEUlRT_E_JRNS0_6__baseILSK_1EJSE_SI_EEEEEEDcSM_DpT0_, symObjAddr: 0x55B4, symBinAddr: 0x19158, symSize: 0x14 }
  - { offset: 0x1957BB, size: 0x8, addend: 0x0, symName: __ZNSt3__116__variant_detail12__visitation6__base12__dispatcherIJLm1EEE10__dispatchB8ne200100IOZNS0_6__dtorINS0_8__traitsIJKNS_12basic_stringIcNS_11char_traitsIcEENS_9allocatorIcEEEEN8facebook5react18jsinspector_modern12IOReadResultEEEELNS0_6_TraitE1EE9__destroyB8ne200100EvEUlRT_E_JRNS0_6__baseILSK_1EJSE_SI_EEEEEEDcSM_DpT0_, symObjAddr: 0x55C8, symBinAddr: 0x1916C, symSize: 0x14 }
  - { offset: 0x1958B5, size: 0x8, addend: 0x0, symName: __ZNSt3__116__variant_detail12__visitation6__base12__dispatcherIJLm1EEE10__dispatchB8ne200100IOZNS0_6__dtorINS0_8__traitsIJKNS_12basic_stringIcNS_11char_traitsIcEENS_9allocatorIcEEEEN8facebook5react18jsinspector_modern12IOReadResultEEEELNS0_6_TraitE1EE9__destroyB8ne200100EvEUlRT_E_JRNS0_6__baseILSK_1EJSE_SI_EEEEEEDcSM_DpT0_, symObjAddr: 0x55C8, symBinAddr: 0x1916C, symSize: 0x14 }
  - { offset: 0x195AF4, size: 0x8, addend: 0x0, symName: __ZNSt3__16vectorIcNS_9allocatorIcEEE11__vallocateB8ne200100Em, symObjAddr: 0x5740, symBinAddr: 0x192E4, symSize: 0x3C }
  - { offset: 0x195BDE, size: 0x8, addend: 0x0, symName: __ZNSt3__16vectorIcNS_9allocatorIcEEE8__appendEm, symObjAddr: 0x5790, symBinAddr: 0x19320, symSize: 0xFC }
  - { offset: 0x19609F, size: 0x8, addend: 0x0, symName: __ZNSt3__120__shared_ptr_pointerIPN8facebook5react18jsinspector_modern12_GLOBAL__N_16StreamENS_10shared_ptrIS5_E27__shared_ptr_default_deleteIS5_S5_EENS_9allocatorIS5_EEED1Ev, symObjAddr: 0x5B7C, symBinAddr: 0x19590, symSize: 0x4 }
  - { offset: 0x1960C1, size: 0x8, addend: 0x0, symName: __ZNSt3__120__shared_ptr_pointerIPN8facebook5react18jsinspector_modern12_GLOBAL__N_16StreamENS_10shared_ptrIS5_E27__shared_ptr_default_deleteIS5_S5_EENS_9allocatorIS5_EEED1Ev, symObjAddr: 0x5B7C, symBinAddr: 0x19590, symSize: 0x4 }
  - { offset: 0x1960F7, size: 0x8, addend: 0x0, symName: __ZNSt3__120__shared_ptr_pointerIPN8facebook5react18jsinspector_modern12_GLOBAL__N_16StreamENS_10shared_ptrIS5_E27__shared_ptr_default_deleteIS5_S5_EENS_9allocatorIS5_EEED0Ev, symObjAddr: 0x5B80, symBinAddr: 0x19594, symSize: 0x14 }
  - { offset: 0x19615A, size: 0x8, addend: 0x0, symName: __ZNSt3__120__shared_ptr_pointerIPN8facebook5react18jsinspector_modern12_GLOBAL__N_16StreamENS_10shared_ptrIS5_E27__shared_ptr_default_deleteIS5_S5_EENS_9allocatorIS5_EEE16__on_zero_sharedEv, symObjAddr: 0x5B94, symBinAddr: 0x195A8, symSize: 0x18 }
  - { offset: 0x1961A9, size: 0x8, addend: 0x0, symName: __ZNKSt3__120__shared_ptr_pointerIPN8facebook5react18jsinspector_modern12_GLOBAL__N_16StreamENS_10shared_ptrIS5_E27__shared_ptr_default_deleteIS5_S5_EENS_9allocatorIS5_EEE13__get_deleterERKSt9type_info, symObjAddr: 0x5BAC, symBinAddr: 0x195C0, symSize: 0x38 }
  - { offset: 0x19629A, size: 0x8, addend: 0x0, symName: __ZNSt3__120__shared_ptr_pointerIPN8facebook5react18jsinspector_modern12_GLOBAL__N_16StreamENS_10shared_ptrIS5_E27__shared_ptr_default_deleteIS5_S5_EENS_9allocatorIS5_EEE21__on_zero_shared_weakEv, symObjAddr: 0x5BE4, symBinAddr: 0x195F8, symSize: 0x4 }
  - { offset: 0x1962CC, size: 0x8, addend: 0x0, symName: __ZNSt3__120__shared_ptr_pointerIPN8facebook5react18jsinspector_modern12_GLOBAL__N_16StreamENS_10shared_ptrIS5_E27__shared_ptr_default_deleteIS5_S5_EENS_9allocatorIS5_EEE21__on_zero_shared_weakEv, symObjAddr: 0x5BE4, symBinAddr: 0x195F8, symSize: 0x4 }
  - { offset: 0x1962ED, size: 0x8, addend: 0x0, symName: __ZNSt3__120__shared_ptr_pointerIPN8facebook5react18jsinspector_modern12_GLOBAL__N_16StreamENS_10shared_ptrIS5_E27__shared_ptr_default_deleteIS5_S5_EENS_9allocatorIS5_EEE21__on_zero_shared_weakEv, symObjAddr: 0x5BE4, symBinAddr: 0x195F8, symSize: 0x4 }
  - { offset: 0x196320, size: 0x8, addend: 0x0, symName: __ZNSt3__120__shared_ptr_pointerIPN8facebook5react18jsinspector_modern12_GLOBAL__N_16StreamENS_10shared_ptrIS5_E27__shared_ptr_default_deleteIS5_S5_EENS_9allocatorIS5_EEE21__on_zero_shared_weakEv, symObjAddr: 0x5BE4, symBinAddr: 0x195F8, symSize: 0x4 }
  - { offset: 0x1967C0, size: 0x8, addend: 0x0, symName: __ZN5folly15expected_detail30expected_detail_ExpectedHelper14ExpectedHelper12thenOrThrow_INS0_15ExpectedStorageIxNS_14ConversionCodeELNS0_11StorageTypeE0EEERKNS_11identity_fnEZNS_2toIxbEENSt3__19enable_ifIXsr6detail14IsArithToArithIT_T0_EE5valueESE_E4typeERKSF_EUlS5_E_OxNS_15ConversionErrorELb0ELi0EEET2_OSE_OSF_OT1_, symObjAddr: 0x62D0, symBinAddr: 0x19B8C, symSize: 0x60 }
  - { offset: 0x1968E7, size: 0x8, addend: 0x0, symName: __ZN5folly15expected_detail30expected_detail_ExpectedHelper14ExpectedHelper12thenOrThrow_IRNS0_15ExpectedStorageINS_5RangeIPKcEENS_14ConversionCodeELNS0_11StorageTypeE1EEENS_6detail18CheckTrailingSpaceEZNS_2toIxEENSt3__19enable_ifIXntsr3std7is_sameIS8_T_EE5valueESI_E4typeES8_EUlS9_E_NS_8ExpectedINS_4UnitES9_EEvLb0ELi0EEET2_OSI_OT0_OT1_, symObjAddr: 0x6628, symBinAddr: 0x19EE4, symSize: 0x2C }
  - { offset: 0x19693C, size: 0x8, addend: 0x0, symName: __ZNK5folly6detail18CheckTrailingSpaceclENS_5RangeIPKcEE, symObjAddr: 0x6654, symBinAddr: 0x19F10, symSize: 0x90 }
  - { offset: 0x196980, size: 0x8, addend: 0x0, symName: __ZNK5folly7dynamic6asImplIxEET_v.cold.1, symObjAddr: 0xA670, symBinAddr: 0x2BC3C, symSize: 0x24 }
  - { offset: 0x196A59, size: 0x8, addend: 0x0, symName: __ZN5folly15expected_detail30expected_detail_ExpectedHelper14ExpectedHelper12thenOrThrow_INS0_15ExpectedStorageIxNS_14ConversionCodeELNS0_11StorageTypeE0EEERKNS_11identity_fnEZNS_2toIxdEENSt3__19enable_ifIXsr6detail14IsArithToArithIT_T0_EE5valueESE_E4typeERKSF_EUlS5_E_OxNS_15ConversionErrorELb0ELi0EEET2_OSE_OSF_OT1_, symObjAddr: 0x5F94, symBinAddr: 0x19850, symSize: 0x60 }
  - { offset: 0x196BB8, size: 0x8, addend: 0x0, symName: __ZZN5folly2toIxdEENSt3__19enable_ifIXsr6detail14IsArithToArithIT_T0_EE5valueES3_E4typeERKS4_ENKUlNS_14ConversionCodeEE_clES9_, symObjAddr: 0x5FF4, symBinAddr: 0x198B0, symSize: 0xB4 }
  - { offset: 0x196F16, size: 0x8, addend: 0x0, symName: __ZN5folly6detail25EstimateSpaceToReserveAllINSt3__116integer_sequenceImJLm0ELm1ELm2ELm3ELm4EEEEE4callIJA2_cPKcA3_cdPNS2_12basic_stringIcNS2_11char_traitsIcEENS2_9allocatorIcEEEEEEEmDpRKT_, symObjAddr: 0x6160, symBinAddr: 0x19A1C, symSize: 0xB0 }
  - { offset: 0x1970AB, size: 0x8, addend: 0x0, symName: __ZN5folly6detail18ToAppendStrImplAllINSt3__116integer_sequenceImJLm0ELm1ELm2ELm3ELm4EEEEE4callIJA2_cPKcA3_cdPNS2_12basic_stringIcNS2_11char_traitsIcEENS2_9allocatorIcEEEEEEEvDpRKT_, symObjAddr: 0x6210, symBinAddr: 0x19ACC, symSize: 0x88 }
  - { offset: 0x1973CF, size: 0x8, addend: 0x0, symName: __ZZN5folly2toIxbEENSt3__19enable_ifIXsr6detail14IsArithToArithIT_T0_EE5valueES3_E4typeERKS4_ENKUlNS_14ConversionCodeEE_clES9_, symObjAddr: 0x6330, symBinAddr: 0x19BEC, symSize: 0xB4 }
  - { offset: 0x1976FD, size: 0x8, addend: 0x0, symName: __ZN5folly6detail25EstimateSpaceToReserveAllINSt3__116integer_sequenceImJLm0ELm1ELm2ELm3ELm4EEEEE4callIJA2_cPKcA3_cbPNS2_12basic_stringIcNS2_11char_traitsIcEENS2_9allocatorIcEEEEEEEmDpRKT_, symObjAddr: 0x649C, symBinAddr: 0x19D58, symSize: 0xC8 }
  - { offset: 0x1978FA, size: 0x8, addend: 0x0, symName: __ZN5folly6detail18ToAppendStrImplAllINSt3__116integer_sequenceImJLm0ELm1ELm2ELm3ELm4EEEEE4callIJA2_cPKcA3_cbPNS2_12basic_stringIcNS2_11char_traitsIcEENS2_9allocatorIcEEEEEEEvDpRKT_, symObjAddr: 0x6564, symBinAddr: 0x19E20, symSize: 0xC4 }
  - { offset: 0x197C26, size: 0x8, addend: 0x0, symName: __ZNK5folly6detail18CheckTrailingSpaceclENS_5RangeIPKcEE, symObjAddr: 0x6654, symBinAddr: 0x19F10, symSize: 0x90 }
  - { offset: 0x197C69, size: 0x8, addend: 0x0, symName: __ZNK5folly6detail18CheckTrailingSpaceclENS_5RangeIPKcEE, symObjAddr: 0x6654, symBinAddr: 0x19F10, symSize: 0x90 }
  - { offset: 0x197C83, size: 0x8, addend: 0x0, symName: __ZNK5folly6detail18CheckTrailingSpaceclENS_5RangeIPKcEE, symObjAddr: 0x6654, symBinAddr: 0x19F10, symSize: 0x90 }
  - { offset: 0x197D01, size: 0x8, addend: 0x0, symName: __ZN5folly15expected_detail30expected_detail_ExpectedHelper14ExpectedHelper12thenOrThrow_IRNS0_15ExpectedStorageINS_5RangeIPKcEENS_14ConversionCodeELNS0_11StorageTypeE1EEENS_6detail18CheckTrailingSpaceEZNS_2toIxEENSt3__19enable_ifIXntsr3std7is_sameIS8_T_EE5valueESI_E4typeES8_EUlS9_E_NS_8ExpectedINS_4UnitES9_EEvLb0ELi0EEET2_OSI_OT0_OT1_.cold.1, symObjAddr: 0xA694, symBinAddr: 0x2BC60, symSize: 0x28 }
  - { offset: 0x197D98, size: 0x8, addend: 0x0, symName: __ZZN5folly2toIxEENSt3__19enable_ifIXntsr3std7is_sameINS_5RangeIPKcEET_EE5valueES7_E4typeES6_ENKUlNS_14ConversionCodeEE_clESA_, symObjAddr: 0x66E4, symBinAddr: 0x19FA0, symSize: 0x48 }
  - { offset: 0x197E7D, size: 0x8, addend: 0x0, symName: __ZZN5folly2toIxEENSt3__19enable_ifIXntsr3std7is_sameINS_5RangeIPKcEET_EE5valueES7_E4typeES6_ENKUlNS_14ConversionCodeEE0_clESA_, symObjAddr: 0x672C, symBinAddr: 0x19FE8, symSize: 0x50 }
  - { offset: 0x19809E, size: 0x8, addend: 0x0, symName: __ZNSt3__114__split_bufferINS_5tupleIJlNS_8functionIFvNS_7variantIJKNS_12basic_stringIcNS_11char_traitsIcEENS_9allocatorIcEEEEN8facebook5react18jsinspector_modern12IOReadResultEEEEEEEEEERNS7_ISI_EEED2Ev, symObjAddr: 0x6AD4, symBinAddr: 0x1A338, symSize: 0x30 }
  - { offset: 0x19820A, size: 0x8, addend: 0x0, symName: __ZNSt3__128__exception_guard_exceptionsINS_29_AllocatorDestroyRangeReverseINS_9allocatorINS_5tupleIJlNS_8functionIFvNS_7variantIJKNS_12basic_stringIcNS_11char_traitsIcEENS2_IcEEEEN8facebook5react18jsinspector_modern12IOReadResultEEEEEEEEEEEEPSJ_EEED2B8ne200100Ev, symObjAddr: 0x6A40, symBinAddr: 0x1A2A4, symSize: 0x34 }
  - { offset: 0x198249, size: 0x8, addend: 0x0, symName: __ZNKSt3__129_AllocatorDestroyRangeReverseINS_9allocatorINS_5tupleIJlNS_8functionIFvNS_7variantIJKNS_12basic_stringIcNS_11char_traitsIcEENS1_IcEEEEN8facebook5react18jsinspector_modern12IOReadResultEEEEEEEEEEEEPSI_EclB8ne200100Ev, symObjAddr: 0x6A74, symBinAddr: 0x1A2D8, symSize: 0x60 }
  - { offset: 0x1983C2, size: 0x8, addend: 0x0, symName: __ZNSt3__114__split_bufferINS_5tupleIJlNS_8functionIFvNS_7variantIJKNS_12basic_stringIcNS_11char_traitsIcEENS_9allocatorIcEEEEN8facebook5react18jsinspector_modern12IOReadResultEEEEEEEEEERNS7_ISI_EEE5clearB8ne200100Ev, symObjAddr: 0x6B04, symBinAddr: 0x1A368, symSize: 0x70 }
  - { offset: 0x198647, size: 0x8, addend: 0x0, symName: __ZNSt3__112basic_stringIcNS_11char_traitsIcEENS_9allocatorIcEEE17__assign_externalEPKc, symObjAddr: 0x6C6C, symBinAddr: 0x1A4D0, symSize: 0x34 }
  - { offset: 0x198786, size: 0x8, addend: 0x0, symName: __ZNSt3__112basic_stringIcNS_11char_traitsIcEENS_9allocatorIcEEE17__assign_externalEPKcm, symObjAddr: 0x6BB4, symBinAddr: 0x1A418, symSize: 0xB8 }
  - { offset: 0x199403, size: 0x8, addend: 0x0, symName: '__ZNSt3__110__function6__funcIZN8facebook5react18jsinspector_modern14NetworkIOAgent25handleLoadNetworkResourceERKNS4_3cdp16PreparsedRequestERNS4_27LoadNetworkResourceDelegateEE3$_0NS_9allocatorISC_EEFvNS_7variantIJKNS_12basic_stringIcNS_11char_traitsIcEENSD_IcEEEENS4_12_GLOBAL__N_116InitStreamResultEEEEEED1Ev', symObjAddr: 0x73D0, symBinAddr: 0x1A55C, symSize: 0x74 }
  - { offset: 0x1996A7, size: 0x8, addend: 0x0, symName: '__ZNSt3__110__function6__funcIZN8facebook5react18jsinspector_modern14NetworkIOAgent25handleLoadNetworkResourceERKNS4_3cdp16PreparsedRequestERNS4_27LoadNetworkResourceDelegateEE3$_0NS_9allocatorISC_EEFvNS_7variantIJKNS_12basic_stringIcNS_11char_traitsIcEENSD_IcEEEENS4_12_GLOBAL__N_116InitStreamResultEEEEEED0Ev', symObjAddr: 0x7444, symBinAddr: 0x1A5D0, symSize: 0x74 }
  - { offset: 0x199B4C, size: 0x8, addend: 0x0, symName: '__ZNKSt3__110__function6__funcIZN8facebook5react18jsinspector_modern14NetworkIOAgent25handleLoadNetworkResourceERKNS4_3cdp16PreparsedRequestERNS4_27LoadNetworkResourceDelegateEE3$_0NS_9allocatorISC_EEFvNS_7variantIJKNS_12basic_stringIcNS_11char_traitsIcEENSD_IcEEEENS4_12_GLOBAL__N_116InitStreamResultEEEEEE7__cloneEv', symObjAddr: 0x74B8, symBinAddr: 0x1A644, symSize: 0xCC }
  - { offset: 0x19A084, size: 0x8, addend: 0x0, symName: '__ZNKSt3__110__function6__funcIZN8facebook5react18jsinspector_modern14NetworkIOAgent25handleLoadNetworkResourceERKNS4_3cdp16PreparsedRequestERNS4_27LoadNetworkResourceDelegateEE3$_0NS_9allocatorISC_EEFvNS_7variantIJKNS_12basic_stringIcNS_11char_traitsIcEENSD_IcEEEENS4_12_GLOBAL__N_116InitStreamResultEEEEEE7__cloneEPNS0_6__baseISP_EE', symObjAddr: 0x7584, symBinAddr: 0x1A710, symSize: 0xB0 }
  - { offset: 0x19A398, size: 0x8, addend: 0x0, symName: '__ZNSt3__110__function6__funcIZN8facebook5react18jsinspector_modern14NetworkIOAgent25handleLoadNetworkResourceERKNS4_3cdp16PreparsedRequestERNS4_27LoadNetworkResourceDelegateEE3$_0NS_9allocatorISC_EEFvNS_7variantIJKNS_12basic_stringIcNS_11char_traitsIcEENSD_IcEEEENS4_12_GLOBAL__N_116InitStreamResultEEEEEE7destroyEv', symObjAddr: 0x7634, symBinAddr: 0x1A7C0, symSize: 0x8 }
  - { offset: 0x19A3CD, size: 0x8, addend: 0x0, symName: '__ZNSt3__110__function12__alloc_funcIZN8facebook5react18jsinspector_modern14NetworkIOAgent25handleLoadNetworkResourceERKNS4_3cdp16PreparsedRequestERNS4_27LoadNetworkResourceDelegateEE3$_0NS_9allocatorISC_EEFvNS_7variantIJKNS_12basic_stringIcNS_11char_traitsIcEENSD_IcEEEENS4_12_GLOBAL__N_116InitStreamResultEEEEEE7destroyB8ne200100Ev', symObjAddr: 0x7EEC, symBinAddr: 0x1B014, symSize: 0x6C }
  - { offset: 0x19A5CC, size: 0x8, addend: 0x0, symName: '__ZNSt3__110__function6__funcIZN8facebook5react18jsinspector_modern14NetworkIOAgent25handleLoadNetworkResourceERKNS4_3cdp16PreparsedRequestERNS4_27LoadNetworkResourceDelegateEE3$_0NS_9allocatorISC_EEFvNS_7variantIJKNS_12basic_stringIcNS_11char_traitsIcEENSD_IcEEEENS4_12_GLOBAL__N_116InitStreamResultEEEEEE18destroy_deallocateEv', symObjAddr: 0x763C, symBinAddr: 0x1A7C8, symSize: 0x28 }
  - { offset: 0x19B86B, size: 0x8, addend: 0x0, symName: '__ZNSt3__110__function6__funcIZN8facebook5react18jsinspector_modern14NetworkIOAgent25handleLoadNetworkResourceERKNS4_3cdp16PreparsedRequestERNS4_27LoadNetworkResourceDelegateEE3$_0NS_9allocatorISC_EEFvNS_7variantIJKNS_12basic_stringIcNS_11char_traitsIcEENSD_IcEEEENS4_12_GLOBAL__N_116InitStreamResultEEEEEEclEOSO_', symObjAddr: 0x7664, symBinAddr: 0x1A7F0, symSize: 0x7DC }
  - { offset: 0x19ECC4, size: 0x8, addend: 0x0, symName: __ZNSt3__123__optional_storage_baseINS_12basic_stringIcNS_11char_traitsIcEENS_9allocatorIcEEEELb0EE13__assign_fromB8ne200100INS_27__optional_move_assign_baseIS6_Lb0EEEEEvOT_, symObjAddr: 0x858C, symBinAddr: 0x1B6B4, symSize: 0x9C }
  - { offset: 0x19F032, size: 0x8, addend: 0x0, symName: __ZNSt3__123__optional_storage_baseINS_3mapINS_12basic_stringIcNS_11char_traitsIcEENS_9allocatorIcEEEES7_NS_4lessIS7_EENS5_INS_4pairIKS7_S7_EEEEEELb0EE13__assign_fromB8ne200100INS_27__optional_move_assign_baseISE_Lb0EEEEEvOT_, symObjAddr: 0x8628, symBinAddr: 0x1B750, symSize: 0x98 }
  - { offset: 0x19F2A5, size: 0x8, addend: 0x0, symName: __ZNK8facebook5react18jsinspector_modern15NetworkResource9toDynamicEv, symObjAddr: 0x7FC8, symBinAddr: 0x1B0F0, symSize: 0x5C4 }
  - { offset: 0x1A1491, size: 0x8, addend: 0x0, symName: __ZN8facebook5react18jsinspector_modern15NetworkResourceD1Ev, symObjAddr: 0x7F58, symBinAddr: 0x1B080, symSize: 0x70 }
  - { offset: 0x1A19EE, size: 0x8, addend: 0x0, symName: '__ZNKSt3__110__function6__funcIZN8facebook5react18jsinspector_modern14NetworkIOAgent25handleLoadNetworkResourceERKNS4_3cdp16PreparsedRequestERNS4_27LoadNetworkResourceDelegateEE3$_0NS_9allocatorISC_EEFvNS_7variantIJKNS_12basic_stringIcNS_11char_traitsIcEENSD_IcEEEENS4_12_GLOBAL__N_116InitStreamResultEEEEEE6targetERKSt9type_info', symObjAddr: 0x7E40, symBinAddr: 0x1AFCC, symSize: 0x3C }
  - { offset: 0x1A1A3A, size: 0x8, addend: 0x0, symName: '__ZNKSt3__110__function6__funcIZN8facebook5react18jsinspector_modern14NetworkIOAgent25handleLoadNetworkResourceERKNS4_3cdp16PreparsedRequestERNS4_27LoadNetworkResourceDelegateEE3$_0NS_9allocatorISC_EEFvNS_7variantIJKNS_12basic_stringIcNS_11char_traitsIcEENSD_IcEEEENS4_12_GLOBAL__N_116InitStreamResultEEEEEE11target_typeEv', symObjAddr: 0x7E7C, symBinAddr: 0x1B008, symSize: 0xC }
  - { offset: 0x1A1C5F, size: 0x8, addend: 0x0, symName: __ZNSt3__116__variant_detail12__visitation6__base12__dispatcherIJLm0EEE10__dispatchB8ne200100IOZNS0_6__ctorINS0_8__traitsIJKNS_12basic_stringIcNS_11char_traitsIcEENS_9allocatorIcEEEEN8facebook5react18jsinspector_modern12_GLOBAL__N_116InitStreamResultEEEEE19__generic_constructB8ne200100INS0_18__move_constructorISK_LNS0_6_TraitE1EEEEEvRSL_OT_EUlSS_E_JONS0_6__baseILSO_1EJSE_SJ_EEEEEEDcSR_DpT0_, symObjAddr: 0x8CE4, symBinAddr: 0x1B850, symSize: 0x2C }
  - { offset: 0x1A1D3A, size: 0x8, addend: 0x0, symName: __ZNSt3__16__treeINS_12__value_typeINS_12basic_stringIcNS_11char_traitsIcEENS_9allocatorIcEEEES7_EENS_19__map_value_compareIS7_S8_NS_4lessIS7_EELb1EEENS5_IS8_EEE13__move_assignERSE_NS_17integral_constantIbLb1EEE, symObjAddr: 0x86C0, symBinAddr: 0x1B7E8, symSize: 0x68 }
  - { offset: 0x1A2E9C, size: 0x8, addend: 0x0, symName: __ZNSt3__116__variant_detail12__visitation6__base12__dispatcherIJLm0EEE10__dispatchB8ne200100IOZNS0_6__ctorINS0_8__traitsIJKNS_12basic_stringIcNS_11char_traitsIcEENS_9allocatorIcEEEEN8facebook5react18jsinspector_modern12_GLOBAL__N_116InitStreamResultEEEEE19__generic_constructB8ne200100INS0_18__move_constructorISK_LNS0_6_TraitE1EEEEEvRSL_OT_EUlSS_E_JONS0_6__baseILSO_1EJSE_SJ_EEEEEEDcSR_DpT0_, symObjAddr: 0x8CE4, symBinAddr: 0x1B850, symSize: 0x2C }
  - { offset: 0x1A309C, size: 0x8, addend: 0x0, symName: __ZNSt3__116__variant_detail12__visitation6__base12__dispatcherIJLm1EEE10__dispatchB8ne200100IOZNS0_6__ctorINS0_8__traitsIJKNS_12basic_stringIcNS_11char_traitsIcEENS_9allocatorIcEEEEN8facebook5react18jsinspector_modern12_GLOBAL__N_116InitStreamResultEEEEE19__generic_constructB8ne200100INS0_18__move_constructorISK_LNS0_6_TraitE1EEEEEvRSL_OT_EUlSS_E_JONS0_6__baseILSO_1EJSE_SJ_EEEEEEDcSR_DpT0_, symObjAddr: 0x8D10, symBinAddr: 0x1B87C, symSize: 0x8 }
  - { offset: 0x1A30D2, size: 0x8, addend: 0x0, symName: __ZNSt3__116__variant_detail12__visitation6__base12__dispatcherIJLm1EEE10__dispatchB8ne200100IOZNS0_6__ctorINS0_8__traitsIJKNS_12basic_stringIcNS_11char_traitsIcEENS_9allocatorIcEEEEN8facebook5react18jsinspector_modern12_GLOBAL__N_116InitStreamResultEEEEE19__generic_constructB8ne200100INS0_18__move_constructorISK_LNS0_6_TraitE1EEEEEvRSL_OT_EUlSS_E_JONS0_6__baseILSO_1EJSE_SJ_EEEEEEDcSR_DpT0_, symObjAddr: 0x8D10, symBinAddr: 0x1B87C, symSize: 0x8 }
  - { offset: 0x1A30F7, size: 0x8, addend: 0x0, symName: __ZNSt3__116__variant_detail12__visitation6__base12__dispatcherIJLm1EEE10__dispatchB8ne200100IOZNS0_6__ctorINS0_8__traitsIJKNS_12basic_stringIcNS_11char_traitsIcEENS_9allocatorIcEEEEN8facebook5react18jsinspector_modern12_GLOBAL__N_116InitStreamResultEEEEE19__generic_constructB8ne200100INS0_18__move_constructorISK_LNS0_6_TraitE1EEEEEvRSL_OT_EUlSS_E_JONS0_6__baseILSO_1EJSE_SJ_EEEEEEDcSR_DpT0_, symObjAddr: 0x8D10, symBinAddr: 0x1B87C, symSize: 0x8 }
  - { offset: 0x1A31E1, size: 0x8, addend: 0x0, symName: __ZNSt3__110__function6__funcIZN8facebook5react18jsinspector_modern18makeScopedExecutorINS4_12_GLOBAL__N_16StreamEEENS_8functionIFvONS8_IFvRT_EEEEEENS_10shared_ptrIS9_EENS8_IFvONS8_IFvvEEEEEEEUlOS9_E_NS_9allocatorISO_EEFvONS8_IFvRS7_EEEEED1Ev, symObjAddr: 0x8D70, symBinAddr: 0x1B884, symSize: 0x64 }
  - { offset: 0x1A337A, size: 0x8, addend: 0x0, symName: __ZNSt3__110__function6__funcIZN8facebook5react18jsinspector_modern18makeScopedExecutorINS4_12_GLOBAL__N_16StreamEEENS_8functionIFvONS8_IFvRT_EEEEEENS_10shared_ptrIS9_EENS8_IFvONS8_IFvvEEEEEEEUlOS9_E_NS_9allocatorISO_EEFvONS8_IFvRS7_EEEEED0Ev, symObjAddr: 0x8DD4, symBinAddr: 0x1B8E8, symSize: 0x64 }
  - { offset: 0x1A3798, size: 0x8, addend: 0x0, symName: __ZNKSt3__110__function6__funcIZN8facebook5react18jsinspector_modern18makeScopedExecutorINS4_12_GLOBAL__N_16StreamEEENS_8functionIFvONS8_IFvRT_EEEEEENS_10shared_ptrIS9_EENS8_IFvONS8_IFvvEEEEEEEUlOS9_E_NS_9allocatorISO_EEFvONS8_IFvRS7_EEEEE7__cloneEv, symObjAddr: 0x8E38, symBinAddr: 0x1B94C, symSize: 0x84 }
  - { offset: 0x1A3BC6, size: 0x8, addend: 0x0, symName: __ZNKSt3__110__function6__funcIZN8facebook5react18jsinspector_modern18makeScopedExecutorINS4_12_GLOBAL__N_16StreamEEENS_8functionIFvONS8_IFvRT_EEEEEENS_10shared_ptrIS9_EENS8_IFvONS8_IFvvEEEEEEEUlOS9_E_NS_9allocatorISO_EEFvONS8_IFvRS7_EEEEE7__cloneEPNS0_6__baseISV_EE, symObjAddr: 0x8EBC, symBinAddr: 0x1B9D0, symSize: 0x70 }
  - { offset: 0x1A3DEE, size: 0x8, addend: 0x0, symName: __ZNSt3__110__function6__funcIZN8facebook5react18jsinspector_modern18makeScopedExecutorINS4_12_GLOBAL__N_16StreamEEENS_8functionIFvONS8_IFvRT_EEEEEENS_10shared_ptrIS9_EENS8_IFvONS8_IFvvEEEEEEEUlOS9_E_NS_9allocatorISO_EEFvONS8_IFvRS7_EEEEE7destroyEv, symObjAddr: 0x8F2C, symBinAddr: 0x1BA40, symSize: 0x8 }
  - { offset: 0x1A3EC8, size: 0x8, addend: 0x0, symName: __ZNSt3__110__function6__funcIZN8facebook5react18jsinspector_modern18makeScopedExecutorINS4_12_GLOBAL__N_16StreamEEENS_8functionIFvONS8_IFvRT_EEEEEENS_10shared_ptrIS9_EENS8_IFvONS8_IFvvEEEEEEEUlOS9_E_NS_9allocatorISO_EEFvONS8_IFvRS7_EEEEE18destroy_deallocateEv, symObjAddr: 0x8F34, symBinAddr: 0x1BA48, symSize: 0x28 }
  - { offset: 0x1A43AC, size: 0x8, addend: 0x0, symName: __ZNSt3__110__function6__funcIZN8facebook5react18jsinspector_modern18makeScopedExecutorINS4_12_GLOBAL__N_16StreamEEENS_8functionIFvONS8_IFvRT_EEEEEENS_10shared_ptrIS9_EENS8_IFvONS8_IFvvEEEEEEEUlOS9_E_NS_9allocatorISO_EEFvONS8_IFvRS7_EEEEEclESU_, symObjAddr: 0x8F5C, symBinAddr: 0x1BA70, symSize: 0x188 }
  - { offset: 0x1A49B6, size: 0x8, addend: 0x0, symName: __ZNSt3__18functionIFvRN8facebook5react18jsinspector_modern12_GLOBAL__N_16StreamEEEC1EOS8_, symObjAddr: 0x91EC, symBinAddr: 0x1BC40, symSize: 0x64 }
  - { offset: 0x1A4AFA, size: 0x8, addend: 0x0, symName: __ZNKSt3__110__function6__funcIZN8facebook5react18jsinspector_modern18makeScopedExecutorINS4_12_GLOBAL__N_16StreamEEENS_8functionIFvONS8_IFvRT_EEEEEENS_10shared_ptrIS9_EENS8_IFvONS8_IFvvEEEEEEEUlOS9_E_NS_9allocatorISO_EEFvONS8_IFvRS7_EEEEE6targetERKSt9type_info, symObjAddr: 0x90E4, symBinAddr: 0x1BBF8, symSize: 0x3C }
  - { offset: 0x1A4B46, size: 0x8, addend: 0x0, symName: __ZNKSt3__110__function6__funcIZN8facebook5react18jsinspector_modern18makeScopedExecutorINS4_12_GLOBAL__N_16StreamEEENS_8functionIFvONS8_IFvRT_EEEEEENS_10shared_ptrIS9_EENS8_IFvONS8_IFvvEEEEEEEUlOS9_E_NS_9allocatorISO_EEFvONS8_IFvRS7_EEEEE11target_typeEv, symObjAddr: 0x9120, symBinAddr: 0x1BC34, symSize: 0xC }
  - { offset: 0x1A4C35, size: 0x8, addend: 0x0, symName: __ZNSt3__110__function6__funcIZZN8facebook5react18jsinspector_modern18makeScopedExecutorINS4_12_GLOBAL__N_16StreamEEENS_8functionIFvONS8_IFvRT_EEEEEENS_10shared_ptrIS9_EENS8_IFvONS8_IFvvEEEEEEENKUlOS9_E_clINS8_IFvRS7_EEEEEDaSN_EUlvE_NS_9allocatorISU_EESI_ED1Ev, symObjAddr: 0x92A8, symBinAddr: 0x1BCA4, symSize: 0x64 }
  - { offset: 0x1A4DCE, size: 0x8, addend: 0x0, symName: __ZNSt3__110__function6__funcIZZN8facebook5react18jsinspector_modern18makeScopedExecutorINS4_12_GLOBAL__N_16StreamEEENS_8functionIFvONS8_IFvRT_EEEEEENS_10shared_ptrIS9_EENS8_IFvONS8_IFvvEEEEEEENKUlOS9_E_clINS8_IFvRS7_EEEEEDaSN_EUlvE_NS_9allocatorISU_EESI_ED0Ev, symObjAddr: 0x930C, symBinAddr: 0x1BD08, symSize: 0x64 }
  - { offset: 0x1A523A, size: 0x8, addend: 0x0, symName: __ZNKSt3__110__function6__funcIZZN8facebook5react18jsinspector_modern18makeScopedExecutorINS4_12_GLOBAL__N_16StreamEEENS_8functionIFvONS8_IFvRT_EEEEEENS_10shared_ptrIS9_EENS8_IFvONS8_IFvvEEEEEEENKUlOS9_E_clINS8_IFvRS7_EEEEEDaSN_EUlvE_NS_9allocatorISU_EESI_E7__cloneEv, symObjAddr: 0x9370, symBinAddr: 0x1BD6C, symSize: 0xB4 }
  - { offset: 0x1A56AE, size: 0x8, addend: 0x0, symName: __ZNKSt3__110__function6__funcIZZN8facebook5react18jsinspector_modern18makeScopedExecutorINS4_12_GLOBAL__N_16StreamEEENS_8functionIFvONS8_IFvRT_EEEEEENS_10shared_ptrIS9_EENS8_IFvONS8_IFvvEEEEEEENKUlOS9_E_clINS8_IFvRS7_EEEEEDaSN_EUlvE_NS_9allocatorISU_EESI_E7__cloneEPNS0_6__baseISI_EE, symObjAddr: 0x9424, symBinAddr: 0x1BE20, symSize: 0xAC }
  - { offset: 0x1A5922, size: 0x8, addend: 0x0, symName: __ZNSt3__110__function6__funcIZZN8facebook5react18jsinspector_modern18makeScopedExecutorINS4_12_GLOBAL__N_16StreamEEENS_8functionIFvONS8_IFvRT_EEEEEENS_10shared_ptrIS9_EENS8_IFvONS8_IFvvEEEEEEENKUlOS9_E_clINS8_IFvRS7_EEEEEDaSN_EUlvE_NS_9allocatorISU_EESI_E7destroyEv, symObjAddr: 0x94D0, symBinAddr: 0x1BECC, symSize: 0x8 }
  - { offset: 0x1A59FC, size: 0x8, addend: 0x0, symName: __ZNSt3__110__function6__funcIZZN8facebook5react18jsinspector_modern18makeScopedExecutorINS4_12_GLOBAL__N_16StreamEEENS_8functionIFvONS8_IFvRT_EEEEEENS_10shared_ptrIS9_EENS8_IFvONS8_IFvvEEEEEEENKUlOS9_E_clINS8_IFvRS7_EEEEEDaSN_EUlvE_NS_9allocatorISU_EESI_E18destroy_deallocateEv, symObjAddr: 0x94D8, symBinAddr: 0x1BED4, symSize: 0x28 }
  - { offset: 0x1A5BA1, size: 0x8, addend: 0x0, symName: __ZNSt3__110__function6__funcIZZN8facebook5react18jsinspector_modern18makeScopedExecutorINS4_12_GLOBAL__N_16StreamEEENS_8functionIFvONS8_IFvRT_EEEEEENS_10shared_ptrIS9_EENS8_IFvONS8_IFvvEEEEEEENKUlOS9_E_clINS8_IFvRS7_EEEEEDaSN_EUlvE_NS_9allocatorISU_EESI_EclEv, symObjAddr: 0x9500, symBinAddr: 0x1BEFC, symSize: 0xB4 }
  - { offset: 0x1A5D62, size: 0x8, addend: 0x0, symName: __ZNKSt3__110__function6__funcIZZN8facebook5react18jsinspector_modern18makeScopedExecutorINS4_12_GLOBAL__N_16StreamEEENS_8functionIFvONS8_IFvRT_EEEEEENS_10shared_ptrIS9_EENS8_IFvONS8_IFvvEEEEEEENKUlOS9_E_clINS8_IFvRS7_EEEEEDaSN_EUlvE_NS_9allocatorISU_EESI_E6targetERKSt9type_info, symObjAddr: 0x95B4, symBinAddr: 0x1BFB0, symSize: 0x3C }
  - { offset: 0x1A5DAE, size: 0x8, addend: 0x0, symName: __ZNKSt3__110__function6__funcIZZN8facebook5react18jsinspector_modern18makeScopedExecutorINS4_12_GLOBAL__N_16StreamEEENS_8functionIFvONS8_IFvRT_EEEEEENS_10shared_ptrIS9_EENS8_IFvONS8_IFvvEEEEEEENKUlOS9_E_clINS8_IFvRS7_EEEEEDaSN_EUlvE_NS_9allocatorISU_EESI_E11target_typeEv, symObjAddr: 0x95F0, symBinAddr: 0x1BFEC, symSize: 0xC }
  - { offset: 0x1A5E26, size: 0x8, addend: 0x0, symName: __ZNSt3__110__function6__funcINS_8functionIFvONS2_IFvRN8facebook5react18jsinspector_modern12_GLOBAL__N_16StreamEEEEEEENS_9allocatorISD_EEFvONS2_IFvRNS5_22NetworkRequestListenerEEEEEED1Ev, symObjAddr: 0x9658, symBinAddr: 0x1BFF8, symSize: 0x58 }
  - { offset: 0x1A5F46, size: 0x8, addend: 0x0, symName: __ZNSt3__110__function6__funcINS_8functionIFvONS2_IFvRN8facebook5react18jsinspector_modern12_GLOBAL__N_16StreamEEEEEEENS_9allocatorISD_EEFvONS2_IFvRNS5_22NetworkRequestListenerEEEEEED0Ev, symObjAddr: 0x96B0, symBinAddr: 0x1C050, symSize: 0x58 }
  - { offset: 0x1A6257, size: 0x8, addend: 0x0, symName: __ZNKSt3__110__function6__funcINS_8functionIFvONS2_IFvRN8facebook5react18jsinspector_modern12_GLOBAL__N_16StreamEEEEEEENS_9allocatorISD_EEFvONS2_IFvRNS5_22NetworkRequestListenerEEEEEE7__cloneEv, symObjAddr: 0x9708, symBinAddr: 0x1C0A8, symSize: 0x54 }
  - { offset: 0x1A65B6, size: 0x8, addend: 0x0, symName: __ZNKSt3__110__function6__funcINS_8functionIFvONS2_IFvRN8facebook5react18jsinspector_modern12_GLOBAL__N_16StreamEEEEEEENS_9allocatorISD_EEFvONS2_IFvRNS5_22NetworkRequestListenerEEEEEE7__cloneEPNS0_6__baseISL_EE, symObjAddr: 0x975C, symBinAddr: 0x1C0FC, symSize: 0x1C }
  - { offset: 0x1A667A, size: 0x8, addend: 0x0, symName: __ZNSt3__110__function6__funcINS_8functionIFvONS2_IFvRN8facebook5react18jsinspector_modern12_GLOBAL__N_16StreamEEEEEEENS_9allocatorISD_EEFvONS2_IFvRNS5_22NetworkRequestListenerEEEEEE7destroyEv, symObjAddr: 0x9778, symBinAddr: 0x1C118, symSize: 0x30 }
  - { offset: 0x1A6747, size: 0x8, addend: 0x0, symName: __ZNSt3__110__function6__funcINS_8functionIFvONS2_IFvRN8facebook5react18jsinspector_modern12_GLOBAL__N_16StreamEEEEEEENS_9allocatorISD_EEFvONS2_IFvRNS5_22NetworkRequestListenerEEEEEE18destroy_deallocateEv, symObjAddr: 0x97A8, symBinAddr: 0x1C148, symSize: 0x4C }
  - { offset: 0x1A6CEA, size: 0x8, addend: 0x0, symName: __ZNSt3__110__function6__funcINS_8functionIFvONS2_IFvRN8facebook5react18jsinspector_modern12_GLOBAL__N_16StreamEEEEEEENS_9allocatorISD_EEFvONS2_IFvRNS5_22NetworkRequestListenerEEEEEEclESK_, symObjAddr: 0x97F4, symBinAddr: 0x1C194, symSize: 0x178 }
  - { offset: 0x1A731C, size: 0x8, addend: 0x0, symName: __ZNSt3__110__function12__value_funcIFvRN8facebook5react18jsinspector_modern22NetworkRequestListenerEEEC2B8ne200100EOS8_, symObjAddr: 0x9A18, symBinAddr: 0x1C354, symSize: 0x64 }
  - { offset: 0x1A736A, size: 0x8, addend: 0x0, symName: __ZNKSt3__110__function6__funcINS_8functionIFvONS2_IFvRN8facebook5react18jsinspector_modern12_GLOBAL__N_16StreamEEEEEEENS_9allocatorISD_EEFvONS2_IFvRNS5_22NetworkRequestListenerEEEEEE6targetERKSt9type_info, symObjAddr: 0x996C, symBinAddr: 0x1C30C, symSize: 0x3C }
  - { offset: 0x1A73B6, size: 0x8, addend: 0x0, symName: __ZNKSt3__110__function6__funcINS_8functionIFvONS2_IFvRN8facebook5react18jsinspector_modern12_GLOBAL__N_16StreamEEEEEEENS_9allocatorISD_EEFvONS2_IFvRNS5_22NetworkRequestListenerEEEEEE11target_typeEv, symObjAddr: 0x99A8, symBinAddr: 0x1C348, symSize: 0xC }
  - { offset: 0x1A74A5, size: 0x8, addend: 0x0, symName: __ZNSt3__110__function6__funcINS_8functionIFvRN8facebook5react18jsinspector_modern22NetworkRequestListenerEEEENS_9allocatorIS9_EEFvRNS5_12_GLOBAL__N_16StreamEEED1Ev, symObjAddr: 0x9A7C, symBinAddr: 0x1C3B8, symSize: 0x58 }
  - { offset: 0x1A75C5, size: 0x8, addend: 0x0, symName: __ZNSt3__110__function6__funcINS_8functionIFvRN8facebook5react18jsinspector_modern22NetworkRequestListenerEEEENS_9allocatorIS9_EEFvRNS5_12_GLOBAL__N_16StreamEEED0Ev, symObjAddr: 0x9AD4, symBinAddr: 0x1C410, symSize: 0x58 }
  - { offset: 0x1A794F, size: 0x8, addend: 0x0, symName: __ZNKSt3__110__function6__funcINS_8functionIFvRN8facebook5react18jsinspector_modern22NetworkRequestListenerEEEENS_9allocatorIS9_EEFvRNS5_12_GLOBAL__N_16StreamEEE7__cloneEv, symObjAddr: 0x9B2C, symBinAddr: 0x1C468, symSize: 0x54 }
  - { offset: 0x1A7CBD, size: 0x8, addend: 0x0, symName: __ZNKSt3__110__function6__funcINS_8functionIFvRN8facebook5react18jsinspector_modern22NetworkRequestListenerEEEENS_9allocatorIS9_EEFvRNS5_12_GLOBAL__N_16StreamEEE7__cloneEPNS0_6__baseISF_EE, symObjAddr: 0x9B80, symBinAddr: 0x1C4BC, symSize: 0x1C }
  - { offset: 0x1A7DD7, size: 0x8, addend: 0x0, symName: __ZNSt3__110__function6__funcINS_8functionIFvRN8facebook5react18jsinspector_modern22NetworkRequestListenerEEEENS_9allocatorIS9_EEFvRNS5_12_GLOBAL__N_16StreamEEE7destroyEv, symObjAddr: 0x9B9C, symBinAddr: 0x1C4D8, symSize: 0x30 }
  - { offset: 0x1A7EA4, size: 0x8, addend: 0x0, symName: __ZNSt3__110__function6__funcINS_8functionIFvRN8facebook5react18jsinspector_modern22NetworkRequestListenerEEEENS_9allocatorIS9_EEFvRNS5_12_GLOBAL__N_16StreamEEE18destroy_deallocateEv, symObjAddr: 0x9BCC, symBinAddr: 0x1C508, symSize: 0x4C }
  - { offset: 0x1A809A, size: 0x8, addend: 0x0, symName: __ZNSt3__110__function6__funcINS_8functionIFvRN8facebook5react18jsinspector_modern22NetworkRequestListenerEEEENS_9allocatorIS9_EEFvRNS5_12_GLOBAL__N_16StreamEEEclESE_, symObjAddr: 0x9C18, symBinAddr: 0x1C554, symSize: 0x20 }
  - { offset: 0x1A80D3, size: 0x8, addend: 0x0, symName: __ZNSt3__110__function6__funcINS_8functionIFvRN8facebook5react18jsinspector_modern22NetworkRequestListenerEEEENS_9allocatorIS9_EEFvRNS5_12_GLOBAL__N_16StreamEEEclESE_, symObjAddr: 0x9C18, symBinAddr: 0x1C554, symSize: 0x20 }
  - { offset: 0x1A80F8, size: 0x8, addend: 0x0, symName: __ZNSt3__110__function6__funcINS_8functionIFvRN8facebook5react18jsinspector_modern22NetworkRequestListenerEEEENS_9allocatorIS9_EEFvRNS5_12_GLOBAL__N_16StreamEEEclESE_, symObjAddr: 0x9C18, symBinAddr: 0x1C554, symSize: 0x20 }
  - { offset: 0x1A811C, size: 0x8, addend: 0x0, symName: __ZNSt3__110__function6__funcINS_8functionIFvRN8facebook5react18jsinspector_modern22NetworkRequestListenerEEEENS_9allocatorIS9_EEFvRNS5_12_GLOBAL__N_16StreamEEEclESE_, symObjAddr: 0x9C18, symBinAddr: 0x1C554, symSize: 0x20 }
  - { offset: 0x1A8141, size: 0x8, addend: 0x0, symName: __ZNSt3__110__function6__funcINS_8functionIFvRN8facebook5react18jsinspector_modern22NetworkRequestListenerEEEENS_9allocatorIS9_EEFvRNS5_12_GLOBAL__N_16StreamEEEclESE_, symObjAddr: 0x9C18, symBinAddr: 0x1C554, symSize: 0x20 }
  - { offset: 0x1A8165, size: 0x8, addend: 0x0, symName: __ZNSt3__110__function6__funcINS_8functionIFvRN8facebook5react18jsinspector_modern22NetworkRequestListenerEEEENS_9allocatorIS9_EEFvRNS5_12_GLOBAL__N_16StreamEEEclESE_, symObjAddr: 0x9C18, symBinAddr: 0x1C554, symSize: 0x20 }
  - { offset: 0x1A8189, size: 0x8, addend: 0x0, symName: __ZNSt3__110__function6__funcINS_8functionIFvRN8facebook5react18jsinspector_modern22NetworkRequestListenerEEEENS_9allocatorIS9_EEFvRNS5_12_GLOBAL__N_16StreamEEEclESE_, symObjAddr: 0x9C18, symBinAddr: 0x1C554, symSize: 0x20 }
  - { offset: 0x1A81C0, size: 0x8, addend: 0x0, symName: __ZNKSt3__110__function6__funcINS_8functionIFvRN8facebook5react18jsinspector_modern22NetworkRequestListenerEEEENS_9allocatorIS9_EEFvRNS5_12_GLOBAL__N_16StreamEEE6targetERKSt9type_info, symObjAddr: 0x9C38, symBinAddr: 0x1C574, symSize: 0x3C }
  - { offset: 0x1A81CB, size: 0x8, addend: 0x0, symName: __ZNKSt3__110__function6__funcINS_8functionIFvRN8facebook5react18jsinspector_modern22NetworkRequestListenerEEEENS_9allocatorIS9_EEFvRNS5_12_GLOBAL__N_16StreamEEE6targetERKSt9type_info, symObjAddr: 0x9C38, symBinAddr: 0x1C574, symSize: 0x3C }
  - { offset: 0x1A8217, size: 0x8, addend: 0x0, symName: __ZNKSt3__110__function6__funcINS_8functionIFvRN8facebook5react18jsinspector_modern22NetworkRequestListenerEEEENS_9allocatorIS9_EEFvRNS5_12_GLOBAL__N_16StreamEEE11target_typeEv, symObjAddr: 0x9C74, symBinAddr: 0x1C5B0, symSize: 0xC }
  - { offset: 0x1A828F, size: 0x8, addend: 0x0, symName: '__ZNSt3__110__function6__funcIZN8facebook5react18jsinspector_modern14NetworkIOAgent12handleIoReadERKNS4_3cdp16PreparsedRequestEE3$_0NS_9allocatorISA_EEFvNS_7variantIJKNS_12basic_stringIcNS_11char_traitsIcEENSB_IcEEEENS4_12IOReadResultEEEEEED1Ev', symObjAddr: 0x9CE4, symBinAddr: 0x1C5BC, symSize: 0x74 }
  - { offset: 0x1A8533, size: 0x8, addend: 0x0, symName: '__ZNSt3__110__function6__funcIZN8facebook5react18jsinspector_modern14NetworkIOAgent12handleIoReadERKNS4_3cdp16PreparsedRequestEE3$_0NS_9allocatorISA_EEFvNS_7variantIJKNS_12basic_stringIcNS_11char_traitsIcEENSB_IcEEEENS4_12IOReadResultEEEEEED0Ev', symObjAddr: 0x9D58, symBinAddr: 0x1C630, symSize: 0x74 }
  - { offset: 0x1A8A0C, size: 0x8, addend: 0x0, symName: '__ZNKSt3__110__function6__funcIZN8facebook5react18jsinspector_modern14NetworkIOAgent12handleIoReadERKNS4_3cdp16PreparsedRequestEE3$_0NS_9allocatorISA_EEFvNS_7variantIJKNS_12basic_stringIcNS_11char_traitsIcEENSB_IcEEEENS4_12IOReadResultEEEEEE7__cloneEv', symObjAddr: 0x9DCC, symBinAddr: 0x1C6A4, symSize: 0xE0 }
  - { offset: 0x1A8F07, size: 0x8, addend: 0x0, symName: '__ZNKSt3__110__function6__funcIZN8facebook5react18jsinspector_modern14NetworkIOAgent12handleIoReadERKNS4_3cdp16PreparsedRequestEE3$_0NS_9allocatorISA_EEFvNS_7variantIJKNS_12basic_stringIcNS_11char_traitsIcEENSB_IcEEEENS4_12IOReadResultEEEEEE7__cloneEPNS0_6__baseISM_EE', symObjAddr: 0x9EAC, symBinAddr: 0x1C784, symSize: 0xC4 }
  - { offset: 0x1A91FC, size: 0x8, addend: 0x0, symName: '__ZNSt3__110__function6__funcIZN8facebook5react18jsinspector_modern14NetworkIOAgent12handleIoReadERKNS4_3cdp16PreparsedRequestEE3$_0NS_9allocatorISA_EEFvNS_7variantIJKNS_12basic_stringIcNS_11char_traitsIcEENSB_IcEEEENS4_12IOReadResultEEEEEE7destroyEv', symObjAddr: 0x9F70, symBinAddr: 0x1C848, symSize: 0x8 }
  - { offset: 0x1A9231, size: 0x8, addend: 0x0, symName: '__ZNSt3__110__function12__alloc_funcIZN8facebook5react18jsinspector_modern14NetworkIOAgent12handleIoReadERKNS4_3cdp16PreparsedRequestEE3$_0NS_9allocatorISA_EEFvNS_7variantIJKNS_12basic_stringIcNS_11char_traitsIcEENSB_IcEEEENS4_12IOReadResultEEEEEE7destroyB8ne200100Ev', symObjAddr: 0xA214, symBinAddr: 0x1CAEC, symSize: 0x6C }
  - { offset: 0x1A9463, size: 0x8, addend: 0x0, symName: '__ZNSt3__110__function6__funcIZN8facebook5react18jsinspector_modern14NetworkIOAgent12handleIoReadERKNS4_3cdp16PreparsedRequestEE3$_0NS_9allocatorISA_EEFvNS_7variantIJKNS_12basic_stringIcNS_11char_traitsIcEENSB_IcEEEENS4_12IOReadResultEEEEEE18destroy_deallocateEv', symObjAddr: 0x9F78, symBinAddr: 0x1C850, symSize: 0x28 }
  - { offset: 0x1A970D, size: 0x8, addend: 0x0, symName: '__ZNSt3__110__function6__funcIZN8facebook5react18jsinspector_modern14NetworkIOAgent12handleIoReadERKNS4_3cdp16PreparsedRequestEE3$_0NS_9allocatorISA_EEFvNS_7variantIJKNS_12basic_stringIcNS_11char_traitsIcEENSB_IcEEEENS4_12IOReadResultEEEEEEclEOSL_', symObjAddr: 0x9FA0, symBinAddr: 0x1C878, symSize: 0x22C }
  - { offset: 0x1AA997, size: 0x8, addend: 0x0, symName: __ZNSt3__116__variant_detail18__move_constructorINS0_8__traitsIJKNS_12basic_stringIcNS_11char_traitsIcEENS_9allocatorIcEEEEN8facebook5react18jsinspector_modern12IOReadResultEEEELNS0_6_TraitE1EEC2B8ne200100EOSG_, symObjAddr: 0xA4EC, symBinAddr: 0x1CDC4, symSize: 0x44 }
  - { offset: 0x1AAB07, size: 0x8, addend: 0x0, symName: __ZNK8facebook5react18jsinspector_modern12IOReadResult9toDynamicEv, symObjAddr: 0xA280, symBinAddr: 0x1CB58, symSize: 0x26C }
  - { offset: 0x1AB795, size: 0x8, addend: 0x0, symName: '__ZNKSt3__110__function6__funcIZN8facebook5react18jsinspector_modern14NetworkIOAgent12handleIoReadERKNS4_3cdp16PreparsedRequestEE3$_0NS_9allocatorISA_EEFvNS_7variantIJKNS_12basic_stringIcNS_11char_traitsIcEENSB_IcEEEENS4_12IOReadResultEEEEEE6targetERKSt9type_info', symObjAddr: 0xA1CC, symBinAddr: 0x1CAA4, symSize: 0x3C }
  - { offset: 0x1AB7E1, size: 0x8, addend: 0x0, symName: '__ZNKSt3__110__function6__funcIZN8facebook5react18jsinspector_modern14NetworkIOAgent12handleIoReadERKNS4_3cdp16PreparsedRequestEE3$_0NS_9allocatorISA_EEFvNS_7variantIJKNS_12basic_stringIcNS_11char_traitsIcEENSB_IcEEEENS4_12IOReadResultEEEEEE11target_typeEv', symObjAddr: 0xA208, symBinAddr: 0x1CAE0, symSize: 0xC }
  - { offset: 0x1AB8DC, size: 0x8, addend: 0x0, symName: __ZNSt3__116__variant_detail6__ctorINS0_8__traitsIJKNS_12basic_stringIcNS_11char_traitsIcEENS_9allocatorIcEEEEN8facebook5react18jsinspector_modern12IOReadResultEEEEE19__generic_constructB8ne200100INS0_18__move_constructorISE_LNS0_6_TraitE1EEEEEvRSF_OT_, symObjAddr: 0xA530, symBinAddr: 0x1CE08, symSize: 0x60 }
  - { offset: 0x1ABB30, size: 0x8, addend: 0x0, symName: __ZNSt3__116__variant_detail12__visitation6__base12__dispatcherIJLm0EEE10__dispatchB8ne200100IOZNS0_6__ctorINS0_8__traitsIJKNS_12basic_stringIcNS_11char_traitsIcEENS_9allocatorIcEEEEN8facebook5react18jsinspector_modern12IOReadResultEEEEE19__generic_constructB8ne200100INS0_18__move_constructorISJ_LNS0_6_TraitE1EEEEEvRSK_OT_EUlSR_E_JONS0_6__baseILSN_1EJSE_SI_EEEEEEDcSQ_DpT0_, symObjAddr: 0xA590, symBinAddr: 0x1CE68, symSize: 0x2C }
  - { offset: 0x1ABD2B, size: 0x8, addend: 0x0, symName: __ZNSt3__116__variant_detail12__visitation6__base12__dispatcherIJLm1EEE10__dispatchB8ne200100IOZNS0_6__ctorINS0_8__traitsIJKNS_12basic_stringIcNS_11char_traitsIcEENS_9allocatorIcEEEEN8facebook5react18jsinspector_modern12IOReadResultEEEEE19__generic_constructB8ne200100INS0_18__move_constructorISJ_LNS0_6_TraitE1EEEEEvRSK_OT_EUlSR_E_JONS0_6__baseILSN_1EJSE_SI_EEEEEEDcSQ_DpT0_, symObjAddr: 0xA5BC, symBinAddr: 0x1CE94, symSize: 0x28 }
  - { offset: 0x1ABD60, size: 0x8, addend: 0x0, symName: __ZNSt3__116__variant_detail12__visitation6__base12__dispatcherIJLm1EEE10__dispatchB8ne200100IOZNS0_6__ctorINS0_8__traitsIJKNS_12basic_stringIcNS_11char_traitsIcEENS_9allocatorIcEEEEN8facebook5react18jsinspector_modern12IOReadResultEEEEE19__generic_constructB8ne200100INS0_18__move_constructorISJ_LNS0_6_TraitE1EEEEEvRSK_OT_EUlSR_E_JONS0_6__baseILSN_1EJSE_SI_EEEEEEDcSQ_DpT0_, symObjAddr: 0xA5BC, symBinAddr: 0x1CE94, symSize: 0x28 }
  - { offset: 0x1ABD83, size: 0x8, addend: 0x0, symName: __ZNSt3__116__variant_detail12__visitation6__base12__dispatcherIJLm1EEE10__dispatchB8ne200100IOZNS0_6__ctorINS0_8__traitsIJKNS_12basic_stringIcNS_11char_traitsIcEENS_9allocatorIcEEEEN8facebook5react18jsinspector_modern12IOReadResultEEEEE19__generic_constructB8ne200100INS0_18__move_constructorISJ_LNS0_6_TraitE1EEEEEvRSK_OT_EUlSR_E_JONS0_6__baseILSN_1EJSE_SI_EEEEEEDcSQ_DpT0_, symObjAddr: 0xA5BC, symBinAddr: 0x1CE94, symSize: 0x28 }
  - { offset: 0x1C3694, size: 0x8, addend: 0x0, symName: __ZN8facebook5react18jsinspector_modern12RuntimeAgentC2ENSt3__18functionIFvNS3_17basic_string_viewIcNS3_11char_traitsIcEEEEEEERNS1_23RuntimeTargetControllerERKNS1_27ExecutionContextDescriptionERNS1_12SessionStateENS3_10unique_ptrINS1_20RuntimeAgentDelegateENS3_14default_deleteISJ_EEEE, symObjAddr: 0x0, symBinAddr: 0x1CEBC, symSize: 0x19C }
  - { offset: 0x1C3E9D, size: 0x8, addend: 0x0, symName: __ZNSt3__120__optional_copy_baseINS_12basic_stringIcNS_11char_traitsIcEENS_9allocatorIcEEEELb0EEC2B8ne200100ERKS7_, symObjAddr: 0x116C, symBinAddr: 0x1DF58, symSize: 0x4C }
  - { offset: 0x1C4346, size: 0x8, addend: 0x0, symName: __ZN8facebook5react18jsinspector_modern12RuntimeAgentC1ENSt3__18functionIFvNS3_17basic_string_viewIcNS3_11char_traitsIcEEEEEEERNS1_23RuntimeTargetControllerERKNS1_27ExecutionContextDescriptionERNS1_12SessionStateENS3_10unique_ptrINS1_20RuntimeAgentDelegateENS3_14default_deleteISJ_EEEE, symObjAddr: 0x1F8, symBinAddr: 0x1D058, symSize: 0x4 }
  - { offset: 0x1C43BC, size: 0x8, addend: 0x0, symName: __ZN8facebook5react18jsinspector_modern12RuntimeAgentC1ENSt3__18functionIFvNS3_17basic_string_viewIcNS3_11char_traitsIcEEEEEEERNS1_23RuntimeTargetControllerERKNS1_27ExecutionContextDescriptionERNS1_12SessionStateENS3_10unique_ptrINS1_20RuntimeAgentDelegateENS3_14default_deleteISJ_EEEE, symObjAddr: 0x1F8, symBinAddr: 0x1D058, symSize: 0x4 }
  - { offset: 0x1C5443, size: 0x8, addend: 0x0, symName: __ZN8facebook5react18jsinspector_modern12RuntimeAgent13handleRequestERKNS1_3cdp16PreparsedRequestE, symObjAddr: 0x1FC, symBinAddr: 0x1D05C, symSize: 0x9F4 }
  - { offset: 0x1C8FF0, size: 0x8, addend: 0x0, symName: __ZNSt3__112__hash_tableINS_17__hash_value_typeINS_12basic_stringIcNS_11char_traitsIcEENS_9allocatorIcEEEENS_13unordered_setIN8facebook5react18jsinspector_modern24ExecutionContextSelectorENS_4hashISC_EENS_8equal_toISC_EENS5_ISC_EEEEEENS_22__unordered_map_hasherIS7_SJ_NSD_IS7_EENSF_IS7_EELb1EEENS_21__unordered_map_equalIS7_SJ_SM_SL_Lb1EEENS5_ISJ_EEE14__erase_uniqueIS7_EEmRKT_, symObjAddr: 0x3204, symBinAddr: 0x1E92C, symSize: 0x34 }
  - { offset: 0x1C93EF, size: 0x8, addend: 0x0, symName: __ZNSt3__116__variant_detail12__assignmentINS0_8__traitsIJN8facebook5react18jsinspector_modern15UniqueMonostateILm0EEEiNS_12basic_stringIcNS_11char_traitsIcEENS_9allocatorIcEEEEEEEE16__generic_assignB8ne200100INS0_17__move_assignmentISE_LNS0_6_TraitE1EEEEEvOT_, symObjAddr: 0x167C, symBinAddr: 0x1E000, symSize: 0x5C }
  - { offset: 0x1C9633, size: 0x8, addend: 0x0, symName: __ZNSt3__112__hash_tableINS_17__hash_value_typeINS_12basic_stringIcNS_11char_traitsIcEENS_9allocatorIcEEEENS_13unordered_setIN8facebook5react18jsinspector_modern24ExecutionContextSelectorENS_4hashISC_EENS_8equal_toISC_EENS5_ISC_EEEEEENS_22__unordered_map_hasherIS7_SJ_NSD_IS7_EENSF_IS7_EELb1EEENS_21__unordered_map_equalIS7_SJ_SM_SL_Lb1EEENS5_ISJ_EEE25__emplace_unique_key_argsIS7_JRKNS_21piecewise_construct_tENS_5tupleIJRKS7_EEENSW_IJEEEEEENS_4pairINS_15__hash_iteratorIPNS_11__hash_nodeISJ_PvEEEEbEERKT_DpOT0_, symObjAddr: 0x1ED0, symBinAddr: 0x1E16C, symSize: 0x268 }
  - { offset: 0x1C9AEF, size: 0x8, addend: 0x0, symName: __ZNSt3__112__hash_tableIN8facebook5react18jsinspector_modern24ExecutionContextSelectorENS_4hashIS4_EENS_8equal_toIS4_EENS_9allocatorIS4_EEE25__emplace_unique_key_argsIS4_JRKS4_EEENS_4pairINS_15__hash_iteratorIPNS_11__hash_nodeIS4_PvEEEEbEERKT_DpOT0_, symObjAddr: 0x2A24, symBinAddr: 0x1E4CC, symSize: 0x254 }
  - { offset: 0x1C9F8C, size: 0x8, addend: 0x0, symName: __ZN8facebook5react18jsinspector_modern12RuntimeAgent13handleRequestERKNS1_3cdp16PreparsedRequestE.cold.1, symObjAddr: 0x35BC, symBinAddr: 0x2BC88, symSize: 0x1C }
  - { offset: 0x1CA5B1, size: 0x8, addend: 0x0, symName: __ZN8facebook5react18jsinspector_modern12RuntimeAgent19notifyBindingCalledERKNSt3__112basic_stringIcNS3_11char_traitsIcEENS3_9allocatorIcEEEESB_, symObjAddr: 0xBF0, symBinAddr: 0x1DA50, symSize: 0x3A0 }
  - { offset: 0x1CBBA7, size: 0x8, addend: 0x0, symName: __ZNKSt3__112__hash_tableINS_17__hash_value_typeINS_12basic_stringIcNS_11char_traitsIcEENS_9allocatorIcEEEENS_13unordered_setIN8facebook5react18jsinspector_modern24ExecutionContextSelectorENS_4hashISC_EENS_8equal_toISC_EENS5_ISC_EEEEEENS_22__unordered_map_hasherIS7_SJ_NSD_IS7_EENSF_IS7_EELb1EEENS_21__unordered_map_equalIS7_SJ_SM_SL_Lb1EEENS5_ISJ_EEE4findIS7_EENS_21__hash_const_iteratorIPNS_11__hash_nodeISJ_PvEEEERKT_, symObjAddr: 0x34C4, symBinAddr: 0x1E9B8, symSize: 0xF8 }
  - { offset: 0x1CBF63, size: 0x8, addend: 0x0, symName: __ZN8facebook5react18jsinspector_modern12RuntimeAgent16getExportedStateEv, symObjAddr: 0xFF4, symBinAddr: 0x1DDF0, symSize: 0x1C }
  - { offset: 0x1CC613, size: 0x8, addend: 0x0, symName: __ZN8facebook5react18jsinspector_modern12RuntimeAgent16getExportedStateEv, symObjAddr: 0xFF4, symBinAddr: 0x1DDF0, symSize: 0x1C }
  - { offset: 0x1CC637, size: 0x8, addend: 0x0, symName: __ZN8facebook5react18jsinspector_modern12RuntimeAgent16getExportedStateEv, symObjAddr: 0xFF4, symBinAddr: 0x1DDF0, symSize: 0x1C }
  - { offset: 0x1CC814, size: 0x8, addend: 0x0, symName: __ZN8facebook5react18jsinspector_modern12RuntimeAgentD2Ev, symObjAddr: 0x1010, symBinAddr: 0x1DE0C, symSize: 0x128 }
  - { offset: 0x1CCF9A, size: 0x8, addend: 0x0, symName: __ZN8facebook5react18jsinspector_modern12RuntimeAgentD1Ev, symObjAddr: 0x1148, symBinAddr: 0x1DF34, symSize: 0x4 }
  - { offset: 0x1CCFC8, size: 0x8, addend: 0x0, symName: __ZN8facebook5react18jsinspector_modern12RuntimeAgentD1Ev, symObjAddr: 0x1148, symBinAddr: 0x1DF34, symSize: 0x4 }
  - { offset: 0x1CCFDB, size: 0x8, addend: 0x0, symName: __ZN8facebook5react18jsinspector_modern12RuntimeAgent18registerForTracingEv, symObjAddr: 0x114C, symBinAddr: 0x1DF38, symSize: 0x8 }
  - { offset: 0x1CD004, size: 0x8, addend: 0x0, symName: __ZN8facebook5react18jsinspector_modern12RuntimeAgent22enableSamplingProfilerEv, symObjAddr: 0x1154, symBinAddr: 0x1DF40, symSize: 0x8 }
  - { offset: 0x1CD02D, size: 0x8, addend: 0x0, symName: __ZN8facebook5react18jsinspector_modern12RuntimeAgent23disableSamplingProfilerEv, symObjAddr: 0x115C, symBinAddr: 0x1DF48, symSize: 0x8 }
  - { offset: 0x1CD056, size: 0x8, addend: 0x0, symName: __ZN8facebook5react18jsinspector_modern12RuntimeAgent22collectSamplingProfileEv, symObjAddr: 0x1164, symBinAddr: 0x1DF50, symSize: 0x8 }
  - { offset: 0x1CD0B6, size: 0x8, addend: 0x0, symName: __ZNSt3__123__optional_storage_baseINS_12basic_stringIcNS_11char_traitsIcEENS_9allocatorIcEEEELb0EE16__construct_fromB8ne200100IRKNS_20__optional_copy_baseIS6_Lb0EEEEEvOT_, symObjAddr: 0x11B8, symBinAddr: 0x1DFA4, symSize: 0x5C }
  - { offset: 0x1CD0EF, size: 0x8, addend: 0x0, symName: __ZNSt3__123__optional_storage_baseINS_12basic_stringIcNS_11char_traitsIcEENS_9allocatorIcEEEELb0EE16__construct_fromB8ne200100IRKNS_20__optional_copy_baseIS6_Lb0EEEEEvOT_, symObjAddr: 0x11B8, symBinAddr: 0x1DFA4, symSize: 0x5C }
  - { offset: 0x1CD21D, size: 0x8, addend: 0x0, symName: __ZNSt3__120__optional_copy_baseINS_12basic_stringIcNS_11char_traitsIcEENS_9allocatorIcEEEELb0EEC2B8ne200100ERKS7_.cold.1, symObjAddr: 0x3610, symBinAddr: 0x2BCA4, symSize: 0x14 }
  - { offset: 0x1CD238, size: 0x8, addend: 0x0, symName: __ZNSt3__120__optional_copy_baseINS_12basic_stringIcNS_11char_traitsIcEENS_9allocatorIcEEEELb0EEC2B8ne200100ERKS7_.cold.1, symObjAddr: 0x3610, symBinAddr: 0x2BCA4, symSize: 0x14 }
  - { offset: 0x1CD24D, size: 0x8, addend: 0x0, symName: __ZNSt3__120__optional_copy_baseINS_12basic_stringIcNS_11char_traitsIcEENS_9allocatorIcEEEELb0EEC2B8ne200100ERKS7_.cold.1, symObjAddr: 0x3610, symBinAddr: 0x2BCA4, symSize: 0x14 }
  - { offset: 0x1CD262, size: 0x8, addend: 0x0, symName: __ZNSt3__120__optional_copy_baseINS_12basic_stringIcNS_11char_traitsIcEENS_9allocatorIcEEEELb0EEC2B8ne200100ERKS7_.cold.1, symObjAddr: 0x3610, symBinAddr: 0x2BCA4, symSize: 0x14 }
  - { offset: 0x1CD277, size: 0x8, addend: 0x0, symName: __ZNSt3__120__optional_copy_baseINS_12basic_stringIcNS_11char_traitsIcEENS_9allocatorIcEEEELb0EEC2B8ne200100ERKS7_.cold.1, symObjAddr: 0x3610, symBinAddr: 0x2BCA4, symSize: 0x14 }
  - { offset: 0x1CD28D, size: 0x8, addend: 0x0, symName: __ZNSt3__120__optional_copy_baseINS_12basic_stringIcNS_11char_traitsIcEENS_9allocatorIcEEEELb0EEC2B8ne200100ERKS7_.cold.1, symObjAddr: 0x3610, symBinAddr: 0x2BCA4, symSize: 0x14 }
  - { offset: 0x1CE096, size: 0x8, addend: 0x0, symName: __ZNSt3__116__variant_detail12__visitation6__base12__dispatcherIJLm0ELm0EEE10__dispatchB8ne200100IOZNS0_12__assignmentINS0_8__traitsIJN8facebook5react18jsinspector_modern15UniqueMonostateILm0EEEiNS_12basic_stringIcNS_11char_traitsIcEENS_9allocatorIcEEEEEEEE16__generic_assignB8ne200100INS0_17__move_assignmentISJ_LNS0_6_TraitE1EEEEEvOT_EUlRSP_OT0_E_JRNS0_6__baseILSN_1EJSC_iSI_EEEOSX_EEEDcSP_DpT0_, symObjAddr: 0x1748, symBinAddr: 0x1E05C, symSize: 0x30 }
  - { offset: 0x1CE4E0, size: 0x8, addend: 0x0, symName: __ZNSt3__116__variant_detail12__visitation6__base12__dispatcherIJLm1ELm1EEE10__dispatchB8ne200100IOZNS0_12__assignmentINS0_8__traitsIJN8facebook5react18jsinspector_modern15UniqueMonostateILm0EEEiNS_12basic_stringIcNS_11char_traitsIcEENS_9allocatorIcEEEEEEEE16__generic_assignB8ne200100INS0_17__move_assignmentISJ_LNS0_6_TraitE1EEEEEvOT_EUlRSP_OT0_E_JRNS0_6__baseILSN_1EJSC_iSI_EEEOSX_EEEDcSP_DpT0_, symObjAddr: 0x1778, symBinAddr: 0x1E08C, symSize: 0x50 }
  - { offset: 0x1CE7A4, size: 0x8, addend: 0x0, symName: __ZNSt3__116__variant_detail12__visitation6__base12__dispatcherIJLm2ELm2EEE10__dispatchB8ne200100IOZNS0_12__assignmentINS0_8__traitsIJN8facebook5react18jsinspector_modern15UniqueMonostateILm0EEEiNS_12basic_stringIcNS_11char_traitsIcEENS_9allocatorIcEEEEEEEE16__generic_assignB8ne200100INS0_17__move_assignmentISJ_LNS0_6_TraitE1EEEEEvOT_EUlRSP_OT0_E_JRNS0_6__baseILSN_1EJSC_iSI_EEEOSX_EEEDcSP_DpT0_, symObjAddr: 0x17C8, symBinAddr: 0x1E0DC, symSize: 0x8 }
  - { offset: 0x1CE86A, size: 0x8, addend: 0x0, symName: __ZNSt3__116__variant_detail12__assignmentINS0_8__traitsIJN8facebook5react18jsinspector_modern15UniqueMonostateILm0EEEiNS_12basic_stringIcNS_11char_traitsIcEENS_9allocatorIcEEEEEEEE12__assign_altB8ne200100ILm2ESD_SD_EEvRNS0_5__altIXT_ET0_EEOT1_, symObjAddr: 0x17D0, symBinAddr: 0x1E0E4, symSize: 0x88 }
  - { offset: 0x1CFDFA, size: 0x8, addend: 0x0, symName: __ZNSt3__112__hash_tableINS_17__hash_value_typeINS_12basic_stringIcNS_11char_traitsIcEENS_9allocatorIcEEEENS_13unordered_setIN8facebook5react18jsinspector_modern24ExecutionContextSelectorENS_4hashISC_EENS_8equal_toISC_EENS5_ISC_EEEEEENS_22__unordered_map_hasherIS7_SJ_NSD_IS7_EENSF_IS7_EELb1EEENS_21__unordered_map_equalIS7_SJ_SM_SL_Lb1EEENS5_ISJ_EEE21__construct_node_hashIRKNS_21piecewise_construct_tEJNS_5tupleIJRKS7_EEENSW_IJEEEEEENS_10unique_ptrINS_11__hash_nodeISJ_PvEENS_22__hash_node_destructorINS5_IS14_EEEEEEmOT_DpOT0_, symObjAddr: 0x2138, symBinAddr: 0x1E3D4, symSize: 0xB0 }
  - { offset: 0x1D031B, size: 0x8, addend: 0x0, symName: __ZNSt3__110unique_ptrINS_11__hash_nodeINS_17__hash_value_typeINS_12basic_stringIcNS_11char_traitsIcEENS_9allocatorIcEEEENS_13unordered_setIN8facebook5react18jsinspector_modern24ExecutionContextSelectorENS_4hashISD_EENS_8equal_toISD_EENS6_ISD_EEEEEEPvEENS_22__hash_node_destructorINS6_ISM_EEEEE5resetB8ne200100EPSM_, symObjAddr: 0x292C, symBinAddr: 0x1E484, symSize: 0x48 }
  - { offset: 0x1D1286, size: 0x8, addend: 0x0, symName: __ZNSt3__110unique_ptrINS_11__hash_nodeINS_17__hash_value_typeINS_12basic_stringIcNS_11char_traitsIcEENS_9allocatorIcEEEENS_13unordered_setIN8facebook5react18jsinspector_modern24ExecutionContextSelectorENS_4hashISD_EENS_8equal_toISD_EENS6_ISD_EEEEEEPvEENS_22__hash_node_destructorINS6_ISM_EEEEE5resetB8ne200100EPSM_, symObjAddr: 0x292C, symBinAddr: 0x1E484, symSize: 0x48 }
  - { offset: 0x1D1A64, size: 0x8, addend: 0x0, symName: __ZNKSt3__14hashINS_7variantIJN8facebook5react18jsinspector_modern15UniqueMonostateILm0EEEiNS_12basic_stringIcNS_11char_traitsIcEENS_9allocatorIcEEEEEEEEclB8ne200100ERKSD_, symObjAddr: 0x2D38, symBinAddr: 0x1E7E0, symSize: 0x98 }
  - { offset: 0x1D1AF9, size: 0x8, addend: 0x0, symName: __ZNKSt3__14hashINS_7variantIJN8facebook5react18jsinspector_modern15UniqueMonostateILm0EEEiNS_12basic_stringIcNS_11char_traitsIcEENS_9allocatorIcEEEEEEEEclB8ne200100ERKSD_, symObjAddr: 0x2D38, symBinAddr: 0x1E7E0, symSize: 0x98 }
  - { offset: 0x1D1B15, size: 0x8, addend: 0x0, symName: __ZNKSt3__14hashINS_7variantIJN8facebook5react18jsinspector_modern15UniqueMonostateILm0EEEiNS_12basic_stringIcNS_11char_traitsIcEENS_9allocatorIcEEEEEEEEclB8ne200100ERKSD_, symObjAddr: 0x2D38, symBinAddr: 0x1E7E0, symSize: 0x98 }
  - { offset: 0x1D1B31, size: 0x8, addend: 0x0, symName: __ZNKSt3__14hashINS_7variantIJN8facebook5react18jsinspector_modern15UniqueMonostateILm0EEEiNS_12basic_stringIcNS_11char_traitsIcEENS_9allocatorIcEEEEEEEEclB8ne200100ERKSD_, symObjAddr: 0x2D38, symBinAddr: 0x1E7E0, symSize: 0x98 }
  - { offset: 0x1D1D28, size: 0x8, addend: 0x0, symName: __ZNKSt3__18equal_toIN8facebook5react18jsinspector_modern24ExecutionContextSelectorEEclB8ne200100ERKS4_S7_, symObjAddr: 0x2C78, symBinAddr: 0x1E720, symSize: 0x54 }
  - { offset: 0x1D1ED7, size: 0x8, addend: 0x0, symName: __ZNSt3__112__hash_tableIN8facebook5react18jsinspector_modern24ExecutionContextSelectorENS_4hashIS4_EENS_8equal_toIS4_EENS_9allocatorIS4_EEE21__construct_node_hashIRKS4_JEEENS_10unique_ptrINS_11__hash_nodeIS4_PvEENS_22__hash_node_destructorINS9_ISI_EEEEEEmOT_DpOT0_, symObjAddr: 0x2CCC, symBinAddr: 0x1E774, symSize: 0x6C }
  - { offset: 0x1D2370, size: 0x8, addend: 0x0, symName: __ZNSt3__110unique_ptrINS_11__hash_nodeIN8facebook5react18jsinspector_modern24ExecutionContextSelectorEPvEENS_22__hash_node_destructorINS_9allocatorIS7_EEEEE5resetB8ne200100EPS7_, symObjAddr: 0x31BC, symBinAddr: 0x1E8E4, symSize: 0x48 }
  - { offset: 0x1D2EAD, size: 0x8, addend: 0x0, symName: __ZNSt3__116__variant_detail12__visitation6__base12__dispatcherIJLm0EEE10__dispatchB8ne200100IOZNKS_4hashINS_7variantIJN8facebook5react18jsinspector_modern15UniqueMonostateILm0EEEiNS_12basic_stringIcNS_11char_traitsIcEENS_9allocatorIcEEEEEEEEclB8ne200100ERKSJ_EUlRKT_E_JRKNS0_6__baseILNS0_6_TraitE1EJSC_iSI_EEEEEEDcSN_DpT0_, symObjAddr: 0x2DD0, symBinAddr: 0x1E878, symSize: 0x8 }
  - { offset: 0x1D2F3E, size: 0x8, addend: 0x0, symName: __ZNSt3__116__variant_detail12__visitation6__base12__dispatcherIJLm1EEE10__dispatchB8ne200100IOZNKS_4hashINS_7variantIJN8facebook5react18jsinspector_modern15UniqueMonostateILm0EEEiNS_12basic_stringIcNS_11char_traitsIcEENS_9allocatorIcEEEEEEEEclB8ne200100ERKSJ_EUlRKT_E_JRKNS0_6__baseILNS0_6_TraitE1EJSC_iSI_EEEEEEDcSN_DpT0_, symObjAddr: 0x2DD8, symBinAddr: 0x1E880, symSize: 0x8 }
  - { offset: 0x1D2F74, size: 0x8, addend: 0x0, symName: __ZNSt3__116__variant_detail12__visitation6__base12__dispatcherIJLm1EEE10__dispatchB8ne200100IOZNKS_4hashINS_7variantIJN8facebook5react18jsinspector_modern15UniqueMonostateILm0EEEiNS_12basic_stringIcNS_11char_traitsIcEENS_9allocatorIcEEEEEEEEclB8ne200100ERKSJ_EUlRKT_E_JRKNS0_6__baseILNS0_6_TraitE1EJSC_iSI_EEEEEEDcSN_DpT0_, symObjAddr: 0x2DD8, symBinAddr: 0x1E880, symSize: 0x8 }
  - { offset: 0x1D2F97, size: 0x8, addend: 0x0, symName: __ZNSt3__116__variant_detail12__visitation6__base12__dispatcherIJLm1EEE10__dispatchB8ne200100IOZNKS_4hashINS_7variantIJN8facebook5react18jsinspector_modern15UniqueMonostateILm0EEEiNS_12basic_stringIcNS_11char_traitsIcEENS_9allocatorIcEEEEEEEEclB8ne200100ERKSJ_EUlRKT_E_JRKNS0_6__baseILNS0_6_TraitE1EJSC_iSI_EEEEEEDcSN_DpT0_, symObjAddr: 0x2DD8, symBinAddr: 0x1E880, symSize: 0x8 }
  - { offset: 0x1D3007, size: 0x8, addend: 0x0, symName: __ZNSt3__116__variant_detail12__visitation6__base12__dispatcherIJLm2EEE10__dispatchB8ne200100IOZNKS_4hashINS_7variantIJN8facebook5react18jsinspector_modern15UniqueMonostateILm0EEEiNS_12basic_stringIcNS_11char_traitsIcEENS_9allocatorIcEEEEEEEEclB8ne200100ERKSJ_EUlRKT_E_JRKNS0_6__baseILNS0_6_TraitE1EJSC_iSI_EEEEEEDcSN_DpT0_, symObjAddr: 0x2DE0, symBinAddr: 0x1E888, symSize: 0x20 }
  - { offset: 0x1D30A4, size: 0x8, addend: 0x0, symName: __ZNSt3__116__variant_detail12__visitation6__base12__dispatcherIJLm0ELm0EEE10__dispatchB8ne200100IONS1_9__variant15__value_visitorINS_17__convert_to_boolINS_8equal_toIvEEEEEEJRKNS0_6__baseILNS0_6_TraitE1EJN8facebook5react18jsinspector_modern15UniqueMonostateILm0EEEiNS_12basic_stringIcNS_11char_traitsIcEENS_9allocatorIcEEEEEEEST_EEEDcT_DpT0_, symObjAddr: 0x2E00, symBinAddr: 0x1E8A8, symSize: 0x8 }
  - { offset: 0x1D31F6, size: 0x8, addend: 0x0, symName: __ZNSt3__116__variant_detail12__visitation6__base12__dispatcherIJLm1ELm1EEE10__dispatchB8ne200100IONS1_9__variant15__value_visitorINS_17__convert_to_boolINS_8equal_toIvEEEEEEJRKNS0_6__baseILNS0_6_TraitE1EJN8facebook5react18jsinspector_modern15UniqueMonostateILm0EEEiNS_12basic_stringIcNS_11char_traitsIcEENS_9allocatorIcEEEEEEEST_EEEDcT_DpT0_, symObjAddr: 0x2E08, symBinAddr: 0x1E8B0, symSize: 0x14 }
  - { offset: 0x1D323B, size: 0x8, addend: 0x0, symName: __ZNSt3__116__variant_detail12__visitation6__base12__dispatcherIJLm1ELm1EEE10__dispatchB8ne200100IONS1_9__variant15__value_visitorINS_17__convert_to_boolINS_8equal_toIvEEEEEEJRKNS0_6__baseILNS0_6_TraitE1EJN8facebook5react18jsinspector_modern15UniqueMonostateILm0EEEiNS_12basic_stringIcNS_11char_traitsIcEENS_9allocatorIcEEEEEEEST_EEEDcT_DpT0_, symObjAddr: 0x2E08, symBinAddr: 0x1E8B0, symSize: 0x14 }
  - { offset: 0x1D3265, size: 0x8, addend: 0x0, symName: __ZNSt3__116__variant_detail12__visitation6__base12__dispatcherIJLm1ELm1EEE10__dispatchB8ne200100IONS1_9__variant15__value_visitorINS_17__convert_to_boolINS_8equal_toIvEEEEEEJRKNS0_6__baseILNS0_6_TraitE1EJN8facebook5react18jsinspector_modern15UniqueMonostateILm0EEEiNS_12basic_stringIcNS_11char_traitsIcEENS_9allocatorIcEEEEEEEST_EEEDcT_DpT0_, symObjAddr: 0x2E08, symBinAddr: 0x1E8B0, symSize: 0x14 }
  - { offset: 0x1D328E, size: 0x8, addend: 0x0, symName: __ZNSt3__116__variant_detail12__visitation6__base12__dispatcherIJLm1ELm1EEE10__dispatchB8ne200100IONS1_9__variant15__value_visitorINS_17__convert_to_boolINS_8equal_toIvEEEEEEJRKNS0_6__baseILNS0_6_TraitE1EJN8facebook5react18jsinspector_modern15UniqueMonostateILm0EEEiNS_12basic_stringIcNS_11char_traitsIcEENS_9allocatorIcEEEEEEEST_EEEDcT_DpT0_, symObjAddr: 0x2E08, symBinAddr: 0x1E8B0, symSize: 0x14 }
  - { offset: 0x1D32B1, size: 0x8, addend: 0x0, symName: __ZNSt3__116__variant_detail12__visitation6__base12__dispatcherIJLm1ELm1EEE10__dispatchB8ne200100IONS1_9__variant15__value_visitorINS_17__convert_to_boolINS_8equal_toIvEEEEEEJRKNS0_6__baseILNS0_6_TraitE1EJN8facebook5react18jsinspector_modern15UniqueMonostateILm0EEEiNS_12basic_stringIcNS_11char_traitsIcEENS_9allocatorIcEEEEEEEST_EEEDcT_DpT0_, symObjAddr: 0x2E08, symBinAddr: 0x1E8B0, symSize: 0x14 }
  - { offset: 0x1D32D3, size: 0x8, addend: 0x0, symName: __ZNSt3__116__variant_detail12__visitation6__base12__dispatcherIJLm1ELm1EEE10__dispatchB8ne200100IONS1_9__variant15__value_visitorINS_17__convert_to_boolINS_8equal_toIvEEEEEEJRKNS0_6__baseILNS0_6_TraitE1EJN8facebook5react18jsinspector_modern15UniqueMonostateILm0EEEiNS_12basic_stringIcNS_11char_traitsIcEENS_9allocatorIcEEEEEEEST_EEEDcT_DpT0_, symObjAddr: 0x2E08, symBinAddr: 0x1E8B0, symSize: 0x14 }
  - { offset: 0x1D3394, size: 0x8, addend: 0x0, symName: __ZNSt3__116__variant_detail12__visitation6__base12__dispatcherIJLm2ELm2EEE10__dispatchB8ne200100IONS1_9__variant15__value_visitorINS_17__convert_to_boolINS_8equal_toIvEEEEEEJRKNS0_6__baseILNS0_6_TraitE1EJN8facebook5react18jsinspector_modern15UniqueMonostateILm0EEEiNS_12basic_stringIcNS_11char_traitsIcEENS_9allocatorIcEEEEEEEST_EEEDcT_DpT0_, symObjAddr: 0x2E1C, symBinAddr: 0x1E8C4, symSize: 0x20 }
  - { offset: 0x1D3ACB, size: 0x8, addend: 0x0, symName: __ZNSt3__110unique_ptrINS_11__hash_nodeIN8facebook5react18jsinspector_modern24ExecutionContextSelectorEPvEENS_22__hash_node_destructorINS_9allocatorIS7_EEEEE5resetB8ne200100EPS7_, symObjAddr: 0x31BC, symBinAddr: 0x1E8E4, symSize: 0x48 }
  - { offset: 0x1D3CD3, size: 0x8, addend: 0x0, symName: __ZNSt3__112__hash_tableINS_17__hash_value_typeINS_12basic_stringIcNS_11char_traitsIcEENS_9allocatorIcEEEENS_13unordered_setIN8facebook5react18jsinspector_modern24ExecutionContextSelectorENS_4hashISC_EENS_8equal_toISC_EENS5_ISC_EEEEEENS_22__unordered_map_hasherIS7_SJ_NSD_IS7_EENSF_IS7_EELb1EEENS_21__unordered_map_equalIS7_SJ_SM_SL_Lb1EEENS5_ISJ_EEE5eraseENS_21__hash_const_iteratorIPNS_11__hash_nodeISJ_PvEEEE, symObjAddr: 0x3330, symBinAddr: 0x1E960, symSize: 0x58 }
  - { offset: 0x1E4C69, size: 0x8, addend: 0x0, symName: __ZNSt3__115allocate_sharedB8ne200100IN8facebook5react18jsinspector_modern12RuntimeAgentENS_9allocatorIS4_EEJRNS_8functionIFvNS_17basic_string_viewIcNS_11char_traitsIcEEEEEEERNS3_23RuntimeTargetControllerERKNS3_27ExecutionContextDescriptionERNS3_12SessionStateENS_10unique_ptrINS3_20RuntimeAgentDelegateENS_14default_deleteISN_EEEEELi0EEENS_10shared_ptrIT_EERKT0_DpOT1_, symObjAddr: 0x14D0, symBinAddr: 0x1F990, symSize: 0x88 }
  - { offset: 0x1E69B4, size: 0x8, addend: 0x0, symName: __ZNSt3__112construct_atB8ne200100IN8facebook5react18jsinspector_modern12RuntimeAgentEJRNS_8functionIFvNS_17basic_string_viewIcNS_11char_traitsIcEEEEEEERNS3_23RuntimeTargetControllerERKNS3_27ExecutionContextDescriptionERNS3_12SessionStateENS_10unique_ptrINS3_20RuntimeAgentDelegateENS_14default_deleteISL_EEEEEPS4_EEPT_SR_DpOT0_, symObjAddr: 0x15E8, symBinAddr: 0x1FAA8, symSize: 0x11C }
  - { offset: 0x1ECB95, size: 0x8, addend: 0x0, symName: __ZN8facebook5react18jsinspector_modern18makeScopedExecutorINS1_13RuntimeTargetEEENSt3__18functionIFvONS5_IFvRT_EEEEEENS4_10shared_ptrIS6_EENS5_IFvONS5_IFvvEEEEEE, symObjAddr: 0x17C0, symBinAddr: 0x1FBC4, symSize: 0xE8 }
  - { offset: 0x1ECEF7, size: 0x8, addend: 0x0, symName: __ZN8facebook5react18jsinspector_modern12_GLOBAL__N_143emitSessionStatusChangeForObserverWithValueERNS_3jsi7RuntimeERKNS3_5ValueE, symObjAddr: 0x3A30, symBinAddr: 0x218B0, symSize: 0x198 }
  - { offset: 0x1EF978, size: 0x8, addend: 0x0, symName: __ZZN8facebook5react18jsinspector_modern18makeScopedExecutorINS1_13RuntimeTargetEEENSt3__18functionIFvONS5_IFvRT_EEEEEENS4_10shared_ptrIS6_EENS5_IFvONS5_IFvvEEEEEEENKUlOS6_E_clINS5_IFvRS3_EEEEEDaSK_, symObjAddr: 0x1CC8, symBinAddr: 0x1FFB4, symSize: 0x188 }
  - { offset: 0x1F0081, size: 0x8, addend: 0x0, symName: __ZN8facebook5react18jsinspector_modern13RuntimeTarget21installBindingHandlerERKNSt3__112basic_stringIcNS3_11char_traitsIcEENS3_9allocatorIcEEEE, symObjAddr: 0x6F0, symBinAddr: 0x1F0EC, symSize: 0x1E4 }
  - { offset: 0x1F0BB8, size: 0x8, addend: 0x0, symName: __ZN8facebook5react18jsinspector_modern13RuntimeTarget26emitDebuggerSessionCreatedEv, symObjAddr: 0xA5C, symBinAddr: 0x1F458, symSize: 0x16C }
  - { offset: 0x1F120F, size: 0x8, addend: 0x0, symName: __ZN8facebook5react18jsinspector_modern13RuntimeTarget28emitDebuggerSessionDestroyedEv, symObjAddr: 0xBC8, symBinAddr: 0x1F5C4, symSize: 0x16C }
  - { offset: 0x1F1866, size: 0x8, addend: 0x0, symName: __ZN8facebook5react18jsinspector_modern13RuntimeTarget18registerForTracingEv, symObjAddr: 0xD5C, symBinAddr: 0x1F758, symSize: 0xE4 }
  - { offset: 0x1F1E3E, size: 0x8, addend: 0x0, symName: __ZN8facebook5react18jsinspector_modern13RuntimeTarget6createERKNS1_27ExecutionContextDescriptionERNS1_21RuntimeTargetDelegateENSt3__18functionIFvONS9_IFvRNS_3jsi7RuntimeEEEEEEENS9_IFvONS9_IFvvEEEEEE, symObjAddr: 0x0, symBinAddr: 0x1EAB0, symSize: 0x1B4 }
  - { offset: 0x1F22D6, size: 0x8, addend: 0x0, symName: __ZN8facebook5react18jsinspector_modern13RuntimeTargetC2ERKNS1_27ExecutionContextDescriptionERNS1_21RuntimeTargetDelegateENSt3__18functionIFvONS9_IFvRNS_3jsi7RuntimeEEEEEEE, symObjAddr: 0x1DC, symBinAddr: 0x1EC8C, symSize: 0x11C }
  - { offset: 0x1F2893, size: 0x8, addend: 0x0, symName: __ZNSt3__110shared_ptrIN8facebook5react18jsinspector_modern13RuntimeTargetEEC2B8ne200100IS4_Li0EEEPT_, symObjAddr: 0x1140, symBinAddr: 0x1F8A8, symSize: 0x74 }
  - { offset: 0x1F2B17, size: 0x8, addend: 0x0, symName: __ZN8facebook5react18jsinspector_modern13RuntimeTargetC1ERKNS1_27ExecutionContextDescriptionERNS1_21RuntimeTargetDelegateENSt3__18functionIFvONS9_IFvRNS_3jsi7RuntimeEEEEEEE, symObjAddr: 0x1B4, symBinAddr: 0x1EC64, symSize: 0x4 }
  - { offset: 0x1F2B50, size: 0x8, addend: 0x0, symName: __ZN8facebook5react18jsinspector_modern13RuntimeTargetC1ERKNS1_27ExecutionContextDescriptionERNS1_21RuntimeTargetDelegateENSt3__18functionIFvONS9_IFvRNS_3jsi7RuntimeEEEEEEE, symObjAddr: 0x1B4, symBinAddr: 0x1EC64, symSize: 0x4 }
  - { offset: 0x1F2B78, size: 0x8, addend: 0x0, symName: __ZN8facebook5react18jsinspector_modern13RuntimeTarget14installGlobalsEv, symObjAddr: 0x1B8, symBinAddr: 0x1EC68, symSize: 0x24 }
  - { offset: 0x1F3493, size: 0x8, addend: 0x0, symName: __ZN8facebook5react18jsinspector_modern23RuntimeTargetControllerC1ERNS1_13RuntimeTargetE, symObjAddr: 0x2F8, symBinAddr: 0x1EDA8, symSize: 0x8 }
  - { offset: 0x1F34CE, size: 0x8, addend: 0x0, symName: __ZN8facebook5react18jsinspector_modern23RuntimeTargetControllerC1ERNS1_13RuntimeTargetE, symObjAddr: 0x2F8, symBinAddr: 0x1EDA8, symSize: 0x8 }
  - { offset: 0x1F3A4F, size: 0x8, addend: 0x0, symName: __ZN8facebook5react18jsinspector_modern13RuntimeTarget11createAgentENSt3__18functionIFvNS3_17basic_string_viewIcNS3_11char_traitsIcEEEEEEERNS1_12SessionStateE, symObjAddr: 0x3B4, symBinAddr: 0x1EDB0, symSize: 0x270 }
  - { offset: 0x1F4664, size: 0x8, addend: 0x0, symName: __ZN8facebook5react18jsinspector_modern13RuntimeTargetD2Ev, symObjAddr: 0x624, symBinAddr: 0x1F020, symSize: 0xC8 }
  - { offset: 0x1F4E16, size: 0x8, addend: 0x0, symName: __ZN8facebook5react18jsinspector_modern13RuntimeTargetD1Ev, symObjAddr: 0x6EC, symBinAddr: 0x1F0E8, symSize: 0x4 }
  - { offset: 0x1F4E39, size: 0x8, addend: 0x0, symName: __ZN8facebook5react18jsinspector_modern13RuntimeTargetD1Ev, symObjAddr: 0x6EC, symBinAddr: 0x1F0E8, symSize: 0x4 }
  - { offset: 0x1F53F4, size: 0x8, addend: 0x0, symName: __ZN8facebook5react18jsinspector_modern22EnableExecutorFromThisINS1_13RuntimeTargetEE16executorFromThisEv, symObjAddr: 0x8D4, symBinAddr: 0x1F2D0, symSize: 0x12C }
  - { offset: 0x1F56DC, size: 0x8, addend: 0x0, symName: __ZNSt3__110__function12__value_funcIFvONS_8functionIFvRN8facebook5react18jsinspector_modern13RuntimeTargetEEEEEEC2B8ne200100EOSC_, symObjAddr: 0x29A8, symBinAddr: 0x20ABC, symSize: 0x64 }
  - { offset: 0x1F572A, size: 0x8, addend: 0x0, symName: '__ZZN8facebook5react18jsinspector_modern13RuntimeTarget21installBindingHandlerERKNSt3__112basic_stringIcNS3_11char_traitsIcEENS3_9allocatorIcEEEEEN3$_0D1Ev', symObjAddr: 0xA00, symBinAddr: 0x1F3FC, symSize: 0x5C }
  - { offset: 0x1F5FC5, size: 0x8, addend: 0x0, symName: __ZN8facebook5react18jsinspector_modern23RuntimeTargetControllerC2ERNS1_13RuntimeTargetE, symObjAddr: 0xD34, symBinAddr: 0x1F730, symSize: 0x8 }
  - { offset: 0x1F5FEC, size: 0x8, addend: 0x0, symName: __ZN8facebook5react18jsinspector_modern23RuntimeTargetController21installBindingHandlerERKNSt3__112basic_stringIcNS3_11char_traitsIcEENS3_9allocatorIcEEEE, symObjAddr: 0xD3C, symBinAddr: 0x1F738, symSize: 0x8 }
  - { offset: 0x1F6039, size: 0x8, addend: 0x0, symName: __ZN8facebook5react18jsinspector_modern23RuntimeTargetController28notifyDebuggerSessionCreatedEv, symObjAddr: 0xD44, symBinAddr: 0x1F740, symSize: 0x8 }
  - { offset: 0x1F6070, size: 0x8, addend: 0x0, symName: __ZN8facebook5react18jsinspector_modern23RuntimeTargetController30notifyDebuggerSessionDestroyedEv, symObjAddr: 0xD4C, symBinAddr: 0x1F748, symSize: 0x8 }
  - { offset: 0x1F60A7, size: 0x8, addend: 0x0, symName: __ZN8facebook5react18jsinspector_modern23RuntimeTargetController18registerForTracingEv, symObjAddr: 0xD54, symBinAddr: 0x1F750, symSize: 0x8 }
  - { offset: 0x1F62AC, size: 0x8, addend: 0x0, symName: __ZN8facebook5react18jsinspector_modern23RuntimeTargetController22enableSamplingProfilerEv, symObjAddr: 0xE40, symBinAddr: 0x1F83C, symSize: 0x14 }
  - { offset: 0x1F62FF, size: 0x8, addend: 0x0, symName: __ZN8facebook5react18jsinspector_modern13RuntimeTarget22enableSamplingProfilerEv, symObjAddr: 0xE54, symBinAddr: 0x1F850, symSize: 0x10 }
  - { offset: 0x1F6345, size: 0x8, addend: 0x0, symName: __ZN8facebook5react18jsinspector_modern23RuntimeTargetController23disableSamplingProfilerEv, symObjAddr: 0xE64, symBinAddr: 0x1F860, symSize: 0x14 }
  - { offset: 0x1F6398, size: 0x8, addend: 0x0, symName: __ZN8facebook5react18jsinspector_modern13RuntimeTarget23disableSamplingProfilerEv, symObjAddr: 0xE78, symBinAddr: 0x1F874, symSize: 0x10 }
  - { offset: 0x1F63DE, size: 0x8, addend: 0x0, symName: __ZN8facebook5react18jsinspector_modern23RuntimeTargetController22collectSamplingProfileEv, symObjAddr: 0xE88, symBinAddr: 0x1F884, symSize: 0x14 }
  - { offset: 0x1F6439, size: 0x8, addend: 0x0, symName: __ZN8facebook5react18jsinspector_modern13RuntimeTarget22collectSamplingProfileEv, symObjAddr: 0xE9C, symBinAddr: 0x1F898, symSize: 0x10 }
  - { offset: 0x1F6C3E, size: 0x8, addend: 0x0, symName: __ZNSt3__120__shared_ptr_pointerIPN8facebook5react18jsinspector_modern13RuntimeTargetENS_10shared_ptrIS4_E27__shared_ptr_default_deleteIS4_S4_EENS_9allocatorIS4_EEED1Ev, symObjAddr: 0x1264, symBinAddr: 0x1F91C, symSize: 0x4 }
  - { offset: 0x1F6C60, size: 0x8, addend: 0x0, symName: __ZNSt3__120__shared_ptr_pointerIPN8facebook5react18jsinspector_modern13RuntimeTargetENS_10shared_ptrIS4_E27__shared_ptr_default_deleteIS4_S4_EENS_9allocatorIS4_EEED1Ev, symObjAddr: 0x1264, symBinAddr: 0x1F91C, symSize: 0x4 }
  - { offset: 0x1F6C96, size: 0x8, addend: 0x0, symName: __ZNSt3__120__shared_ptr_pointerIPN8facebook5react18jsinspector_modern13RuntimeTargetENS_10shared_ptrIS4_E27__shared_ptr_default_deleteIS4_S4_EENS_9allocatorIS4_EEED0Ev, symObjAddr: 0x1268, symBinAddr: 0x1F920, symSize: 0x14 }
  - { offset: 0x1F6CF9, size: 0x8, addend: 0x0, symName: __ZNSt3__120__shared_ptr_pointerIPN8facebook5react18jsinspector_modern13RuntimeTargetENS_10shared_ptrIS4_E27__shared_ptr_default_deleteIS4_S4_EENS_9allocatorIS4_EEE16__on_zero_sharedEv, symObjAddr: 0x127C, symBinAddr: 0x1F934, symSize: 0x20 }
  - { offset: 0x1F6D65, size: 0x8, addend: 0x0, symName: __ZNKSt3__120__shared_ptr_pointerIPN8facebook5react18jsinspector_modern13RuntimeTargetENS_10shared_ptrIS4_E27__shared_ptr_default_deleteIS4_S4_EENS_9allocatorIS4_EEE13__get_deleterERKSt9type_info, symObjAddr: 0x129C, symBinAddr: 0x1F954, symSize: 0x38 }
  - { offset: 0x1F6E56, size: 0x8, addend: 0x0, symName: __ZNSt3__120__shared_ptr_pointerIPN8facebook5react18jsinspector_modern13RuntimeTargetENS_10shared_ptrIS4_E27__shared_ptr_default_deleteIS4_S4_EENS_9allocatorIS4_EEE21__on_zero_shared_weakEv, symObjAddr: 0x12D4, symBinAddr: 0x1F98C, symSize: 0x4 }
  - { offset: 0x1F6E88, size: 0x8, addend: 0x0, symName: __ZNSt3__120__shared_ptr_pointerIPN8facebook5react18jsinspector_modern13RuntimeTargetENS_10shared_ptrIS4_E27__shared_ptr_default_deleteIS4_S4_EENS_9allocatorIS4_EEE21__on_zero_shared_weakEv, symObjAddr: 0x12D4, symBinAddr: 0x1F98C, symSize: 0x4 }
  - { offset: 0x1F6EA9, size: 0x8, addend: 0x0, symName: __ZNSt3__120__shared_ptr_pointerIPN8facebook5react18jsinspector_modern13RuntimeTargetENS_10shared_ptrIS4_E27__shared_ptr_default_deleteIS4_S4_EENS_9allocatorIS4_EEE21__on_zero_shared_weakEv, symObjAddr: 0x12D4, symBinAddr: 0x1F98C, symSize: 0x4 }
  - { offset: 0x1F6EDC, size: 0x8, addend: 0x0, symName: __ZNSt3__120__shared_ptr_pointerIPN8facebook5react18jsinspector_modern13RuntimeTargetENS_10shared_ptrIS4_E27__shared_ptr_default_deleteIS4_S4_EENS_9allocatorIS4_EEE21__on_zero_shared_weakEv, symObjAddr: 0x12D4, symBinAddr: 0x1F98C, symSize: 0x4 }
  - { offset: 0x1F71EF, size: 0x8, addend: 0x0, symName: __ZNSt3__120__shared_ptr_emplaceIN8facebook5react18jsinspector_modern12RuntimeAgentENS_9allocatorIS4_EEEC2B8ne200100IJRNS_8functionIFvNS_17basic_string_viewIcNS_11char_traitsIcEEEEEEERNS3_23RuntimeTargetControllerERKNS3_27ExecutionContextDescriptionERNS3_12SessionStateENS_10unique_ptrINS3_20RuntimeAgentDelegateENS_14default_deleteISP_EEEEES6_Li0EEES6_DpOT_, symObjAddr: 0x1558, symBinAddr: 0x1FA18, symSize: 0x4C }
  - { offset: 0x1F7467, size: 0x8, addend: 0x0, symName: __ZNSt3__120__shared_ptr_emplaceIN8facebook5react18jsinspector_modern12RuntimeAgentENS_9allocatorIS4_EEED1Ev, symObjAddr: 0x15A4, symBinAddr: 0x1FA64, symSize: 0x14 }
  - { offset: 0x1F7489, size: 0x8, addend: 0x0, symName: __ZNSt3__120__shared_ptr_emplaceIN8facebook5react18jsinspector_modern12RuntimeAgentENS_9allocatorIS4_EEED1Ev, symObjAddr: 0x15A4, symBinAddr: 0x1FA64, symSize: 0x14 }
  - { offset: 0x1F74BF, size: 0x8, addend: 0x0, symName: __ZNSt3__120__shared_ptr_emplaceIN8facebook5react18jsinspector_modern12RuntimeAgentENS_9allocatorIS4_EEED0Ev, symObjAddr: 0x15B8, symBinAddr: 0x1FA78, symSize: 0x24 }
  - { offset: 0x1F758B, size: 0x8, addend: 0x0, symName: __ZNSt3__120__shared_ptr_emplaceIN8facebook5react18jsinspector_modern12RuntimeAgentENS_9allocatorIS4_EEE16__on_zero_sharedEv, symObjAddr: 0x15DC, symBinAddr: 0x1FA9C, symSize: 0x8 }
  - { offset: 0x1F75B4, size: 0x8, addend: 0x0, symName: __ZNSt3__120__shared_ptr_emplaceIN8facebook5react18jsinspector_modern12RuntimeAgentENS_9allocatorIS4_EEE16__on_zero_sharedEv, symObjAddr: 0x15DC, symBinAddr: 0x1FA9C, symSize: 0x8 }
  - { offset: 0x1F75D1, size: 0x8, addend: 0x0, symName: __ZNSt3__120__shared_ptr_emplaceIN8facebook5react18jsinspector_modern12RuntimeAgentENS_9allocatorIS4_EEE16__on_zero_sharedEv, symObjAddr: 0x15DC, symBinAddr: 0x1FA9C, symSize: 0x8 }
  - { offset: 0x1F7617, size: 0x8, addend: 0x0, symName: __ZNSt3__120__shared_ptr_emplaceIN8facebook5react18jsinspector_modern12RuntimeAgentENS_9allocatorIS4_EEE21__on_zero_shared_weakEv, symObjAddr: 0x15E4, symBinAddr: 0x1FAA4, symSize: 0x4 }
  - { offset: 0x1F7649, size: 0x8, addend: 0x0, symName: __ZNSt3__120__shared_ptr_emplaceIN8facebook5react18jsinspector_modern12RuntimeAgentENS_9allocatorIS4_EEE21__on_zero_shared_weakEv, symObjAddr: 0x15E4, symBinAddr: 0x1FAA4, symSize: 0x4 }
  - { offset: 0x1F766A, size: 0x8, addend: 0x0, symName: __ZNSt3__120__shared_ptr_emplaceIN8facebook5react18jsinspector_modern12RuntimeAgentENS_9allocatorIS4_EEE21__on_zero_shared_weakEv, symObjAddr: 0x15E4, symBinAddr: 0x1FAA4, symSize: 0x4 }
  - { offset: 0x1F768C, size: 0x8, addend: 0x0, symName: __ZNSt3__120__shared_ptr_emplaceIN8facebook5react18jsinspector_modern12RuntimeAgentENS_9allocatorIS4_EEE21__on_zero_shared_weakEv, symObjAddr: 0x15E4, symBinAddr: 0x1FAA4, symSize: 0x4 }
  - { offset: 0x1F76C0, size: 0x8, addend: 0x0, symName: __ZNSt3__120__shared_ptr_emplaceIN8facebook5react18jsinspector_modern12RuntimeAgentENS_9allocatorIS4_EEE21__on_zero_shared_weakEv, symObjAddr: 0x15E4, symBinAddr: 0x1FAA4, symSize: 0x4 }
  - { offset: 0x1F7755, size: 0x8, addend: 0x0, symName: __ZNSt3__112construct_atB8ne200100IN8facebook5react18jsinspector_modern12RuntimeAgentEJRNS_8functionIFvNS_17basic_string_viewIcNS_11char_traitsIcEEEEEEERNS3_23RuntimeTargetControllerERKNS3_27ExecutionContextDescriptionERNS3_12SessionStateENS_10unique_ptrINS3_20RuntimeAgentDelegateENS_14default_deleteISL_EEEEEPS4_EEPT_SR_DpOT0_.cold.1, symObjAddr: 0x3ECC, symBinAddr: 0x2BCB8, symSize: 0x3C }
  - { offset: 0x1F7A5C, size: 0x8, addend: 0x0, symName: __ZNSt3__110__function12__value_funcIFvONS_8functionIFvRN8facebook5react18jsinspector_modern13RuntimeTargetEEEEEEC1B8ne200100IZNS5_18makeScopedExecutorIS6_EENS2_IFvONS2_IFvRT_EEEEEENS_10shared_ptrISF_EENS2_IFvONS2_IFvvEEEEEEEUlOSF_E_Li0EEEST_, symObjAddr: 0x1900, symBinAddr: 0x1FCAC, symSize: 0x68 }
  - { offset: 0x1F80F7, size: 0x8, addend: 0x0, symName: __ZNSt3__110__function6__funcIZN8facebook5react18jsinspector_modern18makeScopedExecutorINS4_13RuntimeTargetEEENS_8functionIFvONS7_IFvRT_EEEEEENS_10shared_ptrIS8_EENS7_IFvONS7_IFvvEEEEEEEUlOS8_E_NS_9allocatorISN_EEFvONS7_IFvRS6_EEEEED1Ev, symObjAddr: 0x1968, symBinAddr: 0x1FD14, symSize: 0x68 }
  - { offset: 0x1F8290, size: 0x8, addend: 0x0, symName: __ZNSt3__110__function6__funcIZN8facebook5react18jsinspector_modern18makeScopedExecutorINS4_13RuntimeTargetEEENS_8functionIFvONS7_IFvRT_EEEEEENS_10shared_ptrIS8_EENS7_IFvONS7_IFvvEEEEEEEUlOS8_E_NS_9allocatorISN_EEFvONS7_IFvRS6_EEEEED0Ev, symObjAddr: 0x19D0, symBinAddr: 0x1FD7C, symSize: 0x68 }
  - { offset: 0x1F85EA, size: 0x8, addend: 0x0, symName: __ZNKSt3__110__function6__funcIZN8facebook5react18jsinspector_modern18makeScopedExecutorINS4_13RuntimeTargetEEENS_8functionIFvONS7_IFvRT_EEEEEENS_10shared_ptrIS8_EENS7_IFvONS7_IFvvEEEEEEEUlOS8_E_NS_9allocatorISN_EEFvONS7_IFvRS6_EEEEE7__cloneEv, symObjAddr: 0x1A38, symBinAddr: 0x1FDE4, symSize: 0x64 }
  - { offset: 0x1F87FB, size: 0x8, addend: 0x0, symName: __ZNSt3__110__function12__alloc_funcIZN8facebook5react18jsinspector_modern18makeScopedExecutorINS4_13RuntimeTargetEEENS_8functionIFvONS7_IFvRT_EEEEEENS_10shared_ptrIS8_EENS7_IFvONS7_IFvvEEEEEEEUlOS8_E_NS_9allocatorISN_EEFvONS7_IFvRS6_EEEEEC2B8ne200100ERKSN_OSP_, symObjAddr: 0x1BA4, symBinAddr: 0x1FEEC, symSize: 0x64 }
  - { offset: 0x1F8A2A, size: 0x8, addend: 0x0, symName: __ZNKSt3__110__function6__funcIZN8facebook5react18jsinspector_modern18makeScopedExecutorINS4_13RuntimeTargetEEENS_8functionIFvONS7_IFvRT_EEEEEENS_10shared_ptrIS8_EENS7_IFvONS7_IFvvEEEEEEEUlOS8_E_NS_9allocatorISN_EEFvONS7_IFvRS6_EEEEE7__cloneEPNS0_6__baseISU_EE, symObjAddr: 0x1A9C, symBinAddr: 0x1FE48, symSize: 0x24 }
  - { offset: 0x1F8ABC, size: 0x8, addend: 0x0, symName: __ZNSt3__110__function12__alloc_funcIZN8facebook5react18jsinspector_modern18makeScopedExecutorINS4_13RuntimeTargetEEENS_8functionIFvONS7_IFvRT_EEEEEENS_10shared_ptrIS8_EENS7_IFvONS7_IFvvEEEEEEEUlOS8_E_NS_9allocatorISN_EEFvONS7_IFvRS6_EEEEEC2B8ne200100ERKSN_RKSP_, symObjAddr: 0x1C08, symBinAddr: 0x1FF50, symSize: 0x64 }
  - { offset: 0x1F8C53, size: 0x8, addend: 0x0, symName: __ZNSt3__110__function6__funcIZN8facebook5react18jsinspector_modern18makeScopedExecutorINS4_13RuntimeTargetEEENS_8functionIFvONS7_IFvRT_EEEEEENS_10shared_ptrIS8_EENS7_IFvONS7_IFvvEEEEEEEUlOS8_E_NS_9allocatorISN_EEFvONS7_IFvRS6_EEEEE7destroyEv, symObjAddr: 0x1AC0, symBinAddr: 0x1FE6C, symSize: 0x8 }
  - { offset: 0x1F8D2D, size: 0x8, addend: 0x0, symName: __ZNSt3__110__function6__funcIZN8facebook5react18jsinspector_modern18makeScopedExecutorINS4_13RuntimeTargetEEENS_8functionIFvONS7_IFvRT_EEEEEENS_10shared_ptrIS8_EENS7_IFvONS7_IFvvEEEEEEEUlOS8_E_NS_9allocatorISN_EEFvONS7_IFvRS6_EEEEE18destroy_deallocateEv, symObjAddr: 0x1AC8, symBinAddr: 0x1FE74, symSize: 0x28 }
  - { offset: 0x1F8E47, size: 0x8, addend: 0x0, symName: __ZNSt3__110__function6__funcIZN8facebook5react18jsinspector_modern18makeScopedExecutorINS4_13RuntimeTargetEEENS_8functionIFvONS7_IFvRT_EEEEEENS_10shared_ptrIS8_EENS7_IFvONS7_IFvvEEEEEEEUlOS8_E_NS_9allocatorISN_EEFvONS7_IFvRS6_EEEEEclEST_, symObjAddr: 0x1AF0, symBinAddr: 0x1FE9C, symSize: 0x8 }
  - { offset: 0x1F8F05, size: 0x8, addend: 0x0, symName: __ZNKSt3__110__function6__funcIZN8facebook5react18jsinspector_modern18makeScopedExecutorINS4_13RuntimeTargetEEENS_8functionIFvONS7_IFvRT_EEEEEENS_10shared_ptrIS8_EENS7_IFvONS7_IFvvEEEEEEEUlOS8_E_NS_9allocatorISN_EEFvONS7_IFvRS6_EEEEE6targetERKSt9type_info, symObjAddr: 0x1AF8, symBinAddr: 0x1FEA4, symSize: 0x3C }
  - { offset: 0x1F8F51, size: 0x8, addend: 0x0, symName: __ZNKSt3__110__function6__funcIZN8facebook5react18jsinspector_modern18makeScopedExecutorINS4_13RuntimeTargetEEENS_8functionIFvONS7_IFvRT_EEEEEENS_10shared_ptrIS8_EENS7_IFvONS7_IFvvEEEEEEEUlOS8_E_NS_9allocatorISN_EEFvONS7_IFvRS6_EEEEE11target_typeEv, symObjAddr: 0x1B34, symBinAddr: 0x1FEE0, symSize: 0xC }
  - { offset: 0x1F9492, size: 0x8, addend: 0x0, symName: __ZNSt3__110__function12__value_funcIFvRN8facebook5react18jsinspector_modern13RuntimeTargetEEEC2B8ne200100EOS8_, symObjAddr: 0x1EF4, symBinAddr: 0x2013C, symSize: 0x64 }
  - { offset: 0x1F95FF, size: 0x8, addend: 0x0, symName: __ZNSt3__110__function6__funcIZZN8facebook5react18jsinspector_modern18makeScopedExecutorINS4_13RuntimeTargetEEENS_8functionIFvONS7_IFvRT_EEEEEENS_10shared_ptrIS8_EENS7_IFvONS7_IFvvEEEEEEENKUlOS8_E_clINS7_IFvRS6_EEEEEDaSM_EUlvE_NS_9allocatorIST_EESH_ED1Ev, symObjAddr: 0x1F58, symBinAddr: 0x201A0, symSize: 0x64 }
  - { offset: 0x1F9798, size: 0x8, addend: 0x0, symName: __ZNSt3__110__function6__funcIZZN8facebook5react18jsinspector_modern18makeScopedExecutorINS4_13RuntimeTargetEEENS_8functionIFvONS7_IFvRT_EEEEEENS_10shared_ptrIS8_EENS7_IFvONS7_IFvvEEEEEEENKUlOS8_E_clINS7_IFvRS6_EEEEEDaSM_EUlvE_NS_9allocatorIST_EESH_ED0Ev, symObjAddr: 0x1FBC, symBinAddr: 0x20204, symSize: 0x64 }
  - { offset: 0x1F9AF2, size: 0x8, addend: 0x0, symName: __ZNKSt3__110__function6__funcIZZN8facebook5react18jsinspector_modern18makeScopedExecutorINS4_13RuntimeTargetEEENS_8functionIFvONS7_IFvRT_EEEEEENS_10shared_ptrIS8_EENS7_IFvONS7_IFvvEEEEEEENKUlOS8_E_clINS7_IFvRS6_EEEEEDaSM_EUlvE_NS_9allocatorIST_EESH_E7__cloneEv, symObjAddr: 0x2020, symBinAddr: 0x20268, symSize: 0x60 }
  - { offset: 0x1F9D03, size: 0x8, addend: 0x0, symName: __ZNSt3__110__function12__alloc_funcIZZN8facebook5react18jsinspector_modern18makeScopedExecutorINS4_13RuntimeTargetEEENS_8functionIFvONS7_IFvRT_EEEEEENS_10shared_ptrIS8_EENS7_IFvONS7_IFvvEEEEEEENKUlOS8_E_clINS7_IFvRS6_EEEEEDaSM_EUlvE_NS_9allocatorIST_EESH_EC2B8ne200100ERKST_OSV_, symObjAddr: 0x2120, symBinAddr: 0x20368, symSize: 0x64 }
  - { offset: 0x1F9F32, size: 0x8, addend: 0x0, symName: __ZNKSt3__110__function6__funcIZZN8facebook5react18jsinspector_modern18makeScopedExecutorINS4_13RuntimeTargetEEENS_8functionIFvONS7_IFvRT_EEEEEENS_10shared_ptrIS8_EENS7_IFvONS7_IFvvEEEEEEENKUlOS8_E_clINS7_IFvRS6_EEEEEDaSM_EUlvE_NS_9allocatorIST_EESH_E7__cloneEPNS0_6__baseISH_EE, symObjAddr: 0x2080, symBinAddr: 0x202C8, symSize: 0x20 }
  - { offset: 0x1F9FC4, size: 0x8, addend: 0x0, symName: __ZNSt3__110__function12__alloc_funcIZZN8facebook5react18jsinspector_modern18makeScopedExecutorINS4_13RuntimeTargetEEENS_8functionIFvONS7_IFvRT_EEEEEENS_10shared_ptrIS8_EENS7_IFvONS7_IFvvEEEEEEENKUlOS8_E_clINS7_IFvRS6_EEEEEDaSM_EUlvE_NS_9allocatorIST_EESH_EC2B8ne200100ERKST_RKSV_, symObjAddr: 0x21E8, symBinAddr: 0x203CC, symSize: 0x64 }
  - { offset: 0x1FA15B, size: 0x8, addend: 0x0, symName: __ZNSt3__110__function6__funcIZZN8facebook5react18jsinspector_modern18makeScopedExecutorINS4_13RuntimeTargetEEENS_8functionIFvONS7_IFvRT_EEEEEENS_10shared_ptrIS8_EENS7_IFvONS7_IFvvEEEEEEENKUlOS8_E_clINS7_IFvRS6_EEEEEDaSM_EUlvE_NS_9allocatorIST_EESH_E7destroyEv, symObjAddr: 0x20A0, symBinAddr: 0x202E8, symSize: 0x8 }
  - { offset: 0x1FA235, size: 0x8, addend: 0x0, symName: __ZNSt3__110__function6__funcIZZN8facebook5react18jsinspector_modern18makeScopedExecutorINS4_13RuntimeTargetEEENS_8functionIFvONS7_IFvRT_EEEEEENS_10shared_ptrIS8_EENS7_IFvONS7_IFvvEEEEEEENKUlOS8_E_clINS7_IFvRS6_EEEEEDaSM_EUlvE_NS_9allocatorIST_EESH_E18destroy_deallocateEv, symObjAddr: 0x20A8, symBinAddr: 0x202F0, symSize: 0x28 }
  - { offset: 0x1FA316, size: 0x8, addend: 0x0, symName: __ZNSt3__110__function6__funcIZZN8facebook5react18jsinspector_modern18makeScopedExecutorINS4_13RuntimeTargetEEENS_8functionIFvONS7_IFvRT_EEEEEENS_10shared_ptrIS8_EENS7_IFvONS7_IFvvEEEEEEENKUlOS8_E_clINS7_IFvRS6_EEEEEDaSM_EUlvE_NS_9allocatorIST_EESH_EclEv, symObjAddr: 0x20D0, symBinAddr: 0x20318, symSize: 0x8 }
  - { offset: 0x1FA376, size: 0x8, addend: 0x0, symName: __ZNSt3__128__invoke_void_return_wrapperIvLb1EE6__callB8ne200100IJRZZN8facebook5react18jsinspector_modern18makeScopedExecutorINS5_13RuntimeTargetEEENS_8functionIFvONS8_IFvRT_EEEEEENS_10shared_ptrIS9_EENS8_IFvONS8_IFvvEEEEEEENKUlOS9_E_clINS8_IFvRS7_EEEEEDaSN_EUlvE_EEEvDpOT_, symObjAddr: 0x22A8, symBinAddr: 0x20430, symSize: 0xB4 }
  - { offset: 0x1FA513, size: 0x8, addend: 0x0, symName: __ZNKSt3__110__function6__funcIZZN8facebook5react18jsinspector_modern18makeScopedExecutorINS4_13RuntimeTargetEEENS_8functionIFvONS7_IFvRT_EEEEEENS_10shared_ptrIS8_EENS7_IFvONS7_IFvvEEEEEEENKUlOS8_E_clINS7_IFvRS6_EEEEEDaSM_EUlvE_NS_9allocatorIST_EESH_E6targetERKSt9type_info, symObjAddr: 0x20D8, symBinAddr: 0x20320, symSize: 0x3C }
  - { offset: 0x1FA55F, size: 0x8, addend: 0x0, symName: __ZNKSt3__110__function6__funcIZZN8facebook5react18jsinspector_modern18makeScopedExecutorINS4_13RuntimeTargetEEENS_8functionIFvONS7_IFvRT_EEEEEENS_10shared_ptrIS8_EENS7_IFvONS7_IFvvEEEEEEENKUlOS8_E_clINS7_IFvRS6_EEEEEDaSM_EUlvE_NS_9allocatorIST_EESH_E11target_typeEv, symObjAddr: 0x2114, symBinAddr: 0x2035C, symSize: 0xC }
  - { offset: 0x1FA7B9, size: 0x8, addend: 0x0, symName: '__ZNSt3__110__function6__funcIZN8facebook5react18jsinspector_modern13RuntimeTarget21installBindingHandlerERKNS_12basic_stringIcNS_11char_traitsIcEENS_9allocatorIcEEEEE3$_0NS9_ISE_EEFvRNS2_3jsi7RuntimeEEED1Ev', symObjAddr: 0x23D0, symBinAddr: 0x204E4, symSize: 0x68 }
  - { offset: 0x1FAA1A, size: 0x8, addend: 0x0, symName: '__ZNSt3__110__function6__funcIZN8facebook5react18jsinspector_modern13RuntimeTarget21installBindingHandlerERKNS_12basic_stringIcNS_11char_traitsIcEENS_9allocatorIcEEEEE3$_0NS9_ISE_EEFvRNS2_3jsi7RuntimeEEED0Ev', symObjAddr: 0x2438, symBinAddr: 0x2054C, symSize: 0x68 }
  - { offset: 0x1FAEA1, size: 0x8, addend: 0x0, symName: '__ZNKSt3__110__function6__funcIZN8facebook5react18jsinspector_modern13RuntimeTarget21installBindingHandlerERKNS_12basic_stringIcNS_11char_traitsIcEENS_9allocatorIcEEEEE3$_0NS9_ISE_EEFvRNS2_3jsi7RuntimeEEE7__cloneEv', symObjAddr: 0x24A0, symBinAddr: 0x205B4, symSize: 0xA4 }
  - { offset: 0x1FB389, size: 0x8, addend: 0x0, symName: '__ZNKSt3__110__function6__funcIZN8facebook5react18jsinspector_modern13RuntimeTarget21installBindingHandlerERKNS_12basic_stringIcNS_11char_traitsIcEENS_9allocatorIcEEEEE3$_0NS9_ISE_EEFvRNS2_3jsi7RuntimeEEE7__cloneEPNS0_6__baseISJ_EE', symObjAddr: 0x2544, symBinAddr: 0x20658, symSize: 0x88 }
  - { offset: 0x1FB609, size: 0x8, addend: 0x0, symName: '__ZNSt3__110__function6__funcIZN8facebook5react18jsinspector_modern13RuntimeTarget21installBindingHandlerERKNS_12basic_stringIcNS_11char_traitsIcEENS_9allocatorIcEEEEE3$_0NS9_ISE_EEFvRNS2_3jsi7RuntimeEEE7destroyEv', symObjAddr: 0x25CC, symBinAddr: 0x206E0, symSize: 0x8 }
  - { offset: 0x1FB63E, size: 0x8, addend: 0x0, symName: '__ZNSt3__110__function12__alloc_funcIZN8facebook5react18jsinspector_modern13RuntimeTarget21installBindingHandlerERKNS_12basic_stringIcNS_11char_traitsIcEENS_9allocatorIcEEEEE3$_0NS9_ISE_EEFvRNS2_3jsi7RuntimeEEE7destroyB8ne200100Ev', symObjAddr: 0x2A70, symBinAddr: 0x20B20, symSize: 0x60 }
  - { offset: 0x1FB7F8, size: 0x8, addend: 0x0, symName: '__ZNSt3__110__function6__funcIZN8facebook5react18jsinspector_modern13RuntimeTarget21installBindingHandlerERKNS_12basic_stringIcNS_11char_traitsIcEENS_9allocatorIcEEEEE3$_0NS9_ISE_EEFvRNS2_3jsi7RuntimeEEE18destroy_deallocateEv', symObjAddr: 0x25D4, symBinAddr: 0x206E8, symSize: 0x28 }
  - { offset: 0x1FBFF1, size: 0x8, addend: 0x0, symName: '__ZNSt3__110__function6__funcIZN8facebook5react18jsinspector_modern13RuntimeTarget21installBindingHandlerERKNS_12basic_stringIcNS_11char_traitsIcEENS_9allocatorIcEEEEE3$_0NS9_ISE_EEFvRNS2_3jsi7RuntimeEEEclESI_', symObjAddr: 0x25FC, symBinAddr: 0x20710, symSize: 0x364 }
  - { offset: 0x1FCF2C, size: 0x8, addend: 0x0, symName: __ZNSt3__110__function12__value_funcIFN8facebook3jsi5ValueERNS3_7RuntimeERKS4_PS7_mEEC2B8ne200100EOSB_, symObjAddr: 0x2BBC, symBinAddr: 0x20C10, symSize: 0x64 }
  - { offset: 0x1FCF7A, size: 0x8, addend: 0x0, symName: __ZNK8facebook3jsi6Object11setPropertyINS0_8FunctionEEEvRNS0_7RuntimeERKNS0_10PropNameIDEOT_, symObjAddr: 0x2AD0, symBinAddr: 0x20B80, symSize: 0x90 }
  - { offset: 0x1FD235, size: 0x8, addend: 0x0, symName: '__ZNKSt3__110__function6__funcIZN8facebook5react18jsinspector_modern13RuntimeTarget21installBindingHandlerERKNS_12basic_stringIcNS_11char_traitsIcEENS_9allocatorIcEEEEE3$_0NS9_ISE_EEFvRNS2_3jsi7RuntimeEEE6targetERKSt9type_info', symObjAddr: 0x2960, symBinAddr: 0x20A74, symSize: 0x3C }
  - { offset: 0x1FD281, size: 0x8, addend: 0x0, symName: '__ZNKSt3__110__function6__funcIZN8facebook5react18jsinspector_modern13RuntimeTarget21installBindingHandlerERKNS_12basic_stringIcNS_11char_traitsIcEENS_9allocatorIcEEEEE3$_0NS9_ISE_EEFvRNS2_3jsi7RuntimeEEE11target_typeEv', symObjAddr: 0x299C, symBinAddr: 0x20AB0, symSize: 0xC }
  - { offset: 0x1FD428, size: 0x8, addend: 0x0, symName: '__ZNSt3__110__function6__funcIZZN8facebook5react18jsinspector_modern13RuntimeTarget21installBindingHandlerERKNS_12basic_stringIcNS_11char_traitsIcEENS_9allocatorIcEEEEENK3$_0clERNS2_3jsi7RuntimeEEUlSH_RKNSF_5ValueEPSJ_mE_NS9_ISM_EEFSI_SH_SK_SL_mEED1Ev', symObjAddr: 0x2C20, symBinAddr: 0x20C74, symSize: 0x68 }
  - { offset: 0x1FD689, size: 0x8, addend: 0x0, symName: '__ZNSt3__110__function6__funcIZZN8facebook5react18jsinspector_modern13RuntimeTarget21installBindingHandlerERKNS_12basic_stringIcNS_11char_traitsIcEENS_9allocatorIcEEEEENK3$_0clERNS2_3jsi7RuntimeEEUlSH_RKNSF_5ValueEPSJ_mE_NS9_ISM_EEFSI_SH_SK_SL_mEED0Ev', symObjAddr: 0x2C88, symBinAddr: 0x20CDC, symSize: 0x68 }
  - { offset: 0x1FDA97, size: 0x8, addend: 0x0, symName: '__ZNKSt3__110__function6__funcIZZN8facebook5react18jsinspector_modern13RuntimeTarget21installBindingHandlerERKNS_12basic_stringIcNS_11char_traitsIcEENS_9allocatorIcEEEEENK3$_0clERNS2_3jsi7RuntimeEEUlSH_RKNSF_5ValueEPSJ_mE_NS9_ISM_EEFSI_SH_SK_SL_mEE7__cloneEv', symObjAddr: 0x2CF0, symBinAddr: 0x20D44, symSize: 0xA4 }
  - { offset: 0x1FDF3B, size: 0x8, addend: 0x0, symName: '__ZNKSt3__110__function6__funcIZZN8facebook5react18jsinspector_modern13RuntimeTarget21installBindingHandlerERKNS_12basic_stringIcNS_11char_traitsIcEENS_9allocatorIcEEEEENK3$_0clERNS2_3jsi7RuntimeEEUlSH_RKNSF_5ValueEPSJ_mE_NS9_ISM_EEFSI_SH_SK_SL_mEE7__cloneEPNS0_6__baseISO_EE', symObjAddr: 0x2D94, symBinAddr: 0x20DE8, symSize: 0x88 }
  - { offset: 0x1FE1BB, size: 0x8, addend: 0x0, symName: '__ZNSt3__110__function6__funcIZZN8facebook5react18jsinspector_modern13RuntimeTarget21installBindingHandlerERKNS_12basic_stringIcNS_11char_traitsIcEENS_9allocatorIcEEEEENK3$_0clERNS2_3jsi7RuntimeEEUlSH_RKNSF_5ValueEPSJ_mE_NS9_ISM_EEFSI_SH_SK_SL_mEE7destroyEv', symObjAddr: 0x2E1C, symBinAddr: 0x20E70, symSize: 0x8 }
  - { offset: 0x1FE2FF, size: 0x8, addend: 0x0, symName: '__ZNSt3__110__function6__funcIZZN8facebook5react18jsinspector_modern13RuntimeTarget21installBindingHandlerERKNS_12basic_stringIcNS_11char_traitsIcEENS_9allocatorIcEEEEENK3$_0clERNS2_3jsi7RuntimeEEUlSH_RKNSF_5ValueEPSJ_mE_NS9_ISM_EEFSI_SH_SK_SL_mEE18destroy_deallocateEv', symObjAddr: 0x2E24, symBinAddr: 0x20E78, symSize: 0x28 }
  - { offset: 0x1FEA53, size: 0x8, addend: 0x0, symName: '__ZNSt3__110__function6__funcIZZN8facebook5react18jsinspector_modern13RuntimeTarget21installBindingHandlerERKNS_12basic_stringIcNS_11char_traitsIcEENS_9allocatorIcEEEEENK3$_0clERNS2_3jsi7RuntimeEEUlSH_RKNSF_5ValueEPSJ_mE_NS9_ISM_EEFSI_SH_SK_SL_mEEclESH_SK_OSL_Om', symObjAddr: 0x2E4C, symBinAddr: 0x20EA0, symSize: 0x2D8 }
  - { offset: 0x1FF8EE, size: 0x8, addend: 0x0, symName: __ZN8facebook3jsi7JSErrorC1ERNS0_7RuntimeEPKc, symObjAddr: 0x31CC, symBinAddr: 0x211C0, symSize: 0x74 }
  - { offset: 0x1FFB86, size: 0x8, addend: 0x0, symName: '__ZZZZN8facebook5react18jsinspector_modern13RuntimeTarget21installBindingHandlerERKNSt3__112basic_stringIcNS3_11char_traitsIcEENS3_9allocatorIcEEEEENK3$_0clERNS_3jsi7RuntimeEENKUlSF_RKNSD_5ValueEPSH_mE_clESF_SI_SJ_mENUlRT_E_D1Ev', symObjAddr: 0x3240, symBinAddr: 0x21234, symSize: 0x40 }
  - { offset: 0x1FFDC2, size: 0x8, addend: 0x0, symName: '__ZNKSt3__110__function6__funcIZZN8facebook5react18jsinspector_modern13RuntimeTarget21installBindingHandlerERKNS_12basic_stringIcNS_11char_traitsIcEENS_9allocatorIcEEEEENK3$_0clERNS2_3jsi7RuntimeEEUlSH_RKNSF_5ValueEPSJ_mE_NS9_ISM_EEFSI_SH_SK_SL_mEE6targetERKSt9type_info', symObjAddr: 0x3124, symBinAddr: 0x21178, symSize: 0x3C }
  - { offset: 0x1FFE0E, size: 0x8, addend: 0x0, symName: '__ZNKSt3__110__function6__funcIZZN8facebook5react18jsinspector_modern13RuntimeTarget21installBindingHandlerERKNS_12basic_stringIcNS_11char_traitsIcEENS_9allocatorIcEEEEENK3$_0clERNS2_3jsi7RuntimeEEUlSH_RKNSF_5ValueEPSJ_mE_NS9_ISM_EEFSI_SH_SK_SL_mEE11target_typeEv', symObjAddr: 0x3160, symBinAddr: 0x211B4, symSize: 0xC }
  - { offset: 0x1FFFDE, size: 0x8, addend: 0x0, symName: '__ZNSt3__110__function6__funcIZZZN8facebook5react18jsinspector_modern13RuntimeTarget21installBindingHandlerERKNS_12basic_stringIcNS_11char_traitsIcEENS_9allocatorIcEEEEENK3$_0clERNS2_3jsi7RuntimeEENKUlSH_RKNSF_5ValueEPSJ_mE_clESH_SK_SL_mEUlRT_E_NS9_ISP_EEFvRS5_EED1Ev', symObjAddr: 0x3324, symBinAddr: 0x21274, symSize: 0x4C }
  - { offset: 0x2000D3, size: 0x8, addend: 0x0, symName: '__ZNSt3__110__function6__funcIZZZN8facebook5react18jsinspector_modern13RuntimeTarget21installBindingHandlerERKNS_12basic_stringIcNS_11char_traitsIcEENS_9allocatorIcEEEEENK3$_0clERNS2_3jsi7RuntimeEENKUlSH_RKNSF_5ValueEPSJ_mE_clESH_SK_SL_mEUlRT_E_NS9_ISP_EEFvRS5_EED1Ev', symObjAddr: 0x3324, symBinAddr: 0x21274, symSize: 0x4C }
  - { offset: 0x2003B2, size: 0x8, addend: 0x0, symName: '__ZNSt3__110__function6__funcIZZZN8facebook5react18jsinspector_modern13RuntimeTarget21installBindingHandlerERKNS_12basic_stringIcNS_11char_traitsIcEENS_9allocatorIcEEEEENK3$_0clERNS2_3jsi7RuntimeEENKUlSH_RKNSF_5ValueEPSJ_mE_clESH_SK_SL_mEUlRT_E_NS9_ISP_EEFvRS5_EED0Ev', symObjAddr: 0x3370, symBinAddr: 0x212C0, symSize: 0x4C }
  - { offset: 0x20083E, size: 0x8, addend: 0x0, symName: '__ZNKSt3__110__function6__funcIZZZN8facebook5react18jsinspector_modern13RuntimeTarget21installBindingHandlerERKNS_12basic_stringIcNS_11char_traitsIcEENS_9allocatorIcEEEEENK3$_0clERNS2_3jsi7RuntimeEENKUlSH_RKNSF_5ValueEPSJ_mE_clESH_SK_SL_mEUlRT_E_NS9_ISP_EEFvRS5_EE7__cloneEv', symObjAddr: 0x33BC, symBinAddr: 0x2130C, symSize: 0xC0 }
  - { offset: 0x200CE3, size: 0x8, addend: 0x0, symName: '__ZNKSt3__110__function6__funcIZZZN8facebook5react18jsinspector_modern13RuntimeTarget21installBindingHandlerERKNS_12basic_stringIcNS_11char_traitsIcEENS_9allocatorIcEEEEENK3$_0clERNS2_3jsi7RuntimeEENKUlSH_RKNSF_5ValueEPSJ_mE_clESH_SK_SL_mEUlRT_E_NS9_ISP_EEFvRS5_EE7__cloneEPNS0_6__baseISS_EE', symObjAddr: 0x347C, symBinAddr: 0x213CC, symSize: 0xA4 }
  - { offset: 0x200F64, size: 0x8, addend: 0x0, symName: '__ZNSt3__110__function6__funcIZZZN8facebook5react18jsinspector_modern13RuntimeTarget21installBindingHandlerERKNS_12basic_stringIcNS_11char_traitsIcEENS_9allocatorIcEEEEENK3$_0clERNS2_3jsi7RuntimeEENKUlSH_RKNSF_5ValueEPSJ_mE_clESH_SK_SL_mEUlRT_E_NS9_ISP_EEFvRS5_EE7destroyEv', symObjAddr: 0x3520, symBinAddr: 0x21470, symSize: 0x8 }
  - { offset: 0x2010F0, size: 0x8, addend: 0x0, symName: '__ZNSt3__110__function6__funcIZZZN8facebook5react18jsinspector_modern13RuntimeTarget21installBindingHandlerERKNS_12basic_stringIcNS_11char_traitsIcEENS_9allocatorIcEEEEENK3$_0clERNS2_3jsi7RuntimeEENKUlSH_RKNSF_5ValueEPSJ_mE_clESH_SK_SL_mEUlRT_E_NS9_ISP_EEFvRS5_EE18destroy_deallocateEv', symObjAddr: 0x3528, symBinAddr: 0x21478, symSize: 0x28 }
  - { offset: 0x201413, size: 0x8, addend: 0x0, symName: '__ZNSt3__110__function6__funcIZZZN8facebook5react18jsinspector_modern13RuntimeTarget21installBindingHandlerERKNS_12basic_stringIcNS_11char_traitsIcEENS_9allocatorIcEEEEENK3$_0clERNS2_3jsi7RuntimeEENKUlSH_RKNSF_5ValueEPSJ_mE_clESH_SK_SL_mEUlRT_E_NS9_ISP_EEFvRS5_EEclESR_', symObjAddr: 0x3550, symBinAddr: 0x214A0, symSize: 0x174 }
  - { offset: 0x201CEA, size: 0x8, addend: 0x0, symName: '__ZNKSt3__110__function6__funcIZZZN8facebook5react18jsinspector_modern13RuntimeTarget21installBindingHandlerERKNS_12basic_stringIcNS_11char_traitsIcEENS_9allocatorIcEEEEENK3$_0clERNS2_3jsi7RuntimeEENKUlSH_RKNSF_5ValueEPSJ_mE_clESH_SK_SL_mEUlRT_E_NS9_ISP_EEFvRS5_EE6targetERKSt9type_info', symObjAddr: 0x36C4, symBinAddr: 0x21614, symSize: 0x3C }
  - { offset: 0x201D36, size: 0x8, addend: 0x0, symName: '__ZNKSt3__110__function6__funcIZZZN8facebook5react18jsinspector_modern13RuntimeTarget21installBindingHandlerERKNS_12basic_stringIcNS_11char_traitsIcEENS_9allocatorIcEEEEENK3$_0clERNS2_3jsi7RuntimeEENKUlSH_RKNSF_5ValueEPSJ_mE_clESH_SK_SL_mEUlRT_E_NS9_ISP_EEFvRS5_EE11target_typeEv', symObjAddr: 0x3700, symBinAddr: 0x21650, symSize: 0xC }
  - { offset: 0x201DAE, size: 0x8, addend: 0x0, symName: '__ZNSt3__110__function6__funcIZN8facebook5react18jsinspector_modern13RuntimeTarget26emitDebuggerSessionCreatedEvE3$_0NS_9allocatorIS6_EEFvRNS2_3jsi7RuntimeEEED1Ev', symObjAddr: 0x37DC, symBinAddr: 0x2165C, symSize: 0x58 }
  - { offset: 0x201F0A, size: 0x8, addend: 0x0, symName: '__ZNSt3__110__function6__funcIZN8facebook5react18jsinspector_modern13RuntimeTarget26emitDebuggerSessionCreatedEvE3$_0NS_9allocatorIS6_EEFvRNS2_3jsi7RuntimeEEED0Ev', symObjAddr: 0x3834, symBinAddr: 0x216B4, symSize: 0x58 }
  - { offset: 0x202299, size: 0x8, addend: 0x0, symName: '__ZNKSt3__110__function6__funcIZN8facebook5react18jsinspector_modern13RuntimeTarget26emitDebuggerSessionCreatedEvE3$_0NS_9allocatorIS6_EEFvRNS2_3jsi7RuntimeEEE7__cloneEv', symObjAddr: 0x388C, symBinAddr: 0x2170C, symSize: 0x54 }
  - { offset: 0x2025FB, size: 0x8, addend: 0x0, symName: '__ZNKSt3__110__function6__funcIZN8facebook5react18jsinspector_modern13RuntimeTarget26emitDebuggerSessionCreatedEvE3$_0NS_9allocatorIS6_EEFvRNS2_3jsi7RuntimeEEE7__cloneEPNS0_6__baseISC_EE', symObjAddr: 0x38E0, symBinAddr: 0x21760, symSize: 0x1C }
  - { offset: 0x20274D, size: 0x8, addend: 0x0, symName: '__ZNSt3__110__function6__funcIZN8facebook5react18jsinspector_modern13RuntimeTarget26emitDebuggerSessionCreatedEvE3$_0NS_9allocatorIS6_EEFvRNS2_3jsi7RuntimeEEE7destroyEv', symObjAddr: 0x38FC, symBinAddr: 0x2177C, symSize: 0x30 }
  - { offset: 0x202856, size: 0x8, addend: 0x0, symName: '__ZNSt3__110__function6__funcIZN8facebook5react18jsinspector_modern13RuntimeTarget26emitDebuggerSessionCreatedEvE3$_0NS_9allocatorIS6_EEFvRNS2_3jsi7RuntimeEEE18destroy_deallocateEv', symObjAddr: 0x392C, symBinAddr: 0x217AC, symSize: 0x4C }
  - { offset: 0x202AA3, size: 0x8, addend: 0x0, symName: '__ZNSt3__110__function6__funcIZN8facebook5react18jsinspector_modern13RuntimeTarget26emitDebuggerSessionCreatedEvE3$_0NS_9allocatorIS6_EEFvRNS2_3jsi7RuntimeEEEclESB_', symObjAddr: 0x3978, symBinAddr: 0x217F8, symSize: 0x70 }
  - { offset: 0x202BCB, size: 0x8, addend: 0x0, symName: '__ZNKSt3__110__function6__funcIZN8facebook5react18jsinspector_modern13RuntimeTarget26emitDebuggerSessionCreatedEvE3$_0NS_9allocatorIS6_EEFvRNS2_3jsi7RuntimeEEE6targetERKSt9type_info', symObjAddr: 0x39E8, symBinAddr: 0x21868, symSize: 0x3C }
  - { offset: 0x202C17, size: 0x8, addend: 0x0, symName: '__ZNKSt3__110__function6__funcIZN8facebook5react18jsinspector_modern13RuntimeTarget26emitDebuggerSessionCreatedEvE3$_0NS_9allocatorIS6_EEFvRNS2_3jsi7RuntimeEEE11target_typeEv', symObjAddr: 0x3A24, symBinAddr: 0x218A4, symSize: 0xC }
  - { offset: 0x202D42, size: 0x8, addend: 0x0, symName: '__ZNSt3__110__function6__funcIZN8facebook5react18jsinspector_modern13RuntimeTarget28emitDebuggerSessionDestroyedEvE3$_0NS_9allocatorIS6_EEFvRNS2_3jsi7RuntimeEEED1Ev', symObjAddr: 0x3BC8, symBinAddr: 0x21A48, symSize: 0x58 }
  - { offset: 0x202E9E, size: 0x8, addend: 0x0, symName: '__ZNSt3__110__function6__funcIZN8facebook5react18jsinspector_modern13RuntimeTarget28emitDebuggerSessionDestroyedEvE3$_0NS_9allocatorIS6_EEFvRNS2_3jsi7RuntimeEEED0Ev', symObjAddr: 0x3C20, symBinAddr: 0x21AA0, symSize: 0x58 }
  - { offset: 0x20322D, size: 0x8, addend: 0x0, symName: '__ZNKSt3__110__function6__funcIZN8facebook5react18jsinspector_modern13RuntimeTarget28emitDebuggerSessionDestroyedEvE3$_0NS_9allocatorIS6_EEFvRNS2_3jsi7RuntimeEEE7__cloneEv', symObjAddr: 0x3C78, symBinAddr: 0x21AF8, symSize: 0x54 }
  - { offset: 0x20358F, size: 0x8, addend: 0x0, symName: '__ZNKSt3__110__function6__funcIZN8facebook5react18jsinspector_modern13RuntimeTarget28emitDebuggerSessionDestroyedEvE3$_0NS_9allocatorIS6_EEFvRNS2_3jsi7RuntimeEEE7__cloneEPNS0_6__baseISC_EE', symObjAddr: 0x3CCC, symBinAddr: 0x21B4C, symSize: 0x1C }
  - { offset: 0x2036E1, size: 0x8, addend: 0x0, symName: '__ZNSt3__110__function6__funcIZN8facebook5react18jsinspector_modern13RuntimeTarget28emitDebuggerSessionDestroyedEvE3$_0NS_9allocatorIS6_EEFvRNS2_3jsi7RuntimeEEE7destroyEv', symObjAddr: 0x3CE8, symBinAddr: 0x21B68, symSize: 0x30 }
  - { offset: 0x2037EA, size: 0x8, addend: 0x0, symName: '__ZNSt3__110__function6__funcIZN8facebook5react18jsinspector_modern13RuntimeTarget28emitDebuggerSessionDestroyedEvE3$_0NS_9allocatorIS6_EEFvRNS2_3jsi7RuntimeEEE18destroy_deallocateEv', symObjAddr: 0x3D18, symBinAddr: 0x21B98, symSize: 0x4C }
  - { offset: 0x203A10, size: 0x8, addend: 0x0, symName: '__ZNSt3__110__function6__funcIZN8facebook5react18jsinspector_modern13RuntimeTarget28emitDebuggerSessionDestroyedEvE3$_0NS_9allocatorIS6_EEFvRNS2_3jsi7RuntimeEEEclESB_', symObjAddr: 0x3D64, symBinAddr: 0x21BE4, symSize: 0x6C }
  - { offset: 0x203B38, size: 0x8, addend: 0x0, symName: '__ZNKSt3__110__function6__funcIZN8facebook5react18jsinspector_modern13RuntimeTarget28emitDebuggerSessionDestroyedEvE3$_0NS_9allocatorIS6_EEFvRNS2_3jsi7RuntimeEEE6targetERKSt9type_info', symObjAddr: 0x3DD0, symBinAddr: 0x21C50, symSize: 0x3C }
  - { offset: 0x203B84, size: 0x8, addend: 0x0, symName: '__ZNKSt3__110__function6__funcIZN8facebook5react18jsinspector_modern13RuntimeTarget28emitDebuggerSessionDestroyedEvE3$_0NS_9allocatorIS6_EEFvRNS2_3jsi7RuntimeEEE11target_typeEv', symObjAddr: 0x3E0C, symBinAddr: 0x21C8C, symSize: 0xC }
  - { offset: 0x203BA7, size: 0x8, addend: 0x0, symName: '__ZNSt3__110__function6__funcIZN8facebook5react18jsinspector_modern13RuntimeTarget18registerForTracingEvE3$_0NS_9allocatorIS6_EEFvRNS2_3jsi7RuntimeEEED1Ev', symObjAddr: 0x3E18, symBinAddr: 0x21C98, symSize: 0x4 }
  - { offset: 0x203BD3, size: 0x8, addend: 0x0, symName: '__ZNSt3__110__function6__funcIZN8facebook5react18jsinspector_modern13RuntimeTarget18registerForTracingEvE3$_0NS_9allocatorIS6_EEFvRNS2_3jsi7RuntimeEEED0Ev', symObjAddr: 0x3E1C, symBinAddr: 0x21C9C, symSize: 0x4 }
  - { offset: 0x203C8D, size: 0x8, addend: 0x0, symName: '__ZNKSt3__110__function6__funcIZN8facebook5react18jsinspector_modern13RuntimeTarget18registerForTracingEvE3$_0NS_9allocatorIS6_EEFvRNS2_3jsi7RuntimeEEE7__cloneEv', symObjAddr: 0x3E20, symBinAddr: 0x21CA0, symSize: 0x24 }
  - { offset: 0x203DDA, size: 0x8, addend: 0x0, symName: '__ZNKSt3__110__function6__funcIZN8facebook5react18jsinspector_modern13RuntimeTarget18registerForTracingEvE3$_0NS_9allocatorIS6_EEFvRNS2_3jsi7RuntimeEEE7__cloneEPNS0_6__baseISC_EE', symObjAddr: 0x3E44, symBinAddr: 0x21CC4, symSize: 0x10 }
  - { offset: 0x203E0E, size: 0x8, addend: 0x0, symName: '__ZNKSt3__110__function6__funcIZN8facebook5react18jsinspector_modern13RuntimeTarget18registerForTracingEvE3$_0NS_9allocatorIS6_EEFvRNS2_3jsi7RuntimeEEE7__cloneEPNS0_6__baseISC_EE', symObjAddr: 0x3E44, symBinAddr: 0x21CC4, symSize: 0x10 }
  - { offset: 0x203E2A, size: 0x8, addend: 0x0, symName: '__ZNKSt3__110__function6__funcIZN8facebook5react18jsinspector_modern13RuntimeTarget18registerForTracingEvE3$_0NS_9allocatorIS6_EEFvRNS2_3jsi7RuntimeEEE7__cloneEPNS0_6__baseISC_EE', symObjAddr: 0x3E44, symBinAddr: 0x21CC4, symSize: 0x10 }
  - { offset: 0x203E46, size: 0x8, addend: 0x0, symName: '__ZNSt3__110__function6__funcIZN8facebook5react18jsinspector_modern13RuntimeTarget18registerForTracingEvE3$_0NS_9allocatorIS6_EEFvRNS2_3jsi7RuntimeEEE7destroyEv', symObjAddr: 0x3E54, symBinAddr: 0x21CD4, symSize: 0x4 }
  - { offset: 0x203E9A, size: 0x8, addend: 0x0, symName: '__ZNSt3__110__function6__funcIZN8facebook5react18jsinspector_modern13RuntimeTarget18registerForTracingEvE3$_0NS_9allocatorIS6_EEFvRNS2_3jsi7RuntimeEEE18destroy_deallocateEv', symObjAddr: 0x3E58, symBinAddr: 0x21CD8, symSize: 0x4 }
  - { offset: 0x203ECE, size: 0x8, addend: 0x0, symName: '__ZNSt3__110__function6__funcIZN8facebook5react18jsinspector_modern13RuntimeTarget18registerForTracingEvE3$_0NS_9allocatorIS6_EEFvRNS2_3jsi7RuntimeEEE18destroy_deallocateEv', symObjAddr: 0x3E58, symBinAddr: 0x21CD8, symSize: 0x4 }
  - { offset: 0x203EF0, size: 0x8, addend: 0x0, symName: '__ZNSt3__110__function6__funcIZN8facebook5react18jsinspector_modern13RuntimeTarget18registerForTracingEvE3$_0NS_9allocatorIS6_EEFvRNS2_3jsi7RuntimeEEE18destroy_deallocateEv', symObjAddr: 0x3E58, symBinAddr: 0x21CD8, symSize: 0x4 }
  - { offset: 0x203F22, size: 0x8, addend: 0x0, symName: '__ZNSt3__110__function6__funcIZN8facebook5react18jsinspector_modern13RuntimeTarget18registerForTracingEvE3$_0NS_9allocatorIS6_EEFvRNS2_3jsi7RuntimeEEE18destroy_deallocateEv', symObjAddr: 0x3E58, symBinAddr: 0x21CD8, symSize: 0x4 }
  - { offset: 0x203FD3, size: 0x8, addend: 0x0, symName: '__ZNSt3__110__function6__funcIZN8facebook5react18jsinspector_modern13RuntimeTarget18registerForTracingEvE3$_0NS_9allocatorIS6_EEFvRNS2_3jsi7RuntimeEEEclESB_', symObjAddr: 0x3E5C, symBinAddr: 0x21CDC, symSize: 0x14 }
  - { offset: 0x20406E, size: 0x8, addend: 0x0, symName: '__ZNKSt3__110__function6__funcIZN8facebook5react18jsinspector_modern13RuntimeTarget18registerForTracingEvE3$_0NS_9allocatorIS6_EEFvRNS2_3jsi7RuntimeEEE6targetERKSt9type_info', symObjAddr: 0x3E70, symBinAddr: 0x21CF0, symSize: 0x3C }
  - { offset: 0x2040BA, size: 0x8, addend: 0x0, symName: '__ZNKSt3__110__function6__funcIZN8facebook5react18jsinspector_modern13RuntimeTarget18registerForTracingEvE3$_0NS_9allocatorIS6_EEFvRNS2_3jsi7RuntimeEEE11target_typeEv', symObjAddr: 0x3EAC, symBinAddr: 0x21D2C, symSize: 0xC }
  - { offset: 0x21D9A6, size: 0x8, addend: 0x0, symName: __ZNSt3__119__allocate_at_leastB8ne200100INS_9allocatorIPN8facebook3jsi5ValueEEEEENS_19__allocation_resultINS_16allocator_traitsIT_E7pointerEEERS9_m, symObjAddr: 0x8AE4, symBinAddr: 0x2828C, symSize: 0x34 }
  - { offset: 0x21DA4B, size: 0x8, addend: 0x0, symName: __ZNSt3__15dequeIN8facebook3jsi5ValueENS_9allocatorIS3_EEE20__add_front_capacityEv, symObjAddr: 0x8B18, symBinAddr: 0x282C0, symSize: 0x224 }
  - { offset: 0x226717, size: 0x8, addend: 0x0, symName: __ZN8facebook5react18jsinspector_modern7tracing34getConsoleTimeStampColorFromStringERKNSt3__112basic_stringIcNS3_11char_traitsIcEENS3_9allocatorIcEEEE, symObjAddr: 0x9FB4, symBinAddr: 0x29550, symSize: 0x38C }
  - { offset: 0x2276FC, size: 0x8, addend: 0x0, symName: __ZN8facebook5react18jsinspector_modern12_GLOBAL__N_112consoleCountERNS_3jsi7RuntimeEPKNS3_5ValueEmRNS1_21RuntimeTargetDelegateERNS2_12ConsoleStateEdNSt3__110unique_ptrINS1_10StackTraceENSD_14default_deleteISF_EEEE, symObjAddr: 0x22E4, symBinAddr: 0x23024, symSize: 0x488 }
  - { offset: 0x2296FE, size: 0x8, addend: 0x0, symName: __ZN8facebook5react18jsinspector_modern12_GLOBAL__N_117consoleCountResetERNS_3jsi7RuntimeEPKNS3_5ValueEmRNS1_21RuntimeTargetDelegateERNS2_12ConsoleStateEdNSt3__110unique_ptrINS1_10StackTraceENSD_14default_deleteISF_EEEE, symObjAddr: 0x276C, symBinAddr: 0x234AC, symSize: 0x3D4 }
  - { offset: 0x22B087, size: 0x8, addend: 0x0, symName: __ZN8facebook5react18jsinspector_modern12_GLOBAL__N_111consoleTimeERNS_3jsi7RuntimeEPKNS3_5ValueEmRNS1_21RuntimeTargetDelegateERNS2_12ConsoleStateEdNSt3__110unique_ptrINS1_10StackTraceENSD_14default_deleteISF_EEEE, symObjAddr: 0x2B40, symBinAddr: 0x23880, symSize: 0x434 }
  - { offset: 0x22CD97, size: 0x8, addend: 0x0, symName: __ZN8facebook5react18jsinspector_modern12_GLOBAL__N_114consoleTimeEndERNS_3jsi7RuntimeEPKNS3_5ValueEmRNS1_21RuntimeTargetDelegateERNS2_12ConsoleStateEdNSt3__110unique_ptrINS1_10StackTraceENSD_14default_deleteISF_EEEE, symObjAddr: 0x2F74, symBinAddr: 0x23CB4, symSize: 0x6CC }
  - { offset: 0x22FC16, size: 0x8, addend: 0x0, symName: __ZN8facebook5react18jsinspector_modern12_GLOBAL__N_114consoleTimeLogERNS_3jsi7RuntimeEPKNS3_5ValueEmRNS1_21RuntimeTargetDelegateERNS2_12ConsoleStateEdNSt3__110unique_ptrINS1_10StackTraceENSD_14default_deleteISF_EEEE, symObjAddr: 0x3640, symBinAddr: 0x24380, symSize: 0x724 }
  - { offset: 0x232B52, size: 0x8, addend: 0x0, symName: __ZN8facebook5react18jsinspector_modern12_GLOBAL__N_113consoleAssertERNS_3jsi7RuntimeEPKNS3_5ValueEmRNS1_21RuntimeTargetDelegateERNS2_12ConsoleStateEdNSt3__110unique_ptrINS1_10StackTraceENSD_14default_deleteISF_EEEE, symObjAddr: 0x3D64, symBinAddr: 0x24AA4, symSize: 0x590 }
  - { offset: 0x2345F5, size: 0x8, addend: 0x0, symName: __ZN8facebook5react18jsinspector_modern12_GLOBAL__N_113console_clearERNS_3jsi7RuntimeEPKNS3_5ValueEmRNS1_21RuntimeTargetDelegateERNS2_12ConsoleStateEdNSt3__110unique_ptrINS1_10StackTraceENSD_14default_deleteISF_EEEE, symObjAddr: 0x42F4, symBinAddr: 0x25034, symSize: 0x1B4 }
  - { offset: 0x234EFA, size: 0x8, addend: 0x0, symName: __ZN8facebook5react18jsinspector_modern12_GLOBAL__N_113console_debugERNS_3jsi7RuntimeEPKNS3_5ValueEmRNS1_21RuntimeTargetDelegateERNS2_12ConsoleStateEdNSt3__110unique_ptrINS1_10StackTraceENSD_14default_deleteISF_EEEE, symObjAddr: 0x44A8, symBinAddr: 0x251E8, symSize: 0x1B4 }
  - { offset: 0x2357FF, size: 0x8, addend: 0x0, symName: __ZN8facebook5react18jsinspector_modern12_GLOBAL__N_111console_dirERNS_3jsi7RuntimeEPKNS3_5ValueEmRNS1_21RuntimeTargetDelegateERNS2_12ConsoleStateEdNSt3__110unique_ptrINS1_10StackTraceENSD_14default_deleteISF_EEEE, symObjAddr: 0x465C, symBinAddr: 0x2539C, symSize: 0x1B4 }
  - { offset: 0x236104, size: 0x8, addend: 0x0, symName: __ZN8facebook5react18jsinspector_modern12_GLOBAL__N_114console_dirxmlERNS_3jsi7RuntimeEPKNS3_5ValueEmRNS1_21RuntimeTargetDelegateERNS2_12ConsoleStateEdNSt3__110unique_ptrINS1_10StackTraceENSD_14default_deleteISF_EEEE, symObjAddr: 0x4810, symBinAddr: 0x25550, symSize: 0x1B4 }
  - { offset: 0x236A09, size: 0x8, addend: 0x0, symName: __ZN8facebook5react18jsinspector_modern12_GLOBAL__N_113console_errorERNS_3jsi7RuntimeEPKNS3_5ValueEmRNS1_21RuntimeTargetDelegateERNS2_12ConsoleStateEdNSt3__110unique_ptrINS1_10StackTraceENSD_14default_deleteISF_EEEE, symObjAddr: 0x49C4, symBinAddr: 0x25704, symSize: 0x1B4 }
  - { offset: 0x23730E, size: 0x8, addend: 0x0, symName: __ZN8facebook5react18jsinspector_modern12_GLOBAL__N_113console_groupERNS_3jsi7RuntimeEPKNS3_5ValueEmRNS1_21RuntimeTargetDelegateERNS2_12ConsoleStateEdNSt3__110unique_ptrINS1_10StackTraceENSD_14default_deleteISF_EEEE, symObjAddr: 0x4B78, symBinAddr: 0x258B8, symSize: 0x1B4 }
  - { offset: 0x237C13, size: 0x8, addend: 0x0, symName: __ZN8facebook5react18jsinspector_modern12_GLOBAL__N_122console_groupCollapsedERNS_3jsi7RuntimeEPKNS3_5ValueEmRNS1_21RuntimeTargetDelegateERNS2_12ConsoleStateEdNSt3__110unique_ptrINS1_10StackTraceENSD_14default_deleteISF_EEEE, symObjAddr: 0x4D2C, symBinAddr: 0x25A6C, symSize: 0x1B4 }
  - { offset: 0x238518, size: 0x8, addend: 0x0, symName: __ZN8facebook5react18jsinspector_modern12_GLOBAL__N_116console_groupEndERNS_3jsi7RuntimeEPKNS3_5ValueEmRNS1_21RuntimeTargetDelegateERNS2_12ConsoleStateEdNSt3__110unique_ptrINS1_10StackTraceENSD_14default_deleteISF_EEEE, symObjAddr: 0x4EE0, symBinAddr: 0x25C20, symSize: 0x1B4 }
  - { offset: 0x238E1D, size: 0x8, addend: 0x0, symName: __ZN8facebook5react18jsinspector_modern12_GLOBAL__N_112console_infoERNS_3jsi7RuntimeEPKNS3_5ValueEmRNS1_21RuntimeTargetDelegateERNS2_12ConsoleStateEdNSt3__110unique_ptrINS1_10StackTraceENSD_14default_deleteISF_EEEE, symObjAddr: 0x5094, symBinAddr: 0x25DD4, symSize: 0x1B4 }
  - { offset: 0x239722, size: 0x8, addend: 0x0, symName: __ZN8facebook5react18jsinspector_modern12_GLOBAL__N_111console_logERNS_3jsi7RuntimeEPKNS3_5ValueEmRNS1_21RuntimeTargetDelegateERNS2_12ConsoleStateEdNSt3__110unique_ptrINS1_10StackTraceENSD_14default_deleteISF_EEEE, symObjAddr: 0x5248, symBinAddr: 0x25F88, symSize: 0x1B0 }
  - { offset: 0x23A027, size: 0x8, addend: 0x0, symName: __ZN8facebook5react18jsinspector_modern12_GLOBAL__N_113console_tableERNS_3jsi7RuntimeEPKNS3_5ValueEmRNS1_21RuntimeTargetDelegateERNS2_12ConsoleStateEdNSt3__110unique_ptrINS1_10StackTraceENSD_14default_deleteISF_EEEE, symObjAddr: 0x53F8, symBinAddr: 0x26138, symSize: 0x1B4 }
  - { offset: 0x23A92C, size: 0x8, addend: 0x0, symName: __ZN8facebook5react18jsinspector_modern12_GLOBAL__N_113console_traceERNS_3jsi7RuntimeEPKNS3_5ValueEmRNS1_21RuntimeTargetDelegateERNS2_12ConsoleStateEdNSt3__110unique_ptrINS1_10StackTraceENSD_14default_deleteISF_EEEE, symObjAddr: 0x55AC, symBinAddr: 0x262EC, symSize: 0x1B4 }
  - { offset: 0x23B231, size: 0x8, addend: 0x0, symName: __ZN8facebook5react18jsinspector_modern12_GLOBAL__N_112console_warnERNS_3jsi7RuntimeEPKNS3_5ValueEmRNS1_21RuntimeTargetDelegateERNS2_12ConsoleStateEdNSt3__110unique_ptrINS1_10StackTraceENSD_14default_deleteISF_EEEE, symObjAddr: 0x5760, symBinAddr: 0x264A0, symSize: 0x1B4 }
  - { offset: 0x23E860, size: 0x8, addend: 0x0, symName: __ZN8facebook5react18jsinspector_modern13RuntimeTarget21installConsoleHandlerEv, symObjAddr: 0x0, symBinAddr: 0x21D38, symSize: 0x1C8 }
  - { offset: 0x23F9F5, size: 0x8, addend: 0x0, symName: '__ZZZN8facebook5react18jsinspector_modern13RuntimeTarget21installConsoleHandlerEvENK3$_0clERNS_3jsi7RuntimeEENKUlPKcT_E_clIPFvS6_PKNS4_5ValueEmRNS1_21RuntimeTargetDelegateERNS1_12_GLOBAL__N_112ConsoleStateEdNSt3__110unique_ptrINS1_10StackTraceENSK_14default_deleteISM_EEEEEEEDaS8_S9_', symObjAddr: 0x1E40, symBinAddr: 0x22B80, symSize: 0x4A4 }
  - { offset: 0x242912, size: 0x8, addend: 0x0, symName: '__ZNSt3__110__function6__funcIZN8facebook5react18jsinspector_modern13RuntimeTarget21installConsoleHandlerEvE3$_0NS_9allocatorIS6_EEFvRNS2_3jsi7RuntimeEEED1Ev', symObjAddr: 0x109C, symBinAddr: 0x21F00, symSize: 0x64 }
  - { offset: 0x242AAE, size: 0x8, addend: 0x0, symName: '__ZNSt3__110__function6__funcIZN8facebook5react18jsinspector_modern13RuntimeTarget21installConsoleHandlerEvE3$_0NS_9allocatorIS6_EEFvRNS2_3jsi7RuntimeEEED0Ev', symObjAddr: 0x1100, symBinAddr: 0x21F64, symSize: 0x64 }
  - { offset: 0x242EF8, size: 0x8, addend: 0x0, symName: '__ZNKSt3__110__function6__funcIZN8facebook5react18jsinspector_modern13RuntimeTarget21installConsoleHandlerEvE3$_0NS_9allocatorIS6_EEFvRNS2_3jsi7RuntimeEEE7__cloneEv', symObjAddr: 0x1164, symBinAddr: 0x21FC8, symSize: 0x94 }
  - { offset: 0x2433AC, size: 0x8, addend: 0x0, symName: '__ZNKSt3__110__function6__funcIZN8facebook5react18jsinspector_modern13RuntimeTarget21installConsoleHandlerEvE3$_0NS_9allocatorIS6_EEFvRNS2_3jsi7RuntimeEEE7__cloneEPNS0_6__baseISC_EE', symObjAddr: 0x11F8, symBinAddr: 0x2205C, symSize: 0x80 }
  - { offset: 0x24361C, size: 0x8, addend: 0x0, symName: '__ZNSt3__110__function6__funcIZN8facebook5react18jsinspector_modern13RuntimeTarget21installConsoleHandlerEvE3$_0NS_9allocatorIS6_EEFvRNS2_3jsi7RuntimeEEE7destroyEv', symObjAddr: 0x1278, symBinAddr: 0x220DC, symSize: 0x8 }
  - { offset: 0x2436F9, size: 0x8, addend: 0x0, symName: '__ZNSt3__110__function6__funcIZN8facebook5react18jsinspector_modern13RuntimeTarget21installConsoleHandlerEvE3$_0NS_9allocatorIS6_EEFvRNS2_3jsi7RuntimeEEE18destroy_deallocateEv', symObjAddr: 0x1280, symBinAddr: 0x220E4, symSize: 0x28 }
  - { offset: 0x2449DD, size: 0x8, addend: 0x0, symName: '__ZNSt3__110__function6__funcIZN8facebook5react18jsinspector_modern13RuntimeTarget21installConsoleHandlerEvE3$_0NS_9allocatorIS6_EEFvRNS2_3jsi7RuntimeEEEclESB_', symObjAddr: 0x12A8, symBinAddr: 0x2210C, symSize: 0xA2C }
  - { offset: 0x2471BC, size: 0x8, addend: 0x0, symName: __ZNK8facebook3jsi6Object11setPropertyIRS1_EEvRNS0_7RuntimeEPKcOT_, symObjAddr: 0x5914, symBinAddr: 0x26654, symSize: 0xA4 }
  - { offset: 0x247397, size: 0x8, addend: 0x0, symName: __ZNK8facebook3jsi6Object11setPropertyIbEEvRNS0_7RuntimeEPKcOT_, symObjAddr: 0x59B8, symBinAddr: 0x266F8, symSize: 0xA4 }
  - { offset: 0x2476B9, size: 0x8, addend: 0x0, symName: '__ZNKSt3__110__function6__funcIZN8facebook5react18jsinspector_modern13RuntimeTarget21installConsoleHandlerEvE3$_0NS_9allocatorIS6_EEFvRNS2_3jsi7RuntimeEEE6targetERKSt9type_info', symObjAddr: 0x1CD4, symBinAddr: 0x22B38, symSize: 0x3C }
  - { offset: 0x247705, size: 0x8, addend: 0x0, symName: '__ZNKSt3__110__function6__funcIZN8facebook5react18jsinspector_modern13RuntimeTarget21installConsoleHandlerEvE3$_0NS_9allocatorIS6_EEFvRNS2_3jsi7RuntimeEEE11target_typeEv', symObjAddr: 0x1D10, symBinAddr: 0x22B74, symSize: 0xC }
  - { offset: 0x247BFD, size: 0x8, addend: 0x0, symName: '__ZZN8facebook5react18jsinspector_modern12_GLOBAL__N_124forwardToOriginalConsoleIZZZNS1_13RuntimeTarget21installConsoleHandlerEvENK3$_0clERNS_3jsi7RuntimeEENKUlPKcT_E_clIPFvS8_PKNS6_5ValueEmRNS1_21RuntimeTargetDelegateERNS2_12ConsoleStateEdNSt3__110unique_ptrINS1_10StackTraceENSL_14default_deleteISN_EEEEEEEDaSA_SB_EUlS8_RSF_SG_mE_EEST_NSL_10shared_ptrINS6_6ObjectEEESA_SB_ENUlS8_SU_SG_mE_D1Ev', symObjAddr: 0x5DB0, symBinAddr: 0x268C8, symSize: 0x60 }
  - { offset: 0x247DC1, size: 0x8, addend: 0x0, symName: '__ZZZZN8facebook5react18jsinspector_modern13RuntimeTarget21installConsoleHandlerEvENK3$_0clERNS_3jsi7RuntimeEENKUlPKcT_E_clIPFvS6_PKNS4_5ValueEmRNS1_21RuntimeTargetDelegateERNS1_12_GLOBAL__N_112ConsoleStateEdNSt3__110unique_ptrINS1_10StackTraceENSK_14default_deleteISM_EEEEEEEDaS8_S9_ENUlS6_RSD_SE_mE_D1Ev', symObjAddr: 0x5E10, symBinAddr: 0x26928, symSize: 0x60 }
  - { offset: 0x248C86, size: 0x8, addend: 0x0, symName: __ZNSt3__112__hash_tableINS_17__hash_value_typeINS_12basic_stringIcNS_11char_traitsIcEENS_9allocatorIcEEEEiEENS_22__unordered_map_hasherIS7_S8_NS_4hashIS7_EENS_8equal_toIS7_EELb1EEENS_21__unordered_map_equalIS7_S8_SD_SB_Lb1EEENS5_IS8_EEE25__emplace_unique_key_argsIS7_JNS_4pairIKS7_iEEEEENSK_INS_15__hash_iteratorIPNS_11__hash_nodeIS8_PvEEEEbEERKT_DpOT0_, symObjAddr: 0x6FCC, symBinAddr: 0x272E4, symSize: 0x25C }
  - { offset: 0x249708, size: 0x8, addend: 0x0, symName: __ZNSt3__112__hash_tableINS_17__hash_value_typeINS_12basic_stringIcNS_11char_traitsIcEENS_9allocatorIcEEEEdEENS_22__unordered_map_hasherIS7_S8_NS_4hashIS7_EENS_8equal_toIS7_EELb1EEENS_21__unordered_map_equalIS7_S8_SD_SB_Lb1EEENS5_IS8_EEE25__emplace_unique_key_argsIS7_JNS_4pairIKS7_dEEEEENSK_INS_15__hash_iteratorIPNS_11__hash_nodeIS8_PvEEEEbEERKT_DpOT0_, symObjAddr: 0x79D8, symBinAddr: 0x2763C, symSize: 0x25C }
  - { offset: 0x249BDA, size: 0x8, addend: 0x0, symName: __ZNSt3__112__hash_tableINS_17__hash_value_typeINS_12basic_stringIcNS_11char_traitsIcEENS_9allocatorIcEEEEdEENS_22__unordered_map_hasherIS7_S8_NS_4hashIS7_EENS_8equal_toIS7_EELb1EEENS_21__unordered_map_equalIS7_S8_SD_SB_Lb1EEENS5_IS8_EEE5eraseENS_21__hash_const_iteratorIPNS_11__hash_nodeIS8_PvEEEE, symObjAddr: 0x7F5C, symBinAddr: 0x27944, symSize: 0x48 }
  - { offset: 0x249E14, size: 0x8, addend: 0x0, symName: __ZNSt3__16vectorIN8facebook3jsi5ValueENS_9allocatorIS3_EEE24__emplace_back_slow_pathIJRNS2_7RuntimeERKS3_EEEPS3_DpOT_, symObjAddr: 0x80E0, symBinAddr: 0x2798C, symSize: 0x114 }
  - { offset: 0x24A347, size: 0x8, addend: 0x0, symName: __ZNSt3__15dequeIN8facebook3jsi5ValueENS_9allocatorIS3_EEE12emplace_backIJRNS2_7RuntimeERKS3_EEERS3_DpOT_, symObjAddr: 0x81F4, symBinAddr: 0x27AA0, symSize: 0xD4 }
  - { offset: 0x24A533, size: 0x8, addend: 0x0, symName: __ZNSt3__15dequeIN8facebook3jsi5ValueENS_9allocatorIS3_EEE12emplace_backIJNS2_6StringEEEERS3_DpOT_, symObjAddr: 0x82C8, symBinAddr: 0x27B74, symSize: 0xBC }
  - { offset: 0x24A7BB, size: 0x8, addend: 0x0, symName: __ZNSt3__16vectorIN8facebook3jsi5ValueENS_9allocatorIS3_EEEC2B8ne200100INS_13move_iteratorINS_16__deque_iteratorIS3_PS3_RS3_PSA_lLl256EEEEELi0EEET_SF_, symObjAddr: 0x8F48, symBinAddr: 0x284E4, symSize: 0x5C }
  - { offset: 0x24A8A4, size: 0x8, addend: 0x0, symName: __ZNSt3__15dequeIN8facebook3jsi5ValueENS_9allocatorIS3_EEED2B8ne200100Ev, symObjAddr: 0x90D4, symBinAddr: 0x28670, symSize: 0x114 }
  - { offset: 0x24AC22, size: 0x8, addend: 0x0, symName: __ZNSt3__15dequeIN8facebook3jsi5ValueENS_9allocatorIS3_EEE13emplace_frontIJNS2_6StringEEEERS3_DpOT_, symObjAddr: 0x8384, symBinAddr: 0x27C30, symSize: 0x94 }
  - { offset: 0x24AF96, size: 0x8, addend: 0x0, symName: __ZNK8facebook3jsi6Object11setPropertyIbEEvRNS0_7RuntimeERKNS0_6StringEOT_, symObjAddr: 0xA730, symBinAddr: 0x29B14, symSize: 0x68 }
  - { offset: 0x24B0FE, size: 0x8, addend: 0x0, symName: __ZNSt3__120__shared_ptr_emplaceIN8facebook3jsi6ObjectENS_9allocatorIS3_EEED1Ev, symObjAddr: 0x5B0C, symBinAddr: 0x2679C, symSize: 0x14 }
  - { offset: 0x24B120, size: 0x8, addend: 0x0, symName: __ZNSt3__120__shared_ptr_emplaceIN8facebook3jsi6ObjectENS_9allocatorIS3_EEED1Ev, symObjAddr: 0x5B0C, symBinAddr: 0x2679C, symSize: 0x14 }
  - { offset: 0x24B156, size: 0x8, addend: 0x0, symName: __ZNSt3__120__shared_ptr_emplaceIN8facebook3jsi6ObjectENS_9allocatorIS3_EEED0Ev, symObjAddr: 0x5B20, symBinAddr: 0x267B0, symSize: 0x24 }
  - { offset: 0x24B222, size: 0x8, addend: 0x0, symName: __ZNSt3__120__shared_ptr_emplaceIN8facebook3jsi6ObjectENS_9allocatorIS3_EEE16__on_zero_sharedEv, symObjAddr: 0x5B44, symBinAddr: 0x267D4, symSize: 0x18 }
  - { offset: 0x24B24B, size: 0x8, addend: 0x0, symName: __ZNSt3__120__shared_ptr_emplaceIN8facebook3jsi6ObjectENS_9allocatorIS3_EEE16__on_zero_sharedEv, symObjAddr: 0x5B44, symBinAddr: 0x267D4, symSize: 0x18 }
  - { offset: 0x24B268, size: 0x8, addend: 0x0, symName: __ZNSt3__120__shared_ptr_emplaceIN8facebook3jsi6ObjectENS_9allocatorIS3_EEE16__on_zero_sharedEv, symObjAddr: 0x5B44, symBinAddr: 0x267D4, symSize: 0x18 }
  - { offset: 0x24B285, size: 0x8, addend: 0x0, symName: __ZNSt3__120__shared_ptr_emplaceIN8facebook3jsi6ObjectENS_9allocatorIS3_EEE16__on_zero_sharedEv, symObjAddr: 0x5B44, symBinAddr: 0x267D4, symSize: 0x18 }
  - { offset: 0x24B2A3, size: 0x8, addend: 0x0, symName: __ZNSt3__120__shared_ptr_emplaceIN8facebook3jsi6ObjectENS_9allocatorIS3_EEE16__on_zero_sharedEv, symObjAddr: 0x5B44, symBinAddr: 0x267D4, symSize: 0x18 }
  - { offset: 0x24B2C0, size: 0x8, addend: 0x0, symName: __ZNSt3__120__shared_ptr_emplaceIN8facebook3jsi6ObjectENS_9allocatorIS3_EEE16__on_zero_sharedEv, symObjAddr: 0x5B44, symBinAddr: 0x267D4, symSize: 0x18 }
  - { offset: 0x24B2DE, size: 0x8, addend: 0x0, symName: __ZNSt3__120__shared_ptr_emplaceIN8facebook3jsi6ObjectENS_9allocatorIS3_EEE16__on_zero_sharedEv, symObjAddr: 0x5B44, symBinAddr: 0x267D4, symSize: 0x18 }
  - { offset: 0x24B36C, size: 0x8, addend: 0x0, symName: __ZNSt3__120__shared_ptr_emplaceIN8facebook3jsi6ObjectENS_9allocatorIS3_EEE21__on_zero_shared_weakEv, symObjAddr: 0x5B5C, symBinAddr: 0x267EC, symSize: 0x4 }
  - { offset: 0x24B39E, size: 0x8, addend: 0x0, symName: __ZNSt3__120__shared_ptr_emplaceIN8facebook3jsi6ObjectENS_9allocatorIS3_EEE21__on_zero_shared_weakEv, symObjAddr: 0x5B5C, symBinAddr: 0x267EC, symSize: 0x4 }
  - { offset: 0x24B3BF, size: 0x8, addend: 0x0, symName: __ZNSt3__120__shared_ptr_emplaceIN8facebook3jsi6ObjectENS_9allocatorIS3_EEE21__on_zero_shared_weakEv, symObjAddr: 0x5B5C, symBinAddr: 0x267EC, symSize: 0x4 }
  - { offset: 0x24B3E1, size: 0x8, addend: 0x0, symName: __ZNSt3__120__shared_ptr_emplaceIN8facebook3jsi6ObjectENS_9allocatorIS3_EEE21__on_zero_shared_weakEv, symObjAddr: 0x5B5C, symBinAddr: 0x267EC, symSize: 0x4 }
  - { offset: 0x24B414, size: 0x8, addend: 0x0, symName: __ZNSt3__120__shared_ptr_emplaceIN8facebook3jsi6ObjectENS_9allocatorIS3_EEE21__on_zero_shared_weakEv, symObjAddr: 0x5B5C, symBinAddr: 0x267EC, symSize: 0x4 }
  - { offset: 0x24B458, size: 0x8, addend: 0x0, symName: __ZNSt3__120__shared_ptr_emplaceIN8facebook5react18jsinspector_modern12_GLOBAL__N_112ConsoleStateENS_9allocatorIS5_EEED1Ev, symObjAddr: 0x5BB8, symBinAddr: 0x267F0, symSize: 0x10 }
  - { offset: 0x24B47A, size: 0x8, addend: 0x0, symName: __ZNSt3__120__shared_ptr_emplaceIN8facebook5react18jsinspector_modern12_GLOBAL__N_112ConsoleStateENS_9allocatorIS5_EEED1Ev, symObjAddr: 0x5BB8, symBinAddr: 0x267F0, symSize: 0x10 }
  - { offset: 0x24B4B0, size: 0x8, addend: 0x0, symName: __ZNSt3__120__shared_ptr_emplaceIN8facebook5react18jsinspector_modern12_GLOBAL__N_112ConsoleStateENS_9allocatorIS5_EEED0Ev, symObjAddr: 0x5BC8, symBinAddr: 0x26800, symSize: 0x20 }
  - { offset: 0x24B662, size: 0x8, addend: 0x0, symName: __ZNSt3__120__shared_ptr_emplaceIN8facebook5react18jsinspector_modern12_GLOBAL__N_112ConsoleStateENS_9allocatorIS5_EEE16__on_zero_sharedEv, symObjAddr: 0x5BE8, symBinAddr: 0x26820, symSize: 0x28 }
  - { offset: 0x24B796, size: 0x8, addend: 0x0, symName: __ZNSt3__112__hash_tableINS_17__hash_value_typeINS_12basic_stringIcNS_11char_traitsIcEENS_9allocatorIcEEEEdEENS_22__unordered_map_hasherIS7_S8_NS_4hashIS7_EENS_8equal_toIS7_EELb1EEENS_21__unordered_map_equalIS7_S8_SD_SB_Lb1EEENS5_IS8_EEED2Ev, symObjAddr: 0x5C14, symBinAddr: 0x2684C, symSize: 0x38 }
  - { offset: 0x24BA23, size: 0x8, addend: 0x0, symName: __ZNSt3__120__shared_ptr_emplaceIN8facebook5react18jsinspector_modern12_GLOBAL__N_112ConsoleStateENS_9allocatorIS5_EEE21__on_zero_shared_weakEv, symObjAddr: 0x5C10, symBinAddr: 0x26848, symSize: 0x4 }
  - { offset: 0x24BA55, size: 0x8, addend: 0x0, symName: __ZNSt3__120__shared_ptr_emplaceIN8facebook5react18jsinspector_modern12_GLOBAL__N_112ConsoleStateENS_9allocatorIS5_EEE21__on_zero_shared_weakEv, symObjAddr: 0x5C10, symBinAddr: 0x26848, symSize: 0x4 }
  - { offset: 0x24BA76, size: 0x8, addend: 0x0, symName: __ZNSt3__120__shared_ptr_emplaceIN8facebook5react18jsinspector_modern12_GLOBAL__N_112ConsoleStateENS_9allocatorIS5_EEE21__on_zero_shared_weakEv, symObjAddr: 0x5C10, symBinAddr: 0x26848, symSize: 0x4 }
  - { offset: 0x24BA98, size: 0x8, addend: 0x0, symName: __ZNSt3__120__shared_ptr_emplaceIN8facebook5react18jsinspector_modern12_GLOBAL__N_112ConsoleStateENS_9allocatorIS5_EEE21__on_zero_shared_weakEv, symObjAddr: 0x5C10, symBinAddr: 0x26848, symSize: 0x4 }
  - { offset: 0x24BACB, size: 0x8, addend: 0x0, symName: __ZNSt3__120__shared_ptr_emplaceIN8facebook5react18jsinspector_modern12_GLOBAL__N_112ConsoleStateENS_9allocatorIS5_EEE21__on_zero_shared_weakEv, symObjAddr: 0x5C10, symBinAddr: 0x26848, symSize: 0x4 }
  - { offset: 0x24BBE5, size: 0x8, addend: 0x0, symName: __ZNSt3__112__hash_tableINS_17__hash_value_typeINS_12basic_stringIcNS_11char_traitsIcEENS_9allocatorIcEEEEdEENS_22__unordered_map_hasherIS7_S8_NS_4hashIS7_EENS_8equal_toIS7_EELb1EEENS_21__unordered_map_equalIS7_S8_SD_SB_Lb1EEENS5_IS8_EEE17__deallocate_nodeEPNS_16__hash_node_baseIPNS_11__hash_nodeIS8_PvEEEE, symObjAddr: 0x5C4C, symBinAddr: 0x26884, symSize: 0x44 }
  - { offset: 0x24C20B, size: 0x8, addend: 0x0, symName: __ZNK8facebook3jsi6Object11setPropertyINS0_8FunctionEEEvRNS0_7RuntimeERKNS0_6StringEOT_, symObjAddr: 0x5E70, symBinAddr: 0x26988, symSize: 0x90 }
  - { offset: 0x24C454, size: 0x8, addend: 0x0, symName: '__ZNSt3__110__function6__funcIZN8facebook5react18jsinspector_modern12_GLOBAL__N_124forwardToOriginalConsoleIZZZNS4_13RuntimeTarget21installConsoleHandlerEvENK3$_0clERNS2_3jsi7RuntimeEENKUlPKcT_E_clIPFvSB_PKNS9_5ValueEmRNS4_21RuntimeTargetDelegateERNS5_12ConsoleStateEdNS_10unique_ptrINS4_10StackTraceENS_14default_deleteISP_EEEEEEEDaSD_SE_EUlSB_RSI_SJ_mE_EESV_NS_10shared_ptrINS9_6ObjectEEESD_SE_EUlSB_SW_SJ_mE_NS_9allocatorIS11_EEFSH_SB_SW_SJ_mEED1Ev', symObjAddr: 0x5F64, symBinAddr: 0x26A18, symSize: 0x74 }
  - { offset: 0x24C68C, size: 0x8, addend: 0x0, symName: '__ZNSt3__110__function6__funcIZN8facebook5react18jsinspector_modern12_GLOBAL__N_124forwardToOriginalConsoleIZZZNS4_13RuntimeTarget21installConsoleHandlerEvENK3$_0clERNS2_3jsi7RuntimeEENKUlPKcT_E_clIPFvSB_PKNS9_5ValueEmRNS4_21RuntimeTargetDelegateERNS5_12ConsoleStateEdNS_10unique_ptrINS4_10StackTraceENS_14default_deleteISP_EEEEEEEDaSD_SE_EUlSB_RSI_SJ_mE_EESV_NS_10shared_ptrINS9_6ObjectEEESD_SE_EUlSB_SW_SJ_mE_NS_9allocatorIS11_EEFSH_SB_SW_SJ_mEED0Ev', symObjAddr: 0x5FD8, symBinAddr: 0x26A8C, symSize: 0x74 }
  - { offset: 0x24CB42, size: 0x8, addend: 0x0, symName: '__ZNKSt3__110__function6__funcIZN8facebook5react18jsinspector_modern12_GLOBAL__N_124forwardToOriginalConsoleIZZZNS4_13RuntimeTarget21installConsoleHandlerEvENK3$_0clERNS2_3jsi7RuntimeEENKUlPKcT_E_clIPFvSB_PKNS9_5ValueEmRNS4_21RuntimeTargetDelegateERNS5_12ConsoleStateEdNS_10unique_ptrINS4_10StackTraceENS_14default_deleteISP_EEEEEEEDaSD_SE_EUlSB_RSI_SJ_mE_EESV_NS_10shared_ptrINS9_6ObjectEEESD_SE_EUlSB_SW_SJ_mE_NS_9allocatorIS11_EEFSH_SB_SW_SJ_mEE7__cloneEv', symObjAddr: 0x604C, symBinAddr: 0x26B00, symSize: 0xF4 }
  - { offset: 0x24D1A1, size: 0x8, addend: 0x0, symName: '__ZNKSt3__110__function6__funcIZN8facebook5react18jsinspector_modern12_GLOBAL__N_124forwardToOriginalConsoleIZZZNS4_13RuntimeTarget21installConsoleHandlerEvENK3$_0clERNS2_3jsi7RuntimeEENKUlPKcT_E_clIPFvSB_PKNS9_5ValueEmRNS4_21RuntimeTargetDelegateERNS5_12ConsoleStateEdNS_10unique_ptrINS4_10StackTraceENS_14default_deleteISP_EEEEEEEDaSD_SE_EUlSB_RSI_SJ_mE_EESV_NS_10shared_ptrINS9_6ObjectEEESD_SE_EUlSB_SW_SJ_mE_NS_9allocatorIS11_EEFSH_SB_SW_SJ_mEE7__cloneEPNS0_6__baseIS14_EE', symObjAddr: 0x6140, symBinAddr: 0x26BF4, symSize: 0xE0 }
  - { offset: 0x24D600, size: 0x8, addend: 0x0, symName: '__ZNSt3__110__function6__funcIZN8facebook5react18jsinspector_modern12_GLOBAL__N_124forwardToOriginalConsoleIZZZNS4_13RuntimeTarget21installConsoleHandlerEvENK3$_0clERNS2_3jsi7RuntimeEENKUlPKcT_E_clIPFvSB_PKNS9_5ValueEmRNS4_21RuntimeTargetDelegateERNS5_12ConsoleStateEdNS_10unique_ptrINS4_10StackTraceENS_14default_deleteISP_EEEEEEEDaSD_SE_EUlSB_RSI_SJ_mE_EESV_NS_10shared_ptrINS9_6ObjectEEESD_SE_EUlSB_SW_SJ_mE_NS_9allocatorIS11_EEFSH_SB_SW_SJ_mEE7destroyEv', symObjAddr: 0x6220, symBinAddr: 0x26CD4, symSize: 0x8 }
  - { offset: 0x24D753, size: 0x8, addend: 0x0, symName: '__ZNSt3__110__function6__funcIZN8facebook5react18jsinspector_modern12_GLOBAL__N_124forwardToOriginalConsoleIZZZNS4_13RuntimeTarget21installConsoleHandlerEvENK3$_0clERNS2_3jsi7RuntimeEENKUlPKcT_E_clIPFvSB_PKNS9_5ValueEmRNS4_21RuntimeTargetDelegateERNS5_12ConsoleStateEdNS_10unique_ptrINS4_10StackTraceENS_14default_deleteISP_EEEEEEEDaSD_SE_EUlSB_RSI_SJ_mE_EESV_NS_10shared_ptrINS9_6ObjectEEESD_SE_EUlSB_SW_SJ_mE_NS_9allocatorIS11_EEFSH_SB_SW_SJ_mEE18destroy_deallocateEv', symObjAddr: 0x6228, symBinAddr: 0x26CDC, symSize: 0x28 }
  - { offset: 0x24DE71, size: 0x8, addend: 0x0, symName: '__ZNSt3__110__function6__funcIZN8facebook5react18jsinspector_modern12_GLOBAL__N_124forwardToOriginalConsoleIZZZNS4_13RuntimeTarget21installConsoleHandlerEvENK3$_0clERNS2_3jsi7RuntimeEENKUlPKcT_E_clIPFvSB_PKNS9_5ValueEmRNS4_21RuntimeTargetDelegateERNS5_12ConsoleStateEdNS_10unique_ptrINS4_10StackTraceENS_14default_deleteISP_EEEEEEEDaSD_SE_EUlSB_RSI_SJ_mE_EESV_NS_10shared_ptrINS9_6ObjectEEESD_SE_EUlSB_SW_SJ_mE_NS_9allocatorIS11_EEFSH_SB_SW_SJ_mEEclESB_SW_OSJ_Om', symObjAddr: 0x6250, symBinAddr: 0x26D04, symSize: 0x43C }
  - { offset: 0x24EFFF, size: 0x8, addend: 0x0, symName: '__ZNSt3__110__function6__funcIZN8facebook5react18jsinspector_modern12_GLOBAL__N_124forwardToOriginalConsoleIZZZNS4_13RuntimeTarget21installConsoleHandlerEvENK3$_0clERNS2_3jsi7RuntimeEENKUlPKcT_E_clIPFvSB_PKNS9_5ValueEmRNS4_21RuntimeTargetDelegateERNS5_12ConsoleStateEdNS_10unique_ptrINS4_10StackTraceENS_14default_deleteISP_EEEEEEEDaSD_SE_EUlSB_RSI_SJ_mE_EESV_NS_10shared_ptrINS9_6ObjectEEESD_SE_EUlSB_SW_SJ_mE_NS_9allocatorIS11_EEFSH_SB_SW_SJ_mEEclESB_SW_OSJ_Om.cold.1', symObjAddr: 0xA798, symBinAddr: 0x2BCF4, symSize: 0x2C }
  - { offset: 0x24F135, size: 0x8, addend: 0x0, symName: '__ZNKSt3__110__function6__funcIZN8facebook5react18jsinspector_modern12_GLOBAL__N_124forwardToOriginalConsoleIZZZNS4_13RuntimeTarget21installConsoleHandlerEvENK3$_0clERNS2_3jsi7RuntimeEENKUlPKcT_E_clIPFvSB_PKNS9_5ValueEmRNS4_21RuntimeTargetDelegateERNS5_12ConsoleStateEdNS_10unique_ptrINS4_10StackTraceENS_14default_deleteISP_EEEEEEEDaSD_SE_EUlSB_RSI_SJ_mE_EESV_NS_10shared_ptrINS9_6ObjectEEESD_SE_EUlSB_SW_SJ_mE_NS_9allocatorIS11_EEFSH_SB_SW_SJ_mEE6targetERKSt9type_info', symObjAddr: 0x668C, symBinAddr: 0x27140, symSize: 0x3C }
  - { offset: 0x24F181, size: 0x8, addend: 0x0, symName: '__ZNKSt3__110__function6__funcIZN8facebook5react18jsinspector_modern12_GLOBAL__N_124forwardToOriginalConsoleIZZZNS4_13RuntimeTarget21installConsoleHandlerEvENK3$_0clERNS2_3jsi7RuntimeEENKUlPKcT_E_clIPFvSB_PKNS9_5ValueEmRNS4_21RuntimeTargetDelegateERNS5_12ConsoleStateEdNS_10unique_ptrINS4_10StackTraceENS_14default_deleteISP_EEEEEEEDaSD_SE_EUlSB_RSI_SJ_mE_EESV_NS_10shared_ptrINS9_6ObjectEEESD_SE_EUlSB_SW_SJ_mE_NS_9allocatorIS11_EEFSH_SB_SW_SJ_mEE11target_typeEv', symObjAddr: 0x66C8, symBinAddr: 0x2717C, symSize: 0xC }
  - { offset: 0x24F1F9, size: 0x8, addend: 0x0, symName: '__ZNSt3__110__function6__funcIZZZN8facebook5react18jsinspector_modern13RuntimeTarget21installConsoleHandlerEvENK3$_0clERNS2_3jsi7RuntimeEENKUlT_E_clIZZZZNS5_21installConsoleHandlerEvENKS6_clES9_ENKUlPKcSA_E_clIPFvS9_PKNS7_5ValueEmRNS4_21RuntimeTargetDelegateERNS4_12_GLOBAL__N_112ConsoleStateEdNS_10unique_ptrINS4_10StackTraceENS_14default_deleteISQ_EEEEEEEDaSE_SA_ENKUlS9_RSI_SJ_mE_clES9_SX_SJ_mEUlRSA_E_EESW_SA_EUlSZ_E_NS_9allocatorIS11_EEFvRS5_EED1Ev', symObjAddr: 0x6734, symBinAddr: 0x27188, symSize: 0x30 }
  - { offset: 0x24F2F1, size: 0x8, addend: 0x0, symName: '__ZNSt3__110__function6__funcIZZZN8facebook5react18jsinspector_modern13RuntimeTarget21installConsoleHandlerEvENK3$_0clERNS2_3jsi7RuntimeEENKUlT_E_clIZZZZNS5_21installConsoleHandlerEvENKS6_clES9_ENKUlPKcSA_E_clIPFvS9_PKNS7_5ValueEmRNS4_21RuntimeTargetDelegateERNS4_12_GLOBAL__N_112ConsoleStateEdNS_10unique_ptrINS4_10StackTraceENS_14default_deleteISQ_EEEEEEEDaSE_SA_ENKUlS9_RSI_SJ_mE_clES9_SX_SJ_mEUlRSA_E_EESW_SA_EUlSZ_E_NS_9allocatorIS11_EEFvRS5_EED0Ev', symObjAddr: 0x6764, symBinAddr: 0x271B8, symSize: 0x30 }
  - { offset: 0x24F575, size: 0x8, addend: 0x0, symName: '__ZNKSt3__110__function6__funcIZZZN8facebook5react18jsinspector_modern13RuntimeTarget21installConsoleHandlerEvENK3$_0clERNS2_3jsi7RuntimeEENKUlT_E_clIZZZZNS5_21installConsoleHandlerEvENKS6_clES9_ENKUlPKcSA_E_clIPFvS9_PKNS7_5ValueEmRNS4_21RuntimeTargetDelegateERNS4_12_GLOBAL__N_112ConsoleStateEdNS_10unique_ptrINS4_10StackTraceENS_14default_deleteISQ_EEEEEEEDaSE_SA_ENKUlS9_RSI_SJ_mE_clES9_SX_SJ_mEUlRSA_E_EESW_SA_EUlSZ_E_NS_9allocatorIS11_EEFvRS5_EE7__cloneEv', symObjAddr: 0x6794, symBinAddr: 0x271E8, symSize: 0x50 }
  - { offset: 0x24F81D, size: 0x8, addend: 0x0, symName: '__ZNKSt3__110__function6__funcIZZZN8facebook5react18jsinspector_modern13RuntimeTarget21installConsoleHandlerEvENK3$_0clERNS2_3jsi7RuntimeEENKUlT_E_clIZZZZNS5_21installConsoleHandlerEvENKS6_clES9_ENKUlPKcSA_E_clIPFvS9_PKNS7_5ValueEmRNS4_21RuntimeTargetDelegateERNS4_12_GLOBAL__N_112ConsoleStateEdNS_10unique_ptrINS4_10StackTraceENS_14default_deleteISQ_EEEEEEEDaSE_SA_ENKUlS9_RSI_SJ_mE_clES9_SX_SJ_mEUlRSA_E_EESW_SA_EUlSZ_E_NS_9allocatorIS11_EEFvRS5_EE7__cloneEPNS0_6__baseIS15_EE', symObjAddr: 0x67E4, symBinAddr: 0x27238, symSize: 0x30 }
  - { offset: 0x24F853, size: 0x8, addend: 0x0, symName: '__ZNKSt3__110__function6__funcIZZZN8facebook5react18jsinspector_modern13RuntimeTarget21installConsoleHandlerEvENK3$_0clERNS2_3jsi7RuntimeEENKUlT_E_clIZZZZNS5_21installConsoleHandlerEvENKS6_clES9_ENKUlPKcSA_E_clIPFvS9_PKNS7_5ValueEmRNS4_21RuntimeTargetDelegateERNS4_12_GLOBAL__N_112ConsoleStateEdNS_10unique_ptrINS4_10StackTraceENS_14default_deleteISQ_EEEEEEEDaSE_SA_ENKUlS9_RSI_SJ_mE_clES9_SX_SJ_mEUlRSA_E_EESW_SA_EUlSZ_E_NS_9allocatorIS11_EEFvRS5_EE7__cloneEPNS0_6__baseIS15_EE', symObjAddr: 0x67E4, symBinAddr: 0x27238, symSize: 0x30 }
  - { offset: 0x24F881, size: 0x8, addend: 0x0, symName: '__ZNKSt3__110__function6__funcIZZZN8facebook5react18jsinspector_modern13RuntimeTarget21installConsoleHandlerEvENK3$_0clERNS2_3jsi7RuntimeEENKUlT_E_clIZZZZNS5_21installConsoleHandlerEvENKS6_clES9_ENKUlPKcSA_E_clIPFvS9_PKNS7_5ValueEmRNS4_21RuntimeTargetDelegateERNS4_12_GLOBAL__N_112ConsoleStateEdNS_10unique_ptrINS4_10StackTraceENS_14default_deleteISQ_EEEEEEEDaSE_SA_ENKUlS9_RSI_SJ_mE_clES9_SX_SJ_mEUlRSA_E_EESW_SA_EUlSZ_E_NS_9allocatorIS11_EEFvRS5_EE7__cloneEPNS0_6__baseIS15_EE', symObjAddr: 0x67E4, symBinAddr: 0x27238, symSize: 0x30 }
  - { offset: 0x24F9AA, size: 0x8, addend: 0x0, symName: '__ZNSt3__110__function6__funcIZZZN8facebook5react18jsinspector_modern13RuntimeTarget21installConsoleHandlerEvENK3$_0clERNS2_3jsi7RuntimeEENKUlT_E_clIZZZZNS5_21installConsoleHandlerEvENKS6_clES9_ENKUlPKcSA_E_clIPFvS9_PKNS7_5ValueEmRNS4_21RuntimeTargetDelegateERNS4_12_GLOBAL__N_112ConsoleStateEdNS_10unique_ptrINS4_10StackTraceENS_14default_deleteISQ_EEEEEEEDaSE_SA_ENKUlS9_RSI_SJ_mE_clES9_SX_SJ_mEUlRSA_E_EESW_SA_EUlSZ_E_NS_9allocatorIS11_EEFvRS5_EE7destroyEv', symObjAddr: 0x6814, symBinAddr: 0x27268, symSize: 0x8 }
  - { offset: 0x24FA67, size: 0x8, addend: 0x0, symName: '__ZNSt3__110__function6__funcIZZZN8facebook5react18jsinspector_modern13RuntimeTarget21installConsoleHandlerEvENK3$_0clERNS2_3jsi7RuntimeEENKUlT_E_clIZZZZNS5_21installConsoleHandlerEvENKS6_clES9_ENKUlPKcSA_E_clIPFvS9_PKNS7_5ValueEmRNS4_21RuntimeTargetDelegateERNS4_12_GLOBAL__N_112ConsoleStateEdNS_10unique_ptrINS4_10StackTraceENS_14default_deleteISQ_EEEEEEEDaSE_SA_ENKUlS9_RSI_SJ_mE_clES9_SX_SJ_mEUlRSA_E_EESW_SA_EUlSZ_E_NS_9allocatorIS11_EEFvRS5_EE18destroy_deallocateEv', symObjAddr: 0x681C, symBinAddr: 0x27270, symSize: 0x28 }
  - { offset: 0x24FB83, size: 0x8, addend: 0x0, symName: '__ZNSt3__110__function6__funcIZZZN8facebook5react18jsinspector_modern13RuntimeTarget21installConsoleHandlerEvENK3$_0clERNS2_3jsi7RuntimeEENKUlT_E_clIZZZZNS5_21installConsoleHandlerEvENKS6_clES9_ENKUlPKcSA_E_clIPFvS9_PKNS7_5ValueEmRNS4_21RuntimeTargetDelegateERNS4_12_GLOBAL__N_112ConsoleStateEdNS_10unique_ptrINS4_10StackTraceENS_14default_deleteISQ_EEEEEEEDaSE_SA_ENKUlS9_RSI_SJ_mE_clES9_SX_SJ_mEUlRSA_E_EESW_SA_EUlSZ_E_NS_9allocatorIS11_EEFvRS5_EEclES14_', symObjAddr: 0x6844, symBinAddr: 0x27298, symSize: 0x4 }
  - { offset: 0x24FBB3, size: 0x8, addend: 0x0, symName: '__ZNKSt3__110__function6__funcIZZZN8facebook5react18jsinspector_modern13RuntimeTarget21installConsoleHandlerEvENK3$_0clERNS2_3jsi7RuntimeEENKUlT_E_clIZZZZNS5_21installConsoleHandlerEvENKS6_clES9_ENKUlPKcSA_E_clIPFvS9_PKNS7_5ValueEmRNS4_21RuntimeTargetDelegateERNS4_12_GLOBAL__N_112ConsoleStateEdNS_10unique_ptrINS4_10StackTraceENS_14default_deleteISQ_EEEEEEEDaSE_SA_ENKUlS9_RSI_SJ_mE_clES9_SX_SJ_mEUlRSA_E_EESW_SA_EUlSZ_E_NS_9allocatorIS11_EEFvRS5_EE6targetERKSt9type_info', symObjAddr: 0x6848, symBinAddr: 0x2729C, symSize: 0x3C }
  - { offset: 0x24FBFF, size: 0x8, addend: 0x0, symName: '__ZNKSt3__110__function6__funcIZZZN8facebook5react18jsinspector_modern13RuntimeTarget21installConsoleHandlerEvENK3$_0clERNS2_3jsi7RuntimeEENKUlT_E_clIZZZZNS5_21installConsoleHandlerEvENKS6_clES9_ENKUlPKcSA_E_clIPFvS9_PKNS7_5ValueEmRNS4_21RuntimeTargetDelegateERNS4_12_GLOBAL__N_112ConsoleStateEdNS_10unique_ptrINS4_10StackTraceENS_14default_deleteISQ_EEEEEEEDaSE_SA_ENKUlS9_RSI_SJ_mE_clES9_SX_SJ_mEUlRSA_E_EESW_SA_EUlSZ_E_NS_9allocatorIS11_EEFvRS5_EE11target_typeEv', symObjAddr: 0x6884, symBinAddr: 0x272D8, symSize: 0xC }
  - { offset: 0x250902, size: 0x8, addend: 0x0, symName: __ZNSt3__112__hash_tableINS_17__hash_value_typeINS_12basic_stringIcNS_11char_traitsIcEENS_9allocatorIcEEEEiEENS_22__unordered_map_hasherIS7_S8_NS_4hashIS7_EENS_8equal_toIS7_EELb1EEENS_21__unordered_map_equalIS7_S8_SD_SB_Lb1EEENS5_IS8_EEE21__construct_node_hashINS_4pairIKS7_iEEJEEENS_10unique_ptrINS_11__hash_nodeIS8_PvEENS_22__hash_node_destructorINS5_ISQ_EEEEEEmOT_DpOT0_, symObjAddr: 0x7228, symBinAddr: 0x27540, symSize: 0xAC }
  - { offset: 0x250D58, size: 0x8, addend: 0x0, symName: __ZNSt3__122__hash_node_destructorINS_9allocatorINS_11__hash_nodeINS_17__hash_value_typeINS_12basic_stringIcNS_11char_traitsIcEENS1_IcEEEEiEEPvEEEEEclB8ne200100EPSB_, symObjAddr: 0x7580, symBinAddr: 0x275EC, symSize: 0x50 }
  - { offset: 0x251450, size: 0x8, addend: 0x0, symName: __ZNSt3__122__hash_node_destructorINS_9allocatorINS_11__hash_nodeINS_17__hash_value_typeINS_12basic_stringIcNS_11char_traitsIcEENS1_IcEEEEiEEPvEEEEEclB8ne200100EPSB_, symObjAddr: 0x7580, symBinAddr: 0x275EC, symSize: 0x50 }
  - { offset: 0x251ADD, size: 0x8, addend: 0x0, symName: __ZNSt3__112__hash_tableINS_17__hash_value_typeINS_12basic_stringIcNS_11char_traitsIcEENS_9allocatorIcEEEEdEENS_22__unordered_map_hasherIS7_S8_NS_4hashIS7_EENS_8equal_toIS7_EELb1EEENS_21__unordered_map_equalIS7_S8_SD_SB_Lb1EEENS5_IS8_EEE21__construct_node_hashINS_4pairIKS7_dEEJEEENS_10unique_ptrINS_11__hash_nodeIS8_PvEENS_22__hash_node_destructorINS5_ISQ_EEEEEEmOT_DpOT0_, symObjAddr: 0x7C34, symBinAddr: 0x27898, symSize: 0xAC }
  - { offset: 0x2527DA, size: 0x8, addend: 0x0, symName: __ZNSt3__15dequeIN8facebook3jsi5ValueENS_9allocatorIS3_EEE19__add_back_capacityEv, symObjAddr: 0x8418, symBinAddr: 0x27CC4, symSize: 0x1B0 }
  - { offset: 0x252F72, size: 0x8, addend: 0x0, symName: __ZNSt3__15dequeIN8facebook3jsi5ValueENS_9allocatorIS3_EEE20__add_front_capacityEv, symObjAddr: 0x8B18, symBinAddr: 0x282C0, symSize: 0x224 }
  - { offset: 0x253B42, size: 0x8, addend: 0x0, symName: __ZNSt3__114__split_bufferIPN8facebook3jsi5ValueENS_9allocatorIS4_EEE12emplace_backIJRS4_EEEvDpOT_, symObjAddr: 0x85C8, symBinAddr: 0x27E74, symSize: 0x104 }
  - { offset: 0x2541F8, size: 0x8, addend: 0x0, symName: __ZNSt3__114__split_bufferIPN8facebook3jsi5ValueERNS_9allocatorIS4_EEE12emplace_backIJS4_EEEvDpOT_, symObjAddr: 0x88D8, symBinAddr: 0x28080, symSize: 0x104 }
  - { offset: 0x254612, size: 0x8, addend: 0x0, symName: __ZNSt3__114__split_bufferIPN8facebook3jsi5ValueERNS_9allocatorIS4_EEE13emplace_frontIJRS4_EEEvDpOT_, symObjAddr: 0x89DC, symBinAddr: 0x28184, symSize: 0x108 }
  - { offset: 0x254A4D, size: 0x8, addend: 0x0, symName: __ZNSt3__114__split_bufferIPN8facebook3jsi5ValueENS_9allocatorIS4_EEE13emplace_frontIJS4_EEEvDpOT_, symObjAddr: 0x87D0, symBinAddr: 0x27F78, symSize: 0x108 }
  - { offset: 0x255643, size: 0x8, addend: 0x0, symName: __ZNSt3__16vectorIN8facebook3jsi5ValueENS_9allocatorIS3_EEE16__init_with_sizeB8ne200100INS_13move_iteratorINS_16__deque_iteratorIS3_PS3_RS3_PSA_lLl256EEEEESE_EEvT_T0_m, symObjAddr: 0x8FA4, symBinAddr: 0x28540, symSize: 0x8C }
  - { offset: 0x255828, size: 0x8, addend: 0x0, symName: __ZNSt3__16vectorIN8facebook3jsi5ValueENS_9allocatorIS3_EEE11__vallocateB8ne200100Em, symObjAddr: 0x9030, symBinAddr: 0x285CC, symSize: 0x38 }
  - { offset: 0x25587E, size: 0x8, addend: 0x0, symName: __ZNSt3__16vectorIN8facebook3jsi5ValueENS_9allocatorIS3_EEE18__construct_at_endINS_13move_iteratorINS_16__deque_iteratorIS3_PS3_RS3_PSA_lLl256EEEEESE_EEvT_T0_m, symObjAddr: 0x9068, symBinAddr: 0x28604, symSize: 0x6C }
  - { offset: 0x255889, size: 0x8, addend: 0x0, symName: __ZNSt3__16vectorIN8facebook3jsi5ValueENS_9allocatorIS3_EEE18__construct_at_endINS_13move_iteratorINS_16__deque_iteratorIS3_PS3_RS3_PSA_lLl256EEEEESE_EEvT_T0_m, symObjAddr: 0x9068, symBinAddr: 0x28604, symSize: 0x6C }
  - { offset: 0x255B9F, size: 0x8, addend: 0x0, symName: __ZNSt3__114__split_bufferIPN8facebook3jsi5ValueENS_9allocatorIS4_EEED2Ev, symObjAddr: 0x91E8, symBinAddr: 0x28784, symSize: 0x4C }
  - { offset: 0x255D22, size: 0x8, addend: 0x0, symName: '__ZNSt3__110__function6__funcIZN8facebook5react18jsinspector_modern12_GLOBAL__N_124forwardToOriginalConsoleIZNS5_23installConsoleTimeStampERNS2_3jsi7RuntimeENS_10shared_ptrINS7_6ObjectEEERSB_E3$_0EEDaSC_PKcT_EUlS9_RKNS7_5ValueEPSK_mE_NS_9allocatorISN_EEFSJ_S9_SL_SM_mEED1Ev', symObjAddr: 0x9234, symBinAddr: 0x287D0, symSize: 0x30 }
  - { offset: 0x255E1A, size: 0x8, addend: 0x0, symName: '__ZNSt3__110__function6__funcIZN8facebook5react18jsinspector_modern12_GLOBAL__N_124forwardToOriginalConsoleIZNS5_23installConsoleTimeStampERNS2_3jsi7RuntimeENS_10shared_ptrINS7_6ObjectEEERSB_E3$_0EEDaSC_PKcT_EUlS9_RKNS7_5ValueEPSK_mE_NS_9allocatorISN_EEFSJ_S9_SL_SM_mEED0Ev', symObjAddr: 0x9264, symBinAddr: 0x28800, symSize: 0x30 }
  - { offset: 0x25602A, size: 0x8, addend: 0x0, symName: '__ZNKSt3__110__function6__funcIZN8facebook5react18jsinspector_modern12_GLOBAL__N_124forwardToOriginalConsoleIZNS5_23installConsoleTimeStampERNS2_3jsi7RuntimeENS_10shared_ptrINS7_6ObjectEEERSB_E3$_0EEDaSC_PKcT_EUlS9_RKNS7_5ValueEPSK_mE_NS_9allocatorISN_EEFSJ_S9_SL_SM_mEE7__cloneEv', symObjAddr: 0x9294, symBinAddr: 0x28830, symSize: 0x58 }
  - { offset: 0x256308, size: 0x8, addend: 0x0, symName: '__ZNKSt3__110__function6__funcIZN8facebook5react18jsinspector_modern12_GLOBAL__N_124forwardToOriginalConsoleIZNS5_23installConsoleTimeStampERNS2_3jsi7RuntimeENS_10shared_ptrINS7_6ObjectEEERSB_E3$_0EEDaSC_PKcT_EUlS9_RKNS7_5ValueEPSK_mE_NS_9allocatorISN_EEFSJ_S9_SL_SM_mEE7__cloneEPNS0_6__baseISQ_EE', symObjAddr: 0x92EC, symBinAddr: 0x28888, symSize: 0x38 }
  - { offset: 0x25633E, size: 0x8, addend: 0x0, symName: '__ZNKSt3__110__function6__funcIZN8facebook5react18jsinspector_modern12_GLOBAL__N_124forwardToOriginalConsoleIZNS5_23installConsoleTimeStampERNS2_3jsi7RuntimeENS_10shared_ptrINS7_6ObjectEEERSB_E3$_0EEDaSC_PKcT_EUlS9_RKNS7_5ValueEPSK_mE_NS_9allocatorISN_EEFSJ_S9_SL_SM_mEE7__cloneEPNS0_6__baseISQ_EE', symObjAddr: 0x92EC, symBinAddr: 0x28888, symSize: 0x38 }
  - { offset: 0x25636C, size: 0x8, addend: 0x0, symName: '__ZNKSt3__110__function6__funcIZN8facebook5react18jsinspector_modern12_GLOBAL__N_124forwardToOriginalConsoleIZNS5_23installConsoleTimeStampERNS2_3jsi7RuntimeENS_10shared_ptrINS7_6ObjectEEERSB_E3$_0EEDaSC_PKcT_EUlS9_RKNS7_5ValueEPSK_mE_NS_9allocatorISN_EEFSJ_S9_SL_SM_mEE7__cloneEPNS0_6__baseISQ_EE', symObjAddr: 0x92EC, symBinAddr: 0x28888, symSize: 0x38 }
  - { offset: 0x2564DD, size: 0x8, addend: 0x0, symName: '__ZNSt3__110__function6__funcIZN8facebook5react18jsinspector_modern12_GLOBAL__N_124forwardToOriginalConsoleIZNS5_23installConsoleTimeStampERNS2_3jsi7RuntimeENS_10shared_ptrINS7_6ObjectEEERSB_E3$_0EEDaSC_PKcT_EUlS9_RKNS7_5ValueEPSK_mE_NS_9allocatorISN_EEFSJ_S9_SL_SM_mEE7destroyEv', symObjAddr: 0x9324, symBinAddr: 0x288C0, symSize: 0x8 }
  - { offset: 0x25659A, size: 0x8, addend: 0x0, symName: '__ZNSt3__110__function6__funcIZN8facebook5react18jsinspector_modern12_GLOBAL__N_124forwardToOriginalConsoleIZNS5_23installConsoleTimeStampERNS2_3jsi7RuntimeENS_10shared_ptrINS7_6ObjectEEERSB_E3$_0EEDaSC_PKcT_EUlS9_RKNS7_5ValueEPSK_mE_NS_9allocatorISN_EEFSJ_S9_SL_SM_mEE18destroy_deallocateEv', symObjAddr: 0x932C, symBinAddr: 0x288C8, symSize: 0x28 }
  - { offset: 0x258060, size: 0x8, addend: 0x0, symName: '__ZNSt3__110__function6__funcIZN8facebook5react18jsinspector_modern12_GLOBAL__N_124forwardToOriginalConsoleIZNS5_23installConsoleTimeStampERNS2_3jsi7RuntimeENS_10shared_ptrINS7_6ObjectEEERSB_E3$_0EEDaSC_PKcT_EUlS9_RKNS7_5ValueEPSK_mE_NS_9allocatorISN_EEFSJ_S9_SL_SM_mEEclES9_SL_OSM_Om', symObjAddr: 0x9354, symBinAddr: 0x288F0, symSize: 0xBB0 }
  - { offset: 0x25DCA7, size: 0x8, addend: 0x0, symName: __ZNSt3__116__variant_detail6__dtorINS0_8__traitsIJN8facebook5react16HighResTimeStampENS_12basic_stringIcNS_11char_traitsIcEENS_9allocatorIcEEEEEEELNS0_6_TraitE1EE9__destroyB8ne200100Ev, symObjAddr: 0xA340, symBinAddr: 0x298DC, symSize: 0x54 }
  - { offset: 0x25DDA6, size: 0x8, addend: 0x0, symName: __ZNSt3__18optionalINS_7variantIJN8facebook5react16HighResTimeStampENS_12basic_stringIcNS_11char_traitsIcEENS_9allocatorIcEEEEEEEEaSB8ne200100ISA_vEERSC_OT_, symObjAddr: 0x9F4C, symBinAddr: 0x294E8, symSize: 0x68 }
  - { offset: 0x25E19F, size: 0x8, addend: 0x0, symName: __ZNSt3__120__optional_copy_baseINS_7variantIJN8facebook5react16HighResTimeStampENS_12basic_stringIcNS_11char_traitsIcEENS_9allocatorIcEEEEEEELb0EEC2B8ne200100ERKSC_, symObjAddr: 0xA4B4, symBinAddr: 0x299D0, symSize: 0x64 }
  - { offset: 0x25E617, size: 0x8, addend: 0x0, symName: '__ZNKSt3__110__function6__funcIZN8facebook5react18jsinspector_modern12_GLOBAL__N_124forwardToOriginalConsoleIZNS5_23installConsoleTimeStampERNS2_3jsi7RuntimeENS_10shared_ptrINS7_6ObjectEEERSB_E3$_0EEDaSC_PKcT_EUlS9_RKNS7_5ValueEPSK_mE_NS_9allocatorISN_EEFSJ_S9_SL_SM_mEE6targetERKSt9type_info', symObjAddr: 0x9F04, symBinAddr: 0x294A0, symSize: 0x3C }
  - { offset: 0x25E663, size: 0x8, addend: 0x0, symName: '__ZNKSt3__110__function6__funcIZN8facebook5react18jsinspector_modern12_GLOBAL__N_124forwardToOriginalConsoleIZNS5_23installConsoleTimeStampERNS2_3jsi7RuntimeENS_10shared_ptrINS7_6ObjectEEERSB_E3$_0EEDaSC_PKcT_EUlS9_RKNS7_5ValueEPSK_mE_NS_9allocatorISN_EEFSJ_S9_SL_SM_mEE11target_typeEv', symObjAddr: 0x9F40, symBinAddr: 0x294DC, symSize: 0xC }
  - { offset: 0x25EB19, size: 0x8, addend: 0x0, symName: __ZNSt3__116__variant_detail12__assignmentINS0_8__traitsIJN8facebook5react16HighResTimeStampENS_12basic_stringIcNS_11char_traitsIcEENS_9allocatorIcEEEEEEEE12__assign_altB8ne200100ILm1ESB_SB_EEvRNS0_5__altIXT_ET0_EEOT1_, symObjAddr: 0xA3AC, symBinAddr: 0x29948, symSize: 0x88 }
  - { offset: 0x25F076, size: 0x8, addend: 0x0, symName: __ZNSt3__116__variant_detail12__visitation6__base12__dispatcherIJLm0EEE10__dispatchB8ne200100IOZNS0_6__dtorINS0_8__traitsIJN8facebook5react16HighResTimeStampENS_12basic_stringIcNS_11char_traitsIcEENS_9allocatorIcEEEEEEELNS0_6_TraitE1EE9__destroyB8ne200100EvEUlRT_E_JRNS0_6__baseILSI_1EJSA_SG_EEEEEEDcSK_DpT0_, symObjAddr: 0xA394, symBinAddr: 0x29930, symSize: 0x4 }
  - { offset: 0x25F136, size: 0x8, addend: 0x0, symName: __ZNSt3__116__variant_detail12__visitation6__base12__dispatcherIJLm1EEE10__dispatchB8ne200100IOZNS0_6__dtorINS0_8__traitsIJN8facebook5react16HighResTimeStampENS_12basic_stringIcNS_11char_traitsIcEENS_9allocatorIcEEEEEEELNS0_6_TraitE1EE9__destroyB8ne200100EvEUlRT_E_JRNS0_6__baseILSI_1EJSA_SG_EEEEEEDcSK_DpT0_, symObjAddr: 0xA398, symBinAddr: 0x29934, symSize: 0x14 }
  - { offset: 0x25F206, size: 0x8, addend: 0x0, symName: __ZNSt3__116__variant_detail12__visitation6__base12__dispatcherIJLm1EEE10__dispatchB8ne200100IOZNS0_6__dtorINS0_8__traitsIJN8facebook5react16HighResTimeStampENS_12basic_stringIcNS_11char_traitsIcEENS_9allocatorIcEEEEEEELNS0_6_TraitE1EE9__destroyB8ne200100EvEUlRT_E_JRNS0_6__baseILSI_1EJSA_SG_EEEEEEDcSK_DpT0_, symObjAddr: 0xA398, symBinAddr: 0x29934, symSize: 0x14 }
  - { offset: 0x25F497, size: 0x8, addend: 0x0, symName: __ZNSt3__116__variant_detail18__copy_constructorINS0_8__traitsIJN8facebook5react16HighResTimeStampENS_12basic_stringIcNS_11char_traitsIcEENS_9allocatorIcEEEEEEELNS0_6_TraitE1EEC2B8ne200100ERKSE_, symObjAddr: 0xA518, symBinAddr: 0x29A34, symSize: 0x44 }
  - { offset: 0x25F73B, size: 0x8, addend: 0x0, symName: __ZNSt3__116__variant_detail6__ctorINS0_8__traitsIJN8facebook5react16HighResTimeStampENS_12basic_stringIcNS_11char_traitsIcEENS_9allocatorIcEEEEEEEE19__generic_constructB8ne200100IRKNS0_18__copy_constructorISC_LNS0_6_TraitE1EEEEEvRSD_OT_, symObjAddr: 0xA55C, symBinAddr: 0x29A78, symSize: 0x60 }
  - { offset: 0x25FA89, size: 0x8, addend: 0x0, symName: __ZNSt3__116__variant_detail12__visitation6__base12__dispatcherIJLm0EEE10__dispatchB8ne200100IOZNS0_6__ctorINS0_8__traitsIJN8facebook5react16HighResTimeStampENS_12basic_stringIcNS_11char_traitsIcEENS_9allocatorIcEEEEEEEE19__generic_constructB8ne200100IRKNS0_18__copy_constructorISH_LNS0_6_TraitE1EEEEEvRSI_OT_EUlSR_E_JRKNS0_6__baseILSL_1EJSA_SG_EEEEEEDcSQ_DpT0_, symObjAddr: 0xA5BC, symBinAddr: 0x29AD8, symSize: 0x10 }
  - { offset: 0x25FABE, size: 0x8, addend: 0x0, symName: __ZNSt3__116__variant_detail12__visitation6__base12__dispatcherIJLm0EEE10__dispatchB8ne200100IOZNS0_6__ctorINS0_8__traitsIJN8facebook5react16HighResTimeStampENS_12basic_stringIcNS_11char_traitsIcEENS_9allocatorIcEEEEEEEE19__generic_constructB8ne200100IRKNS0_18__copy_constructorISH_LNS0_6_TraitE1EEEEEvRSI_OT_EUlSR_E_JRKNS0_6__baseILSL_1EJSA_SG_EEEEEEDcSQ_DpT0_, symObjAddr: 0xA5BC, symBinAddr: 0x29AD8, symSize: 0x10 }
  - { offset: 0x25FAE1, size: 0x8, addend: 0x0, symName: __ZNSt3__116__variant_detail12__visitation6__base12__dispatcherIJLm0EEE10__dispatchB8ne200100IOZNS0_6__ctorINS0_8__traitsIJN8facebook5react16HighResTimeStampENS_12basic_stringIcNS_11char_traitsIcEENS_9allocatorIcEEEEEEEE19__generic_constructB8ne200100IRKNS0_18__copy_constructorISH_LNS0_6_TraitE1EEEEEvRSI_OT_EUlSR_E_JRKNS0_6__baseILSL_1EJSA_SG_EEEEEEDcSQ_DpT0_, symObjAddr: 0xA5BC, symBinAddr: 0x29AD8, symSize: 0x10 }
  - { offset: 0x25FD9D, size: 0x8, addend: 0x0, symName: __ZNSt3__116__variant_detail12__visitation6__base12__dispatcherIJLm1EEE10__dispatchB8ne200100IOZNS0_6__ctorINS0_8__traitsIJN8facebook5react16HighResTimeStampENS_12basic_stringIcNS_11char_traitsIcEENS_9allocatorIcEEEEEEEE19__generic_constructB8ne200100IRKNS0_18__copy_constructorISH_LNS0_6_TraitE1EEEEEvRSI_OT_EUlSR_E_JRKNS0_6__baseILSL_1EJSA_SG_EEEEEEDcSQ_DpT0_, symObjAddr: 0xA5CC, symBinAddr: 0x29AE8, symSize: 0x2C }
  - { offset: 0x272773, size: 0x8, addend: 0x0, symName: __ZN8facebook5react18jsinspector_modern13RuntimeTarget30installDebuggerSessionObserverEv, symObjAddr: 0x0, symBinAddr: 0x29B7C, symSize: 0xE4 }
  - { offset: 0x272E31, size: 0x8, addend: 0x0, symName: '__ZNSt3__110__function6__funcIZN8facebook5react18jsinspector_modern13RuntimeTarget30installDebuggerSessionObserverEvE3$_0NS_9allocatorIS6_EEFvRNS2_3jsi7RuntimeEEED1Ev', symObjAddr: 0x130, symBinAddr: 0x29C60, symSize: 0x4 }
  - { offset: 0x272E5D, size: 0x8, addend: 0x0, symName: '__ZNSt3__110__function6__funcIZN8facebook5react18jsinspector_modern13RuntimeTarget30installDebuggerSessionObserverEvE3$_0NS_9allocatorIS6_EEFvRNS2_3jsi7RuntimeEEED0Ev', symObjAddr: 0x134, symBinAddr: 0x29C64, symSize: 0x4 }
  - { offset: 0x272F1C, size: 0x8, addend: 0x0, symName: '__ZNKSt3__110__function6__funcIZN8facebook5react18jsinspector_modern13RuntimeTarget30installDebuggerSessionObserverEvE3$_0NS_9allocatorIS6_EEFvRNS2_3jsi7RuntimeEEE7__cloneEv', symObjAddr: 0x138, symBinAddr: 0x29C68, symSize: 0x24 }
  - { offset: 0x273069, size: 0x8, addend: 0x0, symName: '__ZNKSt3__110__function6__funcIZN8facebook5react18jsinspector_modern13RuntimeTarget30installDebuggerSessionObserverEvE3$_0NS_9allocatorIS6_EEFvRNS2_3jsi7RuntimeEEE7__cloneEPNS0_6__baseISC_EE', symObjAddr: 0x15C, symBinAddr: 0x29C8C, symSize: 0x10 }
  - { offset: 0x27309D, size: 0x8, addend: 0x0, symName: '__ZNKSt3__110__function6__funcIZN8facebook5react18jsinspector_modern13RuntimeTarget30installDebuggerSessionObserverEvE3$_0NS_9allocatorIS6_EEFvRNS2_3jsi7RuntimeEEE7__cloneEPNS0_6__baseISC_EE', symObjAddr: 0x15C, symBinAddr: 0x29C8C, symSize: 0x10 }
  - { offset: 0x2730B9, size: 0x8, addend: 0x0, symName: '__ZNKSt3__110__function6__funcIZN8facebook5react18jsinspector_modern13RuntimeTarget30installDebuggerSessionObserverEvE3$_0NS_9allocatorIS6_EEFvRNS2_3jsi7RuntimeEEE7__cloneEPNS0_6__baseISC_EE', symObjAddr: 0x15C, symBinAddr: 0x29C8C, symSize: 0x10 }
  - { offset: 0x2730D5, size: 0x8, addend: 0x0, symName: '__ZNSt3__110__function6__funcIZN8facebook5react18jsinspector_modern13RuntimeTarget30installDebuggerSessionObserverEvE3$_0NS_9allocatorIS6_EEFvRNS2_3jsi7RuntimeEEE7destroyEv', symObjAddr: 0x16C, symBinAddr: 0x29C9C, symSize: 0x4 }
  - { offset: 0x273129, size: 0x8, addend: 0x0, symName: '__ZNSt3__110__function6__funcIZN8facebook5react18jsinspector_modern13RuntimeTarget30installDebuggerSessionObserverEvE3$_0NS_9allocatorIS6_EEFvRNS2_3jsi7RuntimeEEE18destroy_deallocateEv', symObjAddr: 0x170, symBinAddr: 0x29CA0, symSize: 0x4 }
  - { offset: 0x27315D, size: 0x8, addend: 0x0, symName: '__ZNSt3__110__function6__funcIZN8facebook5react18jsinspector_modern13RuntimeTarget30installDebuggerSessionObserverEvE3$_0NS_9allocatorIS6_EEFvRNS2_3jsi7RuntimeEEE18destroy_deallocateEv', symObjAddr: 0x170, symBinAddr: 0x29CA0, symSize: 0x4 }
  - { offset: 0x27317F, size: 0x8, addend: 0x0, symName: '__ZNSt3__110__function6__funcIZN8facebook5react18jsinspector_modern13RuntimeTarget30installDebuggerSessionObserverEvE3$_0NS_9allocatorIS6_EEFvRNS2_3jsi7RuntimeEEE18destroy_deallocateEv', symObjAddr: 0x170, symBinAddr: 0x29CA0, symSize: 0x4 }
  - { offset: 0x2731B1, size: 0x8, addend: 0x0, symName: '__ZNSt3__110__function6__funcIZN8facebook5react18jsinspector_modern13RuntimeTarget30installDebuggerSessionObserverEvE3$_0NS_9allocatorIS6_EEFvRNS2_3jsi7RuntimeEEE18destroy_deallocateEv', symObjAddr: 0x170, symBinAddr: 0x29CA0, symSize: 0x4 }
  - { offset: 0x273878, size: 0x8, addend: 0x0, symName: '__ZNSt3__110__function6__funcIZN8facebook5react18jsinspector_modern13RuntimeTarget30installDebuggerSessionObserverEvE3$_0NS_9allocatorIS6_EEFvRNS2_3jsi7RuntimeEEEclESB_', symObjAddr: 0x174, symBinAddr: 0x29CA4, symSize: 0x398 }
  - { offset: 0x27447B, size: 0x8, addend: 0x0, symName: __ZNK8facebook3jsi6Object11setPropertyINS0_5ValueEEEvRNS0_7RuntimeEPKcOT_, symObjAddr: 0x554, symBinAddr: 0x2A084, symSize: 0xAC }
  - { offset: 0x2746B5, size: 0x8, addend: 0x0, symName: __ZNK8facebook3jsi6Object11setPropertyIRNS0_5ValueEEEvRNS0_7RuntimeEPKcOT_, symObjAddr: 0x600, symBinAddr: 0x2A130, symSize: 0xA4 }
  - { offset: 0x274B42, size: 0x8, addend: 0x0, symName: '__ZNKSt3__110__function6__funcIZN8facebook5react18jsinspector_modern13RuntimeTarget30installDebuggerSessionObserverEvE3$_0NS_9allocatorIS6_EEFvRNS2_3jsi7RuntimeEEE6targetERKSt9type_info', symObjAddr: 0x50C, symBinAddr: 0x2A03C, symSize: 0x3C }
  - { offset: 0x274BF4, size: 0x8, addend: 0x0, symName: '__ZNKSt3__110__function6__funcIZN8facebook5react18jsinspector_modern13RuntimeTarget30installDebuggerSessionObserverEvE3$_0NS_9allocatorIS6_EEFvRNS2_3jsi7RuntimeEEE11target_typeEv', symObjAddr: 0x548, symBinAddr: 0x2A078, symSize: 0xC }
  - { offset: 0x274D41, size: 0x8, addend: 0x0, symName: __ZNK8facebook3jsi6Object11setPropertyIRNS0_5ValueEEEvRNS0_7RuntimeERKNS0_6StringEOT_, symObjAddr: 0x7EC, symBinAddr: 0x2A1D4, symSize: 0x78 }
  - { offset: 0x275113, size: 0x8, addend: 0x0, symName: '__ZNSt3__110__function6__funcIZZN8facebook5react18jsinspector_modern13RuntimeTarget30installDebuggerSessionObserverEvENK3$_0clERNS2_3jsi7RuntimeEEUlS9_RKNS7_5ValueEPSB_mE_NS_9allocatorISE_EEFSA_S9_SC_SD_mEED1Ev', symObjAddr: 0x968, symBinAddr: 0x2A24C, symSize: 0x4 }
  - { offset: 0x27513F, size: 0x8, addend: 0x0, symName: '__ZNSt3__110__function6__funcIZZN8facebook5react18jsinspector_modern13RuntimeTarget30installDebuggerSessionObserverEvENK3$_0clERNS2_3jsi7RuntimeEEUlS9_RKNS7_5ValueEPSB_mE_NS_9allocatorISE_EEFSA_S9_SC_SD_mEED0Ev', symObjAddr: 0x96C, symBinAddr: 0x2A250, symSize: 0x4 }
  - { offset: 0x2751F9, size: 0x8, addend: 0x0, symName: '__ZNKSt3__110__function6__funcIZZN8facebook5react18jsinspector_modern13RuntimeTarget30installDebuggerSessionObserverEvENK3$_0clERNS2_3jsi7RuntimeEEUlS9_RKNS7_5ValueEPSB_mE_NS_9allocatorISE_EEFSA_S9_SC_SD_mEE7__cloneEv', symObjAddr: 0x970, symBinAddr: 0x2A254, symSize: 0x24 }
  - { offset: 0x275346, size: 0x8, addend: 0x0, symName: '__ZNKSt3__110__function6__funcIZZN8facebook5react18jsinspector_modern13RuntimeTarget30installDebuggerSessionObserverEvENK3$_0clERNS2_3jsi7RuntimeEEUlS9_RKNS7_5ValueEPSB_mE_NS_9allocatorISE_EEFSA_S9_SC_SD_mEE7__cloneEPNS0_6__baseISH_EE', symObjAddr: 0x994, symBinAddr: 0x2A278, symSize: 0x10 }
  - { offset: 0x27537A, size: 0x8, addend: 0x0, symName: '__ZNKSt3__110__function6__funcIZZN8facebook5react18jsinspector_modern13RuntimeTarget30installDebuggerSessionObserverEvENK3$_0clERNS2_3jsi7RuntimeEEUlS9_RKNS7_5ValueEPSB_mE_NS_9allocatorISE_EEFSA_S9_SC_SD_mEE7__cloneEPNS0_6__baseISH_EE', symObjAddr: 0x994, symBinAddr: 0x2A278, symSize: 0x10 }
  - { offset: 0x275396, size: 0x8, addend: 0x0, symName: '__ZNKSt3__110__function6__funcIZZN8facebook5react18jsinspector_modern13RuntimeTarget30installDebuggerSessionObserverEvENK3$_0clERNS2_3jsi7RuntimeEEUlS9_RKNS7_5ValueEPSB_mE_NS_9allocatorISE_EEFSA_S9_SC_SD_mEE7__cloneEPNS0_6__baseISH_EE', symObjAddr: 0x994, symBinAddr: 0x2A278, symSize: 0x10 }
  - { offset: 0x2753B2, size: 0x8, addend: 0x0, symName: '__ZNSt3__110__function6__funcIZZN8facebook5react18jsinspector_modern13RuntimeTarget30installDebuggerSessionObserverEvENK3$_0clERNS2_3jsi7RuntimeEEUlS9_RKNS7_5ValueEPSB_mE_NS_9allocatorISE_EEFSA_S9_SC_SD_mEE7destroyEv', symObjAddr: 0x9A4, symBinAddr: 0x2A288, symSize: 0x4 }
  - { offset: 0x275406, size: 0x8, addend: 0x0, symName: '__ZNSt3__110__function6__funcIZZN8facebook5react18jsinspector_modern13RuntimeTarget30installDebuggerSessionObserverEvENK3$_0clERNS2_3jsi7RuntimeEEUlS9_RKNS7_5ValueEPSB_mE_NS_9allocatorISE_EEFSA_S9_SC_SD_mEE18destroy_deallocateEv', symObjAddr: 0x9A8, symBinAddr: 0x2A28C, symSize: 0x4 }
  - { offset: 0x27543A, size: 0x8, addend: 0x0, symName: '__ZNSt3__110__function6__funcIZZN8facebook5react18jsinspector_modern13RuntimeTarget30installDebuggerSessionObserverEvENK3$_0clERNS2_3jsi7RuntimeEEUlS9_RKNS7_5ValueEPSB_mE_NS_9allocatorISE_EEFSA_S9_SC_SD_mEE18destroy_deallocateEv', symObjAddr: 0x9A8, symBinAddr: 0x2A28C, symSize: 0x4 }
  - { offset: 0x27545C, size: 0x8, addend: 0x0, symName: '__ZNSt3__110__function6__funcIZZN8facebook5react18jsinspector_modern13RuntimeTarget30installDebuggerSessionObserverEvENK3$_0clERNS2_3jsi7RuntimeEEUlS9_RKNS7_5ValueEPSB_mE_NS_9allocatorISE_EEFSA_S9_SC_SD_mEE18destroy_deallocateEv', symObjAddr: 0x9A8, symBinAddr: 0x2A28C, symSize: 0x4 }
  - { offset: 0x27548E, size: 0x8, addend: 0x0, symName: '__ZNSt3__110__function6__funcIZZN8facebook5react18jsinspector_modern13RuntimeTarget30installDebuggerSessionObserverEvENK3$_0clERNS2_3jsi7RuntimeEEUlS9_RKNS7_5ValueEPSB_mE_NS_9allocatorISE_EEFSA_S9_SC_SD_mEE18destroy_deallocateEv', symObjAddr: 0x9A8, symBinAddr: 0x2A28C, symSize: 0x4 }
  - { offset: 0x27596E, size: 0x8, addend: 0x0, symName: '__ZNSt3__110__function6__funcIZZN8facebook5react18jsinspector_modern13RuntimeTarget30installDebuggerSessionObserverEvENK3$_0clERNS2_3jsi7RuntimeEEUlS9_RKNS7_5ValueEPSB_mE_NS_9allocatorISE_EEFSA_S9_SC_SD_mEEclES9_SC_OSD_Om', symObjAddr: 0x9AC, symBinAddr: 0x2A290, symSize: 0x49C }
  - { offset: 0x276D6B, size: 0x8, addend: 0x0, symName: '__ZNKSt3__110__function6__funcIZZN8facebook5react18jsinspector_modern13RuntimeTarget30installDebuggerSessionObserverEvENK3$_0clERNS2_3jsi7RuntimeEEUlS9_RKNS7_5ValueEPSB_mE_NS_9allocatorISE_EEFSA_S9_SC_SD_mEE6targetERKSt9type_info', symObjAddr: 0xE48, symBinAddr: 0x2A72C, symSize: 0x3C }
  - { offset: 0x276DB7, size: 0x8, addend: 0x0, symName: '__ZNKSt3__110__function6__funcIZZN8facebook5react18jsinspector_modern13RuntimeTarget30installDebuggerSessionObserverEvENK3$_0clERNS2_3jsi7RuntimeEEUlS9_RKNS7_5ValueEPSB_mE_NS_9allocatorISE_EEFSA_S9_SC_SD_mEE11target_typeEv', symObjAddr: 0xE84, symBinAddr: 0x2A768, symSize: 0xC }
  - { offset: 0x27731E, size: 0x8, addend: 0x0, symName: '__ZNSt3__110__function6__funcIZZZN8facebook5react18jsinspector_modern13RuntimeTarget30installDebuggerSessionObserverEvENK3$_0clERNS2_3jsi7RuntimeEENKUlS9_RKNS7_5ValueEPSB_mE_clES9_SC_SD_mEUlS9_SC_SD_mE_NS_9allocatorISF_EEFSA_S9_SC_SD_mEED1Ev', symObjAddr: 0x113C, symBinAddr: 0x2A774, symSize: 0x4 }
  - { offset: 0x27734A, size: 0x8, addend: 0x0, symName: '__ZNSt3__110__function6__funcIZZZN8facebook5react18jsinspector_modern13RuntimeTarget30installDebuggerSessionObserverEvENK3$_0clERNS2_3jsi7RuntimeEENKUlS9_RKNS7_5ValueEPSB_mE_clES9_SC_SD_mEUlS9_SC_SD_mE_NS_9allocatorISF_EEFSA_S9_SC_SD_mEED0Ev', symObjAddr: 0x1140, symBinAddr: 0x2A778, symSize: 0x4 }
  - { offset: 0x277464, size: 0x8, addend: 0x0, symName: '__ZNKSt3__110__function6__funcIZZZN8facebook5react18jsinspector_modern13RuntimeTarget30installDebuggerSessionObserverEvENK3$_0clERNS2_3jsi7RuntimeEENKUlS9_RKNS7_5ValueEPSB_mE_clES9_SC_SD_mEUlS9_SC_SD_mE_NS_9allocatorISF_EEFSA_S9_SC_SD_mEE7__cloneEv', symObjAddr: 0x1144, symBinAddr: 0x2A77C, symSize: 0x38 }
  - { offset: 0x277676, size: 0x8, addend: 0x0, symName: '__ZNKSt3__110__function6__funcIZZZN8facebook5react18jsinspector_modern13RuntimeTarget30installDebuggerSessionObserverEvENK3$_0clERNS2_3jsi7RuntimeEENKUlS9_RKNS7_5ValueEPSB_mE_clES9_SC_SD_mEUlS9_SC_SD_mE_NS_9allocatorISF_EEFSA_S9_SC_SD_mEE7__cloneEPNS0_6__baseISI_EE', symObjAddr: 0x117C, symBinAddr: 0x2A7B4, symSize: 0x18 }
  - { offset: 0x2776AC, size: 0x8, addend: 0x0, symName: '__ZNKSt3__110__function6__funcIZZZN8facebook5react18jsinspector_modern13RuntimeTarget30installDebuggerSessionObserverEvENK3$_0clERNS2_3jsi7RuntimeEENKUlS9_RKNS7_5ValueEPSB_mE_clES9_SC_SD_mEUlS9_SC_SD_mE_NS_9allocatorISF_EEFSA_S9_SC_SD_mEE7__cloneEPNS0_6__baseISI_EE', symObjAddr: 0x117C, symBinAddr: 0x2A7B4, symSize: 0x18 }
  - { offset: 0x2776DA, size: 0x8, addend: 0x0, symName: '__ZNKSt3__110__function6__funcIZZZN8facebook5react18jsinspector_modern13RuntimeTarget30installDebuggerSessionObserverEvENK3$_0clERNS2_3jsi7RuntimeEENKUlS9_RKNS7_5ValueEPSB_mE_clES9_SC_SD_mEUlS9_SC_SD_mE_NS_9allocatorISF_EEFSA_S9_SC_SD_mEE7__cloneEPNS0_6__baseISI_EE', symObjAddr: 0x117C, symBinAddr: 0x2A7B4, symSize: 0x18 }
  - { offset: 0x277769, size: 0x8, addend: 0x0, symName: '__ZNSt3__110__function6__funcIZZZN8facebook5react18jsinspector_modern13RuntimeTarget30installDebuggerSessionObserverEvENK3$_0clERNS2_3jsi7RuntimeEENKUlS9_RKNS7_5ValueEPSB_mE_clES9_SC_SD_mEUlS9_SC_SD_mE_NS_9allocatorISF_EEFSA_S9_SC_SD_mEE7destroyEv', symObjAddr: 0x1194, symBinAddr: 0x2A7CC, symSize: 0x4 }
  - { offset: 0x2777BD, size: 0x8, addend: 0x0, symName: '__ZNSt3__110__function6__funcIZZZN8facebook5react18jsinspector_modern13RuntimeTarget30installDebuggerSessionObserverEvENK3$_0clERNS2_3jsi7RuntimeEENKUlS9_RKNS7_5ValueEPSB_mE_clES9_SC_SD_mEUlS9_SC_SD_mE_NS_9allocatorISF_EEFSA_S9_SC_SD_mEE18destroy_deallocateEv', symObjAddr: 0x1198, symBinAddr: 0x2A7D0, symSize: 0x4 }
  - { offset: 0x2777F1, size: 0x8, addend: 0x0, symName: '__ZNSt3__110__function6__funcIZZZN8facebook5react18jsinspector_modern13RuntimeTarget30installDebuggerSessionObserverEvENK3$_0clERNS2_3jsi7RuntimeEENKUlS9_RKNS7_5ValueEPSB_mE_clES9_SC_SD_mEUlS9_SC_SD_mE_NS_9allocatorISF_EEFSA_S9_SC_SD_mEE18destroy_deallocateEv', symObjAddr: 0x1198, symBinAddr: 0x2A7D0, symSize: 0x4 }
  - { offset: 0x277813, size: 0x8, addend: 0x0, symName: '__ZNSt3__110__function6__funcIZZZN8facebook5react18jsinspector_modern13RuntimeTarget30installDebuggerSessionObserverEvENK3$_0clERNS2_3jsi7RuntimeEENKUlS9_RKNS7_5ValueEPSB_mE_clES9_SC_SD_mEUlS9_SC_SD_mE_NS_9allocatorISF_EEFSA_S9_SC_SD_mEE18destroy_deallocateEv', symObjAddr: 0x1198, symBinAddr: 0x2A7D0, symSize: 0x4 }
  - { offset: 0x277845, size: 0x8, addend: 0x0, symName: '__ZNSt3__110__function6__funcIZZZN8facebook5react18jsinspector_modern13RuntimeTarget30installDebuggerSessionObserverEvENK3$_0clERNS2_3jsi7RuntimeEENKUlS9_RKNS7_5ValueEPSB_mE_clES9_SC_SD_mEUlS9_SC_SD_mE_NS_9allocatorISF_EEFSA_S9_SC_SD_mEE18destroy_deallocateEv', symObjAddr: 0x1198, symBinAddr: 0x2A7D0, symSize: 0x4 }
  - { offset: 0x277A6E, size: 0x8, addend: 0x0, symName: '__ZNSt3__110__function6__funcIZZZN8facebook5react18jsinspector_modern13RuntimeTarget30installDebuggerSessionObserverEvENK3$_0clERNS2_3jsi7RuntimeEENKUlS9_RKNS7_5ValueEPSB_mE_clES9_SC_SD_mEUlS9_SC_SD_mE_NS_9allocatorISF_EEFSA_S9_SC_SD_mEEclES9_SC_OSD_Om', symObjAddr: 0x119C, symBinAddr: 0x2A7D4, symSize: 0x218 }
  - { offset: 0x278256, size: 0x8, addend: 0x0, symName: '__ZNKSt3__110__function6__funcIZZZN8facebook5react18jsinspector_modern13RuntimeTarget30installDebuggerSessionObserverEvENK3$_0clERNS2_3jsi7RuntimeEENKUlS9_RKNS7_5ValueEPSB_mE_clES9_SC_SD_mEUlS9_SC_SD_mE_NS_9allocatorISF_EEFSA_S9_SC_SD_mEE6targetERKSt9type_info', symObjAddr: 0x13B4, symBinAddr: 0x2A9EC, symSize: 0x3C }
  - { offset: 0x2782A2, size: 0x8, addend: 0x0, symName: '__ZNKSt3__110__function6__funcIZZZN8facebook5react18jsinspector_modern13RuntimeTarget30installDebuggerSessionObserverEvENK3$_0clERNS2_3jsi7RuntimeEENKUlS9_RKNS7_5ValueEPSB_mE_clES9_SC_SD_mEUlS9_SC_SD_mE_NS_9allocatorISF_EEFSA_S9_SC_SD_mEE11target_typeEv', symObjAddr: 0x13F0, symBinAddr: 0x2AA28, symSize: 0xC }
  - { offset: 0x28ED00, size: 0x8, addend: 0x0, symName: __ZN8facebook5react18jsinspector_modern12TracingAgent13handleRequestERKNS1_3cdp16PreparsedRequestE, symObjAddr: 0x0, symBinAddr: 0x2AA34, symSize: 0x9CC }
  - { offset: 0x295032, size: 0x8, addend: 0x0, symName: __ZN8facebook5react18jsinspector_modern7tracing42RuntimeSamplingProfileTraceEventSerializerC2ERNS2_17PerformanceTracerENSt3__18functionIFvRKN5folly7dynamicEEEEtt, symObjAddr: 0xC50, symBinAddr: 0x2B4BC, symSize: 0x118 }
  - { offset: 0x295585, size: 0x8, addend: 0x0, symName: __ZN8facebook5react18jsinspector_modern7tracing22InstanceTracingProfileD1Ev, symObjAddr: 0x9CC, symBinAddr: 0x2B400, symSize: 0x60 }
  - { offset: 0x295829, size: 0x8, addend: 0x0, symName: __ZN8facebook5react18jsinspector_modern7tracing42RuntimeSamplingProfileTraceEventSerializerD1Ev, symObjAddr: 0xA2C, symBinAddr: 0x2B460, symSize: 0x54 }
  - { offset: 0x295919, size: 0x8, addend: 0x0, symName: __ZN8facebook5react18jsinspector_modern12TracingAgent23setCurrentInstanceAgentENSt3__110shared_ptrINS1_13InstanceAgentEEE, symObjAddr: 0xA80, symBinAddr: 0x2B4B4, symSize: 0x8 }
  - { offset: 0x295F29, size: 0x8, addend: 0x0, symName: __ZNSt3__110__function12__value_funcIFvRKN5folly7dynamicEEEC2B8ne200100EOS7_, symObjAddr: 0xD68, symBinAddr: 0x2B5D4, symSize: 0x64 }
  - { offset: 0x29758D, size: 0x8, addend: 0x0, symName: '__ZNSt3__110__function6__funcIZN8facebook5react18jsinspector_modern12TracingAgent13handleRequestERKNS4_3cdp16PreparsedRequestEE3$_0NS_9allocatorISA_EEFvRKN5folly7dynamicEEED1Ev', symObjAddr: 0x146C, symBinAddr: 0x2B638, symSize: 0x4 }
  - { offset: 0x2975B9, size: 0x8, addend: 0x0, symName: '__ZNSt3__110__function6__funcIZN8facebook5react18jsinspector_modern12TracingAgent13handleRequestERKNS4_3cdp16PreparsedRequestEE3$_0NS_9allocatorISA_EEFvRKN5folly7dynamicEEED0Ev', symObjAddr: 0x1470, symBinAddr: 0x2B63C, symSize: 0x4 }
  - { offset: 0x2976D3, size: 0x8, addend: 0x0, symName: '__ZNKSt3__110__function6__funcIZN8facebook5react18jsinspector_modern12TracingAgent13handleRequestERKNS4_3cdp16PreparsedRequestEE3$_0NS_9allocatorISA_EEFvRKN5folly7dynamicEEE7__cloneEv', symObjAddr: 0x1474, symBinAddr: 0x2B640, symSize: 0x34 }
  - { offset: 0x2978D3, size: 0x8, addend: 0x0, symName: '__ZNKSt3__110__function6__funcIZN8facebook5react18jsinspector_modern12TracingAgent13handleRequestERKNS4_3cdp16PreparsedRequestEE3$_0NS_9allocatorISA_EEFvRKN5folly7dynamicEEE7__cloneEPNS0_6__baseISH_EE', symObjAddr: 0x14A8, symBinAddr: 0x2B674, symSize: 0x14 }
  - { offset: 0x297909, size: 0x8, addend: 0x0, symName: '__ZNKSt3__110__function6__funcIZN8facebook5react18jsinspector_modern12TracingAgent13handleRequestERKNS4_3cdp16PreparsedRequestEE3$_0NS_9allocatorISA_EEFvRKN5folly7dynamicEEE7__cloneEPNS0_6__baseISH_EE', symObjAddr: 0x14A8, symBinAddr: 0x2B674, symSize: 0x14 }
  - { offset: 0x297937, size: 0x8, addend: 0x0, symName: '__ZNKSt3__110__function6__funcIZN8facebook5react18jsinspector_modern12TracingAgent13handleRequestERKNS4_3cdp16PreparsedRequestEE3$_0NS_9allocatorISA_EEFvRKN5folly7dynamicEEE7__cloneEPNS0_6__baseISH_EE', symObjAddr: 0x14A8, symBinAddr: 0x2B674, symSize: 0x14 }
  - { offset: 0x297965, size: 0x8, addend: 0x0, symName: '__ZNKSt3__110__function6__funcIZN8facebook5react18jsinspector_modern12TracingAgent13handleRequestERKNS4_3cdp16PreparsedRequestEE3$_0NS_9allocatorISA_EEFvRKN5folly7dynamicEEE7__cloneEPNS0_6__baseISH_EE', symObjAddr: 0x14A8, symBinAddr: 0x2B674, symSize: 0x14 }
  - { offset: 0x29797B, size: 0x8, addend: 0x0, symName: '__ZNKSt3__110__function6__funcIZN8facebook5react18jsinspector_modern12TracingAgent13handleRequestERKNS4_3cdp16PreparsedRequestEE3$_0NS_9allocatorISA_EEFvRKN5folly7dynamicEEE7__cloneEPNS0_6__baseISH_EE', symObjAddr: 0x14A8, symBinAddr: 0x2B674, symSize: 0x14 }
  - { offset: 0x297990, size: 0x8, addend: 0x0, symName: '__ZNSt3__110__function6__funcIZN8facebook5react18jsinspector_modern12TracingAgent13handleRequestERKNS4_3cdp16PreparsedRequestEE3$_0NS_9allocatorISA_EEFvRKN5folly7dynamicEEE7destroyEv', symObjAddr: 0x14BC, symBinAddr: 0x2B688, symSize: 0x4 }
  - { offset: 0x2979E4, size: 0x8, addend: 0x0, symName: '__ZNSt3__110__function6__funcIZN8facebook5react18jsinspector_modern12TracingAgent13handleRequestERKNS4_3cdp16PreparsedRequestEE3$_0NS_9allocatorISA_EEFvRKN5folly7dynamicEEE18destroy_deallocateEv', symObjAddr: 0x14C0, symBinAddr: 0x2B68C, symSize: 0x4 }
  - { offset: 0x297A18, size: 0x8, addend: 0x0, symName: '__ZNSt3__110__function6__funcIZN8facebook5react18jsinspector_modern12TracingAgent13handleRequestERKNS4_3cdp16PreparsedRequestEE3$_0NS_9allocatorISA_EEFvRKN5folly7dynamicEEE18destroy_deallocateEv', symObjAddr: 0x14C0, symBinAddr: 0x2B68C, symSize: 0x4 }
  - { offset: 0x297A3A, size: 0x8, addend: 0x0, symName: '__ZNSt3__110__function6__funcIZN8facebook5react18jsinspector_modern12TracingAgent13handleRequestERKNS4_3cdp16PreparsedRequestEE3$_0NS_9allocatorISA_EEFvRKN5folly7dynamicEEE18destroy_deallocateEv', symObjAddr: 0x14C0, symBinAddr: 0x2B68C, symSize: 0x4 }
  - { offset: 0x297A6C, size: 0x8, addend: 0x0, symName: '__ZNSt3__110__function6__funcIZN8facebook5react18jsinspector_modern12TracingAgent13handleRequestERKNS4_3cdp16PreparsedRequestEE3$_0NS_9allocatorISA_EEFvRKN5folly7dynamicEEE18destroy_deallocateEv', symObjAddr: 0x14C0, symBinAddr: 0x2B68C, symSize: 0x4 }
  - { offset: 0x297B17, size: 0x8, addend: 0x0, symName: '__ZNSt3__110__function6__funcIZN8facebook5react18jsinspector_modern12TracingAgent13handleRequestERKNS4_3cdp16PreparsedRequestEE3$_0NS_9allocatorISA_EEFvRKN5folly7dynamicEEEclESG_', symObjAddr: 0x14C4, symBinAddr: 0x2B690, symSize: 0x234 }
  - { offset: 0x298761, size: 0x8, addend: 0x0, symName: '__ZNKSt3__110__function6__funcIZN8facebook5react18jsinspector_modern12TracingAgent13handleRequestERKNS4_3cdp16PreparsedRequestEE3$_0NS_9allocatorISA_EEFvRKN5folly7dynamicEEE6targetERKSt9type_info', symObjAddr: 0x16F8, symBinAddr: 0x2B8C4, symSize: 0x3C }
  - { offset: 0x298813, size: 0x8, addend: 0x0, symName: '__ZNKSt3__110__function6__funcIZN8facebook5react18jsinspector_modern12TracingAgent13handleRequestERKNS4_3cdp16PreparsedRequestEE3$_0NS_9allocatorISA_EEFvRKN5folly7dynamicEEE11target_typeEv', symObjAddr: 0x1734, symBinAddr: 0x2B900, symSize: 0xC }
...
