---
triple:          'arm64-apple-darwin'
binary-path:     '/Users/uk-aplatts/Development/InjuryIQ/ios/DerivedData/Build/Intermediates.noindex/ArchiveIntermediates/InjuryIQ/IntermediateBuildFilesPath/UninstalledProducts/iphoneos/React_RuntimeCore.framework/React_RuntimeCore'
relocations:
  - { offset: 0x33, size: 0x8, addend: 0x0, symName: _React_RuntimeCoreVersionString, symObjAddr: 0x0, symBinAddr: 0x152D0, symSize: 0x0 }
  - { offset: 0x67, size: 0x8, addend: 0x0, symName: _React_RuntimeCoreVersionNumber, symObjAddr: 0x30, symBinAddr: 0x15300, symSize: 0x0 }
  - { offset: 0x3D74, size: 0x8, addend: 0x0, symName: __ZN8facebook5react33BridgelessNativeMethodCallInvokerC2ENSt3__110shared_ptrINS0_18MessageQueueThreadEEE, symObjAddr: 0x0, symBinAddr: 0x4000, symSize: 0x1C }
  - { offset: 0x3E10, size: 0x8, addend: 0x0, symName: __ZN8facebook5react33BridgelessNativeMethodCallInvokerC1ENSt3__110shared_ptrINS0_18MessageQueueThreadEEE, symObjAddr: 0x1C, symBinAddr: 0x401C, symSize: 0x1C }
  - { offset: 0x3E4A, size: 0x8, addend: 0x0, symName: __ZN8facebook5react33BridgelessNativeMethodCallInvokerC1ENSt3__110shared_ptrINS0_18MessageQueueThreadEEE, symObjAddr: 0x1C, symBinAddr: 0x401C, symSize: 0x1C }
  - { offset: 0x3ECF, size: 0x8, addend: 0x0, symName: __ZN8facebook5react33BridgelessNativeMethodCallInvoker11invokeAsyncERKNSt3__112basic_stringIcNS2_11char_traitsIcEENS2_9allocatorIcEEEEONS2_8functionIFvvEEE, symObjAddr: 0x38, symBinAddr: 0x4038, symSize: 0x28 }
  - { offset: 0x3F41, size: 0x8, addend: 0x0, symName: __ZN8facebook5react33BridgelessNativeMethodCallInvoker10invokeSyncERKNSt3__112basic_stringIcNS2_11char_traitsIcEENS2_9allocatorIcEEEEONS2_8functionIFvvEEE, symObjAddr: 0x70, symBinAddr: 0x4070, symSize: 0x14 }
  - { offset: 0x3FE5, size: 0x8, addend: 0x0, symName: __ZN8facebook5react33BridgelessNativeMethodCallInvokerD1Ev, symObjAddr: 0x84, symBinAddr: 0x4084, symSize: 0x30 }
  - { offset: 0x404B, size: 0x8, addend: 0x0, symName: __ZNSt3__110shared_ptrIN8facebook5react18MessageQueueThreadEED2B8ne200100Ev, symObjAddr: 0xE4, symBinAddr: 0x40E4, symSize: 0x58 }
  - { offset: 0x40F5, size: 0x8, addend: 0x0, symName: __ZN8facebook5react33BridgelessNativeMethodCallInvokerD0Ev, symObjAddr: 0xB4, symBinAddr: 0x40B4, symSize: 0x30 }
  - { offset: 0x1137C, size: 0x8, addend: 0x0, symName: __ZNSt3__117__floyd_sift_downB8ne200100INS_17_ClassicAlgPolicyERNS_4lessIN8facebook5react23BufferedRuntimeExecutor12BufferedWorkEEENS_11__wrap_iterIPS6_EEEET1_SC_OT0_NS_15iterator_traitsISC_E15difference_typeE, symObjAddr: 0xD34, symBinAddr: 0x4DFC, symSize: 0xA0 }
  - { offset: 0x116EB, size: 0x8, addend: 0x0, symName: __ZNSt3__19__sift_upB8ne200100INS_17_ClassicAlgPolicyERNS_4lessIN8facebook5react23BufferedRuntimeExecutor12BufferedWorkEEENS_11__wrap_iterIPS6_EEEEvT1_SC_OT0_NS_15iterator_traitsISC_E15difference_typeE, symObjAddr: 0x924, symBinAddr: 0x4A50, symSize: 0x130 }
  - { offset: 0x11AB4, size: 0x8, addend: 0x0, symName: __ZNSt3__125__throw_bad_function_callB8ne200100Ev, symObjAddr: 0x448, symBinAddr: 0x4584, symSize: 0x34 }
  - { offset: 0x11B7D, size: 0x8, addend: 0x0, symName: __ZNSt3__110__pop_heapB8ne200100INS_17_ClassicAlgPolicyENS_4lessIN8facebook5react23BufferedRuntimeExecutor12BufferedWorkEEENS_11__wrap_iterIPS6_EEEEvT1_SB_RT0_NS_15iterator_traitsISB_E15difference_typeE, symObjAddr: 0xBA8, symBinAddr: 0x4C70, symSize: 0x18C }
  - { offset: 0x12199, size: 0x8, addend: 0x0, symName: __ZNSt3__119__allocate_at_leastB8ne200100INS_9allocatorIN8facebook5react23BufferedRuntimeExecutor12BufferedWorkEEEEENS_19__allocation_resultINS_16allocator_traitsIT_E7pointerEEERS9_m, symObjAddr: 0x6AC, symBinAddr: 0x47D8, symSize: 0x44 }
  - { offset: 0x12241, size: 0x8, addend: 0x0, symName: __ZSt28__throw_bad_array_new_lengthB8ne200100v, symObjAddr: 0x6F0, symBinAddr: 0x481C, symSize: 0x28 }
  - { offset: 0x12255, size: 0x8, addend: 0x0, symName: __ZNSt3__134__uninitialized_allocator_relocateB8ne200100INS_9allocatorIN8facebook5react23BufferedRuntimeExecutor12BufferedWorkEEEPS5_EEvRT_T0_SA_SA_, symObjAddr: 0x718, symBinAddr: 0x4844, symSize: 0xD8 }
  - { offset: 0x125ED, size: 0x8, addend: 0x0, symName: __ZNSt3__120__throw_length_errorB8ne200100EPKc, symObjAddr: 0x638, symBinAddr: 0x4764, symSize: 0x50 }
  - { offset: 0x136D9, size: 0x8, addend: 0x0, symName: __ZSt28__throw_bad_array_new_lengthB8ne200100v, symObjAddr: 0x6F0, symBinAddr: 0x481C, symSize: 0x28 }
  - { offset: 0x142DB, size: 0x8, addend: 0x0, symName: __ZN8facebook5react23BufferedRuntimeExecutorC2ENSt3__18functionIFvONS3_IFvRNS_3jsi7RuntimeEEEEEEE, symObjAddr: 0x0, symBinAddr: 0x413C, symSize: 0x3C }
  - { offset: 0x145BA, size: 0x8, addend: 0x0, symName: __ZNSt3__110__function12__value_funcIFvONS_8functionIFvRN8facebook3jsi7RuntimeEEEEEEC2B8ne200100ERKSB_, symObjAddr: 0x3E4, symBinAddr: 0x4520, symSize: 0x64 }
  - { offset: 0x1463C, size: 0x8, addend: 0x0, symName: __ZN8facebook5react23BufferedRuntimeExecutorC1ENSt3__18functionIFvONS3_IFvRNS_3jsi7RuntimeEEEEEEE, symObjAddr: 0x3C, symBinAddr: 0x4178, symSize: 0x3C }
  - { offset: 0x14C26, size: 0x8, addend: 0x0, symName: __ZN8facebook5react23BufferedRuntimeExecutor7executeEONSt3__18functionIFvRNS_3jsi7RuntimeEEEE, symObjAddr: 0x78, symBinAddr: 0x41B4, symSize: 0x1B8 }
  - { offset: 0x151C9, size: 0x8, addend: 0x0, symName: __ZNSt3__110__function12__value_funcIFvRN8facebook3jsi7RuntimeEEEC2B8ne200100EOS7_, symObjAddr: 0xAE0, symBinAddr: 0x4C0C, symSize: 0x64 }
  - { offset: 0x15216, size: 0x8, addend: 0x0, symName: __ZNSt3__16vectorIN8facebook5react23BufferedRuntimeExecutor12BufferedWorkENS_9allocatorIS4_EEE9push_backB8ne200100EOS4_, symObjAddr: 0x494, symBinAddr: 0x45D0, symSize: 0x50 }
  - { offset: 0x153E6, size: 0x8, addend: 0x0, symName: __ZN8facebook5react23BufferedRuntimeExecutor11unsafeFlushEv, symObjAddr: 0x230, symBinAddr: 0x436C, symSize: 0x168 }
  - { offset: 0x15A26, size: 0x8, addend: 0x0, symName: __ZN8facebook5react23BufferedRuntimeExecutor5flushEv, symObjAddr: 0x398, symBinAddr: 0x44D4, symSize: 0x4C }
  - { offset: 0x15BC9, size: 0x8, addend: 0x0, symName: __ZNSt3__117bad_function_callD1Ev, symObjAddr: 0x47C, symBinAddr: 0x45B8, symSize: 0x4 }
  - { offset: 0x15BEB, size: 0x8, addend: 0x0, symName: __ZNSt3__117bad_function_callD1Ev, symObjAddr: 0x47C, symBinAddr: 0x45B8, symSize: 0x4 }
  - { offset: 0x15C1C, size: 0x8, addend: 0x0, symName: __ZNSt3__117bad_function_callD0Ev, symObjAddr: 0x480, symBinAddr: 0x45BC, symSize: 0x14 }
  - { offset: 0x15D94, size: 0x8, addend: 0x0, symName: __ZNSt3__16vectorIN8facebook5react23BufferedRuntimeExecutor12BufferedWorkENS_9allocatorIS4_EEE24__emplace_back_slow_pathIJS4_EEEPS4_DpOT_, symObjAddr: 0x4E4, symBinAddr: 0x4620, symSize: 0x130 }
  - { offset: 0x16269, size: 0x8, addend: 0x0, symName: __ZNSt3__114__split_bufferIN8facebook5react23BufferedRuntimeExecutor12BufferedWorkERNS_9allocatorIS4_EEED2Ev, symObjAddr: 0x884, symBinAddr: 0x49B0, symSize: 0x30 }
  - { offset: 0x16324, size: 0x8, addend: 0x0, symName: __ZNSt3__16vectorIN8facebook5react23BufferedRuntimeExecutor12BufferedWorkENS_9allocatorIS4_EEE20__throw_length_errorB8ne200100Ev, symObjAddr: 0x614, symBinAddr: 0x4750, symSize: 0x14 }
  - { offset: 0x16345, size: 0x8, addend: 0x0, symName: __ZNSt12length_errorC1B8ne200100EPKc, symObjAddr: 0x688, symBinAddr: 0x47B4, symSize: 0x24 }
  - { offset: 0x16468, size: 0x8, addend: 0x0, symName: __ZNSt3__128__exception_guard_exceptionsINS_29_AllocatorDestroyRangeReverseINS_9allocatorIN8facebook5react23BufferedRuntimeExecutor12BufferedWorkEEEPS6_EEED2B8ne200100Ev, symObjAddr: 0x7F0, symBinAddr: 0x491C, symSize: 0x34 }
  - { offset: 0x164A7, size: 0x8, addend: 0x0, symName: __ZNKSt3__129_AllocatorDestroyRangeReverseINS_9allocatorIN8facebook5react23BufferedRuntimeExecutor12BufferedWorkEEEPS5_EclB8ne200100Ev, symObjAddr: 0x824, symBinAddr: 0x4950, symSize: 0x60 }
  - { offset: 0x1662D, size: 0x8, addend: 0x0, symName: __ZNSt3__114__split_bufferIN8facebook5react23BufferedRuntimeExecutor12BufferedWorkERNS_9allocatorIS4_EEE5clearB8ne200100Ev, symObjAddr: 0x8B4, symBinAddr: 0x49E0, symSize: 0x70 }
  - { offset: 0x1689E, size: 0x8, addend: 0x0, symName: __ZNSt3__110__function12__value_funcIFvRN8facebook3jsi7RuntimeEEEaSB8ne200100EOS7_, symObjAddr: 0xA54, symBinAddr: 0x4B80, symSize: 0x8C }
  - { offset: 0x21134, size: 0x8, addend: 0x0, symName: __ZN8facebook5react39LegacyUIManagerConstantsProviderBinding7installERNS_3jsi7RuntimeERKNSt3__112basic_stringIcNS5_11char_traitsIcEENS5_9allocatorIcEEEEONS5_8functionIFNS2_5ValueES4_EEE, symObjAddr: 0x0, symBinAddr: 0x4E9C, symSize: 0x398 }
  - { offset: 0x222AF, size: 0x8, addend: 0x0, symName: __ZN8facebook5react39LegacyUIManagerConstantsProviderBinding7installERNS_3jsi7RuntimeERKNSt3__112basic_stringIcNS5_11char_traitsIcEENS5_9allocatorIcEEEEONS5_8functionIFNS2_5ValueES4_SD_EEE, symObjAddr: 0x43C, symBinAddr: 0x52D8, symSize: 0x398 }
  - { offset: 0x2413E, size: 0x8, addend: 0x0, symName: __ZNSt3__110__function12__value_funcIFN8facebook3jsi5ValueERNS3_7RuntimeEEEC2B8ne200100EOS8_, symObjAddr: 0x998, symBinAddr: 0x56E8, symSize: 0x64 }
  - { offset: 0x2418A, size: 0x8, addend: 0x0, symName: __ZNSt3__110__function12__value_funcIFN8facebook3jsi5ValueERNS3_7RuntimeERKS4_PS7_mEEC2B8ne200100EOSB_, symObjAddr: 0x86C, symBinAddr: 0x5684, symSize: 0x64 }
  - { offset: 0x241D7, size: 0x8, addend: 0x0, symName: __ZNK8facebook3jsi6Object11setPropertyIRNS0_8FunctionEEEvRNS0_7RuntimeEPKcOT_, symObjAddr: 0x398, symBinAddr: 0x5234, symSize: 0xA4 }
  - { offset: 0x24447, size: 0x8, addend: 0x0, symName: __ZNK8facebook3jsi6Object11setPropertyIRNS0_8FunctionEEEvRNS0_7RuntimeERKNS0_6StringEOT_, symObjAddr: 0xE3C, symBinAddr: 0x5B40, symSize: 0x90 }
  - { offset: 0x24A94, size: 0x8, addend: 0x0, symName: __ZNSt3__110__function12__value_funcIFN8facebook3jsi5ValueERNS3_7RuntimeERKNS_12basic_stringIcNS_11char_traitsIcEENS_9allocatorIcEEEEEEC2B8ne200100EOSG_, symObjAddr: 0xECC, symBinAddr: 0x5BD0, symSize: 0x64 }
  - { offset: 0x24AE1, size: 0x8, addend: 0x0, symName: __ZNSt3__112basic_stringIcNS_11char_traitsIcEENS_9allocatorIcEEE20__throw_length_errorB8ne200100Ev, symObjAddr: 0x7D4, symBinAddr: 0x5670, symSize: 0x14 }
  - { offset: 0x24C1B, size: 0x8, addend: 0x0, symName: '__ZNSt3__110__function6__funcIZN8facebook5react39LegacyUIManagerConstantsProviderBinding7installERNS2_3jsi7RuntimeERKNS_12basic_stringIcNS_11char_traitsIcEENS_9allocatorIcEEEEONS_8functionIFNS5_5ValueES7_EEEE3$_0NSB_ISL_EEFSH_S7_RKSH_PSN_mEED1Ev', symObjAddr: 0x9FC, symBinAddr: 0x574C, symSize: 0x58 }
  - { offset: 0x24D76, size: 0x8, addend: 0x0, symName: '__ZNSt3__110__function6__funcIZN8facebook5react39LegacyUIManagerConstantsProviderBinding7installERNS2_3jsi7RuntimeERKNS_12basic_stringIcNS_11char_traitsIcEENS_9allocatorIcEEEEONS_8functionIFNS5_5ValueES7_EEEE3$_0NSB_ISL_EEFSH_S7_RKSH_PSN_mEED0Ev', symObjAddr: 0xA54, symBinAddr: 0x57A4, symSize: 0x58 }
  - { offset: 0x250A7, size: 0x8, addend: 0x0, symName: '__ZNKSt3__110__function6__funcIZN8facebook5react39LegacyUIManagerConstantsProviderBinding7installERNS2_3jsi7RuntimeERKNS_12basic_stringIcNS_11char_traitsIcEENS_9allocatorIcEEEEONS_8functionIFNS5_5ValueES7_EEEE3$_0NSB_ISL_EEFSH_S7_RKSH_PSN_mEE7__cloneEv', symObjAddr: 0xAAC, symBinAddr: 0x57FC, symSize: 0x54 }
  - { offset: 0x25404, size: 0x8, addend: 0x0, symName: '__ZNKSt3__110__function6__funcIZN8facebook5react39LegacyUIManagerConstantsProviderBinding7installERNS2_3jsi7RuntimeERKNS_12basic_stringIcNS_11char_traitsIcEENS_9allocatorIcEEEEONS_8functionIFNS5_5ValueES7_EEEE3$_0NSB_ISL_EEFSH_S7_RKSH_PSN_mEE7__cloneEPNS0_6__baseISQ_EE', symObjAddr: 0xB00, symBinAddr: 0x5850, symSize: 0x1C }
  - { offset: 0x25554, size: 0x8, addend: 0x0, symName: '__ZNSt3__110__function6__funcIZN8facebook5react39LegacyUIManagerConstantsProviderBinding7installERNS2_3jsi7RuntimeERKNS_12basic_stringIcNS_11char_traitsIcEENS_9allocatorIcEEEEONS_8functionIFNS5_5ValueES7_EEEE3$_0NSB_ISL_EEFSH_S7_RKSH_PSN_mEE7destroyEv', symObjAddr: 0xB1C, symBinAddr: 0x586C, symSize: 0x30 }
  - { offset: 0x2565C, size: 0x8, addend: 0x0, symName: '__ZNSt3__110__function6__funcIZN8facebook5react39LegacyUIManagerConstantsProviderBinding7installERNS2_3jsi7RuntimeERKNS_12basic_stringIcNS_11char_traitsIcEENS_9allocatorIcEEEEONS_8functionIFNS5_5ValueES7_EEEE3$_0NSB_ISL_EEFSH_S7_RKSH_PSN_mEE18destroy_deallocateEv', symObjAddr: 0xB4C, symBinAddr: 0x589C, symSize: 0x4C }
  - { offset: 0x25932, size: 0x8, addend: 0x0, symName: '__ZNSt3__110__function6__funcIZN8facebook5react39LegacyUIManagerConstantsProviderBinding7installERNS2_3jsi7RuntimeERKNS_12basic_stringIcNS_11char_traitsIcEENS_9allocatorIcEEEEONS_8functionIFNS5_5ValueES7_EEEE3$_0NSB_ISL_EEFSH_S7_RKSH_PSN_mEEclES7_SO_OSP_Om', symObjAddr: 0xB98, symBinAddr: 0x58E8, symSize: 0xAC }
  - { offset: 0x25B36, size: 0x8, addend: 0x0, symName: __ZN8facebook3jsi7JSErrorC1ERNS0_7RuntimeEPKc, symObjAddr: 0xC8C, symBinAddr: 0x59DC, symSize: 0x74 }
  - { offset: 0x25DD2, size: 0x8, addend: 0x0, symName: '__ZNKSt3__110__function6__funcIZN8facebook5react39LegacyUIManagerConstantsProviderBinding7installERNS2_3jsi7RuntimeERKNS_12basic_stringIcNS_11char_traitsIcEENS_9allocatorIcEEEEONS_8functionIFNS5_5ValueES7_EEEE3$_0NSB_ISL_EEFSH_S7_RKSH_PSN_mEE6targetERKSt9type_info', symObjAddr: 0xC44, symBinAddr: 0x5994, symSize: 0x3C }
  - { offset: 0x25E1F, size: 0x8, addend: 0x0, symName: __ZNKSt9type_infoeqB8ne200100ERKS_, symObjAddr: 0xDF0, symBinAddr: 0x5AF4, symSize: 0x4C }
  - { offset: 0x25EBC, size: 0x8, addend: 0x0, symName: '__ZNKSt3__110__function6__funcIZN8facebook5react39LegacyUIManagerConstantsProviderBinding7installERNS2_3jsi7RuntimeERKNS_12basic_stringIcNS_11char_traitsIcEENS_9allocatorIcEEEEONS_8functionIFNS5_5ValueES7_EEEE3$_0NSB_ISL_EEFSH_S7_RKSH_PSN_mEE11target_typeEv', symObjAddr: 0xC80, symBinAddr: 0x59D0, symSize: 0xC }
  - { offset: 0x25F0D, size: 0x8, addend: 0x0, symName: __ZNSt3__112basic_stringIcNS_11char_traitsIcEENS_9allocatorIcEEEC2B8ne200100ILi0EEEPKc, symObjAddr: 0xD00, symBinAddr: 0x5A50, symSize: 0xA4 }
  - { offset: 0x264BF, size: 0x8, addend: 0x0, symName: '__ZNSt3__110__function6__funcIZN8facebook5react39LegacyUIManagerConstantsProviderBinding7installERNS2_3jsi7RuntimeERKNS_12basic_stringIcNS_11char_traitsIcEENS_9allocatorIcEEEEONS_8functionIFNS5_5ValueES7_SF_EEEE3$_0NSB_ISL_EEFSH_S7_RKSH_PSN_mEED1Ev', symObjAddr: 0xF30, symBinAddr: 0x5C34, symSize: 0x58 }
  - { offset: 0x2661A, size: 0x8, addend: 0x0, symName: '__ZNSt3__110__function6__funcIZN8facebook5react39LegacyUIManagerConstantsProviderBinding7installERNS2_3jsi7RuntimeERKNS_12basic_stringIcNS_11char_traitsIcEENS_9allocatorIcEEEEONS_8functionIFNS5_5ValueES7_SF_EEEE3$_0NSB_ISL_EEFSH_S7_RKSH_PSN_mEED0Ev', symObjAddr: 0xF88, symBinAddr: 0x5C8C, symSize: 0x58 }
  - { offset: 0x2694B, size: 0x8, addend: 0x0, symName: '__ZNKSt3__110__function6__funcIZN8facebook5react39LegacyUIManagerConstantsProviderBinding7installERNS2_3jsi7RuntimeERKNS_12basic_stringIcNS_11char_traitsIcEENS_9allocatorIcEEEEONS_8functionIFNS5_5ValueES7_SF_EEEE3$_0NSB_ISL_EEFSH_S7_RKSH_PSN_mEE7__cloneEv', symObjAddr: 0xFE0, symBinAddr: 0x5CE4, symSize: 0x54 }
  - { offset: 0x26CA8, size: 0x8, addend: 0x0, symName: '__ZNKSt3__110__function6__funcIZN8facebook5react39LegacyUIManagerConstantsProviderBinding7installERNS2_3jsi7RuntimeERKNS_12basic_stringIcNS_11char_traitsIcEENS_9allocatorIcEEEEONS_8functionIFNS5_5ValueES7_SF_EEEE3$_0NSB_ISL_EEFSH_S7_RKSH_PSN_mEE7__cloneEPNS0_6__baseISQ_EE', symObjAddr: 0x1034, symBinAddr: 0x5D38, symSize: 0x1C }
  - { offset: 0x26DF8, size: 0x8, addend: 0x0, symName: '__ZNSt3__110__function6__funcIZN8facebook5react39LegacyUIManagerConstantsProviderBinding7installERNS2_3jsi7RuntimeERKNS_12basic_stringIcNS_11char_traitsIcEENS_9allocatorIcEEEEONS_8functionIFNS5_5ValueES7_SF_EEEE3$_0NSB_ISL_EEFSH_S7_RKSH_PSN_mEE7destroyEv', symObjAddr: 0x1050, symBinAddr: 0x5D54, symSize: 0x30 }
  - { offset: 0x26F00, size: 0x8, addend: 0x0, symName: '__ZNSt3__110__function6__funcIZN8facebook5react39LegacyUIManagerConstantsProviderBinding7installERNS2_3jsi7RuntimeERKNS_12basic_stringIcNS_11char_traitsIcEENS_9allocatorIcEEEEONS_8functionIFNS5_5ValueES7_SF_EEEE3$_0NSB_ISL_EEFSH_S7_RKSH_PSN_mEE18destroy_deallocateEv', symObjAddr: 0x1080, symBinAddr: 0x5D84, symSize: 0x4C }
  - { offset: 0x2722A, size: 0x8, addend: 0x0, symName: '__ZNSt3__110__function6__funcIZN8facebook5react39LegacyUIManagerConstantsProviderBinding7installERNS2_3jsi7RuntimeERKNS_12basic_stringIcNS_11char_traitsIcEENS_9allocatorIcEEEEONS_8functionIFNS5_5ValueES7_SF_EEEE3$_0NSB_ISL_EEFSH_S7_RKSH_PSN_mEEclES7_SO_OSP_Om', symObjAddr: 0x10CC, symBinAddr: 0x5DD0, symSize: 0x18C }
  - { offset: 0x27706, size: 0x8, addend: 0x0, symName: '__ZNKSt3__110__function6__funcIZN8facebook5react39LegacyUIManagerConstantsProviderBinding7installERNS2_3jsi7RuntimeERKNS_12basic_stringIcNS_11char_traitsIcEENS_9allocatorIcEEEEONS_8functionIFNS5_5ValueES7_SF_EEEE3$_0NSB_ISL_EEFSH_S7_RKSH_PSN_mEE6targetERKSt9type_info', symObjAddr: 0x1258, symBinAddr: 0x5F5C, symSize: 0x3C }
  - { offset: 0x27753, size: 0x8, addend: 0x0, symName: '__ZNKSt3__110__function6__funcIZN8facebook5react39LegacyUIManagerConstantsProviderBinding7installERNS2_3jsi7RuntimeERKNS_12basic_stringIcNS_11char_traitsIcEENS_9allocatorIcEEEEONS_8functionIFNS5_5ValueES7_SF_EEEE3$_0NSB_ISL_EEFSH_S7_RKSH_PSN_mEE11target_typeEv', symObjAddr: 0x1294, symBinAddr: 0x5F98, symSize: 0xC }
  - { offset: 0x52DAE, size: 0x8, addend: 0x0, symName: __ZNSt3__124__put_character_sequenceB8ne200100IcNS_11char_traitsIcEEEERNS_13basic_ostreamIT_T0_EES7_PKS4_m, symObjAddr: 0x2078, symBinAddr: 0x7E48, symSize: 0x168 }
  - { offset: 0x603D1, size: 0x8, addend: 0x0, symName: __ZNSt3__115allocate_sharedB8ne200100IN8facebook5react14JsErrorHandlerENS_9allocatorIS3_EEJNS_8functionIFvRNS1_3jsi7RuntimeERKNS3_14ProcessedErrorEEEEELi0EEENS_10shared_ptrIT_EERKT0_DpOT1_, symObjAddr: 0x247C, symBinAddr: 0x81F4, symSize: 0x58 }
  - { offset: 0x6064E, size: 0x8, addend: 0x0, symName: __ZNSt3__115allocate_sharedB8ne200100IN8facebook5react23BufferedRuntimeExecutorENS_9allocatorIS3_EEJRNS_8functionIFvONS6_IFvRNS1_3jsi7RuntimeEEEEEEEELi0EEENS_10shared_ptrIT_EERKT0_DpOT1_, symObjAddr: 0x469C, symBinAddr: 0x9ED0, symSize: 0x58 }
  - { offset: 0x6095A, size: 0x8, addend: 0x0, symName: __ZNSt3__115allocate_sharedB8ne200100IN8facebook5react16RuntimeSchedulerENS_9allocatorIS3_EEJRNS_8functionIFvONS6_IFvRNS1_3jsi7RuntimeEEEEEEERDoFNS2_16HighResTimeStampEvERNS6_IFvS9_RNS7_7JSErrorEEEEELi0EEENS_10shared_ptrIT_EERKT0_DpOT1_, symObjAddr: 0x1B0C, symBinAddr: 0x7A3C, symSize: 0x70 }
  - { offset: 0x62EE8, size: 0x8, addend: 0x0, symName: __ZNSt3__112construct_atB8ne200100IN8facebook5react16RuntimeSchedulerEJRNS_8functionIFvONS4_IFvRNS1_3jsi7RuntimeEEEEEEERDoFNS2_16HighResTimeStampEvERNS4_IFvS7_RNS5_7JSErrorEEEEEPS3_EEPT_SO_DpOT0_, symObjAddr: 0x1C4C, symBinAddr: 0x7B54, symSize: 0x1C4 }
  - { offset: 0x63D5E, size: 0x8, addend: 0x0, symName: __ZNSt3__116__pad_and_outputB8ne200100IcNS_11char_traitsIcEEEENS_19ostreambuf_iteratorIT_T0_EES6_PKS4_S8_S8_RNS_8ios_baseES4_, symObjAddr: 0x21E0, symBinAddr: 0x7FB0, symSize: 0x13C }
  - { offset: 0x647C4, size: 0x8, addend: 0x0, symName: __ZNSt3__112construct_atB8ne200100IN8facebook5react14JsErrorHandlerEJNS_8functionIFvRNS1_3jsi7RuntimeERKNS3_14ProcessedErrorEEEEEPS3_EEPT_SF_DpOT0_, symObjAddr: 0x2564, symBinAddr: 0x82DC, symSize: 0xC8 }
  - { offset: 0x64B0F, size: 0x8, addend: 0x0, symName: __ZNSt3__112__destroy_atB8ne200100INS_4pairIKNS_12basic_stringIcNS_11char_traitsIcEENS_9allocatorIcEEEENS_7variantIJN8facebook3jsi8FunctionENSB_6ObjectEEEEEELi0EEEvPT_, symObjAddr: 0x28BC, symBinAddr: 0x847C, symSize: 0x3C }
  - { offset: 0x658EF, size: 0x8, addend: 0x0, symName: __ZNSt3__1plB8ne200100IcNS_11char_traitsIcEENS_9allocatorIcEEEENS_12basic_stringIT_T0_T1_EEOS9_PKS6_, symObjAddr: 0x3570, symBinAddr: 0x90CC, symSize: 0x5C }
  - { offset: 0x65AEF, size: 0x8, addend: 0x0, symName: __ZNSt3__117__call_once_proxyB8ne200100INS_5tupleIJOZN8facebook5react8systraceL31getOrCreateInstrumentsLogHandleEvEUlvE_EEEEEvPv, symObjAddr: 0x3748, symBinAddr: 0x92A4, symSize: 0x40 }
  - { offset: 0x6688B, size: 0x8, addend: 0x0, symName: __ZNSt3__120__throw_bad_weak_ptrB8ne200100Ev, symObjAddr: 0x45AC, symBinAddr: 0x9E9C, symSize: 0x34 }
  - { offset: 0x669A6, size: 0x8, addend: 0x0, symName: __ZNSt3__112construct_atB8ne200100IN8facebook5react23BufferedRuntimeExecutorEJRNS_8functionIFvONS4_IFvRNS1_3jsi7RuntimeEEEEEEEEPS3_EEPT_SG_DpOT0_, symObjAddr: 0x4784, symBinAddr: 0x9FB8, symSize: 0xD0 }
  - { offset: 0x66B9A, size: 0x8, addend: 0x0, symName: __ZNSt3__112__destroy_atB8ne200100IN8facebook5react23BufferedRuntimeExecutorELi0EEEvPT_, symObjAddr: 0x4854, symBinAddr: 0xA088, symSize: 0x64 }
  - { offset: 0x6864C, size: 0x8, addend: 0x0, symName: __ZNSt3__126__throw_bad_variant_accessB8ne200100Ev, symObjAddr: 0x79A8, symBinAddr: 0xD050, symSize: 0x34 }
  - { offset: 0x68937, size: 0x8, addend: 0x0, symName: __ZNSt3__135__uninitialized_allocator_copy_implB8ne200100INS_9allocatorINS_12basic_stringIcNS_11char_traitsIcEENS1_IcEEEEEEPKS6_S9_PS6_EET2_RT_T0_T1_SB_, symObjAddr: 0x6F58, symBinAddr: 0xC600, symSize: 0xBC }
  - { offset: 0x68BB9, size: 0x8, addend: 0x0, symName: __ZNSt3__119__allocate_at_leastB8ne200100INS_9allocatorINS_12basic_stringIcNS_11char_traitsIcEENS1_IcEEEEEEEENS_19__allocation_resultINS_16allocator_traitsIT_E7pointerEEERSA_m, symObjAddr: 0x6F14, symBinAddr: 0xC5BC, symSize: 0x44 }
  - { offset: 0x68C61, size: 0x8, addend: 0x0, symName: __ZNSt3__135__uninitialized_allocator_copy_implB8ne200100INS_9allocatorINS_12basic_stringIcNS_11char_traitsIcEENS1_IcEEEEEEPKS6_S9_PS6_EET2_RT_T0_T1_SB_, symObjAddr: 0x6F58, symBinAddr: 0xC600, symSize: 0xBC }
  - { offset: 0x69113, size: 0x8, addend: 0x0, symName: __ZNSt3__119__allocate_at_leastB8ne200100INS_9allocatorIN8facebook3jsi5ValueEEEEENS_19__allocation_resultINS_16allocator_traitsIT_E7pointerEEERS8_m, symObjAddr: 0x7C2C, symBinAddr: 0xD224, symSize: 0x34 }
  - { offset: 0x691BB, size: 0x8, addend: 0x0, symName: __ZNSt3__134__uninitialized_allocator_relocateB8ne200100INS_9allocatorIN8facebook3jsi5ValueEEEPS4_EEvRT_T0_S9_S9_, symObjAddr: 0x7C60, symBinAddr: 0xD258, symSize: 0x68 }
  - { offset: 0x691CF, size: 0x8, addend: 0x0, symName: __ZNSt3__134__uninitialized_allocator_relocateB8ne200100INS_9allocatorIN8facebook3jsi5ValueEEEPS4_EEvRT_T0_S9_S9_, symObjAddr: 0x7C60, symBinAddr: 0xD258, symSize: 0x68 }
  - { offset: 0x6922E, size: 0x8, addend: 0x0, symName: __ZNSt3__134__uninitialized_allocator_relocateB8ne200100INS_9allocatorIN8facebook3jsi5ValueEEEPS4_EEvRT_T0_S9_S9_, symObjAddr: 0x7C60, symBinAddr: 0xD258, symSize: 0x68 }
  - { offset: 0x7098A, size: 0x8, addend: 0x0, symName: __ZZN8facebook5react8systraceL31getOrCreateInstrumentsLogHandleEvE4flag, symObjAddr: 0x2DEC60, symBinAddr: 0x240E8, symSize: 0x0 }
  - { offset: 0x709B7, size: 0x8, addend: 0x0, symName: __ZN8facebook5react8systrace20instrumentsLogHandleE, symObjAddr: 0x10B80, symBinAddr: 0x240E0, symSize: 0x0 }
  - { offset: 0x721B7, size: 0x8, addend: 0x0, symName: __ZN8facebook5react18jsinspector_modern18makeScopedExecutorINS1_10HostTargetEEENSt3__18functionIFvONS5_IFvRT_EEEEEENS4_10shared_ptrIS6_EENS5_IFvONS5_IFvvEEEEEE, symObjAddr: 0x3A1C, symBinAddr: 0x9424, symSize: 0xE8 }
  - { offset: 0x74431, size: 0x8, addend: 0x0, symName: __ZN8facebook5react12_GLOBAL__N_122createRuntimeSchedulerENSt3__18functionIFvONS3_IFvRNS_3jsi7RuntimeEEEEEEENS3_IFvS6_RNS4_7JSErrorEEEE, symObjAddr: 0xAA8, symBinAddr: 0x6A4C, symSize: 0x64 }
  - { offset: 0x7458D, size: 0x8, addend: 0x0, symName: __ZN8facebook5react12_GLOBAL__N_18isTruthyERNS_3jsi7RuntimeERKNS2_5ValueE, symObjAddr: 0xA1BC, symBinAddr: 0xF6DC, symSize: 0x14C }
  - { offset: 0x76CD4, size: 0x8, addend: 0x0, symName: __ZN8facebook5react12TraceSectionC2IJEEEPKcDpOT_, symObjAddr: 0x35CC, symBinAddr: 0x9128, symSize: 0x17C }
  - { offset: 0x7729C, size: 0x8, addend: 0x0, symName: __ZN8facebook5react12TraceSectionD2Ev, symObjAddr: 0x38F0, symBinAddr: 0x935C, symSize: 0xC8 }
  - { offset: 0x77496, size: 0x8, addend: 0x0, symName: __ZN8facebook5react12TraceSectionC2IJRA11_KcRKNSt3__112basic_stringIcNS6_11char_traitsIcEENS6_9allocatorIcEEEES5_SE_EEEPS3_DpOT_, symObjAddr: 0x67D4, symBinAddr: 0xBE90, symSize: 0x490 }
  - { offset: 0x7B25C, size: 0x8, addend: 0x0, symName: __ZN5folly6detail16throw_exception_INS_9TypeErrorEJPKcNS_7dynamic4TypeEEEEvDpT0_, symObjAddr: 0x7A38, symBinAddr: 0x14CF8, symSize: 0x68 }
  - { offset: 0x7C2DD, size: 0x8, addend: 0x0, symName: __ZN5folly15throw_exceptionINS_9TypeErrorEEEvOT_, symObjAddr: 0x7AA0, symBinAddr: 0x14D60, symSize: 0x34 }
  - { offset: 0x7FFB9, size: 0x8, addend: 0x0, symName: __ZN8facebook5react13ReactInstanceC1ENSt3__110unique_ptrINS0_9JSRuntimeENS2_14default_deleteIS4_EEEENS2_10shared_ptrINS0_18MessageQueueThreadEEENS8_INS0_12TimerManagerEEENS2_8functionIFvRNS_3jsi7RuntimeERKNS0_14JsErrorHandler14ProcessedErrorEEEEPNS0_18jsinspector_modern10HostTargetE, symObjAddr: 0xBD4, symBinAddr: 0x6B14, symSize: 0x4 }
  - { offset: 0x801DA, size: 0x8, addend: 0x0, symName: __ZN8facebook5react13ReactInstanceC1ENSt3__110unique_ptrINS0_9JSRuntimeENS2_14default_deleteIS4_EEEENS2_10shared_ptrINS0_18MessageQueueThreadEEENS8_INS0_12TimerManagerEEENS2_8functionIFvRNS_3jsi7RuntimeERKNS0_14JsErrorHandler14ProcessedErrorEEEEPNS0_18jsinspector_modern10HostTargetE, symObjAddr: 0xBD4, symBinAddr: 0x6B14, symSize: 0x4 }
  - { offset: 0x80400, size: 0x8, addend: 0x0, symName: __ZZN8facebook5react18jsinspector_modern18makeScopedExecutorINS1_10HostTargetEEENSt3__18functionIFvONS5_IFvRT_EEEEEENS4_10shared_ptrIS6_EENS5_IFvONS5_IFvvEEEEEEENKUlOS6_E_clINS5_IFvRS3_EEEEEDaSK_, symObjAddr: 0x3F24, symBinAddr: 0x992C, symSize: 0x188 }
  - { offset: 0x80B54, size: 0x8, addend: 0x0, symName: __ZN8facebook5react13ReactInstanceC2ENSt3__110unique_ptrINS0_9JSRuntimeENS2_14default_deleteIS4_EEEENS2_10shared_ptrINS0_18MessageQueueThreadEEENS8_INS0_12TimerManagerEEENS2_8functionIFvRNS_3jsi7RuntimeERKNS0_14JsErrorHandler14ProcessedErrorEEEEPNS0_18jsinspector_modern10HostTargetE, symObjAddr: 0x0, symBinAddr: 0x5FA4, symSize: 0x930 }
  - { offset: 0x83AA2, size: 0x8, addend: 0x0, symName: __ZN8facebook5react13ReactInstance28getUnbufferedRuntimeExecutorEv, symObjAddr: 0xC14, symBinAddr: 0x6B54, symSize: 0x18 }
  - { offset: 0x83AF1, size: 0x8, addend: 0x0, symName: __ZN8facebook5react13ReactInstance28getUnbufferedRuntimeExecutorEv, symObjAddr: 0xC14, symBinAddr: 0x6B54, symSize: 0x18 }
  - { offset: 0x83C3A, size: 0x8, addend: 0x0, symName: __ZN8facebook5react13ReactInstance26getBufferedRuntimeExecutorEv, symObjAddr: 0xC3C, symBinAddr: 0x6B6C, symSize: 0x30 }
  - { offset: 0x83CBA, size: 0x8, addend: 0x0, symName: __ZN8facebook5react13ReactInstance26getBufferedRuntimeExecutorEv, symObjAddr: 0xC3C, symBinAddr: 0x6B6C, symSize: 0x30 }
  - { offset: 0x83CD7, size: 0x8, addend: 0x0, symName: __ZN8facebook5react13ReactInstance26getBufferedRuntimeExecutorEv, symObjAddr: 0xC3C, symBinAddr: 0x6B6C, symSize: 0x30 }
  - { offset: 0x83F39, size: 0x8, addend: 0x0, symName: __ZN8facebook5react13ReactInstance10loadScriptENSt3__110unique_ptrIKNS0_11JSBigStringENS2_14default_deleteIS5_EEEERKNS2_12basic_stringIcNS2_11char_traitsIcEENS2_9allocatorIcEEEEONS2_8functionIFvRNS_3jsi7RuntimeEEEESN_, symObjAddr: 0xC90, symBinAddr: 0x6BC0, symSize: 0x4B8 }
  - { offset: 0x857BF, size: 0x8, addend: 0x0, symName: __ZN8facebook5react13ReactInstance20callFunctionOnModuleERKNSt3__112basic_stringIcNS2_11char_traitsIcEENS2_9allocatorIcEEEESA_ON5folly7dynamicE, symObjAddr: 0x11F4, symBinAddr: 0x7124, symSize: 0x248 }
  - { offset: 0x861EF, size: 0x8, addend: 0x0, symName: __ZN8facebook5react13ReactInstance15registerSegmentEjRKNSt3__112basic_stringIcNS2_11char_traitsIcEENS2_9allocatorIcEEEE, symObjAddr: 0x1484, symBinAddr: 0x73B4, symSize: 0x1AC }
  - { offset: 0x86A19, size: 0x8, addend: 0x0, symName: __ZN8facebook5react13ReactInstance17initializeRuntimeENS1_14JSRuntimeFlagsENSt3__18functionIFvRNS_3jsi7RuntimeEEEE, symObjAddr: 0x1630, symBinAddr: 0x7560, symSize: 0x1A8 }
  - { offset: 0x87A33, size: 0x8, addend: 0x0, symName: __ZN8facebook5react13ReactInstance22handleMemoryPressureJsEi, symObjAddr: 0x17D8, symBinAddr: 0x7708, symSize: 0x26C }
  - { offset: 0x89B82, size: 0x8, addend: 0x0, symName: __ZN8facebook5react18jsinspector_modern22EnableExecutorFromThisINS1_10HostTargetEE16executorFromThisEv, symObjAddr: 0x97C, symBinAddr: 0x6920, symSize: 0x12C }
  - { offset: 0x89E6D, size: 0x8, addend: 0x0, symName: '__ZNKSt3__110__function6__funcIZN8facebook5react13ReactInstanceC1ENS_10unique_ptrINS3_9JSRuntimeENS_14default_deleteIS6_EEEENS_10shared_ptrINS3_18MessageQueueThreadEEENSA_INS3_12TimerManagerEEENS_8functionIFvRNS2_3jsi7RuntimeERKNS3_14JsErrorHandler14ProcessedErrorEEEEPNS3_18jsinspector_modern10HostTargetEE3$_0NS_9allocatorISS_EEFvONSF_IFvSI_EEEEE7__cloneEv', symObjAddr: 0x2A24, symBinAddr: 0x85E4, symSize: 0xB0 }
  - { offset: 0x8A225, size: 0x8, addend: 0x0, symName: __ZNSt3__110shared_ptrIN8facebook5react16RuntimeSchedulerEEaSB8ne200100EOS4_, symObjAddr: 0xB0C, symBinAddr: 0x6AB0, symSize: 0x64 }
  - { offset: 0x8A4A1, size: 0x8, addend: 0x0, symName: '__ZZN8facebook5react13ReactInstanceC1ENSt3__110unique_ptrINS0_9JSRuntimeENS2_14default_deleteIS4_EEEENS2_10shared_ptrINS0_18MessageQueueThreadEEENS8_INS0_12TimerManagerEEENS2_8functionIFvRNS_3jsi7RuntimeERKNS0_14JsErrorHandler14ProcessedErrorEEEEPNS0_18jsinspector_modern10HostTargetEEN3$_0D1Ev', symObjAddr: 0x930, symBinAddr: 0x68D4, symSize: 0x4C }
  - { offset: 0x8A65A, size: 0x8, addend: 0x0, symName: __ZNSt3__112__hash_tableINS_17__hash_value_typeINS_12basic_stringIcNS_11char_traitsIcEENS_9allocatorIcEEEENS_7variantIJN8facebook3jsi8FunctionENSA_6ObjectEEEEEENS_22__unordered_map_hasherIS7_SE_NS_4hashIS7_EENS_8equal_toIS7_EELb1EEENS_21__unordered_map_equalIS7_SE_SJ_SH_Lb1EEENS5_ISE_EEED2Ev, symObjAddr: 0x2848, symBinAddr: 0x8408, symSize: 0x38 }
  - { offset: 0x8AAD4, size: 0x8, addend: 0x0, symName: __ZNSt3__110shared_ptrIN8facebook5react18jsinspector_modern10HostTargetEEC2B8ne200100IS4_Li0EEERKNS_8weak_ptrIT_EE, symObjAddr: 0x456C, symBinAddr: 0x9E5C, symSize: 0x40 }
  - { offset: 0x8AB11, size: 0x8, addend: 0x0, symName: __ZNSt3__120__throw_bad_weak_ptrB8ne200100Ev, symObjAddr: 0x45AC, symBinAddr: 0x9E9C, symSize: 0x34 }
  - { offset: 0x8AC88, size: 0x8, addend: 0x0, symName: __ZN8facebook5react13ReactInstance23unregisterFromInspectorEv, symObjAddr: 0xBD8, symBinAddr: 0x6B18, symSize: 0x3C }
  - { offset: 0x8B193, size: 0x8, addend: 0x0, symName: __ZN8facebook5react13ReactInstance19getRuntimeSchedulerEv, symObjAddr: 0xC6C, symBinAddr: 0x6B9C, symSize: 0x24 }
  - { offset: 0x8B1BB, size: 0x8, addend: 0x0, symName: __ZN8facebook5react13ReactInstance19getRuntimeSchedulerEv, symObjAddr: 0xC6C, symBinAddr: 0x6B9C, symSize: 0x24 }
  - { offset: 0x8B1E2, size: 0x8, addend: 0x0, symName: __ZN8facebook5react13ReactInstance19getRuntimeSchedulerEv, symObjAddr: 0xC6C, symBinAddr: 0x6B9C, symSize: 0x24 }
  - { offset: 0x8BD60, size: 0x8, addend: 0x0, symName: __ZNSt3__112basic_stringIcNS_11char_traitsIcEENS_9allocatorIcEEE25__init_copy_ctor_externalEPKcm, symObjAddr: 0x1FF8, symBinAddr: 0x7DC8, symSize: 0x80 }
  - { offset: 0x8BF32, size: 0x8, addend: 0x0, symName: __ZNSt3__124__put_character_sequenceB8ne200100IcNS_11char_traitsIcEEEERNS_13basic_ostreamIT_T0_EES7_PKS4_m, symObjAddr: 0x2078, symBinAddr: 0x7E48, symSize: 0x168 }
  - { offset: 0x8BFB2, size: 0x8, addend: 0x0, symName: '__ZZN8facebook5react13ReactInstance10loadScriptENSt3__110unique_ptrIKNS0_11JSBigStringENS2_14default_deleteIS5_EEEERKNS2_12basic_stringIcNS2_11char_traitsIcEENS2_9allocatorIcEEEEONS2_8functionIFvRNS_3jsi7RuntimeEEEESN_EN3$_0D1Ev', symObjAddr: 0x1148, symBinAddr: 0x7078, symSize: 0xAC }
  - { offset: 0x8C716, size: 0x8, addend: 0x0, symName: '__ZZN8facebook5react13ReactInstance20callFunctionOnModuleERKNSt3__112basic_stringIcNS2_11char_traitsIcEENS2_9allocatorIcEEEESA_ON5folly7dynamicEEN3$_0D1Ev', symObjAddr: 0x143C, symBinAddr: 0x736C, symSize: 0x48 }
  - { offset: 0x8D3C7, size: 0x8, addend: 0x0, symName: __ZN8facebook5react13ReactInstance20getJavaScriptContextEv, symObjAddr: 0x1A44, symBinAddr: 0x7974, symSize: 0x10 }
  - { offset: 0x8D3F2, size: 0x8, addend: 0x0, symName: __ZN8facebook5react13ReactInstance20getJavaScriptContextEv, symObjAddr: 0x1A44, symBinAddr: 0x7974, symSize: 0x10 }
  - { offset: 0x8D434, size: 0x8, addend: 0x0, symName: __ZN8facebook5react13ReactInstanceD1Ev, symObjAddr: 0x1A54, symBinAddr: 0x7984, symSize: 0x58 }
  - { offset: 0x8D5D9, size: 0x8, addend: 0x0, symName: __ZN8facebook5react13ReactInstanceD0Ev, symObjAddr: 0x1AAC, symBinAddr: 0x79DC, symSize: 0x5C }
  - { offset: 0x8D789, size: 0x8, addend: 0x0, symName: __ZN8facebook5react16HighResTimeStamp3nowEv, symObjAddr: 0x1B08, symBinAddr: 0x7A38, symSize: 0x4 }
  - { offset: 0x8D9DF, size: 0x8, addend: 0x0, symName: __ZNSt3__120__shared_ptr_emplaceIN8facebook5react16RuntimeSchedulerENS_9allocatorIS3_EEEC2B8ne200100IJRNS_8functionIFvONS8_IFvRNS1_3jsi7RuntimeEEEEEEERDoFNS2_16HighResTimeStampEvERNS8_IFvSB_RNS9_7JSErrorEEEEES5_Li0EEES5_DpOT_, symObjAddr: 0x1BA4, symBinAddr: 0x7AAC, symSize: 0x4C }
  - { offset: 0x8DBE6, size: 0x8, addend: 0x0, symName: __ZNSt3__120__shared_ptr_emplaceIN8facebook5react16RuntimeSchedulerENS_9allocatorIS3_EEED1Ev, symObjAddr: 0x1BF0, symBinAddr: 0x7AF8, symSize: 0x14 }
  - { offset: 0x8DC08, size: 0x8, addend: 0x0, symName: __ZNSt3__120__shared_ptr_emplaceIN8facebook5react16RuntimeSchedulerENS_9allocatorIS3_EEED1Ev, symObjAddr: 0x1BF0, symBinAddr: 0x7AF8, symSize: 0x14 }
  - { offset: 0x8DC3B, size: 0x8, addend: 0x0, symName: __ZNSt3__120__shared_ptr_emplaceIN8facebook5react16RuntimeSchedulerENS_9allocatorIS3_EEED0Ev, symObjAddr: 0x1C04, symBinAddr: 0x7B0C, symSize: 0x24 }
  - { offset: 0x8DDC1, size: 0x8, addend: 0x0, symName: __ZNSt3__120__shared_ptr_emplaceIN8facebook5react16RuntimeSchedulerENS_9allocatorIS3_EEE16__on_zero_sharedEv, symObjAddr: 0x1C28, symBinAddr: 0x7B30, symSize: 0x20 }
  - { offset: 0x8DF14, size: 0x8, addend: 0x0, symName: __ZNSt3__120__shared_ptr_emplaceIN8facebook5react16RuntimeSchedulerENS_9allocatorIS3_EEE21__on_zero_shared_weakEv, symObjAddr: 0x1C48, symBinAddr: 0x7B50, symSize: 0x4 }
  - { offset: 0x8DF46, size: 0x8, addend: 0x0, symName: __ZNSt3__120__shared_ptr_emplaceIN8facebook5react16RuntimeSchedulerENS_9allocatorIS3_EEE21__on_zero_shared_weakEv, symObjAddr: 0x1C48, symBinAddr: 0x7B50, symSize: 0x4 }
  - { offset: 0x8DF68, size: 0x8, addend: 0x0, symName: __ZNSt3__120__shared_ptr_emplaceIN8facebook5react16RuntimeSchedulerENS_9allocatorIS3_EEE21__on_zero_shared_weakEv, symObjAddr: 0x1C48, symBinAddr: 0x7B50, symSize: 0x4 }
  - { offset: 0x8DF8B, size: 0x8, addend: 0x0, symName: __ZNSt3__120__shared_ptr_emplaceIN8facebook5react16RuntimeSchedulerENS_9allocatorIS3_EEE21__on_zero_shared_weakEv, symObjAddr: 0x1C48, symBinAddr: 0x7B50, symSize: 0x4 }
  - { offset: 0x8DFC0, size: 0x8, addend: 0x0, symName: __ZNSt3__120__shared_ptr_emplaceIN8facebook5react16RuntimeSchedulerENS_9allocatorIS3_EEE21__on_zero_shared_weakEv, symObjAddr: 0x1C48, symBinAddr: 0x7B50, symSize: 0x4 }
  - { offset: 0x8E2E0, size: 0x8, addend: 0x0, symName: __ZNSt3__110__function6__funcIPDoFN8facebook5react16HighResTimeStampEvENS_9allocatorIS6_EEFS4_vEED1Ev, symObjAddr: 0x1E10, symBinAddr: 0x7D18, symSize: 0x4 }
  - { offset: 0x8E30B, size: 0x8, addend: 0x0, symName: __ZNSt3__110__function6__funcIPDoFN8facebook5react16HighResTimeStampEvENS_9allocatorIS6_EEFS4_vEED0Ev, symObjAddr: 0x1E14, symBinAddr: 0x7D1C, symSize: 0x4 }
  - { offset: 0x8E416, size: 0x8, addend: 0x0, symName: __ZNKSt3__110__function6__funcIPDoFN8facebook5react16HighResTimeStampEvENS_9allocatorIS6_EEFS4_vEE7__cloneEv, symObjAddr: 0x1E18, symBinAddr: 0x7D20, symSize: 0x38 }
  - { offset: 0x8E60E, size: 0x8, addend: 0x0, symName: __ZNKSt3__110__function6__funcIPDoFN8facebook5react16HighResTimeStampEvENS_9allocatorIS6_EEFS4_vEE7__cloneEPNS0_6__baseIS9_EE, symObjAddr: 0x1E50, symBinAddr: 0x7D58, symSize: 0x18 }
  - { offset: 0x8E643, size: 0x8, addend: 0x0, symName: __ZNKSt3__110__function6__funcIPDoFN8facebook5react16HighResTimeStampEvENS_9allocatorIS6_EEFS4_vEE7__cloneEPNS0_6__baseIS9_EE, symObjAddr: 0x1E50, symBinAddr: 0x7D58, symSize: 0x18 }
  - { offset: 0x8E671, size: 0x8, addend: 0x0, symName: __ZNKSt3__110__function6__funcIPDoFN8facebook5react16HighResTimeStampEvENS_9allocatorIS6_EEFS4_vEE7__cloneEPNS0_6__baseIS9_EE, symObjAddr: 0x1E50, symBinAddr: 0x7D58, symSize: 0x18 }
  - { offset: 0x8E6CA, size: 0x8, addend: 0x0, symName: __ZNSt3__110__function6__funcIPDoFN8facebook5react16HighResTimeStampEvENS_9allocatorIS6_EEFS4_vEE7destroyEv, symObjAddr: 0x1E68, symBinAddr: 0x7D70, symSize: 0x4 }
  - { offset: 0x8E71D, size: 0x8, addend: 0x0, symName: __ZNSt3__110__function6__funcIPDoFN8facebook5react16HighResTimeStampEvENS_9allocatorIS6_EEFS4_vEE18destroy_deallocateEv, symObjAddr: 0x1E6C, symBinAddr: 0x7D74, symSize: 0x4 }
  - { offset: 0x8E750, size: 0x8, addend: 0x0, symName: __ZNSt3__110__function6__funcIPDoFN8facebook5react16HighResTimeStampEvENS_9allocatorIS6_EEFS4_vEE18destroy_deallocateEv, symObjAddr: 0x1E6C, symBinAddr: 0x7D74, symSize: 0x4 }
  - { offset: 0x8E773, size: 0x8, addend: 0x0, symName: __ZNSt3__110__function6__funcIPDoFN8facebook5react16HighResTimeStampEvENS_9allocatorIS6_EEFS4_vEE18destroy_deallocateEv, symObjAddr: 0x1E6C, symBinAddr: 0x7D74, symSize: 0x4 }
  - { offset: 0x8E7A7, size: 0x8, addend: 0x0, symName: __ZNSt3__110__function6__funcIPDoFN8facebook5react16HighResTimeStampEvENS_9allocatorIS6_EEFS4_vEE18destroy_deallocateEv, symObjAddr: 0x1E6C, symBinAddr: 0x7D74, symSize: 0x4 }
  - { offset: 0x8E808, size: 0x8, addend: 0x0, symName: __ZNSt3__110__function6__funcIPDoFN8facebook5react16HighResTimeStampEvENS_9allocatorIS6_EEFS4_vEEclEv, symObjAddr: 0x1E70, symBinAddr: 0x7D78, symSize: 0x8 }
  - { offset: 0x8E830, size: 0x8, addend: 0x0, symName: __ZNSt3__110__function6__funcIPDoFN8facebook5react16HighResTimeStampEvENS_9allocatorIS6_EEFS4_vEEclEv, symObjAddr: 0x1E70, symBinAddr: 0x7D78, symSize: 0x8 }
  - { offset: 0x8E84E, size: 0x8, addend: 0x0, symName: __ZNSt3__110__function6__funcIPDoFN8facebook5react16HighResTimeStampEvENS_9allocatorIS6_EEFS4_vEEclEv, symObjAddr: 0x1E70, symBinAddr: 0x7D78, symSize: 0x8 }
  - { offset: 0x8E86B, size: 0x8, addend: 0x0, symName: __ZNSt3__110__function6__funcIPDoFN8facebook5react16HighResTimeStampEvENS_9allocatorIS6_EEFS4_vEEclEv, symObjAddr: 0x1E70, symBinAddr: 0x7D78, symSize: 0x8 }
  - { offset: 0x8E889, size: 0x8, addend: 0x0, symName: __ZNSt3__110__function6__funcIPDoFN8facebook5react16HighResTimeStampEvENS_9allocatorIS6_EEFS4_vEEclEv, symObjAddr: 0x1E70, symBinAddr: 0x7D78, symSize: 0x8 }
  - { offset: 0x8E8B4, size: 0x8, addend: 0x0, symName: __ZNKSt3__110__function6__funcIPDoFN8facebook5react16HighResTimeStampEvENS_9allocatorIS6_EEFS4_vEE6targetERKSt9type_info, symObjAddr: 0x1E78, symBinAddr: 0x7D80, symSize: 0x3C }
  - { offset: 0x8E965, size: 0x8, addend: 0x0, symName: __ZNKSt3__110__function6__funcIPDoFN8facebook5react16HighResTimeStampEvENS_9allocatorIS6_EEFS4_vEE11target_typeEv, symObjAddr: 0x1EB4, symBinAddr: 0x7DBC, symSize: 0xC }
  - { offset: 0x8EDD5, size: 0x8, addend: 0x0, symName: __ZNSt3__112basic_stringIcNS_11char_traitsIcEENS_9allocatorIcEEEC2B8ne200100Emc, symObjAddr: 0x231C, symBinAddr: 0x80EC, symSize: 0x9C }
  - { offset: 0x8F0C4, size: 0x8, addend: 0x0, symName: __ZNSt3__120__shared_ptr_pointerIPN8facebook5react9JSRuntimeENS_14default_deleteIS3_EENS_9allocatorIS3_EEED1Ev, symObjAddr: 0x2410, symBinAddr: 0x8188, symSize: 0x4 }
  - { offset: 0x8F0E6, size: 0x8, addend: 0x0, symName: __ZNSt3__120__shared_ptr_pointerIPN8facebook5react9JSRuntimeENS_14default_deleteIS3_EENS_9allocatorIS3_EEED1Ev, symObjAddr: 0x2410, symBinAddr: 0x8188, symSize: 0x4 }
  - { offset: 0x8F119, size: 0x8, addend: 0x0, symName: __ZNSt3__120__shared_ptr_pointerIPN8facebook5react9JSRuntimeENS_14default_deleteIS3_EENS_9allocatorIS3_EEED0Ev, symObjAddr: 0x2414, symBinAddr: 0x818C, symSize: 0x14 }
  - { offset: 0x8F19F, size: 0x8, addend: 0x0, symName: __ZNSt3__120__shared_ptr_pointerIPN8facebook5react9JSRuntimeENS_14default_deleteIS3_EENS_9allocatorIS3_EEE16__on_zero_sharedEv, symObjAddr: 0x2428, symBinAddr: 0x81A0, symSize: 0x18 }
  - { offset: 0x8F1ED, size: 0x8, addend: 0x0, symName: __ZNKSt3__120__shared_ptr_pointerIPN8facebook5react9JSRuntimeENS_14default_deleteIS3_EENS_9allocatorIS3_EEE13__get_deleterERKSt9type_info, symObjAddr: 0x2440, symBinAddr: 0x81B8, symSize: 0x38 }
  - { offset: 0x8F276, size: 0x8, addend: 0x0, symName: __ZNSt3__120__shared_ptr_pointerIPN8facebook5react9JSRuntimeENS_14default_deleteIS3_EENS_9allocatorIS3_EEE21__on_zero_shared_weakEv, symObjAddr: 0x2478, symBinAddr: 0x81F0, symSize: 0x4 }
  - { offset: 0x8F2A8, size: 0x8, addend: 0x0, symName: __ZNSt3__120__shared_ptr_pointerIPN8facebook5react9JSRuntimeENS_14default_deleteIS3_EENS_9allocatorIS3_EEE21__on_zero_shared_weakEv, symObjAddr: 0x2478, symBinAddr: 0x81F0, symSize: 0x4 }
  - { offset: 0x8F2CA, size: 0x8, addend: 0x0, symName: __ZNSt3__120__shared_ptr_pointerIPN8facebook5react9JSRuntimeENS_14default_deleteIS3_EENS_9allocatorIS3_EEE21__on_zero_shared_weakEv, symObjAddr: 0x2478, symBinAddr: 0x81F0, symSize: 0x4 }
  - { offset: 0x8F2FF, size: 0x8, addend: 0x0, symName: __ZNSt3__120__shared_ptr_pointerIPN8facebook5react9JSRuntimeENS_14default_deleteIS3_EENS_9allocatorIS3_EEE21__on_zero_shared_weakEv, symObjAddr: 0x2478, symBinAddr: 0x81F0, symSize: 0x4 }
  - { offset: 0x8F546, size: 0x8, addend: 0x0, symName: __ZNSt3__120__shared_ptr_emplaceIN8facebook5react14JsErrorHandlerENS_9allocatorIS3_EEEC2B8ne200100IJNS_8functionIFvRNS1_3jsi7RuntimeERKNS3_14ProcessedErrorEEEEES5_Li0EEES5_DpOT_, symObjAddr: 0x24D4, symBinAddr: 0x824C, symSize: 0x4C }
  - { offset: 0x8F6B2, size: 0x8, addend: 0x0, symName: __ZNSt3__120__shared_ptr_emplaceIN8facebook5react14JsErrorHandlerENS_9allocatorIS3_EEED1Ev, symObjAddr: 0x2520, symBinAddr: 0x8298, symSize: 0x14 }
  - { offset: 0x8F6D4, size: 0x8, addend: 0x0, symName: __ZNSt3__120__shared_ptr_emplaceIN8facebook5react14JsErrorHandlerENS_9allocatorIS3_EEED1Ev, symObjAddr: 0x2520, symBinAddr: 0x8298, symSize: 0x14 }
  - { offset: 0x8F707, size: 0x8, addend: 0x0, symName: __ZNSt3__120__shared_ptr_emplaceIN8facebook5react14JsErrorHandlerENS_9allocatorIS3_EEED0Ev, symObjAddr: 0x2534, symBinAddr: 0x82AC, symSize: 0x24 }
  - { offset: 0x8F7D3, size: 0x8, addend: 0x0, symName: __ZNSt3__120__shared_ptr_emplaceIN8facebook5react14JsErrorHandlerENS_9allocatorIS3_EEE16__on_zero_sharedEv, symObjAddr: 0x2558, symBinAddr: 0x82D0, symSize: 0x8 }
  - { offset: 0x8F7FB, size: 0x8, addend: 0x0, symName: __ZNSt3__120__shared_ptr_emplaceIN8facebook5react14JsErrorHandlerENS_9allocatorIS3_EEE16__on_zero_sharedEv, symObjAddr: 0x2558, symBinAddr: 0x82D0, symSize: 0x8 }
  - { offset: 0x8F818, size: 0x8, addend: 0x0, symName: __ZNSt3__120__shared_ptr_emplaceIN8facebook5react14JsErrorHandlerENS_9allocatorIS3_EEE16__on_zero_sharedEv, symObjAddr: 0x2558, symBinAddr: 0x82D0, symSize: 0x8 }
  - { offset: 0x8F85E, size: 0x8, addend: 0x0, symName: __ZNSt3__120__shared_ptr_emplaceIN8facebook5react14JsErrorHandlerENS_9allocatorIS3_EEE21__on_zero_shared_weakEv, symObjAddr: 0x2560, symBinAddr: 0x82D8, symSize: 0x4 }
  - { offset: 0x8F890, size: 0x8, addend: 0x0, symName: __ZNSt3__120__shared_ptr_emplaceIN8facebook5react14JsErrorHandlerENS_9allocatorIS3_EEE21__on_zero_shared_weakEv, symObjAddr: 0x2560, symBinAddr: 0x82D8, symSize: 0x4 }
  - { offset: 0x8F8B2, size: 0x8, addend: 0x0, symName: __ZNSt3__120__shared_ptr_emplaceIN8facebook5react14JsErrorHandlerENS_9allocatorIS3_EEE21__on_zero_shared_weakEv, symObjAddr: 0x2560, symBinAddr: 0x82D8, symSize: 0x4 }
  - { offset: 0x8F8D5, size: 0x8, addend: 0x0, symName: __ZNSt3__120__shared_ptr_emplaceIN8facebook5react14JsErrorHandlerENS_9allocatorIS3_EEE21__on_zero_shared_weakEv, symObjAddr: 0x2560, symBinAddr: 0x82D8, symSize: 0x4 }
  - { offset: 0x8F90A, size: 0x8, addend: 0x0, symName: __ZNSt3__120__shared_ptr_emplaceIN8facebook5react14JsErrorHandlerENS_9allocatorIS3_EEE21__on_zero_shared_weakEv, symObjAddr: 0x2560, symBinAddr: 0x82D8, symSize: 0x4 }
  - { offset: 0x8FA13, size: 0x8, addend: 0x0, symName: __ZNSt3__110__function12__value_funcIFvRN8facebook3jsi7RuntimeERKNS2_5react14JsErrorHandler14ProcessedErrorEEEC2B8ne200100EOSC_, symObjAddr: 0x262C, symBinAddr: 0x83A4, symSize: 0x64 }
  - { offset: 0x8FB44, size: 0x8, addend: 0x0, symName: __ZNSt3__112__hash_tableINS_17__hash_value_typeINS_12basic_stringIcNS_11char_traitsIcEENS_9allocatorIcEEEENS_7variantIJN8facebook3jsi8FunctionENSA_6ObjectEEEEEENS_22__unordered_map_hasherIS7_SE_NS_4hashIS7_EENS_8equal_toIS7_EELb1EEENS_21__unordered_map_equalIS7_SE_SJ_SH_Lb1EEENS5_ISE_EEE17__deallocate_nodeEPNS_16__hash_node_baseIPNS_11__hash_nodeISE_PvEEEE, symObjAddr: 0x2880, symBinAddr: 0x8440, symSize: 0x3C }
  - { offset: 0x8FE95, size: 0x8, addend: 0x0, symName: __ZNSt3__116__variant_detail6__dtorINS0_8__traitsIJN8facebook3jsi8FunctionENS4_6ObjectEEEELNS0_6_TraitE1EE9__destroyB8ne200100Ev, symObjAddr: 0x28F8, symBinAddr: 0x84B8, symSize: 0x54 }
  - { offset: 0x901C8, size: 0x8, addend: 0x0, symName: __ZNSt3__116__variant_detail12__visitation6__base12__dispatcherIJLm0EEE10__dispatchB8ne200100IOZNS0_6__dtorINS0_8__traitsIJN8facebook3jsi8FunctionENS9_6ObjectEEEELNS0_6_TraitE1EE9__destroyB8ne200100EvEUlRT_E_JRNS0_6__baseILSD_1EJSA_SB_EEEEEEDcSF_DpT0_, symObjAddr: 0x294C, symBinAddr: 0x850C, symSize: 0x18 }
  - { offset: 0x90201, size: 0x8, addend: 0x0, symName: __ZNSt3__116__variant_detail12__visitation6__base12__dispatcherIJLm0EEE10__dispatchB8ne200100IOZNS0_6__dtorINS0_8__traitsIJN8facebook3jsi8FunctionENS9_6ObjectEEEELNS0_6_TraitE1EE9__destroyB8ne200100EvEUlRT_E_JRNS0_6__baseILSD_1EJSA_SB_EEEEEEDcSF_DpT0_, symObjAddr: 0x294C, symBinAddr: 0x850C, symSize: 0x18 }
  - { offset: 0x90228, size: 0x8, addend: 0x0, symName: __ZNSt3__116__variant_detail12__visitation6__base12__dispatcherIJLm0EEE10__dispatchB8ne200100IOZNS0_6__dtorINS0_8__traitsIJN8facebook3jsi8FunctionENS9_6ObjectEEEELNS0_6_TraitE1EE9__destroyB8ne200100EvEUlRT_E_JRNS0_6__baseILSD_1EJSA_SB_EEEEEEDcSF_DpT0_, symObjAddr: 0x294C, symBinAddr: 0x850C, symSize: 0x18 }
  - { offset: 0x9024E, size: 0x8, addend: 0x0, symName: __ZNSt3__116__variant_detail12__visitation6__base12__dispatcherIJLm0EEE10__dispatchB8ne200100IOZNS0_6__dtorINS0_8__traitsIJN8facebook3jsi8FunctionENS9_6ObjectEEEELNS0_6_TraitE1EE9__destroyB8ne200100EvEUlRT_E_JRNS0_6__baseILSD_1EJSA_SB_EEEEEEDcSF_DpT0_, symObjAddr: 0x294C, symBinAddr: 0x850C, symSize: 0x18 }
  - { offset: 0x9026C, size: 0x8, addend: 0x0, symName: __ZNSt3__116__variant_detail12__visitation6__base12__dispatcherIJLm0EEE10__dispatchB8ne200100IOZNS0_6__dtorINS0_8__traitsIJN8facebook3jsi8FunctionENS9_6ObjectEEEELNS0_6_TraitE1EE9__destroyB8ne200100EvEUlRT_E_JRNS0_6__baseILSD_1EJSA_SB_EEEEEEDcSF_DpT0_, symObjAddr: 0x294C, symBinAddr: 0x850C, symSize: 0x18 }
  - { offset: 0x9028A, size: 0x8, addend: 0x0, symName: __ZNSt3__116__variant_detail12__visitation6__base12__dispatcherIJLm0EEE10__dispatchB8ne200100IOZNS0_6__dtorINS0_8__traitsIJN8facebook3jsi8FunctionENS9_6ObjectEEEELNS0_6_TraitE1EE9__destroyB8ne200100EvEUlRT_E_JRNS0_6__baseILSD_1EJSA_SB_EEEEEEDcSF_DpT0_, symObjAddr: 0x294C, symBinAddr: 0x850C, symSize: 0x18 }
  - { offset: 0x902A8, size: 0x8, addend: 0x0, symName: __ZNSt3__116__variant_detail12__visitation6__base12__dispatcherIJLm0EEE10__dispatchB8ne200100IOZNS0_6__dtorINS0_8__traitsIJN8facebook3jsi8FunctionENS9_6ObjectEEEELNS0_6_TraitE1EE9__destroyB8ne200100EvEUlRT_E_JRNS0_6__baseILSD_1EJSA_SB_EEEEEEDcSF_DpT0_, symObjAddr: 0x294C, symBinAddr: 0x850C, symSize: 0x18 }
  - { offset: 0x902C6, size: 0x8, addend: 0x0, symName: __ZNSt3__116__variant_detail12__visitation6__base12__dispatcherIJLm0EEE10__dispatchB8ne200100IOZNS0_6__dtorINS0_8__traitsIJN8facebook3jsi8FunctionENS9_6ObjectEEEELNS0_6_TraitE1EE9__destroyB8ne200100EvEUlRT_E_JRNS0_6__baseILSD_1EJSA_SB_EEEEEEDcSF_DpT0_, symObjAddr: 0x294C, symBinAddr: 0x850C, symSize: 0x18 }
  - { offset: 0x902E4, size: 0x8, addend: 0x0, symName: __ZNSt3__116__variant_detail12__visitation6__base12__dispatcherIJLm0EEE10__dispatchB8ne200100IOZNS0_6__dtorINS0_8__traitsIJN8facebook3jsi8FunctionENS9_6ObjectEEEELNS0_6_TraitE1EE9__destroyB8ne200100EvEUlRT_E_JRNS0_6__baseILSD_1EJSA_SB_EEEEEEDcSF_DpT0_, symObjAddr: 0x294C, symBinAddr: 0x850C, symSize: 0x18 }
  - { offset: 0x903BA, size: 0x8, addend: 0x0, symName: __ZNSt3__116__variant_detail12__visitation6__base12__dispatcherIJLm1EEE10__dispatchB8ne200100IOZNS0_6__dtorINS0_8__traitsIJN8facebook3jsi8FunctionENS9_6ObjectEEEELNS0_6_TraitE1EE9__destroyB8ne200100EvEUlRT_E_JRNS0_6__baseILSD_1EJSA_SB_EEEEEEDcSF_DpT0_, symObjAddr: 0x2964, symBinAddr: 0x8524, symSize: 0x18 }
  - { offset: 0x903F3, size: 0x8, addend: 0x0, symName: __ZNSt3__116__variant_detail12__visitation6__base12__dispatcherIJLm1EEE10__dispatchB8ne200100IOZNS0_6__dtorINS0_8__traitsIJN8facebook3jsi8FunctionENS9_6ObjectEEEELNS0_6_TraitE1EE9__destroyB8ne200100EvEUlRT_E_JRNS0_6__baseILSD_1EJSA_SB_EEEEEEDcSF_DpT0_, symObjAddr: 0x2964, symBinAddr: 0x8524, symSize: 0x18 }
  - { offset: 0x9041A, size: 0x8, addend: 0x0, symName: __ZNSt3__116__variant_detail12__visitation6__base12__dispatcherIJLm1EEE10__dispatchB8ne200100IOZNS0_6__dtorINS0_8__traitsIJN8facebook3jsi8FunctionENS9_6ObjectEEEELNS0_6_TraitE1EE9__destroyB8ne200100EvEUlRT_E_JRNS0_6__baseILSD_1EJSA_SB_EEEEEEDcSF_DpT0_, symObjAddr: 0x2964, symBinAddr: 0x8524, symSize: 0x18 }
  - { offset: 0x90440, size: 0x8, addend: 0x0, symName: __ZNSt3__116__variant_detail12__visitation6__base12__dispatcherIJLm1EEE10__dispatchB8ne200100IOZNS0_6__dtorINS0_8__traitsIJN8facebook3jsi8FunctionENS9_6ObjectEEEELNS0_6_TraitE1EE9__destroyB8ne200100EvEUlRT_E_JRNS0_6__baseILSD_1EJSA_SB_EEEEEEDcSF_DpT0_, symObjAddr: 0x2964, symBinAddr: 0x8524, symSize: 0x18 }
  - { offset: 0x9045E, size: 0x8, addend: 0x0, symName: __ZNSt3__116__variant_detail12__visitation6__base12__dispatcherIJLm1EEE10__dispatchB8ne200100IOZNS0_6__dtorINS0_8__traitsIJN8facebook3jsi8FunctionENS9_6ObjectEEEELNS0_6_TraitE1EE9__destroyB8ne200100EvEUlRT_E_JRNS0_6__baseILSD_1EJSA_SB_EEEEEEDcSF_DpT0_, symObjAddr: 0x2964, symBinAddr: 0x8524, symSize: 0x18 }
  - { offset: 0x9047C, size: 0x8, addend: 0x0, symName: __ZNSt3__116__variant_detail12__visitation6__base12__dispatcherIJLm1EEE10__dispatchB8ne200100IOZNS0_6__dtorINS0_8__traitsIJN8facebook3jsi8FunctionENS9_6ObjectEEEELNS0_6_TraitE1EE9__destroyB8ne200100EvEUlRT_E_JRNS0_6__baseILSD_1EJSA_SB_EEEEEEDcSF_DpT0_, symObjAddr: 0x2964, symBinAddr: 0x8524, symSize: 0x18 }
  - { offset: 0x9049A, size: 0x8, addend: 0x0, symName: __ZNSt3__116__variant_detail12__visitation6__base12__dispatcherIJLm1EEE10__dispatchB8ne200100IOZNS0_6__dtorINS0_8__traitsIJN8facebook3jsi8FunctionENS9_6ObjectEEEELNS0_6_TraitE1EE9__destroyB8ne200100EvEUlRT_E_JRNS0_6__baseILSD_1EJSA_SB_EEEEEEDcSF_DpT0_, symObjAddr: 0x2964, symBinAddr: 0x8524, symSize: 0x18 }
  - { offset: 0x904B8, size: 0x8, addend: 0x0, symName: __ZNSt3__116__variant_detail12__visitation6__base12__dispatcherIJLm1EEE10__dispatchB8ne200100IOZNS0_6__dtorINS0_8__traitsIJN8facebook3jsi8FunctionENS9_6ObjectEEEELNS0_6_TraitE1EE9__destroyB8ne200100EvEUlRT_E_JRNS0_6__baseILSD_1EJSA_SB_EEEEEEDcSF_DpT0_, symObjAddr: 0x2964, symBinAddr: 0x8524, symSize: 0x18 }
  - { offset: 0x90566, size: 0x8, addend: 0x0, symName: '__ZNSt3__110__function6__funcIZN8facebook5react13ReactInstanceC1ENS_10unique_ptrINS3_9JSRuntimeENS_14default_deleteIS6_EEEENS_10shared_ptrINS3_18MessageQueueThreadEEENSA_INS3_12TimerManagerEEENS_8functionIFvRNS2_3jsi7RuntimeERKNS3_14JsErrorHandler14ProcessedErrorEEEEPNS3_18jsinspector_modern10HostTargetEE3$_0NS_9allocatorISS_EEFvONSF_IFvSI_EEEEED1Ev', symObjAddr: 0x297C, symBinAddr: 0x853C, symSize: 0x54 }
  - { offset: 0x90713, size: 0x8, addend: 0x0, symName: '__ZNSt3__110__function6__funcIZN8facebook5react13ReactInstanceC1ENS_10unique_ptrINS3_9JSRuntimeENS_14default_deleteIS6_EEEENS_10shared_ptrINS3_18MessageQueueThreadEEENSA_INS3_12TimerManagerEEENS_8functionIFvRNS2_3jsi7RuntimeERKNS3_14JsErrorHandler14ProcessedErrorEEEEPNS3_18jsinspector_modern10HostTargetEE3$_0NS_9allocatorISS_EEFvONSF_IFvSI_EEEEED0Ev', symObjAddr: 0x29D0, symBinAddr: 0x8590, symSize: 0x54 }
  - { offset: 0x90B6C, size: 0x8, addend: 0x0, symName: '__ZNKSt3__110__function6__funcIZN8facebook5react13ReactInstanceC1ENS_10unique_ptrINS3_9JSRuntimeENS_14default_deleteIS6_EEEENS_10shared_ptrINS3_18MessageQueueThreadEEENSA_INS3_12TimerManagerEEENS_8functionIFvRNS2_3jsi7RuntimeERKNS3_14JsErrorHandler14ProcessedErrorEEEEPNS3_18jsinspector_modern10HostTargetEE3$_0NS_9allocatorISS_EEFvONSF_IFvSI_EEEEE7__cloneEPNS0_6__baseISY_EE', symObjAddr: 0x2AD4, symBinAddr: 0x8694, symSize: 0x90 }
  - { offset: 0x90BA1, size: 0x8, addend: 0x0, symName: '__ZNKSt3__110__function6__funcIZN8facebook5react13ReactInstanceC1ENS_10unique_ptrINS3_9JSRuntimeENS_14default_deleteIS6_EEEENS_10shared_ptrINS3_18MessageQueueThreadEEENSA_INS3_12TimerManagerEEENS_8functionIFvRNS2_3jsi7RuntimeERKNS3_14JsErrorHandler14ProcessedErrorEEEEPNS3_18jsinspector_modern10HostTargetEE3$_0NS_9allocatorISS_EEFvONSF_IFvSI_EEEEE7__cloneEPNS0_6__baseISY_EE', symObjAddr: 0x2AD4, symBinAddr: 0x8694, symSize: 0x90 }
  - { offset: 0x90BCF, size: 0x8, addend: 0x0, symName: '__ZNKSt3__110__function6__funcIZN8facebook5react13ReactInstanceC1ENS_10unique_ptrINS3_9JSRuntimeENS_14default_deleteIS6_EEEENS_10shared_ptrINS3_18MessageQueueThreadEEENSA_INS3_12TimerManagerEEENS_8functionIFvRNS2_3jsi7RuntimeERKNS3_14JsErrorHandler14ProcessedErrorEEEEPNS3_18jsinspector_modern10HostTargetEE3$_0NS_9allocatorISS_EEFvONSF_IFvSI_EEEEE7__cloneEPNS0_6__baseISY_EE', symObjAddr: 0x2AD4, symBinAddr: 0x8694, symSize: 0x90 }
  - { offset: 0x90EC8, size: 0x8, addend: 0x0, symName: '__ZNSt3__110__function6__funcIZN8facebook5react13ReactInstanceC1ENS_10unique_ptrINS3_9JSRuntimeENS_14default_deleteIS6_EEEENS_10shared_ptrINS3_18MessageQueueThreadEEENSA_INS3_12TimerManagerEEENS_8functionIFvRNS2_3jsi7RuntimeERKNS3_14JsErrorHandler14ProcessedErrorEEEEPNS3_18jsinspector_modern10HostTargetEE3$_0NS_9allocatorISS_EEFvONSF_IFvSI_EEEEE7destroyEv', symObjAddr: 0x2B64, symBinAddr: 0x8724, symSize: 0x8 }
  - { offset: 0x90EFC, size: 0x8, addend: 0x0, symName: '__ZNSt3__110__function12__alloc_funcIZN8facebook5react13ReactInstanceC1ENS_10unique_ptrINS3_9JSRuntimeENS_14default_deleteIS6_EEEENS_10shared_ptrINS3_18MessageQueueThreadEEENSA_INS3_12TimerManagerEEENS_8functionIFvRNS2_3jsi7RuntimeERKNS3_14JsErrorHandler14ProcessedErrorEEEEPNS3_18jsinspector_modern10HostTargetEE3$_0NS_9allocatorISS_EEFvONSF_IFvSI_EEEEE7destroyB8ne200100Ev', symObjAddr: 0x2ED0, symBinAddr: 0x8A90, symSize: 0x50 }
  - { offset: 0x91066, size: 0x8, addend: 0x0, symName: '__ZNSt3__110__function6__funcIZN8facebook5react13ReactInstanceC1ENS_10unique_ptrINS3_9JSRuntimeENS_14default_deleteIS6_EEEENS_10shared_ptrINS3_18MessageQueueThreadEEENSA_INS3_12TimerManagerEEENS_8functionIFvRNS2_3jsi7RuntimeERKNS3_14JsErrorHandler14ProcessedErrorEEEEPNS3_18jsinspector_modern10HostTargetEE3$_0NS_9allocatorISS_EEFvONSF_IFvSI_EEEEE18destroy_deallocateEv', symObjAddr: 0x2B6C, symBinAddr: 0x872C, symSize: 0x28 }
  - { offset: 0x915A8, size: 0x8, addend: 0x0, symName: '__ZNSt3__110__function6__funcIZN8facebook5react13ReactInstanceC1ENS_10unique_ptrINS3_9JSRuntimeENS_14default_deleteIS6_EEEENS_10shared_ptrINS3_18MessageQueueThreadEEENSA_INS3_12TimerManagerEEENS_8functionIFvRNS2_3jsi7RuntimeERKNS3_14JsErrorHandler14ProcessedErrorEEEEPNS3_18jsinspector_modern10HostTargetEE3$_0NS_9allocatorISS_EEFvONSF_IFvSI_EEEEEclESX_', symObjAddr: 0x2B94, symBinAddr: 0x8754, symSize: 0x2F4 }
  - { offset: 0x921E6, size: 0x8, addend: 0x0, symName: '__ZZZN8facebook5react13ReactInstanceC1ENSt3__110unique_ptrINS0_9JSRuntimeENS2_14default_deleteIS4_EEEENS2_10shared_ptrINS0_18MessageQueueThreadEEENS8_INS0_12TimerManagerEEENS2_8functionIFvRNS_3jsi7RuntimeERKNS0_14JsErrorHandler14ProcessedErrorEEEEPNS0_18jsinspector_modern10HostTargetEENK3$_0clINSD_IFvSG_EEEEEDaT_ENUlvE_D1Ev', symObjAddr: 0x2F20, symBinAddr: 0x8AE0, symSize: 0x64 }
  - { offset: 0x92353, size: 0x8, addend: 0x0, symName: '__ZNKSt3__110__function6__funcIZN8facebook5react13ReactInstanceC1ENS_10unique_ptrINS3_9JSRuntimeENS_14default_deleteIS6_EEEENS_10shared_ptrINS3_18MessageQueueThreadEEENSA_INS3_12TimerManagerEEENS_8functionIFvRNS2_3jsi7RuntimeERKNS3_14JsErrorHandler14ProcessedErrorEEEEPNS3_18jsinspector_modern10HostTargetEE3$_0NS_9allocatorISS_EEFvONSF_IFvSI_EEEEE6targetERKSt9type_info', symObjAddr: 0x2E88, symBinAddr: 0x8A48, symSize: 0x3C }
  - { offset: 0x923A0, size: 0x8, addend: 0x0, symName: '__ZNKSt3__110__function6__funcIZN8facebook5react13ReactInstanceC1ENS_10unique_ptrINS3_9JSRuntimeENS_14default_deleteIS6_EEEENS_10shared_ptrINS3_18MessageQueueThreadEEENSA_INS3_12TimerManagerEEENS_8functionIFvRNS2_3jsi7RuntimeERKNS3_14JsErrorHandler14ProcessedErrorEEEEPNS3_18jsinspector_modern10HostTargetEE3$_0NS_9allocatorISS_EEFvONSF_IFvSI_EEEEE11target_typeEv', symObjAddr: 0x2EC4, symBinAddr: 0x8A84, symSize: 0xC }
  - { offset: 0x92411, size: 0x8, addend: 0x0, symName: '__ZNSt3__110__function6__funcIZZN8facebook5react13ReactInstanceC1ENS_10unique_ptrINS3_9JSRuntimeENS_14default_deleteIS6_EEEENS_10shared_ptrINS3_18MessageQueueThreadEEENSA_INS3_12TimerManagerEEENS_8functionIFvRNS2_3jsi7RuntimeERKNS3_14JsErrorHandler14ProcessedErrorEEEEPNS3_18jsinspector_modern10HostTargetEENK3$_0clINSF_IFvSI_EEEEEDaT_EUlvE_NS_9allocatorISY_EEFvvEED1Ev', symObjAddr: 0x2F84, symBinAddr: 0x8B44, symSize: 0x78 }
  - { offset: 0x925F4, size: 0x8, addend: 0x0, symName: '__ZNSt3__110__function6__funcIZZN8facebook5react13ReactInstanceC1ENS_10unique_ptrINS3_9JSRuntimeENS_14default_deleteIS6_EEEENS_10shared_ptrINS3_18MessageQueueThreadEEENSA_INS3_12TimerManagerEEENS_8functionIFvRNS2_3jsi7RuntimeERKNS3_14JsErrorHandler14ProcessedErrorEEEEPNS3_18jsinspector_modern10HostTargetEENK3$_0clINSF_IFvSI_EEEEEDaT_EUlvE_NS_9allocatorISY_EEFvvEED0Ev', symObjAddr: 0x2FFC, symBinAddr: 0x8BBC, symSize: 0x78 }
  - { offset: 0x929EB, size: 0x8, addend: 0x0, symName: '__ZNKSt3__110__function6__funcIZZN8facebook5react13ReactInstanceC1ENS_10unique_ptrINS3_9JSRuntimeENS_14default_deleteIS6_EEEENS_10shared_ptrINS3_18MessageQueueThreadEEENSA_INS3_12TimerManagerEEENS_8functionIFvRNS2_3jsi7RuntimeERKNS3_14JsErrorHandler14ProcessedErrorEEEEPNS3_18jsinspector_modern10HostTargetEENK3$_0clINSF_IFvSI_EEEEEDaT_EUlvE_NS_9allocatorISY_EEFvvEE7__cloneEv', symObjAddr: 0x3074, symBinAddr: 0x8C34, symSize: 0xE8 }
  - { offset: 0x92FC6, size: 0x8, addend: 0x0, symName: '__ZNKSt3__110__function6__funcIZZN8facebook5react13ReactInstanceC1ENS_10unique_ptrINS3_9JSRuntimeENS_14default_deleteIS6_EEEENS_10shared_ptrINS3_18MessageQueueThreadEEENSA_INS3_12TimerManagerEEENS_8functionIFvRNS2_3jsi7RuntimeERKNS3_14JsErrorHandler14ProcessedErrorEEEEPNS3_18jsinspector_modern10HostTargetEENK3$_0clINSF_IFvSI_EEEEEDaT_EUlvE_NS_9allocatorISY_EEFvvEE7__cloneEPNS0_6__baseIS11_EE', symObjAddr: 0x315C, symBinAddr: 0x8D1C, symSize: 0xD4 }
  - { offset: 0x933A1, size: 0x8, addend: 0x0, symName: '__ZNSt3__110__function6__funcIZZN8facebook5react13ReactInstanceC1ENS_10unique_ptrINS3_9JSRuntimeENS_14default_deleteIS6_EEEENS_10shared_ptrINS3_18MessageQueueThreadEEENSA_INS3_12TimerManagerEEENS_8functionIFvRNS2_3jsi7RuntimeERKNS3_14JsErrorHandler14ProcessedErrorEEEEPNS3_18jsinspector_modern10HostTargetEENK3$_0clINSF_IFvSI_EEEEEDaT_EUlvE_NS_9allocatorISY_EEFvvEE7destroyEv', symObjAddr: 0x3230, symBinAddr: 0x8DF0, symSize: 0x8 }
  - { offset: 0x934B8, size: 0x8, addend: 0x0, symName: '__ZNSt3__110__function6__funcIZZN8facebook5react13ReactInstanceC1ENS_10unique_ptrINS3_9JSRuntimeENS_14default_deleteIS6_EEEENS_10shared_ptrINS3_18MessageQueueThreadEEENSA_INS3_12TimerManagerEEENS_8functionIFvRNS2_3jsi7RuntimeERKNS3_14JsErrorHandler14ProcessedErrorEEEEPNS3_18jsinspector_modern10HostTargetEENK3$_0clINSF_IFvSI_EEEEEDaT_EUlvE_NS_9allocatorISY_EEFvvEE18destroy_deallocateEv', symObjAddr: 0x3238, symBinAddr: 0x8DF8, symSize: 0x28 }
  - { offset: 0x9373E, size: 0x8, addend: 0x0, symName: '__ZNSt3__110__function6__funcIZZN8facebook5react13ReactInstanceC1ENS_10unique_ptrINS3_9JSRuntimeENS_14default_deleteIS6_EEEENS_10shared_ptrINS3_18MessageQueueThreadEEENSA_INS3_12TimerManagerEEENS_8functionIFvRNS2_3jsi7RuntimeERKNS3_14JsErrorHandler14ProcessedErrorEEEEPNS3_18jsinspector_modern10HostTargetEENK3$_0clINSF_IFvSI_EEEEEDaT_EUlvE_NS_9allocatorISY_EEFvvEEclEv', symObjAddr: 0x3260, symBinAddr: 0x8E20, symSize: 0x264 }
  - { offset: 0x94079, size: 0x8, addend: 0x0, symName: __ZN8facebook5react12TraceSectionD2Ev, symObjAddr: 0x38F0, symBinAddr: 0x935C, symSize: 0xC8 }
  - { offset: 0x9408B, size: 0x8, addend: 0x0, symName: '__ZNKSt3__110__function6__funcIZZN8facebook5react13ReactInstanceC1ENS_10unique_ptrINS3_9JSRuntimeENS_14default_deleteIS6_EEEENS_10shared_ptrINS3_18MessageQueueThreadEEENSA_INS3_12TimerManagerEEENS_8functionIFvRNS2_3jsi7RuntimeERKNS3_14JsErrorHandler14ProcessedErrorEEEEPNS3_18jsinspector_modern10HostTargetEENK3$_0clINSF_IFvSI_EEEEEDaT_EUlvE_NS_9allocatorISY_EEFvvEE6targetERKSt9type_info', symObjAddr: 0x34C4, symBinAddr: 0x9084, symSize: 0x3C }
  - { offset: 0x940D8, size: 0x8, addend: 0x0, symName: '__ZNKSt3__110__function6__funcIZZN8facebook5react13ReactInstanceC1ENS_10unique_ptrINS3_9JSRuntimeENS_14default_deleteIS6_EEEENS_10shared_ptrINS3_18MessageQueueThreadEEENSA_INS3_12TimerManagerEEENS_8functionIFvRNS2_3jsi7RuntimeERKNS3_14JsErrorHandler14ProcessedErrorEEEEPNS3_18jsinspector_modern10HostTargetEENK3$_0clINSF_IFvSI_EEEEEDaT_EUlvE_NS_9allocatorISY_EEFvvEE11target_typeEv', symObjAddr: 0x3500, symBinAddr: 0x90C0, symSize: 0xC }
  - { offset: 0x944C8, size: 0x8, addend: 0x0, symName: __ZNSt3__112basic_stringIcNS_11char_traitsIcEENS_9allocatorIcEEEC2B8ne200100ENS_24__uninitialized_size_tagEmRKS4_, symObjAddr: 0x3788, symBinAddr: 0x92E4, symSize: 0x78 }
  - { offset: 0x94858, size: 0x8, addend: 0x0, symName: __ZNSt3__110__function12__value_funcIFvONS_8functionIFvRN8facebook5react18jsinspector_modern10HostTargetEEEEEEC1B8ne200100IZNS5_18makeScopedExecutorIS6_EENS2_IFvONS2_IFvRT_EEEEEENS_10shared_ptrISF_EENS2_IFvONS2_IFvvEEEEEEEUlOSF_E_Li0EEEST_, symObjAddr: 0x3B5C, symBinAddr: 0x9564, symSize: 0x68 }
  - { offset: 0x94AE4, size: 0x8, addend: 0x0, symName: __ZZN8facebook5react18jsinspector_modern18makeScopedExecutorINS1_10HostTargetEEENSt3__18functionIFvONS5_IFvRT_EEEEEENS4_10shared_ptrIS6_EENS5_IFvONS5_IFvvEEEEEEENUlOS6_E_D1Ev, symObjAddr: 0x3B04, symBinAddr: 0x950C, symSize: 0x58 }
  - { offset: 0x94EB5, size: 0x8, addend: 0x0, symName: __ZNSt3__110__function12__value_funcIFvONS_8functionIFvvEEEEEC2B8ne200100EOS7_, symObjAddr: 0x3D9C, symBinAddr: 0x97A4, symSize: 0x64 }
  - { offset: 0x94F51, size: 0x8, addend: 0x0, symName: __ZNSt3__110__function6__funcIZN8facebook5react18jsinspector_modern18makeScopedExecutorINS4_10HostTargetEEENS_8functionIFvONS7_IFvRT_EEEEEENS_10shared_ptrIS8_EENS7_IFvONS7_IFvvEEEEEEEUlOS8_E_NS_9allocatorISN_EEFvONS7_IFvRS6_EEEEED1Ev, symObjAddr: 0x3BC4, symBinAddr: 0x95CC, symSize: 0x68 }
  - { offset: 0x950E9, size: 0x8, addend: 0x0, symName: __ZNSt3__110__function6__funcIZN8facebook5react18jsinspector_modern18makeScopedExecutorINS4_10HostTargetEEENS_8functionIFvONS7_IFvRT_EEEEEENS_10shared_ptrIS8_EENS7_IFvONS7_IFvvEEEEEEEUlOS8_E_NS_9allocatorISN_EEFvONS7_IFvRS6_EEEEED0Ev, symObjAddr: 0x3C2C, symBinAddr: 0x9634, symSize: 0x68 }
  - { offset: 0x95429, size: 0x8, addend: 0x0, symName: __ZNKSt3__110__function6__funcIZN8facebook5react18jsinspector_modern18makeScopedExecutorINS4_10HostTargetEEENS_8functionIFvONS7_IFvRT_EEEEEENS_10shared_ptrIS8_EENS7_IFvONS7_IFvvEEEEEEEUlOS8_E_NS_9allocatorISN_EEFvONS7_IFvRS6_EEEEE7__cloneEv, symObjAddr: 0x3C94, symBinAddr: 0x969C, symSize: 0x64 }
  - { offset: 0x95640, size: 0x8, addend: 0x0, symName: __ZNSt3__110__function12__alloc_funcIZN8facebook5react18jsinspector_modern18makeScopedExecutorINS4_10HostTargetEEENS_8functionIFvONS7_IFvRT_EEEEEENS_10shared_ptrIS8_EENS7_IFvONS7_IFvvEEEEEEEUlOS8_E_NS_9allocatorISN_EEFvONS7_IFvRS6_EEEEEC2B8ne200100ERKSN_OSP_, symObjAddr: 0x3E00, symBinAddr: 0x9808, symSize: 0x64 }
  - { offset: 0x95867, size: 0x8, addend: 0x0, symName: __ZNKSt3__110__function6__funcIZN8facebook5react18jsinspector_modern18makeScopedExecutorINS4_10HostTargetEEENS_8functionIFvONS7_IFvRT_EEEEEENS_10shared_ptrIS8_EENS7_IFvONS7_IFvvEEEEEEEUlOS8_E_NS_9allocatorISN_EEFvONS7_IFvRS6_EEEEE7__cloneEPNS0_6__baseISU_EE, symObjAddr: 0x3CF8, symBinAddr: 0x9700, symSize: 0x24 }
  - { offset: 0x958F8, size: 0x8, addend: 0x0, symName: __ZNSt3__110__function12__alloc_funcIZN8facebook5react18jsinspector_modern18makeScopedExecutorINS4_10HostTargetEEENS_8functionIFvONS7_IFvRT_EEEEEENS_10shared_ptrIS8_EENS7_IFvONS7_IFvvEEEEEEEUlOS8_E_NS_9allocatorISN_EEFvONS7_IFvRS6_EEEEEC2B8ne200100ERKSN_RKSP_, symObjAddr: 0x3E64, symBinAddr: 0x986C, symSize: 0x64 }
  - { offset: 0x95A91, size: 0x8, addend: 0x0, symName: __ZNSt3__110__function6__funcIZN8facebook5react18jsinspector_modern18makeScopedExecutorINS4_10HostTargetEEENS_8functionIFvONS7_IFvRT_EEEEEENS_10shared_ptrIS8_EENS7_IFvONS7_IFvvEEEEEEEUlOS8_E_NS_9allocatorISN_EEFvONS7_IFvRS6_EEEEE7destroyEv, symObjAddr: 0x3D1C, symBinAddr: 0x9724, symSize: 0x8 }
  - { offset: 0x95AC5, size: 0x8, addend: 0x0, symName: __ZNSt3__110__function12__alloc_funcIZN8facebook5react18jsinspector_modern18makeScopedExecutorINS4_10HostTargetEEENS_8functionIFvONS7_IFvRT_EEEEEENS_10shared_ptrIS8_EENS7_IFvONS7_IFvvEEEEEEEUlOS8_E_NS_9allocatorISN_EEFvONS7_IFvRS6_EEEEE7destroyB8ne200100Ev, symObjAddr: 0x3EC8, symBinAddr: 0x98D0, symSize: 0x5C }
  - { offset: 0x95BEB, size: 0x8, addend: 0x0, symName: __ZNSt3__110__function6__funcIZN8facebook5react18jsinspector_modern18makeScopedExecutorINS4_10HostTargetEEENS_8functionIFvONS7_IFvRT_EEEEEENS_10shared_ptrIS8_EENS7_IFvONS7_IFvvEEEEEEEUlOS8_E_NS_9allocatorISN_EEFvONS7_IFvRS6_EEEEE18destroy_deallocateEv, symObjAddr: 0x3D24, symBinAddr: 0x972C, symSize: 0x28 }
  - { offset: 0x95D08, size: 0x8, addend: 0x0, symName: __ZNSt3__110__function6__funcIZN8facebook5react18jsinspector_modern18makeScopedExecutorINS4_10HostTargetEEENS_8functionIFvONS7_IFvRT_EEEEEENS_10shared_ptrIS8_EENS7_IFvONS7_IFvvEEEEEEEUlOS8_E_NS_9allocatorISN_EEFvONS7_IFvRS6_EEEEEclEST_, symObjAddr: 0x3D4C, symBinAddr: 0x9754, symSize: 0x8 }
  - { offset: 0x95DC5, size: 0x8, addend: 0x0, symName: __ZNKSt3__110__function6__funcIZN8facebook5react18jsinspector_modern18makeScopedExecutorINS4_10HostTargetEEENS_8functionIFvONS7_IFvRT_EEEEEENS_10shared_ptrIS8_EENS7_IFvONS7_IFvvEEEEEEEUlOS8_E_NS_9allocatorISN_EEFvONS7_IFvRS6_EEEEE6targetERKSt9type_info, symObjAddr: 0x3D54, symBinAddr: 0x975C, symSize: 0x3C }
  - { offset: 0x95E12, size: 0x8, addend: 0x0, symName: __ZNKSt3__110__function6__funcIZN8facebook5react18jsinspector_modern18makeScopedExecutorINS4_10HostTargetEEENS_8functionIFvONS7_IFvRT_EEEEEENS_10shared_ptrIS8_EENS7_IFvONS7_IFvvEEEEEEEUlOS8_E_NS_9allocatorISN_EEFvONS7_IFvRS6_EEEEE11target_typeEv, symObjAddr: 0x3D90, symBinAddr: 0x9798, symSize: 0xC }
  - { offset: 0x96261, size: 0x8, addend: 0x0, symName: __ZNSt3__110__function12__value_funcIFvRN8facebook5react18jsinspector_modern10HostTargetEEEC2B8ne200100EOS8_, symObjAddr: 0x4104, symBinAddr: 0x9AB4, symSize: 0x64 }
  - { offset: 0x9638E, size: 0x8, addend: 0x0, symName: __ZNSt3__110__function6__funcIZZN8facebook5react18jsinspector_modern18makeScopedExecutorINS4_10HostTargetEEENS_8functionIFvONS7_IFvRT_EEEEEENS_10shared_ptrIS8_EENS7_IFvONS7_IFvvEEEEEEENKUlOS8_E_clINS7_IFvRS6_EEEEEDaSM_EUlvE_NS_9allocatorIST_EESH_ED1Ev, symObjAddr: 0x4168, symBinAddr: 0x9B18, symSize: 0x64 }
  - { offset: 0x96526, size: 0x8, addend: 0x0, symName: __ZNSt3__110__function6__funcIZZN8facebook5react18jsinspector_modern18makeScopedExecutorINS4_10HostTargetEEENS_8functionIFvONS7_IFvRT_EEEEEENS_10shared_ptrIS8_EENS7_IFvONS7_IFvvEEEEEEENKUlOS8_E_clINS7_IFvRS6_EEEEEDaSM_EUlvE_NS_9allocatorIST_EESH_ED0Ev, symObjAddr: 0x41CC, symBinAddr: 0x9B7C, symSize: 0x64 }
  - { offset: 0x96866, size: 0x8, addend: 0x0, symName: __ZNKSt3__110__function6__funcIZZN8facebook5react18jsinspector_modern18makeScopedExecutorINS4_10HostTargetEEENS_8functionIFvONS7_IFvRT_EEEEEENS_10shared_ptrIS8_EENS7_IFvONS7_IFvvEEEEEEENKUlOS8_E_clINS7_IFvRS6_EEEEEDaSM_EUlvE_NS_9allocatorIST_EESH_E7__cloneEv, symObjAddr: 0x4230, symBinAddr: 0x9BE0, symSize: 0x60 }
  - { offset: 0x96A7D, size: 0x8, addend: 0x0, symName: __ZNSt3__110__function12__alloc_funcIZZN8facebook5react18jsinspector_modern18makeScopedExecutorINS4_10HostTargetEEENS_8functionIFvONS7_IFvRT_EEEEEENS_10shared_ptrIS8_EENS7_IFvONS7_IFvvEEEEEEENKUlOS8_E_clINS7_IFvRS6_EEEEEDaSM_EUlvE_NS_9allocatorIST_EESH_EC2B8ne200100ERKST_OSV_, symObjAddr: 0x4330, symBinAddr: 0x9CE0, symSize: 0x64 }
  - { offset: 0x96CA4, size: 0x8, addend: 0x0, symName: __ZNKSt3__110__function6__funcIZZN8facebook5react18jsinspector_modern18makeScopedExecutorINS4_10HostTargetEEENS_8functionIFvONS7_IFvRT_EEEEEENS_10shared_ptrIS8_EENS7_IFvONS7_IFvvEEEEEEENKUlOS8_E_clINS7_IFvRS6_EEEEEDaSM_EUlvE_NS_9allocatorIST_EESH_E7__cloneEPNS0_6__baseISH_EE, symObjAddr: 0x4290, symBinAddr: 0x9C40, symSize: 0x20 }
  - { offset: 0x96D35, size: 0x8, addend: 0x0, symName: __ZNSt3__110__function12__alloc_funcIZZN8facebook5react18jsinspector_modern18makeScopedExecutorINS4_10HostTargetEEENS_8functionIFvONS7_IFvRT_EEEEEENS_10shared_ptrIS8_EENS7_IFvONS7_IFvvEEEEEEENKUlOS8_E_clINS7_IFvRS6_EEEEEDaSM_EUlvE_NS_9allocatorIST_EESH_EC2B8ne200100ERKST_RKSV_, symObjAddr: 0x43F8, symBinAddr: 0x9D44, symSize: 0x64 }
  - { offset: 0x96ECE, size: 0x8, addend: 0x0, symName: __ZNSt3__110__function6__funcIZZN8facebook5react18jsinspector_modern18makeScopedExecutorINS4_10HostTargetEEENS_8functionIFvONS7_IFvRT_EEEEEENS_10shared_ptrIS8_EENS7_IFvONS7_IFvvEEEEEEENKUlOS8_E_clINS7_IFvRS6_EEEEEDaSM_EUlvE_NS_9allocatorIST_EESH_E7destroyEv, symObjAddr: 0x42B0, symBinAddr: 0x9C60, symSize: 0x8 }
  - { offset: 0x96FA6, size: 0x8, addend: 0x0, symName: __ZNSt3__110__function6__funcIZZN8facebook5react18jsinspector_modern18makeScopedExecutorINS4_10HostTargetEEENS_8functionIFvONS7_IFvRT_EEEEEENS_10shared_ptrIS8_EENS7_IFvONS7_IFvvEEEEEEENKUlOS8_E_clINS7_IFvRS6_EEEEEDaSM_EUlvE_NS_9allocatorIST_EESH_E18destroy_deallocateEv, symObjAddr: 0x42B8, symBinAddr: 0x9C68, symSize: 0x28 }
  - { offset: 0x97087, size: 0x8, addend: 0x0, symName: __ZNSt3__110__function6__funcIZZN8facebook5react18jsinspector_modern18makeScopedExecutorINS4_10HostTargetEEENS_8functionIFvONS7_IFvRT_EEEEEENS_10shared_ptrIS8_EENS7_IFvONS7_IFvvEEEEEEENKUlOS8_E_clINS7_IFvRS6_EEEEEDaSM_EUlvE_NS_9allocatorIST_EESH_EclEv, symObjAddr: 0x42E0, symBinAddr: 0x9C90, symSize: 0x8 }
  - { offset: 0x970E6, size: 0x8, addend: 0x0, symName: __ZNSt3__128__invoke_void_return_wrapperIvLb1EE6__callB8ne200100IJRZZN8facebook5react18jsinspector_modern18makeScopedExecutorINS5_10HostTargetEEENS_8functionIFvONS8_IFvRT_EEEEEENS_10shared_ptrIS9_EENS8_IFvONS8_IFvvEEEEEEENKUlOS9_E_clINS8_IFvRS7_EEEEEDaSN_EUlvE_EEEvDpOT_, symObjAddr: 0x44B8, symBinAddr: 0x9DA8, symSize: 0xB4 }
  - { offset: 0x9728A, size: 0x8, addend: 0x0, symName: __ZNKSt3__110__function6__funcIZZN8facebook5react18jsinspector_modern18makeScopedExecutorINS4_10HostTargetEEENS_8functionIFvONS7_IFvRT_EEEEEENS_10shared_ptrIS8_EENS7_IFvONS7_IFvvEEEEEEENKUlOS8_E_clINS7_IFvRS6_EEEEEDaSM_EUlvE_NS_9allocatorIST_EESH_E6targetERKSt9type_info, symObjAddr: 0x42E8, symBinAddr: 0x9C98, symSize: 0x3C }
  - { offset: 0x972D7, size: 0x8, addend: 0x0, symName: __ZNKSt3__110__function6__funcIZZN8facebook5react18jsinspector_modern18makeScopedExecutorINS4_10HostTargetEEENS_8functionIFvONS7_IFvRT_EEEEEENS_10shared_ptrIS8_EENS7_IFvONS7_IFvvEEEEEEENKUlOS8_E_clINS7_IFvRS6_EEEEEDaSM_EUlvE_NS_9allocatorIST_EESH_E11target_typeEv, symObjAddr: 0x4324, symBinAddr: 0x9CD4, symSize: 0xC }
  - { offset: 0x9752A, size: 0x8, addend: 0x0, symName: __ZNSt3__120__shared_ptr_emplaceIN8facebook5react23BufferedRuntimeExecutorENS_9allocatorIS3_EEEC2B8ne200100IJRNS_8functionIFvONS8_IFvRNS1_3jsi7RuntimeEEEEEEEES5_Li0EEES5_DpOT_, symObjAddr: 0x46F4, symBinAddr: 0x9F28, symSize: 0x4C }
  - { offset: 0x97691, size: 0x8, addend: 0x0, symName: __ZNSt3__120__shared_ptr_emplaceIN8facebook5react23BufferedRuntimeExecutorENS_9allocatorIS3_EEED1Ev, symObjAddr: 0x4740, symBinAddr: 0x9F74, symSize: 0x14 }
  - { offset: 0x976B3, size: 0x8, addend: 0x0, symName: __ZNSt3__120__shared_ptr_emplaceIN8facebook5react23BufferedRuntimeExecutorENS_9allocatorIS3_EEED1Ev, symObjAddr: 0x4740, symBinAddr: 0x9F74, symSize: 0x14 }
  - { offset: 0x976E6, size: 0x8, addend: 0x0, symName: __ZNSt3__120__shared_ptr_emplaceIN8facebook5react23BufferedRuntimeExecutorENS_9allocatorIS3_EEED0Ev, symObjAddr: 0x4754, symBinAddr: 0x9F88, symSize: 0x24 }
  - { offset: 0x977B2, size: 0x8, addend: 0x0, symName: __ZNSt3__120__shared_ptr_emplaceIN8facebook5react23BufferedRuntimeExecutorENS_9allocatorIS3_EEE16__on_zero_sharedEv, symObjAddr: 0x4778, symBinAddr: 0x9FAC, symSize: 0x8 }
  - { offset: 0x977DA, size: 0x8, addend: 0x0, symName: __ZNSt3__120__shared_ptr_emplaceIN8facebook5react23BufferedRuntimeExecutorENS_9allocatorIS3_EEE16__on_zero_sharedEv, symObjAddr: 0x4778, symBinAddr: 0x9FAC, symSize: 0x8 }
  - { offset: 0x977F7, size: 0x8, addend: 0x0, symName: __ZNSt3__120__shared_ptr_emplaceIN8facebook5react23BufferedRuntimeExecutorENS_9allocatorIS3_EEE16__on_zero_sharedEv, symObjAddr: 0x4778, symBinAddr: 0x9FAC, symSize: 0x8 }
  - { offset: 0x97835, size: 0x8, addend: 0x0, symName: __ZNSt3__120__shared_ptr_emplaceIN8facebook5react23BufferedRuntimeExecutorENS_9allocatorIS3_EEE21__on_zero_shared_weakEv, symObjAddr: 0x4780, symBinAddr: 0x9FB4, symSize: 0x4 }
  - { offset: 0x97867, size: 0x8, addend: 0x0, symName: __ZNSt3__120__shared_ptr_emplaceIN8facebook5react23BufferedRuntimeExecutorENS_9allocatorIS3_EEE21__on_zero_shared_weakEv, symObjAddr: 0x4780, symBinAddr: 0x9FB4, symSize: 0x4 }
  - { offset: 0x97889, size: 0x8, addend: 0x0, symName: __ZNSt3__120__shared_ptr_emplaceIN8facebook5react23BufferedRuntimeExecutorENS_9allocatorIS3_EEE21__on_zero_shared_weakEv, symObjAddr: 0x4780, symBinAddr: 0x9FB4, symSize: 0x4 }
  - { offset: 0x978AC, size: 0x8, addend: 0x0, symName: __ZNSt3__120__shared_ptr_emplaceIN8facebook5react23BufferedRuntimeExecutorENS_9allocatorIS3_EEE21__on_zero_shared_weakEv, symObjAddr: 0x4780, symBinAddr: 0x9FB4, symSize: 0x4 }
  - { offset: 0x978E2, size: 0x8, addend: 0x0, symName: __ZNSt3__120__shared_ptr_emplaceIN8facebook5react23BufferedRuntimeExecutorENS_9allocatorIS3_EEE21__on_zero_shared_weakEv, symObjAddr: 0x4780, symBinAddr: 0x9FB4, symSize: 0x4 }
  - { offset: 0x979FB, size: 0x8, addend: 0x0, symName: __ZNSt3__16vectorIN8facebook5react23BufferedRuntimeExecutor12BufferedWorkENS_9allocatorIS4_EEE16__destroy_vectorclB8ne200100Ev, symObjAddr: 0x48B8, symBinAddr: 0xA0EC, symSize: 0x94 }
  - { offset: 0x97D64, size: 0x8, addend: 0x0, symName: '__ZNSt3__110__function6__funcIZN8facebook5react13ReactInstanceC1ENS_10unique_ptrINS3_9JSRuntimeENS_14default_deleteIS6_EEEENS_10shared_ptrINS3_18MessageQueueThreadEEENSA_INS3_12TimerManagerEEENS_8functionIFvRNS2_3jsi7RuntimeERKNS3_14JsErrorHandler14ProcessedErrorEEEEPNS3_18jsinspector_modern10HostTargetEE3$_1NS_9allocatorISS_EEFvONSF_IFvSI_EEEEED1Ev', symObjAddr: 0x494C, symBinAddr: 0xA180, symSize: 0x30 }
  - { offset: 0x97E59, size: 0x8, addend: 0x0, symName: '__ZNSt3__110__function6__funcIZN8facebook5react13ReactInstanceC1ENS_10unique_ptrINS3_9JSRuntimeENS_14default_deleteIS6_EEEENS_10shared_ptrINS3_18MessageQueueThreadEEENSA_INS3_12TimerManagerEEENS_8functionIFvRNS2_3jsi7RuntimeERKNS3_14JsErrorHandler14ProcessedErrorEEEEPNS3_18jsinspector_modern10HostTargetEE3$_1NS_9allocatorISS_EEFvONSF_IFvSI_EEEEED0Ev', symObjAddr: 0x497C, symBinAddr: 0xA1B0, symSize: 0x30 }
  - { offset: 0x9803A, size: 0x8, addend: 0x0, symName: '__ZNKSt3__110__function6__funcIZN8facebook5react13ReactInstanceC1ENS_10unique_ptrINS3_9JSRuntimeENS_14default_deleteIS6_EEEENS_10shared_ptrINS3_18MessageQueueThreadEEENSA_INS3_12TimerManagerEEENS_8functionIFvRNS2_3jsi7RuntimeERKNS3_14JsErrorHandler14ProcessedErrorEEEEPNS3_18jsinspector_modern10HostTargetEE3$_1NS_9allocatorISS_EEFvONSF_IFvSI_EEEEE7__cloneEv', symObjAddr: 0x49AC, symBinAddr: 0xA1E0, symSize: 0x50 }
  - { offset: 0x982DA, size: 0x8, addend: 0x0, symName: '__ZNKSt3__110__function6__funcIZN8facebook5react13ReactInstanceC1ENS_10unique_ptrINS3_9JSRuntimeENS_14default_deleteIS6_EEEENS_10shared_ptrINS3_18MessageQueueThreadEEENSA_INS3_12TimerManagerEEENS_8functionIFvRNS2_3jsi7RuntimeERKNS3_14JsErrorHandler14ProcessedErrorEEEEPNS3_18jsinspector_modern10HostTargetEE3$_1NS_9allocatorISS_EEFvONSF_IFvSI_EEEEE7__cloneEPNS0_6__baseISY_EE', symObjAddr: 0x49FC, symBinAddr: 0xA230, symSize: 0x30 }
  - { offset: 0x9830F, size: 0x8, addend: 0x0, symName: '__ZNKSt3__110__function6__funcIZN8facebook5react13ReactInstanceC1ENS_10unique_ptrINS3_9JSRuntimeENS_14default_deleteIS6_EEEENS_10shared_ptrINS3_18MessageQueueThreadEEENSA_INS3_12TimerManagerEEENS_8functionIFvRNS2_3jsi7RuntimeERKNS3_14JsErrorHandler14ProcessedErrorEEEEPNS3_18jsinspector_modern10HostTargetEE3$_1NS_9allocatorISS_EEFvONSF_IFvSI_EEEEE7__cloneEPNS0_6__baseISY_EE', symObjAddr: 0x49FC, symBinAddr: 0xA230, symSize: 0x30 }
  - { offset: 0x9833D, size: 0x8, addend: 0x0, symName: '__ZNKSt3__110__function6__funcIZN8facebook5react13ReactInstanceC1ENS_10unique_ptrINS3_9JSRuntimeENS_14default_deleteIS6_EEEENS_10shared_ptrINS3_18MessageQueueThreadEEENSA_INS3_12TimerManagerEEENS_8functionIFvRNS2_3jsi7RuntimeERKNS3_14JsErrorHandler14ProcessedErrorEEEEPNS3_18jsinspector_modern10HostTargetEE3$_1NS_9allocatorISS_EEFvONSF_IFvSI_EEEEE7__cloneEPNS0_6__baseISY_EE', symObjAddr: 0x49FC, symBinAddr: 0xA230, symSize: 0x30 }
  - { offset: 0x98464, size: 0x8, addend: 0x0, symName: '__ZNSt3__110__function6__funcIZN8facebook5react13ReactInstanceC1ENS_10unique_ptrINS3_9JSRuntimeENS_14default_deleteIS6_EEEENS_10shared_ptrINS3_18MessageQueueThreadEEENSA_INS3_12TimerManagerEEENS_8functionIFvRNS2_3jsi7RuntimeERKNS3_14JsErrorHandler14ProcessedErrorEEEEPNS3_18jsinspector_modern10HostTargetEE3$_1NS_9allocatorISS_EEFvONSF_IFvSI_EEEEE7destroyEv', symObjAddr: 0x4A2C, symBinAddr: 0xA260, symSize: 0x8 }
  - { offset: 0x9851C, size: 0x8, addend: 0x0, symName: '__ZNSt3__110__function6__funcIZN8facebook5react13ReactInstanceC1ENS_10unique_ptrINS3_9JSRuntimeENS_14default_deleteIS6_EEEENS_10shared_ptrINS3_18MessageQueueThreadEEENSA_INS3_12TimerManagerEEENS_8functionIFvRNS2_3jsi7RuntimeERKNS3_14JsErrorHandler14ProcessedErrorEEEEPNS3_18jsinspector_modern10HostTargetEE3$_1NS_9allocatorISS_EEFvONSF_IFvSI_EEEEE18destroy_deallocateEv', symObjAddr: 0x4A34, symBinAddr: 0xA268, symSize: 0x28 }
  - { offset: 0x986CE, size: 0x8, addend: 0x0, symName: '__ZNSt3__110__function6__funcIZN8facebook5react13ReactInstanceC1ENS_10unique_ptrINS3_9JSRuntimeENS_14default_deleteIS6_EEEENS_10shared_ptrINS3_18MessageQueueThreadEEENSA_INS3_12TimerManagerEEENS_8functionIFvRNS2_3jsi7RuntimeERKNS3_14JsErrorHandler14ProcessedErrorEEEEPNS3_18jsinspector_modern10HostTargetEE3$_1NS_9allocatorISS_EEFvONSF_IFvSI_EEEEEclESX_', symObjAddr: 0x4A5C, symBinAddr: 0xA290, symSize: 0x8 }
  - { offset: 0x98705, size: 0x8, addend: 0x0, symName: '__ZNSt3__110__function6__funcIZN8facebook5react13ReactInstanceC1ENS_10unique_ptrINS3_9JSRuntimeENS_14default_deleteIS6_EEEENS_10shared_ptrINS3_18MessageQueueThreadEEENSA_INS3_12TimerManagerEEENS_8functionIFvRNS2_3jsi7RuntimeERKNS3_14JsErrorHandler14ProcessedErrorEEEEPNS3_18jsinspector_modern10HostTargetEE3$_1NS_9allocatorISS_EEFvONSF_IFvSI_EEEEEclESX_', symObjAddr: 0x4A5C, symBinAddr: 0xA290, symSize: 0x8 }
  - { offset: 0x9872A, size: 0x8, addend: 0x0, symName: '__ZNSt3__110__function6__funcIZN8facebook5react13ReactInstanceC1ENS_10unique_ptrINS3_9JSRuntimeENS_14default_deleteIS6_EEEENS_10shared_ptrINS3_18MessageQueueThreadEEENSA_INS3_12TimerManagerEEENS_8functionIFvRNS2_3jsi7RuntimeERKNS3_14JsErrorHandler14ProcessedErrorEEEEPNS3_18jsinspector_modern10HostTargetEE3$_1NS_9allocatorISS_EEFvONSF_IFvSI_EEEEEclESX_', symObjAddr: 0x4A5C, symBinAddr: 0xA290, symSize: 0x8 }
  - { offset: 0x9874E, size: 0x8, addend: 0x0, symName: '__ZNSt3__110__function6__funcIZN8facebook5react13ReactInstanceC1ENS_10unique_ptrINS3_9JSRuntimeENS_14default_deleteIS6_EEEENS_10shared_ptrINS3_18MessageQueueThreadEEENSA_INS3_12TimerManagerEEENS_8functionIFvRNS2_3jsi7RuntimeERKNS3_14JsErrorHandler14ProcessedErrorEEEEPNS3_18jsinspector_modern10HostTargetEE3$_1NS_9allocatorISS_EEFvONSF_IFvSI_EEEEEclESX_', symObjAddr: 0x4A5C, symBinAddr: 0xA290, symSize: 0x8 }
  - { offset: 0x98773, size: 0x8, addend: 0x0, symName: '__ZNSt3__110__function6__funcIZN8facebook5react13ReactInstanceC1ENS_10unique_ptrINS3_9JSRuntimeENS_14default_deleteIS6_EEEENS_10shared_ptrINS3_18MessageQueueThreadEEENSA_INS3_12TimerManagerEEENS_8functionIFvRNS2_3jsi7RuntimeERKNS3_14JsErrorHandler14ProcessedErrorEEEEPNS3_18jsinspector_modern10HostTargetEE3$_1NS_9allocatorISS_EEFvONSF_IFvSI_EEEEEclESX_', symObjAddr: 0x4A5C, symBinAddr: 0xA290, symSize: 0x8 }
  - { offset: 0x98797, size: 0x8, addend: 0x0, symName: '__ZNSt3__110__function6__funcIZN8facebook5react13ReactInstanceC1ENS_10unique_ptrINS3_9JSRuntimeENS_14default_deleteIS6_EEEENS_10shared_ptrINS3_18MessageQueueThreadEEENSA_INS3_12TimerManagerEEENS_8functionIFvRNS2_3jsi7RuntimeERKNS3_14JsErrorHandler14ProcessedErrorEEEEPNS3_18jsinspector_modern10HostTargetEE3$_1NS_9allocatorISS_EEFvONSF_IFvSI_EEEEEclESX_', symObjAddr: 0x4A5C, symBinAddr: 0xA290, symSize: 0x8 }
  - { offset: 0x987BB, size: 0x8, addend: 0x0, symName: '__ZNSt3__110__function6__funcIZN8facebook5react13ReactInstanceC1ENS_10unique_ptrINS3_9JSRuntimeENS_14default_deleteIS6_EEEENS_10shared_ptrINS3_18MessageQueueThreadEEENSA_INS3_12TimerManagerEEENS_8functionIFvRNS2_3jsi7RuntimeERKNS3_14JsErrorHandler14ProcessedErrorEEEEPNS3_18jsinspector_modern10HostTargetEE3$_1NS_9allocatorISS_EEFvONSF_IFvSI_EEEEEclESX_', symObjAddr: 0x4A5C, symBinAddr: 0xA290, symSize: 0x8 }
  - { offset: 0x987DC, size: 0x8, addend: 0x0, symName: '__ZNKSt3__110__function6__funcIZN8facebook5react13ReactInstanceC1ENS_10unique_ptrINS3_9JSRuntimeENS_14default_deleteIS6_EEEENS_10shared_ptrINS3_18MessageQueueThreadEEENSA_INS3_12TimerManagerEEENS_8functionIFvRNS2_3jsi7RuntimeERKNS3_14JsErrorHandler14ProcessedErrorEEEEPNS3_18jsinspector_modern10HostTargetEE3$_1NS_9allocatorISS_EEFvONSF_IFvSI_EEEEE6targetERKSt9type_info', symObjAddr: 0x4A64, symBinAddr: 0xA298, symSize: 0x3C }
  - { offset: 0x98829, size: 0x8, addend: 0x0, symName: '__ZNKSt3__110__function6__funcIZN8facebook5react13ReactInstanceC1ENS_10unique_ptrINS3_9JSRuntimeENS_14default_deleteIS6_EEEENS_10shared_ptrINS3_18MessageQueueThreadEEENSA_INS3_12TimerManagerEEENS_8functionIFvRNS2_3jsi7RuntimeERKNS3_14JsErrorHandler14ProcessedErrorEEEEPNS3_18jsinspector_modern10HostTargetEE3$_1NS_9allocatorISS_EEFvONSF_IFvSI_EEEEE11target_typeEv', symObjAddr: 0x4AA0, symBinAddr: 0xA2D4, symSize: 0xC }
  - { offset: 0x9889A, size: 0x8, addend: 0x0, symName: '__ZNSt3__110__function6__funcIZN8facebook5react13ReactInstanceC1ENS_10unique_ptrINS3_9JSRuntimeENS_14default_deleteIS6_EEEENS_10shared_ptrINS3_18MessageQueueThreadEEENSA_INS3_12TimerManagerEEENS_8functionIFvRNS2_3jsi7RuntimeERKNS3_14JsErrorHandler14ProcessedErrorEEEEPNS3_18jsinspector_modern10HostTargetEE3$_2NS_9allocatorISS_EEFvSI_RNSG_7JSErrorEEED1Ev', symObjAddr: 0x4AAC, symBinAddr: 0xA2E0, symSize: 0x30 }
  - { offset: 0x9898F, size: 0x8, addend: 0x0, symName: '__ZNSt3__110__function6__funcIZN8facebook5react13ReactInstanceC1ENS_10unique_ptrINS3_9JSRuntimeENS_14default_deleteIS6_EEEENS_10shared_ptrINS3_18MessageQueueThreadEEENSA_INS3_12TimerManagerEEENS_8functionIFvRNS2_3jsi7RuntimeERKNS3_14JsErrorHandler14ProcessedErrorEEEEPNS3_18jsinspector_modern10HostTargetEE3$_2NS_9allocatorISS_EEFvSI_RNSG_7JSErrorEEED0Ev', symObjAddr: 0x4ADC, symBinAddr: 0xA310, symSize: 0x30 }
  - { offset: 0x98BAE, size: 0x8, addend: 0x0, symName: '__ZNKSt3__110__function6__funcIZN8facebook5react13ReactInstanceC1ENS_10unique_ptrINS3_9JSRuntimeENS_14default_deleteIS6_EEEENS_10shared_ptrINS3_18MessageQueueThreadEEENSA_INS3_12TimerManagerEEENS_8functionIFvRNS2_3jsi7RuntimeERKNS3_14JsErrorHandler14ProcessedErrorEEEEPNS3_18jsinspector_modern10HostTargetEE3$_2NS_9allocatorISS_EEFvSI_RNSG_7JSErrorEEE7__cloneEv', symObjAddr: 0x4B0C, symBinAddr: 0xA340, symSize: 0x50 }
  - { offset: 0x98E4E, size: 0x8, addend: 0x0, symName: '__ZNKSt3__110__function6__funcIZN8facebook5react13ReactInstanceC1ENS_10unique_ptrINS3_9JSRuntimeENS_14default_deleteIS6_EEEENS_10shared_ptrINS3_18MessageQueueThreadEEENSA_INS3_12TimerManagerEEENS_8functionIFvRNS2_3jsi7RuntimeERKNS3_14JsErrorHandler14ProcessedErrorEEEEPNS3_18jsinspector_modern10HostTargetEE3$_2NS_9allocatorISS_EEFvSI_RNSG_7JSErrorEEE7__cloneEPNS0_6__baseISX_EE', symObjAddr: 0x4B5C, symBinAddr: 0xA390, symSize: 0x30 }
  - { offset: 0x98E83, size: 0x8, addend: 0x0, symName: '__ZNKSt3__110__function6__funcIZN8facebook5react13ReactInstanceC1ENS_10unique_ptrINS3_9JSRuntimeENS_14default_deleteIS6_EEEENS_10shared_ptrINS3_18MessageQueueThreadEEENSA_INS3_12TimerManagerEEENS_8functionIFvRNS2_3jsi7RuntimeERKNS3_14JsErrorHandler14ProcessedErrorEEEEPNS3_18jsinspector_modern10HostTargetEE3$_2NS_9allocatorISS_EEFvSI_RNSG_7JSErrorEEE7__cloneEPNS0_6__baseISX_EE', symObjAddr: 0x4B5C, symBinAddr: 0xA390, symSize: 0x30 }
  - { offset: 0x98EB1, size: 0x8, addend: 0x0, symName: '__ZNKSt3__110__function6__funcIZN8facebook5react13ReactInstanceC1ENS_10unique_ptrINS3_9JSRuntimeENS_14default_deleteIS6_EEEENS_10shared_ptrINS3_18MessageQueueThreadEEENSA_INS3_12TimerManagerEEENS_8functionIFvRNS2_3jsi7RuntimeERKNS3_14JsErrorHandler14ProcessedErrorEEEEPNS3_18jsinspector_modern10HostTargetEE3$_2NS_9allocatorISS_EEFvSI_RNSG_7JSErrorEEE7__cloneEPNS0_6__baseISX_EE', symObjAddr: 0x4B5C, symBinAddr: 0xA390, symSize: 0x30 }
  - { offset: 0x98FD8, size: 0x8, addend: 0x0, symName: '__ZNSt3__110__function6__funcIZN8facebook5react13ReactInstanceC1ENS_10unique_ptrINS3_9JSRuntimeENS_14default_deleteIS6_EEEENS_10shared_ptrINS3_18MessageQueueThreadEEENSA_INS3_12TimerManagerEEENS_8functionIFvRNS2_3jsi7RuntimeERKNS3_14JsErrorHandler14ProcessedErrorEEEEPNS3_18jsinspector_modern10HostTargetEE3$_2NS_9allocatorISS_EEFvSI_RNSG_7JSErrorEEE7destroyEv', symObjAddr: 0x4B8C, symBinAddr: 0xA3C0, symSize: 0x8 }
  - { offset: 0x99090, size: 0x8, addend: 0x0, symName: '__ZNSt3__110__function6__funcIZN8facebook5react13ReactInstanceC1ENS_10unique_ptrINS3_9JSRuntimeENS_14default_deleteIS6_EEEENS_10shared_ptrINS3_18MessageQueueThreadEEENSA_INS3_12TimerManagerEEENS_8functionIFvRNS2_3jsi7RuntimeERKNS3_14JsErrorHandler14ProcessedErrorEEEEPNS3_18jsinspector_modern10HostTargetEE3$_2NS_9allocatorISS_EEFvSI_RNSG_7JSErrorEEE18destroy_deallocateEv', symObjAddr: 0x4B94, symBinAddr: 0xA3C8, symSize: 0x28 }
  - { offset: 0x99255, size: 0x8, addend: 0x0, symName: '__ZNSt3__110__function6__funcIZN8facebook5react13ReactInstanceC1ENS_10unique_ptrINS3_9JSRuntimeENS_14default_deleteIS6_EEEENS_10shared_ptrINS3_18MessageQueueThreadEEENSA_INS3_12TimerManagerEEENS_8functionIFvRNS2_3jsi7RuntimeERKNS3_14JsErrorHandler14ProcessedErrorEEEEPNS3_18jsinspector_modern10HostTargetEE3$_2NS_9allocatorISS_EEFvSI_RNSG_7JSErrorEEEclESI_SW_', symObjAddr: 0x4BBC, symBinAddr: 0xA3F0, symSize: 0x10 }
  - { offset: 0x9929B, size: 0x8, addend: 0x0, symName: '__ZNSt3__110__function6__funcIZN8facebook5react13ReactInstanceC1ENS_10unique_ptrINS3_9JSRuntimeENS_14default_deleteIS6_EEEENS_10shared_ptrINS3_18MessageQueueThreadEEENSA_INS3_12TimerManagerEEENS_8functionIFvRNS2_3jsi7RuntimeERKNS3_14JsErrorHandler14ProcessedErrorEEEEPNS3_18jsinspector_modern10HostTargetEE3$_2NS_9allocatorISS_EEFvSI_RNSG_7JSErrorEEEclESI_SW_', symObjAddr: 0x4BBC, symBinAddr: 0xA3F0, symSize: 0x10 }
  - { offset: 0x992C7, size: 0x8, addend: 0x0, symName: '__ZNSt3__110__function6__funcIZN8facebook5react13ReactInstanceC1ENS_10unique_ptrINS3_9JSRuntimeENS_14default_deleteIS6_EEEENS_10shared_ptrINS3_18MessageQueueThreadEEENSA_INS3_12TimerManagerEEENS_8functionIFvRNS2_3jsi7RuntimeERKNS3_14JsErrorHandler14ProcessedErrorEEEEPNS3_18jsinspector_modern10HostTargetEE3$_2NS_9allocatorISS_EEFvSI_RNSG_7JSErrorEEEclESI_SW_', symObjAddr: 0x4BBC, symBinAddr: 0xA3F0, symSize: 0x10 }
  - { offset: 0x992F2, size: 0x8, addend: 0x0, symName: '__ZNSt3__110__function6__funcIZN8facebook5react13ReactInstanceC1ENS_10unique_ptrINS3_9JSRuntimeENS_14default_deleteIS6_EEEENS_10shared_ptrINS3_18MessageQueueThreadEEENSA_INS3_12TimerManagerEEENS_8functionIFvRNS2_3jsi7RuntimeERKNS3_14JsErrorHandler14ProcessedErrorEEEEPNS3_18jsinspector_modern10HostTargetEE3$_2NS_9allocatorISS_EEFvSI_RNSG_7JSErrorEEEclESI_SW_', symObjAddr: 0x4BBC, symBinAddr: 0xA3F0, symSize: 0x10 }
  - { offset: 0x9931E, size: 0x8, addend: 0x0, symName: '__ZNSt3__110__function6__funcIZN8facebook5react13ReactInstanceC1ENS_10unique_ptrINS3_9JSRuntimeENS_14default_deleteIS6_EEEENS_10shared_ptrINS3_18MessageQueueThreadEEENSA_INS3_12TimerManagerEEENS_8functionIFvRNS2_3jsi7RuntimeERKNS3_14JsErrorHandler14ProcessedErrorEEEEPNS3_18jsinspector_modern10HostTargetEE3$_2NS_9allocatorISS_EEFvSI_RNSG_7JSErrorEEEclESI_SW_', symObjAddr: 0x4BBC, symBinAddr: 0xA3F0, symSize: 0x10 }
  - { offset: 0x99349, size: 0x8, addend: 0x0, symName: '__ZNSt3__110__function6__funcIZN8facebook5react13ReactInstanceC1ENS_10unique_ptrINS3_9JSRuntimeENS_14default_deleteIS6_EEEENS_10shared_ptrINS3_18MessageQueueThreadEEENSA_INS3_12TimerManagerEEENS_8functionIFvRNS2_3jsi7RuntimeERKNS3_14JsErrorHandler14ProcessedErrorEEEEPNS3_18jsinspector_modern10HostTargetEE3$_2NS_9allocatorISS_EEFvSI_RNSG_7JSErrorEEEclESI_SW_', symObjAddr: 0x4BBC, symBinAddr: 0xA3F0, symSize: 0x10 }
  - { offset: 0x99374, size: 0x8, addend: 0x0, symName: '__ZNSt3__110__function6__funcIZN8facebook5react13ReactInstanceC1ENS_10unique_ptrINS3_9JSRuntimeENS_14default_deleteIS6_EEEENS_10shared_ptrINS3_18MessageQueueThreadEEENSA_INS3_12TimerManagerEEENS_8functionIFvRNS2_3jsi7RuntimeERKNS3_14JsErrorHandler14ProcessedErrorEEEEPNS3_18jsinspector_modern10HostTargetEE3$_2NS_9allocatorISS_EEFvSI_RNSG_7JSErrorEEEclESI_SW_', symObjAddr: 0x4BBC, symBinAddr: 0xA3F0, symSize: 0x10 }
  - { offset: 0x99395, size: 0x8, addend: 0x0, symName: '__ZNKSt3__110__function6__funcIZN8facebook5react13ReactInstanceC1ENS_10unique_ptrINS3_9JSRuntimeENS_14default_deleteIS6_EEEENS_10shared_ptrINS3_18MessageQueueThreadEEENSA_INS3_12TimerManagerEEENS_8functionIFvRNS2_3jsi7RuntimeERKNS3_14JsErrorHandler14ProcessedErrorEEEEPNS3_18jsinspector_modern10HostTargetEE3$_2NS_9allocatorISS_EEFvSI_RNSG_7JSErrorEEE6targetERKSt9type_info', symObjAddr: 0x4BCC, symBinAddr: 0xA400, symSize: 0x3C }
  - { offset: 0x993E2, size: 0x8, addend: 0x0, symName: '__ZNKSt3__110__function6__funcIZN8facebook5react13ReactInstanceC1ENS_10unique_ptrINS3_9JSRuntimeENS_14default_deleteIS6_EEEENS_10shared_ptrINS3_18MessageQueueThreadEEENSA_INS3_12TimerManagerEEENS_8functionIFvRNS2_3jsi7RuntimeERKNS3_14JsErrorHandler14ProcessedErrorEEEEPNS3_18jsinspector_modern10HostTargetEE3$_2NS_9allocatorISS_EEFvSI_RNSG_7JSErrorEEE11target_typeEv', symObjAddr: 0x4C08, symBinAddr: 0xA43C, symSize: 0xC }
  - { offset: 0x99487, size: 0x8, addend: 0x0, symName: '__ZNSt3__110__function6__funcIZN8facebook5react13ReactInstanceC1ENS_10unique_ptrINS3_9JSRuntimeENS_14default_deleteIS6_EEEENS_10shared_ptrINS3_18MessageQueueThreadEEENSA_INS3_12TimerManagerEEENS_8functionIFvRNS2_3jsi7RuntimeERKNS3_14JsErrorHandler14ProcessedErrorEEEEPNS3_18jsinspector_modern10HostTargetEE3$_4NS_9allocatorISS_EEFvRSQ_EED1Ev', symObjAddr: 0x4C14, symBinAddr: 0xA448, symSize: 0x30 }
  - { offset: 0x99584, size: 0x8, addend: 0x0, symName: '__ZNSt3__110__function6__funcIZN8facebook5react13ReactInstanceC1ENS_10unique_ptrINS3_9JSRuntimeENS_14default_deleteIS6_EEEENS_10shared_ptrINS3_18MessageQueueThreadEEENSA_INS3_12TimerManagerEEENS_8functionIFvRNS2_3jsi7RuntimeERKNS3_14JsErrorHandler14ProcessedErrorEEEEPNS3_18jsinspector_modern10HostTargetEE3$_4NS_9allocatorISS_EEFvRSQ_EED0Ev', symObjAddr: 0x4C44, symBinAddr: 0xA478, symSize: 0x30 }
  - { offset: 0x99787, size: 0x8, addend: 0x0, symName: '__ZNKSt3__110__function6__funcIZN8facebook5react13ReactInstanceC1ENS_10unique_ptrINS3_9JSRuntimeENS_14default_deleteIS6_EEEENS_10shared_ptrINS3_18MessageQueueThreadEEENSA_INS3_12TimerManagerEEENS_8functionIFvRNS2_3jsi7RuntimeERKNS3_14JsErrorHandler14ProcessedErrorEEEEPNS3_18jsinspector_modern10HostTargetEE3$_4NS_9allocatorISS_EEFvRSQ_EE7__cloneEv', symObjAddr: 0x4C74, symBinAddr: 0xA4A8, symSize: 0x58 }
  - { offset: 0x99A87, size: 0x8, addend: 0x0, symName: '__ZNKSt3__110__function6__funcIZN8facebook5react13ReactInstanceC1ENS_10unique_ptrINS3_9JSRuntimeENS_14default_deleteIS6_EEEENS_10shared_ptrINS3_18MessageQueueThreadEEENSA_INS3_12TimerManagerEEENS_8functionIFvRNS2_3jsi7RuntimeERKNS3_14JsErrorHandler14ProcessedErrorEEEEPNS3_18jsinspector_modern10HostTargetEE3$_4NS_9allocatorISS_EEFvRSQ_EE7__cloneEPNS0_6__baseISW_EE', symObjAddr: 0x4CCC, symBinAddr: 0xA500, symSize: 0x38 }
  - { offset: 0x99ABC, size: 0x8, addend: 0x0, symName: '__ZNKSt3__110__function6__funcIZN8facebook5react13ReactInstanceC1ENS_10unique_ptrINS3_9JSRuntimeENS_14default_deleteIS6_EEEENS_10shared_ptrINS3_18MessageQueueThreadEEENSA_INS3_12TimerManagerEEENS_8functionIFvRNS2_3jsi7RuntimeERKNS3_14JsErrorHandler14ProcessedErrorEEEEPNS3_18jsinspector_modern10HostTargetEE3$_4NS_9allocatorISS_EEFvRSQ_EE7__cloneEPNS0_6__baseISW_EE', symObjAddr: 0x4CCC, symBinAddr: 0xA500, symSize: 0x38 }
  - { offset: 0x99AEA, size: 0x8, addend: 0x0, symName: '__ZNKSt3__110__function6__funcIZN8facebook5react13ReactInstanceC1ENS_10unique_ptrINS3_9JSRuntimeENS_14default_deleteIS6_EEEENS_10shared_ptrINS3_18MessageQueueThreadEEENSA_INS3_12TimerManagerEEENS_8functionIFvRNS2_3jsi7RuntimeERKNS3_14JsErrorHandler14ProcessedErrorEEEEPNS3_18jsinspector_modern10HostTargetEE3$_4NS_9allocatorISS_EEFvRSQ_EE7__cloneEPNS0_6__baseISW_EE', symObjAddr: 0x4CCC, symBinAddr: 0xA500, symSize: 0x38 }
  - { offset: 0x99C83, size: 0x8, addend: 0x0, symName: '__ZNSt3__110__function6__funcIZN8facebook5react13ReactInstanceC1ENS_10unique_ptrINS3_9JSRuntimeENS_14default_deleteIS6_EEEENS_10shared_ptrINS3_18MessageQueueThreadEEENSA_INS3_12TimerManagerEEENS_8functionIFvRNS2_3jsi7RuntimeERKNS3_14JsErrorHandler14ProcessedErrorEEEEPNS3_18jsinspector_modern10HostTargetEE3$_4NS_9allocatorISS_EEFvRSQ_EE7destroyEv', symObjAddr: 0x4D04, symBinAddr: 0xA538, symSize: 0x8 }
  - { offset: 0x99CAB, size: 0x8, addend: 0x0, symName: '__ZNSt3__110__function6__funcIZN8facebook5react13ReactInstanceC1ENS_10unique_ptrINS3_9JSRuntimeENS_14default_deleteIS6_EEEENS_10shared_ptrINS3_18MessageQueueThreadEEENSA_INS3_12TimerManagerEEENS_8functionIFvRNS2_3jsi7RuntimeERKNS3_14JsErrorHandler14ProcessedErrorEEEEPNS3_18jsinspector_modern10HostTargetEE3$_4NS_9allocatorISS_EEFvRSQ_EE7destroyEv', symObjAddr: 0x4D04, symBinAddr: 0xA538, symSize: 0x8 }
  - { offset: 0x99CC9, size: 0x8, addend: 0x0, symName: '__ZNSt3__110__function6__funcIZN8facebook5react13ReactInstanceC1ENS_10unique_ptrINS3_9JSRuntimeENS_14default_deleteIS6_EEEENS_10shared_ptrINS3_18MessageQueueThreadEEENSA_INS3_12TimerManagerEEENS_8functionIFvRNS2_3jsi7RuntimeERKNS3_14JsErrorHandler14ProcessedErrorEEEEPNS3_18jsinspector_modern10HostTargetEE3$_4NS_9allocatorISS_EEFvRSQ_EE7destroyEv', symObjAddr: 0x4D04, symBinAddr: 0xA538, symSize: 0x8 }
  - { offset: 0x99CE6, size: 0x8, addend: 0x0, symName: '__ZNSt3__110__function6__funcIZN8facebook5react13ReactInstanceC1ENS_10unique_ptrINS3_9JSRuntimeENS_14default_deleteIS6_EEEENS_10shared_ptrINS3_18MessageQueueThreadEEENSA_INS3_12TimerManagerEEENS_8functionIFvRNS2_3jsi7RuntimeERKNS3_14JsErrorHandler14ProcessedErrorEEEEPNS3_18jsinspector_modern10HostTargetEE3$_4NS_9allocatorISS_EEFvRSQ_EE7destroyEv', symObjAddr: 0x4D04, symBinAddr: 0xA538, symSize: 0x8 }
  - { offset: 0x99D56, size: 0x8, addend: 0x0, symName: '__ZNSt3__110__function6__funcIZN8facebook5react13ReactInstanceC1ENS_10unique_ptrINS3_9JSRuntimeENS_14default_deleteIS6_EEEENS_10shared_ptrINS3_18MessageQueueThreadEEENSA_INS3_12TimerManagerEEENS_8functionIFvRNS2_3jsi7RuntimeERKNS3_14JsErrorHandler14ProcessedErrorEEEEPNS3_18jsinspector_modern10HostTargetEE3$_4NS_9allocatorISS_EEFvRSQ_EE18destroy_deallocateEv', symObjAddr: 0x4D0C, symBinAddr: 0xA540, symSize: 0x28 }
  - { offset: 0x9A0B1, size: 0x8, addend: 0x0, symName: '__ZNSt3__110__function6__funcIZN8facebook5react13ReactInstanceC1ENS_10unique_ptrINS3_9JSRuntimeENS_14default_deleteIS6_EEEENS_10shared_ptrINS3_18MessageQueueThreadEEENSA_INS3_12TimerManagerEEENS_8functionIFvRNS2_3jsi7RuntimeERKNS3_14JsErrorHandler14ProcessedErrorEEEEPNS3_18jsinspector_modern10HostTargetEE3$_4NS_9allocatorISS_EEFvRSQ_EEclESV_', symObjAddr: 0x4D34, symBinAddr: 0xA568, symSize: 0x118 }
  - { offset: 0x9A3C6, size: 0x8, addend: 0x0, symName: '__ZNKSt3__110__function6__funcIZN8facebook5react13ReactInstanceC1ENS_10unique_ptrINS3_9JSRuntimeENS_14default_deleteIS6_EEEENS_10shared_ptrINS3_18MessageQueueThreadEEENSA_INS3_12TimerManagerEEENS_8functionIFvRNS2_3jsi7RuntimeERKNS3_14JsErrorHandler14ProcessedErrorEEEEPNS3_18jsinspector_modern10HostTargetEE3$_4NS_9allocatorISS_EEFvRSQ_EE6targetERKSt9type_info', symObjAddr: 0x4E4C, symBinAddr: 0xA680, symSize: 0x3C }
  - { offset: 0x9A413, size: 0x8, addend: 0x0, symName: '__ZNKSt3__110__function6__funcIZN8facebook5react13ReactInstanceC1ENS_10unique_ptrINS3_9JSRuntimeENS_14default_deleteIS6_EEEENS_10shared_ptrINS3_18MessageQueueThreadEEENSA_INS3_12TimerManagerEEENS_8functionIFvRNS2_3jsi7RuntimeERKNS3_14JsErrorHandler14ProcessedErrorEEEEPNS3_18jsinspector_modern10HostTargetEE3$_4NS_9allocatorISS_EEFvRSQ_EE11target_typeEv', symObjAddr: 0x4E88, symBinAddr: 0xA6BC, symSize: 0xC }
  - { offset: 0x9A435, size: 0x8, addend: 0x0, symName: '__ZNSt3__110__function6__funcIZN8facebook5react13ReactInstanceC1ENS_10unique_ptrINS3_9JSRuntimeENS_14default_deleteIS6_EEEENS_10shared_ptrINS3_18MessageQueueThreadEEENSA_INS3_12TimerManagerEEENS_8functionIFvRNS2_3jsi7RuntimeERKNS3_14JsErrorHandler14ProcessedErrorEEEEPNS3_18jsinspector_modern10HostTargetEE3$_3NS_9allocatorISS_EEFvONSF_IFvSI_EEEEED1Ev', symObjAddr: 0x4E94, symBinAddr: 0xA6C8, symSize: 0x4 }
  - { offset: 0x9A460, size: 0x8, addend: 0x0, symName: '__ZNSt3__110__function6__funcIZN8facebook5react13ReactInstanceC1ENS_10unique_ptrINS3_9JSRuntimeENS_14default_deleteIS6_EEEENS_10shared_ptrINS3_18MessageQueueThreadEEENSA_INS3_12TimerManagerEEENS_8functionIFvRNS2_3jsi7RuntimeERKNS3_14JsErrorHandler14ProcessedErrorEEEEPNS3_18jsinspector_modern10HostTargetEE3$_3NS_9allocatorISS_EEFvONSF_IFvSI_EEEEED0Ev', symObjAddr: 0x4E98, symBinAddr: 0xA6CC, symSize: 0x4 }
  - { offset: 0x9A56B, size: 0x8, addend: 0x0, symName: '__ZNKSt3__110__function6__funcIZN8facebook5react13ReactInstanceC1ENS_10unique_ptrINS3_9JSRuntimeENS_14default_deleteIS6_EEEENS_10shared_ptrINS3_18MessageQueueThreadEEENSA_INS3_12TimerManagerEEENS_8functionIFvRNS2_3jsi7RuntimeERKNS3_14JsErrorHandler14ProcessedErrorEEEEPNS3_18jsinspector_modern10HostTargetEE3$_3NS_9allocatorISS_EEFvONSF_IFvSI_EEEEE7__cloneEv', symObjAddr: 0x4E9C, symBinAddr: 0xA6D0, symSize: 0x34 }
  - { offset: 0x9A763, size: 0x8, addend: 0x0, symName: '__ZNKSt3__110__function6__funcIZN8facebook5react13ReactInstanceC1ENS_10unique_ptrINS3_9JSRuntimeENS_14default_deleteIS6_EEEENS_10shared_ptrINS3_18MessageQueueThreadEEENSA_INS3_12TimerManagerEEENS_8functionIFvRNS2_3jsi7RuntimeERKNS3_14JsErrorHandler14ProcessedErrorEEEEPNS3_18jsinspector_modern10HostTargetEE3$_3NS_9allocatorISS_EEFvONSF_IFvSI_EEEEE7__cloneEPNS0_6__baseISY_EE', symObjAddr: 0x4ED0, symBinAddr: 0xA704, symSize: 0x14 }
  - { offset: 0x9A798, size: 0x8, addend: 0x0, symName: '__ZNKSt3__110__function6__funcIZN8facebook5react13ReactInstanceC1ENS_10unique_ptrINS3_9JSRuntimeENS_14default_deleteIS6_EEEENS_10shared_ptrINS3_18MessageQueueThreadEEENSA_INS3_12TimerManagerEEENS_8functionIFvRNS2_3jsi7RuntimeERKNS3_14JsErrorHandler14ProcessedErrorEEEEPNS3_18jsinspector_modern10HostTargetEE3$_3NS_9allocatorISS_EEFvONSF_IFvSI_EEEEE7__cloneEPNS0_6__baseISY_EE', symObjAddr: 0x4ED0, symBinAddr: 0xA704, symSize: 0x14 }
  - { offset: 0x9A7C6, size: 0x8, addend: 0x0, symName: '__ZNKSt3__110__function6__funcIZN8facebook5react13ReactInstanceC1ENS_10unique_ptrINS3_9JSRuntimeENS_14default_deleteIS6_EEEENS_10shared_ptrINS3_18MessageQueueThreadEEENSA_INS3_12TimerManagerEEENS_8functionIFvRNS2_3jsi7RuntimeERKNS3_14JsErrorHandler14ProcessedErrorEEEEPNS3_18jsinspector_modern10HostTargetEE3$_3NS_9allocatorISS_EEFvONSF_IFvSI_EEEEE7__cloneEPNS0_6__baseISY_EE', symObjAddr: 0x4ED0, symBinAddr: 0xA704, symSize: 0x14 }
  - { offset: 0x9A7F4, size: 0x8, addend: 0x0, symName: '__ZNKSt3__110__function6__funcIZN8facebook5react13ReactInstanceC1ENS_10unique_ptrINS3_9JSRuntimeENS_14default_deleteIS6_EEEENS_10shared_ptrINS3_18MessageQueueThreadEEENSA_INS3_12TimerManagerEEENS_8functionIFvRNS2_3jsi7RuntimeERKNS3_14JsErrorHandler14ProcessedErrorEEEEPNS3_18jsinspector_modern10HostTargetEE3$_3NS_9allocatorISS_EEFvONSF_IFvSI_EEEEE7__cloneEPNS0_6__baseISY_EE', symObjAddr: 0x4ED0, symBinAddr: 0xA704, symSize: 0x14 }
  - { offset: 0x9A80A, size: 0x8, addend: 0x0, symName: '__ZNKSt3__110__function6__funcIZN8facebook5react13ReactInstanceC1ENS_10unique_ptrINS3_9JSRuntimeENS_14default_deleteIS6_EEEENS_10shared_ptrINS3_18MessageQueueThreadEEENSA_INS3_12TimerManagerEEENS_8functionIFvRNS2_3jsi7RuntimeERKNS3_14JsErrorHandler14ProcessedErrorEEEEPNS3_18jsinspector_modern10HostTargetEE3$_3NS_9allocatorISS_EEFvONSF_IFvSI_EEEEE7__cloneEPNS0_6__baseISY_EE', symObjAddr: 0x4ED0, symBinAddr: 0xA704, symSize: 0x14 }
  - { offset: 0x9A81F, size: 0x8, addend: 0x0, symName: '__ZNSt3__110__function6__funcIZN8facebook5react13ReactInstanceC1ENS_10unique_ptrINS3_9JSRuntimeENS_14default_deleteIS6_EEEENS_10shared_ptrINS3_18MessageQueueThreadEEENSA_INS3_12TimerManagerEEENS_8functionIFvRNS2_3jsi7RuntimeERKNS3_14JsErrorHandler14ProcessedErrorEEEEPNS3_18jsinspector_modern10HostTargetEE3$_3NS_9allocatorISS_EEFvONSF_IFvSI_EEEEE7destroyEv', symObjAddr: 0x4EE4, symBinAddr: 0xA718, symSize: 0x4 }
  - { offset: 0x9A870, size: 0x8, addend: 0x0, symName: '__ZNSt3__110__function6__funcIZN8facebook5react13ReactInstanceC1ENS_10unique_ptrINS3_9JSRuntimeENS_14default_deleteIS6_EEEENS_10shared_ptrINS3_18MessageQueueThreadEEENSA_INS3_12TimerManagerEEENS_8functionIFvRNS2_3jsi7RuntimeERKNS3_14JsErrorHandler14ProcessedErrorEEEEPNS3_18jsinspector_modern10HostTargetEE3$_3NS_9allocatorISS_EEFvONSF_IFvSI_EEEEE18destroy_deallocateEv', symObjAddr: 0x4EE8, symBinAddr: 0xA71C, symSize: 0x4 }
  - { offset: 0x9A8A3, size: 0x8, addend: 0x0, symName: '__ZNSt3__110__function6__funcIZN8facebook5react13ReactInstanceC1ENS_10unique_ptrINS3_9JSRuntimeENS_14default_deleteIS6_EEEENS_10shared_ptrINS3_18MessageQueueThreadEEENSA_INS3_12TimerManagerEEENS_8functionIFvRNS2_3jsi7RuntimeERKNS3_14JsErrorHandler14ProcessedErrorEEEEPNS3_18jsinspector_modern10HostTargetEE3$_3NS_9allocatorISS_EEFvONSF_IFvSI_EEEEE18destroy_deallocateEv', symObjAddr: 0x4EE8, symBinAddr: 0xA71C, symSize: 0x4 }
  - { offset: 0x9A8C6, size: 0x8, addend: 0x0, symName: '__ZNSt3__110__function6__funcIZN8facebook5react13ReactInstanceC1ENS_10unique_ptrINS3_9JSRuntimeENS_14default_deleteIS6_EEEENS_10shared_ptrINS3_18MessageQueueThreadEEENSA_INS3_12TimerManagerEEENS_8functionIFvRNS2_3jsi7RuntimeERKNS3_14JsErrorHandler14ProcessedErrorEEEEPNS3_18jsinspector_modern10HostTargetEE3$_3NS_9allocatorISS_EEFvONSF_IFvSI_EEEEE18destroy_deallocateEv', symObjAddr: 0x4EE8, symBinAddr: 0xA71C, symSize: 0x4 }
  - { offset: 0x9A8FA, size: 0x8, addend: 0x0, symName: '__ZNSt3__110__function6__funcIZN8facebook5react13ReactInstanceC1ENS_10unique_ptrINS3_9JSRuntimeENS_14default_deleteIS6_EEEENS_10shared_ptrINS3_18MessageQueueThreadEEENSA_INS3_12TimerManagerEEENS_8functionIFvRNS2_3jsi7RuntimeERKNS3_14JsErrorHandler14ProcessedErrorEEEEPNS3_18jsinspector_modern10HostTargetEE3$_3NS_9allocatorISS_EEFvONSF_IFvSI_EEEEE18destroy_deallocateEv', symObjAddr: 0x4EE8, symBinAddr: 0xA71C, symSize: 0x4 }
  - { offset: 0x9A9A4, size: 0x8, addend: 0x0, symName: '__ZNSt3__110__function6__funcIZN8facebook5react13ReactInstanceC1ENS_10unique_ptrINS3_9JSRuntimeENS_14default_deleteIS6_EEEENS_10shared_ptrINS3_18MessageQueueThreadEEENSA_INS3_12TimerManagerEEENS_8functionIFvRNS2_3jsi7RuntimeERKNS3_14JsErrorHandler14ProcessedErrorEEEEPNS3_18jsinspector_modern10HostTargetEE3$_3NS_9allocatorISS_EEFvONSF_IFvSI_EEEEEclESX_', symObjAddr: 0x4EEC, symBinAddr: 0xA720, symSize: 0x8 }
  - { offset: 0x9A9DB, size: 0x8, addend: 0x0, symName: '__ZNSt3__110__function6__funcIZN8facebook5react13ReactInstanceC1ENS_10unique_ptrINS3_9JSRuntimeENS_14default_deleteIS6_EEEENS_10shared_ptrINS3_18MessageQueueThreadEEENSA_INS3_12TimerManagerEEENS_8functionIFvRNS2_3jsi7RuntimeERKNS3_14JsErrorHandler14ProcessedErrorEEEEPNS3_18jsinspector_modern10HostTargetEE3$_3NS_9allocatorISS_EEFvONSF_IFvSI_EEEEEclESX_', symObjAddr: 0x4EEC, symBinAddr: 0xA720, symSize: 0x8 }
  - { offset: 0x9AA00, size: 0x8, addend: 0x0, symName: '__ZNSt3__110__function6__funcIZN8facebook5react13ReactInstanceC1ENS_10unique_ptrINS3_9JSRuntimeENS_14default_deleteIS6_EEEENS_10shared_ptrINS3_18MessageQueueThreadEEENSA_INS3_12TimerManagerEEENS_8functionIFvRNS2_3jsi7RuntimeERKNS3_14JsErrorHandler14ProcessedErrorEEEEPNS3_18jsinspector_modern10HostTargetEE3$_3NS_9allocatorISS_EEFvONSF_IFvSI_EEEEEclESX_', symObjAddr: 0x4EEC, symBinAddr: 0xA720, symSize: 0x8 }
  - { offset: 0x9AA24, size: 0x8, addend: 0x0, symName: '__ZNSt3__110__function6__funcIZN8facebook5react13ReactInstanceC1ENS_10unique_ptrINS3_9JSRuntimeENS_14default_deleteIS6_EEEENS_10shared_ptrINS3_18MessageQueueThreadEEENSA_INS3_12TimerManagerEEENS_8functionIFvRNS2_3jsi7RuntimeERKNS3_14JsErrorHandler14ProcessedErrorEEEEPNS3_18jsinspector_modern10HostTargetEE3$_3NS_9allocatorISS_EEFvONSF_IFvSI_EEEEEclESX_', symObjAddr: 0x4EEC, symBinAddr: 0xA720, symSize: 0x8 }
  - { offset: 0x9AA49, size: 0x8, addend: 0x0, symName: '__ZNSt3__110__function6__funcIZN8facebook5react13ReactInstanceC1ENS_10unique_ptrINS3_9JSRuntimeENS_14default_deleteIS6_EEEENS_10shared_ptrINS3_18MessageQueueThreadEEENSA_INS3_12TimerManagerEEENS_8functionIFvRNS2_3jsi7RuntimeERKNS3_14JsErrorHandler14ProcessedErrorEEEEPNS3_18jsinspector_modern10HostTargetEE3$_3NS_9allocatorISS_EEFvONSF_IFvSI_EEEEEclESX_', symObjAddr: 0x4EEC, symBinAddr: 0xA720, symSize: 0x8 }
  - { offset: 0x9AA6D, size: 0x8, addend: 0x0, symName: '__ZNSt3__110__function6__funcIZN8facebook5react13ReactInstanceC1ENS_10unique_ptrINS3_9JSRuntimeENS_14default_deleteIS6_EEEENS_10shared_ptrINS3_18MessageQueueThreadEEENSA_INS3_12TimerManagerEEENS_8functionIFvRNS2_3jsi7RuntimeERKNS3_14JsErrorHandler14ProcessedErrorEEEEPNS3_18jsinspector_modern10HostTargetEE3$_3NS_9allocatorISS_EEFvONSF_IFvSI_EEEEEclESX_', symObjAddr: 0x4EEC, symBinAddr: 0xA720, symSize: 0x8 }
  - { offset: 0x9AA94, size: 0x8, addend: 0x0, symName: '__ZNKSt3__110__function6__funcIZN8facebook5react13ReactInstanceC1ENS_10unique_ptrINS3_9JSRuntimeENS_14default_deleteIS6_EEEENS_10shared_ptrINS3_18MessageQueueThreadEEENSA_INS3_12TimerManagerEEENS_8functionIFvRNS2_3jsi7RuntimeERKNS3_14JsErrorHandler14ProcessedErrorEEEEPNS3_18jsinspector_modern10HostTargetEE3$_3NS_9allocatorISS_EEFvONSF_IFvSI_EEEEE6targetERKSt9type_info', symObjAddr: 0x4EF4, symBinAddr: 0xA728, symSize: 0x3C }
  - { offset: 0x9AAE1, size: 0x8, addend: 0x0, symName: '__ZNKSt3__110__function6__funcIZN8facebook5react13ReactInstanceC1ENS_10unique_ptrINS3_9JSRuntimeENS_14default_deleteIS6_EEEENS_10shared_ptrINS3_18MessageQueueThreadEEENSA_INS3_12TimerManagerEEENS_8functionIFvRNS2_3jsi7RuntimeERKNS3_14JsErrorHandler14ProcessedErrorEEEEPNS3_18jsinspector_modern10HostTargetEE3$_3NS_9allocatorISS_EEFvONSF_IFvSI_EEEEE11target_typeEv', symObjAddr: 0x4F30, symBinAddr: 0xA764, symSize: 0xC }
  - { offset: 0x9AB52, size: 0x8, addend: 0x0, symName: '__ZNSt3__110__function6__funcIZN8facebook5react13ReactInstanceC1ENS_10unique_ptrINS3_9JSRuntimeENS_14default_deleteIS6_EEEENS_10shared_ptrINS3_18MessageQueueThreadEEENSA_INS3_12TimerManagerEEENS_8functionIFvRNS2_3jsi7RuntimeERKNS3_14JsErrorHandler14ProcessedErrorEEEEPNS3_18jsinspector_modern10HostTargetEE3$_5NS_9allocatorISS_EEFvSI_RNSG_7JSErrorEEED1Ev', symObjAddr: 0x4FA0, symBinAddr: 0xA770, symSize: 0x30 }
  - { offset: 0x9AC47, size: 0x8, addend: 0x0, symName: '__ZNSt3__110__function6__funcIZN8facebook5react13ReactInstanceC1ENS_10unique_ptrINS3_9JSRuntimeENS_14default_deleteIS6_EEEENS_10shared_ptrINS3_18MessageQueueThreadEEENSA_INS3_12TimerManagerEEENS_8functionIFvRNS2_3jsi7RuntimeERKNS3_14JsErrorHandler14ProcessedErrorEEEEPNS3_18jsinspector_modern10HostTargetEE3$_5NS_9allocatorISS_EEFvSI_RNSG_7JSErrorEEED0Ev', symObjAddr: 0x4FD0, symBinAddr: 0xA7A0, symSize: 0x30 }
  - { offset: 0x9AE66, size: 0x8, addend: 0x0, symName: '__ZNKSt3__110__function6__funcIZN8facebook5react13ReactInstanceC1ENS_10unique_ptrINS3_9JSRuntimeENS_14default_deleteIS6_EEEENS_10shared_ptrINS3_18MessageQueueThreadEEENSA_INS3_12TimerManagerEEENS_8functionIFvRNS2_3jsi7RuntimeERKNS3_14JsErrorHandler14ProcessedErrorEEEEPNS3_18jsinspector_modern10HostTargetEE3$_5NS_9allocatorISS_EEFvSI_RNSG_7JSErrorEEE7__cloneEv', symObjAddr: 0x5000, symBinAddr: 0xA7D0, symSize: 0x50 }
  - { offset: 0x9B106, size: 0x8, addend: 0x0, symName: '__ZNKSt3__110__function6__funcIZN8facebook5react13ReactInstanceC1ENS_10unique_ptrINS3_9JSRuntimeENS_14default_deleteIS6_EEEENS_10shared_ptrINS3_18MessageQueueThreadEEENSA_INS3_12TimerManagerEEENS_8functionIFvRNS2_3jsi7RuntimeERKNS3_14JsErrorHandler14ProcessedErrorEEEEPNS3_18jsinspector_modern10HostTargetEE3$_5NS_9allocatorISS_EEFvSI_RNSG_7JSErrorEEE7__cloneEPNS0_6__baseISX_EE', symObjAddr: 0x5050, symBinAddr: 0xA820, symSize: 0x30 }
  - { offset: 0x9B13B, size: 0x8, addend: 0x0, symName: '__ZNKSt3__110__function6__funcIZN8facebook5react13ReactInstanceC1ENS_10unique_ptrINS3_9JSRuntimeENS_14default_deleteIS6_EEEENS_10shared_ptrINS3_18MessageQueueThreadEEENSA_INS3_12TimerManagerEEENS_8functionIFvRNS2_3jsi7RuntimeERKNS3_14JsErrorHandler14ProcessedErrorEEEEPNS3_18jsinspector_modern10HostTargetEE3$_5NS_9allocatorISS_EEFvSI_RNSG_7JSErrorEEE7__cloneEPNS0_6__baseISX_EE', symObjAddr: 0x5050, symBinAddr: 0xA820, symSize: 0x30 }
  - { offset: 0x9B169, size: 0x8, addend: 0x0, symName: '__ZNKSt3__110__function6__funcIZN8facebook5react13ReactInstanceC1ENS_10unique_ptrINS3_9JSRuntimeENS_14default_deleteIS6_EEEENS_10shared_ptrINS3_18MessageQueueThreadEEENSA_INS3_12TimerManagerEEENS_8functionIFvRNS2_3jsi7RuntimeERKNS3_14JsErrorHandler14ProcessedErrorEEEEPNS3_18jsinspector_modern10HostTargetEE3$_5NS_9allocatorISS_EEFvSI_RNSG_7JSErrorEEE7__cloneEPNS0_6__baseISX_EE', symObjAddr: 0x5050, symBinAddr: 0xA820, symSize: 0x30 }
  - { offset: 0x9B290, size: 0x8, addend: 0x0, symName: '__ZNSt3__110__function6__funcIZN8facebook5react13ReactInstanceC1ENS_10unique_ptrINS3_9JSRuntimeENS_14default_deleteIS6_EEEENS_10shared_ptrINS3_18MessageQueueThreadEEENSA_INS3_12TimerManagerEEENS_8functionIFvRNS2_3jsi7RuntimeERKNS3_14JsErrorHandler14ProcessedErrorEEEEPNS3_18jsinspector_modern10HostTargetEE3$_5NS_9allocatorISS_EEFvSI_RNSG_7JSErrorEEE7destroyEv', symObjAddr: 0x5080, symBinAddr: 0xA850, symSize: 0x8 }
  - { offset: 0x9B348, size: 0x8, addend: 0x0, symName: '__ZNSt3__110__function6__funcIZN8facebook5react13ReactInstanceC1ENS_10unique_ptrINS3_9JSRuntimeENS_14default_deleteIS6_EEEENS_10shared_ptrINS3_18MessageQueueThreadEEENSA_INS3_12TimerManagerEEENS_8functionIFvRNS2_3jsi7RuntimeERKNS3_14JsErrorHandler14ProcessedErrorEEEEPNS3_18jsinspector_modern10HostTargetEE3$_5NS_9allocatorISS_EEFvSI_RNSG_7JSErrorEEE18destroy_deallocateEv', symObjAddr: 0x5088, symBinAddr: 0xA858, symSize: 0x28 }
  - { offset: 0x9B50D, size: 0x8, addend: 0x0, symName: '__ZNSt3__110__function6__funcIZN8facebook5react13ReactInstanceC1ENS_10unique_ptrINS3_9JSRuntimeENS_14default_deleteIS6_EEEENS_10shared_ptrINS3_18MessageQueueThreadEEENSA_INS3_12TimerManagerEEENS_8functionIFvRNS2_3jsi7RuntimeERKNS3_14JsErrorHandler14ProcessedErrorEEEEPNS3_18jsinspector_modern10HostTargetEE3$_5NS_9allocatorISS_EEFvSI_RNSG_7JSErrorEEEclESI_SW_', symObjAddr: 0x50B0, symBinAddr: 0xA880, symSize: 0x10 }
  - { offset: 0x9B553, size: 0x8, addend: 0x0, symName: '__ZNSt3__110__function6__funcIZN8facebook5react13ReactInstanceC1ENS_10unique_ptrINS3_9JSRuntimeENS_14default_deleteIS6_EEEENS_10shared_ptrINS3_18MessageQueueThreadEEENSA_INS3_12TimerManagerEEENS_8functionIFvRNS2_3jsi7RuntimeERKNS3_14JsErrorHandler14ProcessedErrorEEEEPNS3_18jsinspector_modern10HostTargetEE3$_5NS_9allocatorISS_EEFvSI_RNSG_7JSErrorEEEclESI_SW_', symObjAddr: 0x50B0, symBinAddr: 0xA880, symSize: 0x10 }
  - { offset: 0x9B57F, size: 0x8, addend: 0x0, symName: '__ZNSt3__110__function6__funcIZN8facebook5react13ReactInstanceC1ENS_10unique_ptrINS3_9JSRuntimeENS_14default_deleteIS6_EEEENS_10shared_ptrINS3_18MessageQueueThreadEEENSA_INS3_12TimerManagerEEENS_8functionIFvRNS2_3jsi7RuntimeERKNS3_14JsErrorHandler14ProcessedErrorEEEEPNS3_18jsinspector_modern10HostTargetEE3$_5NS_9allocatorISS_EEFvSI_RNSG_7JSErrorEEEclESI_SW_', symObjAddr: 0x50B0, symBinAddr: 0xA880, symSize: 0x10 }
  - { offset: 0x9B5AA, size: 0x8, addend: 0x0, symName: '__ZNSt3__110__function6__funcIZN8facebook5react13ReactInstanceC1ENS_10unique_ptrINS3_9JSRuntimeENS_14default_deleteIS6_EEEENS_10shared_ptrINS3_18MessageQueueThreadEEENSA_INS3_12TimerManagerEEENS_8functionIFvRNS2_3jsi7RuntimeERKNS3_14JsErrorHandler14ProcessedErrorEEEEPNS3_18jsinspector_modern10HostTargetEE3$_5NS_9allocatorISS_EEFvSI_RNSG_7JSErrorEEEclESI_SW_', symObjAddr: 0x50B0, symBinAddr: 0xA880, symSize: 0x10 }
  - { offset: 0x9B5D6, size: 0x8, addend: 0x0, symName: '__ZNSt3__110__function6__funcIZN8facebook5react13ReactInstanceC1ENS_10unique_ptrINS3_9JSRuntimeENS_14default_deleteIS6_EEEENS_10shared_ptrINS3_18MessageQueueThreadEEENSA_INS3_12TimerManagerEEENS_8functionIFvRNS2_3jsi7RuntimeERKNS3_14JsErrorHandler14ProcessedErrorEEEEPNS3_18jsinspector_modern10HostTargetEE3$_5NS_9allocatorISS_EEFvSI_RNSG_7JSErrorEEEclESI_SW_', symObjAddr: 0x50B0, symBinAddr: 0xA880, symSize: 0x10 }
  - { offset: 0x9B601, size: 0x8, addend: 0x0, symName: '__ZNSt3__110__function6__funcIZN8facebook5react13ReactInstanceC1ENS_10unique_ptrINS3_9JSRuntimeENS_14default_deleteIS6_EEEENS_10shared_ptrINS3_18MessageQueueThreadEEENSA_INS3_12TimerManagerEEENS_8functionIFvRNS2_3jsi7RuntimeERKNS3_14JsErrorHandler14ProcessedErrorEEEEPNS3_18jsinspector_modern10HostTargetEE3$_5NS_9allocatorISS_EEFvSI_RNSG_7JSErrorEEEclESI_SW_', symObjAddr: 0x50B0, symBinAddr: 0xA880, symSize: 0x10 }
  - { offset: 0x9B62C, size: 0x8, addend: 0x0, symName: '__ZNSt3__110__function6__funcIZN8facebook5react13ReactInstanceC1ENS_10unique_ptrINS3_9JSRuntimeENS_14default_deleteIS6_EEEENS_10shared_ptrINS3_18MessageQueueThreadEEENSA_INS3_12TimerManagerEEENS_8functionIFvRNS2_3jsi7RuntimeERKNS3_14JsErrorHandler14ProcessedErrorEEEEPNS3_18jsinspector_modern10HostTargetEE3$_5NS_9allocatorISS_EEFvSI_RNSG_7JSErrorEEEclESI_SW_', symObjAddr: 0x50B0, symBinAddr: 0xA880, symSize: 0x10 }
  - { offset: 0x9B64D, size: 0x8, addend: 0x0, symName: '__ZNKSt3__110__function6__funcIZN8facebook5react13ReactInstanceC1ENS_10unique_ptrINS3_9JSRuntimeENS_14default_deleteIS6_EEEENS_10shared_ptrINS3_18MessageQueueThreadEEENSA_INS3_12TimerManagerEEENS_8functionIFvRNS2_3jsi7RuntimeERKNS3_14JsErrorHandler14ProcessedErrorEEEEPNS3_18jsinspector_modern10HostTargetEE3$_5NS_9allocatorISS_EEFvSI_RNSG_7JSErrorEEE6targetERKSt9type_info', symObjAddr: 0x50C0, symBinAddr: 0xA890, symSize: 0x3C }
  - { offset: 0x9B69A, size: 0x8, addend: 0x0, symName: '__ZNKSt3__110__function6__funcIZN8facebook5react13ReactInstanceC1ENS_10unique_ptrINS3_9JSRuntimeENS_14default_deleteIS6_EEEENS_10shared_ptrINS3_18MessageQueueThreadEEENSA_INS3_12TimerManagerEEENS_8functionIFvRNS2_3jsi7RuntimeERKNS3_14JsErrorHandler14ProcessedErrorEEEEPNS3_18jsinspector_modern10HostTargetEE3$_5NS_9allocatorISS_EEFvSI_RNSG_7JSErrorEEE11target_typeEv', symObjAddr: 0x50FC, symBinAddr: 0xA8CC, symSize: 0xC }
  - { offset: 0x9B6BC, size: 0x8, addend: 0x0, symName: '__ZNSt3__110__function6__funcIZN8facebook5react13ReactInstanceC1ENS_10unique_ptrINS3_9JSRuntimeENS_14default_deleteIS6_EEEENS_10shared_ptrINS3_18MessageQueueThreadEEENSA_INS3_12TimerManagerEEENS_8functionIFvRNS2_3jsi7RuntimeERKNS3_14JsErrorHandler14ProcessedErrorEEEEPNS3_18jsinspector_modern10HostTargetEE3$_6NS_9allocatorISS_EEFvONSF_IFvSI_EEEEED1Ev', symObjAddr: 0x5108, symBinAddr: 0xA8D8, symSize: 0x4 }
  - { offset: 0x9B6E7, size: 0x8, addend: 0x0, symName: '__ZNSt3__110__function6__funcIZN8facebook5react13ReactInstanceC1ENS_10unique_ptrINS3_9JSRuntimeENS_14default_deleteIS6_EEEENS_10shared_ptrINS3_18MessageQueueThreadEEENSA_INS3_12TimerManagerEEENS_8functionIFvRNS2_3jsi7RuntimeERKNS3_14JsErrorHandler14ProcessedErrorEEEEPNS3_18jsinspector_modern10HostTargetEE3$_6NS_9allocatorISS_EEFvONSF_IFvSI_EEEEED0Ev', symObjAddr: 0x510C, symBinAddr: 0xA8DC, symSize: 0x4 }
  - { offset: 0x9B7F2, size: 0x8, addend: 0x0, symName: '__ZNKSt3__110__function6__funcIZN8facebook5react13ReactInstanceC1ENS_10unique_ptrINS3_9JSRuntimeENS_14default_deleteIS6_EEEENS_10shared_ptrINS3_18MessageQueueThreadEEENSA_INS3_12TimerManagerEEENS_8functionIFvRNS2_3jsi7RuntimeERKNS3_14JsErrorHandler14ProcessedErrorEEEEPNS3_18jsinspector_modern10HostTargetEE3$_6NS_9allocatorISS_EEFvONSF_IFvSI_EEEEE7__cloneEv', symObjAddr: 0x5110, symBinAddr: 0xA8E0, symSize: 0x34 }
  - { offset: 0x9B9EA, size: 0x8, addend: 0x0, symName: '__ZNKSt3__110__function6__funcIZN8facebook5react13ReactInstanceC1ENS_10unique_ptrINS3_9JSRuntimeENS_14default_deleteIS6_EEEENS_10shared_ptrINS3_18MessageQueueThreadEEENSA_INS3_12TimerManagerEEENS_8functionIFvRNS2_3jsi7RuntimeERKNS3_14JsErrorHandler14ProcessedErrorEEEEPNS3_18jsinspector_modern10HostTargetEE3$_6NS_9allocatorISS_EEFvONSF_IFvSI_EEEEE7__cloneEPNS0_6__baseISY_EE', symObjAddr: 0x5144, symBinAddr: 0xA914, symSize: 0x14 }
  - { offset: 0x9BA1F, size: 0x8, addend: 0x0, symName: '__ZNKSt3__110__function6__funcIZN8facebook5react13ReactInstanceC1ENS_10unique_ptrINS3_9JSRuntimeENS_14default_deleteIS6_EEEENS_10shared_ptrINS3_18MessageQueueThreadEEENSA_INS3_12TimerManagerEEENS_8functionIFvRNS2_3jsi7RuntimeERKNS3_14JsErrorHandler14ProcessedErrorEEEEPNS3_18jsinspector_modern10HostTargetEE3$_6NS_9allocatorISS_EEFvONSF_IFvSI_EEEEE7__cloneEPNS0_6__baseISY_EE', symObjAddr: 0x5144, symBinAddr: 0xA914, symSize: 0x14 }
  - { offset: 0x9BA4D, size: 0x8, addend: 0x0, symName: '__ZNKSt3__110__function6__funcIZN8facebook5react13ReactInstanceC1ENS_10unique_ptrINS3_9JSRuntimeENS_14default_deleteIS6_EEEENS_10shared_ptrINS3_18MessageQueueThreadEEENSA_INS3_12TimerManagerEEENS_8functionIFvRNS2_3jsi7RuntimeERKNS3_14JsErrorHandler14ProcessedErrorEEEEPNS3_18jsinspector_modern10HostTargetEE3$_6NS_9allocatorISS_EEFvONSF_IFvSI_EEEEE7__cloneEPNS0_6__baseISY_EE', symObjAddr: 0x5144, symBinAddr: 0xA914, symSize: 0x14 }
  - { offset: 0x9BA7B, size: 0x8, addend: 0x0, symName: '__ZNKSt3__110__function6__funcIZN8facebook5react13ReactInstanceC1ENS_10unique_ptrINS3_9JSRuntimeENS_14default_deleteIS6_EEEENS_10shared_ptrINS3_18MessageQueueThreadEEENSA_INS3_12TimerManagerEEENS_8functionIFvRNS2_3jsi7RuntimeERKNS3_14JsErrorHandler14ProcessedErrorEEEEPNS3_18jsinspector_modern10HostTargetEE3$_6NS_9allocatorISS_EEFvONSF_IFvSI_EEEEE7__cloneEPNS0_6__baseISY_EE', symObjAddr: 0x5144, symBinAddr: 0xA914, symSize: 0x14 }
  - { offset: 0x9BA91, size: 0x8, addend: 0x0, symName: '__ZNKSt3__110__function6__funcIZN8facebook5react13ReactInstanceC1ENS_10unique_ptrINS3_9JSRuntimeENS_14default_deleteIS6_EEEENS_10shared_ptrINS3_18MessageQueueThreadEEENSA_INS3_12TimerManagerEEENS_8functionIFvRNS2_3jsi7RuntimeERKNS3_14JsErrorHandler14ProcessedErrorEEEEPNS3_18jsinspector_modern10HostTargetEE3$_6NS_9allocatorISS_EEFvONSF_IFvSI_EEEEE7__cloneEPNS0_6__baseISY_EE', symObjAddr: 0x5144, symBinAddr: 0xA914, symSize: 0x14 }
  - { offset: 0x9BAA6, size: 0x8, addend: 0x0, symName: '__ZNSt3__110__function6__funcIZN8facebook5react13ReactInstanceC1ENS_10unique_ptrINS3_9JSRuntimeENS_14default_deleteIS6_EEEENS_10shared_ptrINS3_18MessageQueueThreadEEENSA_INS3_12TimerManagerEEENS_8functionIFvRNS2_3jsi7RuntimeERKNS3_14JsErrorHandler14ProcessedErrorEEEEPNS3_18jsinspector_modern10HostTargetEE3$_6NS_9allocatorISS_EEFvONSF_IFvSI_EEEEE7destroyEv', symObjAddr: 0x5158, symBinAddr: 0xA928, symSize: 0x4 }
  - { offset: 0x9BAF7, size: 0x8, addend: 0x0, symName: '__ZNSt3__110__function6__funcIZN8facebook5react13ReactInstanceC1ENS_10unique_ptrINS3_9JSRuntimeENS_14default_deleteIS6_EEEENS_10shared_ptrINS3_18MessageQueueThreadEEENSA_INS3_12TimerManagerEEENS_8functionIFvRNS2_3jsi7RuntimeERKNS3_14JsErrorHandler14ProcessedErrorEEEEPNS3_18jsinspector_modern10HostTargetEE3$_6NS_9allocatorISS_EEFvONSF_IFvSI_EEEEE18destroy_deallocateEv', symObjAddr: 0x515C, symBinAddr: 0xA92C, symSize: 0x4 }
  - { offset: 0x9BB2A, size: 0x8, addend: 0x0, symName: '__ZNSt3__110__function6__funcIZN8facebook5react13ReactInstanceC1ENS_10unique_ptrINS3_9JSRuntimeENS_14default_deleteIS6_EEEENS_10shared_ptrINS3_18MessageQueueThreadEEENSA_INS3_12TimerManagerEEENS_8functionIFvRNS2_3jsi7RuntimeERKNS3_14JsErrorHandler14ProcessedErrorEEEEPNS3_18jsinspector_modern10HostTargetEE3$_6NS_9allocatorISS_EEFvONSF_IFvSI_EEEEE18destroy_deallocateEv', symObjAddr: 0x515C, symBinAddr: 0xA92C, symSize: 0x4 }
  - { offset: 0x9BB4D, size: 0x8, addend: 0x0, symName: '__ZNSt3__110__function6__funcIZN8facebook5react13ReactInstanceC1ENS_10unique_ptrINS3_9JSRuntimeENS_14default_deleteIS6_EEEENS_10shared_ptrINS3_18MessageQueueThreadEEENSA_INS3_12TimerManagerEEENS_8functionIFvRNS2_3jsi7RuntimeERKNS3_14JsErrorHandler14ProcessedErrorEEEEPNS3_18jsinspector_modern10HostTargetEE3$_6NS_9allocatorISS_EEFvONSF_IFvSI_EEEEE18destroy_deallocateEv', symObjAddr: 0x515C, symBinAddr: 0xA92C, symSize: 0x4 }
  - { offset: 0x9BB81, size: 0x8, addend: 0x0, symName: '__ZNSt3__110__function6__funcIZN8facebook5react13ReactInstanceC1ENS_10unique_ptrINS3_9JSRuntimeENS_14default_deleteIS6_EEEENS_10shared_ptrINS3_18MessageQueueThreadEEENSA_INS3_12TimerManagerEEENS_8functionIFvRNS2_3jsi7RuntimeERKNS3_14JsErrorHandler14ProcessedErrorEEEEPNS3_18jsinspector_modern10HostTargetEE3$_6NS_9allocatorISS_EEFvONSF_IFvSI_EEEEE18destroy_deallocateEv', symObjAddr: 0x515C, symBinAddr: 0xA92C, symSize: 0x4 }
  - { offset: 0x9BC2B, size: 0x8, addend: 0x0, symName: '__ZNSt3__110__function6__funcIZN8facebook5react13ReactInstanceC1ENS_10unique_ptrINS3_9JSRuntimeENS_14default_deleteIS6_EEEENS_10shared_ptrINS3_18MessageQueueThreadEEENSA_INS3_12TimerManagerEEENS_8functionIFvRNS2_3jsi7RuntimeERKNS3_14JsErrorHandler14ProcessedErrorEEEEPNS3_18jsinspector_modern10HostTargetEE3$_6NS_9allocatorISS_EEFvONSF_IFvSI_EEEEEclESX_', symObjAddr: 0x5160, symBinAddr: 0xA930, symSize: 0x8 }
  - { offset: 0x9BC62, size: 0x8, addend: 0x0, symName: '__ZNSt3__110__function6__funcIZN8facebook5react13ReactInstanceC1ENS_10unique_ptrINS3_9JSRuntimeENS_14default_deleteIS6_EEEENS_10shared_ptrINS3_18MessageQueueThreadEEENSA_INS3_12TimerManagerEEENS_8functionIFvRNS2_3jsi7RuntimeERKNS3_14JsErrorHandler14ProcessedErrorEEEEPNS3_18jsinspector_modern10HostTargetEE3$_6NS_9allocatorISS_EEFvONSF_IFvSI_EEEEEclESX_', symObjAddr: 0x5160, symBinAddr: 0xA930, symSize: 0x8 }
  - { offset: 0x9BC87, size: 0x8, addend: 0x0, symName: '__ZNSt3__110__function6__funcIZN8facebook5react13ReactInstanceC1ENS_10unique_ptrINS3_9JSRuntimeENS_14default_deleteIS6_EEEENS_10shared_ptrINS3_18MessageQueueThreadEEENSA_INS3_12TimerManagerEEENS_8functionIFvRNS2_3jsi7RuntimeERKNS3_14JsErrorHandler14ProcessedErrorEEEEPNS3_18jsinspector_modern10HostTargetEE3$_6NS_9allocatorISS_EEFvONSF_IFvSI_EEEEEclESX_', symObjAddr: 0x5160, symBinAddr: 0xA930, symSize: 0x8 }
  - { offset: 0x9BCAB, size: 0x8, addend: 0x0, symName: '__ZNSt3__110__function6__funcIZN8facebook5react13ReactInstanceC1ENS_10unique_ptrINS3_9JSRuntimeENS_14default_deleteIS6_EEEENS_10shared_ptrINS3_18MessageQueueThreadEEENSA_INS3_12TimerManagerEEENS_8functionIFvRNS2_3jsi7RuntimeERKNS3_14JsErrorHandler14ProcessedErrorEEEEPNS3_18jsinspector_modern10HostTargetEE3$_6NS_9allocatorISS_EEFvONSF_IFvSI_EEEEEclESX_', symObjAddr: 0x5160, symBinAddr: 0xA930, symSize: 0x8 }
  - { offset: 0x9BCD0, size: 0x8, addend: 0x0, symName: '__ZNSt3__110__function6__funcIZN8facebook5react13ReactInstanceC1ENS_10unique_ptrINS3_9JSRuntimeENS_14default_deleteIS6_EEEENS_10shared_ptrINS3_18MessageQueueThreadEEENSA_INS3_12TimerManagerEEENS_8functionIFvRNS2_3jsi7RuntimeERKNS3_14JsErrorHandler14ProcessedErrorEEEEPNS3_18jsinspector_modern10HostTargetEE3$_6NS_9allocatorISS_EEFvONSF_IFvSI_EEEEEclESX_', symObjAddr: 0x5160, symBinAddr: 0xA930, symSize: 0x8 }
  - { offset: 0x9BCF4, size: 0x8, addend: 0x0, symName: '__ZNSt3__110__function6__funcIZN8facebook5react13ReactInstanceC1ENS_10unique_ptrINS3_9JSRuntimeENS_14default_deleteIS6_EEEENS_10shared_ptrINS3_18MessageQueueThreadEEENSA_INS3_12TimerManagerEEENS_8functionIFvRNS2_3jsi7RuntimeERKNS3_14JsErrorHandler14ProcessedErrorEEEEPNS3_18jsinspector_modern10HostTargetEE3$_6NS_9allocatorISS_EEFvONSF_IFvSI_EEEEEclESX_', symObjAddr: 0x5160, symBinAddr: 0xA930, symSize: 0x8 }
  - { offset: 0x9BD1B, size: 0x8, addend: 0x0, symName: '__ZNKSt3__110__function6__funcIZN8facebook5react13ReactInstanceC1ENS_10unique_ptrINS3_9JSRuntimeENS_14default_deleteIS6_EEEENS_10shared_ptrINS3_18MessageQueueThreadEEENSA_INS3_12TimerManagerEEENS_8functionIFvRNS2_3jsi7RuntimeERKNS3_14JsErrorHandler14ProcessedErrorEEEEPNS3_18jsinspector_modern10HostTargetEE3$_6NS_9allocatorISS_EEFvONSF_IFvSI_EEEEE6targetERKSt9type_info', symObjAddr: 0x5168, symBinAddr: 0xA938, symSize: 0x3C }
  - { offset: 0x9BD68, size: 0x8, addend: 0x0, symName: '__ZNKSt3__110__function6__funcIZN8facebook5react13ReactInstanceC1ENS_10unique_ptrINS3_9JSRuntimeENS_14default_deleteIS6_EEEENS_10shared_ptrINS3_18MessageQueueThreadEEENSA_INS3_12TimerManagerEEENS_8functionIFvRNS2_3jsi7RuntimeERKNS3_14JsErrorHandler14ProcessedErrorEEEEPNS3_18jsinspector_modern10HostTargetEE3$_6NS_9allocatorISS_EEFvONSF_IFvSI_EEEEE11target_typeEv', symObjAddr: 0x51A4, symBinAddr: 0xA974, symSize: 0xC }
  - { offset: 0x9BD8A, size: 0x8, addend: 0x0, symName: '__ZNSt3__110__function6__funcIZN8facebook5react13ReactInstance28getUnbufferedRuntimeExecutorEvE3$_0NS_9allocatorIS5_EEFvONS_8functionIFvRNS2_3jsi7RuntimeEEEEEED1Ev', symObjAddr: 0x51B0, symBinAddr: 0xA980, symSize: 0x4 }
  - { offset: 0x9BDB5, size: 0x8, addend: 0x0, symName: '__ZNSt3__110__function6__funcIZN8facebook5react13ReactInstance28getUnbufferedRuntimeExecutorEvE3$_0NS_9allocatorIS5_EEFvONS_8functionIFvRNS2_3jsi7RuntimeEEEEEED0Ev', symObjAddr: 0x51B4, symBinAddr: 0xA984, symSize: 0x4 }
  - { offset: 0x9BEC0, size: 0x8, addend: 0x0, symName: '__ZNKSt3__110__function6__funcIZN8facebook5react13ReactInstance28getUnbufferedRuntimeExecutorEvE3$_0NS_9allocatorIS5_EEFvONS_8functionIFvRNS2_3jsi7RuntimeEEEEEE7__cloneEv', symObjAddr: 0x51B8, symBinAddr: 0xA988, symSize: 0x34 }
  - { offset: 0x9C0B8, size: 0x8, addend: 0x0, symName: '__ZNKSt3__110__function6__funcIZN8facebook5react13ReactInstance28getUnbufferedRuntimeExecutorEvE3$_0NS_9allocatorIS5_EEFvONS_8functionIFvRNS2_3jsi7RuntimeEEEEEE7__cloneEPNS0_6__baseISF_EE', symObjAddr: 0x51EC, symBinAddr: 0xA9BC, symSize: 0x14 }
  - { offset: 0x9C0ED, size: 0x8, addend: 0x0, symName: '__ZNKSt3__110__function6__funcIZN8facebook5react13ReactInstance28getUnbufferedRuntimeExecutorEvE3$_0NS_9allocatorIS5_EEFvONS_8functionIFvRNS2_3jsi7RuntimeEEEEEE7__cloneEPNS0_6__baseISF_EE', symObjAddr: 0x51EC, symBinAddr: 0xA9BC, symSize: 0x14 }
  - { offset: 0x9C11B, size: 0x8, addend: 0x0, symName: '__ZNKSt3__110__function6__funcIZN8facebook5react13ReactInstance28getUnbufferedRuntimeExecutorEvE3$_0NS_9allocatorIS5_EEFvONS_8functionIFvRNS2_3jsi7RuntimeEEEEEE7__cloneEPNS0_6__baseISF_EE', symObjAddr: 0x51EC, symBinAddr: 0xA9BC, symSize: 0x14 }
  - { offset: 0x9C149, size: 0x8, addend: 0x0, symName: '__ZNKSt3__110__function6__funcIZN8facebook5react13ReactInstance28getUnbufferedRuntimeExecutorEvE3$_0NS_9allocatorIS5_EEFvONS_8functionIFvRNS2_3jsi7RuntimeEEEEEE7__cloneEPNS0_6__baseISF_EE', symObjAddr: 0x51EC, symBinAddr: 0xA9BC, symSize: 0x14 }
  - { offset: 0x9C15F, size: 0x8, addend: 0x0, symName: '__ZNKSt3__110__function6__funcIZN8facebook5react13ReactInstance28getUnbufferedRuntimeExecutorEvE3$_0NS_9allocatorIS5_EEFvONS_8functionIFvRNS2_3jsi7RuntimeEEEEEE7__cloneEPNS0_6__baseISF_EE', symObjAddr: 0x51EC, symBinAddr: 0xA9BC, symSize: 0x14 }
  - { offset: 0x9C174, size: 0x8, addend: 0x0, symName: '__ZNSt3__110__function6__funcIZN8facebook5react13ReactInstance28getUnbufferedRuntimeExecutorEvE3$_0NS_9allocatorIS5_EEFvONS_8functionIFvRNS2_3jsi7RuntimeEEEEEE7destroyEv', symObjAddr: 0x5200, symBinAddr: 0xA9D0, symSize: 0x4 }
  - { offset: 0x9C1C5, size: 0x8, addend: 0x0, symName: '__ZNSt3__110__function6__funcIZN8facebook5react13ReactInstance28getUnbufferedRuntimeExecutorEvE3$_0NS_9allocatorIS5_EEFvONS_8functionIFvRNS2_3jsi7RuntimeEEEEEE18destroy_deallocateEv', symObjAddr: 0x5204, symBinAddr: 0xA9D4, symSize: 0x4 }
  - { offset: 0x9C1F8, size: 0x8, addend: 0x0, symName: '__ZNSt3__110__function6__funcIZN8facebook5react13ReactInstance28getUnbufferedRuntimeExecutorEvE3$_0NS_9allocatorIS5_EEFvONS_8functionIFvRNS2_3jsi7RuntimeEEEEEE18destroy_deallocateEv', symObjAddr: 0x5204, symBinAddr: 0xA9D4, symSize: 0x4 }
  - { offset: 0x9C21B, size: 0x8, addend: 0x0, symName: '__ZNSt3__110__function6__funcIZN8facebook5react13ReactInstance28getUnbufferedRuntimeExecutorEvE3$_0NS_9allocatorIS5_EEFvONS_8functionIFvRNS2_3jsi7RuntimeEEEEEE18destroy_deallocateEv', symObjAddr: 0x5204, symBinAddr: 0xA9D4, symSize: 0x4 }
  - { offset: 0x9C24F, size: 0x8, addend: 0x0, symName: '__ZNSt3__110__function6__funcIZN8facebook5react13ReactInstance28getUnbufferedRuntimeExecutorEvE3$_0NS_9allocatorIS5_EEFvONS_8functionIFvRNS2_3jsi7RuntimeEEEEEE18destroy_deallocateEv', symObjAddr: 0x5204, symBinAddr: 0xA9D4, symSize: 0x4 }
  - { offset: 0x9C2F9, size: 0x8, addend: 0x0, symName: '__ZNSt3__110__function6__funcIZN8facebook5react13ReactInstance28getUnbufferedRuntimeExecutorEvE3$_0NS_9allocatorIS5_EEFvONS_8functionIFvRNS2_3jsi7RuntimeEEEEEEclESE_', symObjAddr: 0x5208, symBinAddr: 0xA9D8, symSize: 0x8 }
  - { offset: 0x9C330, size: 0x8, addend: 0x0, symName: '__ZNSt3__110__function6__funcIZN8facebook5react13ReactInstance28getUnbufferedRuntimeExecutorEvE3$_0NS_9allocatorIS5_EEFvONS_8functionIFvRNS2_3jsi7RuntimeEEEEEEclESE_', symObjAddr: 0x5208, symBinAddr: 0xA9D8, symSize: 0x8 }
  - { offset: 0x9C355, size: 0x8, addend: 0x0, symName: '__ZNSt3__110__function6__funcIZN8facebook5react13ReactInstance28getUnbufferedRuntimeExecutorEvE3$_0NS_9allocatorIS5_EEFvONS_8functionIFvRNS2_3jsi7RuntimeEEEEEEclESE_', symObjAddr: 0x5208, symBinAddr: 0xA9D8, symSize: 0x8 }
  - { offset: 0x9C379, size: 0x8, addend: 0x0, symName: '__ZNSt3__110__function6__funcIZN8facebook5react13ReactInstance28getUnbufferedRuntimeExecutorEvE3$_0NS_9allocatorIS5_EEFvONS_8functionIFvRNS2_3jsi7RuntimeEEEEEEclESE_', symObjAddr: 0x5208, symBinAddr: 0xA9D8, symSize: 0x8 }
  - { offset: 0x9C39E, size: 0x8, addend: 0x0, symName: '__ZNSt3__110__function6__funcIZN8facebook5react13ReactInstance28getUnbufferedRuntimeExecutorEvE3$_0NS_9allocatorIS5_EEFvONS_8functionIFvRNS2_3jsi7RuntimeEEEEEEclESE_', symObjAddr: 0x5208, symBinAddr: 0xA9D8, symSize: 0x8 }
  - { offset: 0x9C3C2, size: 0x8, addend: 0x0, symName: '__ZNSt3__110__function6__funcIZN8facebook5react13ReactInstance28getUnbufferedRuntimeExecutorEvE3$_0NS_9allocatorIS5_EEFvONS_8functionIFvRNS2_3jsi7RuntimeEEEEEEclESE_', symObjAddr: 0x5208, symBinAddr: 0xA9D8, symSize: 0x8 }
  - { offset: 0x9C3E9, size: 0x8, addend: 0x0, symName: '__ZNKSt3__110__function6__funcIZN8facebook5react13ReactInstance28getUnbufferedRuntimeExecutorEvE3$_0NS_9allocatorIS5_EEFvONS_8functionIFvRNS2_3jsi7RuntimeEEEEEE6targetERKSt9type_info', symObjAddr: 0x5210, symBinAddr: 0xA9E0, symSize: 0x3C }
  - { offset: 0x9C436, size: 0x8, addend: 0x0, symName: '__ZNKSt3__110__function6__funcIZN8facebook5react13ReactInstance28getUnbufferedRuntimeExecutorEvE3$_0NS_9allocatorIS5_EEFvONS_8functionIFvRNS2_3jsi7RuntimeEEEEEE11target_typeEv', symObjAddr: 0x524C, symBinAddr: 0xAA1C, symSize: 0xC }
  - { offset: 0x9C4DB, size: 0x8, addend: 0x0, symName: '__ZNSt3__110__function6__funcIZN8facebook5react13ReactInstance26getBufferedRuntimeExecutorEvE3$_0NS_9allocatorIS5_EEFvONS_8functionIFvRNS2_3jsi7RuntimeEEEEEED1Ev', symObjAddr: 0x5258, symBinAddr: 0xAA28, symSize: 0x38 }
  - { offset: 0x9C5EC, size: 0x8, addend: 0x0, symName: '__ZNSt3__110__function6__funcIZN8facebook5react13ReactInstance26getBufferedRuntimeExecutorEvE3$_0NS_9allocatorIS5_EEFvONS_8functionIFvRNS2_3jsi7RuntimeEEEEEED0Ev', symObjAddr: 0x5290, symBinAddr: 0xAA60, symSize: 0x38 }
  - { offset: 0x9C875, size: 0x8, addend: 0x0, symName: '__ZNKSt3__110__function6__funcIZN8facebook5react13ReactInstance26getBufferedRuntimeExecutorEvE3$_0NS_9allocatorIS5_EEFvONS_8functionIFvRNS2_3jsi7RuntimeEEEEEE7__cloneEv', symObjAddr: 0x52C8, symBinAddr: 0xAA98, symSize: 0x50 }
  - { offset: 0x9CAF7, size: 0x8, addend: 0x0, symName: '__ZNKSt3__110__function6__funcIZN8facebook5react13ReactInstance26getBufferedRuntimeExecutorEvE3$_0NS_9allocatorIS5_EEFvONS_8functionIFvRNS2_3jsi7RuntimeEEEEEE7__cloneEPNS0_6__baseISF_EE', symObjAddr: 0x5318, symBinAddr: 0xAAE8, symSize: 0x30 }
  - { offset: 0x9CB2C, size: 0x8, addend: 0x0, symName: '__ZNKSt3__110__function6__funcIZN8facebook5react13ReactInstance26getBufferedRuntimeExecutorEvE3$_0NS_9allocatorIS5_EEFvONS_8functionIFvRNS2_3jsi7RuntimeEEEEEE7__cloneEPNS0_6__baseISF_EE', symObjAddr: 0x5318, symBinAddr: 0xAAE8, symSize: 0x30 }
  - { offset: 0x9CB5A, size: 0x8, addend: 0x0, symName: '__ZNKSt3__110__function6__funcIZN8facebook5react13ReactInstance26getBufferedRuntimeExecutorEvE3$_0NS_9allocatorIS5_EEFvONS_8functionIFvRNS2_3jsi7RuntimeEEEEEE7__cloneEPNS0_6__baseISF_EE', symObjAddr: 0x5318, symBinAddr: 0xAAE8, symSize: 0x30 }
  - { offset: 0x9CC63, size: 0x8, addend: 0x0, symName: '__ZNSt3__110__function6__funcIZN8facebook5react13ReactInstance26getBufferedRuntimeExecutorEvE3$_0NS_9allocatorIS5_EEFvONS_8functionIFvRNS2_3jsi7RuntimeEEEEEE7destroyEv', symObjAddr: 0x5348, symBinAddr: 0xAB18, symSize: 0x10 }
  - { offset: 0x9CC8B, size: 0x8, addend: 0x0, symName: '__ZNSt3__110__function6__funcIZN8facebook5react13ReactInstance26getBufferedRuntimeExecutorEvE3$_0NS_9allocatorIS5_EEFvONS_8functionIFvRNS2_3jsi7RuntimeEEEEEE7destroyEv', symObjAddr: 0x5348, symBinAddr: 0xAB18, symSize: 0x10 }
  - { offset: 0x9CCA9, size: 0x8, addend: 0x0, symName: '__ZNSt3__110__function6__funcIZN8facebook5react13ReactInstance26getBufferedRuntimeExecutorEvE3$_0NS_9allocatorIS5_EEFvONS_8functionIFvRNS2_3jsi7RuntimeEEEEEE7destroyEv', symObjAddr: 0x5348, symBinAddr: 0xAB18, symSize: 0x10 }
  - { offset: 0x9CCC6, size: 0x8, addend: 0x0, symName: '__ZNSt3__110__function6__funcIZN8facebook5react13ReactInstance26getBufferedRuntimeExecutorEvE3$_0NS_9allocatorIS5_EEFvONS_8functionIFvRNS2_3jsi7RuntimeEEEEEE7destroyEv', symObjAddr: 0x5348, symBinAddr: 0xAB18, symSize: 0x10 }
  - { offset: 0x9CCE3, size: 0x8, addend: 0x0, symName: '__ZNSt3__110__function6__funcIZN8facebook5react13ReactInstance26getBufferedRuntimeExecutorEvE3$_0NS_9allocatorIS5_EEFvONS_8functionIFvRNS2_3jsi7RuntimeEEEEEE7destroyEv', symObjAddr: 0x5348, symBinAddr: 0xAB18, symSize: 0x10 }
  - { offset: 0x9CD00, size: 0x8, addend: 0x0, symName: '__ZNSt3__110__function6__funcIZN8facebook5react13ReactInstance26getBufferedRuntimeExecutorEvE3$_0NS_9allocatorIS5_EEFvONS_8functionIFvRNS2_3jsi7RuntimeEEEEEE7destroyEv', symObjAddr: 0x5348, symBinAddr: 0xAB18, symSize: 0x10 }
  - { offset: 0x9CD50, size: 0x8, addend: 0x0, symName: '__ZNSt3__110__function6__funcIZN8facebook5react13ReactInstance26getBufferedRuntimeExecutorEvE3$_0NS_9allocatorIS5_EEFvONS_8functionIFvRNS2_3jsi7RuntimeEEEEEE18destroy_deallocateEv', symObjAddr: 0x5358, symBinAddr: 0xAB28, symSize: 0x2C }
  - { offset: 0x9CF5C, size: 0x8, addend: 0x0, symName: '__ZNSt3__110__function6__funcIZN8facebook5react13ReactInstance26getBufferedRuntimeExecutorEvE3$_0NS_9allocatorIS5_EEFvONS_8functionIFvRNS2_3jsi7RuntimeEEEEEEclESE_', symObjAddr: 0x5384, symBinAddr: 0xAB54, symSize: 0xB0 }
  - { offset: 0x9D0FC, size: 0x8, addend: 0x0, symName: '__ZNKSt3__110__function6__funcIZN8facebook5react13ReactInstance26getBufferedRuntimeExecutorEvE3$_0NS_9allocatorIS5_EEFvONS_8functionIFvRNS2_3jsi7RuntimeEEEEEE6targetERKSt9type_info', symObjAddr: 0x5434, symBinAddr: 0xAC04, symSize: 0x3C }
  - { offset: 0x9D149, size: 0x8, addend: 0x0, symName: '__ZNKSt3__110__function6__funcIZN8facebook5react13ReactInstance26getBufferedRuntimeExecutorEvE3$_0NS_9allocatorIS5_EEFvONS_8functionIFvRNS2_3jsi7RuntimeEEEEEE11target_typeEv', symObjAddr: 0x5470, symBinAddr: 0xAC40, symSize: 0xC }
  - { offset: 0x9D184, size: 0x8, addend: 0x0, symName: __ZNSt3__120__shared_ptr_emplaceIN8facebook5react15BigStringBufferENS_9allocatorIS3_EEED1Ev, symObjAddr: 0x547C, symBinAddr: 0xAC4C, symSize: 0x14 }
  - { offset: 0x9D1A6, size: 0x8, addend: 0x0, symName: __ZNSt3__120__shared_ptr_emplaceIN8facebook5react15BigStringBufferENS_9allocatorIS3_EEED1Ev, symObjAddr: 0x547C, symBinAddr: 0xAC4C, symSize: 0x14 }
  - { offset: 0x9D1D9, size: 0x8, addend: 0x0, symName: __ZNSt3__120__shared_ptr_emplaceIN8facebook5react15BigStringBufferENS_9allocatorIS3_EEED0Ev, symObjAddr: 0x5490, symBinAddr: 0xAC60, symSize: 0x24 }
  - { offset: 0x9D2A5, size: 0x8, addend: 0x0, symName: __ZNSt3__120__shared_ptr_emplaceIN8facebook5react15BigStringBufferENS_9allocatorIS3_EEE16__on_zero_sharedEv, symObjAddr: 0x54B4, symBinAddr: 0xAC84, symSize: 0xC }
  - { offset: 0x9D2CD, size: 0x8, addend: 0x0, symName: __ZNSt3__120__shared_ptr_emplaceIN8facebook5react15BigStringBufferENS_9allocatorIS3_EEE16__on_zero_sharedEv, symObjAddr: 0x54B4, symBinAddr: 0xAC84, symSize: 0xC }
  - { offset: 0x9D2EA, size: 0x8, addend: 0x0, symName: __ZNSt3__120__shared_ptr_emplaceIN8facebook5react15BigStringBufferENS_9allocatorIS3_EEE16__on_zero_sharedEv, symObjAddr: 0x54B4, symBinAddr: 0xAC84, symSize: 0xC }
  - { offset: 0x9D307, size: 0x8, addend: 0x0, symName: __ZNSt3__120__shared_ptr_emplaceIN8facebook5react15BigStringBufferENS_9allocatorIS3_EEE16__on_zero_sharedEv, symObjAddr: 0x54B4, symBinAddr: 0xAC84, symSize: 0xC }
  - { offset: 0x9D38D, size: 0x8, addend: 0x0, symName: __ZNSt3__120__shared_ptr_emplaceIN8facebook5react15BigStringBufferENS_9allocatorIS3_EEE21__on_zero_shared_weakEv, symObjAddr: 0x54C0, symBinAddr: 0xAC90, symSize: 0x4 }
  - { offset: 0x9D3BF, size: 0x8, addend: 0x0, symName: __ZNSt3__120__shared_ptr_emplaceIN8facebook5react15BigStringBufferENS_9allocatorIS3_EEE21__on_zero_shared_weakEv, symObjAddr: 0x54C0, symBinAddr: 0xAC90, symSize: 0x4 }
  - { offset: 0x9D3E1, size: 0x8, addend: 0x0, symName: __ZNSt3__120__shared_ptr_emplaceIN8facebook5react15BigStringBufferENS_9allocatorIS3_EEE21__on_zero_shared_weakEv, symObjAddr: 0x54C0, symBinAddr: 0xAC90, symSize: 0x4 }
  - { offset: 0x9D404, size: 0x8, addend: 0x0, symName: __ZNSt3__120__shared_ptr_emplaceIN8facebook5react15BigStringBufferENS_9allocatorIS3_EEE21__on_zero_shared_weakEv, symObjAddr: 0x54C0, symBinAddr: 0xAC90, symSize: 0x4 }
  - { offset: 0x9D439, size: 0x8, addend: 0x0, symName: __ZNSt3__120__shared_ptr_emplaceIN8facebook5react15BigStringBufferENS_9allocatorIS3_EEE21__on_zero_shared_weakEv, symObjAddr: 0x54C0, symBinAddr: 0xAC90, symSize: 0x4 }
  - { offset: 0x9D4FB, size: 0x8, addend: 0x0, symName: __ZN8facebook5react15BigStringBufferD1Ev, symObjAddr: 0x54C4, symBinAddr: 0xAC94, symSize: 0x44 }
  - { offset: 0x9D5E0, size: 0x8, addend: 0x0, symName: __ZN8facebook5react15BigStringBufferD0Ev, symObjAddr: 0x5508, symBinAddr: 0xACD8, symSize: 0x48 }
  - { offset: 0x9D6E9, size: 0x8, addend: 0x0, symName: __ZNK8facebook5react15BigStringBuffer4sizeEv, symObjAddr: 0x5550, symBinAddr: 0xAD20, symSize: 0x10 }
  - { offset: 0x9D711, size: 0x8, addend: 0x0, symName: __ZNK8facebook5react15BigStringBuffer4sizeEv, symObjAddr: 0x5550, symBinAddr: 0xAD20, symSize: 0x10 }
  - { offset: 0x9D739, size: 0x8, addend: 0x0, symName: __ZNK8facebook5react15BigStringBuffer4dataEv, symObjAddr: 0x5560, symBinAddr: 0xAD30, symSize: 0x10 }
  - { offset: 0x9D761, size: 0x8, addend: 0x0, symName: __ZNK8facebook5react15BigStringBuffer4dataEv, symObjAddr: 0x5560, symBinAddr: 0xAD30, symSize: 0x10 }
  - { offset: 0x9D7D8, size: 0x8, addend: 0x0, symName: '__ZNSt3__110__function6__funcIZN8facebook5react13ReactInstance10loadScriptENS_10unique_ptrIKNS3_11JSBigStringENS_14default_deleteIS7_EEEERKNS_12basic_stringIcNS_11char_traitsIcEENS_9allocatorIcEEEEONS_8functionIFvRNS2_3jsi7RuntimeEEEESP_E3$_0NSE_ISQ_EESN_ED1Ev', symObjAddr: 0x562C, symBinAddr: 0xAD40, symSize: 0xB8 }
  - { offset: 0x9DC30, size: 0x8, addend: 0x0, symName: '__ZNSt3__110__function6__funcIZN8facebook5react13ReactInstance10loadScriptENS_10unique_ptrIKNS3_11JSBigStringENS_14default_deleteIS7_EEEERKNS_12basic_stringIcNS_11char_traitsIcEENS_9allocatorIcEEEEONS_8functionIFvRNS2_3jsi7RuntimeEEEESP_E3$_0NSE_ISQ_EESN_ED0Ev', symObjAddr: 0x56E4, symBinAddr: 0xADF8, symSize: 0xB8 }
  - { offset: 0x9E1DF, size: 0x8, addend: 0x0, symName: '__ZNKSt3__110__function6__funcIZN8facebook5react13ReactInstance10loadScriptENS_10unique_ptrIKNS3_11JSBigStringENS_14default_deleteIS7_EEEERKNS_12basic_stringIcNS_11char_traitsIcEENS_9allocatorIcEEEEONS_8functionIFvRNS2_3jsi7RuntimeEEEESP_E3$_0NSE_ISQ_EESN_E7__cloneEv', symObjAddr: 0x579C, symBinAddr: 0xAEB0, symSize: 0x54 }
  - { offset: 0x9E3F3, size: 0x8, addend: 0x0, symName: '__ZZN8facebook5react13ReactInstance10loadScriptENSt3__110unique_ptrIKNS0_11JSBigStringENS2_14default_deleteIS5_EEEERKNS2_12basic_stringIcNS2_11char_traitsIcEENS2_9allocatorIcEEEEONS2_8functionIFvRNS_3jsi7RuntimeEEEESN_EN3$_0C1ERKSO_', symObjAddr: 0x5AB4, symBinAddr: 0xB1C8, symSize: 0x168 }
  - { offset: 0x9EA8E, size: 0x8, addend: 0x0, symName: '__ZNKSt3__110__function6__funcIZN8facebook5react13ReactInstance10loadScriptENS_10unique_ptrIKNS3_11JSBigStringENS_14default_deleteIS7_EEEERKNS_12basic_stringIcNS_11char_traitsIcEENS_9allocatorIcEEEEONS_8functionIFvRNS2_3jsi7RuntimeEEEESP_E3$_0NSE_ISQ_EESN_E7__cloneEPNS0_6__baseISN_EE', symObjAddr: 0x57F0, symBinAddr: 0xAF04, symSize: 0x1C }
  - { offset: 0x9EB3C, size: 0x8, addend: 0x0, symName: '__ZNSt3__110__function6__funcIZN8facebook5react13ReactInstance10loadScriptENS_10unique_ptrIKNS3_11JSBigStringENS_14default_deleteIS7_EEEERKNS_12basic_stringIcNS_11char_traitsIcEENS_9allocatorIcEEEEONS_8functionIFvRNS2_3jsi7RuntimeEEEESP_E3$_0NSE_ISQ_EESN_E7destroyEv', symObjAddr: 0x580C, symBinAddr: 0xAF20, symSize: 0x8 }
  - { offset: 0x9EB70, size: 0x8, addend: 0x0, symName: '__ZNSt3__110__function12__alloc_funcIZN8facebook5react13ReactInstance10loadScriptENS_10unique_ptrIKNS3_11JSBigStringENS_14default_deleteIS7_EEEERKNS_12basic_stringIcNS_11char_traitsIcEENS_9allocatorIcEEEEONS_8functionIFvRNS2_3jsi7RuntimeEEEESP_E3$_0NSE_ISQ_EESN_E7destroyB8ne200100Ev', symObjAddr: 0x5C1C, symBinAddr: 0xB330, symSize: 0xB0 }
  - { offset: 0x9EF27, size: 0x8, addend: 0x0, symName: '__ZNSt3__110__function6__funcIZN8facebook5react13ReactInstance10loadScriptENS_10unique_ptrIKNS3_11JSBigStringENS_14default_deleteIS7_EEEERKNS_12basic_stringIcNS_11char_traitsIcEENS_9allocatorIcEEEEONS_8functionIFvRNS2_3jsi7RuntimeEEEESP_E3$_0NSE_ISQ_EESN_E18destroy_deallocateEv', symObjAddr: 0x5814, symBinAddr: 0xAF28, symSize: 0x28 }
  - { offset: 0x9F1E9, size: 0x8, addend: 0x0, symName: '__ZNSt3__110__function6__funcIZN8facebook5react13ReactInstance10loadScriptENS_10unique_ptrIKNS3_11JSBigStringENS_14default_deleteIS7_EEEERKNS_12basic_stringIcNS_11char_traitsIcEENS_9allocatorIcEEEEONS_8functionIFvRNS2_3jsi7RuntimeEEEESP_E3$_0NSE_ISQ_EESN_EclESM_', symObjAddr: 0x583C, symBinAddr: 0xAF50, symSize: 0x230 }
  - { offset: 0x9F933, size: 0x8, addend: 0x0, symName: '__ZNKSt3__110__function6__funcIZN8facebook5react13ReactInstance10loadScriptENS_10unique_ptrIKNS3_11JSBigStringENS_14default_deleteIS7_EEEERKNS_12basic_stringIcNS_11char_traitsIcEENS_9allocatorIcEEEEONS_8functionIFvRNS2_3jsi7RuntimeEEEESP_E3$_0NSE_ISQ_EESN_E6targetERKSt9type_info', symObjAddr: 0x5A6C, symBinAddr: 0xB180, symSize: 0x3C }
  - { offset: 0x9F980, size: 0x8, addend: 0x0, symName: '__ZNKSt3__110__function6__funcIZN8facebook5react13ReactInstance10loadScriptENS_10unique_ptrIKNS3_11JSBigStringENS_14default_deleteIS7_EEEERKNS_12basic_stringIcNS_11char_traitsIcEENS_9allocatorIcEEEEONS_8functionIFvRNS2_3jsi7RuntimeEEEESP_E3$_0NSE_ISQ_EESN_E11target_typeEv', symObjAddr: 0x5AA8, symBinAddr: 0xB1BC, symSize: 0xC }
  - { offset: 0x9FA58, size: 0x8, addend: 0x0, symName: '__ZNSt3__110__function6__funcIZN8facebook5react13ReactInstance20callFunctionOnModuleERKNS_12basic_stringIcNS_11char_traitsIcEENS_9allocatorIcEEEESC_ON5folly7dynamicEE3$_0NS8_ISG_EEFvRNS2_3jsi7RuntimeEEED1Ev', symObjAddr: 0x5D24, symBinAddr: 0xB3E0, symSize: 0x50 }
  - { offset: 0x9FD67, size: 0x8, addend: 0x0, symName: '__ZNSt3__110__function6__funcIZN8facebook5react13ReactInstance20callFunctionOnModuleERKNS_12basic_stringIcNS_11char_traitsIcEENS_9allocatorIcEEEESC_ON5folly7dynamicEE3$_0NS8_ISG_EEFvRNS2_3jsi7RuntimeEEED0Ev', symObjAddr: 0x5D74, symBinAddr: 0xB430, symSize: 0x50 }
  - { offset: 0xA028E, size: 0x8, addend: 0x0, symName: '__ZNKSt3__110__function6__funcIZN8facebook5react13ReactInstance20callFunctionOnModuleERKNS_12basic_stringIcNS_11char_traitsIcEENS_9allocatorIcEEEESC_ON5folly7dynamicEE3$_0NS8_ISG_EEFvRNS2_3jsi7RuntimeEEE7__cloneEv', symObjAddr: 0x5DC4, symBinAddr: 0xB480, symSize: 0xDC }
  - { offset: 0xA0807, size: 0x8, addend: 0x0, symName: '__ZNKSt3__110__function6__funcIZN8facebook5react13ReactInstance20callFunctionOnModuleERKNS_12basic_stringIcNS_11char_traitsIcEENS_9allocatorIcEEEESC_ON5folly7dynamicEE3$_0NS8_ISG_EEFvRNS2_3jsi7RuntimeEEE7__cloneEPNS0_6__baseISL_EE', symObjAddr: 0x5EA0, symBinAddr: 0xB55C, symSize: 0xC0 }
  - { offset: 0xA0B86, size: 0x8, addend: 0x0, symName: '__ZNSt3__110__function6__funcIZN8facebook5react13ReactInstance20callFunctionOnModuleERKNS_12basic_stringIcNS_11char_traitsIcEENS_9allocatorIcEEEESC_ON5folly7dynamicEE3$_0NS8_ISG_EEFvRNS2_3jsi7RuntimeEEE7destroyEv', symObjAddr: 0x5F60, symBinAddr: 0xB61C, symSize: 0x8 }
  - { offset: 0xA0BBA, size: 0x8, addend: 0x0, symName: '__ZNSt3__110__function12__alloc_funcIZN8facebook5react13ReactInstance20callFunctionOnModuleERKNS_12basic_stringIcNS_11char_traitsIcEENS_9allocatorIcEEEESC_ON5folly7dynamicEE3$_0NS8_ISG_EEFvRNS2_3jsi7RuntimeEEE7destroyB8ne200100Ev', symObjAddr: 0x65F8, symBinAddr: 0xBCB4, symSize: 0x4C }
  - { offset: 0xA0E29, size: 0x8, addend: 0x0, symName: '__ZNSt3__110__function6__funcIZN8facebook5react13ReactInstance20callFunctionOnModuleERKNS_12basic_stringIcNS_11char_traitsIcEENS_9allocatorIcEEEESC_ON5folly7dynamicEE3$_0NS8_ISG_EEFvRNS2_3jsi7RuntimeEEE18destroy_deallocateEv', symObjAddr: 0x5F68, symBinAddr: 0xB624, symSize: 0x28 }
  - { offset: 0xA159E, size: 0x8, addend: 0x0, symName: '__ZNSt3__110__function6__funcIZN8facebook5react13ReactInstance20callFunctionOnModuleERKNS_12basic_stringIcNS_11char_traitsIcEENS_9allocatorIcEEEESC_ON5folly7dynamicEE3$_0NS8_ISG_EEFvRNS2_3jsi7RuntimeEEEclESK_', symObjAddr: 0x5F90, symBinAddr: 0xB64C, symSize: 0x620 }
  - { offset: 0xA2FD1, size: 0x8, addend: 0x0, symName: __ZNSt3__112__hash_tableINS_17__hash_value_typeINS_12basic_stringIcNS_11char_traitsIcEENS_9allocatorIcEEEENS_7variantIJN8facebook3jsi8FunctionENSA_6ObjectEEEEEENS_22__unordered_map_hasherIS7_SE_NS_4hashIS7_EENS_8equal_toIS7_EELb1EEENS_21__unordered_map_equalIS7_SE_SJ_SH_Lb1EEENS5_ISE_EEE4findIS7_EENS_15__hash_iteratorIPNS_11__hash_nodeISE_PvEEEERKT_, symObjAddr: 0x7118, symBinAddr: 0xC7C0, symSize: 0xF8 }
  - { offset: 0xA31C7, size: 0x8, addend: 0x0, symName: __ZNSt3__116__variant_detail12__assignmentINS0_8__traitsIJN8facebook3jsi8FunctionENS4_6ObjectEEEEE12__assign_altB8ne200100ILm1ES6_S6_EEvRNS0_5__altIXT_ET0_EEOT1_, symObjAddr: 0x79E0, symBinAddr: 0xD088, symSize: 0x58 }
  - { offset: 0xA34A9, size: 0x8, addend: 0x0, symName: __ZNSt3__16vectorIN8facebook3jsi5ValueENS_9allocatorIS3_EEE9push_backB8ne200100EOS3_, symObjAddr: 0x6790, symBinAddr: 0xBE4C, symSize: 0x44 }
  - { offset: 0xA35C7, size: 0x8, addend: 0x0, symName: __ZNSt3__16vectorIN8facebook3jsi5ValueENS_9allocatorIS3_EEE16__destroy_vectorclB8ne200100Ev, symObjAddr: 0x7D14, symBinAddr: 0xD30C, symSize: 0x70 }
  - { offset: 0xA370E, size: 0x8, addend: 0x0, symName: __ZNSt3__119basic_ostringstreamIcNS_11char_traitsIcEENS_9allocatorIcEEEC1B8ne200100Ev, symObjAddr: 0x6644, symBinAddr: 0xBD00, symSize: 0xC4 }
  - { offset: 0xA3804, size: 0x8, addend: 0x0, symName: __ZNKSt3__115basic_stringbufIcNS_11char_traitsIcEENS_9allocatorIcEEE3strB8ne200100IS4_EENS_12basic_stringIcS2_T_EERKS8_, symObjAddr: 0x78CC, symBinAddr: 0xCF74, symSize: 0x90 }
  - { offset: 0xA3A55, size: 0x8, addend: 0x0, symName: __ZNKSt3__115basic_stringbufIcNS_11char_traitsIcEENS_9allocatorIcEEE4viewB8ne200100Ev, symObjAddr: 0x795C, symBinAddr: 0xD004, symSize: 0x4C }
  - { offset: 0xA3A6D, size: 0x8, addend: 0x0, symName: __ZNSt3__119basic_ostringstreamIcNS_11char_traitsIcEENS_9allocatorIcEEED1Ev, symObjAddr: 0x6708, symBinAddr: 0xBDC4, symSize: 0x88 }
  - { offset: 0xA3C1E, size: 0x8, addend: 0x0, symName: '__ZNKSt3__110__function6__funcIZN8facebook5react13ReactInstance20callFunctionOnModuleERKNS_12basic_stringIcNS_11char_traitsIcEENS_9allocatorIcEEEESC_ON5folly7dynamicEE3$_0NS8_ISG_EEFvRNS2_3jsi7RuntimeEEE6targetERKSt9type_info', symObjAddr: 0x65B0, symBinAddr: 0xBC6C, symSize: 0x3C }
  - { offset: 0xA3C6B, size: 0x8, addend: 0x0, symName: '__ZNKSt3__110__function6__funcIZN8facebook5react13ReactInstance20callFunctionOnModuleERKNS_12basic_stringIcNS_11char_traitsIcEENS_9allocatorIcEEEESC_ON5folly7dynamicEE3$_0NS8_ISG_EEFvRNS2_3jsi7RuntimeEEE11target_typeEv', symObjAddr: 0x65EC, symBinAddr: 0xBCA8, symSize: 0xC }
  - { offset: 0xA3D48, size: 0x8, addend: 0x0, symName: __ZNSt3__115basic_stringbufIcNS_11char_traitsIcEENS_9allocatorIcEEEC2B8ne200100Ej, symObjAddr: 0x7728, symBinAddr: 0xCDD0, symSize: 0xA0 }
  - { offset: 0xA4007, size: 0x8, addend: 0x0, symName: __ZNSt3__16vectorIN8facebook3jsi5ValueENS_9allocatorIS3_EEE24__emplace_back_slow_pathIJS3_EEEPS3_DpOT_, symObjAddr: 0x7B10, symBinAddr: 0xD11C, symSize: 0x108 }
  - { offset: 0xA4474, size: 0x8, addend: 0x0, symName: __ZN8facebook5react8systrace8rendererIA11_cvE6renderERA11_Kc, symObjAddr: 0x6C64, symBinAddr: 0xC320, symSize: 0xE4 }
  - { offset: 0xA473D, size: 0x8, addend: 0x0, symName: __ZN8facebook5react8systrace8rendererINSt3__112basic_stringIcNS3_11char_traitsIcEENS3_9allocatorIcEEEEvE6renderERKS9_, symObjAddr: 0x6D48, symBinAddr: 0xC404, symSize: 0xEC }
  - { offset: 0xA4A09, size: 0x8, addend: 0x0, symName: __ZNSt3__16vectorINS_12basic_stringIcNS_11char_traitsIcEENS_9allocatorIcEEEENS4_IS6_EEE16__init_with_sizeB8ne200100IPKS6_SB_EEvT_T0_m, symObjAddr: 0x6E34, symBinAddr: 0xC4F0, symSize: 0x84 }
  - { offset: 0xA4C6B, size: 0x8, addend: 0x0, symName: __ZNSt3__16vectorINS_12basic_stringIcNS_11char_traitsIcEENS_9allocatorIcEEEENS4_IS6_EEE16__destroy_vectorclB8ne200100Ev, symObjAddr: 0x708C, symBinAddr: 0xC734, symSize: 0x40 }
  - { offset: 0xA4ECB, size: 0x8, addend: 0x0, symName: __ZNSt3__16vectorINS_12basic_stringIcNS_11char_traitsIcEENS_9allocatorIcEEEENS4_IS6_EEE11__vallocateB8ne200100Em, symObjAddr: 0x6EB8, symBinAddr: 0xC574, symSize: 0x48 }
  - { offset: 0xA4F36, size: 0x8, addend: 0x0, symName: __ZNSt3__119__allocate_at_leastB8ne200100INS_9allocatorINS_12basic_stringIcNS_11char_traitsIcEENS1_IcEEEEEEEENS_19__allocation_resultINS_16allocator_traitsIT_E7pointerEEERSA_m, symObjAddr: 0x6F14, symBinAddr: 0xC5BC, symSize: 0x44 }
  - { offset: 0xA5023, size: 0x8, addend: 0x0, symName: __ZNSt3__128__exception_guard_exceptionsINS_29_AllocatorDestroyRangeReverseINS_9allocatorINS_12basic_stringIcNS_11char_traitsIcEENS2_IcEEEEEEPS7_EEED2B8ne200100Ev, symObjAddr: 0x7014, symBinAddr: 0xC6BC, symSize: 0x34 }
  - { offset: 0xA5062, size: 0x8, addend: 0x0, symName: __ZNKSt3__129_AllocatorDestroyRangeReverseINS_9allocatorINS_12basic_stringIcNS_11char_traitsIcEENS1_IcEEEEEEPS6_EclB8ne200100Ev, symObjAddr: 0x7048, symBinAddr: 0xC6F0, symSize: 0x44 }
  - { offset: 0xA52E0, size: 0x8, addend: 0x0, symName: __ZNSt3__16vectorINS_12basic_stringIcNS_11char_traitsIcEENS_9allocatorIcEEEENS4_IS6_EEE5clearB8ne200100Ev, symObjAddr: 0x70CC, symBinAddr: 0xC774, symSize: 0x4C }
  - { offset: 0xA5588, size: 0x8, addend: 0x0, symName: __ZNKSt3__113__string_hashIcNS_9allocatorIcEEEclB8ne200100ERKNS_12basic_stringIcNS_11char_traitsIcEES2_EE, symObjAddr: 0x7210, symBinAddr: 0xC8B8, symSize: 0x3C }
  - { offset: 0xA5658, size: 0x8, addend: 0x0, symName: __ZNKSt3__18equal_toINS_12basic_stringIcNS_11char_traitsIcEENS_9allocatorIcEEEEEclB8ne200100ERKS6_S9_, symObjAddr: 0x76B8, symBinAddr: 0xCD60, symSize: 0x70 }
  - { offset: 0xA56A2, size: 0x8, addend: 0x0, symName: __ZNKSt3__18equal_toINS_12basic_stringIcNS_11char_traitsIcEENS_9allocatorIcEEEEEclB8ne200100ERKS6_S9_, symObjAddr: 0x76B8, symBinAddr: 0xCD60, symSize: 0x70 }
  - { offset: 0xA56D3, size: 0x8, addend: 0x0, symName: __ZNKSt3__18equal_toINS_12basic_stringIcNS_11char_traitsIcEENS_9allocatorIcEEEEEclB8ne200100ERKS6_S9_, symObjAddr: 0x76B8, symBinAddr: 0xCD60, symSize: 0x70 }
  - { offset: 0xA56EF, size: 0x8, addend: 0x0, symName: __ZNKSt3__18equal_toINS_12basic_stringIcNS_11char_traitsIcEENS_9allocatorIcEEEEEclB8ne200100ERKS6_S9_, symObjAddr: 0x76B8, symBinAddr: 0xCD60, symSize: 0x70 }
  - { offset: 0xA57F2, size: 0x8, addend: 0x0, symName: __ZNKSt3__121__murmur2_or_cityhashImLm64EEclB8ne200100EPKvm, symObjAddr: 0x724C, symBinAddr: 0xC8F4, symSize: 0x208 }
  - { offset: 0xA5E66, size: 0x8, addend: 0x0, symName: __ZNSt3__121__murmur2_or_cityhashImLm64EE18__hash_len_0_to_16B8ne200100EPKcm, symObjAddr: 0x7454, symBinAddr: 0xCAFC, symSize: 0xF8 }
  - { offset: 0xA6077, size: 0x8, addend: 0x0, symName: __ZNSt3__121__murmur2_or_cityhashImLm64EE19__hash_len_33_to_64B8ne200100EPKcm, symObjAddr: 0x75F8, symBinAddr: 0xCCA0, symSize: 0xC0 }
  - { offset: 0xA62E6, size: 0x8, addend: 0x0, symName: __ZNSt3__121__murmur2_or_cityhashImLm64EE19__hash_len_17_to_32B8ne200100EPKcm, symObjAddr: 0x754C, symBinAddr: 0xCBF4, symSize: 0xAC }
  - { offset: 0xA64B2, size: 0x8, addend: 0x0, symName: __ZNSt3__115basic_stringbufIcNS_11char_traitsIcEENS_9allocatorIcEEE15__init_buf_ptrsB8ne200100Ev, symObjAddr: 0x77C8, symBinAddr: 0xCE70, symSize: 0x104 }
  - { offset: 0xA6829, size: 0x8, addend: 0x0, symName: __ZNKSt3__115basic_stringbufIcNS_11char_traitsIcEENS_9allocatorIcEEE4viewB8ne200100Ev, symObjAddr: 0x795C, symBinAddr: 0xD004, symSize: 0x4C }
  - { offset: 0xA6A7C, size: 0x8, addend: 0x0, symName: __ZNSt18bad_variant_accessD1Ev, symObjAddr: 0x79DC, symBinAddr: 0xD084, symSize: 0x4 }
  - { offset: 0xA6AA9, size: 0x8, addend: 0x0, symName: __ZNSt18bad_variant_accessD1Ev, symObjAddr: 0x79DC, symBinAddr: 0xD084, symSize: 0x4 }
  - { offset: 0xA6D73, size: 0x8, addend: 0x0, symName: __ZN5folly9TypeErrorC1EOS0_, symObjAddr: 0x7AD8, symBinAddr: 0xD0E4, symSize: 0x24 }
  - { offset: 0xA6DCB, size: 0x8, addend: 0x0, symName: __ZN5folly9TypeErrorD1Ev, symObjAddr: 0x7AD4, symBinAddr: 0xD0E0, symSize: 0x4 }
  - { offset: 0xA6DED, size: 0x8, addend: 0x0, symName: __ZN5folly9TypeErrorD1Ev, symObjAddr: 0x7AD4, symBinAddr: 0xD0E0, symSize: 0x4 }
  - { offset: 0xA6E25, size: 0x8, addend: 0x0, symName: __ZN5folly9TypeErrorD0Ev, symObjAddr: 0x7AFC, symBinAddr: 0xD108, symSize: 0x14 }
  - { offset: 0xA6FA5, size: 0x8, addend: 0x0, symName: __ZNSt3__114__split_bufferIN8facebook3jsi5ValueERNS_9allocatorIS3_EEED2Ev, symObjAddr: 0x7CC8, symBinAddr: 0xD2C0, symSize: 0x4C }
  - { offset: 0xA70EE, size: 0x8, addend: 0x0, symName: __ZNSt3__119__allocate_at_leastB8ne200100INS_9allocatorIN8facebook3jsi5ValueEEEEENS_19__allocation_resultINS_16allocator_traitsIT_E7pointerEEERS8_m, symObjAddr: 0x7C2C, symBinAddr: 0xD224, symSize: 0x34 }
  - { offset: 0xA729E, size: 0x8, addend: 0x0, symName: '__ZNSt3__110__function6__funcIZN8facebook5react13ReactInstance15registerSegmentEjRKNS_12basic_stringIcNS_11char_traitsIcEENS_9allocatorIcEEEEE3$_0NS8_ISD_EEFvRNS2_3jsi7RuntimeEEED1Ev', symObjAddr: 0x7D84, symBinAddr: 0xD37C, symSize: 0x3C }
  - { offset: 0xA747A, size: 0x8, addend: 0x0, symName: '__ZNSt3__110__function6__funcIZN8facebook5react13ReactInstance15registerSegmentEjRKNS_12basic_stringIcNS_11char_traitsIcEENS_9allocatorIcEEEEE3$_0NS8_ISD_EEFvRNS2_3jsi7RuntimeEEED0Ev', symObjAddr: 0x7DC0, symBinAddr: 0xD3B8, symSize: 0x3C }
  - { offset: 0xA77EF, size: 0x8, addend: 0x0, symName: '__ZNKSt3__110__function6__funcIZN8facebook5react13ReactInstance15registerSegmentEjRKNS_12basic_stringIcNS_11char_traitsIcEENS_9allocatorIcEEEEE3$_0NS8_ISD_EEFvRNS2_3jsi7RuntimeEEE7__cloneEv', symObjAddr: 0x7DFC, symBinAddr: 0xD3F4, symSize: 0x7C }
  - { offset: 0xA7B8D, size: 0x8, addend: 0x0, symName: '__ZNKSt3__110__function6__funcIZN8facebook5react13ReactInstance15registerSegmentEjRKNS_12basic_stringIcNS_11char_traitsIcEENS_9allocatorIcEEEEE3$_0NS8_ISD_EEFvRNS2_3jsi7RuntimeEEE7__cloneEPNS0_6__baseISI_EE', symObjAddr: 0x7E78, symBinAddr: 0xD470, symSize: 0x40 }
  - { offset: 0xA7D18, size: 0x8, addend: 0x0, symName: '__ZNSt3__110__function6__funcIZN8facebook5react13ReactInstance15registerSegmentEjRKNS_12basic_stringIcNS_11char_traitsIcEENS_9allocatorIcEEEEE3$_0NS8_ISD_EEFvRNS2_3jsi7RuntimeEEE7destroyEv', symObjAddr: 0x7EB8, symBinAddr: 0xD4B0, symSize: 0x14 }
  - { offset: 0xA7DB2, size: 0x8, addend: 0x0, symName: '__ZNSt3__110__function6__funcIZN8facebook5react13ReactInstance15registerSegmentEjRKNS_12basic_stringIcNS_11char_traitsIcEENS_9allocatorIcEEEEE3$_0NS8_ISD_EEFvRNS2_3jsi7RuntimeEEE7destroyEv', symObjAddr: 0x7EB8, symBinAddr: 0xD4B0, symSize: 0x14 }
  - { offset: 0xA7E6C, size: 0x8, addend: 0x0, symName: '__ZNSt3__110__function6__funcIZN8facebook5react13ReactInstance15registerSegmentEjRKNS_12basic_stringIcNS_11char_traitsIcEENS_9allocatorIcEEEEE3$_0NS8_ISD_EEFvRNS2_3jsi7RuntimeEEE18destroy_deallocateEv', symObjAddr: 0x7ECC, symBinAddr: 0xD4C4, symSize: 0x30 }
  - { offset: 0xA841E, size: 0x8, addend: 0x0, symName: '__ZNSt3__110__function6__funcIZN8facebook5react13ReactInstance15registerSegmentEjRKNS_12basic_stringIcNS_11char_traitsIcEENS_9allocatorIcEEEEE3$_0NS8_ISD_EEFvRNS2_3jsi7RuntimeEEEclESH_', symObjAddr: 0x7EFC, symBinAddr: 0xD4F4, symSize: 0x4AC }
  - { offset: 0xA9727, size: 0x8, addend: 0x0, symName: '__ZNKSt3__110__function6__funcIZN8facebook5react13ReactInstance15registerSegmentEjRKNS_12basic_stringIcNS_11char_traitsIcEENS_9allocatorIcEEEEE3$_0NS8_ISD_EEFvRNS2_3jsi7RuntimeEEE6targetERKSt9type_info', symObjAddr: 0x83A8, symBinAddr: 0xD9A0, symSize: 0x3C }
  - { offset: 0xA9774, size: 0x8, addend: 0x0, symName: '__ZNKSt3__110__function6__funcIZN8facebook5react13ReactInstance15registerSegmentEjRKNS_12basic_stringIcNS_11char_traitsIcEENS_9allocatorIcEEEEE3$_0NS8_ISD_EEFvRNS2_3jsi7RuntimeEEE11target_typeEv', symObjAddr: 0x83E4, symBinAddr: 0xD9DC, symSize: 0xC }
  - { offset: 0xA97E5, size: 0x8, addend: 0x0, symName: '__ZNSt3__110__function6__funcIZN8facebook5react13ReactInstance17initializeRuntimeENS4_14JSRuntimeFlagsENS_8functionIFvRNS2_3jsi7RuntimeEEEEE3$_0NS_9allocatorISC_EESA_ED1Ev', symObjAddr: 0x83F0, symBinAddr: 0xD9E8, symSize: 0x68 }
  - { offset: 0xA9A85, size: 0x8, addend: 0x0, symName: '__ZNSt3__110__function6__funcIZN8facebook5react13ReactInstance17initializeRuntimeENS4_14JSRuntimeFlagsENS_8functionIFvRNS2_3jsi7RuntimeEEEEE3$_0NS_9allocatorISC_EESA_ED0Ev', symObjAddr: 0x8458, symBinAddr: 0xDA50, symSize: 0x68 }
  - { offset: 0xA9EBE, size: 0x8, addend: 0x0, symName: '__ZNKSt3__110__function6__funcIZN8facebook5react13ReactInstance17initializeRuntimeENS4_14JSRuntimeFlagsENS_8functionIFvRNS2_3jsi7RuntimeEEEEE3$_0NS_9allocatorISC_EESA_E7__cloneEv', symObjAddr: 0x84C0, symBinAddr: 0xDAB8, symSize: 0xA4 }
  - { offset: 0xAA40B, size: 0x8, addend: 0x0, symName: '__ZNKSt3__110__function6__funcIZN8facebook5react13ReactInstance17initializeRuntimeENS4_14JSRuntimeFlagsENS_8functionIFvRNS2_3jsi7RuntimeEEEEE3$_0NS_9allocatorISC_EESA_E7__cloneEPNS0_6__baseISA_EE', symObjAddr: 0x8564, symBinAddr: 0xDB5C, symSize: 0x88 }
  - { offset: 0xAA75E, size: 0x8, addend: 0x0, symName: '__ZNSt3__110__function6__funcIZN8facebook5react13ReactInstance17initializeRuntimeENS4_14JSRuntimeFlagsENS_8functionIFvRNS2_3jsi7RuntimeEEEEE3$_0NS_9allocatorISC_EESA_E7destroyEv', symObjAddr: 0x85EC, symBinAddr: 0xDBE4, symSize: 0x8 }
  - { offset: 0xAA792, size: 0x8, addend: 0x0, symName: '__ZNSt3__110__function12__alloc_funcIZN8facebook5react13ReactInstance17initializeRuntimeENS4_14JSRuntimeFlagsENS_8functionIFvRNS2_3jsi7RuntimeEEEEE3$_0NS_9allocatorISC_EESA_E7destroyB8ne200100Ev', symObjAddr: 0x9764, symBinAddr: 0xED5C, symSize: 0x60 }
  - { offset: 0xAA984, size: 0x8, addend: 0x0, symName: '__ZNSt3__110__function6__funcIZN8facebook5react13ReactInstance17initializeRuntimeENS4_14JSRuntimeFlagsENS_8functionIFvRNS2_3jsi7RuntimeEEEEE3$_0NS_9allocatorISC_EESA_E18destroy_deallocateEv', symObjAddr: 0x85F4, symBinAddr: 0xDBEC, symSize: 0x28 }
  - { offset: 0xAC057, size: 0x8, addend: 0x0, symName: '__ZNSt3__110__function6__funcIZN8facebook5react13ReactInstance17initializeRuntimeENS4_14JSRuntimeFlagsENS_8functionIFvRNS2_3jsi7RuntimeEEEEE3$_0NS_9allocatorISC_EESA_EclES9_', symObjAddr: 0x861C, symBinAddr: 0xDC14, symSize: 0x1100 }
  - { offset: 0xB1EBD, size: 0x8, addend: 0x0, symName: __ZNSt3__16vectorINS_10shared_ptrIN8facebook3jsi8FunctionEEENS_9allocatorIS5_EEE16__destroy_vectorclB8ne200100Ev, symObjAddr: 0xAA4C, symBinAddr: 0xFECC, symSize: 0x70 }
  - { offset: 0xB202D, size: 0x8, addend: 0x0, symName: '__ZZZN8facebook5react13ReactInstance17initializeRuntimeENS1_14JSRuntimeFlagsENSt3__18functionIFvRNS_3jsi7RuntimeEEEEENK3$_0clES7_ENUlS7_RKNS5_5ValueEPSC_mE4_D1Ev', symObjAddr: 0x97C4, symBinAddr: 0xEDBC, symSize: 0x3C }
  - { offset: 0xB2129, size: 0x8, addend: 0x0, symName: '__ZNKSt3__110__function6__funcIZN8facebook5react13ReactInstance17initializeRuntimeENS4_14JSRuntimeFlagsENS_8functionIFvRNS2_3jsi7RuntimeEEEEE3$_0NS_9allocatorISC_EESA_E6targetERKSt9type_info', symObjAddr: 0x971C, symBinAddr: 0xED14, symSize: 0x3C }
  - { offset: 0xB2176, size: 0x8, addend: 0x0, symName: '__ZNKSt3__110__function6__funcIZN8facebook5react13ReactInstance17initializeRuntimeENS4_14JSRuntimeFlagsENS_8functionIFvRNS2_3jsi7RuntimeEEEEE3$_0NS_9allocatorISC_EESA_E11target_typeEv', symObjAddr: 0x9758, symBinAddr: 0xED50, symSize: 0xC }
  - { offset: 0xB21E7, size: 0x8, addend: 0x0, symName: '__ZNSt3__110__function6__funcIZZN8facebook5react13ReactInstance17initializeRuntimeENS4_14JSRuntimeFlagsENS_8functionIFvRNS2_3jsi7RuntimeEEEEENK3$_0clES9_EUlS9_RKNS7_5ValueEPSE_mE_NS_9allocatorISH_EEFSD_S9_SF_SG_mEED1Ev', symObjAddr: 0x9864, symBinAddr: 0xEDF8, symSize: 0x30 }
  - { offset: 0xB22DE, size: 0x8, addend: 0x0, symName: '__ZNSt3__110__function6__funcIZZN8facebook5react13ReactInstance17initializeRuntimeENS4_14JSRuntimeFlagsENS_8functionIFvRNS2_3jsi7RuntimeEEEEENK3$_0clES9_EUlS9_RKNS7_5ValueEPSE_mE_NS_9allocatorISH_EEFSD_S9_SF_SG_mEED0Ev', symObjAddr: 0x9894, symBinAddr: 0xEE28, symSize: 0x30 }
  - { offset: 0xB2503, size: 0x8, addend: 0x0, symName: '__ZNKSt3__110__function6__funcIZZN8facebook5react13ReactInstance17initializeRuntimeENS4_14JSRuntimeFlagsENS_8functionIFvRNS2_3jsi7RuntimeEEEEENK3$_0clES9_EUlS9_RKNS7_5ValueEPSE_mE_NS_9allocatorISH_EEFSD_S9_SF_SG_mEE7__cloneEv', symObjAddr: 0x98C4, symBinAddr: 0xEE58, symSize: 0x50 }
  - { offset: 0xB27A5, size: 0x8, addend: 0x0, symName: '__ZNKSt3__110__function6__funcIZZN8facebook5react13ReactInstance17initializeRuntimeENS4_14JSRuntimeFlagsENS_8functionIFvRNS2_3jsi7RuntimeEEEEENK3$_0clES9_EUlS9_RKNS7_5ValueEPSE_mE_NS_9allocatorISH_EEFSD_S9_SF_SG_mEE7__cloneEPNS0_6__baseISK_EE', symObjAddr: 0x9914, symBinAddr: 0xEEA8, symSize: 0x30 }
  - { offset: 0xB27DA, size: 0x8, addend: 0x0, symName: '__ZNKSt3__110__function6__funcIZZN8facebook5react13ReactInstance17initializeRuntimeENS4_14JSRuntimeFlagsENS_8functionIFvRNS2_3jsi7RuntimeEEEEENK3$_0clES9_EUlS9_RKNS7_5ValueEPSE_mE_NS_9allocatorISH_EEFSD_S9_SF_SG_mEE7__cloneEPNS0_6__baseISK_EE', symObjAddr: 0x9914, symBinAddr: 0xEEA8, symSize: 0x30 }
  - { offset: 0xB2808, size: 0x8, addend: 0x0, symName: '__ZNKSt3__110__function6__funcIZZN8facebook5react13ReactInstance17initializeRuntimeENS4_14JSRuntimeFlagsENS_8functionIFvRNS2_3jsi7RuntimeEEEEENK3$_0clES9_EUlS9_RKNS7_5ValueEPSE_mE_NS_9allocatorISH_EEFSD_S9_SF_SG_mEE7__cloneEPNS0_6__baseISK_EE', symObjAddr: 0x9914, symBinAddr: 0xEEA8, symSize: 0x30 }
  - { offset: 0xB2931, size: 0x8, addend: 0x0, symName: '__ZNSt3__110__function6__funcIZZN8facebook5react13ReactInstance17initializeRuntimeENS4_14JSRuntimeFlagsENS_8functionIFvRNS2_3jsi7RuntimeEEEEENK3$_0clES9_EUlS9_RKNS7_5ValueEPSE_mE_NS_9allocatorISH_EEFSD_S9_SF_SG_mEE7destroyEv', symObjAddr: 0x9944, symBinAddr: 0xEED8, symSize: 0x8 }
  - { offset: 0xB29EB, size: 0x8, addend: 0x0, symName: '__ZNSt3__110__function6__funcIZZN8facebook5react13ReactInstance17initializeRuntimeENS4_14JSRuntimeFlagsENS_8functionIFvRNS2_3jsi7RuntimeEEEEENK3$_0clES9_EUlS9_RKNS7_5ValueEPSE_mE_NS_9allocatorISH_EEFSD_S9_SF_SG_mEE18destroy_deallocateEv', symObjAddr: 0x994C, symBinAddr: 0xEEE0, symSize: 0x28 }
  - { offset: 0xB2BF8, size: 0x8, addend: 0x0, symName: '__ZNSt3__110__function6__funcIZZN8facebook5react13ReactInstance17initializeRuntimeENS4_14JSRuntimeFlagsENS_8functionIFvRNS2_3jsi7RuntimeEEEEENK3$_0clES9_EUlS9_RKNS7_5ValueEPSE_mE_NS_9allocatorISH_EEFSD_S9_SF_SG_mEEclES9_SF_OSG_Om', symObjAddr: 0x9974, symBinAddr: 0xEF08, symSize: 0x30 }
  - { offset: 0xB2D69, size: 0x8, addend: 0x0, symName: '__ZNKSt3__110__function6__funcIZZN8facebook5react13ReactInstance17initializeRuntimeENS4_14JSRuntimeFlagsENS_8functionIFvRNS2_3jsi7RuntimeEEEEENK3$_0clES9_EUlS9_RKNS7_5ValueEPSE_mE_NS_9allocatorISH_EEFSD_S9_SF_SG_mEE6targetERKSt9type_info', symObjAddr: 0x99A4, symBinAddr: 0xEF38, symSize: 0x3C }
  - { offset: 0xB2DB6, size: 0x8, addend: 0x0, symName: '__ZNKSt3__110__function6__funcIZZN8facebook5react13ReactInstance17initializeRuntimeENS4_14JSRuntimeFlagsENS_8functionIFvRNS2_3jsi7RuntimeEEEEENK3$_0clES9_EUlS9_RKNS7_5ValueEPSE_mE_NS_9allocatorISH_EEFSD_S9_SF_SG_mEE11target_typeEv', symObjAddr: 0x99E0, symBinAddr: 0xEF74, symSize: 0xC }
  - { offset: 0xB2E27, size: 0x8, addend: 0x0, symName: '__ZNSt3__110__function6__funcIZZN8facebook5react13ReactInstance17initializeRuntimeENS4_14JSRuntimeFlagsENS_8functionIFvRNS2_3jsi7RuntimeEEEEENK3$_0clES9_EUlS9_RKNS7_5ValueEPSE_mE0_NS_9allocatorISH_EEFSD_S9_SF_SG_mEED1Ev', symObjAddr: 0x99EC, symBinAddr: 0xEF80, symSize: 0x30 }
  - { offset: 0xB2F1E, size: 0x8, addend: 0x0, symName: '__ZNSt3__110__function6__funcIZZN8facebook5react13ReactInstance17initializeRuntimeENS4_14JSRuntimeFlagsENS_8functionIFvRNS2_3jsi7RuntimeEEEEENK3$_0clES9_EUlS9_RKNS7_5ValueEPSE_mE0_NS_9allocatorISH_EEFSD_S9_SF_SG_mEED0Ev', symObjAddr: 0x9A1C, symBinAddr: 0xEFB0, symSize: 0x30 }
  - { offset: 0xB3143, size: 0x8, addend: 0x0, symName: '__ZNKSt3__110__function6__funcIZZN8facebook5react13ReactInstance17initializeRuntimeENS4_14JSRuntimeFlagsENS_8functionIFvRNS2_3jsi7RuntimeEEEEENK3$_0clES9_EUlS9_RKNS7_5ValueEPSE_mE0_NS_9allocatorISH_EEFSD_S9_SF_SG_mEE7__cloneEv', symObjAddr: 0x9A4C, symBinAddr: 0xEFE0, symSize: 0x50 }
  - { offset: 0xB33E5, size: 0x8, addend: 0x0, symName: '__ZNKSt3__110__function6__funcIZZN8facebook5react13ReactInstance17initializeRuntimeENS4_14JSRuntimeFlagsENS_8functionIFvRNS2_3jsi7RuntimeEEEEENK3$_0clES9_EUlS9_RKNS7_5ValueEPSE_mE0_NS_9allocatorISH_EEFSD_S9_SF_SG_mEE7__cloneEPNS0_6__baseISK_EE', symObjAddr: 0x9A9C, symBinAddr: 0xF030, symSize: 0x30 }
  - { offset: 0xB341A, size: 0x8, addend: 0x0, symName: '__ZNKSt3__110__function6__funcIZZN8facebook5react13ReactInstance17initializeRuntimeENS4_14JSRuntimeFlagsENS_8functionIFvRNS2_3jsi7RuntimeEEEEENK3$_0clES9_EUlS9_RKNS7_5ValueEPSE_mE0_NS_9allocatorISH_EEFSD_S9_SF_SG_mEE7__cloneEPNS0_6__baseISK_EE', symObjAddr: 0x9A9C, symBinAddr: 0xF030, symSize: 0x30 }
  - { offset: 0xB3448, size: 0x8, addend: 0x0, symName: '__ZNKSt3__110__function6__funcIZZN8facebook5react13ReactInstance17initializeRuntimeENS4_14JSRuntimeFlagsENS_8functionIFvRNS2_3jsi7RuntimeEEEEENK3$_0clES9_EUlS9_RKNS7_5ValueEPSE_mE0_NS_9allocatorISH_EEFSD_S9_SF_SG_mEE7__cloneEPNS0_6__baseISK_EE', symObjAddr: 0x9A9C, symBinAddr: 0xF030, symSize: 0x30 }
  - { offset: 0xB3571, size: 0x8, addend: 0x0, symName: '__ZNSt3__110__function6__funcIZZN8facebook5react13ReactInstance17initializeRuntimeENS4_14JSRuntimeFlagsENS_8functionIFvRNS2_3jsi7RuntimeEEEEENK3$_0clES9_EUlS9_RKNS7_5ValueEPSE_mE0_NS_9allocatorISH_EEFSD_S9_SF_SG_mEE7destroyEv', symObjAddr: 0x9ACC, symBinAddr: 0xF060, symSize: 0x8 }
  - { offset: 0xB362B, size: 0x8, addend: 0x0, symName: '__ZNSt3__110__function6__funcIZZN8facebook5react13ReactInstance17initializeRuntimeENS4_14JSRuntimeFlagsENS_8functionIFvRNS2_3jsi7RuntimeEEEEENK3$_0clES9_EUlS9_RKNS7_5ValueEPSE_mE0_NS_9allocatorISH_EEFSD_S9_SF_SG_mEE18destroy_deallocateEv', symObjAddr: 0x9AD4, symBinAddr: 0xF068, symSize: 0x28 }
  - { offset: 0xB3838, size: 0x8, addend: 0x0, symName: '__ZNSt3__110__function6__funcIZZN8facebook5react13ReactInstance17initializeRuntimeENS4_14JSRuntimeFlagsENS_8functionIFvRNS2_3jsi7RuntimeEEEEENK3$_0clES9_EUlS9_RKNS7_5ValueEPSE_mE0_NS_9allocatorISH_EEFSD_S9_SF_SG_mEEclES9_SF_OSG_Om', symObjAddr: 0x9AFC, symBinAddr: 0xF090, symSize: 0x30 }
  - { offset: 0xB39A9, size: 0x8, addend: 0x0, symName: '__ZNKSt3__110__function6__funcIZZN8facebook5react13ReactInstance17initializeRuntimeENS4_14JSRuntimeFlagsENS_8functionIFvRNS2_3jsi7RuntimeEEEEENK3$_0clES9_EUlS9_RKNS7_5ValueEPSE_mE0_NS_9allocatorISH_EEFSD_S9_SF_SG_mEE6targetERKSt9type_info', symObjAddr: 0x9B2C, symBinAddr: 0xF0C0, symSize: 0x3C }
  - { offset: 0xB39F6, size: 0x8, addend: 0x0, symName: '__ZNKSt3__110__function6__funcIZZN8facebook5react13ReactInstance17initializeRuntimeENS4_14JSRuntimeFlagsENS_8functionIFvRNS2_3jsi7RuntimeEEEEENK3$_0clES9_EUlS9_RKNS7_5ValueEPSE_mE0_NS_9allocatorISH_EEFSD_S9_SF_SG_mEE11target_typeEv', symObjAddr: 0x9B68, symBinAddr: 0xF0FC, symSize: 0xC }
  - { offset: 0xB3A67, size: 0x8, addend: 0x0, symName: '__ZNSt3__110__function6__funcIZZN8facebook5react13ReactInstance17initializeRuntimeENS4_14JSRuntimeFlagsENS_8functionIFvRNS2_3jsi7RuntimeEEEEENK3$_0clES9_EUlS9_RKNS7_5ValueEPSE_mE1_NS_9allocatorISH_EEFSD_S9_SF_SG_mEED1Ev', symObjAddr: 0x9B74, symBinAddr: 0xF108, symSize: 0x30 }
  - { offset: 0xB3B5E, size: 0x8, addend: 0x0, symName: '__ZNSt3__110__function6__funcIZZN8facebook5react13ReactInstance17initializeRuntimeENS4_14JSRuntimeFlagsENS_8functionIFvRNS2_3jsi7RuntimeEEEEENK3$_0clES9_EUlS9_RKNS7_5ValueEPSE_mE1_NS_9allocatorISH_EEFSD_S9_SF_SG_mEED0Ev', symObjAddr: 0x9BA4, symBinAddr: 0xF138, symSize: 0x30 }
  - { offset: 0xB3D83, size: 0x8, addend: 0x0, symName: '__ZNKSt3__110__function6__funcIZZN8facebook5react13ReactInstance17initializeRuntimeENS4_14JSRuntimeFlagsENS_8functionIFvRNS2_3jsi7RuntimeEEEEENK3$_0clES9_EUlS9_RKNS7_5ValueEPSE_mE1_NS_9allocatorISH_EEFSD_S9_SF_SG_mEE7__cloneEv', symObjAddr: 0x9BD4, symBinAddr: 0xF168, symSize: 0x50 }
  - { offset: 0xB4025, size: 0x8, addend: 0x0, symName: '__ZNKSt3__110__function6__funcIZZN8facebook5react13ReactInstance17initializeRuntimeENS4_14JSRuntimeFlagsENS_8functionIFvRNS2_3jsi7RuntimeEEEEENK3$_0clES9_EUlS9_RKNS7_5ValueEPSE_mE1_NS_9allocatorISH_EEFSD_S9_SF_SG_mEE7__cloneEPNS0_6__baseISK_EE', symObjAddr: 0x9C24, symBinAddr: 0xF1B8, symSize: 0x30 }
  - { offset: 0xB405A, size: 0x8, addend: 0x0, symName: '__ZNKSt3__110__function6__funcIZZN8facebook5react13ReactInstance17initializeRuntimeENS4_14JSRuntimeFlagsENS_8functionIFvRNS2_3jsi7RuntimeEEEEENK3$_0clES9_EUlS9_RKNS7_5ValueEPSE_mE1_NS_9allocatorISH_EEFSD_S9_SF_SG_mEE7__cloneEPNS0_6__baseISK_EE', symObjAddr: 0x9C24, symBinAddr: 0xF1B8, symSize: 0x30 }
  - { offset: 0xB4088, size: 0x8, addend: 0x0, symName: '__ZNKSt3__110__function6__funcIZZN8facebook5react13ReactInstance17initializeRuntimeENS4_14JSRuntimeFlagsENS_8functionIFvRNS2_3jsi7RuntimeEEEEENK3$_0clES9_EUlS9_RKNS7_5ValueEPSE_mE1_NS_9allocatorISH_EEFSD_S9_SF_SG_mEE7__cloneEPNS0_6__baseISK_EE', symObjAddr: 0x9C24, symBinAddr: 0xF1B8, symSize: 0x30 }
  - { offset: 0xB41B1, size: 0x8, addend: 0x0, symName: '__ZNSt3__110__function6__funcIZZN8facebook5react13ReactInstance17initializeRuntimeENS4_14JSRuntimeFlagsENS_8functionIFvRNS2_3jsi7RuntimeEEEEENK3$_0clES9_EUlS9_RKNS7_5ValueEPSE_mE1_NS_9allocatorISH_EEFSD_S9_SF_SG_mEE7destroyEv', symObjAddr: 0x9C54, symBinAddr: 0xF1E8, symSize: 0x8 }
  - { offset: 0xB426B, size: 0x8, addend: 0x0, symName: '__ZNSt3__110__function6__funcIZZN8facebook5react13ReactInstance17initializeRuntimeENS4_14JSRuntimeFlagsENS_8functionIFvRNS2_3jsi7RuntimeEEEEENK3$_0clES9_EUlS9_RKNS7_5ValueEPSE_mE1_NS_9allocatorISH_EEFSD_S9_SF_SG_mEE18destroy_deallocateEv', symObjAddr: 0x9C5C, symBinAddr: 0xF1F0, symSize: 0x28 }
  - { offset: 0xB4478, size: 0x8, addend: 0x0, symName: '__ZNSt3__110__function6__funcIZZN8facebook5react13ReactInstance17initializeRuntimeENS4_14JSRuntimeFlagsENS_8functionIFvRNS2_3jsi7RuntimeEEEEENK3$_0clES9_EUlS9_RKNS7_5ValueEPSE_mE1_NS_9allocatorISH_EEFSD_S9_SF_SG_mEEclES9_SF_OSG_Om', symObjAddr: 0x9C84, symBinAddr: 0xF218, symSize: 0x28 }
  - { offset: 0xB4600, size: 0x8, addend: 0x0, symName: '__ZNKSt3__110__function6__funcIZZN8facebook5react13ReactInstance17initializeRuntimeENS4_14JSRuntimeFlagsENS_8functionIFvRNS2_3jsi7RuntimeEEEEENK3$_0clES9_EUlS9_RKNS7_5ValueEPSE_mE1_NS_9allocatorISH_EEFSD_S9_SF_SG_mEE6targetERKSt9type_info', symObjAddr: 0x9CAC, symBinAddr: 0xF240, symSize: 0x3C }
  - { offset: 0xB464D, size: 0x8, addend: 0x0, symName: '__ZNKSt3__110__function6__funcIZZN8facebook5react13ReactInstance17initializeRuntimeENS4_14JSRuntimeFlagsENS_8functionIFvRNS2_3jsi7RuntimeEEEEENK3$_0clES9_EUlS9_RKNS7_5ValueEPSE_mE1_NS_9allocatorISH_EEFSD_S9_SF_SG_mEE11target_typeEv', symObjAddr: 0x9CE8, symBinAddr: 0xF27C, symSize: 0xC }
  - { offset: 0xB46BE, size: 0x8, addend: 0x0, symName: '__ZNSt3__110__function6__funcIZZN8facebook5react13ReactInstance17initializeRuntimeENS4_14JSRuntimeFlagsENS_8functionIFvRNS2_3jsi7RuntimeEEEEENK3$_0clES9_EUlS9_RKNS7_5ValueEPSE_mE2_NS_9allocatorISH_EEFSD_S9_SF_SG_mEED1Ev', symObjAddr: 0x9CF4, symBinAddr: 0xF288, symSize: 0x30 }
  - { offset: 0xB47B5, size: 0x8, addend: 0x0, symName: '__ZNSt3__110__function6__funcIZZN8facebook5react13ReactInstance17initializeRuntimeENS4_14JSRuntimeFlagsENS_8functionIFvRNS2_3jsi7RuntimeEEEEENK3$_0clES9_EUlS9_RKNS7_5ValueEPSE_mE2_NS_9allocatorISH_EEFSD_S9_SF_SG_mEED0Ev', symObjAddr: 0x9D24, symBinAddr: 0xF2B8, symSize: 0x30 }
  - { offset: 0xB49DA, size: 0x8, addend: 0x0, symName: '__ZNKSt3__110__function6__funcIZZN8facebook5react13ReactInstance17initializeRuntimeENS4_14JSRuntimeFlagsENS_8functionIFvRNS2_3jsi7RuntimeEEEEENK3$_0clES9_EUlS9_RKNS7_5ValueEPSE_mE2_NS_9allocatorISH_EEFSD_S9_SF_SG_mEE7__cloneEv', symObjAddr: 0x9D54, symBinAddr: 0xF2E8, symSize: 0x50 }
  - { offset: 0xB4C7C, size: 0x8, addend: 0x0, symName: '__ZNKSt3__110__function6__funcIZZN8facebook5react13ReactInstance17initializeRuntimeENS4_14JSRuntimeFlagsENS_8functionIFvRNS2_3jsi7RuntimeEEEEENK3$_0clES9_EUlS9_RKNS7_5ValueEPSE_mE2_NS_9allocatorISH_EEFSD_S9_SF_SG_mEE7__cloneEPNS0_6__baseISK_EE', symObjAddr: 0x9DA4, symBinAddr: 0xF338, symSize: 0x30 }
  - { offset: 0xB4CB1, size: 0x8, addend: 0x0, symName: '__ZNKSt3__110__function6__funcIZZN8facebook5react13ReactInstance17initializeRuntimeENS4_14JSRuntimeFlagsENS_8functionIFvRNS2_3jsi7RuntimeEEEEENK3$_0clES9_EUlS9_RKNS7_5ValueEPSE_mE2_NS_9allocatorISH_EEFSD_S9_SF_SG_mEE7__cloneEPNS0_6__baseISK_EE', symObjAddr: 0x9DA4, symBinAddr: 0xF338, symSize: 0x30 }
  - { offset: 0xB4CDF, size: 0x8, addend: 0x0, symName: '__ZNKSt3__110__function6__funcIZZN8facebook5react13ReactInstance17initializeRuntimeENS4_14JSRuntimeFlagsENS_8functionIFvRNS2_3jsi7RuntimeEEEEENK3$_0clES9_EUlS9_RKNS7_5ValueEPSE_mE2_NS_9allocatorISH_EEFSD_S9_SF_SG_mEE7__cloneEPNS0_6__baseISK_EE', symObjAddr: 0x9DA4, symBinAddr: 0xF338, symSize: 0x30 }
  - { offset: 0xB4E08, size: 0x8, addend: 0x0, symName: '__ZNSt3__110__function6__funcIZZN8facebook5react13ReactInstance17initializeRuntimeENS4_14JSRuntimeFlagsENS_8functionIFvRNS2_3jsi7RuntimeEEEEENK3$_0clES9_EUlS9_RKNS7_5ValueEPSE_mE2_NS_9allocatorISH_EEFSD_S9_SF_SG_mEE7destroyEv', symObjAddr: 0x9DD4, symBinAddr: 0xF368, symSize: 0x8 }
  - { offset: 0xB4EC2, size: 0x8, addend: 0x0, symName: '__ZNSt3__110__function6__funcIZZN8facebook5react13ReactInstance17initializeRuntimeENS4_14JSRuntimeFlagsENS_8functionIFvRNS2_3jsi7RuntimeEEEEENK3$_0clES9_EUlS9_RKNS7_5ValueEPSE_mE2_NS_9allocatorISH_EEFSD_S9_SF_SG_mEE18destroy_deallocateEv', symObjAddr: 0x9DDC, symBinAddr: 0xF370, symSize: 0x28 }
  - { offset: 0xB50CF, size: 0x8, addend: 0x0, symName: '__ZNSt3__110__function6__funcIZZN8facebook5react13ReactInstance17initializeRuntimeENS4_14JSRuntimeFlagsENS_8functionIFvRNS2_3jsi7RuntimeEEEEENK3$_0clES9_EUlS9_RKNS7_5ValueEPSE_mE2_NS_9allocatorISH_EEFSD_S9_SF_SG_mEEclES9_SF_OSG_Om', symObjAddr: 0x9E04, symBinAddr: 0xF398, symSize: 0x30 }
  - { offset: 0xB5240, size: 0x8, addend: 0x0, symName: '__ZNKSt3__110__function6__funcIZZN8facebook5react13ReactInstance17initializeRuntimeENS4_14JSRuntimeFlagsENS_8functionIFvRNS2_3jsi7RuntimeEEEEENK3$_0clES9_EUlS9_RKNS7_5ValueEPSE_mE2_NS_9allocatorISH_EEFSD_S9_SF_SG_mEE6targetERKSt9type_info', symObjAddr: 0x9E34, symBinAddr: 0xF3C8, symSize: 0x3C }
  - { offset: 0xB528D, size: 0x8, addend: 0x0, symName: '__ZNKSt3__110__function6__funcIZZN8facebook5react13ReactInstance17initializeRuntimeENS4_14JSRuntimeFlagsENS_8functionIFvRNS2_3jsi7RuntimeEEEEENK3$_0clES9_EUlS9_RKNS7_5ValueEPSE_mE2_NS_9allocatorISH_EEFSD_S9_SF_SG_mEE11target_typeEv', symObjAddr: 0x9E70, symBinAddr: 0xF404, symSize: 0xC }
  - { offset: 0xB52FE, size: 0x8, addend: 0x0, symName: '__ZNSt3__110__function6__funcIZZN8facebook5react13ReactInstance17initializeRuntimeENS4_14JSRuntimeFlagsENS_8functionIFvRNS2_3jsi7RuntimeEEEEENK3$_0clES9_EUlS9_RKNS7_5ValueEPSE_mE3_NS_9allocatorISH_EEFSD_S9_SF_SG_mEED1Ev', symObjAddr: 0x9E7C, symBinAddr: 0xF410, symSize: 0x30 }
  - { offset: 0xB53F5, size: 0x8, addend: 0x0, symName: '__ZNSt3__110__function6__funcIZZN8facebook5react13ReactInstance17initializeRuntimeENS4_14JSRuntimeFlagsENS_8functionIFvRNS2_3jsi7RuntimeEEEEENK3$_0clES9_EUlS9_RKNS7_5ValueEPSE_mE3_NS_9allocatorISH_EEFSD_S9_SF_SG_mEED0Ev', symObjAddr: 0x9EAC, symBinAddr: 0xF440, symSize: 0x30 }
  - { offset: 0xB561A, size: 0x8, addend: 0x0, symName: '__ZNKSt3__110__function6__funcIZZN8facebook5react13ReactInstance17initializeRuntimeENS4_14JSRuntimeFlagsENS_8functionIFvRNS2_3jsi7RuntimeEEEEENK3$_0clES9_EUlS9_RKNS7_5ValueEPSE_mE3_NS_9allocatorISH_EEFSD_S9_SF_SG_mEE7__cloneEv', symObjAddr: 0x9EDC, symBinAddr: 0xF470, symSize: 0x50 }
  - { offset: 0xB58BC, size: 0x8, addend: 0x0, symName: '__ZNKSt3__110__function6__funcIZZN8facebook5react13ReactInstance17initializeRuntimeENS4_14JSRuntimeFlagsENS_8functionIFvRNS2_3jsi7RuntimeEEEEENK3$_0clES9_EUlS9_RKNS7_5ValueEPSE_mE3_NS_9allocatorISH_EEFSD_S9_SF_SG_mEE7__cloneEPNS0_6__baseISK_EE', symObjAddr: 0x9F2C, symBinAddr: 0xF4C0, symSize: 0x30 }
  - { offset: 0xB58F1, size: 0x8, addend: 0x0, symName: '__ZNKSt3__110__function6__funcIZZN8facebook5react13ReactInstance17initializeRuntimeENS4_14JSRuntimeFlagsENS_8functionIFvRNS2_3jsi7RuntimeEEEEENK3$_0clES9_EUlS9_RKNS7_5ValueEPSE_mE3_NS_9allocatorISH_EEFSD_S9_SF_SG_mEE7__cloneEPNS0_6__baseISK_EE', symObjAddr: 0x9F2C, symBinAddr: 0xF4C0, symSize: 0x30 }
  - { offset: 0xB591F, size: 0x8, addend: 0x0, symName: '__ZNKSt3__110__function6__funcIZZN8facebook5react13ReactInstance17initializeRuntimeENS4_14JSRuntimeFlagsENS_8functionIFvRNS2_3jsi7RuntimeEEEEENK3$_0clES9_EUlS9_RKNS7_5ValueEPSE_mE3_NS_9allocatorISH_EEFSD_S9_SF_SG_mEE7__cloneEPNS0_6__baseISK_EE', symObjAddr: 0x9F2C, symBinAddr: 0xF4C0, symSize: 0x30 }
  - { offset: 0xB5A48, size: 0x8, addend: 0x0, symName: '__ZNSt3__110__function6__funcIZZN8facebook5react13ReactInstance17initializeRuntimeENS4_14JSRuntimeFlagsENS_8functionIFvRNS2_3jsi7RuntimeEEEEENK3$_0clES9_EUlS9_RKNS7_5ValueEPSE_mE3_NS_9allocatorISH_EEFSD_S9_SF_SG_mEE7destroyEv', symObjAddr: 0x9F5C, symBinAddr: 0xF4F0, symSize: 0x8 }
  - { offset: 0xB5B02, size: 0x8, addend: 0x0, symName: '__ZNSt3__110__function6__funcIZZN8facebook5react13ReactInstance17initializeRuntimeENS4_14JSRuntimeFlagsENS_8functionIFvRNS2_3jsi7RuntimeEEEEENK3$_0clES9_EUlS9_RKNS7_5ValueEPSE_mE3_NS_9allocatorISH_EEFSD_S9_SF_SG_mEE18destroy_deallocateEv', symObjAddr: 0x9F64, symBinAddr: 0xF4F8, symSize: 0x28 }
  - { offset: 0xB5D42, size: 0x8, addend: 0x0, symName: '__ZNSt3__110__function6__funcIZZN8facebook5react13ReactInstance17initializeRuntimeENS4_14JSRuntimeFlagsENS_8functionIFvRNS2_3jsi7RuntimeEEEEENK3$_0clES9_EUlS9_RKNS7_5ValueEPSE_mE3_NS_9allocatorISH_EEFSD_S9_SF_SG_mEEclES9_SF_OSG_Om', symObjAddr: 0x9F8C, symBinAddr: 0xF520, symSize: 0x174 }
  - { offset: 0xB617E, size: 0x8, addend: 0x0, symName: '__ZNKSt3__110__function6__funcIZZN8facebook5react13ReactInstance17initializeRuntimeENS4_14JSRuntimeFlagsENS_8functionIFvRNS2_3jsi7RuntimeEEEEENK3$_0clES9_EUlS9_RKNS7_5ValueEPSE_mE3_NS_9allocatorISH_EEFSD_S9_SF_SG_mEE6targetERKSt9type_info', symObjAddr: 0xA100, symBinAddr: 0xF694, symSize: 0x3C }
  - { offset: 0xB61CB, size: 0x8, addend: 0x0, symName: '__ZNKSt3__110__function6__funcIZZN8facebook5react13ReactInstance17initializeRuntimeENS4_14JSRuntimeFlagsENS_8functionIFvRNS2_3jsi7RuntimeEEEEENK3$_0clES9_EUlS9_RKNS7_5ValueEPSE_mE3_NS_9allocatorISH_EEFSD_S9_SF_SG_mEE11target_typeEv', symObjAddr: 0xA13C, symBinAddr: 0xF6D0, symSize: 0xC }
  - { offset: 0xB6289, size: 0x8, addend: 0x0, symName: '__ZNSt3__110__function6__funcIZZN8facebook5react13ReactInstance17initializeRuntimeENS4_14JSRuntimeFlagsENS_8functionIFvRNS2_3jsi7RuntimeEEEEENK3$_0clES9_EUlS9_RKNS7_5ValueEPSE_mE4_NS_9allocatorISH_EEFSD_S9_SF_SG_mEED1Ev', symObjAddr: 0xA308, symBinAddr: 0xF828, symSize: 0x48 }
  - { offset: 0xB641A, size: 0x8, addend: 0x0, symName: '__ZNSt3__110__function6__funcIZZN8facebook5react13ReactInstance17initializeRuntimeENS4_14JSRuntimeFlagsENS_8functionIFvRNS2_3jsi7RuntimeEEEEENK3$_0clES9_EUlS9_RKNS7_5ValueEPSE_mE4_NS_9allocatorISH_EEFSD_S9_SF_SG_mEED0Ev', symObjAddr: 0xA350, symBinAddr: 0xF870, symSize: 0x4C }
  - { offset: 0xB6824, size: 0x8, addend: 0x0, symName: '__ZNKSt3__110__function6__funcIZZN8facebook5react13ReactInstance17initializeRuntimeENS4_14JSRuntimeFlagsENS_8functionIFvRNS2_3jsi7RuntimeEEEEENK3$_0clES9_EUlS9_RKNS7_5ValueEPSE_mE4_NS_9allocatorISH_EEFSD_S9_SF_SG_mEE7__cloneEv', symObjAddr: 0xA39C, symBinAddr: 0xF8BC, symSize: 0x84 }
  - { offset: 0xB6BCC, size: 0x8, addend: 0x0, symName: __ZNSt3__16vectorINS_10shared_ptrIN8facebook3jsi8FunctionEEENS_9allocatorIS5_EEE16__init_with_sizeB8ne200100IPS5_SA_EEvT_T0_m, symObjAddr: 0xA8DC, symBinAddr: 0xFDFC, symSize: 0x98 }
  - { offset: 0xB6FDA, size: 0x8, addend: 0x0, symName: '__ZNKSt3__110__function6__funcIZZN8facebook5react13ReactInstance17initializeRuntimeENS4_14JSRuntimeFlagsENS_8functionIFvRNS2_3jsi7RuntimeEEEEENK3$_0clES9_EUlS9_RKNS7_5ValueEPSE_mE4_NS_9allocatorISH_EEFSD_S9_SF_SG_mEE7__cloneEPNS0_6__baseISK_EE', symObjAddr: 0xA420, symBinAddr: 0xF940, symSize: 0x68 }
  - { offset: 0xB7258, size: 0x8, addend: 0x0, symName: '__ZNSt3__110__function6__funcIZZN8facebook5react13ReactInstance17initializeRuntimeENS4_14JSRuntimeFlagsENS_8functionIFvRNS2_3jsi7RuntimeEEEEENK3$_0clES9_EUlS9_RKNS7_5ValueEPSE_mE4_NS_9allocatorISH_EEFSD_S9_SF_SG_mEE7destroyEv', symObjAddr: 0xA488, symBinAddr: 0xF9A8, symSize: 0x38 }
  - { offset: 0xB7391, size: 0x8, addend: 0x0, symName: '__ZNSt3__110__function6__funcIZZN8facebook5react13ReactInstance17initializeRuntimeENS4_14JSRuntimeFlagsENS_8functionIFvRNS2_3jsi7RuntimeEEEEENK3$_0clES9_EUlS9_RKNS7_5ValueEPSE_mE4_NS_9allocatorISH_EEFSD_S9_SF_SG_mEE18destroy_deallocateEv', symObjAddr: 0xA4C0, symBinAddr: 0xF9E0, symSize: 0x44 }
  - { offset: 0xB7EE1, size: 0x8, addend: 0x0, symName: '__ZNSt3__110__function6__funcIZZN8facebook5react13ReactInstance17initializeRuntimeENS4_14JSRuntimeFlagsENS_8functionIFvRNS2_3jsi7RuntimeEEEEENK3$_0clES9_EUlS9_RKNS7_5ValueEPSE_mE4_NS_9allocatorISH_EEFSD_S9_SF_SG_mEEclES9_SF_OSG_Om', symObjAddr: 0xA504, symBinAddr: 0xFA24, symSize: 0x390 }
  - { offset: 0xB8D6F, size: 0x8, addend: 0x0, symName: __ZNSt3__114__split_bufferINS_10shared_ptrIN8facebook3jsi8FunctionEEERNS_9allocatorIS5_EEED2Ev, symObjAddr: 0xAB10, symBinAddr: 0xFF90, symSize: 0x4C }
  - { offset: 0xB8F3F, size: 0x8, addend: 0x0, symName: '__ZNKSt3__110__function6__funcIZZN8facebook5react13ReactInstance17initializeRuntimeENS4_14JSRuntimeFlagsENS_8functionIFvRNS2_3jsi7RuntimeEEEEENK3$_0clES9_EUlS9_RKNS7_5ValueEPSE_mE4_NS_9allocatorISH_EEFSD_S9_SF_SG_mEE6targetERKSt9type_info', symObjAddr: 0xA894, symBinAddr: 0xFDB4, symSize: 0x3C }
  - { offset: 0xB8F8C, size: 0x8, addend: 0x0, symName: '__ZNKSt3__110__function6__funcIZZN8facebook5react13ReactInstance17initializeRuntimeENS4_14JSRuntimeFlagsENS_8functionIFvRNS2_3jsi7RuntimeEEEEENK3$_0clES9_EUlS9_RKNS7_5ValueEPSE_mE4_NS_9allocatorISH_EEFSD_S9_SF_SG_mEE11target_typeEv', symObjAddr: 0xA8D0, symBinAddr: 0xFDF0, symSize: 0xC }
  - { offset: 0xB912E, size: 0x8, addend: 0x0, symName: __ZNSt3__16vectorINS_10shared_ptrIN8facebook3jsi8FunctionEEENS_9allocatorIS5_EEE11__vallocateB8ne200100Em, symObjAddr: 0xA974, symBinAddr: 0xFE94, symSize: 0x38 }
  - { offset: 0xB92A5, size: 0x8, addend: 0x0, symName: __ZNSt3__120__shared_ptr_emplaceIN8facebook3jsi8FunctionENS_9allocatorIS3_EEED1Ev, symObjAddr: 0xAABC, symBinAddr: 0xFF3C, symSize: 0x14 }
  - { offset: 0xB92C7, size: 0x8, addend: 0x0, symName: __ZNSt3__120__shared_ptr_emplaceIN8facebook3jsi8FunctionENS_9allocatorIS3_EEED1Ev, symObjAddr: 0xAABC, symBinAddr: 0xFF3C, symSize: 0x14 }
  - { offset: 0xB92FA, size: 0x8, addend: 0x0, symName: __ZNSt3__120__shared_ptr_emplaceIN8facebook3jsi8FunctionENS_9allocatorIS3_EEED0Ev, symObjAddr: 0xAAD0, symBinAddr: 0xFF50, symSize: 0x24 }
  - { offset: 0xB93C6, size: 0x8, addend: 0x0, symName: __ZNSt3__120__shared_ptr_emplaceIN8facebook3jsi8FunctionENS_9allocatorIS3_EEE16__on_zero_sharedEv, symObjAddr: 0xAAF4, symBinAddr: 0xFF74, symSize: 0x18 }
  - { offset: 0xB93EE, size: 0x8, addend: 0x0, symName: __ZNSt3__120__shared_ptr_emplaceIN8facebook3jsi8FunctionENS_9allocatorIS3_EEE16__on_zero_sharedEv, symObjAddr: 0xAAF4, symBinAddr: 0xFF74, symSize: 0x18 }
  - { offset: 0xB940B, size: 0x8, addend: 0x0, symName: __ZNSt3__120__shared_ptr_emplaceIN8facebook3jsi8FunctionENS_9allocatorIS3_EEE16__on_zero_sharedEv, symObjAddr: 0xAAF4, symBinAddr: 0xFF74, symSize: 0x18 }
  - { offset: 0xB9428, size: 0x8, addend: 0x0, symName: __ZNSt3__120__shared_ptr_emplaceIN8facebook3jsi8FunctionENS_9allocatorIS3_EEE16__on_zero_sharedEv, symObjAddr: 0xAAF4, symBinAddr: 0xFF74, symSize: 0x18 }
  - { offset: 0xB9446, size: 0x8, addend: 0x0, symName: __ZNSt3__120__shared_ptr_emplaceIN8facebook3jsi8FunctionENS_9allocatorIS3_EEE16__on_zero_sharedEv, symObjAddr: 0xAAF4, symBinAddr: 0xFF74, symSize: 0x18 }
  - { offset: 0xB9463, size: 0x8, addend: 0x0, symName: __ZNSt3__120__shared_ptr_emplaceIN8facebook3jsi8FunctionENS_9allocatorIS3_EEE16__on_zero_sharedEv, symObjAddr: 0xAAF4, symBinAddr: 0xFF74, symSize: 0x18 }
  - { offset: 0xB9481, size: 0x8, addend: 0x0, symName: __ZNSt3__120__shared_ptr_emplaceIN8facebook3jsi8FunctionENS_9allocatorIS3_EEE16__on_zero_sharedEv, symObjAddr: 0xAAF4, symBinAddr: 0xFF74, symSize: 0x18 }
  - { offset: 0xB949F, size: 0x8, addend: 0x0, symName: __ZNSt3__120__shared_ptr_emplaceIN8facebook3jsi8FunctionENS_9allocatorIS3_EEE16__on_zero_sharedEv, symObjAddr: 0xAAF4, symBinAddr: 0xFF74, symSize: 0x18 }
  - { offset: 0xB9529, size: 0x8, addend: 0x0, symName: __ZNSt3__120__shared_ptr_emplaceIN8facebook3jsi8FunctionENS_9allocatorIS3_EEE21__on_zero_shared_weakEv, symObjAddr: 0xAB0C, symBinAddr: 0xFF8C, symSize: 0x4 }
  - { offset: 0xB955B, size: 0x8, addend: 0x0, symName: __ZNSt3__120__shared_ptr_emplaceIN8facebook3jsi8FunctionENS_9allocatorIS3_EEE21__on_zero_shared_weakEv, symObjAddr: 0xAB0C, symBinAddr: 0xFF8C, symSize: 0x4 }
  - { offset: 0xB957D, size: 0x8, addend: 0x0, symName: __ZNSt3__120__shared_ptr_emplaceIN8facebook3jsi8FunctionENS_9allocatorIS3_EEE21__on_zero_shared_weakEv, symObjAddr: 0xAB0C, symBinAddr: 0xFF8C, symSize: 0x4 }
  - { offset: 0xB95A0, size: 0x8, addend: 0x0, symName: __ZNSt3__120__shared_ptr_emplaceIN8facebook3jsi8FunctionENS_9allocatorIS3_EEE21__on_zero_shared_weakEv, symObjAddr: 0xAB0C, symBinAddr: 0xFF8C, symSize: 0x4 }
  - { offset: 0xB95D5, size: 0x8, addend: 0x0, symName: __ZNSt3__120__shared_ptr_emplaceIN8facebook3jsi8FunctionENS_9allocatorIS3_EEE21__on_zero_shared_weakEv, symObjAddr: 0xAB0C, symBinAddr: 0xFF8C, symSize: 0x4 }
  - { offset: 0xB970E, size: 0x8, addend: 0x0, symName: '__ZNSt3__110__function6__funcIZZZN8facebook5react13ReactInstance17initializeRuntimeENS4_14JSRuntimeFlagsENS_8functionIFvRNS2_3jsi7RuntimeEEEEENK3$_0clES9_ENUlS9_RKNS7_5ValueEPSE_mE4_clES9_SF_SG_mEUlS9_SD_E_NS_9allocatorISI_EEFvS9_SD_EED1Ev', symObjAddr: 0xAB5C, symBinAddr: 0xFFDC, symSize: 0x38 }
  - { offset: 0xB9821, size: 0x8, addend: 0x0, symName: '__ZNSt3__110__function6__funcIZZZN8facebook5react13ReactInstance17initializeRuntimeENS4_14JSRuntimeFlagsENS_8functionIFvRNS2_3jsi7RuntimeEEEEENK3$_0clES9_ENUlS9_RKNS7_5ValueEPSE_mE4_clES9_SF_SG_mEUlS9_SD_E_NS_9allocatorISI_EEFvS9_SD_EED0Ev', symObjAddr: 0xAB94, symBinAddr: 0x10014, symSize: 0x38 }
  - { offset: 0xB9AAA, size: 0x8, addend: 0x0, symName: '__ZNKSt3__110__function6__funcIZZZN8facebook5react13ReactInstance17initializeRuntimeENS4_14JSRuntimeFlagsENS_8functionIFvRNS2_3jsi7RuntimeEEEEENK3$_0clES9_ENUlS9_RKNS7_5ValueEPSE_mE4_clES9_SF_SG_mEUlS9_SD_E_NS_9allocatorISI_EEFvS9_SD_EE7__cloneEv', symObjAddr: 0xABCC, symBinAddr: 0x1004C, symSize: 0x50 }
  - { offset: 0xB9D2E, size: 0x8, addend: 0x0, symName: '__ZNKSt3__110__function6__funcIZZZN8facebook5react13ReactInstance17initializeRuntimeENS4_14JSRuntimeFlagsENS_8functionIFvRNS2_3jsi7RuntimeEEEEENK3$_0clES9_ENUlS9_RKNS7_5ValueEPSE_mE4_clES9_SF_SG_mEUlS9_SD_E_NS_9allocatorISI_EEFvS9_SD_EE7__cloneEPNS0_6__baseISL_EE', symObjAddr: 0xAC1C, symBinAddr: 0x1009C, symSize: 0x30 }
  - { offset: 0xB9D63, size: 0x8, addend: 0x0, symName: '__ZNKSt3__110__function6__funcIZZZN8facebook5react13ReactInstance17initializeRuntimeENS4_14JSRuntimeFlagsENS_8functionIFvRNS2_3jsi7RuntimeEEEEENK3$_0clES9_ENUlS9_RKNS7_5ValueEPSE_mE4_clES9_SF_SG_mEUlS9_SD_E_NS_9allocatorISI_EEFvS9_SD_EE7__cloneEPNS0_6__baseISL_EE', symObjAddr: 0xAC1C, symBinAddr: 0x1009C, symSize: 0x30 }
  - { offset: 0xB9D91, size: 0x8, addend: 0x0, symName: '__ZNKSt3__110__function6__funcIZZZN8facebook5react13ReactInstance17initializeRuntimeENS4_14JSRuntimeFlagsENS_8functionIFvRNS2_3jsi7RuntimeEEEEENK3$_0clES9_ENUlS9_RKNS7_5ValueEPSE_mE4_clES9_SF_SG_mEUlS9_SD_E_NS_9allocatorISI_EEFvS9_SD_EE7__cloneEPNS0_6__baseISL_EE', symObjAddr: 0xAC1C, symBinAddr: 0x1009C, symSize: 0x30 }
  - { offset: 0xB9E9C, size: 0x8, addend: 0x0, symName: '__ZNSt3__110__function6__funcIZZZN8facebook5react13ReactInstance17initializeRuntimeENS4_14JSRuntimeFlagsENS_8functionIFvRNS2_3jsi7RuntimeEEEEENK3$_0clES9_ENUlS9_RKNS7_5ValueEPSE_mE4_clES9_SF_SG_mEUlS9_SD_E_NS_9allocatorISI_EEFvS9_SD_EE7destroyEv', symObjAddr: 0xAC4C, symBinAddr: 0x100CC, symSize: 0x10 }
  - { offset: 0xB9EC4, size: 0x8, addend: 0x0, symName: '__ZNSt3__110__function6__funcIZZZN8facebook5react13ReactInstance17initializeRuntimeENS4_14JSRuntimeFlagsENS_8functionIFvRNS2_3jsi7RuntimeEEEEENK3$_0clES9_ENUlS9_RKNS7_5ValueEPSE_mE4_clES9_SF_SG_mEUlS9_SD_E_NS_9allocatorISI_EEFvS9_SD_EE7destroyEv', symObjAddr: 0xAC4C, symBinAddr: 0x100CC, symSize: 0x10 }
  - { offset: 0xB9EE2, size: 0x8, addend: 0x0, symName: '__ZNSt3__110__function6__funcIZZZN8facebook5react13ReactInstance17initializeRuntimeENS4_14JSRuntimeFlagsENS_8functionIFvRNS2_3jsi7RuntimeEEEEENK3$_0clES9_ENUlS9_RKNS7_5ValueEPSE_mE4_clES9_SF_SG_mEUlS9_SD_E_NS_9allocatorISI_EEFvS9_SD_EE7destroyEv', symObjAddr: 0xAC4C, symBinAddr: 0x100CC, symSize: 0x10 }
  - { offset: 0xB9EFF, size: 0x8, addend: 0x0, symName: '__ZNSt3__110__function6__funcIZZZN8facebook5react13ReactInstance17initializeRuntimeENS4_14JSRuntimeFlagsENS_8functionIFvRNS2_3jsi7RuntimeEEEEENK3$_0clES9_ENUlS9_RKNS7_5ValueEPSE_mE4_clES9_SF_SG_mEUlS9_SD_E_NS_9allocatorISI_EEFvS9_SD_EE7destroyEv', symObjAddr: 0xAC4C, symBinAddr: 0x100CC, symSize: 0x10 }
  - { offset: 0xB9F1D, size: 0x8, addend: 0x0, symName: '__ZNSt3__110__function6__funcIZZZN8facebook5react13ReactInstance17initializeRuntimeENS4_14JSRuntimeFlagsENS_8functionIFvRNS2_3jsi7RuntimeEEEEENK3$_0clES9_ENUlS9_RKNS7_5ValueEPSE_mE4_clES9_SF_SG_mEUlS9_SD_E_NS_9allocatorISI_EEFvS9_SD_EE7destroyEv', symObjAddr: 0xAC4C, symBinAddr: 0x100CC, symSize: 0x10 }
  - { offset: 0xB9F3B, size: 0x8, addend: 0x0, symName: '__ZNSt3__110__function6__funcIZZZN8facebook5react13ReactInstance17initializeRuntimeENS4_14JSRuntimeFlagsENS_8functionIFvRNS2_3jsi7RuntimeEEEEENK3$_0clES9_ENUlS9_RKNS7_5ValueEPSE_mE4_clES9_SF_SG_mEUlS9_SD_E_NS_9allocatorISI_EEFvS9_SD_EE7destroyEv', symObjAddr: 0xAC4C, symBinAddr: 0x100CC, symSize: 0x10 }
  - { offset: 0xB9F8B, size: 0x8, addend: 0x0, symName: '__ZNSt3__110__function6__funcIZZZN8facebook5react13ReactInstance17initializeRuntimeENS4_14JSRuntimeFlagsENS_8functionIFvRNS2_3jsi7RuntimeEEEEENK3$_0clES9_ENUlS9_RKNS7_5ValueEPSE_mE4_clES9_SF_SG_mEUlS9_SD_E_NS_9allocatorISI_EEFvS9_SD_EE18destroy_deallocateEv', symObjAddr: 0xAC5C, symBinAddr: 0x100DC, symSize: 0x2C }
  - { offset: 0xBA1F9, size: 0x8, addend: 0x0, symName: '__ZNSt3__110__function6__funcIZZZN8facebook5react13ReactInstance17initializeRuntimeENS4_14JSRuntimeFlagsENS_8functionIFvRNS2_3jsi7RuntimeEEEEENK3$_0clES9_ENUlS9_RKNS7_5ValueEPSE_mE4_clES9_SF_SG_mEUlS9_SD_E_NS_9allocatorISI_EEFvS9_SD_EEclES9_OSD_', symObjAddr: 0xAC88, symBinAddr: 0x10108, symSize: 0x148 }
  - { offset: 0xBA551, size: 0x8, addend: 0x0, symName: '__ZNKSt3__110__function6__funcIZZZN8facebook5react13ReactInstance17initializeRuntimeENS4_14JSRuntimeFlagsENS_8functionIFvRNS2_3jsi7RuntimeEEEEENK3$_0clES9_ENUlS9_RKNS7_5ValueEPSE_mE4_clES9_SF_SG_mEUlS9_SD_E_NS_9allocatorISI_EEFvS9_SD_EE6targetERKSt9type_info', symObjAddr: 0xADD0, symBinAddr: 0x10250, symSize: 0x3C }
  - { offset: 0xBA59E, size: 0x8, addend: 0x0, symName: '__ZNKSt3__110__function6__funcIZZZN8facebook5react13ReactInstance17initializeRuntimeENS4_14JSRuntimeFlagsENS_8functionIFvRNS2_3jsi7RuntimeEEEEENK3$_0clES9_ENUlS9_RKNS7_5ValueEPSE_mE4_clES9_SF_SG_mEUlS9_SD_E_NS_9allocatorISI_EEFvS9_SD_EE11target_typeEv', symObjAddr: 0xAE0C, symBinAddr: 0x1028C, symSize: 0xC }
  - { offset: 0xBA5C0, size: 0x8, addend: 0x0, symName: '__ZNSt3__110__function6__funcIZZN8facebook5react13ReactInstance17initializeRuntimeENS4_14JSRuntimeFlagsENS_8functionIFvRNS2_3jsi7RuntimeEEEEENK3$_0clES9_EUlS9_RKNS7_5ValueEPSE_mE5_NS_9allocatorISH_EEFSD_S9_SF_SG_mEED1Ev', symObjAddr: 0xAE18, symBinAddr: 0x10298, symSize: 0x4 }
  - { offset: 0xBA5EB, size: 0x8, addend: 0x0, symName: '__ZNSt3__110__function6__funcIZZN8facebook5react13ReactInstance17initializeRuntimeENS4_14JSRuntimeFlagsENS_8functionIFvRNS2_3jsi7RuntimeEEEEENK3$_0clES9_EUlS9_RKNS7_5ValueEPSE_mE5_NS_9allocatorISH_EEFSD_S9_SF_SG_mEED0Ev', symObjAddr: 0xAE1C, symBinAddr: 0x1029C, symSize: 0x4 }
  - { offset: 0xBA6F6, size: 0x8, addend: 0x0, symName: '__ZNKSt3__110__function6__funcIZZN8facebook5react13ReactInstance17initializeRuntimeENS4_14JSRuntimeFlagsENS_8functionIFvRNS2_3jsi7RuntimeEEEEENK3$_0clES9_EUlS9_RKNS7_5ValueEPSE_mE5_NS_9allocatorISH_EEFSD_S9_SF_SG_mEE7__cloneEv', symObjAddr: 0xAE20, symBinAddr: 0x102A0, symSize: 0x34 }
  - { offset: 0xBA8EE, size: 0x8, addend: 0x0, symName: '__ZNKSt3__110__function6__funcIZZN8facebook5react13ReactInstance17initializeRuntimeENS4_14JSRuntimeFlagsENS_8functionIFvRNS2_3jsi7RuntimeEEEEENK3$_0clES9_EUlS9_RKNS7_5ValueEPSE_mE5_NS_9allocatorISH_EEFSD_S9_SF_SG_mEE7__cloneEPNS0_6__baseISK_EE', symObjAddr: 0xAE54, symBinAddr: 0x102D4, symSize: 0x14 }
  - { offset: 0xBA923, size: 0x8, addend: 0x0, symName: '__ZNKSt3__110__function6__funcIZZN8facebook5react13ReactInstance17initializeRuntimeENS4_14JSRuntimeFlagsENS_8functionIFvRNS2_3jsi7RuntimeEEEEENK3$_0clES9_EUlS9_RKNS7_5ValueEPSE_mE5_NS_9allocatorISH_EEFSD_S9_SF_SG_mEE7__cloneEPNS0_6__baseISK_EE', symObjAddr: 0xAE54, symBinAddr: 0x102D4, symSize: 0x14 }
  - { offset: 0xBA951, size: 0x8, addend: 0x0, symName: '__ZNKSt3__110__function6__funcIZZN8facebook5react13ReactInstance17initializeRuntimeENS4_14JSRuntimeFlagsENS_8functionIFvRNS2_3jsi7RuntimeEEEEENK3$_0clES9_EUlS9_RKNS7_5ValueEPSE_mE5_NS_9allocatorISH_EEFSD_S9_SF_SG_mEE7__cloneEPNS0_6__baseISK_EE', symObjAddr: 0xAE54, symBinAddr: 0x102D4, symSize: 0x14 }
  - { offset: 0xBA97F, size: 0x8, addend: 0x0, symName: '__ZNKSt3__110__function6__funcIZZN8facebook5react13ReactInstance17initializeRuntimeENS4_14JSRuntimeFlagsENS_8functionIFvRNS2_3jsi7RuntimeEEEEENK3$_0clES9_EUlS9_RKNS7_5ValueEPSE_mE5_NS_9allocatorISH_EEFSD_S9_SF_SG_mEE7__cloneEPNS0_6__baseISK_EE', symObjAddr: 0xAE54, symBinAddr: 0x102D4, symSize: 0x14 }
  - { offset: 0xBA995, size: 0x8, addend: 0x0, symName: '__ZNKSt3__110__function6__funcIZZN8facebook5react13ReactInstance17initializeRuntimeENS4_14JSRuntimeFlagsENS_8functionIFvRNS2_3jsi7RuntimeEEEEENK3$_0clES9_EUlS9_RKNS7_5ValueEPSE_mE5_NS_9allocatorISH_EEFSD_S9_SF_SG_mEE7__cloneEPNS0_6__baseISK_EE', symObjAddr: 0xAE54, symBinAddr: 0x102D4, symSize: 0x14 }
  - { offset: 0xBA9AA, size: 0x8, addend: 0x0, symName: '__ZNSt3__110__function6__funcIZZN8facebook5react13ReactInstance17initializeRuntimeENS4_14JSRuntimeFlagsENS_8functionIFvRNS2_3jsi7RuntimeEEEEENK3$_0clES9_EUlS9_RKNS7_5ValueEPSE_mE5_NS_9allocatorISH_EEFSD_S9_SF_SG_mEE7destroyEv', symObjAddr: 0xAE68, symBinAddr: 0x102E8, symSize: 0x4 }
  - { offset: 0xBA9FB, size: 0x8, addend: 0x0, symName: '__ZNSt3__110__function6__funcIZZN8facebook5react13ReactInstance17initializeRuntimeENS4_14JSRuntimeFlagsENS_8functionIFvRNS2_3jsi7RuntimeEEEEENK3$_0clES9_EUlS9_RKNS7_5ValueEPSE_mE5_NS_9allocatorISH_EEFSD_S9_SF_SG_mEE18destroy_deallocateEv', symObjAddr: 0xAE6C, symBinAddr: 0x102EC, symSize: 0x4 }
  - { offset: 0xBAA2E, size: 0x8, addend: 0x0, symName: '__ZNSt3__110__function6__funcIZZN8facebook5react13ReactInstance17initializeRuntimeENS4_14JSRuntimeFlagsENS_8functionIFvRNS2_3jsi7RuntimeEEEEENK3$_0clES9_EUlS9_RKNS7_5ValueEPSE_mE5_NS_9allocatorISH_EEFSD_S9_SF_SG_mEE18destroy_deallocateEv', symObjAddr: 0xAE6C, symBinAddr: 0x102EC, symSize: 0x4 }
  - { offset: 0xBAA51, size: 0x8, addend: 0x0, symName: '__ZNSt3__110__function6__funcIZZN8facebook5react13ReactInstance17initializeRuntimeENS4_14JSRuntimeFlagsENS_8functionIFvRNS2_3jsi7RuntimeEEEEENK3$_0clES9_EUlS9_RKNS7_5ValueEPSE_mE5_NS_9allocatorISH_EEFSD_S9_SF_SG_mEE18destroy_deallocateEv', symObjAddr: 0xAE6C, symBinAddr: 0x102EC, symSize: 0x4 }
  - { offset: 0xBAA85, size: 0x8, addend: 0x0, symName: '__ZNSt3__110__function6__funcIZZN8facebook5react13ReactInstance17initializeRuntimeENS4_14JSRuntimeFlagsENS_8functionIFvRNS2_3jsi7RuntimeEEEEENK3$_0clES9_EUlS9_RKNS7_5ValueEPSE_mE5_NS_9allocatorISH_EEFSD_S9_SF_SG_mEE18destroy_deallocateEv', symObjAddr: 0xAE6C, symBinAddr: 0x102EC, symSize: 0x4 }
  - { offset: 0xBACE5, size: 0x8, addend: 0x0, symName: '__ZNSt3__110__function6__funcIZZN8facebook5react13ReactInstance17initializeRuntimeENS4_14JSRuntimeFlagsENS_8functionIFvRNS2_3jsi7RuntimeEEEEENK3$_0clES9_EUlS9_RKNS7_5ValueEPSE_mE5_NS_9allocatorISH_EEFSD_S9_SF_SG_mEEclES9_SF_OSG_Om', symObjAddr: 0xAE70, symBinAddr: 0x102F0, symSize: 0x24C }
  - { offset: 0xBB556, size: 0x8, addend: 0x0, symName: __ZNSt3__112__hash_tableINS_17__hash_value_typeINS_12basic_stringIcNS_11char_traitsIcEENS_9allocatorIcEEEENS_7variantIJN8facebook3jsi8FunctionENSA_6ObjectEEEEEENS_22__unordered_map_hasherIS7_SE_NS_4hashIS7_EENS_8equal_toIS7_EELb1EEENS_21__unordered_map_equalIS7_SE_SJ_SH_Lb1EEENS5_ISE_EEE25__emplace_unique_key_argsIS7_JS7_SB_EEENS_4pairINS_15__hash_iteratorIPNS_11__hash_nodeISE_PvEEEEbEERKT_DpOT0_, symObjAddr: 0xB104, symBinAddr: 0x10584, symSize: 0x270 }
  - { offset: 0xBBF01, size: 0x8, addend: 0x0, symName: '__ZNKSt3__110__function6__funcIZZN8facebook5react13ReactInstance17initializeRuntimeENS4_14JSRuntimeFlagsENS_8functionIFvRNS2_3jsi7RuntimeEEEEENK3$_0clES9_EUlS9_RKNS7_5ValueEPSE_mE5_NS_9allocatorISH_EEFSD_S9_SF_SG_mEE6targetERKSt9type_info', symObjAddr: 0xB0BC, symBinAddr: 0x1053C, symSize: 0x3C }
  - { offset: 0xBBF4E, size: 0x8, addend: 0x0, symName: '__ZNKSt3__110__function6__funcIZZN8facebook5react13ReactInstance17initializeRuntimeENS4_14JSRuntimeFlagsENS_8functionIFvRNS2_3jsi7RuntimeEEEEENK3$_0clES9_EUlS9_RKNS7_5ValueEPSE_mE5_NS_9allocatorISH_EEFSD_S9_SF_SG_mEE11target_typeEv', symObjAddr: 0xB0F8, symBinAddr: 0x10578, symSize: 0xC }
  - { offset: 0xBC5CE, size: 0x8, addend: 0x0, symName: __ZNSt3__112__hash_tableINS_17__hash_value_typeINS_12basic_stringIcNS_11char_traitsIcEENS_9allocatorIcEEEENS_7variantIJN8facebook3jsi8FunctionENSA_6ObjectEEEEEENS_22__unordered_map_hasherIS7_SE_NS_4hashIS7_EENS_8equal_toIS7_EELb1EEENS_21__unordered_map_equalIS7_SE_SJ_SH_Lb1EEENS5_ISE_EEE8__rehashILb1EEEvm, symObjAddr: 0xB374, symBinAddr: 0x107F4, symSize: 0xDC }
  - { offset: 0xBC6C6, size: 0x8, addend: 0x0, symName: __ZNSt3__110unique_ptrINS_11__hash_nodeINS_17__hash_value_typeINS_12basic_stringIcNS_11char_traitsIcEENS_9allocatorIcEEEENS_7variantIJN8facebook3jsi8FunctionENSB_6ObjectEEEEEEPvEENS_22__hash_node_destructorINS6_ISH_EEEEE5resetB8ne200100EPSH_, symObjAddr: 0xB5A0, symBinAddr: 0x10A20, symSize: 0x48 }
  - { offset: 0xBC820, size: 0x8, addend: 0x0, symName: __ZNSt3__112__hash_tableINS_17__hash_value_typeINS_12basic_stringIcNS_11char_traitsIcEENS_9allocatorIcEEEENS_7variantIJN8facebook3jsi8FunctionENSA_6ObjectEEEEEENS_22__unordered_map_hasherIS7_SE_NS_4hashIS7_EENS_8equal_toIS7_EELb1EEENS_21__unordered_map_equalIS7_SE_SJ_SH_Lb1EEENS5_ISE_EEE11__do_rehashILb1EEEvm, symObjAddr: 0xB450, symBinAddr: 0x108D0, symSize: 0x150 }
  - { offset: 0xBCC30, size: 0x8, addend: 0x0, symName: __ZNSt3__110unique_ptrINS_11__hash_nodeINS_17__hash_value_typeINS_12basic_stringIcNS_11char_traitsIcEENS_9allocatorIcEEEENS_7variantIJN8facebook3jsi8FunctionENSB_6ObjectEEEEEEPvEENS_22__hash_node_destructorINS6_ISH_EEEEE5resetB8ne200100EPSH_, symObjAddr: 0xB5A0, symBinAddr: 0x10A20, symSize: 0x48 }
  - { offset: 0xBCCE6, size: 0x8, addend: 0x0, symName: '__ZNSt3__110__function6__funcIZN8facebook5react13ReactInstance22handleMemoryPressureJsEiE3$_0NS_9allocatorIS5_EEFvRNS2_3jsi7RuntimeEEED1Ev', symObjAddr: 0xB5E8, symBinAddr: 0x10A68, symSize: 0x4 }
  - { offset: 0xBCD11, size: 0x8, addend: 0x0, symName: '__ZNSt3__110__function6__funcIZN8facebook5react13ReactInstance22handleMemoryPressureJsEiE3$_0NS_9allocatorIS5_EEFvRNS2_3jsi7RuntimeEEED0Ev', symObjAddr: 0xB5EC, symBinAddr: 0x10A6C, symSize: 0x4 }
  - { offset: 0xBCE1C, size: 0x8, addend: 0x0, symName: '__ZNKSt3__110__function6__funcIZN8facebook5react13ReactInstance22handleMemoryPressureJsEiE3$_0NS_9allocatorIS5_EEFvRNS2_3jsi7RuntimeEEE7__cloneEv', symObjAddr: 0xB5F0, symBinAddr: 0x10A70, symSize: 0x34 }
  - { offset: 0xBD014, size: 0x8, addend: 0x0, symName: '__ZNKSt3__110__function6__funcIZN8facebook5react13ReactInstance22handleMemoryPressureJsEiE3$_0NS_9allocatorIS5_EEFvRNS2_3jsi7RuntimeEEE7__cloneEPNS0_6__baseISB_EE', symObjAddr: 0xB624, symBinAddr: 0x10AA4, symSize: 0x14 }
  - { offset: 0xBD049, size: 0x8, addend: 0x0, symName: '__ZNKSt3__110__function6__funcIZN8facebook5react13ReactInstance22handleMemoryPressureJsEiE3$_0NS_9allocatorIS5_EEFvRNS2_3jsi7RuntimeEEE7__cloneEPNS0_6__baseISB_EE', symObjAddr: 0xB624, symBinAddr: 0x10AA4, symSize: 0x14 }
  - { offset: 0xBD077, size: 0x8, addend: 0x0, symName: '__ZNKSt3__110__function6__funcIZN8facebook5react13ReactInstance22handleMemoryPressureJsEiE3$_0NS_9allocatorIS5_EEFvRNS2_3jsi7RuntimeEEE7__cloneEPNS0_6__baseISB_EE', symObjAddr: 0xB624, symBinAddr: 0x10AA4, symSize: 0x14 }
  - { offset: 0xBD0A5, size: 0x8, addend: 0x0, symName: '__ZNKSt3__110__function6__funcIZN8facebook5react13ReactInstance22handleMemoryPressureJsEiE3$_0NS_9allocatorIS5_EEFvRNS2_3jsi7RuntimeEEE7__cloneEPNS0_6__baseISB_EE', symObjAddr: 0xB624, symBinAddr: 0x10AA4, symSize: 0x14 }
  - { offset: 0xBD0BB, size: 0x8, addend: 0x0, symName: '__ZNKSt3__110__function6__funcIZN8facebook5react13ReactInstance22handleMemoryPressureJsEiE3$_0NS_9allocatorIS5_EEFvRNS2_3jsi7RuntimeEEE7__cloneEPNS0_6__baseISB_EE', symObjAddr: 0xB624, symBinAddr: 0x10AA4, symSize: 0x14 }
  - { offset: 0xBD0D0, size: 0x8, addend: 0x0, symName: '__ZNSt3__110__function6__funcIZN8facebook5react13ReactInstance22handleMemoryPressureJsEiE3$_0NS_9allocatorIS5_EEFvRNS2_3jsi7RuntimeEEE7destroyEv', symObjAddr: 0xB638, symBinAddr: 0x10AB8, symSize: 0x4 }
  - { offset: 0xBD121, size: 0x8, addend: 0x0, symName: '__ZNSt3__110__function6__funcIZN8facebook5react13ReactInstance22handleMemoryPressureJsEiE3$_0NS_9allocatorIS5_EEFvRNS2_3jsi7RuntimeEEE18destroy_deallocateEv', symObjAddr: 0xB63C, symBinAddr: 0x10ABC, symSize: 0x4 }
  - { offset: 0xBD154, size: 0x8, addend: 0x0, symName: '__ZNSt3__110__function6__funcIZN8facebook5react13ReactInstance22handleMemoryPressureJsEiE3$_0NS_9allocatorIS5_EEFvRNS2_3jsi7RuntimeEEE18destroy_deallocateEv', symObjAddr: 0xB63C, symBinAddr: 0x10ABC, symSize: 0x4 }
  - { offset: 0xBD177, size: 0x8, addend: 0x0, symName: '__ZNSt3__110__function6__funcIZN8facebook5react13ReactInstance22handleMemoryPressureJsEiE3$_0NS_9allocatorIS5_EEFvRNS2_3jsi7RuntimeEEE18destroy_deallocateEv', symObjAddr: 0xB63C, symBinAddr: 0x10ABC, symSize: 0x4 }
  - { offset: 0xBD1AB, size: 0x8, addend: 0x0, symName: '__ZNSt3__110__function6__funcIZN8facebook5react13ReactInstance22handleMemoryPressureJsEiE3$_0NS_9allocatorIS5_EEFvRNS2_3jsi7RuntimeEEE18destroy_deallocateEv', symObjAddr: 0xB63C, symBinAddr: 0x10ABC, symSize: 0x4 }
  - { offset: 0xBD263, size: 0x8, addend: 0x0, symName: '__ZNSt3__110__function6__funcIZN8facebook5react13ReactInstance22handleMemoryPressureJsEiE3$_0NS_9allocatorIS5_EEFvRNS2_3jsi7RuntimeEEEclESA_', symObjAddr: 0xB640, symBinAddr: 0x10AC0, symSize: 0xE4 }
  - { offset: 0xBD61E, size: 0x8, addend: 0x0, symName: '__ZNKSt3__110__function6__funcIZN8facebook5react13ReactInstance22handleMemoryPressureJsEiE3$_0NS_9allocatorIS5_EEFvRNS2_3jsi7RuntimeEEE6targetERKSt9type_info', symObjAddr: 0xB724, symBinAddr: 0x10BA4, symSize: 0x3C }
  - { offset: 0xBD66B, size: 0x8, addend: 0x0, symName: '__ZNKSt3__110__function6__funcIZN8facebook5react13ReactInstance22handleMemoryPressureJsEiE3$_0NS_9allocatorIS5_EEFvRNS2_3jsi7RuntimeEEE11target_typeEv', symObjAddr: 0xB760, symBinAddr: 0x10BE0, symSize: 0xC }
  - { offset: 0xBFC11, size: 0x8, addend: 0x0, symName: __ZNSt3__119piecewise_constructE, symObjAddr: 0x5B88, symBinAddr: 0x187D5, symSize: 0x0 }
  - { offset: 0xCD1E0, size: 0x8, addend: 0x0, symName: __ZNSt3__119__allocate_at_leastB8ne200100INS_9allocatorIiEEEENS_19__allocation_resultINS_16allocator_traitsIT_E7pointerEEERS5_m, symObjAddr: 0x1454, symBinAddr: 0x11E90, symSize: 0x34 }
  - { offset: 0xCEB85, size: 0x8, addend: 0x0, symName: __ZNSt3__117__call_once_proxyB8ne200100INS_5tupleIJOZN8facebook5react8systraceL31getOrCreateInstrumentsLogHandleEvEUlvE_EEEEEvPv, symObjAddr: 0x2660, symBinAddr: 0x12B90, symSize: 0x40 }
  - { offset: 0xD3240, size: 0x8, addend: 0x0, symName: __ZZN8facebook5react8systraceL31getOrCreateInstrumentsLogHandleEvE4flag, symObjAddr: 0xD6510, symBinAddr: 0x240F0, symSize: 0x0 }
  - { offset: 0xD3666, size: 0x8, addend: 0x0, symName: __ZN8facebook5react12_GLOBAL__N_119coerceNumberTimeoutERNS_3jsi7RuntimeERKNS2_5ValueE, symObjAddr: 0x424C, symBinAddr: 0x13BFC, symSize: 0x2A0 }
  - { offset: 0xD5AAC, size: 0x8, addend: 0x0, symName: __ZN8facebook5react12TraceSectionC2IJRA3_KcRiRA5_S3_PS3_RA6_S3_RdEEES9_DpOT_, symObjAddr: 0x21A4, symBinAddr: 0x126D4, symSize: 0x4BC }
  - { offset: 0xD7309, size: 0x8, addend: 0x0, symName: __ZN8facebook5react12TraceSectionC2IJRA3_KcRKiRA5_S3_PS3_EEESA_DpOT_, symObjAddr: 0x3A94, symBinAddr: 0x13490, symSize: 0x490 }
  - { offset: 0xD9540, size: 0x8, addend: 0x0, symName: __ZN8facebook5react12TimerManager9callTimerEi, symObjAddr: 0x8DC, symBinAddr: 0x11444, symSize: 0xEC }
  - { offset: 0xD98D7, size: 0x8, addend: 0x0, symName: __ZN8facebook5react12TimerManager13attachGlobalsERNS_3jsi7RuntimeE, symObjAddr: 0x9C8, symBinAddr: 0x11530, symSize: 0x960 }
  - { offset: 0xDC6B2, size: 0x8, addend: 0x0, symName: __ZN8facebook5react12TimerManagerC2ENSt3__110unique_ptrINS0_21PlatformTimerRegistryENS2_14default_deleteIS4_EEEE, symObjAddr: 0x0, symBinAddr: 0x10BEC, symSize: 0x34 }
  - { offset: 0xDC6DC, size: 0x8, addend: 0x0, symName: __ZN8facebook5react12TimerManagerC2ENSt3__110unique_ptrINS0_21PlatformTimerRegistryENS2_14default_deleteIS4_EEEE, symObjAddr: 0x0, symBinAddr: 0x10BEC, symSize: 0x34 }
  - { offset: 0xDC6F0, size: 0x8, addend: 0x0, symName: __ZN8facebook5react12TimerManagerC2ENSt3__110unique_ptrINS0_21PlatformTimerRegistryENS2_14default_deleteIS4_EEEE, symObjAddr: 0x0, symBinAddr: 0x10BEC, symSize: 0x34 }
  - { offset: 0xDC704, size: 0x8, addend: 0x0, symName: __ZN8facebook5react12TimerManagerC2ENSt3__110unique_ptrINS0_21PlatformTimerRegistryENS2_14default_deleteIS4_EEEE, symObjAddr: 0x0, symBinAddr: 0x10BEC, symSize: 0x34 }
  - { offset: 0xDC8B4, size: 0x8, addend: 0x0, symName: __ZN8facebook5react12TimerManagerC1ENSt3__110unique_ptrINS0_21PlatformTimerRegistryENS2_14default_deleteIS4_EEEE, symObjAddr: 0x34, symBinAddr: 0x10C20, symSize: 0x34 }
  - { offset: 0xDC8EE, size: 0x8, addend: 0x0, symName: __ZN8facebook5react12TimerManagerC1ENSt3__110unique_ptrINS0_21PlatformTimerRegistryENS2_14default_deleteIS4_EEEE, symObjAddr: 0x34, symBinAddr: 0x10C20, symSize: 0x34 }
  - { offset: 0xDC911, size: 0x8, addend: 0x0, symName: __ZN8facebook5react12TimerManagerC1ENSt3__110unique_ptrINS0_21PlatformTimerRegistryENS2_14default_deleteIS4_EEEE, symObjAddr: 0x34, symBinAddr: 0x10C20, symSize: 0x34 }
  - { offset: 0xDC925, size: 0x8, addend: 0x0, symName: __ZN8facebook5react12TimerManagerC1ENSt3__110unique_ptrINS0_21PlatformTimerRegistryENS2_14default_deleteIS4_EEEE, symObjAddr: 0x34, symBinAddr: 0x10C20, symSize: 0x34 }
  - { offset: 0xDC939, size: 0x8, addend: 0x0, symName: __ZN8facebook5react12TimerManagerC1ENSt3__110unique_ptrINS0_21PlatformTimerRegistryENS2_14default_deleteIS4_EEEE, symObjAddr: 0x34, symBinAddr: 0x10C20, symSize: 0x34 }
  - { offset: 0xDCAC5, size: 0x8, addend: 0x0, symName: __ZN8facebook5react12TimerManager18setRuntimeExecutorENSt3__18functionIFvONS3_IFvRNS_3jsi7RuntimeEEEEEEE, symObjAddr: 0x68, symBinAddr: 0x10C54, symSize: 0x18 }
  - { offset: 0xDCB19, size: 0x8, addend: 0x0, symName: __ZNSt3__18functionIFvONS0_IFvRN8facebook3jsi7RuntimeEEEEEEaSERKS9_, symObjAddr: 0x80, symBinAddr: 0x10C6C, symSize: 0x94 }
  - { offset: 0xDCDE5, size: 0x8, addend: 0x0, symName: __ZNSt3__110__function12__value_funcIFvONS_8functionIFvRN8facebook3jsi7RuntimeEEEEEE4swapB8ne200100ERSB_, symObjAddr: 0x16F8, symBinAddr: 0x11EC4, symSize: 0x16C }
  - { offset: 0xDD2FF, size: 0x8, addend: 0x0, symName: __ZN8facebook5react12TimerManager26createReactNativeMicrotaskEONS_3jsi8FunctionEONSt3__16vectorINS2_5ValueENS5_9allocatorIS7_EEEE, symObjAddr: 0x124, symBinAddr: 0x10D00, symSize: 0x74 }
  - { offset: 0xDD528, size: 0x8, addend: 0x0, symName: __ZNSt3__112__hash_tableINS_17__hash_value_typeIiN8facebook5react13TimerCallbackEEENS_22__unordered_map_hasherIiS5_NS_4hashIiEENS_8equal_toIiEELb1EEENS_21__unordered_map_equalIiS5_SA_S8_Lb1EEENS_9allocatorIS5_EEE21__emplace_unique_implIJRKNS_21piecewise_construct_tENS_5tupleIJRiEEENSL_IJONS2_3jsi8FunctionEONS_6vectorINSO_5ValueENSE_ISS_EEEEObEEEEEENS_4pairINS_15__hash_iteratorIPNS_11__hash_nodeIS5_PvEEEEbEEDpOT_, symObjAddr: 0x1864, symBinAddr: 0x12030, symSize: 0x88 }
  - { offset: 0xDD728, size: 0x8, addend: 0x0, symName: __ZNSt3__16vectorIiNS_9allocatorIiEEE9push_backB8ne200100ERKi, symObjAddr: 0x198, symBinAddr: 0x10D74, symSize: 0xDC }
  - { offset: 0xDDAE1, size: 0x8, addend: 0x0, symName: __ZN8facebook5react12TimerManager25callReactNativeMicrotasksERNS_3jsi7RuntimeE, symObjAddr: 0x274, symBinAddr: 0x10E50, symSize: 0xD0 }
  - { offset: 0xDDE9E, size: 0x8, addend: 0x0, symName: __ZN8facebook5react12TimerManager25callReactNativeMicrotasksERNS_3jsi7RuntimeE, symObjAddr: 0x274, symBinAddr: 0x10E50, symSize: 0xD0 }
  - { offset: 0xDE1D5, size: 0x8, addend: 0x0, symName: __ZNSt3__112__hash_tableINS_17__hash_value_typeIiN8facebook5react13TimerCallbackEEENS_22__unordered_map_hasherIiS5_NS_4hashIiEENS_8equal_toIiEELb1EEENS_21__unordered_map_equalIiS5_SA_S8_Lb1EEENS_9allocatorIS5_EEE4findIiEENS_15__hash_iteratorIPNS_11__hash_nodeIS5_PvEEEERKT_, symObjAddr: 0x1F38, symBinAddr: 0x12468, symSize: 0xB4 }
  - { offset: 0xDE22E, size: 0x8, addend: 0x0, symName: __ZNSt3__112__hash_tableINS_17__hash_value_typeIiN8facebook5react13TimerCallbackEEENS_22__unordered_map_hasherIiS5_NS_4hashIiEENS_8equal_toIiEELb1EEENS_21__unordered_map_equalIiS5_SA_S8_Lb1EEENS_9allocatorIS5_EEE4findIiEENS_15__hash_iteratorIPNS_11__hash_nodeIS5_PvEEEERKT_, symObjAddr: 0x1F38, symBinAddr: 0x12468, symSize: 0xB4 }
  - { offset: 0xDE24A, size: 0x8, addend: 0x0, symName: __ZNSt3__112__hash_tableINS_17__hash_value_typeIiN8facebook5react13TimerCallbackEEENS_22__unordered_map_hasherIiS5_NS_4hashIiEENS_8equal_toIiEELb1EEENS_21__unordered_map_equalIiS5_SA_S8_Lb1EEENS_9allocatorIS5_EEE4findIiEENS_15__hash_iteratorIPNS_11__hash_nodeIS5_PvEEEERKT_, symObjAddr: 0x1F38, symBinAddr: 0x12468, symSize: 0xB4 }
  - { offset: 0xDE364, size: 0x8, addend: 0x0, symName: __ZN8facebook5react13TimerCallback6invokeERNS_3jsi7RuntimeE, symObjAddr: 0x344, symBinAddr: 0x10F20, symSize: 0x74 }
  - { offset: 0xDE4AE, size: 0x8, addend: 0x0, symName: __ZNSt3__112__hash_tableINS_17__hash_value_typeIiN8facebook5react13TimerCallbackEEENS_22__unordered_map_hasherIiS5_NS_4hashIiEENS_8equal_toIiEELb1EEENS_21__unordered_map_equalIiS5_SA_S8_Lb1EEENS_9allocatorIS5_EEE14__erase_uniqueIiEEmRKT_, symObjAddr: 0x1FEC, symBinAddr: 0x1251C, symSize: 0x34 }
  - { offset: 0xDEA5F, size: 0x8, addend: 0x0, symName: __ZN8facebook5react12TimerManager11createTimerEONS_3jsi8FunctionEONSt3__16vectorINS2_5ValueENS5_9allocatorIS7_EEEEdNS0_11TimerSourceE, symObjAddr: 0x3B8, symBinAddr: 0x10F94, symSize: 0x14C }
  - { offset: 0xDEE05, size: 0x8, addend: 0x0, symName: __ZNSt3__112__hash_tableINS_17__hash_value_typeIiN8facebook5react13TimerCallbackEEENS_22__unordered_map_hasherIiS5_NS_4hashIiEENS_8equal_toIiEELb1EEENS_21__unordered_map_equalIiS5_SA_S8_Lb1EEENS_9allocatorIS5_EEE21__emplace_unique_implIJRKNS_21piecewise_construct_tENS_5tupleIJRiEEENSL_IJONS2_3jsi8FunctionEONS_6vectorINSO_5ValueENSE_ISS_EEEEObRNS3_11TimerSourceEEEEEEENS_4pairINS_15__hash_iteratorIPNS_11__hash_nodeIS5_PvEEEEbEEDpOT_, symObjAddr: 0x36CC, symBinAddr: 0x13114, symSize: 0x88 }
  - { offset: 0xDF004, size: 0x8, addend: 0x0, symName: __ZN8facebook5react12TimerManager20createRecurringTimerEONS_3jsi8FunctionEONSt3__16vectorINS2_5ValueENS5_9allocatorIS7_EEEEdNS0_11TimerSourceE, symObjAddr: 0x504, symBinAddr: 0x110E0, symSize: 0x150 }
  - { offset: 0xDF4CC, size: 0x8, addend: 0x0, symName: __ZN8facebook5react12TimerManager26deleteReactNativeMicrotaskERNS_3jsi7RuntimeEi, symObjAddr: 0x654, symBinAddr: 0x11230, symSize: 0xE4 }
  - { offset: 0xDFBCC, size: 0x8, addend: 0x0, symName: __ZN8facebook5react12TimerManager11deleteTimerERNS_3jsi7RuntimeEi, symObjAddr: 0x7AC, symBinAddr: 0x11314, symSize: 0x98 }
  - { offset: 0xDFC89, size: 0x8, addend: 0x0, symName: __ZN8facebook5react12TimerManager20deleteRecurringTimerERNS_3jsi7RuntimeEi, symObjAddr: 0x844, symBinAddr: 0x113AC, symSize: 0x98 }
  - { offset: 0xE124F, size: 0x8, addend: 0x0, symName: __ZNSt3__112__hash_tableINS_17__hash_value_typeIiN8facebook5react13TimerCallbackEEENS_22__unordered_map_hasherIiS5_NS_4hashIiEENS_8equal_toIiEELb1EEENS_21__unordered_map_equalIiS5_SA_S8_Lb1EEENS_9allocatorIS5_EEE16__construct_nodeIJRKNS_21piecewise_construct_tENS_5tupleIJRiEEENSL_IJONS2_3jsi8FunctionEONS_6vectorINSO_5ValueENSE_ISS_EEEEObEEEEEENS_10unique_ptrINS_11__hash_nodeIS5_PvEENS_22__hash_node_destructorINSE_IS11_EEEEEEDpOT_, symObjAddr: 0x18EC, symBinAddr: 0x120B8, symSize: 0xAC }
  - { offset: 0xE15F1, size: 0x8, addend: 0x0, symName: __ZNSt3__112__hash_tableINS_17__hash_value_typeIiN8facebook5react13TimerCallbackEEENS_22__unordered_map_hasherIiS5_NS_4hashIiEENS_8equal_toIiEELb1EEENS_21__unordered_map_equalIiS5_SA_S8_Lb1EEENS_9allocatorIS5_EEE20__node_insert_uniqueEPNS_11__hash_nodeIS5_PvEE, symObjAddr: 0x1998, symBinAddr: 0x12164, symSize: 0x54 }
  - { offset: 0xE169A, size: 0x8, addend: 0x0, symName: __ZNSt3__122__hash_node_destructorINS_9allocatorINS_11__hash_nodeINS_17__hash_value_typeIiN8facebook5react13TimerCallbackEEEPvEEEEEclB8ne200100EPS9_, symObjAddr: 0x1ED4, symBinAddr: 0x12404, symSize: 0x64 }
  - { offset: 0xE1C2C, size: 0x8, addend: 0x0, symName: __ZNSt3__14pairIKiN8facebook5react13TimerCallbackEEC2B8ne200100IJRiEJONS2_3jsi8FunctionEONS_6vectorINS8_5ValueENS_9allocatorISC_EEEEObEJLm0EEJLm0ELm1ELm2EEEENS_21piecewise_construct_tERNS_5tupleIJDpT_EEERNSJ_IJDpT0_EEENS_15__tuple_indicesIJXspT1_EEEENSS_IJXspT2_EEEE, symObjAddr: 0x19EC, symBinAddr: 0x121B8, symSize: 0x84 }
  - { offset: 0xE201D, size: 0x8, addend: 0x0, symName: __ZNSt3__112__hash_tableINS_17__hash_value_typeIiN8facebook5react13TimerCallbackEEENS_22__unordered_map_hasherIiS5_NS_4hashIiEENS_8equal_toIiEELb1EEENS_21__unordered_map_equalIiS5_SA_S8_Lb1EEENS_9allocatorIS5_EEE28__node_insert_unique_prepareB8ne200100EmRS5_, symObjAddr: 0x1AE0, symBinAddr: 0x1223C, symSize: 0x114 }
  - { offset: 0xE2203, size: 0x8, addend: 0x0, symName: __ZNSt3__112__hash_tableINS_17__hash_value_typeIiN8facebook5react13TimerCallbackEEENS_22__unordered_map_hasherIiS5_NS_4hashIiEENS_8equal_toIiEELb1EEENS_21__unordered_map_equalIiS5_SA_S8_Lb1EEENS_9allocatorIS5_EEE28__node_insert_unique_performB8ne200100EPNS_11__hash_nodeIS5_PvEE, symObjAddr: 0x1BF4, symBinAddr: 0x12350, symSize: 0xB4 }
  - { offset: 0xE226D, size: 0x8, addend: 0x0, symName: __ZNSt3__112__hash_tableINS_17__hash_value_typeIiN8facebook5react13TimerCallbackEEENS_22__unordered_map_hasherIiS5_NS_4hashIiEENS_8equal_toIiEELb1EEENS_21__unordered_map_equalIiS5_SA_S8_Lb1EEENS_9allocatorIS5_EEE28__node_insert_unique_performB8ne200100EPNS_11__hash_nodeIS5_PvEE, symObjAddr: 0x1BF4, symBinAddr: 0x12350, symSize: 0xB4 }
  - { offset: 0xE2289, size: 0x8, addend: 0x0, symName: __ZNSt3__112__hash_tableINS_17__hash_value_typeIiN8facebook5react13TimerCallbackEEENS_22__unordered_map_hasherIiS5_NS_4hashIiEENS_8equal_toIiEELb1EEENS_21__unordered_map_equalIiS5_SA_S8_Lb1EEENS_9allocatorIS5_EEE28__node_insert_unique_performB8ne200100EPNS_11__hash_nodeIS5_PvEE, symObjAddr: 0x1BF4, symBinAddr: 0x12350, symSize: 0xB4 }
  - { offset: 0xE2B64, size: 0x8, addend: 0x0, symName: __ZNSt3__122__hash_node_destructorINS_9allocatorINS_11__hash_nodeINS_17__hash_value_typeIiN8facebook5react13TimerCallbackEEEPvEEEEEclB8ne200100EPS9_, symObjAddr: 0x1ED4, symBinAddr: 0x12404, symSize: 0x64 }
  - { offset: 0xE2D9D, size: 0x8, addend: 0x0, symName: __ZNSt3__112__hash_tableINS_17__hash_value_typeIiN8facebook5react13TimerCallbackEEENS_22__unordered_map_hasherIiS5_NS_4hashIiEENS_8equal_toIiEELb1EEENS_21__unordered_map_equalIiS5_SA_S8_Lb1EEENS_9allocatorIS5_EEE5eraseENS_21__hash_const_iteratorIPNS_11__hash_nodeIS5_PvEEEE, symObjAddr: 0x2020, symBinAddr: 0x12550, symSize: 0x48 }
  - { offset: 0xE2ECD, size: 0x8, addend: 0x0, symName: __ZNSt3__112__hash_tableINS_17__hash_value_typeIiN8facebook5react13TimerCallbackEEENS_22__unordered_map_hasherIiS5_NS_4hashIiEENS_8equal_toIiEELb1EEENS_21__unordered_map_equalIiS5_SA_S8_Lb1EEENS_9allocatorIS5_EEE6removeENS_21__hash_const_iteratorIPNS_11__hash_nodeIS5_PvEEEE, symObjAddr: 0x2068, symBinAddr: 0x12598, symSize: 0x13C }
  - { offset: 0xE2F46, size: 0x8, addend: 0x0, symName: __ZNSt3__112__hash_tableINS_17__hash_value_typeIiN8facebook5react13TimerCallbackEEENS_22__unordered_map_hasherIiS5_NS_4hashIiEENS_8equal_toIiEELb1EEENS_21__unordered_map_equalIiS5_SA_S8_Lb1EEENS_9allocatorIS5_EEE6removeENS_21__hash_const_iteratorIPNS_11__hash_nodeIS5_PvEEEE, symObjAddr: 0x2068, symBinAddr: 0x12598, symSize: 0x13C }
  - { offset: 0xE2F62, size: 0x8, addend: 0x0, symName: __ZNSt3__112__hash_tableINS_17__hash_value_typeIiN8facebook5react13TimerCallbackEEENS_22__unordered_map_hasherIiS5_NS_4hashIiEENS_8equal_toIiEELb1EEENS_21__unordered_map_equalIiS5_SA_S8_Lb1EEENS_9allocatorIS5_EEE6removeENS_21__hash_const_iteratorIPNS_11__hash_nodeIS5_PvEEEE, symObjAddr: 0x2068, symBinAddr: 0x12598, symSize: 0x13C }
  - { offset: 0xE369F, size: 0x8, addend: 0x0, symName: __ZN8facebook5react8systrace8rendererIA3_cvE6renderERA3_Kc, symObjAddr: 0x26A0, symBinAddr: 0x12BD0, symSize: 0xE4 }
  - { offset: 0xE3968, size: 0x8, addend: 0x0, symName: __ZN8facebook5react8systrace8rendererIivE6renderERKi, symObjAddr: 0x2E90, symBinAddr: 0x12CB4, symSize: 0xD8 }
  - { offset: 0xE3BA5, size: 0x8, addend: 0x0, symName: __ZN8facebook5react8systrace8rendererIA5_cvE6renderERA5_Kc, symObjAddr: 0x2F68, symBinAddr: 0x12D8C, symSize: 0xE4 }
  - { offset: 0xE3E6E, size: 0x8, addend: 0x0, symName: __ZN8facebook5react8systrace8rendererIPKcvE6renderERKS4_, symObjAddr: 0x304C, symBinAddr: 0x12E70, symSize: 0xE8 }
  - { offset: 0xE4137, size: 0x8, addend: 0x0, symName: __ZN8facebook5react8systrace8rendererIA6_cvE6renderERA6_Kc, symObjAddr: 0x3134, symBinAddr: 0x12F58, symSize: 0xE4 }
  - { offset: 0xE4400, size: 0x8, addend: 0x0, symName: __ZN8facebook5react8systrace8rendererIdvE6renderERKd, symObjAddr: 0x3218, symBinAddr: 0x1303C, symSize: 0xD8 }
  - { offset: 0xE48D7, size: 0x8, addend: 0x0, symName: __ZNSt3__112__hash_tableINS_17__hash_value_typeIiN8facebook5react13TimerCallbackEEENS_22__unordered_map_hasherIiS5_NS_4hashIiEENS_8equal_toIiEELb1EEENS_21__unordered_map_equalIiS5_SA_S8_Lb1EEENS_9allocatorIS5_EEE21__emplace_unique_implIJRKNS_21piecewise_construct_tENS_5tupleIJRiEEENSL_IJONS2_3jsi8FunctionEONS_6vectorINSO_5ValueENSE_ISS_EEEEObRNS3_11TimerSourceEEEEEEENS_4pairINS_15__hash_iteratorIPNS_11__hash_nodeIS5_PvEEEEbEEDpOT_, symObjAddr: 0x36CC, symBinAddr: 0x13114, symSize: 0x88 }
  - { offset: 0xE5F9F, size: 0x8, addend: 0x0, symName: __ZNSt3__112__hash_tableINS_17__hash_value_typeIiN8facebook5react13TimerCallbackEEENS_22__unordered_map_hasherIiS5_NS_4hashIiEENS_8equal_toIiEELb1EEENS_21__unordered_map_equalIiS5_SA_S8_Lb1EEENS_9allocatorIS5_EEE16__construct_nodeIJRKNS_21piecewise_construct_tENS_5tupleIJRiEEENSL_IJONS2_3jsi8FunctionEONS_6vectorINSO_5ValueENSE_ISS_EEEEObRNS3_11TimerSourceEEEEEEENS_10unique_ptrINS_11__hash_nodeIS5_PvEENS_22__hash_node_destructorINSE_IS13_EEEEEEDpOT_, symObjAddr: 0x3754, symBinAddr: 0x1319C, symSize: 0xA8 }
  - { offset: 0xE64B9, size: 0x8, addend: 0x0, symName: __ZNSt3__14pairIKiN8facebook5react13TimerCallbackEEC2B8ne200100IJRiEJONS2_3jsi8FunctionEONS_6vectorINS8_5ValueENS_9allocatorISC_EEEEObRNS3_11TimerSourceEEJLm0EEJLm0ELm1ELm2ELm3EEEENS_21piecewise_construct_tERNS_5tupleIJDpT_EEERNSL_IJDpT0_EEENS_15__tuple_indicesIJXspT1_EEEENSU_IJXspT2_EEEE, symObjAddr: 0x37FC, symBinAddr: 0x13244, symSize: 0x88 }
  - { offset: 0xE68EC, size: 0x8, addend: 0x0, symName: '__ZNSt3__110__function6__funcIZN8facebook5react12TimerManager9callTimerEiE3$_0NS_9allocatorIS5_EEFvRNS2_3jsi7RuntimeEEED1Ev', symObjAddr: 0x38D0, symBinAddr: 0x132CC, symSize: 0x4 }
  - { offset: 0xE6917, size: 0x8, addend: 0x0, symName: '__ZNSt3__110__function6__funcIZN8facebook5react12TimerManager9callTimerEiE3$_0NS_9allocatorIS5_EEFvRNS2_3jsi7RuntimeEEED0Ev', symObjAddr: 0x38D4, symBinAddr: 0x132D0, symSize: 0x4 }
  - { offset: 0xE6A22, size: 0x8, addend: 0x0, symName: '__ZNKSt3__110__function6__funcIZN8facebook5react12TimerManager9callTimerEiE3$_0NS_9allocatorIS5_EEFvRNS2_3jsi7RuntimeEEE7__cloneEv', symObjAddr: 0x38D8, symBinAddr: 0x132D4, symSize: 0x3C }
  - { offset: 0xE6C68, size: 0x8, addend: 0x0, symName: '__ZNKSt3__110__function6__funcIZN8facebook5react12TimerManager9callTimerEiE3$_0NS_9allocatorIS5_EEFvRNS2_3jsi7RuntimeEEE7__cloneEPNS0_6__baseISB_EE', symObjAddr: 0x3914, symBinAddr: 0x13310, symSize: 0x1C }
  - { offset: 0xE6C9D, size: 0x8, addend: 0x0, symName: '__ZNKSt3__110__function6__funcIZN8facebook5react12TimerManager9callTimerEiE3$_0NS_9allocatorIS5_EEFvRNS2_3jsi7RuntimeEEE7__cloneEPNS0_6__baseISB_EE', symObjAddr: 0x3914, symBinAddr: 0x13310, symSize: 0x1C }
  - { offset: 0xE6CCB, size: 0x8, addend: 0x0, symName: '__ZNKSt3__110__function6__funcIZN8facebook5react12TimerManager9callTimerEiE3$_0NS_9allocatorIS5_EEFvRNS2_3jsi7RuntimeEEE7__cloneEPNS0_6__baseISB_EE', symObjAddr: 0x3914, symBinAddr: 0x13310, symSize: 0x1C }
  - { offset: 0xE6D96, size: 0x8, addend: 0x0, symName: '__ZNSt3__110__function6__funcIZN8facebook5react12TimerManager9callTimerEiE3$_0NS_9allocatorIS5_EEFvRNS2_3jsi7RuntimeEEE7destroyEv', symObjAddr: 0x3930, symBinAddr: 0x1332C, symSize: 0x4 }
  - { offset: 0xE6DE7, size: 0x8, addend: 0x0, symName: '__ZNSt3__110__function6__funcIZN8facebook5react12TimerManager9callTimerEiE3$_0NS_9allocatorIS5_EEFvRNS2_3jsi7RuntimeEEE18destroy_deallocateEv', symObjAddr: 0x3934, symBinAddr: 0x13330, symSize: 0x4 }
  - { offset: 0xE6E1A, size: 0x8, addend: 0x0, symName: '__ZNSt3__110__function6__funcIZN8facebook5react12TimerManager9callTimerEiE3$_0NS_9allocatorIS5_EEFvRNS2_3jsi7RuntimeEEE18destroy_deallocateEv', symObjAddr: 0x3934, symBinAddr: 0x13330, symSize: 0x4 }
  - { offset: 0xE6E3D, size: 0x8, addend: 0x0, symName: '__ZNSt3__110__function6__funcIZN8facebook5react12TimerManager9callTimerEiE3$_0NS_9allocatorIS5_EEFvRNS2_3jsi7RuntimeEEE18destroy_deallocateEv', symObjAddr: 0x3934, symBinAddr: 0x13330, symSize: 0x4 }
  - { offset: 0xE6E71, size: 0x8, addend: 0x0, symName: '__ZNSt3__110__function6__funcIZN8facebook5react12TimerManager9callTimerEiE3$_0NS_9allocatorIS5_EEFvRNS2_3jsi7RuntimeEEE18destroy_deallocateEv', symObjAddr: 0x3934, symBinAddr: 0x13330, symSize: 0x4 }
  - { offset: 0xE6FC4, size: 0x8, addend: 0x0, symName: '__ZNSt3__110__function6__funcIZN8facebook5react12TimerManager9callTimerEiE3$_0NS_9allocatorIS5_EEFvRNS2_3jsi7RuntimeEEEclESA_', symObjAddr: 0x3938, symBinAddr: 0x13334, symSize: 0x114 }
  - { offset: 0xE71F4, size: 0x8, addend: 0x0, symName: '__ZNKSt3__110__function6__funcIZN8facebook5react12TimerManager9callTimerEiE3$_0NS_9allocatorIS5_EEFvRNS2_3jsi7RuntimeEEE6targetERKSt9type_info', symObjAddr: 0x3A4C, symBinAddr: 0x13448, symSize: 0x3C }
  - { offset: 0xE72A5, size: 0x8, addend: 0x0, symName: '__ZNKSt3__110__function6__funcIZN8facebook5react12TimerManager9callTimerEiE3$_0NS_9allocatorIS5_EEFvRNS2_3jsi7RuntimeEEE11target_typeEv', symObjAddr: 0x3A88, symBinAddr: 0x13484, symSize: 0xC }
  - { offset: 0xE730F, size: 0x8, addend: 0x0, symName: '__ZNSt3__110__function6__funcIZN8facebook5react12TimerManager13attachGlobalsERNS2_3jsi7RuntimeEE3$_0NS_9allocatorIS8_EEFNS5_5ValueES7_RKSB_PSC_mEED1Ev', symObjAddr: 0x3F70, symBinAddr: 0x13920, symSize: 0x4 }
  - { offset: 0xE733A, size: 0x8, addend: 0x0, symName: '__ZNSt3__110__function6__funcIZN8facebook5react12TimerManager13attachGlobalsERNS2_3jsi7RuntimeEE3$_0NS_9allocatorIS8_EEFNS5_5ValueES7_RKSB_PSC_mEED0Ev', symObjAddr: 0x3F74, symBinAddr: 0x13924, symSize: 0x4 }
  - { offset: 0xE7445, size: 0x8, addend: 0x0, symName: '__ZNKSt3__110__function6__funcIZN8facebook5react12TimerManager13attachGlobalsERNS2_3jsi7RuntimeEE3$_0NS_9allocatorIS8_EEFNS5_5ValueES7_RKSB_PSC_mEE7__cloneEv', symObjAddr: 0x3F78, symBinAddr: 0x13928, symSize: 0x34 }
  - { offset: 0xE763D, size: 0x8, addend: 0x0, symName: '__ZNKSt3__110__function6__funcIZN8facebook5react12TimerManager13attachGlobalsERNS2_3jsi7RuntimeEE3$_0NS_9allocatorIS8_EEFNS5_5ValueES7_RKSB_PSC_mEE7__cloneEPNS0_6__baseISF_EE', symObjAddr: 0x3FAC, symBinAddr: 0x1395C, symSize: 0x14 }
  - { offset: 0xE7672, size: 0x8, addend: 0x0, symName: '__ZNKSt3__110__function6__funcIZN8facebook5react12TimerManager13attachGlobalsERNS2_3jsi7RuntimeEE3$_0NS_9allocatorIS8_EEFNS5_5ValueES7_RKSB_PSC_mEE7__cloneEPNS0_6__baseISF_EE', symObjAddr: 0x3FAC, symBinAddr: 0x1395C, symSize: 0x14 }
  - { offset: 0xE76A0, size: 0x8, addend: 0x0, symName: '__ZNKSt3__110__function6__funcIZN8facebook5react12TimerManager13attachGlobalsERNS2_3jsi7RuntimeEE3$_0NS_9allocatorIS8_EEFNS5_5ValueES7_RKSB_PSC_mEE7__cloneEPNS0_6__baseISF_EE', symObjAddr: 0x3FAC, symBinAddr: 0x1395C, symSize: 0x14 }
  - { offset: 0xE76CE, size: 0x8, addend: 0x0, symName: '__ZNKSt3__110__function6__funcIZN8facebook5react12TimerManager13attachGlobalsERNS2_3jsi7RuntimeEE3$_0NS_9allocatorIS8_EEFNS5_5ValueES7_RKSB_PSC_mEE7__cloneEPNS0_6__baseISF_EE', symObjAddr: 0x3FAC, symBinAddr: 0x1395C, symSize: 0x14 }
  - { offset: 0xE76E4, size: 0x8, addend: 0x0, symName: '__ZNKSt3__110__function6__funcIZN8facebook5react12TimerManager13attachGlobalsERNS2_3jsi7RuntimeEE3$_0NS_9allocatorIS8_EEFNS5_5ValueES7_RKSB_PSC_mEE7__cloneEPNS0_6__baseISF_EE', symObjAddr: 0x3FAC, symBinAddr: 0x1395C, symSize: 0x14 }
  - { offset: 0xE76F9, size: 0x8, addend: 0x0, symName: '__ZNSt3__110__function6__funcIZN8facebook5react12TimerManager13attachGlobalsERNS2_3jsi7RuntimeEE3$_0NS_9allocatorIS8_EEFNS5_5ValueES7_RKSB_PSC_mEE7destroyEv', symObjAddr: 0x3FC0, symBinAddr: 0x13970, symSize: 0x4 }
  - { offset: 0xE774A, size: 0x8, addend: 0x0, symName: '__ZNSt3__110__function6__funcIZN8facebook5react12TimerManager13attachGlobalsERNS2_3jsi7RuntimeEE3$_0NS_9allocatorIS8_EEFNS5_5ValueES7_RKSB_PSC_mEE18destroy_deallocateEv', symObjAddr: 0x3FC4, symBinAddr: 0x13974, symSize: 0x4 }
  - { offset: 0xE777D, size: 0x8, addend: 0x0, symName: '__ZNSt3__110__function6__funcIZN8facebook5react12TimerManager13attachGlobalsERNS2_3jsi7RuntimeEE3$_0NS_9allocatorIS8_EEFNS5_5ValueES7_RKSB_PSC_mEE18destroy_deallocateEv', symObjAddr: 0x3FC4, symBinAddr: 0x13974, symSize: 0x4 }
  - { offset: 0xE77A0, size: 0x8, addend: 0x0, symName: '__ZNSt3__110__function6__funcIZN8facebook5react12TimerManager13attachGlobalsERNS2_3jsi7RuntimeEE3$_0NS_9allocatorIS8_EEFNS5_5ValueES7_RKSB_PSC_mEE18destroy_deallocateEv', symObjAddr: 0x3FC4, symBinAddr: 0x13974, symSize: 0x4 }
  - { offset: 0xE77D4, size: 0x8, addend: 0x0, symName: '__ZNSt3__110__function6__funcIZN8facebook5react12TimerManager13attachGlobalsERNS2_3jsi7RuntimeEE3$_0NS_9allocatorIS8_EEFNS5_5ValueES7_RKSB_PSC_mEE18destroy_deallocateEv', symObjAddr: 0x3FC4, symBinAddr: 0x13974, symSize: 0x4 }
  - { offset: 0xE7BCE, size: 0x8, addend: 0x0, symName: '__ZNSt3__110__function6__funcIZN8facebook5react12TimerManager13attachGlobalsERNS2_3jsi7RuntimeEE3$_0NS_9allocatorIS8_EEFNS5_5ValueES7_RKSB_PSC_mEEclES7_SD_OSE_Om', symObjAddr: 0x3FC8, symBinAddr: 0x13978, symSize: 0x23C }
  - { offset: 0xE8391, size: 0x8, addend: 0x0, symName: __ZNSt3__16vectorIN8facebook3jsi5ValueENS_9allocatorIS3_EEE24__emplace_back_slow_pathIJRNS2_7RuntimeERKS3_EEEPS3_DpOT_, symObjAddr: 0x44EC, symBinAddr: 0x13E9C, symSize: 0x114 }
  - { offset: 0xE869F, size: 0x8, addend: 0x0, symName: '__ZNKSt3__110__function6__funcIZN8facebook5react12TimerManager13attachGlobalsERNS2_3jsi7RuntimeEE3$_0NS_9allocatorIS8_EEFNS5_5ValueES7_RKSB_PSC_mEE6targetERKSt9type_info', symObjAddr: 0x4204, symBinAddr: 0x13BB4, symSize: 0x3C }
  - { offset: 0xE86EC, size: 0x8, addend: 0x0, symName: '__ZNKSt3__110__function6__funcIZN8facebook5react12TimerManager13attachGlobalsERNS2_3jsi7RuntimeEE3$_0NS_9allocatorIS8_EEFNS5_5ValueES7_RKSB_PSC_mEE11target_typeEv', symObjAddr: 0x4240, symBinAddr: 0x13BF0, symSize: 0xC }
  - { offset: 0xE8C1A, size: 0x8, addend: 0x0, symName: '__ZNSt3__110__function6__funcIZN8facebook5react12TimerManager13attachGlobalsERNS2_3jsi7RuntimeEE3$_1NS_9allocatorIS8_EEFNS5_5ValueES7_RKSB_PSC_mEED1Ev', symObjAddr: 0x478C, symBinAddr: 0x13FB0, symSize: 0x4 }
  - { offset: 0xE8C45, size: 0x8, addend: 0x0, symName: '__ZNSt3__110__function6__funcIZN8facebook5react12TimerManager13attachGlobalsERNS2_3jsi7RuntimeEE3$_1NS_9allocatorIS8_EEFNS5_5ValueES7_RKSB_PSC_mEED0Ev', symObjAddr: 0x4790, symBinAddr: 0x13FB4, symSize: 0x4 }
  - { offset: 0xE8D50, size: 0x8, addend: 0x0, symName: '__ZNKSt3__110__function6__funcIZN8facebook5react12TimerManager13attachGlobalsERNS2_3jsi7RuntimeEE3$_1NS_9allocatorIS8_EEFNS5_5ValueES7_RKSB_PSC_mEE7__cloneEv', symObjAddr: 0x4794, symBinAddr: 0x13FB8, symSize: 0x34 }
  - { offset: 0xE8F48, size: 0x8, addend: 0x0, symName: '__ZNKSt3__110__function6__funcIZN8facebook5react12TimerManager13attachGlobalsERNS2_3jsi7RuntimeEE3$_1NS_9allocatorIS8_EEFNS5_5ValueES7_RKSB_PSC_mEE7__cloneEPNS0_6__baseISF_EE', symObjAddr: 0x47C8, symBinAddr: 0x13FEC, symSize: 0x14 }
  - { offset: 0xE8F7D, size: 0x8, addend: 0x0, symName: '__ZNKSt3__110__function6__funcIZN8facebook5react12TimerManager13attachGlobalsERNS2_3jsi7RuntimeEE3$_1NS_9allocatorIS8_EEFNS5_5ValueES7_RKSB_PSC_mEE7__cloneEPNS0_6__baseISF_EE', symObjAddr: 0x47C8, symBinAddr: 0x13FEC, symSize: 0x14 }
  - { offset: 0xE8FAB, size: 0x8, addend: 0x0, symName: '__ZNKSt3__110__function6__funcIZN8facebook5react12TimerManager13attachGlobalsERNS2_3jsi7RuntimeEE3$_1NS_9allocatorIS8_EEFNS5_5ValueES7_RKSB_PSC_mEE7__cloneEPNS0_6__baseISF_EE', symObjAddr: 0x47C8, symBinAddr: 0x13FEC, symSize: 0x14 }
  - { offset: 0xE8FD9, size: 0x8, addend: 0x0, symName: '__ZNKSt3__110__function6__funcIZN8facebook5react12TimerManager13attachGlobalsERNS2_3jsi7RuntimeEE3$_1NS_9allocatorIS8_EEFNS5_5ValueES7_RKSB_PSC_mEE7__cloneEPNS0_6__baseISF_EE', symObjAddr: 0x47C8, symBinAddr: 0x13FEC, symSize: 0x14 }
  - { offset: 0xE8FEF, size: 0x8, addend: 0x0, symName: '__ZNKSt3__110__function6__funcIZN8facebook5react12TimerManager13attachGlobalsERNS2_3jsi7RuntimeEE3$_1NS_9allocatorIS8_EEFNS5_5ValueES7_RKSB_PSC_mEE7__cloneEPNS0_6__baseISF_EE', symObjAddr: 0x47C8, symBinAddr: 0x13FEC, symSize: 0x14 }
  - { offset: 0xE9004, size: 0x8, addend: 0x0, symName: '__ZNSt3__110__function6__funcIZN8facebook5react12TimerManager13attachGlobalsERNS2_3jsi7RuntimeEE3$_1NS_9allocatorIS8_EEFNS5_5ValueES7_RKSB_PSC_mEE7destroyEv', symObjAddr: 0x47DC, symBinAddr: 0x14000, symSize: 0x4 }
  - { offset: 0xE9055, size: 0x8, addend: 0x0, symName: '__ZNSt3__110__function6__funcIZN8facebook5react12TimerManager13attachGlobalsERNS2_3jsi7RuntimeEE3$_1NS_9allocatorIS8_EEFNS5_5ValueES7_RKSB_PSC_mEE18destroy_deallocateEv', symObjAddr: 0x47E0, symBinAddr: 0x14004, symSize: 0x4 }
  - { offset: 0xE9088, size: 0x8, addend: 0x0, symName: '__ZNSt3__110__function6__funcIZN8facebook5react12TimerManager13attachGlobalsERNS2_3jsi7RuntimeEE3$_1NS_9allocatorIS8_EEFNS5_5ValueES7_RKSB_PSC_mEE18destroy_deallocateEv', symObjAddr: 0x47E0, symBinAddr: 0x14004, symSize: 0x4 }
  - { offset: 0xE90AB, size: 0x8, addend: 0x0, symName: '__ZNSt3__110__function6__funcIZN8facebook5react12TimerManager13attachGlobalsERNS2_3jsi7RuntimeEE3$_1NS_9allocatorIS8_EEFNS5_5ValueES7_RKSB_PSC_mEE18destroy_deallocateEv', symObjAddr: 0x47E0, symBinAddr: 0x14004, symSize: 0x4 }
  - { offset: 0xE90DF, size: 0x8, addend: 0x0, symName: '__ZNSt3__110__function6__funcIZN8facebook5react12TimerManager13attachGlobalsERNS2_3jsi7RuntimeEE3$_1NS_9allocatorIS8_EEFNS5_5ValueES7_RKSB_PSC_mEE18destroy_deallocateEv', symObjAddr: 0x47E0, symBinAddr: 0x14004, symSize: 0x4 }
  - { offset: 0xE9212, size: 0x8, addend: 0x0, symName: '__ZNSt3__110__function6__funcIZN8facebook5react12TimerManager13attachGlobalsERNS2_3jsi7RuntimeEE3$_1NS_9allocatorIS8_EEFNS5_5ValueES7_RKSB_PSC_mEEclES7_SD_OSE_Om', symObjAddr: 0x47E4, symBinAddr: 0x14008, symSize: 0x60 }
  - { offset: 0xE9435, size: 0x8, addend: 0x0, symName: '__ZNKSt3__110__function6__funcIZN8facebook5react12TimerManager13attachGlobalsERNS2_3jsi7RuntimeEE3$_1NS_9allocatorIS8_EEFNS5_5ValueES7_RKSB_PSC_mEE6targetERKSt9type_info', symObjAddr: 0x4844, symBinAddr: 0x14068, symSize: 0x3C }
  - { offset: 0xE9482, size: 0x8, addend: 0x0, symName: '__ZNKSt3__110__function6__funcIZN8facebook5react12TimerManager13attachGlobalsERNS2_3jsi7RuntimeEE3$_1NS_9allocatorIS8_EEFNS5_5ValueES7_RKSB_PSC_mEE11target_typeEv', symObjAddr: 0x4880, symBinAddr: 0x140A4, symSize: 0xC }
  - { offset: 0xE94A4, size: 0x8, addend: 0x0, symName: '__ZNSt3__110__function6__funcIZN8facebook5react12TimerManager13attachGlobalsERNS2_3jsi7RuntimeEE3$_2NS_9allocatorIS8_EEFNS5_5ValueES7_RKSB_PSC_mEED1Ev', symObjAddr: 0x488C, symBinAddr: 0x140B0, symSize: 0x4 }
  - { offset: 0xE94CF, size: 0x8, addend: 0x0, symName: '__ZNSt3__110__function6__funcIZN8facebook5react12TimerManager13attachGlobalsERNS2_3jsi7RuntimeEE3$_2NS_9allocatorIS8_EEFNS5_5ValueES7_RKSB_PSC_mEED0Ev', symObjAddr: 0x4890, symBinAddr: 0x140B4, symSize: 0x4 }
  - { offset: 0xE95DA, size: 0x8, addend: 0x0, symName: '__ZNKSt3__110__function6__funcIZN8facebook5react12TimerManager13attachGlobalsERNS2_3jsi7RuntimeEE3$_2NS_9allocatorIS8_EEFNS5_5ValueES7_RKSB_PSC_mEE7__cloneEv', symObjAddr: 0x4894, symBinAddr: 0x140B8, symSize: 0x34 }
  - { offset: 0xE97D2, size: 0x8, addend: 0x0, symName: '__ZNKSt3__110__function6__funcIZN8facebook5react12TimerManager13attachGlobalsERNS2_3jsi7RuntimeEE3$_2NS_9allocatorIS8_EEFNS5_5ValueES7_RKSB_PSC_mEE7__cloneEPNS0_6__baseISF_EE', symObjAddr: 0x48C8, symBinAddr: 0x140EC, symSize: 0x14 }
  - { offset: 0xE9807, size: 0x8, addend: 0x0, symName: '__ZNKSt3__110__function6__funcIZN8facebook5react12TimerManager13attachGlobalsERNS2_3jsi7RuntimeEE3$_2NS_9allocatorIS8_EEFNS5_5ValueES7_RKSB_PSC_mEE7__cloneEPNS0_6__baseISF_EE', symObjAddr: 0x48C8, symBinAddr: 0x140EC, symSize: 0x14 }
  - { offset: 0xE9835, size: 0x8, addend: 0x0, symName: '__ZNKSt3__110__function6__funcIZN8facebook5react12TimerManager13attachGlobalsERNS2_3jsi7RuntimeEE3$_2NS_9allocatorIS8_EEFNS5_5ValueES7_RKSB_PSC_mEE7__cloneEPNS0_6__baseISF_EE', symObjAddr: 0x48C8, symBinAddr: 0x140EC, symSize: 0x14 }
  - { offset: 0xE9863, size: 0x8, addend: 0x0, symName: '__ZNKSt3__110__function6__funcIZN8facebook5react12TimerManager13attachGlobalsERNS2_3jsi7RuntimeEE3$_2NS_9allocatorIS8_EEFNS5_5ValueES7_RKSB_PSC_mEE7__cloneEPNS0_6__baseISF_EE', symObjAddr: 0x48C8, symBinAddr: 0x140EC, symSize: 0x14 }
  - { offset: 0xE9879, size: 0x8, addend: 0x0, symName: '__ZNKSt3__110__function6__funcIZN8facebook5react12TimerManager13attachGlobalsERNS2_3jsi7RuntimeEE3$_2NS_9allocatorIS8_EEFNS5_5ValueES7_RKSB_PSC_mEE7__cloneEPNS0_6__baseISF_EE', symObjAddr: 0x48C8, symBinAddr: 0x140EC, symSize: 0x14 }
  - { offset: 0xE988E, size: 0x8, addend: 0x0, symName: '__ZNSt3__110__function6__funcIZN8facebook5react12TimerManager13attachGlobalsERNS2_3jsi7RuntimeEE3$_2NS_9allocatorIS8_EEFNS5_5ValueES7_RKSB_PSC_mEE7destroyEv', symObjAddr: 0x48DC, symBinAddr: 0x14100, symSize: 0x4 }
  - { offset: 0xE98DF, size: 0x8, addend: 0x0, symName: '__ZNSt3__110__function6__funcIZN8facebook5react12TimerManager13attachGlobalsERNS2_3jsi7RuntimeEE3$_2NS_9allocatorIS8_EEFNS5_5ValueES7_RKSB_PSC_mEE18destroy_deallocateEv', symObjAddr: 0x48E0, symBinAddr: 0x14104, symSize: 0x4 }
  - { offset: 0xE9912, size: 0x8, addend: 0x0, symName: '__ZNSt3__110__function6__funcIZN8facebook5react12TimerManager13attachGlobalsERNS2_3jsi7RuntimeEE3$_2NS_9allocatorIS8_EEFNS5_5ValueES7_RKSB_PSC_mEE18destroy_deallocateEv', symObjAddr: 0x48E0, symBinAddr: 0x14104, symSize: 0x4 }
  - { offset: 0xE9935, size: 0x8, addend: 0x0, symName: '__ZNSt3__110__function6__funcIZN8facebook5react12TimerManager13attachGlobalsERNS2_3jsi7RuntimeEE3$_2NS_9allocatorIS8_EEFNS5_5ValueES7_RKSB_PSC_mEE18destroy_deallocateEv', symObjAddr: 0x48E0, symBinAddr: 0x14104, symSize: 0x4 }
  - { offset: 0xE9969, size: 0x8, addend: 0x0, symName: '__ZNSt3__110__function6__funcIZN8facebook5react12TimerManager13attachGlobalsERNS2_3jsi7RuntimeEE3$_2NS_9allocatorIS8_EEFNS5_5ValueES7_RKSB_PSC_mEE18destroy_deallocateEv', symObjAddr: 0x48E0, symBinAddr: 0x14104, symSize: 0x4 }
  - { offset: 0xE9AC3, size: 0x8, addend: 0x0, symName: '__ZNSt3__110__function6__funcIZN8facebook5react12TimerManager13attachGlobalsERNS2_3jsi7RuntimeEE3$_2NS_9allocatorIS8_EEFNS5_5ValueES7_RKSB_PSC_mEEclES7_SD_OSE_Om', symObjAddr: 0x48E4, symBinAddr: 0x14108, symSize: 0x264 }
  - { offset: 0xEA28D, size: 0x8, addend: 0x0, symName: '__ZNKSt3__110__function6__funcIZN8facebook5react12TimerManager13attachGlobalsERNS2_3jsi7RuntimeEE3$_2NS_9allocatorIS8_EEFNS5_5ValueES7_RKSB_PSC_mEE6targetERKSt9type_info', symObjAddr: 0x4B48, symBinAddr: 0x1436C, symSize: 0x3C }
  - { offset: 0xEA2DA, size: 0x8, addend: 0x0, symName: '__ZNKSt3__110__function6__funcIZN8facebook5react12TimerManager13attachGlobalsERNS2_3jsi7RuntimeEE3$_2NS_9allocatorIS8_EEFNS5_5ValueES7_RKSB_PSC_mEE11target_typeEv', symObjAddr: 0x4B84, symBinAddr: 0x143A8, symSize: 0xC }
  - { offset: 0xEA2FC, size: 0x8, addend: 0x0, symName: '__ZNSt3__110__function6__funcIZN8facebook5react12TimerManager13attachGlobalsERNS2_3jsi7RuntimeEE3$_3NS_9allocatorIS8_EEFNS5_5ValueES7_RKSB_PSC_mEED1Ev', symObjAddr: 0x4B90, symBinAddr: 0x143B4, symSize: 0x4 }
  - { offset: 0xEA327, size: 0x8, addend: 0x0, symName: '__ZNSt3__110__function6__funcIZN8facebook5react12TimerManager13attachGlobalsERNS2_3jsi7RuntimeEE3$_3NS_9allocatorIS8_EEFNS5_5ValueES7_RKSB_PSC_mEED0Ev', symObjAddr: 0x4B94, symBinAddr: 0x143B8, symSize: 0x4 }
  - { offset: 0xEA432, size: 0x8, addend: 0x0, symName: '__ZNKSt3__110__function6__funcIZN8facebook5react12TimerManager13attachGlobalsERNS2_3jsi7RuntimeEE3$_3NS_9allocatorIS8_EEFNS5_5ValueES7_RKSB_PSC_mEE7__cloneEv', symObjAddr: 0x4B98, symBinAddr: 0x143BC, symSize: 0x34 }
  - { offset: 0xEA62A, size: 0x8, addend: 0x0, symName: '__ZNKSt3__110__function6__funcIZN8facebook5react12TimerManager13attachGlobalsERNS2_3jsi7RuntimeEE3$_3NS_9allocatorIS8_EEFNS5_5ValueES7_RKSB_PSC_mEE7__cloneEPNS0_6__baseISF_EE', symObjAddr: 0x4BCC, symBinAddr: 0x143F0, symSize: 0x14 }
  - { offset: 0xEA65F, size: 0x8, addend: 0x0, symName: '__ZNKSt3__110__function6__funcIZN8facebook5react12TimerManager13attachGlobalsERNS2_3jsi7RuntimeEE3$_3NS_9allocatorIS8_EEFNS5_5ValueES7_RKSB_PSC_mEE7__cloneEPNS0_6__baseISF_EE', symObjAddr: 0x4BCC, symBinAddr: 0x143F0, symSize: 0x14 }
  - { offset: 0xEA68D, size: 0x8, addend: 0x0, symName: '__ZNKSt3__110__function6__funcIZN8facebook5react12TimerManager13attachGlobalsERNS2_3jsi7RuntimeEE3$_3NS_9allocatorIS8_EEFNS5_5ValueES7_RKSB_PSC_mEE7__cloneEPNS0_6__baseISF_EE', symObjAddr: 0x4BCC, symBinAddr: 0x143F0, symSize: 0x14 }
  - { offset: 0xEA6BB, size: 0x8, addend: 0x0, symName: '__ZNKSt3__110__function6__funcIZN8facebook5react12TimerManager13attachGlobalsERNS2_3jsi7RuntimeEE3$_3NS_9allocatorIS8_EEFNS5_5ValueES7_RKSB_PSC_mEE7__cloneEPNS0_6__baseISF_EE', symObjAddr: 0x4BCC, symBinAddr: 0x143F0, symSize: 0x14 }
  - { offset: 0xEA6D1, size: 0x8, addend: 0x0, symName: '__ZNKSt3__110__function6__funcIZN8facebook5react12TimerManager13attachGlobalsERNS2_3jsi7RuntimeEE3$_3NS_9allocatorIS8_EEFNS5_5ValueES7_RKSB_PSC_mEE7__cloneEPNS0_6__baseISF_EE', symObjAddr: 0x4BCC, symBinAddr: 0x143F0, symSize: 0x14 }
  - { offset: 0xEA6E6, size: 0x8, addend: 0x0, symName: '__ZNSt3__110__function6__funcIZN8facebook5react12TimerManager13attachGlobalsERNS2_3jsi7RuntimeEE3$_3NS_9allocatorIS8_EEFNS5_5ValueES7_RKSB_PSC_mEE7destroyEv', symObjAddr: 0x4BE0, symBinAddr: 0x14404, symSize: 0x4 }
  - { offset: 0xEA737, size: 0x8, addend: 0x0, symName: '__ZNSt3__110__function6__funcIZN8facebook5react12TimerManager13attachGlobalsERNS2_3jsi7RuntimeEE3$_3NS_9allocatorIS8_EEFNS5_5ValueES7_RKSB_PSC_mEE18destroy_deallocateEv', symObjAddr: 0x4BE4, symBinAddr: 0x14408, symSize: 0x4 }
  - { offset: 0xEA76A, size: 0x8, addend: 0x0, symName: '__ZNSt3__110__function6__funcIZN8facebook5react12TimerManager13attachGlobalsERNS2_3jsi7RuntimeEE3$_3NS_9allocatorIS8_EEFNS5_5ValueES7_RKSB_PSC_mEE18destroy_deallocateEv', symObjAddr: 0x4BE4, symBinAddr: 0x14408, symSize: 0x4 }
  - { offset: 0xEA78D, size: 0x8, addend: 0x0, symName: '__ZNSt3__110__function6__funcIZN8facebook5react12TimerManager13attachGlobalsERNS2_3jsi7RuntimeEE3$_3NS_9allocatorIS8_EEFNS5_5ValueES7_RKSB_PSC_mEE18destroy_deallocateEv', symObjAddr: 0x4BE4, symBinAddr: 0x14408, symSize: 0x4 }
  - { offset: 0xEA7C1, size: 0x8, addend: 0x0, symName: '__ZNSt3__110__function6__funcIZN8facebook5react12TimerManager13attachGlobalsERNS2_3jsi7RuntimeEE3$_3NS_9allocatorIS8_EEFNS5_5ValueES7_RKSB_PSC_mEE18destroy_deallocateEv', symObjAddr: 0x4BE4, symBinAddr: 0x14408, symSize: 0x4 }
  - { offset: 0xEA8F4, size: 0x8, addend: 0x0, symName: '__ZNSt3__110__function6__funcIZN8facebook5react12TimerManager13attachGlobalsERNS2_3jsi7RuntimeEE3$_3NS_9allocatorIS8_EEFNS5_5ValueES7_RKSB_PSC_mEEclES7_SD_OSE_Om', symObjAddr: 0x4BE8, symBinAddr: 0x1440C, symSize: 0x60 }
  - { offset: 0xEAB17, size: 0x8, addend: 0x0, symName: '__ZNKSt3__110__function6__funcIZN8facebook5react12TimerManager13attachGlobalsERNS2_3jsi7RuntimeEE3$_3NS_9allocatorIS8_EEFNS5_5ValueES7_RKSB_PSC_mEE6targetERKSt9type_info', symObjAddr: 0x4C48, symBinAddr: 0x1446C, symSize: 0x3C }
  - { offset: 0xEAB64, size: 0x8, addend: 0x0, symName: '__ZNKSt3__110__function6__funcIZN8facebook5react12TimerManager13attachGlobalsERNS2_3jsi7RuntimeEE3$_3NS_9allocatorIS8_EEFNS5_5ValueES7_RKSB_PSC_mEE11target_typeEv', symObjAddr: 0x4C84, symBinAddr: 0x144A8, symSize: 0xC }
  - { offset: 0xEAB86, size: 0x8, addend: 0x0, symName: '__ZNSt3__110__function6__funcIZN8facebook5react12TimerManager13attachGlobalsERNS2_3jsi7RuntimeEE3$_4NS_9allocatorIS8_EEFNS5_5ValueES7_RKSB_PSC_mEED1Ev', symObjAddr: 0x4C90, symBinAddr: 0x144B4, symSize: 0x4 }
  - { offset: 0xEABB1, size: 0x8, addend: 0x0, symName: '__ZNSt3__110__function6__funcIZN8facebook5react12TimerManager13attachGlobalsERNS2_3jsi7RuntimeEE3$_4NS_9allocatorIS8_EEFNS5_5ValueES7_RKSB_PSC_mEED0Ev', symObjAddr: 0x4C94, symBinAddr: 0x144B8, symSize: 0x4 }
  - { offset: 0xEACBC, size: 0x8, addend: 0x0, symName: '__ZNKSt3__110__function6__funcIZN8facebook5react12TimerManager13attachGlobalsERNS2_3jsi7RuntimeEE3$_4NS_9allocatorIS8_EEFNS5_5ValueES7_RKSB_PSC_mEE7__cloneEv', symObjAddr: 0x4C98, symBinAddr: 0x144BC, symSize: 0x34 }
  - { offset: 0xEAEB4, size: 0x8, addend: 0x0, symName: '__ZNKSt3__110__function6__funcIZN8facebook5react12TimerManager13attachGlobalsERNS2_3jsi7RuntimeEE3$_4NS_9allocatorIS8_EEFNS5_5ValueES7_RKSB_PSC_mEE7__cloneEPNS0_6__baseISF_EE', symObjAddr: 0x4CCC, symBinAddr: 0x144F0, symSize: 0x14 }
  - { offset: 0xEAEE9, size: 0x8, addend: 0x0, symName: '__ZNKSt3__110__function6__funcIZN8facebook5react12TimerManager13attachGlobalsERNS2_3jsi7RuntimeEE3$_4NS_9allocatorIS8_EEFNS5_5ValueES7_RKSB_PSC_mEE7__cloneEPNS0_6__baseISF_EE', symObjAddr: 0x4CCC, symBinAddr: 0x144F0, symSize: 0x14 }
  - { offset: 0xEAF17, size: 0x8, addend: 0x0, symName: '__ZNKSt3__110__function6__funcIZN8facebook5react12TimerManager13attachGlobalsERNS2_3jsi7RuntimeEE3$_4NS_9allocatorIS8_EEFNS5_5ValueES7_RKSB_PSC_mEE7__cloneEPNS0_6__baseISF_EE', symObjAddr: 0x4CCC, symBinAddr: 0x144F0, symSize: 0x14 }
  - { offset: 0xEAF45, size: 0x8, addend: 0x0, symName: '__ZNKSt3__110__function6__funcIZN8facebook5react12TimerManager13attachGlobalsERNS2_3jsi7RuntimeEE3$_4NS_9allocatorIS8_EEFNS5_5ValueES7_RKSB_PSC_mEE7__cloneEPNS0_6__baseISF_EE', symObjAddr: 0x4CCC, symBinAddr: 0x144F0, symSize: 0x14 }
  - { offset: 0xEAF5B, size: 0x8, addend: 0x0, symName: '__ZNKSt3__110__function6__funcIZN8facebook5react12TimerManager13attachGlobalsERNS2_3jsi7RuntimeEE3$_4NS_9allocatorIS8_EEFNS5_5ValueES7_RKSB_PSC_mEE7__cloneEPNS0_6__baseISF_EE', symObjAddr: 0x4CCC, symBinAddr: 0x144F0, symSize: 0x14 }
  - { offset: 0xEAF70, size: 0x8, addend: 0x0, symName: '__ZNSt3__110__function6__funcIZN8facebook5react12TimerManager13attachGlobalsERNS2_3jsi7RuntimeEE3$_4NS_9allocatorIS8_EEFNS5_5ValueES7_RKSB_PSC_mEE7destroyEv', symObjAddr: 0x4CE0, symBinAddr: 0x14504, symSize: 0x4 }
  - { offset: 0xEAFC1, size: 0x8, addend: 0x0, symName: '__ZNSt3__110__function6__funcIZN8facebook5react12TimerManager13attachGlobalsERNS2_3jsi7RuntimeEE3$_4NS_9allocatorIS8_EEFNS5_5ValueES7_RKSB_PSC_mEE18destroy_deallocateEv', symObjAddr: 0x4CE4, symBinAddr: 0x14508, symSize: 0x4 }
  - { offset: 0xEAFF4, size: 0x8, addend: 0x0, symName: '__ZNSt3__110__function6__funcIZN8facebook5react12TimerManager13attachGlobalsERNS2_3jsi7RuntimeEE3$_4NS_9allocatorIS8_EEFNS5_5ValueES7_RKSB_PSC_mEE18destroy_deallocateEv', symObjAddr: 0x4CE4, symBinAddr: 0x14508, symSize: 0x4 }
  - { offset: 0xEB017, size: 0x8, addend: 0x0, symName: '__ZNSt3__110__function6__funcIZN8facebook5react12TimerManager13attachGlobalsERNS2_3jsi7RuntimeEE3$_4NS_9allocatorIS8_EEFNS5_5ValueES7_RKSB_PSC_mEE18destroy_deallocateEv', symObjAddr: 0x4CE4, symBinAddr: 0x14508, symSize: 0x4 }
  - { offset: 0xEB04B, size: 0x8, addend: 0x0, symName: '__ZNSt3__110__function6__funcIZN8facebook5react12TimerManager13attachGlobalsERNS2_3jsi7RuntimeEE3$_4NS_9allocatorIS8_EEFNS5_5ValueES7_RKSB_PSC_mEE18destroy_deallocateEv', symObjAddr: 0x4CE4, symBinAddr: 0x14508, symSize: 0x4 }
  - { offset: 0xEB5ED, size: 0x8, addend: 0x0, symName: '__ZNSt3__110__function6__funcIZN8facebook5react12TimerManager13attachGlobalsERNS2_3jsi7RuntimeEE3$_4NS_9allocatorIS8_EEFNS5_5ValueES7_RKSB_PSC_mEEclES7_SD_OSE_Om', symObjAddr: 0x4CE8, symBinAddr: 0x1450C, symSize: 0x354 }
  - { offset: 0xEC489, size: 0x8, addend: 0x0, symName: '__ZNSt3__110__function6__funcIZN8facebook5react12TimerManager13attachGlobalsERNS2_3jsi7RuntimeEE3$_4NS_9allocatorIS8_EEFNS5_5ValueES7_RKSB_PSC_mEEclES7_SD_OSE_Om.cold.1', symObjAddr: 0x5580, symBinAddr: 0x14D94, symSize: 0x4C }
  - { offset: 0xEC5A7, size: 0x8, addend: 0x0, symName: '__ZNKSt3__110__function6__funcIZN8facebook5react12TimerManager13attachGlobalsERNS2_3jsi7RuntimeEE3$_4NS_9allocatorIS8_EEFNS5_5ValueES7_RKSB_PSC_mEE6targetERKSt9type_info', symObjAddr: 0x503C, symBinAddr: 0x14860, symSize: 0x3C }
  - { offset: 0xEC5F4, size: 0x8, addend: 0x0, symName: '__ZNKSt3__110__function6__funcIZN8facebook5react12TimerManager13attachGlobalsERNS2_3jsi7RuntimeEE3$_4NS_9allocatorIS8_EEFNS5_5ValueES7_RKSB_PSC_mEE11target_typeEv', symObjAddr: 0x5078, symBinAddr: 0x1489C, symSize: 0xC }
  - { offset: 0xEC73C, size: 0x8, addend: 0x0, symName: '__ZNSt3__110__function6__funcIZZN8facebook5react12TimerManager13attachGlobalsERNS2_3jsi7RuntimeEENK3$_4clES7_RKNS5_5ValueEPSA_mEUlS7_SB_SC_mE_NS_9allocatorISD_EEFS9_S7_SB_SC_mEED1Ev', symObjAddr: 0x5130, symBinAddr: 0x148A8, symSize: 0x30 }
  - { offset: 0xEC833, size: 0x8, addend: 0x0, symName: '__ZNSt3__110__function6__funcIZZN8facebook5react12TimerManager13attachGlobalsERNS2_3jsi7RuntimeEENK3$_4clES7_RKNS5_5ValueEPSA_mEUlS7_SB_SC_mE_NS_9allocatorISD_EEFS9_S7_SB_SC_mEED0Ev', symObjAddr: 0x5160, symBinAddr: 0x148D8, symSize: 0x30 }
  - { offset: 0xECAC8, size: 0x8, addend: 0x0, symName: '__ZNKSt3__110__function6__funcIZZN8facebook5react12TimerManager13attachGlobalsERNS2_3jsi7RuntimeEENK3$_4clES7_RKNS5_5ValueEPSA_mEUlS7_SB_SC_mE_NS_9allocatorISD_EEFS9_S7_SB_SC_mEE7__cloneEv', symObjAddr: 0x5190, symBinAddr: 0x14908, symSize: 0x50 }
  - { offset: 0xECD6A, size: 0x8, addend: 0x0, symName: '__ZNKSt3__110__function6__funcIZZN8facebook5react12TimerManager13attachGlobalsERNS2_3jsi7RuntimeEENK3$_4clES7_RKNS5_5ValueEPSA_mEUlS7_SB_SC_mE_NS_9allocatorISD_EEFS9_S7_SB_SC_mEE7__cloneEPNS0_6__baseISG_EE', symObjAddr: 0x51E0, symBinAddr: 0x14958, symSize: 0x30 }
  - { offset: 0xECD9F, size: 0x8, addend: 0x0, symName: '__ZNKSt3__110__function6__funcIZZN8facebook5react12TimerManager13attachGlobalsERNS2_3jsi7RuntimeEENK3$_4clES7_RKNS5_5ValueEPSA_mEUlS7_SB_SC_mE_NS_9allocatorISD_EEFS9_S7_SB_SC_mEE7__cloneEPNS0_6__baseISG_EE', symObjAddr: 0x51E0, symBinAddr: 0x14958, symSize: 0x30 }
  - { offset: 0xECDCD, size: 0x8, addend: 0x0, symName: '__ZNKSt3__110__function6__funcIZZN8facebook5react12TimerManager13attachGlobalsERNS2_3jsi7RuntimeEENK3$_4clES7_RKNS5_5ValueEPSA_mEUlS7_SB_SC_mE_NS_9allocatorISD_EEFS9_S7_SB_SC_mEE7__cloneEPNS0_6__baseISG_EE', symObjAddr: 0x51E0, symBinAddr: 0x14958, symSize: 0x30 }
  - { offset: 0xECEF6, size: 0x8, addend: 0x0, symName: '__ZNSt3__110__function6__funcIZZN8facebook5react12TimerManager13attachGlobalsERNS2_3jsi7RuntimeEENK3$_4clES7_RKNS5_5ValueEPSA_mEUlS7_SB_SC_mE_NS_9allocatorISD_EEFS9_S7_SB_SC_mEE7destroyEv', symObjAddr: 0x5210, symBinAddr: 0x14988, symSize: 0x8 }
  - { offset: 0xECFB0, size: 0x8, addend: 0x0, symName: '__ZNSt3__110__function6__funcIZZN8facebook5react12TimerManager13attachGlobalsERNS2_3jsi7RuntimeEENK3$_4clES7_RKNS5_5ValueEPSA_mEUlS7_SB_SC_mE_NS_9allocatorISD_EEFS9_S7_SB_SC_mEE18destroy_deallocateEv', symObjAddr: 0x5218, symBinAddr: 0x14990, symSize: 0x28 }
  - { offset: 0xED239, size: 0x8, addend: 0x0, symName: '__ZNSt3__110__function6__funcIZZN8facebook5react12TimerManager13attachGlobalsERNS2_3jsi7RuntimeEENK3$_4clES7_RKNS5_5ValueEPSA_mEUlS7_SB_SC_mE_NS_9allocatorISD_EEFS9_S7_SB_SC_mEEclES7_SB_OSC_Om', symObjAddr: 0x5240, symBinAddr: 0x149B8, symSize: 0x1F8 }
  - { offset: 0xED8D3, size: 0x8, addend: 0x0, symName: '__ZNKSt3__110__function6__funcIZZN8facebook5react12TimerManager13attachGlobalsERNS2_3jsi7RuntimeEENK3$_4clES7_RKNS5_5ValueEPSA_mEUlS7_SB_SC_mE_NS_9allocatorISD_EEFS9_S7_SB_SC_mEE6targetERKSt9type_info', symObjAddr: 0x5438, symBinAddr: 0x14BB0, symSize: 0x3C }
  - { offset: 0xED920, size: 0x8, addend: 0x0, symName: '__ZNKSt3__110__function6__funcIZZN8facebook5react12TimerManager13attachGlobalsERNS2_3jsi7RuntimeEENK3$_4clES7_RKNS5_5ValueEPSA_mEUlS7_SB_SC_mE_NS_9allocatorISD_EEFS9_S7_SB_SC_mEE11target_typeEv', symObjAddr: 0x5474, symBinAddr: 0x14BEC, symSize: 0xC }
  - { offset: 0xED942, size: 0x8, addend: 0x0, symName: '__ZNSt3__110__function6__funcIZN8facebook5react12TimerManager13attachGlobalsERNS2_3jsi7RuntimeEE3$_5NS_9allocatorIS8_EEFNS5_5ValueES7_RKSB_PSC_mEED1Ev', symObjAddr: 0x5480, symBinAddr: 0x14BF8, symSize: 0x4 }
  - { offset: 0xED96D, size: 0x8, addend: 0x0, symName: '__ZNSt3__110__function6__funcIZN8facebook5react12TimerManager13attachGlobalsERNS2_3jsi7RuntimeEE3$_5NS_9allocatorIS8_EEFNS5_5ValueES7_RKSB_PSC_mEED0Ev', symObjAddr: 0x5484, symBinAddr: 0x14BFC, symSize: 0x4 }
  - { offset: 0xEDA78, size: 0x8, addend: 0x0, symName: '__ZNKSt3__110__function6__funcIZN8facebook5react12TimerManager13attachGlobalsERNS2_3jsi7RuntimeEE3$_5NS_9allocatorIS8_EEFNS5_5ValueES7_RKSB_PSC_mEE7__cloneEv', symObjAddr: 0x5488, symBinAddr: 0x14C00, symSize: 0x34 }
  - { offset: 0xEDC70, size: 0x8, addend: 0x0, symName: '__ZNKSt3__110__function6__funcIZN8facebook5react12TimerManager13attachGlobalsERNS2_3jsi7RuntimeEE3$_5NS_9allocatorIS8_EEFNS5_5ValueES7_RKSB_PSC_mEE7__cloneEPNS0_6__baseISF_EE', symObjAddr: 0x54BC, symBinAddr: 0x14C34, symSize: 0x14 }
  - { offset: 0xEDCA5, size: 0x8, addend: 0x0, symName: '__ZNKSt3__110__function6__funcIZN8facebook5react12TimerManager13attachGlobalsERNS2_3jsi7RuntimeEE3$_5NS_9allocatorIS8_EEFNS5_5ValueES7_RKSB_PSC_mEE7__cloneEPNS0_6__baseISF_EE', symObjAddr: 0x54BC, symBinAddr: 0x14C34, symSize: 0x14 }
  - { offset: 0xEDCD3, size: 0x8, addend: 0x0, symName: '__ZNKSt3__110__function6__funcIZN8facebook5react12TimerManager13attachGlobalsERNS2_3jsi7RuntimeEE3$_5NS_9allocatorIS8_EEFNS5_5ValueES7_RKSB_PSC_mEE7__cloneEPNS0_6__baseISF_EE', symObjAddr: 0x54BC, symBinAddr: 0x14C34, symSize: 0x14 }
  - { offset: 0xEDD01, size: 0x8, addend: 0x0, symName: '__ZNKSt3__110__function6__funcIZN8facebook5react12TimerManager13attachGlobalsERNS2_3jsi7RuntimeEE3$_5NS_9allocatorIS8_EEFNS5_5ValueES7_RKSB_PSC_mEE7__cloneEPNS0_6__baseISF_EE', symObjAddr: 0x54BC, symBinAddr: 0x14C34, symSize: 0x14 }
  - { offset: 0xEDD17, size: 0x8, addend: 0x0, symName: '__ZNKSt3__110__function6__funcIZN8facebook5react12TimerManager13attachGlobalsERNS2_3jsi7RuntimeEE3$_5NS_9allocatorIS8_EEFNS5_5ValueES7_RKSB_PSC_mEE7__cloneEPNS0_6__baseISF_EE', symObjAddr: 0x54BC, symBinAddr: 0x14C34, symSize: 0x14 }
  - { offset: 0xEDD2C, size: 0x8, addend: 0x0, symName: '__ZNSt3__110__function6__funcIZN8facebook5react12TimerManager13attachGlobalsERNS2_3jsi7RuntimeEE3$_5NS_9allocatorIS8_EEFNS5_5ValueES7_RKSB_PSC_mEE7destroyEv', symObjAddr: 0x54D0, symBinAddr: 0x14C48, symSize: 0x4 }
  - { offset: 0xEDD7D, size: 0x8, addend: 0x0, symName: '__ZNSt3__110__function6__funcIZN8facebook5react12TimerManager13attachGlobalsERNS2_3jsi7RuntimeEE3$_5NS_9allocatorIS8_EEFNS5_5ValueES7_RKSB_PSC_mEE18destroy_deallocateEv', symObjAddr: 0x54D4, symBinAddr: 0x14C4C, symSize: 0x4 }
  - { offset: 0xEDDB0, size: 0x8, addend: 0x0, symName: '__ZNSt3__110__function6__funcIZN8facebook5react12TimerManager13attachGlobalsERNS2_3jsi7RuntimeEE3$_5NS_9allocatorIS8_EEFNS5_5ValueES7_RKSB_PSC_mEE18destroy_deallocateEv', symObjAddr: 0x54D4, symBinAddr: 0x14C4C, symSize: 0x4 }
  - { offset: 0xEDDD3, size: 0x8, addend: 0x0, symName: '__ZNSt3__110__function6__funcIZN8facebook5react12TimerManager13attachGlobalsERNS2_3jsi7RuntimeEE3$_5NS_9allocatorIS8_EEFNS5_5ValueES7_RKSB_PSC_mEE18destroy_deallocateEv', symObjAddr: 0x54D4, symBinAddr: 0x14C4C, symSize: 0x4 }
  - { offset: 0xEDE07, size: 0x8, addend: 0x0, symName: '__ZNSt3__110__function6__funcIZN8facebook5react12TimerManager13attachGlobalsERNS2_3jsi7RuntimeEE3$_5NS_9allocatorIS8_EEFNS5_5ValueES7_RKSB_PSC_mEE18destroy_deallocateEv', symObjAddr: 0x54D4, symBinAddr: 0x14C4C, symSize: 0x4 }
  - { offset: 0xEDF3A, size: 0x8, addend: 0x0, symName: '__ZNSt3__110__function6__funcIZN8facebook5react12TimerManager13attachGlobalsERNS2_3jsi7RuntimeEE3$_5NS_9allocatorIS8_EEFNS5_5ValueES7_RKSB_PSC_mEEclES7_SD_OSE_Om', symObjAddr: 0x54D8, symBinAddr: 0x14C50, symSize: 0x60 }
  - { offset: 0xEE15D, size: 0x8, addend: 0x0, symName: '__ZNKSt3__110__function6__funcIZN8facebook5react12TimerManager13attachGlobalsERNS2_3jsi7RuntimeEE3$_5NS_9allocatorIS8_EEFNS5_5ValueES7_RKSB_PSC_mEE6targetERKSt9type_info', symObjAddr: 0x5538, symBinAddr: 0x14CB0, symSize: 0x3C }
  - { offset: 0xEE1AA, size: 0x8, addend: 0x0, symName: '__ZNKSt3__110__function6__funcIZN8facebook5react12TimerManager13attachGlobalsERNS2_3jsi7RuntimeEE3$_5NS_9allocatorIS8_EEFNS5_5ValueES7_RKSB_PSC_mEE11target_typeEv', symObjAddr: 0x5574, symBinAddr: 0x14CEC, symSize: 0xC }
...
