---
triple:          'arm64-apple-darwin'
binary-path:     '/Users/uk-aplatts/Development/InjuryIQ/ios/DerivedData/Build/Intermediates.noindex/ArchiveIntermediates/InjuryIQ/IntermediateBuildFilesPath/UninstalledProducts/iphoneos/reacthermes.framework/reacthermes'
relocations:
  - { offset: 0x33, size: 0x8, addend: 0x0, symName: _reacthermesVersionString, symObjAddr: 0x0, symBinAddr: 0x8BA8, symSize: 0x0 }
  - { offset: 0x67, size: 0x8, addend: 0x0, symName: _reacthermesVersionNumber, symObjAddr: 0x30, symBinAddr: 0x8BD8, symSize: 0x0 }
  - { offset: 0x2B121, size: 0x8, addend: 0x0, symName: __ZNSt3__120__throw_length_errorB8ne200100EPKc, symObjAddr: 0xCC4, symBinAddr: 0x4CC4, symSize: 0x50 }
  - { offset: 0x2B8A8, size: 0x8, addend: 0x0, symName: __ZNSt3__117__call_once_proxyB8ne200100INS_5tupleIJOZN8facebook5react8systraceL31getOrCreateInstrumentsLogHandleEvEUlvE_EEEEEvPv, symObjAddr: 0x1A94, symBinAddr: 0x57B0, symSize: 0x40 }
  - { offset: 0x2BBAD, size: 0x8, addend: 0x0, symName: __ZNSt3__115allocate_sharedB8ne200100IN8facebook3jsi19DecoratedHostObjectENS_9allocatorIS3_EEJRNS2_16RuntimeDecoratorINS2_7RuntimeES7_EENS_10shared_ptrINS2_10HostObjectEEEELi0EEENSA_IT_EERKT0_DpOT1_, symObjAddr: 0x2E98, symBinAddr: 0x6BB4, symSize: 0x60 }
  - { offset: 0x2C696, size: 0x8, addend: 0x0, symName: __ZNSt3__112construct_atB8ne200100IN8facebook3jsi19DecoratedHostObjectEJRNS2_16RuntimeDecoratorINS2_7RuntimeES5_EENS_10shared_ptrINS2_10HostObjectEEEEPS3_EEPT_SD_DpOT0_, symObjAddr: 0x2F8C, symBinAddr: 0x6CA8, symSize: 0x80 }
  - { offset: 0x2CC3A, size: 0x8, addend: 0x0, symName: __ZNSt3__125__throw_bad_function_callB8ne200100Ev, symObjAddr: 0x3528, symBinAddr: 0x7080, symSize: 0x34 }
  - { offset: 0x2E92D, size: 0x8, addend: 0x0, symName: __ZN8facebook5react8systrace20instrumentsLogHandleE, symObjAddr: 0x4718, symBinAddr: 0x140E0, symSize: 0x0 }
  - { offset: 0x2E949, size: 0x8, addend: 0x0, symName: __ZZN8facebook5react8systraceL31getOrCreateInstrumentsLogHandleEvE4flag, symObjAddr: 0x16A398, symBinAddr: 0x140E8, symSize: 0x0 }
  - { offset: 0x3534F, size: 0x8, addend: 0x0, symName: __ZN8facebook5react12TraceSectionD2Ev, symObjAddr: 0xD38, symBinAddr: 0x4D38, symSize: 0xC8 }
  - { offset: 0x3548F, size: 0x8, addend: 0x0, symName: __ZN8facebook5react12TraceSectionC2IJEEEPKcDpOT_, symObjAddr: 0x1918, symBinAddr: 0x5634, symSize: 0x17C }
  - { offset: 0x3EFEE, size: 0x8, addend: 0x0, symName: __ZN8facebook5react21HermesExecutorFactory17setEnableDebuggerEb, symObjAddr: 0x0, symBinAddr: 0x4000, symSize: 0x8 }
  - { offset: 0x3F021, size: 0x8, addend: 0x0, symName: __ZN8facebook5react21HermesExecutorFactory15setDebuggerNameERKNSt3__112basic_stringIcNS2_11char_traitsIcEENS2_9allocatorIcEEEE, symObjAddr: 0x8, symBinAddr: 0x4008, symSize: 0x8 }
  - { offset: 0x3FD68, size: 0x8, addend: 0x0, symName: __ZN8facebook5react21HermesExecutorFactory16createJSExecutorENSt3__110shared_ptrINS0_16ExecutorDelegateEEENS3_INS0_18MessageQueueThreadEEE, symObjAddr: 0x10, symBinAddr: 0x4010, symSize: 0x4D0 }
  - { offset: 0x411F5, size: 0x8, addend: 0x0, symName: __ZNK8facebook3jsi6Object11setPropertyIRA7_KcEEvRNS0_7RuntimeEPS3_OT_, symObjAddr: 0x4E0, symBinAddr: 0x44E0, symSize: 0xA4 }
  - { offset: 0x4142E, size: 0x8, addend: 0x0, symName: __ZN8facebook5react14HermesExecutorC2ENSt3__110shared_ptrINS_3jsi7RuntimeEEENS3_INS0_16ExecutorDelegateEEENS3_INS0_18MessageQueueThreadEEERKNS2_8functionIFvRKNSB_IFvvEEENSB_IFNS2_12basic_stringIcNS2_11char_traitsIcEENS2_9allocatorIcEEEEvEEEEEENSB_IFvRS5_EEERNS_6hermes13HermesRuntimeE, symObjAddr: 0x884, symBinAddr: 0x4884, symSize: 0x218 }
  - { offset: 0x41CAF, size: 0x8, addend: 0x0, symName: __ZNSt3__110shared_ptrIN8facebook5react12_GLOBAL__N_116DecoratedRuntimeEED1B8ne200100Ev, symObjAddr: 0x584, symBinAddr: 0x4584, symSize: 0x58 }
  - { offset: 0x41E03, size: 0x8, addend: 0x0, symName: __ZNK8facebook3jsi6Object11setPropertyIRA7_KcEEvRNS0_7RuntimeERKNS0_6StringEOT_, symObjAddr: 0x369C, symBinAddr: 0x719C, symSize: 0xA0 }
  - { offset: 0x42435, size: 0x8, addend: 0x0, symName: __ZN8facebook5react21HermesExecutorFactory20defaultRuntimeConfigEv, symObjAddr: 0x5DC, symBinAddr: 0x45DC, symSize: 0x1EC }
  - { offset: 0x42A20, size: 0x8, addend: 0x0, symName: __ZN6hermes2vm13RuntimeConfig7BuilderC2Ev, symObjAddr: 0xE00, symBinAddr: 0x4E00, symSize: 0x124 }
  - { offset: 0x42DAD, size: 0x8, addend: 0x0, symName: __ZN6hermes2vm8GCConfigC2ERKS1_, symObjAddr: 0x11A0, symBinAddr: 0x51A0, symSize: 0x124 }
  - { offset: 0x4321B, size: 0x8, addend: 0x0, symName: __ZN6hermes2vm13RuntimeConfig7BuilderD1Ev, symObjAddr: 0x7C8, symBinAddr: 0x47C8, symSize: 0xBC }
  - { offset: 0x437E4, size: 0x8, addend: 0x0, symName: __ZN8facebook5react14HermesExecutorC1ENSt3__110shared_ptrINS_3jsi7RuntimeEEENS3_INS0_16ExecutorDelegateEEENS3_INS0_18MessageQueueThreadEEERKNS2_8functionIFvRKNSB_IFvvEEENSB_IFNS2_12basic_stringIcNS2_11char_traitsIcEENS2_9allocatorIcEEEEvEEEEEENSB_IFvRS5_EEERNS_6hermes13HermesRuntimeE, symObjAddr: 0xA9C, symBinAddr: 0x4A9C, symSize: 0x4 }
  - { offset: 0x4383C, size: 0x8, addend: 0x0, symName: __ZN8facebook5react14HermesExecutorC1ENSt3__110shared_ptrINS_3jsi7RuntimeEEENS3_INS0_16ExecutorDelegateEEENS3_INS0_18MessageQueueThreadEEERKNS2_8functionIFvRKNSB_IFvvEEENSB_IFNS2_12basic_stringIcNS2_11char_traitsIcEENS2_9allocatorIcEEEEvEEEEEENSB_IFvRS5_EEERNS_6hermes13HermesRuntimeE, symObjAddr: 0xA9C, symBinAddr: 0x4A9C, symSize: 0x4 }
  - { offset: 0x439BA, size: 0x8, addend: 0x0, symName: __ZN8facebook5react14HermesExecutor24getRuntimeTargetDelegateEv, symObjAddr: 0xAA0, symBinAddr: 0x4AA0, symSize: 0xE0 }
  - { offset: 0x43CA9, size: 0x8, addend: 0x0, symName: __ZN8facebook5react21HermesExecutorFactoryD1Ev, symObjAddr: 0xB80, symBinAddr: 0x4B80, symSize: 0x4 }
  - { offset: 0x43CCD, size: 0x8, addend: 0x0, symName: __ZN8facebook5react21HermesExecutorFactoryD1Ev, symObjAddr: 0xB80, symBinAddr: 0x4B80, symSize: 0x4 }
  - { offset: 0x43CE1, size: 0x8, addend: 0x0, symName: __ZN8facebook5react21HermesExecutorFactoryD2Ev, symObjAddr: 0x14C8, symBinAddr: 0x53A8, symSize: 0x130 }
  - { offset: 0x44329, size: 0x8, addend: 0x0, symName: __ZN8facebook5react21HermesExecutorFactoryD0Ev, symObjAddr: 0xB84, symBinAddr: 0x4B84, symSize: 0x14 }
  - { offset: 0x44389, size: 0x8, addend: 0x0, symName: __ZN8facebook5react10JSExecutor7destroyEv, symObjAddr: 0xB98, symBinAddr: 0x4B98, symSize: 0x4 }
  - { offset: 0x4446A, size: 0x8, addend: 0x0, symName: __ZN8facebook5react14HermesExecutorD1Ev, symObjAddr: 0xB9C, symBinAddr: 0x4B9C, symSize: 0x80 }
  - { offset: 0x4464E, size: 0x8, addend: 0x0, symName: __ZN8facebook5react11JSIExecutorD2Ev, symObjAddr: 0x15F8, symBinAddr: 0x54D8, symSize: 0x15C }
  - { offset: 0x45079, size: 0x8, addend: 0x0, symName: __ZN8facebook5react14HermesExecutorD0Ev, symObjAddr: 0xC1C, symBinAddr: 0x4C1C, symSize: 0x84 }
  - { offset: 0x4528B, size: 0x8, addend: 0x0, symName: __ZNSt3__112basic_stringIcNS_11char_traitsIcEENS_9allocatorIcEEE20__throw_length_errorB8ne200100Ev, symObjAddr: 0xCB0, symBinAddr: 0x4CB0, symSize: 0x14 }
  - { offset: 0x452A3, size: 0x8, addend: 0x0, symName: __ZNSt3__120__throw_length_errorB8ne200100EPKc, symObjAddr: 0xCC4, symBinAddr: 0x4CC4, symSize: 0x50 }
  - { offset: 0x452AE, size: 0x8, addend: 0x0, symName: __ZNSt12length_errorC1B8ne200100EPKc, symObjAddr: 0xD14, symBinAddr: 0x4D14, symSize: 0x24 }
  - { offset: 0x456BD, size: 0x8, addend: 0x0, symName: __ZNSt3__112basic_stringIcNS_11char_traitsIcEENS_9allocatorIcEEEC2B8ne200100ILi0EEEPKc, symObjAddr: 0xFD8, symBinAddr: 0x4FD8, symSize: 0xA4 }
  - { offset: 0x45941, size: 0x8, addend: 0x0, symName: __ZNSt3__110shared_ptrIN6hermes2vm12CrashManagerEEC2B8ne200100INS2_15NopCrashManagerELi0EEEPT_, symObjAddr: 0x107C, symBinAddr: 0x507C, symSize: 0x64 }
  - { offset: 0x45952, size: 0x8, addend: 0x0, symName: __ZNSt3__110shared_ptrIN6hermes2vm12CrashManagerEEC2B8ne200100INS2_15NopCrashManagerELi0EEEPT_, symObjAddr: 0x107C, symBinAddr: 0x507C, symSize: 0x64 }
  - { offset: 0x45AA2, size: 0x8, addend: 0x0, symName: __ZN6hermes2vm8GCConfigD1Ev, symObjAddr: 0xF24, symBinAddr: 0x4F24, symSize: 0xB4 }
  - { offset: 0x460E9, size: 0x8, addend: 0x0, symName: __ZNSt3__120__shared_ptr_pointerIPN6hermes2vm15NopCrashManagerENS_10shared_ptrINS2_12CrashManagerEE27__shared_ptr_default_deleteIS6_S3_EENS_9allocatorIS3_EEED1Ev, symObjAddr: 0x10E0, symBinAddr: 0x50E0, symSize: 0x4 }
  - { offset: 0x4610D, size: 0x8, addend: 0x0, symName: __ZNSt3__120__shared_ptr_pointerIPN6hermes2vm15NopCrashManagerENS_10shared_ptrINS2_12CrashManagerEE27__shared_ptr_default_deleteIS6_S3_EENS_9allocatorIS3_EEED1Ev, symObjAddr: 0x10E0, symBinAddr: 0x50E0, symSize: 0x4 }
  - { offset: 0x46144, size: 0x8, addend: 0x0, symName: __ZNSt3__120__shared_ptr_pointerIPN6hermes2vm15NopCrashManagerENS_10shared_ptrINS2_12CrashManagerEE27__shared_ptr_default_deleteIS6_S3_EENS_9allocatorIS3_EEED0Ev, symObjAddr: 0x10E4, symBinAddr: 0x50E4, symSize: 0x14 }
  - { offset: 0x461AB, size: 0x8, addend: 0x0, symName: __ZNSt3__120__shared_ptr_pointerIPN6hermes2vm15NopCrashManagerENS_10shared_ptrINS2_12CrashManagerEE27__shared_ptr_default_deleteIS6_S3_EENS_9allocatorIS3_EEE16__on_zero_sharedEv, symObjAddr: 0x10F8, symBinAddr: 0x50F8, symSize: 0x20 }
  - { offset: 0x461F0, size: 0x8, addend: 0x0, symName: __ZNKSt3__120__shared_ptr_pointerIPN6hermes2vm15NopCrashManagerENS_10shared_ptrINS2_12CrashManagerEE27__shared_ptr_default_deleteIS6_S3_EENS_9allocatorIS3_EEE13__get_deleterERKSt9type_info, symObjAddr: 0x1118, symBinAddr: 0x5118, symSize: 0x38 }
  - { offset: 0x4623E, size: 0x8, addend: 0x0, symName: __ZNKSt9type_infoeqB8ne200100ERKS_, symObjAddr: 0x1154, symBinAddr: 0x5154, symSize: 0x4C }
  - { offset: 0x46329, size: 0x8, addend: 0x0, symName: __ZNSt3__120__shared_ptr_pointerIPN6hermes2vm15NopCrashManagerENS_10shared_ptrINS2_12CrashManagerEE27__shared_ptr_default_deleteIS6_S3_EENS_9allocatorIS3_EEE21__on_zero_shared_weakEv, symObjAddr: 0x1150, symBinAddr: 0x5150, symSize: 0x4 }
  - { offset: 0x4635D, size: 0x8, addend: 0x0, symName: __ZNSt3__120__shared_ptr_pointerIPN6hermes2vm15NopCrashManagerENS_10shared_ptrINS2_12CrashManagerEE27__shared_ptr_default_deleteIS6_S3_EENS_9allocatorIS3_EEE21__on_zero_shared_weakEv, symObjAddr: 0x1150, symBinAddr: 0x5150, symSize: 0x4 }
  - { offset: 0x46381, size: 0x8, addend: 0x0, symName: __ZNSt3__120__shared_ptr_pointerIPN6hermes2vm15NopCrashManagerENS_10shared_ptrINS2_12CrashManagerEE27__shared_ptr_default_deleteIS6_S3_EENS_9allocatorIS3_EEE21__on_zero_shared_weakEv, symObjAddr: 0x1150, symBinAddr: 0x5150, symSize: 0x4 }
  - { offset: 0x463B8, size: 0x8, addend: 0x0, symName: __ZNSt3__120__shared_ptr_pointerIPN6hermes2vm15NopCrashManagerENS_10shared_ptrINS2_12CrashManagerEE27__shared_ptr_default_deleteIS6_S3_EENS_9allocatorIS3_EEE21__on_zero_shared_weakEv, symObjAddr: 0x1150, symBinAddr: 0x5150, symSize: 0x4 }
  - { offset: 0x4663C, size: 0x8, addend: 0x0, symName: __ZNSt3__112basic_stringIcNS_11char_traitsIcEENS_9allocatorIcEEE25__init_copy_ctor_externalEPKcm, symObjAddr: 0x12C4, symBinAddr: 0x52C4, symSize: 0x80 }
  - { offset: 0x4682A, size: 0x8, addend: 0x0, symName: __ZNSt3__110__function12__value_funcIFvRN6hermes2vm17GCTripwireContextEEEC2B8ne200100ERKS7_, symObjAddr: 0x1344, symBinAddr: 0x5344, symSize: 0x64 }
  - { offset: 0x46835, size: 0x8, addend: 0x0, symName: __ZNSt3__110__function12__value_funcIFvRN6hermes2vm17GCTripwireContextEEEC2B8ne200100ERKS7_, symObjAddr: 0x1344, symBinAddr: 0x5344, symSize: 0x64 }
  - { offset: 0x470F1, size: 0x8, addend: 0x0, symName: __ZNSt3__120__shared_ptr_emplaceIN8facebook5react12_GLOBAL__N_116DecoratedRuntimeENS_9allocatorIS4_EEED1Ev, symObjAddr: 0x1AD4, symBinAddr: 0x57F0, symSize: 0x10 }
  - { offset: 0x47115, size: 0x8, addend: 0x0, symName: __ZNSt3__120__shared_ptr_emplaceIN8facebook5react12_GLOBAL__N_116DecoratedRuntimeENS_9allocatorIS4_EEED1Ev, symObjAddr: 0x1AD4, symBinAddr: 0x57F0, symSize: 0x10 }
  - { offset: 0x4714C, size: 0x8, addend: 0x0, symName: __ZNSt3__120__shared_ptr_emplaceIN8facebook5react12_GLOBAL__N_116DecoratedRuntimeENS_9allocatorIS4_EEED0Ev, symObjAddr: 0x1AE4, symBinAddr: 0x5800, symSize: 0x20 }
  - { offset: 0x4721D, size: 0x8, addend: 0x0, symName: __ZNSt3__120__shared_ptr_emplaceIN8facebook5react12_GLOBAL__N_116DecoratedRuntimeENS_9allocatorIS4_EEE16__on_zero_sharedEv, symObjAddr: 0x1B04, symBinAddr: 0x5820, symSize: 0xC }
  - { offset: 0x47247, size: 0x8, addend: 0x0, symName: __ZNSt3__120__shared_ptr_emplaceIN8facebook5react12_GLOBAL__N_116DecoratedRuntimeENS_9allocatorIS4_EEE16__on_zero_sharedEv, symObjAddr: 0x1B04, symBinAddr: 0x5820, symSize: 0xC }
  - { offset: 0x47266, size: 0x8, addend: 0x0, symName: __ZNSt3__120__shared_ptr_emplaceIN8facebook5react12_GLOBAL__N_116DecoratedRuntimeENS_9allocatorIS4_EEE16__on_zero_sharedEv, symObjAddr: 0x1B04, symBinAddr: 0x5820, symSize: 0xC }
  - { offset: 0x47285, size: 0x8, addend: 0x0, symName: __ZNSt3__120__shared_ptr_emplaceIN8facebook5react12_GLOBAL__N_116DecoratedRuntimeENS_9allocatorIS4_EEE16__on_zero_sharedEv, symObjAddr: 0x1B04, symBinAddr: 0x5820, symSize: 0xC }
  - { offset: 0x472B1, size: 0x8, addend: 0x0, symName: __ZNSt3__120__shared_ptr_emplaceIN8facebook5react12_GLOBAL__N_116DecoratedRuntimeENS_9allocatorIS4_EEE21__on_zero_shared_weakEv, symObjAddr: 0x1B10, symBinAddr: 0x582C, symSize: 0x4 }
  - { offset: 0x472E5, size: 0x8, addend: 0x0, symName: __ZNSt3__120__shared_ptr_emplaceIN8facebook5react12_GLOBAL__N_116DecoratedRuntimeENS_9allocatorIS4_EEE21__on_zero_shared_weakEv, symObjAddr: 0x1B10, symBinAddr: 0x582C, symSize: 0x4 }
  - { offset: 0x47309, size: 0x8, addend: 0x0, symName: __ZNSt3__120__shared_ptr_emplaceIN8facebook5react12_GLOBAL__N_116DecoratedRuntimeENS_9allocatorIS4_EEE21__on_zero_shared_weakEv, symObjAddr: 0x1B10, symBinAddr: 0x582C, symSize: 0x4 }
  - { offset: 0x4732E, size: 0x8, addend: 0x0, symName: __ZNSt3__120__shared_ptr_emplaceIN8facebook5react12_GLOBAL__N_116DecoratedRuntimeENS_9allocatorIS4_EEE21__on_zero_shared_weakEv, symObjAddr: 0x1B10, symBinAddr: 0x582C, symSize: 0x4 }
  - { offset: 0x47365, size: 0x8, addend: 0x0, symName: __ZNSt3__120__shared_ptr_emplaceIN8facebook5react12_GLOBAL__N_116DecoratedRuntimeENS_9allocatorIS4_EEE21__on_zero_shared_weakEv, symObjAddr: 0x1B10, symBinAddr: 0x582C, symSize: 0x4 }
  - { offset: 0x473C6, size: 0x8, addend: 0x0, symName: __ZN8facebook3jsi20WithRuntimeDecoratorINS_5react12_GLOBAL__N_115ReentrancyCheckENS0_7RuntimeES5_E13castInterfaceERKNS0_4UUIDE, symObjAddr: 0x1B14, symBinAddr: 0x5830, symSize: 0x10 }
  - { offset: 0x4740C, size: 0x8, addend: 0x0, symName: __ZN8facebook3jsi20WithRuntimeDecoratorINS_5react12_GLOBAL__N_115ReentrancyCheckENS0_7RuntimeES5_E13castInterfaceERKNS0_4UUIDE, symObjAddr: 0x1B14, symBinAddr: 0x5830, symSize: 0x10 }
  - { offset: 0x47434, size: 0x8, addend: 0x0, symName: __ZN8facebook3jsi20WithRuntimeDecoratorINS_5react12_GLOBAL__N_115ReentrancyCheckENS0_7RuntimeES5_E13castInterfaceERKNS0_4UUIDE, symObjAddr: 0x1B14, symBinAddr: 0x5830, symSize: 0x10 }
  - { offset: 0x4747F, size: 0x8, addend: 0x0, symName: __ZN8facebook5react12_GLOBAL__N_116DecoratedRuntimeD1Ev, symObjAddr: 0x1B24, symBinAddr: 0x5840, symSize: 0x34 }
  - { offset: 0x47540, size: 0x8, addend: 0x0, symName: __ZN8facebook5react12_GLOBAL__N_116DecoratedRuntimeD0Ev, symObjAddr: 0x1B58, symBinAddr: 0x5874, symSize: 0x38 }
  - { offset: 0x47635, size: 0x8, addend: 0x0, symName: __ZN8facebook3jsi20WithRuntimeDecoratorINS_5react12_GLOBAL__N_115ReentrancyCheckENS0_7RuntimeES5_E18evaluateJavaScriptERKNSt3__110shared_ptrIKNS0_6BufferEEERKNS7_12basic_stringIcNS7_11char_traitsIcEENS7_9allocatorIcEEEE, symObjAddr: 0x1B90, symBinAddr: 0x58AC, symSize: 0x10 }
  - { offset: 0x4768A, size: 0x8, addend: 0x0, symName: __ZN8facebook3jsi20WithRuntimeDecoratorINS_5react12_GLOBAL__N_115ReentrancyCheckENS0_7RuntimeES5_E18evaluateJavaScriptERKNSt3__110shared_ptrIKNS0_6BufferEEERKNS7_12basic_stringIcNS7_11char_traitsIcEENS7_9allocatorIcEEEE, symObjAddr: 0x1B90, symBinAddr: 0x58AC, symSize: 0x10 }
  - { offset: 0x476BA, size: 0x8, addend: 0x0, symName: __ZN8facebook3jsi20WithRuntimeDecoratorINS_5react12_GLOBAL__N_115ReentrancyCheckENS0_7RuntimeES5_E18evaluateJavaScriptERKNSt3__110shared_ptrIKNS0_6BufferEEERKNS7_12basic_stringIcNS7_11char_traitsIcEENS7_9allocatorIcEEEE, symObjAddr: 0x1B90, symBinAddr: 0x58AC, symSize: 0x10 }
  - { offset: 0x47749, size: 0x8, addend: 0x0, symName: __ZN8facebook3jsi20WithRuntimeDecoratorINS_5react12_GLOBAL__N_115ReentrancyCheckENS0_7RuntimeES5_E17prepareJavaScriptERKNSt3__110shared_ptrIKNS0_6BufferEEENS7_12basic_stringIcNS7_11char_traitsIcEENS7_9allocatorIcEEEE, symObjAddr: 0x1BA0, symBinAddr: 0x58BC, symSize: 0x6C }
  - { offset: 0x47A35, size: 0x8, addend: 0x0, symName: __ZN8facebook3jsi16RuntimeDecoratorINS0_7RuntimeES2_E17prepareJavaScriptERKNSt3__110shared_ptrIKNS0_6BufferEEENS4_12basic_stringIcNS4_11char_traitsIcEENS4_9allocatorIcEEEE, symObjAddr: 0x2980, symBinAddr: 0x669C, symSize: 0x78 }
  - { offset: 0x47D45, size: 0x8, addend: 0x0, symName: __ZN8facebook3jsi20WithRuntimeDecoratorINS_5react12_GLOBAL__N_115ReentrancyCheckENS0_7RuntimeES5_E26evaluatePreparedJavaScriptERKNSt3__110shared_ptrIKNS0_18PreparedJavaScriptEEE, symObjAddr: 0x1C0C, symBinAddr: 0x5928, symSize: 0x10 }
  - { offset: 0x47D8B, size: 0x8, addend: 0x0, symName: __ZN8facebook3jsi20WithRuntimeDecoratorINS_5react12_GLOBAL__N_115ReentrancyCheckENS0_7RuntimeES5_E26evaluatePreparedJavaScriptERKNSt3__110shared_ptrIKNS0_18PreparedJavaScriptEEE, symObjAddr: 0x1C0C, symBinAddr: 0x5928, symSize: 0x10 }
  - { offset: 0x47DB3, size: 0x8, addend: 0x0, symName: __ZN8facebook3jsi20WithRuntimeDecoratorINS_5react12_GLOBAL__N_115ReentrancyCheckENS0_7RuntimeES5_E26evaluatePreparedJavaScriptERKNSt3__110shared_ptrIKNS0_18PreparedJavaScriptEEE, symObjAddr: 0x1C0C, symBinAddr: 0x5928, symSize: 0x10 }
  - { offset: 0x47E0E, size: 0x8, addend: 0x0, symName: __ZN8facebook3jsi20WithRuntimeDecoratorINS_5react12_GLOBAL__N_115ReentrancyCheckENS0_7RuntimeES5_E14queueMicrotaskERKNS0_8FunctionE, symObjAddr: 0x1C1C, symBinAddr: 0x5938, symSize: 0x10 }
  - { offset: 0x47E54, size: 0x8, addend: 0x0, symName: __ZN8facebook3jsi20WithRuntimeDecoratorINS_5react12_GLOBAL__N_115ReentrancyCheckENS0_7RuntimeES5_E14queueMicrotaskERKNS0_8FunctionE, symObjAddr: 0x1C1C, symBinAddr: 0x5938, symSize: 0x10 }
  - { offset: 0x47E7C, size: 0x8, addend: 0x0, symName: __ZN8facebook3jsi20WithRuntimeDecoratorINS_5react12_GLOBAL__N_115ReentrancyCheckENS0_7RuntimeES5_E14queueMicrotaskERKNS0_8FunctionE, symObjAddr: 0x1C1C, symBinAddr: 0x5938, symSize: 0x10 }
  - { offset: 0x47ECF, size: 0x8, addend: 0x0, symName: __ZN8facebook3jsi20WithRuntimeDecoratorINS_5react12_GLOBAL__N_115ReentrancyCheckENS0_7RuntimeES5_E15drainMicrotasksEi, symObjAddr: 0x1C2C, symBinAddr: 0x5948, symSize: 0x10 }
  - { offset: 0x47F15, size: 0x8, addend: 0x0, symName: __ZN8facebook3jsi20WithRuntimeDecoratorINS_5react12_GLOBAL__N_115ReentrancyCheckENS0_7RuntimeES5_E15drainMicrotasksEi, symObjAddr: 0x1C2C, symBinAddr: 0x5948, symSize: 0x10 }
  - { offset: 0x47F3D, size: 0x8, addend: 0x0, symName: __ZN8facebook3jsi20WithRuntimeDecoratorINS_5react12_GLOBAL__N_115ReentrancyCheckENS0_7RuntimeES5_E15drainMicrotasksEi, symObjAddr: 0x1C2C, symBinAddr: 0x5948, symSize: 0x10 }
  - { offset: 0x47F84, size: 0x8, addend: 0x0, symName: __ZN8facebook3jsi20WithRuntimeDecoratorINS_5react12_GLOBAL__N_115ReentrancyCheckENS0_7RuntimeES5_E6globalEv, symObjAddr: 0x1C3C, symBinAddr: 0x5958, symSize: 0x10 }
  - { offset: 0x47FBB, size: 0x8, addend: 0x0, symName: __ZN8facebook3jsi20WithRuntimeDecoratorINS_5react12_GLOBAL__N_115ReentrancyCheckENS0_7RuntimeES5_E6globalEv, symObjAddr: 0x1C3C, symBinAddr: 0x5958, symSize: 0x10 }
  - { offset: 0x47FDB, size: 0x8, addend: 0x0, symName: __ZN8facebook3jsi20WithRuntimeDecoratorINS_5react12_GLOBAL__N_115ReentrancyCheckENS0_7RuntimeES5_E6globalEv, symObjAddr: 0x1C3C, symBinAddr: 0x5958, symSize: 0x10 }
  - { offset: 0x48022, size: 0x8, addend: 0x0, symName: __ZN8facebook3jsi20WithRuntimeDecoratorINS_5react12_GLOBAL__N_115ReentrancyCheckENS0_7RuntimeES5_E11descriptionEv, symObjAddr: 0x1C4C, symBinAddr: 0x5968, symSize: 0x10 }
  - { offset: 0x48059, size: 0x8, addend: 0x0, symName: __ZN8facebook3jsi20WithRuntimeDecoratorINS_5react12_GLOBAL__N_115ReentrancyCheckENS0_7RuntimeES5_E11descriptionEv, symObjAddr: 0x1C4C, symBinAddr: 0x5968, symSize: 0x10 }
  - { offset: 0x48079, size: 0x8, addend: 0x0, symName: __ZN8facebook3jsi20WithRuntimeDecoratorINS_5react12_GLOBAL__N_115ReentrancyCheckENS0_7RuntimeES5_E11descriptionEv, symObjAddr: 0x1C4C, symBinAddr: 0x5968, symSize: 0x10 }
  - { offset: 0x480C0, size: 0x8, addend: 0x0, symName: __ZN8facebook3jsi20WithRuntimeDecoratorINS_5react12_GLOBAL__N_115ReentrancyCheckENS0_7RuntimeES5_E13isInspectableEv, symObjAddr: 0x1C5C, symBinAddr: 0x5978, symSize: 0x10 }
  - { offset: 0x480F7, size: 0x8, addend: 0x0, symName: __ZN8facebook3jsi20WithRuntimeDecoratorINS_5react12_GLOBAL__N_115ReentrancyCheckENS0_7RuntimeES5_E13isInspectableEv, symObjAddr: 0x1C5C, symBinAddr: 0x5978, symSize: 0x10 }
  - { offset: 0x48117, size: 0x8, addend: 0x0, symName: __ZN8facebook3jsi20WithRuntimeDecoratorINS_5react12_GLOBAL__N_115ReentrancyCheckENS0_7RuntimeES5_E13isInspectableEv, symObjAddr: 0x1C5C, symBinAddr: 0x5978, symSize: 0x10 }
  - { offset: 0x48155, size: 0x8, addend: 0x0, symName: __ZN8facebook3jsi20WithRuntimeDecoratorINS_5react12_GLOBAL__N_115ReentrancyCheckENS0_7RuntimeES5_E15instrumentationEv, symObjAddr: 0x1C6C, symBinAddr: 0x5988, symSize: 0x8 }
  - { offset: 0x4818C, size: 0x8, addend: 0x0, symName: __ZN8facebook3jsi20WithRuntimeDecoratorINS_5react12_GLOBAL__N_115ReentrancyCheckENS0_7RuntimeES5_E15instrumentationEv, symObjAddr: 0x1C6C, symBinAddr: 0x5988, symSize: 0x8 }
  - { offset: 0x481E5, size: 0x8, addend: 0x0, symName: __ZN8facebook3jsi20WithRuntimeDecoratorINS_5react12_GLOBAL__N_115ReentrancyCheckENS0_7RuntimeES5_E18setRuntimeDataImplERKNS0_4UUIDEPKvPFvSB_E, symObjAddr: 0x1C74, symBinAddr: 0x5990, symSize: 0x10 }
  - { offset: 0x48249, size: 0x8, addend: 0x0, symName: __ZN8facebook3jsi20WithRuntimeDecoratorINS_5react12_GLOBAL__N_115ReentrancyCheckENS0_7RuntimeES5_E18setRuntimeDataImplERKNS0_4UUIDEPKvPFvSB_E, symObjAddr: 0x1C74, symBinAddr: 0x5990, symSize: 0x10 }
  - { offset: 0x482C7, size: 0x8, addend: 0x0, symName: __ZN8facebook3jsi20WithRuntimeDecoratorINS_5react12_GLOBAL__N_115ReentrancyCheckENS0_7RuntimeES5_E18getRuntimeDataImplERKNS0_4UUIDE, symObjAddr: 0x1C84, symBinAddr: 0x59A0, symSize: 0x10 }
  - { offset: 0x4830D, size: 0x8, addend: 0x0, symName: __ZN8facebook3jsi20WithRuntimeDecoratorINS_5react12_GLOBAL__N_115ReentrancyCheckENS0_7RuntimeES5_E18getRuntimeDataImplERKNS0_4UUIDE, symObjAddr: 0x1C84, symBinAddr: 0x59A0, symSize: 0x10 }
  - { offset: 0x4836A, size: 0x8, addend: 0x0, symName: __ZN8facebook3jsi20WithRuntimeDecoratorINS_5react12_GLOBAL__N_115ReentrancyCheckENS0_7RuntimeES5_E11cloneSymbolEPKNS5_12PointerValueE, symObjAddr: 0x1C94, symBinAddr: 0x59B0, symSize: 0x10 }
  - { offset: 0x483B0, size: 0x8, addend: 0x0, symName: __ZN8facebook3jsi20WithRuntimeDecoratorINS_5react12_GLOBAL__N_115ReentrancyCheckENS0_7RuntimeES5_E11cloneSymbolEPKNS5_12PointerValueE, symObjAddr: 0x1C94, symBinAddr: 0x59B0, symSize: 0x10 }
  - { offset: 0x4840D, size: 0x8, addend: 0x0, symName: __ZN8facebook3jsi20WithRuntimeDecoratorINS_5react12_GLOBAL__N_115ReentrancyCheckENS0_7RuntimeES5_E11cloneBigIntEPKNS5_12PointerValueE, symObjAddr: 0x1CA4, symBinAddr: 0x59C0, symSize: 0x10 }
  - { offset: 0x48453, size: 0x8, addend: 0x0, symName: __ZN8facebook3jsi20WithRuntimeDecoratorINS_5react12_GLOBAL__N_115ReentrancyCheckENS0_7RuntimeES5_E11cloneBigIntEPKNS5_12PointerValueE, symObjAddr: 0x1CA4, symBinAddr: 0x59C0, symSize: 0x10 }
  - { offset: 0x484B0, size: 0x8, addend: 0x0, symName: __ZN8facebook3jsi20WithRuntimeDecoratorINS_5react12_GLOBAL__N_115ReentrancyCheckENS0_7RuntimeES5_E11cloneStringEPKNS5_12PointerValueE, symObjAddr: 0x1CB4, symBinAddr: 0x59D0, symSize: 0x10 }
  - { offset: 0x484F6, size: 0x8, addend: 0x0, symName: __ZN8facebook3jsi20WithRuntimeDecoratorINS_5react12_GLOBAL__N_115ReentrancyCheckENS0_7RuntimeES5_E11cloneStringEPKNS5_12PointerValueE, symObjAddr: 0x1CB4, symBinAddr: 0x59D0, symSize: 0x10 }
  - { offset: 0x48553, size: 0x8, addend: 0x0, symName: __ZN8facebook3jsi20WithRuntimeDecoratorINS_5react12_GLOBAL__N_115ReentrancyCheckENS0_7RuntimeES5_E11cloneObjectEPKNS5_12PointerValueE, symObjAddr: 0x1CC4, symBinAddr: 0x59E0, symSize: 0x10 }
  - { offset: 0x48599, size: 0x8, addend: 0x0, symName: __ZN8facebook3jsi20WithRuntimeDecoratorINS_5react12_GLOBAL__N_115ReentrancyCheckENS0_7RuntimeES5_E11cloneObjectEPKNS5_12PointerValueE, symObjAddr: 0x1CC4, symBinAddr: 0x59E0, symSize: 0x10 }
  - { offset: 0x485F6, size: 0x8, addend: 0x0, symName: __ZN8facebook3jsi20WithRuntimeDecoratorINS_5react12_GLOBAL__N_115ReentrancyCheckENS0_7RuntimeES5_E15clonePropNameIDEPKNS5_12PointerValueE, symObjAddr: 0x1CD4, symBinAddr: 0x59F0, symSize: 0x10 }
  - { offset: 0x4863C, size: 0x8, addend: 0x0, symName: __ZN8facebook3jsi20WithRuntimeDecoratorINS_5react12_GLOBAL__N_115ReentrancyCheckENS0_7RuntimeES5_E15clonePropNameIDEPKNS5_12PointerValueE, symObjAddr: 0x1CD4, symBinAddr: 0x59F0, symSize: 0x10 }
  - { offset: 0x486A5, size: 0x8, addend: 0x0, symName: __ZN8facebook3jsi20WithRuntimeDecoratorINS_5react12_GLOBAL__N_115ReentrancyCheckENS0_7RuntimeES5_E25createPropNameIDFromAsciiEPKcm, symObjAddr: 0x1CE4, symBinAddr: 0x5A00, symSize: 0x10 }
  - { offset: 0x486FA, size: 0x8, addend: 0x0, symName: __ZN8facebook3jsi20WithRuntimeDecoratorINS_5react12_GLOBAL__N_115ReentrancyCheckENS0_7RuntimeES5_E25createPropNameIDFromAsciiEPKcm, symObjAddr: 0x1CE4, symBinAddr: 0x5A00, symSize: 0x10 }
  - { offset: 0x4877B, size: 0x8, addend: 0x0, symName: __ZN8facebook3jsi20WithRuntimeDecoratorINS_5react12_GLOBAL__N_115ReentrancyCheckENS0_7RuntimeES5_E24createPropNameIDFromUtf8EPKhm, symObjAddr: 0x1CF4, symBinAddr: 0x5A10, symSize: 0x10 }
  - { offset: 0x487D0, size: 0x8, addend: 0x0, symName: __ZN8facebook3jsi20WithRuntimeDecoratorINS_5react12_GLOBAL__N_115ReentrancyCheckENS0_7RuntimeES5_E24createPropNameIDFromUtf8EPKhm, symObjAddr: 0x1CF4, symBinAddr: 0x5A10, symSize: 0x10 }
  - { offset: 0x48851, size: 0x8, addend: 0x0, symName: __ZN8facebook3jsi20WithRuntimeDecoratorINS_5react12_GLOBAL__N_115ReentrancyCheckENS0_7RuntimeES5_E25createPropNameIDFromUtf16EPKDsm, symObjAddr: 0x1D04, symBinAddr: 0x5A20, symSize: 0x10 }
  - { offset: 0x488A6, size: 0x8, addend: 0x0, symName: __ZN8facebook3jsi20WithRuntimeDecoratorINS_5react12_GLOBAL__N_115ReentrancyCheckENS0_7RuntimeES5_E25createPropNameIDFromUtf16EPKDsm, symObjAddr: 0x1D04, symBinAddr: 0x5A20, symSize: 0x10 }
  - { offset: 0x4891B, size: 0x8, addend: 0x0, symName: __ZN8facebook3jsi20WithRuntimeDecoratorINS_5react12_GLOBAL__N_115ReentrancyCheckENS0_7RuntimeES5_E26createPropNameIDFromStringERKNS0_6StringE, symObjAddr: 0x1D14, symBinAddr: 0x5A30, symSize: 0x10 }
  - { offset: 0x48961, size: 0x8, addend: 0x0, symName: __ZN8facebook3jsi20WithRuntimeDecoratorINS_5react12_GLOBAL__N_115ReentrancyCheckENS0_7RuntimeES5_E26createPropNameIDFromStringERKNS0_6StringE, symObjAddr: 0x1D14, symBinAddr: 0x5A30, symSize: 0x10 }
  - { offset: 0x489C6, size: 0x8, addend: 0x0, symName: __ZN8facebook3jsi20WithRuntimeDecoratorINS_5react12_GLOBAL__N_115ReentrancyCheckENS0_7RuntimeES5_E26createPropNameIDFromSymbolERKNS0_6SymbolE, symObjAddr: 0x1D24, symBinAddr: 0x5A40, symSize: 0x10 }
  - { offset: 0x48A0C, size: 0x8, addend: 0x0, symName: __ZN8facebook3jsi20WithRuntimeDecoratorINS_5react12_GLOBAL__N_115ReentrancyCheckENS0_7RuntimeES5_E26createPropNameIDFromSymbolERKNS0_6SymbolE, symObjAddr: 0x1D24, symBinAddr: 0x5A40, symSize: 0x10 }
  - { offset: 0x48A71, size: 0x8, addend: 0x0, symName: __ZN8facebook3jsi20WithRuntimeDecoratorINS_5react12_GLOBAL__N_115ReentrancyCheckENS0_7RuntimeES5_E4utf8ERKNS0_10PropNameIDE, symObjAddr: 0x1D34, symBinAddr: 0x5A50, symSize: 0x10 }
  - { offset: 0x48AB7, size: 0x8, addend: 0x0, symName: __ZN8facebook3jsi20WithRuntimeDecoratorINS_5react12_GLOBAL__N_115ReentrancyCheckENS0_7RuntimeES5_E4utf8ERKNS0_10PropNameIDE, symObjAddr: 0x1D34, symBinAddr: 0x5A50, symSize: 0x10 }
  - { offset: 0x48B28, size: 0x8, addend: 0x0, symName: __ZN8facebook3jsi20WithRuntimeDecoratorINS_5react12_GLOBAL__N_115ReentrancyCheckENS0_7RuntimeES5_E7compareERKNS0_10PropNameIDES9_, symObjAddr: 0x1D44, symBinAddr: 0x5A60, symSize: 0x10 }
  - { offset: 0x48B7D, size: 0x8, addend: 0x0, symName: __ZN8facebook3jsi20WithRuntimeDecoratorINS_5react12_GLOBAL__N_115ReentrancyCheckENS0_7RuntimeES5_E7compareERKNS0_10PropNameIDES9_, symObjAddr: 0x1D44, symBinAddr: 0x5A60, symSize: 0x10 }
  - { offset: 0x48BEA, size: 0x8, addend: 0x0, symName: __ZN8facebook3jsi20WithRuntimeDecoratorINS_5react12_GLOBAL__N_115ReentrancyCheckENS0_7RuntimeES5_E14symbolToStringERKNS0_6SymbolE, symObjAddr: 0x1D54, symBinAddr: 0x5A70, symSize: 0x10 }
  - { offset: 0x48C30, size: 0x8, addend: 0x0, symName: __ZN8facebook3jsi20WithRuntimeDecoratorINS_5react12_GLOBAL__N_115ReentrancyCheckENS0_7RuntimeES5_E14symbolToStringERKNS0_6SymbolE, symObjAddr: 0x1D54, symBinAddr: 0x5A70, symSize: 0x10 }
  - { offset: 0x48C95, size: 0x8, addend: 0x0, symName: __ZN8facebook3jsi20WithRuntimeDecoratorINS_5react12_GLOBAL__N_115ReentrancyCheckENS0_7RuntimeES5_E21createBigIntFromInt64Ex, symObjAddr: 0x1D64, symBinAddr: 0x5A80, symSize: 0x10 }
  - { offset: 0x48CDB, size: 0x8, addend: 0x0, symName: __ZN8facebook3jsi20WithRuntimeDecoratorINS_5react12_GLOBAL__N_115ReentrancyCheckENS0_7RuntimeES5_E21createBigIntFromInt64Ex, symObjAddr: 0x1D64, symBinAddr: 0x5A80, symSize: 0x10 }
  - { offset: 0x48D40, size: 0x8, addend: 0x0, symName: __ZN8facebook3jsi20WithRuntimeDecoratorINS_5react12_GLOBAL__N_115ReentrancyCheckENS0_7RuntimeES5_E22createBigIntFromUint64Ey, symObjAddr: 0x1D74, symBinAddr: 0x5A90, symSize: 0x10 }
  - { offset: 0x48D86, size: 0x8, addend: 0x0, symName: __ZN8facebook3jsi20WithRuntimeDecoratorINS_5react12_GLOBAL__N_115ReentrancyCheckENS0_7RuntimeES5_E22createBigIntFromUint64Ey, symObjAddr: 0x1D74, symBinAddr: 0x5A90, symSize: 0x10 }
  - { offset: 0x48DEB, size: 0x8, addend: 0x0, symName: __ZN8facebook3jsi20WithRuntimeDecoratorINS_5react12_GLOBAL__N_115ReentrancyCheckENS0_7RuntimeES5_E13bigintIsInt64ERKNS0_6BigIntE, symObjAddr: 0x1D84, symBinAddr: 0x5AA0, symSize: 0x10 }
  - { offset: 0x48E31, size: 0x8, addend: 0x0, symName: __ZN8facebook3jsi20WithRuntimeDecoratorINS_5react12_GLOBAL__N_115ReentrancyCheckENS0_7RuntimeES5_E13bigintIsInt64ERKNS0_6BigIntE, symObjAddr: 0x1D84, symBinAddr: 0x5AA0, symSize: 0x10 }
  - { offset: 0x48E8E, size: 0x8, addend: 0x0, symName: __ZN8facebook3jsi20WithRuntimeDecoratorINS_5react12_GLOBAL__N_115ReentrancyCheckENS0_7RuntimeES5_E14bigintIsUint64ERKNS0_6BigIntE, symObjAddr: 0x1D94, symBinAddr: 0x5AB0, symSize: 0x10 }
  - { offset: 0x48ED4, size: 0x8, addend: 0x0, symName: __ZN8facebook3jsi20WithRuntimeDecoratorINS_5react12_GLOBAL__N_115ReentrancyCheckENS0_7RuntimeES5_E14bigintIsUint64ERKNS0_6BigIntE, symObjAddr: 0x1D94, symBinAddr: 0x5AB0, symSize: 0x10 }
  - { offset: 0x48F31, size: 0x8, addend: 0x0, symName: __ZN8facebook3jsi20WithRuntimeDecoratorINS_5react12_GLOBAL__N_115ReentrancyCheckENS0_7RuntimeES5_E8truncateERKNS0_6BigIntE, symObjAddr: 0x1DA4, symBinAddr: 0x5AC0, symSize: 0x10 }
  - { offset: 0x48F77, size: 0x8, addend: 0x0, symName: __ZN8facebook3jsi20WithRuntimeDecoratorINS_5react12_GLOBAL__N_115ReentrancyCheckENS0_7RuntimeES5_E8truncateERKNS0_6BigIntE, symObjAddr: 0x1DA4, symBinAddr: 0x5AC0, symSize: 0x10 }
  - { offset: 0x48FE0, size: 0x8, addend: 0x0, symName: __ZN8facebook3jsi20WithRuntimeDecoratorINS_5react12_GLOBAL__N_115ReentrancyCheckENS0_7RuntimeES5_E14bigintToStringERKNS0_6BigIntEi, symObjAddr: 0x1DB4, symBinAddr: 0x5AD0, symSize: 0x10 }
  - { offset: 0x49035, size: 0x8, addend: 0x0, symName: __ZN8facebook3jsi20WithRuntimeDecoratorINS_5react12_GLOBAL__N_115ReentrancyCheckENS0_7RuntimeES5_E14bigintToStringERKNS0_6BigIntEi, symObjAddr: 0x1DB4, symBinAddr: 0x5AD0, symSize: 0x10 }
  - { offset: 0x490B6, size: 0x8, addend: 0x0, symName: __ZN8facebook3jsi20WithRuntimeDecoratorINS_5react12_GLOBAL__N_115ReentrancyCheckENS0_7RuntimeES5_E21createStringFromAsciiEPKcm, symObjAddr: 0x1DC4, symBinAddr: 0x5AE0, symSize: 0x10 }
  - { offset: 0x4910B, size: 0x8, addend: 0x0, symName: __ZN8facebook3jsi20WithRuntimeDecoratorINS_5react12_GLOBAL__N_115ReentrancyCheckENS0_7RuntimeES5_E21createStringFromAsciiEPKcm, symObjAddr: 0x1DC4, symBinAddr: 0x5AE0, symSize: 0x10 }
  - { offset: 0x4918C, size: 0x8, addend: 0x0, symName: __ZN8facebook3jsi20WithRuntimeDecoratorINS_5react12_GLOBAL__N_115ReentrancyCheckENS0_7RuntimeES5_E20createStringFromUtf8EPKhm, symObjAddr: 0x1DD4, symBinAddr: 0x5AF0, symSize: 0x10 }
  - { offset: 0x491E1, size: 0x8, addend: 0x0, symName: __ZN8facebook3jsi20WithRuntimeDecoratorINS_5react12_GLOBAL__N_115ReentrancyCheckENS0_7RuntimeES5_E20createStringFromUtf8EPKhm, symObjAddr: 0x1DD4, symBinAddr: 0x5AF0, symSize: 0x10 }
  - { offset: 0x49262, size: 0x8, addend: 0x0, symName: __ZN8facebook3jsi20WithRuntimeDecoratorINS_5react12_GLOBAL__N_115ReentrancyCheckENS0_7RuntimeES5_E21createStringFromUtf16EPKDsm, symObjAddr: 0x1DE4, symBinAddr: 0x5B00, symSize: 0x10 }
  - { offset: 0x492B7, size: 0x8, addend: 0x0, symName: __ZN8facebook3jsi20WithRuntimeDecoratorINS_5react12_GLOBAL__N_115ReentrancyCheckENS0_7RuntimeES5_E21createStringFromUtf16EPKDsm, symObjAddr: 0x1DE4, symBinAddr: 0x5B00, symSize: 0x10 }
  - { offset: 0x4932C, size: 0x8, addend: 0x0, symName: __ZN8facebook3jsi20WithRuntimeDecoratorINS_5react12_GLOBAL__N_115ReentrancyCheckENS0_7RuntimeES5_E4utf8ERKNS0_6StringE, symObjAddr: 0x1DF4, symBinAddr: 0x5B10, symSize: 0x10 }
  - { offset: 0x49372, size: 0x8, addend: 0x0, symName: __ZN8facebook3jsi20WithRuntimeDecoratorINS_5react12_GLOBAL__N_115ReentrancyCheckENS0_7RuntimeES5_E4utf8ERKNS0_6StringE, symObjAddr: 0x1DF4, symBinAddr: 0x5B10, symSize: 0x10 }
  - { offset: 0x493B5, size: 0x8, addend: 0x0, symName: __ZN8facebook3jsi20WithRuntimeDecoratorINS_5react12_GLOBAL__N_115ReentrancyCheckENS0_7RuntimeES5_E23createValueFromJsonUtf8EPKhm, symObjAddr: 0x1E04, symBinAddr: 0x5B20, symSize: 0x4 }
  - { offset: 0x4941B, size: 0x8, addend: 0x0, symName: __ZN8facebook3jsi20WithRuntimeDecoratorINS_5react12_GLOBAL__N_115ReentrancyCheckENS0_7RuntimeES5_E12createObjectEv, symObjAddr: 0x1E08, symBinAddr: 0x5B24, symSize: 0x10 }
  - { offset: 0x49452, size: 0x8, addend: 0x0, symName: __ZN8facebook3jsi20WithRuntimeDecoratorINS_5react12_GLOBAL__N_115ReentrancyCheckENS0_7RuntimeES5_E12createObjectEv, symObjAddr: 0x1E08, symBinAddr: 0x5B24, symSize: 0x10 }
  - { offset: 0x4950D, size: 0x8, addend: 0x0, symName: __ZN8facebook3jsi20WithRuntimeDecoratorINS_5react12_GLOBAL__N_115ReentrancyCheckENS0_7RuntimeES5_E12createObjectENSt3__110shared_ptrINS0_10HostObjectEEE, symObjAddr: 0x1E18, symBinAddr: 0x5B34, symSize: 0x80 }
  - { offset: 0x496A8, size: 0x8, addend: 0x0, symName: __ZN8facebook3jsi16RuntimeDecoratorINS0_7RuntimeES2_E12createObjectENSt3__110shared_ptrINS0_10HostObjectEEE, symObjAddr: 0x29F8, symBinAddr: 0x6714, symSize: 0xEC }
  - { offset: 0x499C6, size: 0x8, addend: 0x0, symName: __ZN8facebook3jsi20WithRuntimeDecoratorINS_5react12_GLOBAL__N_115ReentrancyCheckENS0_7RuntimeES5_E13getHostObjectERKNS0_6ObjectE, symObjAddr: 0x1E98, symBinAddr: 0x5BB4, symSize: 0x4 }
  - { offset: 0x49A0A, size: 0x8, addend: 0x0, symName: __ZN8facebook3jsi20WithRuntimeDecoratorINS_5react12_GLOBAL__N_115ReentrancyCheckENS0_7RuntimeES5_E13getHostObjectERKNS0_6ObjectE, symObjAddr: 0x1E98, symBinAddr: 0x5BB4, symSize: 0x4 }
  - { offset: 0x49A2E, size: 0x8, addend: 0x0, symName: __ZN8facebook3jsi16RuntimeDecoratorINS0_7RuntimeES2_E13getHostObjectERKNS0_6ObjectE, symObjAddr: 0x2AE4, symBinAddr: 0x6800, symSize: 0x94 }
  - { offset: 0x49C89, size: 0x8, addend: 0x0, symName: __ZN8facebook3jsi20WithRuntimeDecoratorINS_5react12_GLOBAL__N_115ReentrancyCheckENS0_7RuntimeES5_E15getHostFunctionERKNS0_8FunctionE, symObjAddr: 0x1E9C, symBinAddr: 0x5BB8, symSize: 0x3C }
  - { offset: 0x49D89, size: 0x8, addend: 0x0, symName: __ZN8facebook3jsi20WithRuntimeDecoratorINS_5react12_GLOBAL__N_115ReentrancyCheckENS0_7RuntimeES5_E25createObjectWithPrototypeERKNS0_5ValueE, symObjAddr: 0x1ED8, symBinAddr: 0x5BF4, symSize: 0x10 }
  - { offset: 0x49DCF, size: 0x8, addend: 0x0, symName: __ZN8facebook3jsi20WithRuntimeDecoratorINS_5react12_GLOBAL__N_115ReentrancyCheckENS0_7RuntimeES5_E25createObjectWithPrototypeERKNS0_5ValueE, symObjAddr: 0x1ED8, symBinAddr: 0x5BF4, symSize: 0x10 }
  - { offset: 0x49E35, size: 0x8, addend: 0x0, symName: __ZN8facebook3jsi20WithRuntimeDecoratorINS_5react12_GLOBAL__N_115ReentrancyCheckENS0_7RuntimeES5_E14hasNativeStateERKNS0_6ObjectE, symObjAddr: 0x1EE8, symBinAddr: 0x5C04, symSize: 0x10 }
  - { offset: 0x49E7B, size: 0x8, addend: 0x0, symName: __ZN8facebook3jsi20WithRuntimeDecoratorINS_5react12_GLOBAL__N_115ReentrancyCheckENS0_7RuntimeES5_E14hasNativeStateERKNS0_6ObjectE, symObjAddr: 0x1EE8, symBinAddr: 0x5C04, symSize: 0x10 }
  - { offset: 0x49ED9, size: 0x8, addend: 0x0, symName: __ZN8facebook3jsi20WithRuntimeDecoratorINS_5react12_GLOBAL__N_115ReentrancyCheckENS0_7RuntimeES5_E14getNativeStateERKNS0_6ObjectE, symObjAddr: 0x1EF8, symBinAddr: 0x5C14, symSize: 0x10 }
  - { offset: 0x49F1F, size: 0x8, addend: 0x0, symName: __ZN8facebook3jsi20WithRuntimeDecoratorINS_5react12_GLOBAL__N_115ReentrancyCheckENS0_7RuntimeES5_E14getNativeStateERKNS0_6ObjectE, symObjAddr: 0x1EF8, symBinAddr: 0x5C14, symSize: 0x10 }
  - { offset: 0x49FEA, size: 0x8, addend: 0x0, symName: __ZN8facebook3jsi20WithRuntimeDecoratorINS_5react12_GLOBAL__N_115ReentrancyCheckENS0_7RuntimeES5_E14setNativeStateERKNS0_6ObjectENSt3__110shared_ptrINS0_11NativeStateEEE, symObjAddr: 0x1F08, symBinAddr: 0x5C24, symSize: 0x94 }
  - { offset: 0x4A1E5, size: 0x8, addend: 0x0, symName: __ZN8facebook3jsi16RuntimeDecoratorINS0_7RuntimeES2_E14setNativeStateERKNS0_6ObjectENSt3__110shared_ptrINS0_11NativeStateEEE, symObjAddr: 0x2B78, symBinAddr: 0x6894, symSize: 0xA0 }
  - { offset: 0x4A455, size: 0x8, addend: 0x0, symName: __ZN8facebook3jsi20WithRuntimeDecoratorINS_5react12_GLOBAL__N_115ReentrancyCheckENS0_7RuntimeES5_E14setPrototypeOfERKNS0_6ObjectERKNS0_5ValueE, symObjAddr: 0x1F9C, symBinAddr: 0x5CB8, symSize: 0x10 }
  - { offset: 0x4A4AA, size: 0x8, addend: 0x0, symName: __ZN8facebook3jsi20WithRuntimeDecoratorINS_5react12_GLOBAL__N_115ReentrancyCheckENS0_7RuntimeES5_E14setPrototypeOfERKNS0_6ObjectERKNS0_5ValueE, symObjAddr: 0x1F9C, symBinAddr: 0x5CB8, symSize: 0x10 }
  - { offset: 0x4A518, size: 0x8, addend: 0x0, symName: __ZN8facebook3jsi20WithRuntimeDecoratorINS_5react12_GLOBAL__N_115ReentrancyCheckENS0_7RuntimeES5_E14getPrototypeOfERKNS0_6ObjectE, symObjAddr: 0x1FAC, symBinAddr: 0x5CC8, symSize: 0x10 }
  - { offset: 0x4A55E, size: 0x8, addend: 0x0, symName: __ZN8facebook3jsi20WithRuntimeDecoratorINS_5react12_GLOBAL__N_115ReentrancyCheckENS0_7RuntimeES5_E14getPrototypeOfERKNS0_6ObjectE, symObjAddr: 0x1FAC, symBinAddr: 0x5CC8, symSize: 0x10 }
  - { offset: 0x4A5D1, size: 0x8, addend: 0x0, symName: __ZN8facebook3jsi20WithRuntimeDecoratorINS_5react12_GLOBAL__N_115ReentrancyCheckENS0_7RuntimeES5_E11getPropertyERKNS0_6ObjectERKNS0_10PropNameIDE, symObjAddr: 0x1FBC, symBinAddr: 0x5CD8, symSize: 0x10 }
  - { offset: 0x4A626, size: 0x8, addend: 0x0, symName: __ZN8facebook3jsi20WithRuntimeDecoratorINS_5react12_GLOBAL__N_115ReentrancyCheckENS0_7RuntimeES5_E11getPropertyERKNS0_6ObjectERKNS0_10PropNameIDE, symObjAddr: 0x1FBC, symBinAddr: 0x5CD8, symSize: 0x10 }
  - { offset: 0x4A6A9, size: 0x8, addend: 0x0, symName: __ZN8facebook3jsi20WithRuntimeDecoratorINS_5react12_GLOBAL__N_115ReentrancyCheckENS0_7RuntimeES5_E11getPropertyERKNS0_6ObjectERKNS0_6StringE, symObjAddr: 0x1FCC, symBinAddr: 0x5CE8, symSize: 0x10 }
  - { offset: 0x4A6FE, size: 0x8, addend: 0x0, symName: __ZN8facebook3jsi20WithRuntimeDecoratorINS_5react12_GLOBAL__N_115ReentrancyCheckENS0_7RuntimeES5_E11getPropertyERKNS0_6ObjectERKNS0_6StringE, symObjAddr: 0x1FCC, symBinAddr: 0x5CE8, symSize: 0x10 }
  - { offset: 0x4A781, size: 0x8, addend: 0x0, symName: __ZN8facebook3jsi20WithRuntimeDecoratorINS_5react12_GLOBAL__N_115ReentrancyCheckENS0_7RuntimeES5_E11hasPropertyERKNS0_6ObjectERKNS0_10PropNameIDE, symObjAddr: 0x1FDC, symBinAddr: 0x5CF8, symSize: 0x10 }
  - { offset: 0x4A7D6, size: 0x8, addend: 0x0, symName: __ZN8facebook3jsi20WithRuntimeDecoratorINS_5react12_GLOBAL__N_115ReentrancyCheckENS0_7RuntimeES5_E11hasPropertyERKNS0_6ObjectERKNS0_10PropNameIDE, symObjAddr: 0x1FDC, symBinAddr: 0x5CF8, symSize: 0x10 }
  - { offset: 0x4A851, size: 0x8, addend: 0x0, symName: __ZN8facebook3jsi20WithRuntimeDecoratorINS_5react12_GLOBAL__N_115ReentrancyCheckENS0_7RuntimeES5_E11hasPropertyERKNS0_6ObjectERKNS0_6StringE, symObjAddr: 0x1FEC, symBinAddr: 0x5D08, symSize: 0x10 }
  - { offset: 0x4A8A6, size: 0x8, addend: 0x0, symName: __ZN8facebook3jsi20WithRuntimeDecoratorINS_5react12_GLOBAL__N_115ReentrancyCheckENS0_7RuntimeES5_E11hasPropertyERKNS0_6ObjectERKNS0_6StringE, symObjAddr: 0x1FEC, symBinAddr: 0x5D08, symSize: 0x10 }
  - { offset: 0x4A92E, size: 0x8, addend: 0x0, symName: __ZN8facebook3jsi20WithRuntimeDecoratorINS_5react12_GLOBAL__N_115ReentrancyCheckENS0_7RuntimeES5_E16setPropertyValueERKNS0_6ObjectERKNS0_10PropNameIDERKNS0_5ValueE, symObjAddr: 0x1FFC, symBinAddr: 0x5D18, symSize: 0x10 }
  - { offset: 0x4A992, size: 0x8, addend: 0x0, symName: __ZN8facebook3jsi20WithRuntimeDecoratorINS_5react12_GLOBAL__N_115ReentrancyCheckENS0_7RuntimeES5_E16setPropertyValueERKNS0_6ObjectERKNS0_10PropNameIDERKNS0_5ValueE, symObjAddr: 0x1FFC, symBinAddr: 0x5D18, symSize: 0x10 }
  - { offset: 0x4AA2A, size: 0x8, addend: 0x0, symName: __ZN8facebook3jsi20WithRuntimeDecoratorINS_5react12_GLOBAL__N_115ReentrancyCheckENS0_7RuntimeES5_E16setPropertyValueERKNS0_6ObjectERKNS0_6StringERKNS0_5ValueE, symObjAddr: 0x200C, symBinAddr: 0x5D28, symSize: 0x10 }
  - { offset: 0x4AA8E, size: 0x8, addend: 0x0, symName: __ZN8facebook3jsi20WithRuntimeDecoratorINS_5react12_GLOBAL__N_115ReentrancyCheckENS0_7RuntimeES5_E16setPropertyValueERKNS0_6ObjectERKNS0_6StringERKNS0_5ValueE, symObjAddr: 0x200C, symBinAddr: 0x5D28, symSize: 0x10 }
  - { offset: 0x4AB12, size: 0x8, addend: 0x0, symName: __ZNK8facebook3jsi20WithRuntimeDecoratorINS_5react12_GLOBAL__N_115ReentrancyCheckENS0_7RuntimeES5_E7isArrayERKNS0_6ObjectE, symObjAddr: 0x201C, symBinAddr: 0x5D38, symSize: 0x10 }
  - { offset: 0x4AB58, size: 0x8, addend: 0x0, symName: __ZNK8facebook3jsi20WithRuntimeDecoratorINS_5react12_GLOBAL__N_115ReentrancyCheckENS0_7RuntimeES5_E7isArrayERKNS0_6ObjectE, symObjAddr: 0x201C, symBinAddr: 0x5D38, symSize: 0x10 }
  - { offset: 0x4ABB6, size: 0x8, addend: 0x0, symName: __ZNK8facebook3jsi20WithRuntimeDecoratorINS_5react12_GLOBAL__N_115ReentrancyCheckENS0_7RuntimeES5_E13isArrayBufferERKNS0_6ObjectE, symObjAddr: 0x202C, symBinAddr: 0x5D48, symSize: 0x10 }
  - { offset: 0x4ABFC, size: 0x8, addend: 0x0, symName: __ZNK8facebook3jsi20WithRuntimeDecoratorINS_5react12_GLOBAL__N_115ReentrancyCheckENS0_7RuntimeES5_E13isArrayBufferERKNS0_6ObjectE, symObjAddr: 0x202C, symBinAddr: 0x5D48, symSize: 0x10 }
  - { offset: 0x4AC5A, size: 0x8, addend: 0x0, symName: __ZNK8facebook3jsi20WithRuntimeDecoratorINS_5react12_GLOBAL__N_115ReentrancyCheckENS0_7RuntimeES5_E10isFunctionERKNS0_6ObjectE, symObjAddr: 0x203C, symBinAddr: 0x5D58, symSize: 0x10 }
  - { offset: 0x4ACA0, size: 0x8, addend: 0x0, symName: __ZNK8facebook3jsi20WithRuntimeDecoratorINS_5react12_GLOBAL__N_115ReentrancyCheckENS0_7RuntimeES5_E10isFunctionERKNS0_6ObjectE, symObjAddr: 0x203C, symBinAddr: 0x5D58, symSize: 0x10 }
  - { offset: 0x4ACFE, size: 0x8, addend: 0x0, symName: __ZNK8facebook3jsi20WithRuntimeDecoratorINS_5react12_GLOBAL__N_115ReentrancyCheckENS0_7RuntimeES5_E12isHostObjectERKNS0_6ObjectE, symObjAddr: 0x204C, symBinAddr: 0x5D68, symSize: 0x10 }
  - { offset: 0x4AD44, size: 0x8, addend: 0x0, symName: __ZNK8facebook3jsi20WithRuntimeDecoratorINS_5react12_GLOBAL__N_115ReentrancyCheckENS0_7RuntimeES5_E12isHostObjectERKNS0_6ObjectE, symObjAddr: 0x204C, symBinAddr: 0x5D68, symSize: 0x10 }
  - { offset: 0x4ADA2, size: 0x8, addend: 0x0, symName: __ZNK8facebook3jsi20WithRuntimeDecoratorINS_5react12_GLOBAL__N_115ReentrancyCheckENS0_7RuntimeES5_E14isHostFunctionERKNS0_8FunctionE, symObjAddr: 0x205C, symBinAddr: 0x5D78, symSize: 0x10 }
  - { offset: 0x4ADE8, size: 0x8, addend: 0x0, symName: __ZNK8facebook3jsi20WithRuntimeDecoratorINS_5react12_GLOBAL__N_115ReentrancyCheckENS0_7RuntimeES5_E14isHostFunctionERKNS0_8FunctionE, symObjAddr: 0x205C, symBinAddr: 0x5D78, symSize: 0x10 }
  - { offset: 0x4AE46, size: 0x8, addend: 0x0, symName: __ZN8facebook3jsi20WithRuntimeDecoratorINS_5react12_GLOBAL__N_115ReentrancyCheckENS0_7RuntimeES5_E16getPropertyNamesERKNS0_6ObjectE, symObjAddr: 0x206C, symBinAddr: 0x5D88, symSize: 0x10 }
  - { offset: 0x4AE8C, size: 0x8, addend: 0x0, symName: __ZN8facebook3jsi20WithRuntimeDecoratorINS_5react12_GLOBAL__N_115ReentrancyCheckENS0_7RuntimeES5_E16getPropertyNamesERKNS0_6ObjectE, symObjAddr: 0x206C, symBinAddr: 0x5D88, symSize: 0x10 }
  - { offset: 0x4AEF2, size: 0x8, addend: 0x0, symName: __ZN8facebook3jsi20WithRuntimeDecoratorINS_5react12_GLOBAL__N_115ReentrancyCheckENS0_7RuntimeES5_E16createWeakObjectERKNS0_6ObjectE, symObjAddr: 0x207C, symBinAddr: 0x5D98, symSize: 0x10 }
  - { offset: 0x4AF38, size: 0x8, addend: 0x0, symName: __ZN8facebook3jsi20WithRuntimeDecoratorINS_5react12_GLOBAL__N_115ReentrancyCheckENS0_7RuntimeES5_E16createWeakObjectERKNS0_6ObjectE, symObjAddr: 0x207C, symBinAddr: 0x5D98, symSize: 0x10 }
  - { offset: 0x4AF9E, size: 0x8, addend: 0x0, symName: __ZN8facebook3jsi20WithRuntimeDecoratorINS_5react12_GLOBAL__N_115ReentrancyCheckENS0_7RuntimeES5_E14lockWeakObjectERKNS0_10WeakObjectE, symObjAddr: 0x208C, symBinAddr: 0x5DA8, symSize: 0x10 }
  - { offset: 0x4AFE4, size: 0x8, addend: 0x0, symName: __ZN8facebook3jsi20WithRuntimeDecoratorINS_5react12_GLOBAL__N_115ReentrancyCheckENS0_7RuntimeES5_E14lockWeakObjectERKNS0_10WeakObjectE, symObjAddr: 0x208C, symBinAddr: 0x5DA8, symSize: 0x10 }
  - { offset: 0x4B04A, size: 0x8, addend: 0x0, symName: __ZN8facebook3jsi20WithRuntimeDecoratorINS_5react12_GLOBAL__N_115ReentrancyCheckENS0_7RuntimeES5_E11createArrayEm, symObjAddr: 0x209C, symBinAddr: 0x5DB8, symSize: 0x10 }
  - { offset: 0x4B090, size: 0x8, addend: 0x0, symName: __ZN8facebook3jsi20WithRuntimeDecoratorINS_5react12_GLOBAL__N_115ReentrancyCheckENS0_7RuntimeES5_E11createArrayEm, symObjAddr: 0x209C, symBinAddr: 0x5DB8, symSize: 0x10 }
  - { offset: 0x4B15B, size: 0x8, addend: 0x0, symName: __ZN8facebook3jsi20WithRuntimeDecoratorINS_5react12_GLOBAL__N_115ReentrancyCheckENS0_7RuntimeES5_E17createArrayBufferENSt3__110shared_ptrINS0_13MutableBufferEEE, symObjAddr: 0x20AC, symBinAddr: 0x5DC8, symSize: 0x80 }
  - { offset: 0x4B2E9, size: 0x8, addend: 0x0, symName: __ZN8facebook3jsi16RuntimeDecoratorINS0_7RuntimeES2_E17createArrayBufferENSt3__110shared_ptrINS0_13MutableBufferEEE, symObjAddr: 0x2C18, symBinAddr: 0x6934, symSize: 0x8C }
  - { offset: 0x4B4E4, size: 0x8, addend: 0x0, symName: __ZN8facebook3jsi20WithRuntimeDecoratorINS_5react12_GLOBAL__N_115ReentrancyCheckENS0_7RuntimeES5_E4sizeERKNS0_5ArrayE, symObjAddr: 0x212C, symBinAddr: 0x5E48, symSize: 0x10 }
  - { offset: 0x4B52A, size: 0x8, addend: 0x0, symName: __ZN8facebook3jsi20WithRuntimeDecoratorINS_5react12_GLOBAL__N_115ReentrancyCheckENS0_7RuntimeES5_E4sizeERKNS0_5ArrayE, symObjAddr: 0x212C, symBinAddr: 0x5E48, symSize: 0x10 }
  - { offset: 0x4B588, size: 0x8, addend: 0x0, symName: __ZN8facebook3jsi20WithRuntimeDecoratorINS_5react12_GLOBAL__N_115ReentrancyCheckENS0_7RuntimeES5_E4sizeERKNS0_11ArrayBufferE, symObjAddr: 0x213C, symBinAddr: 0x5E58, symSize: 0x10 }
  - { offset: 0x4B5CE, size: 0x8, addend: 0x0, symName: __ZN8facebook3jsi20WithRuntimeDecoratorINS_5react12_GLOBAL__N_115ReentrancyCheckENS0_7RuntimeES5_E4sizeERKNS0_11ArrayBufferE, symObjAddr: 0x213C, symBinAddr: 0x5E58, symSize: 0x10 }
  - { offset: 0x4B62C, size: 0x8, addend: 0x0, symName: __ZN8facebook3jsi20WithRuntimeDecoratorINS_5react12_GLOBAL__N_115ReentrancyCheckENS0_7RuntimeES5_E4dataERKNS0_11ArrayBufferE, symObjAddr: 0x214C, symBinAddr: 0x5E68, symSize: 0x10 }
  - { offset: 0x4B672, size: 0x8, addend: 0x0, symName: __ZN8facebook3jsi20WithRuntimeDecoratorINS_5react12_GLOBAL__N_115ReentrancyCheckENS0_7RuntimeES5_E4dataERKNS0_11ArrayBufferE, symObjAddr: 0x214C, symBinAddr: 0x5E68, symSize: 0x10 }
  - { offset: 0x4B6DD, size: 0x8, addend: 0x0, symName: __ZN8facebook3jsi20WithRuntimeDecoratorINS_5react12_GLOBAL__N_115ReentrancyCheckENS0_7RuntimeES5_E15getValueAtIndexERKNS0_5ArrayEm, symObjAddr: 0x215C, symBinAddr: 0x5E78, symSize: 0x10 }
  - { offset: 0x4B732, size: 0x8, addend: 0x0, symName: __ZN8facebook3jsi20WithRuntimeDecoratorINS_5react12_GLOBAL__N_115ReentrancyCheckENS0_7RuntimeES5_E15getValueAtIndexERKNS0_5ArrayEm, symObjAddr: 0x215C, symBinAddr: 0x5E78, symSize: 0x10 }
  - { offset: 0x4B7C2, size: 0x8, addend: 0x0, symName: __ZN8facebook3jsi20WithRuntimeDecoratorINS_5react12_GLOBAL__N_115ReentrancyCheckENS0_7RuntimeES5_E19setValueAtIndexImplERKNS0_5ArrayEmRKNS0_5ValueE, symObjAddr: 0x216C, symBinAddr: 0x5E88, symSize: 0x10 }
  - { offset: 0x4B826, size: 0x8, addend: 0x0, symName: __ZN8facebook3jsi20WithRuntimeDecoratorINS_5react12_GLOBAL__N_115ReentrancyCheckENS0_7RuntimeES5_E19setValueAtIndexImplERKNS0_5ArrayEmRKNS0_5ValueE, symObjAddr: 0x216C, symBinAddr: 0x5E88, symSize: 0x10 }
  - { offset: 0x4B96C, size: 0x8, addend: 0x0, symName: __ZN8facebook3jsi20WithRuntimeDecoratorINS_5react12_GLOBAL__N_115ReentrancyCheckENS0_7RuntimeES5_E30createFunctionFromHostFunctionERKNS0_10PropNameIDEjNSt3__18functionIFNS0_5ValueERS5_RKSC_PSE_mEEE, symObjAddr: 0x217C, symBinAddr: 0x5E98, symSize: 0xF0 }
  - { offset: 0x4BBBE, size: 0x8, addend: 0x0, symName: __ZNSt3__110__function12__value_funcIFN8facebook3jsi5ValueERNS3_7RuntimeERKS4_PS7_mEEC2B8ne200100EOSB_, symObjAddr: 0x3214, symBinAddr: 0x6DD0, symSize: 0x64 }
  - { offset: 0x4BC0E, size: 0x8, addend: 0x0, symName: __ZN8facebook3jsi16RuntimeDecoratorINS0_7RuntimeES2_E30createFunctionFromHostFunctionERKNS0_10PropNameIDEjNSt3__18functionIFNS0_5ValueERS2_RKS9_PSB_mEEE, symObjAddr: 0x2CA4, symBinAddr: 0x69C0, symSize: 0x1F4 }
  - { offset: 0x4C4BB, size: 0x8, addend: 0x0, symName: __ZN8facebook3jsi20WithRuntimeDecoratorINS_5react12_GLOBAL__N_115ReentrancyCheckENS0_7RuntimeES5_E4callERKNS0_8FunctionERKNS0_5ValueEPSB_m, symObjAddr: 0x226C, symBinAddr: 0x5F88, symSize: 0x10 }
  - { offset: 0x4C52E, size: 0x8, addend: 0x0, symName: __ZN8facebook3jsi20WithRuntimeDecoratorINS_5react12_GLOBAL__N_115ReentrancyCheckENS0_7RuntimeES5_E4callERKNS0_8FunctionERKNS0_5ValueEPSB_m, symObjAddr: 0x226C, symBinAddr: 0x5F88, symSize: 0x10 }
  - { offset: 0x4C5DE, size: 0x8, addend: 0x0, symName: __ZN8facebook3jsi20WithRuntimeDecoratorINS_5react12_GLOBAL__N_115ReentrancyCheckENS0_7RuntimeES5_E17callAsConstructorERKNS0_8FunctionEPKNS0_5ValueEm, symObjAddr: 0x227C, symBinAddr: 0x5F98, symSize: 0x10 }
  - { offset: 0x4C642, size: 0x8, addend: 0x0, symName: __ZN8facebook3jsi20WithRuntimeDecoratorINS_5react12_GLOBAL__N_115ReentrancyCheckENS0_7RuntimeES5_E17callAsConstructorERKNS0_8FunctionEPKNS0_5ValueEm, symObjAddr: 0x227C, symBinAddr: 0x5F98, symSize: 0x10 }
  - { offset: 0x4C6BB, size: 0x8, addend: 0x0, symName: __ZN8facebook3jsi20WithRuntimeDecoratorINS_5react12_GLOBAL__N_115ReentrancyCheckENS0_7RuntimeES5_E9pushScopeEv, symObjAddr: 0x228C, symBinAddr: 0x5FA8, symSize: 0x10 }
  - { offset: 0x4C6F2, size: 0x8, addend: 0x0, symName: __ZN8facebook3jsi20WithRuntimeDecoratorINS_5react12_GLOBAL__N_115ReentrancyCheckENS0_7RuntimeES5_E9pushScopeEv, symObjAddr: 0x228C, symBinAddr: 0x5FA8, symSize: 0x10 }
  - { offset: 0x4C73F, size: 0x8, addend: 0x0, symName: __ZN8facebook3jsi20WithRuntimeDecoratorINS_5react12_GLOBAL__N_115ReentrancyCheckENS0_7RuntimeES5_E8popScopeEPNS5_10ScopeStateE, symObjAddr: 0x229C, symBinAddr: 0x5FB8, symSize: 0x10 }
  - { offset: 0x4C785, size: 0x8, addend: 0x0, symName: __ZN8facebook3jsi20WithRuntimeDecoratorINS_5react12_GLOBAL__N_115ReentrancyCheckENS0_7RuntimeES5_E8popScopeEPNS5_10ScopeStateE, symObjAddr: 0x229C, symBinAddr: 0x5FB8, symSize: 0x10 }
  - { offset: 0x4C7F0, size: 0x8, addend: 0x0, symName: __ZNK8facebook3jsi20WithRuntimeDecoratorINS_5react12_GLOBAL__N_115ReentrancyCheckENS0_7RuntimeES5_E12strictEqualsERKNS0_6SymbolES9_, symObjAddr: 0x22AC, symBinAddr: 0x5FC8, symSize: 0x10 }
  - { offset: 0x4C845, size: 0x8, addend: 0x0, symName: __ZNK8facebook3jsi20WithRuntimeDecoratorINS_5react12_GLOBAL__N_115ReentrancyCheckENS0_7RuntimeES5_E12strictEqualsERKNS0_6SymbolES9_, symObjAddr: 0x22AC, symBinAddr: 0x5FC8, symSize: 0x10 }
  - { offset: 0x4C8C0, size: 0x8, addend: 0x0, symName: __ZNK8facebook3jsi20WithRuntimeDecoratorINS_5react12_GLOBAL__N_115ReentrancyCheckENS0_7RuntimeES5_E12strictEqualsERKNS0_6BigIntES9_, symObjAddr: 0x22BC, symBinAddr: 0x5FD8, symSize: 0x10 }
  - { offset: 0x4C915, size: 0x8, addend: 0x0, symName: __ZNK8facebook3jsi20WithRuntimeDecoratorINS_5react12_GLOBAL__N_115ReentrancyCheckENS0_7RuntimeES5_E12strictEqualsERKNS0_6BigIntES9_, symObjAddr: 0x22BC, symBinAddr: 0x5FD8, symSize: 0x10 }
  - { offset: 0x4C990, size: 0x8, addend: 0x0, symName: __ZNK8facebook3jsi20WithRuntimeDecoratorINS_5react12_GLOBAL__N_115ReentrancyCheckENS0_7RuntimeES5_E12strictEqualsERKNS0_6StringES9_, symObjAddr: 0x22CC, symBinAddr: 0x5FE8, symSize: 0x10 }
  - { offset: 0x4C9E5, size: 0x8, addend: 0x0, symName: __ZNK8facebook3jsi20WithRuntimeDecoratorINS_5react12_GLOBAL__N_115ReentrancyCheckENS0_7RuntimeES5_E12strictEqualsERKNS0_6StringES9_, symObjAddr: 0x22CC, symBinAddr: 0x5FE8, symSize: 0x10 }
  - { offset: 0x4CA60, size: 0x8, addend: 0x0, symName: __ZNK8facebook3jsi20WithRuntimeDecoratorINS_5react12_GLOBAL__N_115ReentrancyCheckENS0_7RuntimeES5_E12strictEqualsERKNS0_6ObjectES9_, symObjAddr: 0x22DC, symBinAddr: 0x5FF8, symSize: 0x10 }
  - { offset: 0x4CAB5, size: 0x8, addend: 0x0, symName: __ZNK8facebook3jsi20WithRuntimeDecoratorINS_5react12_GLOBAL__N_115ReentrancyCheckENS0_7RuntimeES5_E12strictEqualsERKNS0_6ObjectES9_, symObjAddr: 0x22DC, symBinAddr: 0x5FF8, symSize: 0x10 }
  - { offset: 0x4CB30, size: 0x8, addend: 0x0, symName: __ZN8facebook3jsi20WithRuntimeDecoratorINS_5react12_GLOBAL__N_115ReentrancyCheckENS0_7RuntimeES5_E10instanceOfERKNS0_6ObjectERKNS0_8FunctionE, symObjAddr: 0x22EC, symBinAddr: 0x6008, symSize: 0x10 }
  - { offset: 0x4CB85, size: 0x8, addend: 0x0, symName: __ZN8facebook3jsi20WithRuntimeDecoratorINS_5react12_GLOBAL__N_115ReentrancyCheckENS0_7RuntimeES5_E10instanceOfERKNS0_6ObjectERKNS0_8FunctionE, symObjAddr: 0x22EC, symBinAddr: 0x6008, symSize: 0x10 }
  - { offset: 0x4CC00, size: 0x8, addend: 0x0, symName: __ZN8facebook3jsi20WithRuntimeDecoratorINS_5react12_GLOBAL__N_115ReentrancyCheckENS0_7RuntimeES5_E25setExternalMemoryPressureERKNS0_6ObjectEm, symObjAddr: 0x22FC, symBinAddr: 0x6018, symSize: 0x10 }
  - { offset: 0x4CC55, size: 0x8, addend: 0x0, symName: __ZN8facebook3jsi20WithRuntimeDecoratorINS_5react12_GLOBAL__N_115ReentrancyCheckENS0_7RuntimeES5_E25setExternalMemoryPressureERKNS0_6ObjectEm, symObjAddr: 0x22FC, symBinAddr: 0x6018, symSize: 0x10 }
  - { offset: 0x4CCC2, size: 0x8, addend: 0x0, symName: __ZN8facebook3jsi20WithRuntimeDecoratorINS_5react12_GLOBAL__N_115ReentrancyCheckENS0_7RuntimeES5_E5utf16ERKNS0_6StringE, symObjAddr: 0x230C, symBinAddr: 0x6028, symSize: 0x10 }
  - { offset: 0x4CD08, size: 0x8, addend: 0x0, symName: __ZN8facebook3jsi20WithRuntimeDecoratorINS_5react12_GLOBAL__N_115ReentrancyCheckENS0_7RuntimeES5_E5utf16ERKNS0_6StringE, symObjAddr: 0x230C, symBinAddr: 0x6028, symSize: 0x10 }
  - { offset: 0x4CD6D, size: 0x8, addend: 0x0, symName: __ZN8facebook3jsi20WithRuntimeDecoratorINS_5react12_GLOBAL__N_115ReentrancyCheckENS0_7RuntimeES5_E5utf16ERKNS0_10PropNameIDE, symObjAddr: 0x231C, symBinAddr: 0x6038, symSize: 0x10 }
  - { offset: 0x4CDB3, size: 0x8, addend: 0x0, symName: __ZN8facebook3jsi20WithRuntimeDecoratorINS_5react12_GLOBAL__N_115ReentrancyCheckENS0_7RuntimeES5_E5utf16ERKNS0_10PropNameIDE, symObjAddr: 0x231C, symBinAddr: 0x6038, symSize: 0x10 }
  - { offset: 0x4CE30, size: 0x8, addend: 0x0, symName: __ZN8facebook3jsi20WithRuntimeDecoratorINS_5react12_GLOBAL__N_115ReentrancyCheckENS0_7RuntimeES5_E13getStringDataERKNS0_6StringEPvPFvSA_bPKvmE, symObjAddr: 0x232C, symBinAddr: 0x6048, symSize: 0x10 }
  - { offset: 0x4CE94, size: 0x8, addend: 0x0, symName: __ZN8facebook3jsi20WithRuntimeDecoratorINS_5react12_GLOBAL__N_115ReentrancyCheckENS0_7RuntimeES5_E13getStringDataERKNS0_6StringEPvPFvSA_bPKvmE, symObjAddr: 0x232C, symBinAddr: 0x6048, symSize: 0x10 }
  - { offset: 0x4CF2B, size: 0x8, addend: 0x0, symName: __ZN8facebook3jsi20WithRuntimeDecoratorINS_5react12_GLOBAL__N_115ReentrancyCheckENS0_7RuntimeES5_E17getPropNameIdDataERKNS0_10PropNameIDEPvPFvSA_bPKvmE, symObjAddr: 0x233C, symBinAddr: 0x6058, symSize: 0x10 }
  - { offset: 0x4CF8F, size: 0x8, addend: 0x0, symName: __ZN8facebook3jsi20WithRuntimeDecoratorINS_5react12_GLOBAL__N_115ReentrancyCheckENS0_7RuntimeES5_E17getPropNameIdDataERKNS0_10PropNameIDEPvPFvSA_bPKvmE, symObjAddr: 0x233C, symBinAddr: 0x6058, symSize: 0x10 }
  - { offset: 0x4CFEA, size: 0x8, addend: 0x0, symName: __ZN8facebook3jsi16RuntimeDecoratorINS0_7RuntimeES2_E18getRecordedGCStatsEv, symObjAddr: 0x234C, symBinAddr: 0x6068, symSize: 0x38 }
  - { offset: 0x4D044, size: 0x8, addend: 0x0, symName: __ZN8facebook3jsi16RuntimeDecoratorINS0_7RuntimeES2_E11getHeapInfoEb, symObjAddr: 0x2384, symBinAddr: 0x60A0, symSize: 0x40 }
  - { offset: 0x4D0A8, size: 0x8, addend: 0x0, symName: __ZN8facebook3jsi16RuntimeDecoratorINS0_7RuntimeES2_E14collectGarbageENSt3__112basic_stringIcNS4_11char_traitsIcEENS4_9allocatorIcEEEE, symObjAddr: 0x23C4, symBinAddr: 0x60E0, symSize: 0x88 }
  - { offset: 0x4D478, size: 0x8, addend: 0x0, symName: __ZN8facebook3jsi16RuntimeDecoratorINS0_7RuntimeES2_E34startTrackingHeapObjectStackTracesENSt3__18functionIFvyNS4_6chrono8durationIxNS4_5ratioILl1ELl1000000EEEEENS4_6vectorINS4_5tupleIJyyyEEENS4_9allocatorISD_EEEEEEE, symObjAddr: 0x244C, symBinAddr: 0x6168, symSize: 0xEC }
  - { offset: 0x4D6AE, size: 0x8, addend: 0x0, symName: __ZNSt3__110__function12__value_funcIFvyNS_6chrono8durationIxNS_5ratioILl1ELl1000000EEEEENS_6vectorINS_5tupleIJyyyEEENS_9allocatorIS9_EEEEEEC2B8ne200100EOSE_, symObjAddr: 0x35E0, symBinAddr: 0x7138, symSize: 0x64 }
  - { offset: 0x4D6FE, size: 0x8, addend: 0x0, symName: __ZN8facebook3jsi16RuntimeDecoratorINS0_7RuntimeES2_E33stopTrackingHeapObjectStackTracesEv, symObjAddr: 0x2538, symBinAddr: 0x6254, symSize: 0x28 }
  - { offset: 0x4D758, size: 0x8, addend: 0x0, symName: __ZN8facebook3jsi16RuntimeDecoratorINS0_7RuntimeES2_E17startHeapSamplingEm, symObjAddr: 0x2560, symBinAddr: 0x627C, symSize: 0x38 }
  - { offset: 0x4D7BC, size: 0x8, addend: 0x0, symName: __ZN8facebook3jsi16RuntimeDecoratorINS0_7RuntimeES2_E16stopHeapSamplingERNSt3__113basic_ostreamIcNS4_11char_traitsIcEEEE, symObjAddr: 0x2598, symBinAddr: 0x62B4, symSize: 0x38 }
  - { offset: 0x4D820, size: 0x8, addend: 0x0, symName: __ZN8facebook3jsi16RuntimeDecoratorINS0_7RuntimeES2_E20createSnapshotToFileERKNSt3__112basic_stringIcNS4_11char_traitsIcEENS4_9allocatorIcEEEERKNS0_15Instrumentation19HeapSnapshotOptionsE, symObjAddr: 0x25D0, symBinAddr: 0x62EC, symSize: 0x40 }
  - { offset: 0x4D88E, size: 0x8, addend: 0x0, symName: __ZN8facebook3jsi16RuntimeDecoratorINS0_7RuntimeES2_E22createSnapshotToStreamERNSt3__113basic_ostreamIcNS4_11char_traitsIcEEEERKNS0_15Instrumentation19HeapSnapshotOptionsE, symObjAddr: 0x2610, symBinAddr: 0x632C, symSize: 0x40 }
  - { offset: 0x4D8FC, size: 0x8, addend: 0x0, symName: __ZN8facebook3jsi16RuntimeDecoratorINS0_7RuntimeES2_E33flushAndDisableBridgeTrafficTraceEv, symObjAddr: 0x2650, symBinAddr: 0x636C, symSize: 0x38 }
  - { offset: 0x4D96C, size: 0x8, addend: 0x0, symName: __ZNK8facebook3jsi16RuntimeDecoratorINS0_7RuntimeES2_E33writeBasicBlockProfileTraceToFileERKNSt3__112basic_stringIcNS4_11char_traitsIcEENS4_9allocatorIcEEEE, symObjAddr: 0x2688, symBinAddr: 0x63A4, symSize: 0x38 }
  - { offset: 0x4D9D0, size: 0x8, addend: 0x0, symName: __ZNK8facebook3jsi16RuntimeDecoratorINS0_7RuntimeES2_E25dumpProfilerSymbolsToFileERKNSt3__112basic_stringIcNS4_11char_traitsIcEENS4_9allocatorIcEEEE, symObjAddr: 0x26C0, symBinAddr: 0x63DC, symSize: 0x38 }
  - { offset: 0x4DA34, size: 0x8, addend: 0x0, symName: __ZThn8_N8facebook5react12_GLOBAL__N_116DecoratedRuntimeD1Ev, symObjAddr: 0x26F8, symBinAddr: 0x6414, symSize: 0x38 }
  - { offset: 0x4DAF7, size: 0x8, addend: 0x0, symName: __ZThn8_N8facebook5react12_GLOBAL__N_116DecoratedRuntimeD0Ev, symObjAddr: 0x2730, symBinAddr: 0x644C, symSize: 0x8 }
  - { offset: 0x4DB32, size: 0x8, addend: 0x0, symName: __ZThn8_N8facebook3jsi16RuntimeDecoratorINS0_7RuntimeES2_E18getRecordedGCStatsEv, symObjAddr: 0x2738, symBinAddr: 0x6454, symSize: 0x38 }
  - { offset: 0x4DBC5, size: 0x8, addend: 0x0, symName: __ZThn8_N8facebook3jsi16RuntimeDecoratorINS0_7RuntimeES2_E11getHeapInfoEb, symObjAddr: 0x2770, symBinAddr: 0x648C, symSize: 0x40 }
  - { offset: 0x4DC3F, size: 0x8, addend: 0x0, symName: __ZThn8_N8facebook3jsi16RuntimeDecoratorINS0_7RuntimeES2_E14collectGarbageENSt3__112basic_stringIcNS4_11char_traitsIcEENS4_9allocatorIcEEEE, symObjAddr: 0x27B0, symBinAddr: 0x64CC, symSize: 0x8 }
  - { offset: 0x4DC6E, size: 0x8, addend: 0x0, symName: __ZThn8_N8facebook3jsi16RuntimeDecoratorINS0_7RuntimeES2_E34startTrackingHeapObjectStackTracesENSt3__18functionIFvyNS4_6chrono8durationIxNS4_5ratioILl1ELl1000000EEEEENS4_6vectorINS4_5tupleIJyyyEEENS4_9allocatorISD_EEEEEEE, symObjAddr: 0x27B8, symBinAddr: 0x64D4, symSize: 0x8 }
  - { offset: 0x4DCB3, size: 0x8, addend: 0x0, symName: __ZThn8_N8facebook3jsi16RuntimeDecoratorINS0_7RuntimeES2_E33stopTrackingHeapObjectStackTracesEv, symObjAddr: 0x27C0, symBinAddr: 0x64DC, symSize: 0x28 }
  - { offset: 0x4DD46, size: 0x8, addend: 0x0, symName: __ZThn8_N8facebook3jsi16RuntimeDecoratorINS0_7RuntimeES2_E17startHeapSamplingEm, symObjAddr: 0x27E8, symBinAddr: 0x6504, symSize: 0x38 }
  - { offset: 0x4DDE3, size: 0x8, addend: 0x0, symName: __ZThn8_N8facebook3jsi16RuntimeDecoratorINS0_7RuntimeES2_E16stopHeapSamplingERNSt3__113basic_ostreamIcNS4_11char_traitsIcEEEE, symObjAddr: 0x2820, symBinAddr: 0x653C, symSize: 0x38 }
  - { offset: 0x4DE8D, size: 0x8, addend: 0x0, symName: __ZThn8_N8facebook3jsi16RuntimeDecoratorINS0_7RuntimeES2_E20createSnapshotToFileERKNSt3__112basic_stringIcNS4_11char_traitsIcEENS4_9allocatorIcEEEERKNS0_15Instrumentation19HeapSnapshotOptionsE, symObjAddr: 0x2858, symBinAddr: 0x6574, symSize: 0x40 }
  - { offset: 0x4DF41, size: 0x8, addend: 0x0, symName: __ZThn8_N8facebook3jsi16RuntimeDecoratorINS0_7RuntimeES2_E22createSnapshotToStreamERNSt3__113basic_ostreamIcNS4_11char_traitsIcEEEERKNS0_15Instrumentation19HeapSnapshotOptionsE, symObjAddr: 0x2898, symBinAddr: 0x65B4, symSize: 0x40 }
  - { offset: 0x4DFDB, size: 0x8, addend: 0x0, symName: __ZThn8_N8facebook3jsi16RuntimeDecoratorINS0_7RuntimeES2_E33flushAndDisableBridgeTrafficTraceEv, symObjAddr: 0x28D8, symBinAddr: 0x65F4, symSize: 0x38 }
  - { offset: 0x4E06E, size: 0x8, addend: 0x0, symName: __ZThn8_NK8facebook3jsi16RuntimeDecoratorINS0_7RuntimeES2_E33writeBasicBlockProfileTraceToFileERKNSt3__112basic_stringIcNS4_11char_traitsIcEENS4_9allocatorIcEEEE, symObjAddr: 0x2910, symBinAddr: 0x662C, symSize: 0x38 }
  - { offset: 0x4E10B, size: 0x8, addend: 0x0, symName: __ZThn8_NK8facebook3jsi16RuntimeDecoratorINS0_7RuntimeES2_E25dumpProfilerSymbolsToFileERKNSt3__112basic_stringIcNS4_11char_traitsIcEENS4_9allocatorIcEEEE, symObjAddr: 0x2948, symBinAddr: 0x6664, symSize: 0x38 }
  - { offset: 0x4E8EE, size: 0x8, addend: 0x0, symName: __ZNSt3__120__shared_ptr_emplaceIN8facebook3jsi19DecoratedHostObjectENS_9allocatorIS3_EEEC2B8ne200100IJRNS2_16RuntimeDecoratorINS2_7RuntimeES9_EENS_10shared_ptrINS2_10HostObjectEEEES5_Li0EEES5_DpOT_, symObjAddr: 0x2EF8, symBinAddr: 0x6C14, symSize: 0x4C }
  - { offset: 0x4EAC8, size: 0x8, addend: 0x0, symName: __ZNSt3__120__shared_ptr_emplaceIN8facebook3jsi19DecoratedHostObjectENS_9allocatorIS3_EEED1Ev, symObjAddr: 0x2F44, symBinAddr: 0x6C60, symSize: 0x14 }
  - { offset: 0x4EAEC, size: 0x8, addend: 0x0, symName: __ZNSt3__120__shared_ptr_emplaceIN8facebook3jsi19DecoratedHostObjectENS_9allocatorIS3_EEED1Ev, symObjAddr: 0x2F44, symBinAddr: 0x6C60, symSize: 0x14 }
  - { offset: 0x4EB23, size: 0x8, addend: 0x0, symName: __ZNSt3__120__shared_ptr_emplaceIN8facebook3jsi19DecoratedHostObjectENS_9allocatorIS3_EEED0Ev, symObjAddr: 0x2F58, symBinAddr: 0x6C74, symSize: 0x24 }
  - { offset: 0x4EBF4, size: 0x8, addend: 0x0, symName: __ZNSt3__120__shared_ptr_emplaceIN8facebook3jsi19DecoratedHostObjectENS_9allocatorIS3_EEE16__on_zero_sharedEv, symObjAddr: 0x2F7C, symBinAddr: 0x6C98, symSize: 0xC }
  - { offset: 0x4EC1E, size: 0x8, addend: 0x0, symName: __ZNSt3__120__shared_ptr_emplaceIN8facebook3jsi19DecoratedHostObjectENS_9allocatorIS3_EEE16__on_zero_sharedEv, symObjAddr: 0x2F7C, symBinAddr: 0x6C98, symSize: 0xC }
  - { offset: 0x4EC3D, size: 0x8, addend: 0x0, symName: __ZNSt3__120__shared_ptr_emplaceIN8facebook3jsi19DecoratedHostObjectENS_9allocatorIS3_EEE16__on_zero_sharedEv, symObjAddr: 0x2F7C, symBinAddr: 0x6C98, symSize: 0xC }
  - { offset: 0x4EC5C, size: 0x8, addend: 0x0, symName: __ZNSt3__120__shared_ptr_emplaceIN8facebook3jsi19DecoratedHostObjectENS_9allocatorIS3_EEE16__on_zero_sharedEv, symObjAddr: 0x2F7C, symBinAddr: 0x6C98, symSize: 0xC }
  - { offset: 0x4EC88, size: 0x8, addend: 0x0, symName: __ZNSt3__120__shared_ptr_emplaceIN8facebook3jsi19DecoratedHostObjectENS_9allocatorIS3_EEE21__on_zero_shared_weakEv, symObjAddr: 0x2F88, symBinAddr: 0x6CA4, symSize: 0x4 }
  - { offset: 0x4ECBC, size: 0x8, addend: 0x0, symName: __ZNSt3__120__shared_ptr_emplaceIN8facebook3jsi19DecoratedHostObjectENS_9allocatorIS3_EEE21__on_zero_shared_weakEv, symObjAddr: 0x2F88, symBinAddr: 0x6CA4, symSize: 0x4 }
  - { offset: 0x4ECE0, size: 0x8, addend: 0x0, symName: __ZNSt3__120__shared_ptr_emplaceIN8facebook3jsi19DecoratedHostObjectENS_9allocatorIS3_EEE21__on_zero_shared_weakEv, symObjAddr: 0x2F88, symBinAddr: 0x6CA4, symSize: 0x4 }
  - { offset: 0x4ED05, size: 0x8, addend: 0x0, symName: __ZNSt3__120__shared_ptr_emplaceIN8facebook3jsi19DecoratedHostObjectENS_9allocatorIS3_EEE21__on_zero_shared_weakEv, symObjAddr: 0x2F88, symBinAddr: 0x6CA4, symSize: 0x4 }
  - { offset: 0x4ED3C, size: 0x8, addend: 0x0, symName: __ZNSt3__120__shared_ptr_emplaceIN8facebook3jsi19DecoratedHostObjectENS_9allocatorIS3_EEE21__on_zero_shared_weakEv, symObjAddr: 0x2F88, symBinAddr: 0x6CA4, symSize: 0x4 }
  - { offset: 0x4EDE5, size: 0x8, addend: 0x0, symName: __ZN8facebook3jsi19DecoratedHostObjectD1Ev, symObjAddr: 0x300C, symBinAddr: 0x6D28, symSize: 0x34 }
  - { offset: 0x4EE70, size: 0x8, addend: 0x0, symName: __ZN8facebook3jsi19DecoratedHostObjectD0Ev, symObjAddr: 0x3040, symBinAddr: 0x6D5C, symSize: 0x38 }
  - { offset: 0x4EF1B, size: 0x8, addend: 0x0, symName: __ZN8facebook3jsi19DecoratedHostObject3getERNS0_7RuntimeERKNS0_10PropNameIDE, symObjAddr: 0x3078, symBinAddr: 0x6D94, symSize: 0x14 }
  - { offset: 0x4EF5F, size: 0x8, addend: 0x0, symName: __ZN8facebook3jsi19DecoratedHostObject3getERNS0_7RuntimeERKNS0_10PropNameIDE, symObjAddr: 0x3078, symBinAddr: 0x6D94, symSize: 0x14 }
  - { offset: 0x4EF99, size: 0x8, addend: 0x0, symName: __ZN8facebook3jsi19DecoratedHostObject3setERNS0_7RuntimeERKNS0_10PropNameIDERKNS0_5ValueE, symObjAddr: 0x308C, symBinAddr: 0x6DA8, symSize: 0x14 }
  - { offset: 0x4EFEB, size: 0x8, addend: 0x0, symName: __ZN8facebook3jsi19DecoratedHostObject3setERNS0_7RuntimeERKNS0_10PropNameIDERKNS0_5ValueE, symObjAddr: 0x308C, symBinAddr: 0x6DA8, symSize: 0x14 }
  - { offset: 0x4F025, size: 0x8, addend: 0x0, symName: __ZN8facebook3jsi19DecoratedHostObject16getPropertyNamesERNS0_7RuntimeE, symObjAddr: 0x30A0, symBinAddr: 0x6DBC, symSize: 0x14 }
  - { offset: 0x4F05B, size: 0x8, addend: 0x0, symName: __ZN8facebook3jsi19DecoratedHostObject16getPropertyNamesERNS0_7RuntimeE, symObjAddr: 0x30A0, symBinAddr: 0x6DBC, symSize: 0x14 }
  - { offset: 0x4F0E2, size: 0x8, addend: 0x0, symName: __ZNSt3__110__function6__funcIN8facebook3jsi21DecoratedHostFunctionENS_9allocatorIS4_EEFNS3_5ValueERNS3_7RuntimeERKS7_PSA_mEED1Ev, symObjAddr: 0x3278, symBinAddr: 0x6E34, symSize: 0x5C }
  - { offset: 0x4F251, size: 0x8, addend: 0x0, symName: __ZNSt3__110__function6__funcIN8facebook3jsi21DecoratedHostFunctionENS_9allocatorIS4_EEFNS3_5ValueERNS3_7RuntimeERKS7_PSA_mEED0Ev, symObjAddr: 0x32D4, symBinAddr: 0x6E90, symSize: 0x5C }
  - { offset: 0x4F67D, size: 0x8, addend: 0x0, symName: __ZNKSt3__110__function6__funcIN8facebook3jsi21DecoratedHostFunctionENS_9allocatorIS4_EEFNS3_5ValueERNS3_7RuntimeERKS7_PSA_mEE7__cloneEv, symObjAddr: 0x3330, symBinAddr: 0x6EEC, symSize: 0x5C }
  - { offset: 0x4FA6B, size: 0x8, addend: 0x0, symName: __ZNKSt3__110__function6__funcIN8facebook3jsi21DecoratedHostFunctionENS_9allocatorIS4_EEFNS3_5ValueERNS3_7RuntimeERKS7_PSA_mEE7__cloneEPNS0_6__baseISD_EE, symObjAddr: 0x338C, symBinAddr: 0x6F48, symSize: 0x24 }
  - { offset: 0x4FC11, size: 0x8, addend: 0x0, symName: __ZNSt3__110__function6__funcIN8facebook3jsi21DecoratedHostFunctionENS_9allocatorIS4_EEFNS3_5ValueERNS3_7RuntimeERKS7_PSA_mEE7destroyEv, symObjAddr: 0x33B0, symBinAddr: 0x6F6C, symSize: 0x30 }
  - { offset: 0x4FC3B, size: 0x8, addend: 0x0, symName: __ZNSt3__110__function6__funcIN8facebook3jsi21DecoratedHostFunctionENS_9allocatorIS4_EEFNS3_5ValueERNS3_7RuntimeERKS7_PSA_mEE7destroyEv, symObjAddr: 0x33B0, symBinAddr: 0x6F6C, symSize: 0x30 }
  - { offset: 0x4FC5B, size: 0x8, addend: 0x0, symName: __ZNSt3__110__function6__funcIN8facebook3jsi21DecoratedHostFunctionENS_9allocatorIS4_EEFNS3_5ValueERNS3_7RuntimeERKS7_PSA_mEE7destroyEv, symObjAddr: 0x33B0, symBinAddr: 0x6F6C, symSize: 0x30 }
  - { offset: 0x4FC7A, size: 0x8, addend: 0x0, symName: __ZNSt3__110__function6__funcIN8facebook3jsi21DecoratedHostFunctionENS_9allocatorIS4_EEFNS3_5ValueERNS3_7RuntimeERKS7_PSA_mEE7destroyEv, symObjAddr: 0x33B0, symBinAddr: 0x6F6C, symSize: 0x30 }
  - { offset: 0x4FD28, size: 0x8, addend: 0x0, symName: __ZNSt3__110__function6__funcIN8facebook3jsi21DecoratedHostFunctionENS_9allocatorIS4_EEFNS3_5ValueERNS3_7RuntimeERKS7_PSA_mEE18destroy_deallocateEv, symObjAddr: 0x33E0, symBinAddr: 0x6F9C, symSize: 0x4C }
  - { offset: 0x4FFE1, size: 0x8, addend: 0x0, symName: __ZNSt3__110__function6__funcIN8facebook3jsi21DecoratedHostFunctionENS_9allocatorIS4_EEFNS3_5ValueERNS3_7RuntimeERKS7_PSA_mEEclES9_SB_OSC_Om, symObjAddr: 0x342C, symBinAddr: 0x6FE8, symSize: 0x14 }
  - { offset: 0x5004D, size: 0x8, addend: 0x0, symName: __ZNSt3__110__function6__funcIN8facebook3jsi21DecoratedHostFunctionENS_9allocatorIS4_EEFNS3_5ValueERNS3_7RuntimeERKS7_PSA_mEEclES9_SB_OSC_Om, symObjAddr: 0x342C, symBinAddr: 0x6FE8, symSize: 0x14 }
  - { offset: 0x50089, size: 0x8, addend: 0x0, symName: __ZNSt3__110__function6__funcIN8facebook3jsi21DecoratedHostFunctionENS_9allocatorIS4_EEFNS3_5ValueERNS3_7RuntimeERKS7_PSA_mEEclES9_SB_OSC_Om, symObjAddr: 0x342C, symBinAddr: 0x6FE8, symSize: 0x14 }
  - { offset: 0x500C4, size: 0x8, addend: 0x0, symName: __ZNSt3__110__function6__funcIN8facebook3jsi21DecoratedHostFunctionENS_9allocatorIS4_EEFNS3_5ValueERNS3_7RuntimeERKS7_PSA_mEEclES9_SB_OSC_Om, symObjAddr: 0x342C, symBinAddr: 0x6FE8, symSize: 0x14 }
  - { offset: 0x50100, size: 0x8, addend: 0x0, symName: __ZNSt3__110__function6__funcIN8facebook3jsi21DecoratedHostFunctionENS_9allocatorIS4_EEFNS3_5ValueERNS3_7RuntimeERKS7_PSA_mEEclES9_SB_OSC_Om, symObjAddr: 0x342C, symBinAddr: 0x6FE8, symSize: 0x14 }
  - { offset: 0x501B3, size: 0x8, addend: 0x0, symName: __ZNKSt3__18functionIFN8facebook3jsi5ValueERNS2_7RuntimeERKS3_PS6_mEEclES5_S7_S8_m, symObjAddr: 0x34EC, symBinAddr: 0x7044, symSize: 0x3C }
  - { offset: 0x5026B, size: 0x8, addend: 0x0, symName: __ZNSt3__125__throw_bad_function_callB8ne200100Ev, symObjAddr: 0x3528, symBinAddr: 0x7080, symSize: 0x34 }
  - { offset: 0x50276, size: 0x8, addend: 0x0, symName: __ZNKSt3__110__function6__funcIN8facebook3jsi21DecoratedHostFunctionENS_9allocatorIS4_EEFNS3_5ValueERNS3_7RuntimeERKS7_PSA_mEE6targetERKSt9type_info, symObjAddr: 0x3440, symBinAddr: 0x6FFC, symSize: 0x3C }
  - { offset: 0x502C5, size: 0x8, addend: 0x0, symName: __ZNKSt3__110__function6__funcIN8facebook3jsi21DecoratedHostFunctionENS_9allocatorIS4_EEFNS3_5ValueERNS3_7RuntimeERKS7_PSA_mEE11target_typeEv, symObjAddr: 0x347C, symBinAddr: 0x7038, symSize: 0xC }
  - { offset: 0x503A1, size: 0x8, addend: 0x0, symName: __ZNSt3__117bad_function_callD1Ev, symObjAddr: 0x355C, symBinAddr: 0x70B4, symSize: 0x4 }
  - { offset: 0x503C5, size: 0x8, addend: 0x0, symName: __ZNSt3__117bad_function_callD1Ev, symObjAddr: 0x355C, symBinAddr: 0x70B4, symSize: 0x4 }
  - { offset: 0x503FA, size: 0x8, addend: 0x0, symName: __ZNSt3__117bad_function_callD0Ev, symObjAddr: 0x3560, symBinAddr: 0x70B8, symSize: 0x14 }
  - { offset: 0x5047B, size: 0x8, addend: 0x0, symName: __ZNSt3__120__shared_ptr_pointerIPN8facebook3jsi7RuntimeENS_14default_deleteIS3_EENS_9allocatorIS3_EEED1Ev, symObjAddr: 0x3574, symBinAddr: 0x70CC, symSize: 0x4 }
  - { offset: 0x5049F, size: 0x8, addend: 0x0, symName: __ZNSt3__120__shared_ptr_pointerIPN8facebook3jsi7RuntimeENS_14default_deleteIS3_EENS_9allocatorIS3_EEED1Ev, symObjAddr: 0x3574, symBinAddr: 0x70CC, symSize: 0x4 }
  - { offset: 0x504D6, size: 0x8, addend: 0x0, symName: __ZNSt3__120__shared_ptr_pointerIPN8facebook3jsi7RuntimeENS_14default_deleteIS3_EENS_9allocatorIS3_EEED0Ev, symObjAddr: 0x3578, symBinAddr: 0x70D0, symSize: 0x14 }
  - { offset: 0x5053D, size: 0x8, addend: 0x0, symName: __ZNSt3__120__shared_ptr_pointerIPN8facebook3jsi7RuntimeENS_14default_deleteIS3_EENS_9allocatorIS3_EEE16__on_zero_sharedEv, symObjAddr: 0x358C, symBinAddr: 0x70E4, symSize: 0x18 }
  - { offset: 0x5058E, size: 0x8, addend: 0x0, symName: __ZNKSt3__120__shared_ptr_pointerIPN8facebook3jsi7RuntimeENS_14default_deleteIS3_EENS_9allocatorIS3_EEE13__get_deleterERKSt9type_info, symObjAddr: 0x35A4, symBinAddr: 0x70FC, symSize: 0x38 }
  - { offset: 0x50622, size: 0x8, addend: 0x0, symName: __ZNSt3__120__shared_ptr_pointerIPN8facebook3jsi7RuntimeENS_14default_deleteIS3_EENS_9allocatorIS3_EEE21__on_zero_shared_weakEv, symObjAddr: 0x35DC, symBinAddr: 0x7134, symSize: 0x4 }
  - { offset: 0x50656, size: 0x8, addend: 0x0, symName: __ZNSt3__120__shared_ptr_pointerIPN8facebook3jsi7RuntimeENS_14default_deleteIS3_EENS_9allocatorIS3_EEE21__on_zero_shared_weakEv, symObjAddr: 0x35DC, symBinAddr: 0x7134, symSize: 0x4 }
  - { offset: 0x5067A, size: 0x8, addend: 0x0, symName: __ZNSt3__120__shared_ptr_pointerIPN8facebook3jsi7RuntimeENS_14default_deleteIS3_EENS_9allocatorIS3_EEE21__on_zero_shared_weakEv, symObjAddr: 0x35DC, symBinAddr: 0x7134, symSize: 0x4 }
  - { offset: 0x506B1, size: 0x8, addend: 0x0, symName: __ZNSt3__120__shared_ptr_pointerIPN8facebook3jsi7RuntimeENS_14default_deleteIS3_EENS_9allocatorIS3_EEE21__on_zero_shared_weakEv, symObjAddr: 0x35DC, symBinAddr: 0x7134, symSize: 0x4 }
  - { offset: 0x59815, size: 0x8, addend: 0x0, symName: __ZNSt3__119__allocate_at_leastB8ne200100INS_9allocatorIN8facebook5react18jsinspector_modern7tracing22RuntimeSamplingProfile20SampleCallStackFrameEEEEENS_19__allocation_resultINS_16allocator_traitsIT_E7pointerEEERSB_m, symObjAddr: 0xB9C, symBinAddr: 0x7D40, symSize: 0x34 }
  - { offset: 0x598C6, size: 0x8, addend: 0x0, symName: __ZNK8facebook6hermes17sampling_profiler11StringEntry7getViewEv, symObjAddr: 0xBD0, symBinAddr: 0x7D74, symSize: 0x4C }
  - { offset: 0x59944, size: 0x8, addend: 0x0, symName: __ZNSt3__119__allocate_at_leastB8ne200100INS_9allocatorIN8facebook5react18jsinspector_modern7tracing22RuntimeSamplingProfile6SampleEEEEENS_19__allocation_resultINS_16allocator_traitsIT_E7pointerEEERSB_m, symObjAddr: 0x8CC, symBinAddr: 0x7A84, symSize: 0x44 }
  - { offset: 0x599F5, size: 0x8, addend: 0x0, symName: __ZSt28__throw_bad_array_new_lengthB8ne200100v, symObjAddr: 0x910, symBinAddr: 0x7AC8, symSize: 0x28 }
  - { offset: 0x59A09, size: 0x8, addend: 0x0, symName: __ZNSt3__134__uninitialized_allocator_relocateB8ne200100INS_9allocatorIN8facebook5react18jsinspector_modern7tracing22RuntimeSamplingProfile6SampleEEEPS7_EEvRT_T0_SC_SC_, symObjAddr: 0x938, symBinAddr: 0x7AF0, symSize: 0xC0 }
  - { offset: 0x5A13E, size: 0x8, addend: 0x0, symName: __ZNSt3__120__throw_out_of_rangeB8ne200100EPKc, symObjAddr: 0xC30, symBinAddr: 0x7DD4, symSize: 0x50 }
  - { offset: 0x5B23A, size: 0x8, addend: 0x0, symName: __ZSt28__throw_bad_array_new_lengthB8ne200100v, symObjAddr: 0x910, symBinAddr: 0x7AC8, symSize: 0x28 }
  - { offset: 0x5D067, size: 0x8, addend: 0x0, symName: __ZN8facebook5react18jsinspector_modern7tracing38HermesRuntimeSamplingProfileSerializer33serializeToTracingSamplingProfileENS_6hermes17sampling_profiler7ProfileE, symObjAddr: 0x0, symBinAddr: 0x723C, symSize: 0x6F8 }
  - { offset: 0x5F1E0, size: 0x8, addend: 0x0, symName: __ZNSt3__16vectorIN8facebook5react18jsinspector_modern7tracing22RuntimeSamplingProfile6SampleENS_9allocatorIS6_EEE7reserveEm, symObjAddr: 0x6F8, symBinAddr: 0x7934, symSize: 0xD8 }
  - { offset: 0x5F427, size: 0x8, addend: 0x0, symName: __ZNSt3__16vectorIN8facebook5react18jsinspector_modern7tracing22RuntimeSamplingProfile20SampleCallStackFrameENS_9allocatorIS6_EEE7reserveEm, symObjAddr: 0xAFC, symBinAddr: 0x7CB4, symSize: 0x8C }
  - { offset: 0x5F688, size: 0x8, addend: 0x0, symName: __ZNK8facebook6hermes17sampling_profiler11StringEntry7getViewEv, symObjAddr: 0xBD0, symBinAddr: 0x7D74, symSize: 0x4C }
  - { offset: 0x5F797, size: 0x8, addend: 0x0, symName: __ZNSt3__16vectorINS_12basic_stringIcNS_11char_traitsIcEENS_9allocatorIcEEEENS4_IS6_EEE20__throw_out_of_rangeB8ne200100Ev, symObjAddr: 0xC1C, symBinAddr: 0x7DC0, symSize: 0x14 }
  - { offset: 0x5F7A2, size: 0x8, addend: 0x0, symName: __ZNSt3__16vectorIN8facebook5react18jsinspector_modern7tracing22RuntimeSamplingProfile6SampleENS_9allocatorIS6_EEE9push_backB8ne200100EOS6_, symObjAddr: 0x7D0, symBinAddr: 0x7A0C, symSize: 0x64 }
  - { offset: 0x5FB01, size: 0x8, addend: 0x0, symName: __ZNSt3__110unique_ptrINS_6vectorINS_12basic_stringIcNS_11char_traitsIcEENS_9allocatorIcEEEENS5_IS7_EEEENS_14default_deleteIS9_EEE5resetB8ne200100EPS9_, symObjAddr: 0xFD0, symBinAddr: 0x80BC, symSize: 0x40 }
  - { offset: 0x5FC78, size: 0x8, addend: 0x0, symName: __ZNSt3__16vectorIN8facebook5react18jsinspector_modern7tracing22RuntimeSamplingProfile6SampleENS_9allocatorIS6_EEE16__destroy_vectorclB8ne200100Ev, symObjAddr: 0xEA0, symBinAddr: 0x7F8C, symSize: 0x40 }
  - { offset: 0x5FD37, size: 0x8, addend: 0x0, symName: __ZNSt3__119__allocate_at_leastB8ne200100INS_9allocatorIN8facebook5react18jsinspector_modern7tracing22RuntimeSamplingProfile20SampleCallStackFrameEEEEENS_19__allocation_resultINS_16allocator_traitsIT_E7pointerEEERSB_m, symObjAddr: 0xB9C, symBinAddr: 0x7D40, symSize: 0x34 }
  - { offset: 0x5FE50, size: 0x8, addend: 0x0, symName: __ZNSt3__114__split_bufferIN8facebook5react18jsinspector_modern7tracing22RuntimeSamplingProfile6SampleERNS_9allocatorIS6_EEED2Ev, symObjAddr: 0xA70, symBinAddr: 0x7C28, symSize: 0x34 }
  - { offset: 0x5FF32, size: 0x8, addend: 0x0, symName: __ZNSt3__16vectorIN8facebook5react18jsinspector_modern7tracing22RuntimeSamplingProfile6SampleENS_9allocatorIS6_EEE20__throw_length_errorB8ne200100Ev, symObjAddr: 0x834, symBinAddr: 0x7A70, symSize: 0x14 }
  - { offset: 0x60071, size: 0x8, addend: 0x0, symName: __ZNSt3__16vectorIN8facebook5react18jsinspector_modern7tracing22RuntimeSamplingProfile6SampleENS_9allocatorIS6_EEE24__emplace_back_slow_pathIJS6_EEEPS6_DpOT_, symObjAddr: 0xCA4, symBinAddr: 0x7E48, symSize: 0x144 }
  - { offset: 0x6050F, size: 0x8, addend: 0x0, symName: __ZNSt3__128__exception_guard_exceptionsINS_29_AllocatorDestroyRangeReverseINS_9allocatorIN8facebook5react18jsinspector_modern7tracing22RuntimeSamplingProfile6SampleEEEPS8_EEED2B8ne200100Ev, symObjAddr: 0x9F8, symBinAddr: 0x7BB0, symSize: 0x34 }
  - { offset: 0x60550, size: 0x8, addend: 0x0, symName: __ZNKSt3__129_AllocatorDestroyRangeReverseINS_9allocatorIN8facebook5react18jsinspector_modern7tracing22RuntimeSamplingProfile6SampleEEEPS7_EclB8ne200100Ev, symObjAddr: 0xA2C, symBinAddr: 0x7BE4, symSize: 0x44 }
  - { offset: 0x607AA, size: 0x8, addend: 0x0, symName: __ZNSt3__114__split_bufferIN8facebook5react18jsinspector_modern7tracing22RuntimeSamplingProfile6SampleERNS_9allocatorIS6_EEE17__destruct_at_endB8ne200100EPS6_, symObjAddr: 0xAA4, symBinAddr: 0x7C5C, symSize: 0x58 }
  - { offset: 0x607E4, size: 0x8, addend: 0x0, symName: __ZNSt3__114__split_bufferIN8facebook5react18jsinspector_modern7tracing22RuntimeSamplingProfile6SampleERNS_9allocatorIS6_EEE17__destruct_at_endB8ne200100EPS6_, symObjAddr: 0xAA4, symBinAddr: 0x7C5C, symSize: 0x58 }
  - { offset: 0x60A9F, size: 0x8, addend: 0x0, symName: __ZNSt3__16vectorINS_12basic_stringIcNS_11char_traitsIcEENS_9allocatorIcEEEENS4_IS6_EEE20__throw_out_of_rangeB8ne200100Ev, symObjAddr: 0xC1C, symBinAddr: 0x7DC0, symSize: 0x14 }
  - { offset: 0x60AB7, size: 0x8, addend: 0x0, symName: __ZNSt3__120__throw_out_of_rangeB8ne200100EPKc, symObjAddr: 0xC30, symBinAddr: 0x7DD4, symSize: 0x50 }
  - { offset: 0x60AC2, size: 0x8, addend: 0x0, symName: __ZNSt12out_of_rangeC1B8ne200100EPKc, symObjAddr: 0xC80, symBinAddr: 0x7E24, symSize: 0x24 }
  - { offset: 0x60D1A, size: 0x8, addend: 0x0, symName: __ZNSt3__16vectorIN8facebook5react18jsinspector_modern7tracing22RuntimeSamplingProfile6SampleENS_9allocatorIS6_EEE16__destroy_vectorclB8ne200100Ev, symObjAddr: 0xEA0, symBinAddr: 0x7F8C, symSize: 0x40 }
  - { offset: 0x60D25, size: 0x8, addend: 0x0, symName: __ZNSt3__16vectorIN8facebook5react18jsinspector_modern7tracing22RuntimeSamplingProfile6SampleENS_9allocatorIS6_EEE5clearB8ne200100Ev, symObjAddr: 0xEE0, symBinAddr: 0x7FCC, symSize: 0x4C }
  - { offset: 0x60F8C, size: 0x8, addend: 0x0, symName: __ZN8facebook5react18jsinspector_modern7tracing23RawHermesRuntimeProfileD1Ev, symObjAddr: 0xF2C, symBinAddr: 0x8018, symSize: 0x50 }
  - { offset: 0x6111E, size: 0x8, addend: 0x0, symName: __ZN8facebook5react18jsinspector_modern7tracing23RawHermesRuntimeProfileD0Ev, symObjAddr: 0xF7C, symBinAddr: 0x8068, symSize: 0x54 }
  - { offset: 0x6136A, size: 0x8, addend: 0x0, symName: __ZNSt3__16vectorINS_12basic_stringIcNS_11char_traitsIcEENS_9allocatorIcEEEENS4_IS6_EEE16__destroy_vectorclB8ne200100Ev, symObjAddr: 0x1010, symBinAddr: 0x80FC, symSize: 0x40 }
  - { offset: 0x61488, size: 0x8, addend: 0x0, symName: __ZNSt3__16vectorINS_12basic_stringIcNS_11char_traitsIcEENS_9allocatorIcEEEENS4_IS6_EEE5clearB8ne200100Ev, symObjAddr: 0x1050, symBinAddr: 0x813C, symSize: 0x4C }
  - { offset: 0x65391, size: 0x8, addend: 0x0, symName: __ZN8facebook6hermes14IHermesRootAPI4uuidE, symObjAddr: 0xC50, symBinAddr: 0x9250, symSize: 0x0 }
  - { offset: 0x74275, size: 0x8, addend: 0x0, symName: __ZN8facebook5react18jsinspector_modern27HermesRuntimeTargetDelegateC2ENSt3__110shared_ptrINS_6hermes13HermesRuntimeEEE, symObjAddr: 0x0, symBinAddr: 0x8188, symSize: 0xBC }
  - { offset: 0x744A5, size: 0x8, addend: 0x0, symName: __ZN8facebook5react18jsinspector_modern27HermesRuntimeTargetDelegate4ImplC2ERS2_NSt3__110shared_ptrINS_6hermes13HermesRuntimeEEE, symObjAddr: 0x76C, symBinAddr: 0x8728, symSize: 0xC8 }
  - { offset: 0x74893, size: 0x8, addend: 0x0, symName: __ZN8facebook5react18jsinspector_modern27HermesRuntimeTargetDelegateC1ENSt3__110shared_ptrINS_6hermes13HermesRuntimeEEE, symObjAddr: 0xBC, symBinAddr: 0x8244, symSize: 0x4 }
  - { offset: 0x748D2, size: 0x8, addend: 0x0, symName: __ZN8facebook5react18jsinspector_modern27HermesRuntimeTargetDelegateC1ENSt3__110shared_ptrINS_6hermes13HermesRuntimeEEE, symObjAddr: 0xBC, symBinAddr: 0x8244, symSize: 0x4 }
  - { offset: 0x74952, size: 0x8, addend: 0x0, symName: __ZN8facebook5react18jsinspector_modern27HermesRuntimeTargetDelegateD2Ev, symObjAddr: 0xC0, symBinAddr: 0x8248, symSize: 0x3C }
  - { offset: 0x749F7, size: 0x8, addend: 0x0, symName: __ZNKSt3__114default_deleteIN8facebook5react18jsinspector_modern27HermesRuntimeTargetDelegate4ImplEEclB8ne200100EPS5_, symObjAddr: 0x934, symBinAddr: 0x8898, symSize: 0x5C }
  - { offset: 0x74CC7, size: 0x8, addend: 0x0, symName: __ZN8facebook5react18jsinspector_modern27HermesRuntimeTargetDelegateD1Ev, symObjAddr: 0xFC, symBinAddr: 0x8284, symSize: 0x3C }
  - { offset: 0x74DA8, size: 0x8, addend: 0x0, symName: __ZN8facebook5react18jsinspector_modern27HermesRuntimeTargetDelegateD0Ev, symObjAddr: 0x138, symBinAddr: 0x82C0, symSize: 0x3C }
  - { offset: 0x75195, size: 0x8, addend: 0x0, symName: __ZN8facebook5react18jsinspector_modern27HermesRuntimeTargetDelegate19createAgentDelegateENSt3__18functionIFvNS3_17basic_string_viewIcNS3_11char_traitsIcEEEEEEERNS1_12SessionStateENS3_10unique_ptrINS1_20RuntimeAgentDelegate13ExportedStateENS3_14default_deleteISF_EEEERKNS1_27ExecutionContextDescriptionENS4_IFvONS4_IFvRNS_3jsi7RuntimeEEEEEEE, symObjAddr: 0x174, symBinAddr: 0x82FC, symSize: 0x16C }
  - { offset: 0x756D1, size: 0x8, addend: 0x0, symName: __ZNSt3__110__function12__value_funcIFvONS_8functionIFvRN8facebook3jsi7RuntimeEEEEEEC2B8ne200100EOSB_, symObjAddr: 0x990, symBinAddr: 0x88F4, symSize: 0x64 }
  - { offset: 0x75721, size: 0x8, addend: 0x0, symName: __ZN8facebook5react18jsinspector_modern27HermesRuntimeTargetDelegate19createAgentDelegateENSt3__18functionIFvNS3_17basic_string_viewIcNS3_11char_traitsIcEEEEEEERNS1_12SessionStateENS3_10unique_ptrINS1_20RuntimeAgentDelegate13ExportedStateENS3_14default_deleteISF_EEEERKNS1_27ExecutionContextDescriptionENS4_IFvONS4_IFvRNS_3jsi7RuntimeEEEEEEE.cold.1, symObjAddr: 0x9F4, symBinAddr: 0x8958, symSize: 0x60 }
  - { offset: 0x759FC, size: 0x8, addend: 0x0, symName: __ZN8facebook5react18jsinspector_modern27HermesRuntimeTargetDelegate17addConsoleMessageERNS_3jsi7RuntimeENS1_14ConsoleMessageE, symObjAddr: 0x2E0, symBinAddr: 0x8468, symSize: 0xB0 }
  - { offset: 0x75E00, size: 0x8, addend: 0x0, symName: __ZNSt3__16vectorIN8facebook3jsi5ValueENS_9allocatorIS3_EEE16__destroy_vectorclB8ne200100Ev, symObjAddr: 0x500, symBinAddr: 0x8678, symSize: 0x70 }
  - { offset: 0x75F5B, size: 0x8, addend: 0x0, symName: __ZNK8facebook5react18jsinspector_modern27HermesRuntimeTargetDelegate15supportsConsoleEv, symObjAddr: 0x390, symBinAddr: 0x8518, symSize: 0x8 }
  - { offset: 0x75F88, size: 0x8, addend: 0x0, symName: __ZNK8facebook5react18jsinspector_modern27HermesRuntimeTargetDelegate15supportsConsoleEv, symObjAddr: 0x390, symBinAddr: 0x8518, symSize: 0x8 }
  - { offset: 0x75FA6, size: 0x8, addend: 0x0, symName: __ZN8facebook5react18jsinspector_modern27HermesRuntimeTargetDelegate17captureStackTraceERNS_3jsi7RuntimeEm, symObjAddr: 0x398, symBinAddr: 0x8520, symSize: 0x8 }
  - { offset: 0x75FF1, size: 0x8, addend: 0x0, symName: __ZN8facebook5react18jsinspector_modern27HermesRuntimeTargetDelegate17captureStackTraceERNS_3jsi7RuntimeEm, symObjAddr: 0x398, symBinAddr: 0x8520, symSize: 0x8 }
  - { offset: 0x76047, size: 0x8, addend: 0x0, symName: __ZN8facebook5react18jsinspector_modern27HermesRuntimeTargetDelegate22enableSamplingProfilerEv, symObjAddr: 0x3A0, symBinAddr: 0x8528, symSize: 0x38 }
  - { offset: 0x760E8, size: 0x8, addend: 0x0, symName: __ZN8facebook5react18jsinspector_modern27HermesRuntimeTargetDelegate4Impl22enableSamplingProfilerEv, symObjAddr: 0x3D8, symBinAddr: 0x8560, symSize: 0x38 }
  - { offset: 0x761A7, size: 0x8, addend: 0x0, symName: __ZN8facebook5react18jsinspector_modern27HermesRuntimeTargetDelegate23disableSamplingProfilerEv, symObjAddr: 0x410, symBinAddr: 0x8598, symSize: 0x30 }
  - { offset: 0x76248, size: 0x8, addend: 0x0, symName: __ZN8facebook5react18jsinspector_modern27HermesRuntimeTargetDelegate4Impl23disableSamplingProfilerEv, symObjAddr: 0x440, symBinAddr: 0x85C8, symSize: 0x30 }
  - { offset: 0x762CF, size: 0x8, addend: 0x0, symName: __ZN8facebook5react18jsinspector_modern27HermesRuntimeTargetDelegate22collectSamplingProfileEv, symObjAddr: 0x470, symBinAddr: 0x85F8, symSize: 0x8 }
  - { offset: 0x762FC, size: 0x8, addend: 0x0, symName: __ZN8facebook5react18jsinspector_modern27HermesRuntimeTargetDelegate22collectSamplingProfileEv, symObjAddr: 0x470, symBinAddr: 0x85F8, symSize: 0x8 }
  - { offset: 0x76331, size: 0x8, addend: 0x0, symName: __ZN8facebook5react18jsinspector_modern27HermesRuntimeTargetDelegate4Impl22collectSamplingProfileEv, symObjAddr: 0x478, symBinAddr: 0x8600, symSize: 0x78 }
  - { offset: 0x7676A, size: 0x8, addend: 0x0, symName: __ZN8facebook6hermes17sampling_profiler7ProfileD1Ev, symObjAddr: 0x570, symBinAddr: 0x86E8, symSize: 0x40 }
  - { offset: 0x77272, size: 0x8, addend: 0x0, symName: __ZN8facebook5react18jsinspector_modern27HermesRuntimeTargetDelegate4ImplD1Ev, symObjAddr: 0x834, symBinAddr: 0x87F0, symSize: 0x54 }
  - { offset: 0x77509, size: 0x8, addend: 0x0, symName: __ZN8facebook5react18jsinspector_modern27HermesRuntimeTargetDelegate4ImplD0Ev, symObjAddr: 0x888, symBinAddr: 0x8844, symSize: 0x54 }
...
