---
triple:          'arm64-apple-darwin'
binary-path:     '/Users/uk-aplatts/Development/InjuryIQ/ios/DerivedData/Build/Intermediates.noindex/ArchiveIntermediates/InjuryIQ/IntermediateBuildFilesPath/UninstalledProducts/iphoneos/jsinspector_modernnetwork.framework/jsinspector_modernnetwork'
relocations:
  - { offset: 0x33, size: 0x8, addend: 0x0, symName: _jsinspector_modernnetworkVersionString, symObjAddr: 0x0, symBinAddr: 0xA6B0, symSize: 0x0 }
  - { offset: 0x67, size: 0x8, addend: 0x0, symName: _jsinspector_modernnetworkVersionNumber, symObjAddr: 0x38, symBinAddr: 0xA6E8, symSize: 0x0 }
  - { offset: 0x85AE, size: 0x8, addend: 0x0, symName: __ZNSt3__118__for_each_segmentB8ne200100INS_16__deque_iteratorINS_12basic_stringIcNS_11char_traitsIcEENS_9allocatorIcEEEEPS7_RS7_PS8_lLl170EEENS_11__move_implINS_17_ClassicAlgPolicyEE12_MoveSegmentISB_SB_EEEEvT_SH_T0_, symObjAddr: 0x15C0, symBinAddr: 0x55C0, symSize: 0xA0 }
  - { offset: 0x8952, size: 0x8, addend: 0x0, symName: __ZNSt3__120__throw_length_errorB8ne200100EPKc, symObjAddr: 0x918, symBinAddr: 0x4918, symSize: 0x50 }
  - { offset: 0x8AD9, size: 0x8, addend: 0x0, symName: __ZNSt3__112__destroy_atB8ne200100INS_4pairIKNS_12basic_stringIcNS_11char_traitsIcEENS_9allocatorIcEEEENS_10shared_ptrIKN8facebook5react18jsinspector_modern20BoundedRequestBuffer12ResponseBodyEEEEELi0EEEvPT_, symObjAddr: 0x11A0, symBinAddr: 0x51A0, symSize: 0x3C }
  - { offset: 0x98EF, size: 0x8, addend: 0x0, symName: __ZNSt3__119__allocate_at_leastB8ne200100INS_9allocatorIPNS_12basic_stringIcNS_11char_traitsIcEENS1_IcEEEEEEEENS_19__allocation_resultINS_16allocator_traitsIT_E7pointerEEERSB_m, symObjAddr: 0x249C, symBinAddr: 0x6398, symSize: 0x34 }
  - { offset: 0x9994, size: 0x8, addend: 0x0, symName: __ZNKSt3__112__hash_tableINS_17__hash_value_typeINS_12basic_stringIcNS_11char_traitsIcEENS_9allocatorIcEEEENS_10shared_ptrIKN8facebook5react18jsinspector_modern20BoundedRequestBuffer12ResponseBodyEEEEENS_22__unordered_map_hasherIS7_SG_NS_4hashIS7_EENS_8equal_toIS7_EELb1EEENS_21__unordered_map_equalIS7_SG_SL_SJ_Lb1EEENS5_ISG_EEE4findIS7_EENS_21__hash_const_iteratorIPNS_11__hash_nodeISG_PvEEEERKT_, symObjAddr: 0x24D0, symBinAddr: 0x63CC, symSize: 0xF8 }
  - { offset: 0xAF55, size: 0x8, addend: 0x0, symName: __ZSt28__throw_bad_array_new_lengthB8ne200100v, symObjAddr: 0x98C, symBinAddr: 0x498C, symSize: 0x28 }
  - { offset: 0xC0EA, size: 0x8, addend: 0x0, symName: __ZN8facebook5react18jsinspector_modern20BoundedRequestBuffer3putERKNSt3__112basic_stringIcNS3_11char_traitsIcEENS3_9allocatorIcEEEENS3_17basic_string_viewIcS6_EEb, symObjAddr: 0x0, symBinAddr: 0x4000, symSize: 0x34C }
  - { offset: 0xCCAF, size: 0x8, addend: 0x0, symName: __ZNSt3__112__hash_tableINS_17__hash_value_typeINS_12basic_stringIcNS_11char_traitsIcEENS_9allocatorIcEEEENS_10shared_ptrIKN8facebook5react18jsinspector_modern20BoundedRequestBuffer12ResponseBodyEEEEENS_22__unordered_map_hasherIS7_SG_NS_4hashIS7_EENS_8equal_toIS7_EELb1EEENS_21__unordered_map_equalIS7_SG_SL_SJ_Lb1EEENS5_ISG_EEE4findIS7_EENS_15__hash_iteratorIPNS_11__hash_nodeISG_PvEEEERKT_, symObjAddr: 0x9B4, symBinAddr: 0x49B4, symSize: 0xF8 }
  - { offset: 0xCEA4, size: 0x8, addend: 0x0, symName: __ZNSt3__112__hash_tableINS_17__hash_value_typeINS_12basic_stringIcNS_11char_traitsIcEENS_9allocatorIcEEEENS_10shared_ptrIKN8facebook5react18jsinspector_modern20BoundedRequestBuffer12ResponseBodyEEEEENS_22__unordered_map_hasherIS7_SG_NS_4hashIS7_EENS_8equal_toIS7_EELb1EEENS_21__unordered_map_equalIS7_SG_SL_SJ_Lb1EEENS5_ISG_EEE5eraseENS_21__hash_const_iteratorIPNS_11__hash_nodeISG_PvEEEE, symObjAddr: 0xFC4, symBinAddr: 0x4FC4, symSize: 0x58 }
  - { offset: 0xD0C4, size: 0x8, addend: 0x0, symName: __ZNSt3__15dequeINS_12basic_stringIcNS_11char_traitsIcEENS_9allocatorIcEEEENS4_IS6_EEE5eraseENS_16__deque_iteratorIS6_PKS6_RSA_PKSB_lLl170EEE, symObjAddr: 0x35C, symBinAddr: 0x435C, symSize: 0x2F0 }
  - { offset: 0xD80D, size: 0x8, addend: 0x0, symName: __ZNSt3__15dequeINS_12basic_stringIcNS_11char_traitsIcEENS_9allocatorIcEEEENS4_IS6_EEE9pop_frontEv, symObjAddr: 0x64C, symBinAddr: 0x464C, symSize: 0x74 }
  - { offset: 0xD9BC, size: 0x8, addend: 0x0, symName: __ZNSt3__112__hash_tableINS_17__hash_value_typeINS_12basic_stringIcNS_11char_traitsIcEENS_9allocatorIcEEEENS_10shared_ptrIKN8facebook5react18jsinspector_modern20BoundedRequestBuffer12ResponseBodyEEEEENS_22__unordered_map_hasherIS7_SG_NS_4hashIS7_EENS_8equal_toIS7_EELb1EEENS_21__unordered_map_equalIS7_SG_SL_SJ_Lb1EEENS5_ISG_EEE25__emplace_unique_key_argsIS7_JRKS7_NS8_ISD_EEEEENS_4pairINS_15__hash_iteratorIPNS_11__hash_nodeISG_PvEEEEbEERKT_DpOT0_, symObjAddr: 0x17F4, symBinAddr: 0x57F4, symSize: 0x258 }
  - { offset: 0xDE67, size: 0x8, addend: 0x0, symName: __ZNSt3__15dequeINS_12basic_stringIcNS_11char_traitsIcEENS_9allocatorIcEEEENS4_IS6_EEE9push_backERKS6_, symObjAddr: 0x6C0, symBinAddr: 0x46C0, symSize: 0xC8 }
  - { offset: 0xE203, size: 0x8, addend: 0x0, symName: __ZNSt3__116__deque_iteratorINS_12basic_stringIcNS_11char_traitsIcEENS_9allocatorIcEEEEPS6_RS6_PS7_lLl170EEpLB8ne200100El, symObjAddr: 0x1304, symBinAddr: 0x5304, symSize: 0x9C }
  - { offset: 0xE24F, size: 0x8, addend: 0x0, symName: __ZNKSt3__120__move_backward_implINS_17_ClassicAlgPolicyEEclB8ne200100INS_16__deque_iteratorINS_12basic_stringIcNS_11char_traitsIcEENS_9allocatorIcEEEEPSA_RSA_PSB_lLl170EEESE_Li0EEENS_4pairIT_T0_EESG_SG_SH_, symObjAddr: 0x13A0, symBinAddr: 0x53A0, symSize: 0xCC }
  - { offset: 0xE4B9, size: 0x8, addend: 0x0, symName: __ZNSt3__15dequeINS_12basic_stringIcNS_11char_traitsIcEENS_9allocatorIcEEEENS4_IS6_EEE26__maybe_remove_front_spareB8ne200100Eb, symObjAddr: 0x1234, symBinAddr: 0x5234, symSize: 0x5C }
  - { offset: 0xE652, size: 0x8, addend: 0x0, symName: __ZNSt3__15dequeINS_12basic_stringIcNS_11char_traitsIcEENS_9allocatorIcEEEENS4_IS6_EEE25__maybe_remove_back_spareB8ne200100Eb, symObjAddr: 0x1290, symBinAddr: 0x5290, symSize: 0x74 }
  - { offset: 0xE8EE, size: 0x8, addend: 0x0, symName: __ZNSt3__15dequeINS_12basic_stringIcNS_11char_traitsIcEENS_9allocatorIcEEEENS4_IS6_EEE19__add_back_capacityEv, symObjAddr: 0x1DD0, symBinAddr: 0x5DD0, symSize: 0x1B0 }
  - { offset: 0xF06F, size: 0x8, addend: 0x0, symName: __ZNSt3__112basic_stringIcNS_11char_traitsIcEENS_9allocatorIcEEE25__init_copy_ctor_externalEPKcm, symObjAddr: 0x1B24, symBinAddr: 0x5B24, symSize: 0x80 }
  - { offset: 0xF242, size: 0x8, addend: 0x0, symName: __ZNSt3__112__hash_tableINS_17__hash_value_typeINS_12basic_stringIcNS_11char_traitsIcEENS_9allocatorIcEEEENS_10shared_ptrIKN8facebook5react18jsinspector_modern20BoundedRequestBuffer12ResponseBodyEEEEENS_22__unordered_map_hasherIS7_SG_NS_4hashIS7_EENS_8equal_toIS7_EELb1EEENS_21__unordered_map_equalIS7_SG_SL_SJ_Lb1EEENS5_ISG_EEE8__rehashILb1EEEvm, symObjAddr: 0x1BA4, symBinAddr: 0x5BA4, symSize: 0xDC }
  - { offset: 0xF339, size: 0x8, addend: 0x0, symName: __ZNK8facebook5react18jsinspector_modern20BoundedRequestBuffer3getERKNSt3__112basic_stringIcNS3_11char_traitsIcEENS3_9allocatorIcEEEE, symObjAddr: 0x788, symBinAddr: 0x4788, symSize: 0x4C }
  - { offset: 0xF4A8, size: 0x8, addend: 0x0, symName: __ZNKSt3__112__hash_tableINS_17__hash_value_typeINS_12basic_stringIcNS_11char_traitsIcEENS_9allocatorIcEEEENS_10shared_ptrIKN8facebook5react18jsinspector_modern20BoundedRequestBuffer12ResponseBodyEEEEENS_22__unordered_map_hasherIS7_SG_NS_4hashIS7_EENS_8equal_toIS7_EELb1EEENS_21__unordered_map_equalIS7_SG_SL_SJ_Lb1EEENS5_ISG_EEE4findIS7_EENS_21__hash_const_iteratorIPNS_11__hash_nodeISG_PvEEEERKT_, symObjAddr: 0x24D0, symBinAddr: 0x63CC, symSize: 0xF8 }
  - { offset: 0xF7CC, size: 0x8, addend: 0x0, symName: __ZN8facebook5react18jsinspector_modern20BoundedRequestBuffer5clearEv, symObjAddr: 0x7D4, symBinAddr: 0x47D4, symSize: 0x130 }
  - { offset: 0xFB78, size: 0x8, addend: 0x0, symName: __ZNSt3__112__hash_tableINS_17__hash_value_typeINS_12basic_stringIcNS_11char_traitsIcEENS_9allocatorIcEEEENS_10shared_ptrIKN8facebook5react18jsinspector_modern20BoundedRequestBuffer12ResponseBodyEEEEENS_22__unordered_map_hasherIS7_SG_NS_4hashIS7_EENS_8equal_toIS7_EELb1EEENS_21__unordered_map_equalIS7_SG_SL_SJ_Lb1EEENS5_ISG_EEE5clearEv, symObjAddr: 0x25C8, symBinAddr: 0x64C4, symSize: 0x54 }
  - { offset: 0xFC4E, size: 0x8, addend: 0x0, symName: __ZNSt3__112basic_stringIcNS_11char_traitsIcEENS_9allocatorIcEEE20__throw_length_errorB8ne200100Ev, symObjAddr: 0x904, symBinAddr: 0x4904, symSize: 0x14 }
  - { offset: 0xFC65, size: 0x8, addend: 0x0, symName: __ZNSt3__120__throw_length_errorB8ne200100EPKc, symObjAddr: 0x918, symBinAddr: 0x4918, symSize: 0x50 }
  - { offset: 0xFC70, size: 0x8, addend: 0x0, symName: __ZNSt12length_errorC1B8ne200100EPKc, symObjAddr: 0x968, symBinAddr: 0x4968, symSize: 0x24 }
  - { offset: 0xFDE6, size: 0x8, addend: 0x0, symName: __ZNKSt3__113__string_hashIcNS_9allocatorIcEEEclB8ne200100ERKNS_12basic_stringIcNS_11char_traitsIcEES2_EE, symObjAddr: 0xAAC, symBinAddr: 0x4AAC, symSize: 0x3C }
  - { offset: 0xFEB6, size: 0x8, addend: 0x0, symName: __ZNKSt3__18equal_toINS_12basic_stringIcNS_11char_traitsIcEENS_9allocatorIcEEEEEclB8ne200100ERKS6_S9_, symObjAddr: 0xF54, symBinAddr: 0x4F54, symSize: 0x70 }
  - { offset: 0xFF01, size: 0x8, addend: 0x0, symName: __ZNKSt3__18equal_toINS_12basic_stringIcNS_11char_traitsIcEENS_9allocatorIcEEEEEclB8ne200100ERKS6_S9_, symObjAddr: 0xF54, symBinAddr: 0x4F54, symSize: 0x70 }
  - { offset: 0xFF31, size: 0x8, addend: 0x0, symName: __ZNKSt3__18equal_toINS_12basic_stringIcNS_11char_traitsIcEENS_9allocatorIcEEEEEclB8ne200100ERKS6_S9_, symObjAddr: 0xF54, symBinAddr: 0x4F54, symSize: 0x70 }
  - { offset: 0xFF4D, size: 0x8, addend: 0x0, symName: __ZNKSt3__18equal_toINS_12basic_stringIcNS_11char_traitsIcEENS_9allocatorIcEEEEEclB8ne200100ERKS6_S9_, symObjAddr: 0xF54, symBinAddr: 0x4F54, symSize: 0x70 }
  - { offset: 0x10050, size: 0x8, addend: 0x0, symName: __ZNKSt3__121__murmur2_or_cityhashImLm64EEclB8ne200100EPKvm, symObjAddr: 0xAE8, symBinAddr: 0x4AE8, symSize: 0x208 }
  - { offset: 0x106AA, size: 0x8, addend: 0x0, symName: __ZNSt3__121__murmur2_or_cityhashImLm64EE18__hash_len_0_to_16B8ne200100EPKcm, symObjAddr: 0xCF0, symBinAddr: 0x4CF0, symSize: 0xF8 }
  - { offset: 0x108B1, size: 0x8, addend: 0x0, symName: __ZNSt3__121__murmur2_or_cityhashImLm64EE19__hash_len_33_to_64B8ne200100EPKcm, symObjAddr: 0xE94, symBinAddr: 0x4E94, symSize: 0xC0 }
  - { offset: 0x10B16, size: 0x8, addend: 0x0, symName: __ZNSt3__121__murmur2_or_cityhashImLm64EE19__hash_len_17_to_32B8ne200100EPKcm, symObjAddr: 0xDE8, symBinAddr: 0x4DE8, symSize: 0xAC }
  - { offset: 0x10DBE, size: 0x8, addend: 0x0, symName: __ZNSt3__112__hash_tableINS_17__hash_value_typeINS_12basic_stringIcNS_11char_traitsIcEENS_9allocatorIcEEEENS_10shared_ptrIKN8facebook5react18jsinspector_modern20BoundedRequestBuffer12ResponseBodyEEEEENS_22__unordered_map_hasherIS7_SG_NS_4hashIS7_EENS_8equal_toIS7_EELb1EEENS_21__unordered_map_equalIS7_SG_SL_SJ_Lb1EEENS5_ISG_EEE6removeENS_21__hash_const_iteratorIPNS_11__hash_nodeISG_PvEEEE, symObjAddr: 0x101C, symBinAddr: 0x501C, symSize: 0x13C }
  - { offset: 0x10E38, size: 0x8, addend: 0x0, symName: __ZNSt3__112__hash_tableINS_17__hash_value_typeINS_12basic_stringIcNS_11char_traitsIcEENS_9allocatorIcEEEENS_10shared_ptrIKN8facebook5react18jsinspector_modern20BoundedRequestBuffer12ResponseBodyEEEEENS_22__unordered_map_hasherIS7_SG_NS_4hashIS7_EENS_8equal_toIS7_EELb1EEENS_21__unordered_map_equalIS7_SG_SL_SJ_Lb1EEENS5_ISG_EEE6removeENS_21__hash_const_iteratorIPNS_11__hash_nodeISG_PvEEEE, symObjAddr: 0x101C, symBinAddr: 0x501C, symSize: 0x13C }
  - { offset: 0x10E54, size: 0x8, addend: 0x0, symName: __ZNSt3__112__hash_tableINS_17__hash_value_typeINS_12basic_stringIcNS_11char_traitsIcEENS_9allocatorIcEEEENS_10shared_ptrIKN8facebook5react18jsinspector_modern20BoundedRequestBuffer12ResponseBodyEEEEENS_22__unordered_map_hasherIS7_SG_NS_4hashIS7_EENS_8equal_toIS7_EELb1EEENS_21__unordered_map_equalIS7_SG_SL_SJ_Lb1EEENS5_ISG_EEE6removeENS_21__hash_const_iteratorIPNS_11__hash_nodeISG_PvEEEE, symObjAddr: 0x101C, symBinAddr: 0x501C, symSize: 0x13C }
  - { offset: 0x1112B, size: 0x8, addend: 0x0, symName: __ZNSt3__110unique_ptrINS_11__hash_nodeINS_17__hash_value_typeINS_12basic_stringIcNS_11char_traitsIcEENS_9allocatorIcEEEENS_10shared_ptrIKN8facebook5react18jsinspector_modern20BoundedRequestBuffer12ResponseBodyEEEEEPvEENS_22__hash_node_destructorINS6_ISJ_EEEEE5resetB8ne200100EPSJ_, symObjAddr: 0x1158, symBinAddr: 0x5158, symSize: 0x48 }
  - { offset: 0x112BD, size: 0x8, addend: 0x0, symName: __ZNSt3__110shared_ptrIKN8facebook5react18jsinspector_modern20BoundedRequestBuffer12ResponseBodyEED2B8ne200100Ev, symObjAddr: 0x11DC, symBinAddr: 0x51DC, symSize: 0x58 }
  - { offset: 0x1146B, size: 0x8, addend: 0x0, symName: __ZNKSt3__120__move_backward_implINS_17_ClassicAlgPolicyEEclB8ne200100IPNS_12basic_stringIcNS_11char_traitsIcEENS_9allocatorIcEEEENS_16__deque_iteratorIS9_SA_RS9_PSA_lLl170EEELi0EEENS_4pairIT_T0_EESG_SG_SH_, symObjAddr: 0x146C, symBinAddr: 0x546C, symSize: 0xD8 }
  - { offset: 0x11649, size: 0x8, addend: 0x0, symName: __ZNKSt3__120__move_backward_implINS_17_ClassicAlgPolicyEEclB8ne200100IPNS_12basic_stringIcNS_11char_traitsIcEENS_9allocatorIcEEEESA_SA_EENS_4pairIT_T1_EESC_T0_SD_, symObjAddr: 0x1544, symBinAddr: 0x5544, symSize: 0x7C }
  - { offset: 0x118AB, size: 0x8, addend: 0x0, symName: __ZNKSt3__111__move_implINS_17_ClassicAlgPolicyEEclB8ne200100IPNS_12basic_stringIcNS_11char_traitsIcEENS_9allocatorIcEEEENS_16__deque_iteratorIS9_SA_RS9_PSA_lLl170EEELi0EEENS_4pairIT_T0_EESG_SG_SH_, symObjAddr: 0x1660, symBinAddr: 0x5660, symSize: 0xD4 }
  - { offset: 0x11B1F, size: 0x8, addend: 0x0, symName: __ZNKSt3__111__move_implINS_17_ClassicAlgPolicyEEclB8ne200100IPNS_12basic_stringIcNS_11char_traitsIcEENS_9allocatorIcEEEESA_SA_EENS_4pairIT_T1_EESC_T0_SD_, symObjAddr: 0x1734, symBinAddr: 0x5734, symSize: 0x70 }
  - { offset: 0x11CF5, size: 0x8, addend: 0x0, symName: __ZNSt3__120__shared_ptr_emplaceIN8facebook5react18jsinspector_modern20BoundedRequestBuffer12ResponseBodyENS_9allocatorIS5_EEED1Ev, symObjAddr: 0x17A4, symBinAddr: 0x57A4, symSize: 0x14 }
  - { offset: 0x11D17, size: 0x8, addend: 0x0, symName: __ZNSt3__120__shared_ptr_emplaceIN8facebook5react18jsinspector_modern20BoundedRequestBuffer12ResponseBodyENS_9allocatorIS5_EEED1Ev, symObjAddr: 0x17A4, symBinAddr: 0x57A4, symSize: 0x14 }
  - { offset: 0x11D4D, size: 0x8, addend: 0x0, symName: __ZNSt3__120__shared_ptr_emplaceIN8facebook5react18jsinspector_modern20BoundedRequestBuffer12ResponseBodyENS_9allocatorIS5_EEED0Ev, symObjAddr: 0x17B8, symBinAddr: 0x57B8, symSize: 0x24 }
  - { offset: 0x11E18, size: 0x8, addend: 0x0, symName: __ZNSt3__120__shared_ptr_emplaceIN8facebook5react18jsinspector_modern20BoundedRequestBuffer12ResponseBodyENS_9allocatorIS5_EEE16__on_zero_sharedEv, symObjAddr: 0x17DC, symBinAddr: 0x57DC, symSize: 0x14 }
  - { offset: 0x11ED6, size: 0x8, addend: 0x0, symName: __ZNSt3__120__shared_ptr_emplaceIN8facebook5react18jsinspector_modern20BoundedRequestBuffer12ResponseBodyENS_9allocatorIS5_EEE16__on_zero_sharedEv, symObjAddr: 0x17DC, symBinAddr: 0x57DC, symSize: 0x14 }
  - { offset: 0x11FEF, size: 0x8, addend: 0x0, symName: __ZNSt3__120__shared_ptr_emplaceIN8facebook5react18jsinspector_modern20BoundedRequestBuffer12ResponseBodyENS_9allocatorIS5_EEE21__on_zero_shared_weakEv, symObjAddr: 0x17F0, symBinAddr: 0x57F0, symSize: 0x4 }
  - { offset: 0x12021, size: 0x8, addend: 0x0, symName: __ZNSt3__120__shared_ptr_emplaceIN8facebook5react18jsinspector_modern20BoundedRequestBuffer12ResponseBodyENS_9allocatorIS5_EEE21__on_zero_shared_weakEv, symObjAddr: 0x17F0, symBinAddr: 0x57F0, symSize: 0x4 }
  - { offset: 0x12042, size: 0x8, addend: 0x0, symName: __ZNSt3__120__shared_ptr_emplaceIN8facebook5react18jsinspector_modern20BoundedRequestBuffer12ResponseBodyENS_9allocatorIS5_EEE21__on_zero_shared_weakEv, symObjAddr: 0x17F0, symBinAddr: 0x57F0, symSize: 0x4 }
  - { offset: 0x12064, size: 0x8, addend: 0x0, symName: __ZNSt3__120__shared_ptr_emplaceIN8facebook5react18jsinspector_modern20BoundedRequestBuffer12ResponseBodyENS_9allocatorIS5_EEE21__on_zero_shared_weakEv, symObjAddr: 0x17F0, symBinAddr: 0x57F0, symSize: 0x4 }
  - { offset: 0x12096, size: 0x8, addend: 0x0, symName: __ZNSt3__120__shared_ptr_emplaceIN8facebook5react18jsinspector_modern20BoundedRequestBuffer12ResponseBodyENS_9allocatorIS5_EEE21__on_zero_shared_weakEv, symObjAddr: 0x17F0, symBinAddr: 0x57F0, symSize: 0x4 }
  - { offset: 0x1211E, size: 0x8, addend: 0x0, symName: __ZNSt3__112__hash_tableINS_17__hash_value_typeINS_12basic_stringIcNS_11char_traitsIcEENS_9allocatorIcEEEENS_10shared_ptrIKN8facebook5react18jsinspector_modern20BoundedRequestBuffer12ResponseBodyEEEEENS_22__unordered_map_hasherIS7_SG_NS_4hashIS7_EENS_8equal_toIS7_EELb1EEENS_21__unordered_map_equalIS7_SG_SL_SJ_Lb1EEENS5_ISG_EEE21__construct_node_hashIRKS7_JNS8_ISD_EEEEENS_10unique_ptrINS_11__hash_nodeISG_PvEENS_22__hash_node_destructorINS5_ISY_EEEEEEmOT_DpOT0_, symObjAddr: 0x1A4C, symBinAddr: 0x5A4C, symSize: 0x7C }
  - { offset: 0x12462, size: 0x8, addend: 0x0, symName: __ZNSt3__112__hash_tableINS_17__hash_value_typeINS_12basic_stringIcNS_11char_traitsIcEENS_9allocatorIcEEEENS_10shared_ptrIKN8facebook5react18jsinspector_modern20BoundedRequestBuffer12ResponseBodyEEEEENS_22__unordered_map_hasherIS7_SG_NS_4hashIS7_EENS_8equal_toIS7_EELb1EEENS_21__unordered_map_equalIS7_SG_SL_SJ_Lb1EEENS5_ISG_EEE8__rehashILb1EEEvm, symObjAddr: 0x1BA4, symBinAddr: 0x5BA4, symSize: 0xDC }
  - { offset: 0x126C9, size: 0x8, addend: 0x0, symName: __ZNSt3__14pairIKNS_12basic_stringIcNS_11char_traitsIcEENS_9allocatorIcEEEENS_10shared_ptrIKN8facebook5react18jsinspector_modern20BoundedRequestBuffer12ResponseBodyEEEEC2B8ne200100IRS7_NS8_ISD_EELi0EEEOT_OT0_, symObjAddr: 0x1AC8, symBinAddr: 0x5AC8, symSize: 0x5C }
  - { offset: 0x12878, size: 0x8, addend: 0x0, symName: __ZNSt3__112__hash_tableINS_17__hash_value_typeINS_12basic_stringIcNS_11char_traitsIcEENS_9allocatorIcEEEENS_10shared_ptrIKN8facebook5react18jsinspector_modern20BoundedRequestBuffer12ResponseBodyEEEEENS_22__unordered_map_hasherIS7_SG_NS_4hashIS7_EENS_8equal_toIS7_EELb1EEENS_21__unordered_map_equalIS7_SG_SL_SJ_Lb1EEENS5_ISG_EEE11__do_rehashILb1EEEvm, symObjAddr: 0x1C80, symBinAddr: 0x5C80, symSize: 0x150 }
  - { offset: 0x12C7F, size: 0x8, addend: 0x0, symName: __ZNSt3__15dequeINS_12basic_stringIcNS_11char_traitsIcEENS_9allocatorIcEEEENS4_IS6_EEE19__add_back_capacityEv, symObjAddr: 0x1DD0, symBinAddr: 0x5DD0, symSize: 0x1B0 }
  - { offset: 0x13067, size: 0x8, addend: 0x0, symName: __ZNSt3__114__split_bufferIPNS_12basic_stringIcNS_11char_traitsIcEENS_9allocatorIcEEEENS4_IS7_EEE12emplace_backIJRS7_EEEvDpOT_, symObjAddr: 0x1F80, symBinAddr: 0x5F80, symSize: 0x104 }
  - { offset: 0x1371C, size: 0x8, addend: 0x0, symName: __ZNSt3__114__split_bufferIPNS_12basic_stringIcNS_11char_traitsIcEENS_9allocatorIcEEEERNS4_IS7_EEE12emplace_backIJS7_EEEvDpOT_, symObjAddr: 0x2290, symBinAddr: 0x618C, symSize: 0x104 }
  - { offset: 0x13B38, size: 0x8, addend: 0x0, symName: __ZNSt3__114__split_bufferIPNS_12basic_stringIcNS_11char_traitsIcEENS_9allocatorIcEEEERNS4_IS7_EEE13emplace_frontIJRS7_EEEvDpOT_, symObjAddr: 0x2394, symBinAddr: 0x6290, symSize: 0x108 }
  - { offset: 0x13F77, size: 0x8, addend: 0x0, symName: __ZNSt3__114__split_bufferIPNS_12basic_stringIcNS_11char_traitsIcEENS_9allocatorIcEEEENS4_IS7_EEE13emplace_frontIJS7_EEEvDpOT_, symObjAddr: 0x2188, symBinAddr: 0x6084, symSize: 0x108 }
  - { offset: 0x145BD, size: 0x8, addend: 0x0, symName: __ZNSt3__112__hash_tableINS_17__hash_value_typeINS_12basic_stringIcNS_11char_traitsIcEENS_9allocatorIcEEEENS_10shared_ptrIKN8facebook5react18jsinspector_modern20BoundedRequestBuffer12ResponseBodyEEEEENS_22__unordered_map_hasherIS7_SG_NS_4hashIS7_EENS_8equal_toIS7_EELb1EEENS_21__unordered_map_equalIS7_SG_SL_SJ_Lb1EEENS5_ISG_EEE17__deallocate_nodeEPNS_16__hash_node_baseIPNS_11__hash_nodeISG_PvEEEE, symObjAddr: 0x261C, symBinAddr: 0x6518, symSize: 0x3C }
  - { offset: 0x16B5B, size: 0x8, addend: 0x0, symName: __ZNSt3__119piecewise_constructE, symObjAddr: 0x3406, symBinAddr: 0xA77D, symSize: 0x0 }
  - { offset: 0x2494E, size: 0x8, addend: 0x0, symName: __ZNSt3__1eqB8ne200100IcNS_11char_traitsIcEENS_9allocatorIcEEEEbRKNS_12basic_stringIT_T0_T1_EEPKS6_, symObjAddr: 0x1E74, symBinAddr: 0x83C8, symSize: 0x80 }
  - { offset: 0x24DC5, size: 0x8, addend: 0x0, symName: __ZNSt3__1ssB8ne200100IcNS_11char_traitsIcEENS_9allocatorIcEEEEDaRKNS_12basic_stringIT_T0_T1_EESC_, symObjAddr: 0x24B0, symBinAddr: 0x88C4, symSize: 0x38 }
  - { offset: 0x24E09, size: 0x8, addend: 0x0, symName: __ZNSt3__1ssB8ne200100IcNS_11char_traitsIcEENS_9allocatorIcEEEEDaRKNS_12basic_stringIT_T0_T1_EESC_, symObjAddr: 0x24B0, symBinAddr: 0x88C4, symSize: 0x38 }
  - { offset: 0x24E27, size: 0x8, addend: 0x0, symName: __ZNSt3__1ssB8ne200100IcNS_11char_traitsIcEENS_9allocatorIcEEEEDaRKNS_12basic_stringIT_T0_T1_EESC_, symObjAddr: 0x24B0, symBinAddr: 0x88C4, symSize: 0x38 }
  - { offset: 0x24E45, size: 0x8, addend: 0x0, symName: __ZNSt3__1ssB8ne200100IcNS_11char_traitsIcEENS_9allocatorIcEEEEDaRKNS_12basic_stringIT_T0_T1_EESC_, symObjAddr: 0x24B0, symBinAddr: 0x88C4, symSize: 0x38 }
  - { offset: 0x24E63, size: 0x8, addend: 0x0, symName: __ZNSt3__1ssB8ne200100IcNS_11char_traitsIcEENS_9allocatorIcEEEEDaRKNS_12basic_stringIT_T0_T1_EESC_, symObjAddr: 0x24B0, symBinAddr: 0x88C4, symSize: 0x38 }
  - { offset: 0x25029, size: 0x8, addend: 0x0, symName: __ZNSt3__127__tree_balance_after_insertB8ne200100IPNS_16__tree_node_baseIPvEEEEvT_S5_, symObjAddr: 0x25D4, symBinAddr: 0x89E8, symSize: 0x19C }
  - { offset: 0x25356, size: 0x8, addend: 0x0, symName: __ZNSt3__1ssB8ne200100IcNS_11char_traitsIcEEEEDaNS_17basic_string_viewIT_T0_EENS_13type_identityIS7_E4typeE, symObjAddr: 0x24E8, symBinAddr: 0x88FC, symSize: 0x5C }
  - { offset: 0x254FD, size: 0x8, addend: 0x0, symName: __ZNSt3__112__destroy_atB8ne200100INS_4pairIKNS_12basic_stringIcNS_11char_traitsIcEENS_9allocatorIcEEEES7_EELi0EEEvPT_, symObjAddr: 0x27B8, symBinAddr: 0x8BCC, symSize: 0x44 }
  - { offset: 0x25C5F, size: 0x8, addend: 0x0, symName: __ZNSt3__120__throw_out_of_rangeB8ne200100EPKc, symObjAddr: 0x2EFC, symBinAddr: 0x90E4, symSize: 0x50 }
  - { offset: 0x2BD19, size: 0x8, addend: 0x0, symName: __ZN8facebook5react18jsinspector_modern3cdp7network12_GLOBAL__N_116headersToDynamicERKNSt3__18optionalINS5_3mapINS5_12basic_stringIcNS5_11char_traitsIcEENS5_9allocatorIcEEEESD_NS5_4lessISD_EENSB_INS5_4pairIKSD_SD_EEEEEEEE, symObjAddr: 0x368, symBinAddr: 0x68BC, symSize: 0x19C }
  - { offset: 0x2C66B, size: 0x8, addend: 0x0, symName: __ZN8facebook5react18jsinspector_modern3cdp7network24resourceTypeFromMimeTypeERKNSt3__112basic_stringIcNS4_11char_traitsIcEENS4_9allocatorIcEEEE, symObjAddr: 0x1A7C, symBinAddr: 0x7FD0, symSize: 0x330 }
  - { offset: 0x2CD6C, size: 0x8, addend: 0x0, symName: __ZN8facebook5react18jsinspector_modern3cdp7network7Request15fromInputParamsERKNS1_11RequestInfoE, symObjAddr: 0x0, symBinAddr: 0x6554, symSize: 0xDC }
  - { offset: 0x2D347, size: 0x8, addend: 0x0, symName: __ZNSt3__120__optional_copy_baseINS_3mapINS_12basic_stringIcNS_11char_traitsIcEENS_9allocatorIcEEEES7_NS_4lessIS7_EENS5_INS_4pairIKS7_S7_EEEEEELb0EEC2B8ne200100ERKSF_, symObjAddr: 0x2034, symBinAddr: 0x8448, symSize: 0x68 }
  - { offset: 0x2D583, size: 0x8, addend: 0x0, symName: __ZNSt3__120__optional_copy_baseINS_12basic_stringIcNS_11char_traitsIcEENS_9allocatorIcEEEELb0EEC2B8ne200100ERKS7_, symObjAddr: 0x2844, symBinAddr: 0x8C58, symSize: 0x4C }
  - { offset: 0x2D6A5, size: 0x8, addend: 0x0, symName: __ZNSt3__16__treeINS_12__value_typeINS_12basic_stringIcNS_11char_traitsIcEENS_9allocatorIcEEEES7_EENS_19__map_value_compareIS7_S8_NS_4lessIS7_EELb1EEENS5_IS8_EEE7destroyEPNS_11__tree_nodeIS8_PvEE, symObjAddr: 0x27FC, symBinAddr: 0x8C10, symSize: 0x48 }
  - { offset: 0x2D9E2, size: 0x8, addend: 0x0, symName: __ZNK8facebook5react18jsinspector_modern3cdp7network7Request9toDynamicEv, symObjAddr: 0xDC, symBinAddr: 0x6630, symSize: 0x28C }
  - { offset: 0x2E601, size: 0x8, addend: 0x0, symName: __ZNKRSt3__18optionalINS_12basic_stringIcNS_11char_traitsIcEENS_9allocatorIcEEEEE8value_orB8ne200100IRA1_KcEES6_OT_, symObjAddr: 0x504, symBinAddr: 0x6A58, symSize: 0x3C }
  - { offset: 0x2E63B, size: 0x8, addend: 0x0, symName: __ZNKRSt3__18optionalINS_12basic_stringIcNS_11char_traitsIcEENS_9allocatorIcEEEEE8value_orB8ne200100IRA1_KcEES6_OT_, symObjAddr: 0x504, symBinAddr: 0x6A58, symSize: 0x3C }
  - { offset: 0x2E8D2, size: 0x8, addend: 0x0, symName: __ZNSt3__112basic_stringIcNS_11char_traitsIcEENS_9allocatorIcEEEC2B8ne200100ILi0EEEPKc, symObjAddr: 0x2E44, symBinAddr: 0x902C, symSize: 0xA4 }
  - { offset: 0x2EB29, size: 0x8, addend: 0x0, symName: __ZNSt3__112basic_stringIcNS_11char_traitsIcEENS_9allocatorIcEEE20__throw_out_of_rangeB8ne200100Ev, symObjAddr: 0x2EE8, symBinAddr: 0x90D0, symSize: 0x14 }
  - { offset: 0x2EE28, size: 0x8, addend: 0x0, symName: __ZN8facebook5react18jsinspector_modern3cdp7network8Response15fromInputParamsERKNS1_12ResponseInfoEi, symObjAddr: 0x540, symBinAddr: 0x6A94, symSize: 0x160 }
  - { offset: 0x2F72C, size: 0x8, addend: 0x0, symName: __ZNSt3__13mapINS_12basic_stringIcNS_11char_traitsIcEENS_9allocatorIcEEEES6_NS_4lessIS6_EENS4_INS_4pairIKS6_S6_EEEEEC2B8ne200100ERKSD_, symObjAddr: 0x209C, symBinAddr: 0x84B0, symSize: 0x54 }
  - { offset: 0x2F921, size: 0x8, addend: 0x0, symName: __ZNK8facebook5react18jsinspector_modern3cdp7network8Response9toDynamicEv, symObjAddr: 0x6A0, symBinAddr: 0x6BF4, symSize: 0x324 }
  - { offset: 0x3074E, size: 0x8, addend: 0x0, symName: __ZNK8facebook5react18jsinspector_modern3cdp7network23RequestWillBeSentParams9toDynamicEv, symObjAddr: 0x9C4, symBinAddr: 0x6F18, symSize: 0x3C8 }
  - { offset: 0x31A85, size: 0x8, addend: 0x0, symName: __ZNK8facebook5react18jsinspector_modern3cdp7network32RequestWillBeSentExtraInfoParams9toDynamicEv, symObjAddr: 0xD8C, symBinAddr: 0x72E0, symSize: 0x340 }
  - { offset: 0x32B32, size: 0x8, addend: 0x0, symName: __ZN5folly7dynamic11ObjectMakerC2ES0_S0_, symObjAddr: 0x28EC, symBinAddr: 0x8D00, symSize: 0x84 }
  - { offset: 0x32D37, size: 0x8, addend: 0x0, symName: __ZNK8facebook5react18jsinspector_modern3cdp7network22ResponseReceivedParams9toDynamicEv, symObjAddr: 0x10CC, symBinAddr: 0x7620, symSize: 0x32C }
  - { offset: 0x33A6C, size: 0x8, addend: 0x0, symName: __ZNK8facebook5react18jsinspector_modern3cdp7network18DataReceivedParams9toDynamicEv, symObjAddr: 0x13F8, symBinAddr: 0x794C, symSize: 0x1EC }
  - { offset: 0x33FF8, size: 0x8, addend: 0x0, symName: __ZNK8facebook5react18jsinspector_modern3cdp7network19LoadingFailedParams9toDynamicEv, symObjAddr: 0x15E4, symBinAddr: 0x7B38, symSize: 0x2E8 }
  - { offset: 0x34C0D, size: 0x8, addend: 0x0, symName: __ZNK8facebook5react18jsinspector_modern3cdp7network21LoadingFinishedParams9toDynamicEv, symObjAddr: 0x18CC, symBinAddr: 0x7E20, symSize: 0x1B0 }
  - { offset: 0x35276, size: 0x8, addend: 0x0, symName: __ZNKSt3__112basic_stringIcNS_11char_traitsIcEENS_9allocatorIcEEE4findB8ne200100EPKcm, symObjAddr: 0x1DAC, symBinAddr: 0x8300, symSize: 0xC8 }
  - { offset: 0x354F9, size: 0x8, addend: 0x0, symName: __ZNSt3__112basic_stringIcNS_11char_traitsIcEENS_9allocatorIcEEE20__throw_out_of_rangeB8ne200100Ev, symObjAddr: 0x2EE8, symBinAddr: 0x90D0, symSize: 0x14 }
  - { offset: 0x35510, size: 0x8, addend: 0x0, symName: __ZNSt3__120__throw_out_of_rangeB8ne200100EPKc, symObjAddr: 0x2EFC, symBinAddr: 0x90E4, symSize: 0x50 }
  - { offset: 0x35789, size: 0x8, addend: 0x0, symName: __ZNSt3__13mapINS_12basic_stringIcNS_11char_traitsIcEENS_9allocatorIcEEEES6_NS_4lessIS6_EENS4_INS_4pairIKS6_S6_EEEEE6insertB8ne200100INS_20__map_const_iteratorINS_21__tree_const_iteratorINS_12__value_typeIS6_S6_EEPNS_11__tree_nodeISI_PvEElEEEEEEvT_SP_, symObjAddr: 0x20F0, symBinAddr: 0x8504, symSize: 0x80 }
  - { offset: 0x357D1, size: 0x8, addend: 0x0, symName: __ZNSt3__13mapINS_12basic_stringIcNS_11char_traitsIcEENS_9allocatorIcEEEES6_NS_4lessIS6_EENS4_INS_4pairIKS6_S6_EEEEE6insertB8ne200100INS_20__map_const_iteratorINS_21__tree_const_iteratorINS_12__value_typeIS6_S6_EEPNS_11__tree_nodeISI_PvEElEEEEEEvT_SP_, symObjAddr: 0x20F0, symBinAddr: 0x8504, symSize: 0x80 }
  - { offset: 0x35A4E, size: 0x8, addend: 0x0, symName: __ZNSt3__16__treeINS_12__value_typeINS_12basic_stringIcNS_11char_traitsIcEENS_9allocatorIcEEEES7_EENS_19__map_value_compareIS7_S8_NS_4lessIS7_EELb1EEENS5_IS8_EEE30__emplace_hint_unique_key_argsIS7_JRKNS_4pairIKS7_S7_EEEEENSG_INS_15__tree_iteratorIS8_PNS_11__tree_nodeIS8_PvEElEEbEENS_21__tree_const_iteratorIS8_SP_lEERKT_DpOT0_, symObjAddr: 0x2170, symBinAddr: 0x8584, symSize: 0x80 }
  - { offset: 0x35C24, size: 0x8, addend: 0x0, symName: __ZNSt3__16__treeINS_12__value_typeINS_12basic_stringIcNS_11char_traitsIcEENS_9allocatorIcEEEES7_EENS_19__map_value_compareIS7_S8_NS_4lessIS7_EELb1EEENS5_IS8_EEE12__find_equalIS7_EERPNS_16__tree_node_baseIPvEENS_21__tree_const_iteratorIS8_PNS_11__tree_nodeIS8_SH_EElEERPNS_15__tree_end_nodeISJ_EESK_RKT_, symObjAddr: 0x21F0, symBinAddr: 0x8604, symSize: 0x180 }
  - { offset: 0x35FE2, size: 0x8, addend: 0x0, symName: __ZNSt3__16__treeINS_12__value_typeINS_12basic_stringIcNS_11char_traitsIcEENS_9allocatorIcEEEES7_EENS_19__map_value_compareIS7_S8_NS_4lessIS7_EELb1EEENS5_IS8_EEE16__construct_nodeIJRKNS_4pairIKS7_S7_EEEEENS_10unique_ptrINS_11__tree_nodeIS8_PvEENS_22__tree_node_destructorINS5_ISO_EEEEEEDpOT_, symObjAddr: 0x2370, symBinAddr: 0x8784, symSize: 0x68 }
  - { offset: 0x3622C, size: 0x8, addend: 0x0, symName: __ZNSt3__16__treeINS_12__value_typeINS_12basic_stringIcNS_11char_traitsIcEENS_9allocatorIcEEEES7_EENS_19__map_value_compareIS7_S8_NS_4lessIS7_EELb1EEENS5_IS8_EEE16__insert_node_atEPNS_15__tree_end_nodeIPNS_16__tree_node_baseIPvEEEERSJ_SJ_, symObjAddr: 0x23D8, symBinAddr: 0x87EC, symSize: 0x54 }
  - { offset: 0x36399, size: 0x8, addend: 0x0, symName: __ZNSt3__16__treeINS_12__value_typeINS_12basic_stringIcNS_11char_traitsIcEENS_9allocatorIcEEEES7_EENS_19__map_value_compareIS7_S8_NS_4lessIS7_EELb1EEENS5_IS8_EEE12__find_equalIS7_EERPNS_16__tree_node_baseIPvEERPNS_15__tree_end_nodeISJ_EERKT_, symObjAddr: 0x242C, symBinAddr: 0x8840, symSize: 0x84 }
  - { offset: 0x36688, size: 0x8, addend: 0x0, symName: __ZNSt3__14pairIKNS_12basic_stringIcNS_11char_traitsIcEENS_9allocatorIcEEEES6_EC2B8ne200100ERKS8_, symObjAddr: 0x2544, symBinAddr: 0x8958, symSize: 0x90 }
  - { offset: 0x3689A, size: 0x8, addend: 0x0, symName: __ZNSt3__110unique_ptrINS_11__tree_nodeINS_12__value_typeINS_12basic_stringIcNS_11char_traitsIcEENS_9allocatorIcEEEES8_EEPvEENS_22__tree_node_destructorINS6_ISB_EEEEE5resetB8ne200100EPSB_, symObjAddr: 0x2770, symBinAddr: 0x8B84, symSize: 0x48 }
  - { offset: 0x36BCB, size: 0x8, addend: 0x0, symName: __ZNSt3__123__optional_storage_baseINS_12basic_stringIcNS_11char_traitsIcEENS_9allocatorIcEEEELb0EE16__construct_fromB8ne200100IRKNS_20__optional_copy_baseIS6_Lb0EEEEEvOT_, symObjAddr: 0x2890, symBinAddr: 0x8CA4, symSize: 0x5C }
  - { offset: 0x36C05, size: 0x8, addend: 0x0, symName: __ZNSt3__123__optional_storage_baseINS_12basic_stringIcNS_11char_traitsIcEENS_9allocatorIcEEEELb0EE16__construct_fromB8ne200100IRKNS_20__optional_copy_baseIS6_Lb0EEEEEvOT_, symObjAddr: 0x2890, symBinAddr: 0x8CA4, symSize: 0x5C }
  - { offset: 0x36D33, size: 0x8, addend: 0x0, symName: __ZNSt3__120__optional_copy_baseINS_12basic_stringIcNS_11char_traitsIcEENS_9allocatorIcEEEELb0EEC2B8ne200100ERKS7_.cold.1, symObjAddr: 0x2F70, symBinAddr: 0xA430, symSize: 0x14 }
  - { offset: 0x36D4E, size: 0x8, addend: 0x0, symName: __ZNSt3__120__optional_copy_baseINS_12basic_stringIcNS_11char_traitsIcEENS_9allocatorIcEEEELb0EEC2B8ne200100ERKS7_.cold.1, symObjAddr: 0x2F70, symBinAddr: 0xA430, symSize: 0x14 }
  - { offset: 0x36D63, size: 0x8, addend: 0x0, symName: __ZNSt3__120__optional_copy_baseINS_12basic_stringIcNS_11char_traitsIcEENS_9allocatorIcEEEELb0EEC2B8ne200100ERKS7_.cold.1, symObjAddr: 0x2F70, symBinAddr: 0xA430, symSize: 0x14 }
  - { offset: 0x36D78, size: 0x8, addend: 0x0, symName: __ZNSt3__120__optional_copy_baseINS_12basic_stringIcNS_11char_traitsIcEENS_9allocatorIcEEEELb0EEC2B8ne200100ERKS7_.cold.1, symObjAddr: 0x2F70, symBinAddr: 0xA430, symSize: 0x14 }
  - { offset: 0x36D8D, size: 0x8, addend: 0x0, symName: __ZNSt3__120__optional_copy_baseINS_12basic_stringIcNS_11char_traitsIcEENS_9allocatorIcEEEELb0EEC2B8ne200100ERKS7_.cold.1, symObjAddr: 0x2F70, symBinAddr: 0xA430, symSize: 0x14 }
  - { offset: 0x36DA3, size: 0x8, addend: 0x0, symName: __ZNSt3__120__optional_copy_baseINS_12basic_stringIcNS_11char_traitsIcEENS_9allocatorIcEEEELb0EEC2B8ne200100ERKS7_.cold.1, symObjAddr: 0x2F70, symBinAddr: 0xA430, symSize: 0x14 }
  - { offset: 0x36F03, size: 0x8, addend: 0x0, symName: __ZNSt3__112__hash_tableINS_17__hash_value_typeIN5folly7dynamicES3_EENS_22__unordered_map_hasherIS3_S4_NS2_6detail13DynamicHasherENS6_15DynamicKeyEqualELb1EEENS_21__unordered_map_equalIS3_S4_S8_S7_Lb1EEENS_9allocatorIS4_EEE25__emplace_unique_key_argsIS3_JRKNS_21piecewise_construct_tENS_5tupleIJOS3_EEENSJ_IJEEEEEENS_4pairINS_15__hash_iteratorIPNS_11__hash_nodeIS4_PvEEEEbEERKT_DpOT0_, symObjAddr: 0x2970, symBinAddr: 0x8D84, symSize: 0x25C }
  - { offset: 0x37CD3, size: 0x8, addend: 0x0, symName: __ZNSt3__122__hash_node_destructorINS_9allocatorINS_11__hash_nodeINS_17__hash_value_typeIN5folly7dynamicES5_EEPvEEEEEclB8ne200100EPS8_, symObjAddr: 0x2DF8, symBinAddr: 0x8FE0, symSize: 0x4C }
  - { offset: 0x380CF, size: 0x8, addend: 0x0, symName: __ZNSt3__122__hash_node_destructorINS_9allocatorINS_11__hash_nodeINS_17__hash_value_typeIN5folly7dynamicES5_EEPvEEEEEclB8ne200100EPS8_, symObjAddr: 0x2DF8, symBinAddr: 0x8FE0, symSize: 0x4C }
  - { offset: 0x38317, size: 0x8, addend: 0x0, symName: __ZNSt12out_of_rangeC1B8ne200100EPKc, symObjAddr: 0x2F4C, symBinAddr: 0x9134, symSize: 0x24 }
  - { offset: 0x3A403, size: 0x8, addend: 0x0, symName: __ZN8facebook5react18jsinspector_modern16httpReasonPhraseEt, symObjAddr: 0x0, symBinAddr: 0x9158, symSize: 0x488 }
  - { offset: 0x3EDC8, size: 0x8, addend: 0x0, symName: __ZN8facebook5react18jsinspector_modern16httpReasonPhraseEt, symObjAddr: 0x0, symBinAddr: 0x9158, symSize: 0x488 }
  - { offset: 0x3F173, size: 0x8, addend: 0x0, symName: __ZN8facebook5react18jsinspector_modern19mimeTypeFromHeadersERKNSt3__13mapINS2_12basic_stringIcNS2_11char_traitsIcEENS2_9allocatorIcEEEES9_NS2_4lessIS9_EENS7_INS2_4pairIKS9_S9_EEEEEE, symObjAddr: 0x488, symBinAddr: 0x95E0, symSize: 0xF0 }
  - { offset: 0x3F988, size: 0x8, addend: 0x0, symName: __ZNKSt3__16__treeINS_12__value_typeINS_12basic_stringIcNS_11char_traitsIcEENS_9allocatorIcEEEES7_EENS_19__map_value_compareIS7_S8_NS_4lessIS7_EELb1EEENS5_IS8_EEE4findIS7_EENS_21__tree_const_iteratorIS8_PNS_11__tree_nodeIS8_PvEElEERKT_, symObjAddr: 0x6E0, symBinAddr: 0x970C, symSize: 0x7C }
  - { offset: 0x3FADB, size: 0x8, addend: 0x0, symName: __ZNKSt3__13mapINS_12basic_stringIcNS_11char_traitsIcEENS_9allocatorIcEEEES6_NS_4lessIS6_EENS4_INS_4pairIKS6_S6_EEEEE2atERSA_, symObjAddr: 0x578, symBinAddr: 0x96D0, symSize: 0x3C }
  - { offset: 0x574BA, size: 0x8, addend: 0x0, symName: __ZN8facebook5react18jsinspector_modern15NetworkReporter11getInstanceEv, symObjAddr: 0x0, symBinAddr: 0x9788, symSize: 0x30 }
  - { offset: 0x574DC, size: 0x8, addend: 0x0, symName: __MergedGlobals, symObjAddr: 0xC2948, symBinAddr: 0x100E0, symSize: 0x0 }
  - { offset: 0x5750A, size: 0x8, addend: 0x0, symName: __ZN8facebook5react18jsinspector_modern15NetworkReporter11getInstanceEv.cold.1, symObjAddr: 0x1900, symBinAddr: 0xA444, symSize: 0xBC }
  - { offset: 0x57865, size: 0x8, addend: 0x0, symName: __ZN8facebook5react18jsinspector_modern15NetworkReporterD1Ev, symObjAddr: 0x30, symBinAddr: 0x97B8, symSize: 0x4 }
  - { offset: 0x57891, size: 0x8, addend: 0x0, symName: __ZN8facebook5react18jsinspector_modern15NetworkReporterD1Ev, symObjAddr: 0x30, symBinAddr: 0x97B8, symSize: 0x4 }
  - { offset: 0x578A4, size: 0x8, addend: 0x0, symName: __ZN8facebook5react18jsinspector_modern15NetworkReporterD2Ev, symObjAddr: 0x55C, symBinAddr: 0x9CE4, symSize: 0x80 }
  - { offset: 0x57AD0, size: 0x8, addend: 0x0, symName: __ZN8facebook5react18jsinspector_modern15NetworkReporter18setFrontendChannelENSt3__18functionIFvNS3_17basic_string_viewIcNS3_11char_traitsIcEEEEEEE, symObjAddr: 0x34, symBinAddr: 0x97BC, symSize: 0x1C }
  - { offset: 0x57B33, size: 0x8, addend: 0x0, symName: __ZNSt3__110__function12__value_funcIFvNS_17basic_string_viewIcNS_11char_traitsIcEEEEEEaSB8ne200100EOS7_, symObjAddr: 0xAA4, symBinAddr: 0x9FA4, symSize: 0x8C }
  - { offset: 0x57C20, size: 0x8, addend: 0x0, symName: __ZN8facebook5react18jsinspector_modern15NetworkReporter15enableDebuggingEv, symObjAddr: 0x50, symBinAddr: 0x97D8, symSize: 0x1C }
  - { offset: 0x57C4B, size: 0x8, addend: 0x0, symName: __ZN8facebook5react18jsinspector_modern15NetworkReporter15enableDebuggingEv, symObjAddr: 0x50, symBinAddr: 0x97D8, symSize: 0x1C }
  - { offset: 0x57C6C, size: 0x8, addend: 0x0, symName: __ZN8facebook5react18jsinspector_modern15NetworkReporter15enableDebuggingEv, symObjAddr: 0x50, symBinAddr: 0x97D8, symSize: 0x1C }
  - { offset: 0x57CDF, size: 0x8, addend: 0x0, symName: __ZN8facebook5react18jsinspector_modern15NetworkReporter16disableDebuggingEv, symObjAddr: 0x6C, symBinAddr: 0x97F4, symSize: 0x30 }
  - { offset: 0x58E8C, size: 0x8, addend: 0x0, symName: __ZN8facebook5react18jsinspector_modern15NetworkReporter18reportRequestStartERKNSt3__112basic_stringIcNS3_11char_traitsIcEENS3_9allocatorIcEEEERKNS1_11RequestInfoEiRKNS3_8optionalINS1_12ResponseInfoEEE, symObjAddr: 0x9C, symBinAddr: 0x9824, symSize: 0xF8 }
  - { offset: 0x596FA, size: 0x8, addend: 0x0, symName: __ZNSt3__112__hash_tableINS_17__hash_value_typeINS_12basic_stringIcNS_11char_traitsIcEENS_9allocatorIcEEEEN8facebook5react18jsinspector_modern18ResourceTimingDataEEENS_22__unordered_map_hasherIS7_SC_NS_4hashIS7_EENS_8equal_toIS7_EELb1EEENS_21__unordered_map_equalIS7_SC_SH_SF_Lb1EEENS5_ISC_EEE25__emplace_unique_key_argsIS7_JRKS7_SB_EEENS_4pairINS_15__hash_iteratorIPNS_11__hash_nodeISC_PvEEEEbEERKT_DpOT0_, symObjAddr: 0xB30, symBinAddr: 0xA030, symSize: 0x258 }
  - { offset: 0x59C3C, size: 0x8, addend: 0x0, symName: __ZN8facebook5react18jsinspector_modern15NetworkReporter22reportConnectionTimingERKNSt3__112basic_stringIcNS3_11char_traitsIcEENS3_9allocatorIcEEEERKNS3_8optionalINS3_3mapIS9_S9_NS3_4lessIS9_EENS7_INS3_4pairISA_S9_EEEEEEEE, symObjAddr: 0x194, symBinAddr: 0x991C, symSize: 0x94 }
  - { offset: 0x59FAA, size: 0x8, addend: 0x0, symName: __ZN8facebook5react18jsinspector_modern15NetworkReporter19reportResponseStartERKNSt3__112basic_stringIcNS3_11char_traitsIcEENS3_9allocatorIcEEEERKNS1_12ResponseInfoEi, symObjAddr: 0x228, symBinAddr: 0x99B0, symSize: 0xC4 }
  - { offset: 0x5A22A, size: 0x8, addend: 0x0, symName: __ZN8facebook5react18jsinspector_modern15NetworkReporter18reportDataReceivedERKNSt3__112basic_stringIcNS3_11char_traitsIcEENS3_9allocatorIcEEEEiRKNS3_8optionalIiEE, symObjAddr: 0x2EC, symBinAddr: 0x9A74, symSize: 0x4 }
  - { offset: 0x5A33A, size: 0x8, addend: 0x0, symName: __ZN8facebook5react18jsinspector_modern15NetworkReporter17reportResponseEndERKNSt3__112basic_stringIcNS3_11char_traitsIcEENS3_9allocatorIcEEEEi, symObjAddr: 0x2F0, symBinAddr: 0x9A78, symSize: 0x10C }
  - { offset: 0x5A6E9, size: 0x8, addend: 0x0, symName: __ZNSt3__112__hash_tableINS_17__hash_value_typeINS_12basic_stringIcNS_11char_traitsIcEENS_9allocatorIcEEEEN8facebook5react18jsinspector_modern18ResourceTimingDataEEENS_22__unordered_map_hasherIS7_SC_NS_4hashIS7_EENS_8equal_toIS7_EELb1EEENS_21__unordered_map_equalIS7_SC_SH_SF_Lb1EEENS5_ISC_EEE14__erase_uniqueIS7_EEmRKT_, symObjAddr: 0x16E0, symBinAddr: 0xA3A4, symSize: 0x34 }
  - { offset: 0x5A76B, size: 0x8, addend: 0x0, symName: __ZNK8facebook5react18jsinspector_modern15NetworkReporter19reportRequestFailedERKNSt3__112basic_stringIcNS3_11char_traitsIcEENS3_9allocatorIcEEEEb, symObjAddr: 0x3FC, symBinAddr: 0x9B84, symSize: 0x4 }
  - { offset: 0x5A7B6, size: 0x8, addend: 0x0, symName: __ZN8facebook5react18jsinspector_modern15NetworkReporter17storeResponseBodyERKNSt3__112basic_stringIcNS3_11char_traitsIcEENS3_9allocatorIcEEEENS3_17basic_string_viewIcS6_EEb, symObjAddr: 0x400, symBinAddr: 0x9B88, symSize: 0x60 }
  - { offset: 0x5AE1A, size: 0x8, addend: 0x0, symName: __ZN8facebook5react18jsinspector_modern15NetworkReporter15getResponseBodyERKNSt3__112basic_stringIcNS3_11char_traitsIcEENS3_9allocatorIcEEEE, symObjAddr: 0x460, symBinAddr: 0x9BE8, symSize: 0xFC }
  - { offset: 0x5B647, size: 0x8, addend: 0x0, symName: __ZNSt3__15dequeINS_12basic_stringIcNS_11char_traitsIcEENS_9allocatorIcEEEENS4_IS6_EEED2B8ne200100Ev, symObjAddr: 0x5DC, symBinAddr: 0x9D64, symSize: 0x148 }
  - { offset: 0x5BAAF, size: 0x8, addend: 0x0, symName: __ZNSt3__112__hash_tableINS_17__hash_value_typeINS_12basic_stringIcNS_11char_traitsIcEENS_9allocatorIcEEEENS_10shared_ptrIKN8facebook5react18jsinspector_modern20BoundedRequestBuffer12ResponseBodyEEEEENS_22__unordered_map_hasherIS7_SG_NS_4hashIS7_EENS_8equal_toIS7_EELb1EEENS_21__unordered_map_equalIS7_SG_SL_SJ_Lb1EEENS5_ISG_EEED2Ev, symObjAddr: 0x780, symBinAddr: 0x9EF8, symSize: 0x38 }
  - { offset: 0x5BCD5, size: 0x8, addend: 0x0, symName: __ZNSt3__112__hash_tableINS_17__hash_value_typeINS_12basic_stringIcNS_11char_traitsIcEENS_9allocatorIcEEEEN8facebook5react18jsinspector_modern18ResourceTimingDataEEENS_22__unordered_map_hasherIS7_SC_NS_4hashIS7_EENS_8equal_toIS7_EELb1EEENS_21__unordered_map_equalIS7_SC_SH_SF_Lb1EEENS5_ISC_EEED2Ev, symObjAddr: 0x8BC, symBinAddr: 0x9F30, symSize: 0x38 }
  - { offset: 0x5C04F, size: 0x8, addend: 0x0, symName: __ZNSt3__114__split_bufferIPNS_12basic_stringIcNS_11char_traitsIcEENS_9allocatorIcEEEENS4_IS7_EEED2Ev, symObjAddr: 0x734, symBinAddr: 0x9EAC, symSize: 0x4C }
  - { offset: 0x5C675, size: 0x8, addend: 0x0, symName: __ZNSt3__112__hash_tableINS_17__hash_value_typeINS_12basic_stringIcNS_11char_traitsIcEENS_9allocatorIcEEEEN8facebook5react18jsinspector_modern18ResourceTimingDataEEENS_22__unordered_map_hasherIS7_SC_NS_4hashIS7_EENS_8equal_toIS7_EELb1EEENS_21__unordered_map_equalIS7_SC_SH_SF_Lb1EEENS5_ISC_EEE17__deallocate_nodeEPNS_16__hash_node_baseIPNS_11__hash_nodeISC_PvEEEE, symObjAddr: 0x8F4, symBinAddr: 0x9F68, symSize: 0x3C }
  - { offset: 0x5CD02, size: 0x8, addend: 0x0, symName: __ZNSt3__112__hash_tableINS_17__hash_value_typeINS_12basic_stringIcNS_11char_traitsIcEENS_9allocatorIcEEEEN8facebook5react18jsinspector_modern18ResourceTimingDataEEENS_22__unordered_map_hasherIS7_SC_NS_4hashIS7_EENS_8equal_toIS7_EELb1EEENS_21__unordered_map_equalIS7_SC_SH_SF_Lb1EEENS5_ISC_EEE21__construct_node_hashIRKS7_JSB_EEENS_10unique_ptrINS_11__hash_nodeISC_PvEENS_22__hash_node_destructorINS5_IST_EEEEEEmOT_DpOT0_, symObjAddr: 0xD88, symBinAddr: 0xA288, symSize: 0xD4 }
  - { offset: 0x5D1D8, size: 0x8, addend: 0x0, symName: __ZNSt3__110unique_ptrINS_11__hash_nodeINS_17__hash_value_typeINS_12basic_stringIcNS_11char_traitsIcEENS_9allocatorIcEEEEN8facebook5react18jsinspector_modern18ResourceTimingDataEEEPvEENS_22__hash_node_destructorINS6_ISF_EEEEE5resetB8ne200100EPSF_, symObjAddr: 0x15A0, symBinAddr: 0xA35C, symSize: 0x48 }
  - { offset: 0x5E165, size: 0x8, addend: 0x0, symName: __ZNSt3__110unique_ptrINS_11__hash_nodeINS_17__hash_value_typeINS_12basic_stringIcNS_11char_traitsIcEENS_9allocatorIcEEEEN8facebook5react18jsinspector_modern18ResourceTimingDataEEEPvEENS_22__hash_node_destructorINS6_ISF_EEEEE5resetB8ne200100EPSF_, symObjAddr: 0x15A0, symBinAddr: 0xA35C, symSize: 0x48 }
  - { offset: 0x5E220, size: 0x8, addend: 0x0, symName: __ZNSt3__112__hash_tableINS_17__hash_value_typeINS_12basic_stringIcNS_11char_traitsIcEENS_9allocatorIcEEEEN8facebook5react18jsinspector_modern18ResourceTimingDataEEENS_22__unordered_map_hasherIS7_SC_NS_4hashIS7_EENS_8equal_toIS7_EELb1EEENS_21__unordered_map_equalIS7_SC_SH_SF_Lb1EEENS5_ISC_EEE5eraseENS_21__hash_const_iteratorIPNS_11__hash_nodeISC_PvEEEE, symObjAddr: 0x1714, symBinAddr: 0xA3D8, symSize: 0x58 }
...
