---
triple:          'arm64-apple-darwin'
binary-path:     '/Users/uk-aplatts/Development/InjuryIQ/ios/DerivedData/Build/Intermediates.noindex/ArchiveIntermediates/InjuryIQ/IntermediateBuildFilesPath/UninstalledProducts/iphoneos/RNGoogleSignin.framework/RNGoogleSignin'
relocations:
  - { offset: 0x33, size: 0x8, addend: 0x0, symName: _RNGoogleSigninVersionString, symObjAddr: 0x0, symBinAddr: 0xA960, symSize: 0x0 }
  - { offset: 0x67, size: 0x8, addend: 0x0, symName: _RNGoogleSigninVersionNumber, symObjAddr: 0x30, symBinAddr: 0xA990, symSize: 0x0 }
  - { offset: 0xA3, size: 0x8, addend: 0x0, symName: '+[RCTConvert(RNGoogleSignin) GIDSignInButtonStyle:]', symObjAddr: 0x0, symBinAddr: 0x4000, symSize: 0x98 }
  - { offset: 0xB0, size: 0x8, addend: 0x0, symName: '+[RCTConvert(RNGoogleSignin) GIDSignInButtonStyle:]', symObjAddr: 0x0, symBinAddr: 0x4000, symSize: 0x98 }
  - { offset: 0xD9, size: 0x8, addend: 0x0, symName: '__ZZ51+[RCTConvert(RNGoogleSignin) GIDSignInButtonStyle:]E7mapping', symObjAddr: 0x2D40, symBinAddr: 0x15140, symSize: 0x0 }
  - { offset: 0xEE, size: 0x8, addend: 0x0, symName: '__ZZ51+[RCTConvert(RNGoogleSignin) GIDSignInButtonStyle:]E9onceToken', symObjAddr: 0x2D48, symBinAddr: 0x15148, symSize: 0x0 }
  - { offset: 0x1DF, size: 0x8, addend: 0x0, symName: '+[RCTConvert(RNGoogleSignin) GIDSignInButtonColorScheme:]', symObjAddr: 0xB0, symBinAddr: 0x40B0, symSize: 0x98 }
  - { offset: 0x208, size: 0x8, addend: 0x0, symName: '__ZZ57+[RCTConvert(RNGoogleSignin) GIDSignInButtonColorScheme:]E7mapping', symObjAddr: 0x2D50, symBinAddr: 0x15150, symSize: 0x0 }
  - { offset: 0x21D, size: 0x8, addend: 0x0, symName: '__ZZ57+[RCTConvert(RNGoogleSignin) GIDSignInButtonColorScheme:]E9onceToken', symObjAddr: 0x2D58, symBinAddr: 0x15158, symSize: 0x0 }
  - { offset: 0x51E, size: 0x8, addend: 0x0, symName: '+[RCTConvert(RNGoogleSignin) GIDSignInButtonStyle:].cold.1', symObjAddr: 0x160, symBinAddr: 0x96C8, symSize: 0x14 }
  - { offset: 0x539, size: 0x8, addend: 0x0, symName: '+[RCTConvert(RNGoogleSignin) GIDSignInButtonStyle:].cold.1', symObjAddr: 0x160, symBinAddr: 0x96C8, symSize: 0x14 }
  - { offset: 0x54A, size: 0x8, addend: 0x0, symName: '___51+[RCTConvert(RNGoogleSignin) GIDSignInButtonStyle:]_block_invoke', symObjAddr: 0x98, symBinAddr: 0x4098, symSize: 0x18 }
  - { offset: 0x56F, size: 0x8, addend: 0x0, symName: '+[RCTConvert(RNGoogleSignin) GIDSignInButtonColorScheme:].cold.1', symObjAddr: 0x174, symBinAddr: 0x96DC, symSize: 0x14 }
  - { offset: 0x58A, size: 0x8, addend: 0x0, symName: '+[RCTConvert(RNGoogleSignin) GIDSignInButtonColorScheme:].cold.1', symObjAddr: 0x174, symBinAddr: 0x96DC, symSize: 0x14 }
  - { offset: 0x59B, size: 0x8, addend: 0x0, symName: '___57+[RCTConvert(RNGoogleSignin) GIDSignInButtonColorScheme:]_block_invoke', symObjAddr: 0x148, symBinAddr: 0x4148, symSize: 0x18 }
  - { offset: 0x96A, size: 0x8, addend: 0x0, symName: '+[RNGoogleSignin moduleName]', symObjAddr: 0x0, symBinAddr: 0x4160, symSize: 0xC }
  - { offset: 0x9C5, size: 0x8, addend: 0x0, symName: '+[RNGoogleSignin __rct_export__720]', symObjAddr: 0x418, symBinAddr: 0x4578, symSize: 0xC }
  - { offset: 0x9EE, size: 0x8, addend: 0x0, symName: '__ZZ35+[RNGoogleSignin __rct_export__720]E6config', symObjAddr: 0x3C18, symBinAddr: 0x14E10, symSize: 0x0 }
  - { offset: 0xA59, size: 0x8, addend: 0x0, symName: '+[RNGoogleSignin __rct_export__1151]', symObjAddr: 0x87C, symBinAddr: 0x49DC, symSize: 0xC }
  - { offset: 0xA82, size: 0x8, addend: 0x0, symName: '__ZZ36+[RNGoogleSignin __rct_export__1151]E6config', symObjAddr: 0x3C30, symBinAddr: 0x14E28, symSize: 0x0 }
  - { offset: 0xA9E, size: 0x8, addend: 0x0, symName: '+[RNGoogleSignin __rct_export__1242]', symObjAddr: 0xA1C, symBinAddr: 0x4B7C, symSize: 0xC }
  - { offset: 0xAC7, size: 0x8, addend: 0x0, symName: '__ZZ36+[RNGoogleSignin __rct_export__1242]E6config', symObjAddr: 0x3C48, symBinAddr: 0x14E40, symSize: 0x0 }
  - { offset: 0xAE3, size: 0x8, addend: 0x0, symName: '+[RNGoogleSignin __rct_export__1483]', symObjAddr: 0xCD4, symBinAddr: 0x4E34, symSize: 0xC }
  - { offset: 0xB0C, size: 0x8, addend: 0x0, symName: '__ZZ36+[RNGoogleSignin __rct_export__1483]E6config', symObjAddr: 0x3C60, symBinAddr: 0x14E58, symSize: 0x0 }
  - { offset: 0xB28, size: 0x8, addend: 0x0, symName: '+[RNGoogleSignin __rct_export__1664]', symObjAddr: 0xF30, symBinAddr: 0x5090, symSize: 0xC }
  - { offset: 0xB51, size: 0x8, addend: 0x0, symName: '__ZZ36+[RNGoogleSignin __rct_export__1664]E6config', symObjAddr: 0x3C78, symBinAddr: 0x14E70, symSize: 0x0 }
  - { offset: 0xB6D, size: 0x8, addend: 0x0, symName: '+[RNGoogleSignin __rct_export__1735]', symObjAddr: 0xFD4, symBinAddr: 0x5134, symSize: 0xC }
  - { offset: 0xB96, size: 0x8, addend: 0x0, symName: '__ZZ36+[RNGoogleSignin __rct_export__1735]E6config', symObjAddr: 0x3C90, symBinAddr: 0x14E88, symSize: 0x0 }
  - { offset: 0xBB2, size: 0x8, addend: 0x0, symName: '+[RNGoogleSignin __rct_export__1846]', symObjAddr: 0x11D4, symBinAddr: 0x5334, symSize: 0xC }
  - { offset: 0xBDB, size: 0x8, addend: 0x0, symName: '__ZZ36+[RNGoogleSignin __rct_export__1846]E6config', symObjAddr: 0x3CA8, symBinAddr: 0x14EA0, symSize: 0x0 }
  - { offset: 0xBF7, size: 0x8, addend: 0x0, symName: '+[RNGoogleSignin __rct_export__1907]', symObjAddr: 0x1234, symBinAddr: 0x5394, symSize: 0xC }
  - { offset: 0xC20, size: 0x8, addend: 0x0, symName: '__ZZ36+[RNGoogleSignin __rct_export__1907]E6config', symObjAddr: 0x3CC0, symBinAddr: 0x14EB8, symSize: 0x0 }
  - { offset: 0xC3C, size: 0x8, addend: 0x0, symName: '+[RNGoogleSignin __rct_export__1978]', symObjAddr: 0x1304, symBinAddr: 0x5464, symSize: 0xC }
  - { offset: 0xC65, size: 0x8, addend: 0x0, symName: '__ZZ36+[RNGoogleSignin __rct_export__1978]E6config', symObjAddr: 0x3CD8, symBinAddr: 0x14ED0, symSize: 0x0 }
  - { offset: 0x3693, size: 0x8, addend: 0x0, symName: __ZN8facebook5react14typedConstantsIN2JS18NativeGoogleSignin9ConstantsEEEP24_RCTTypedModuleConstantsIU13block_pointerFvT_EEONS6_7Builder5InputE, symObjAddr: 0x2C0, symBinAddr: 0x4420, symSize: 0xF8 }
  - { offset: 0xFA89, size: 0x8, addend: 0x0, symName: __ZNSt3__115allocate_sharedB8ne200100IN8facebook5react25NativeGoogleSigninSpecJSIENS_9allocatorIS3_EEJRKNS2_15ObjCTurboModule10InitParamsEELi0EEENS_10shared_ptrIT_EERKT0_DpOT1_, symObjAddr: 0x2568, symBinAddr: 0x66C8, symSize: 0x58 }
  - { offset: 0x12687, size: 0x8, addend: 0x0, symName: '+[RNGoogleSignin moduleName]', symObjAddr: 0x0, symBinAddr: 0x4160, symSize: 0xC }
  - { offset: 0x126B8, size: 0x8, addend: 0x0, symName: '+[RNGoogleSignin load]', symObjAddr: 0xC, symBinAddr: 0x416C, symSize: 0x4 }
  - { offset: 0x126EB, size: 0x8, addend: 0x0, symName: '+[RNGoogleSignin load]', symObjAddr: 0xC, symBinAddr: 0x416C, symSize: 0x4 }
  - { offset: 0x1270A, size: 0x8, addend: 0x0, symName: '-[RNGoogleSignin constantsToExport]', symObjAddr: 0x10, symBinAddr: 0x4170, symSize: 0x198 }
  - { offset: 0x12D47, size: 0x8, addend: 0x0, symName: '-[RNGoogleSignin getConstants]', symObjAddr: 0x1A8, symBinAddr: 0x4308, symSize: 0x118 }
  - { offset: 0x13187, size: 0x8, addend: 0x0, symName: __ZN2JS18NativeGoogleSignin9Constants7Builder5InputD1Ev, symObjAddr: 0x3B8, symBinAddr: 0x4518, symSize: 0x58 }
  - { offset: 0x1346C, size: 0x8, addend: 0x0, symName: __ZN2JS18NativeGoogleSignin9Constants7BuilderC2ENS2_5InputE, symObjAddr: 0x2148, symBinAddr: 0x62A8, symSize: 0x11C }
  - { offset: 0x1378C, size: 0x8, addend: 0x0, symName: '+[RNGoogleSignin requiresMainQueueSetup]', symObjAddr: 0x410, symBinAddr: 0x4570, symSize: 0x8 }
  - { offset: 0x137BD, size: 0x8, addend: 0x0, symName: '-[RNGoogleSignin configure:resolve:reject:]', symObjAddr: 0x424, symBinAddr: 0x4584, symSize: 0x458 }
  - { offset: 0x13988, size: 0x8, addend: 0x0, symName: '-[RNGoogleSignin signInSilently:reject:]', symObjAddr: 0x888, symBinAddr: 0x49E8, symSize: 0xFC }
  - { offset: 0x139D8, size: 0x8, addend: 0x0, symName: '___40-[RNGoogleSignin signInSilently:reject:]_block_invoke', symObjAddr: 0x984, symBinAddr: 0x4AE4, symSize: 0x24 }
  - { offset: 0x13A55, size: 0x8, addend: 0x0, symName: ___copy_helper_block_ea8_32s40b48b, symObjAddr: 0x9A8, symBinAddr: 0x4B08, symSize: 0x44 }
  - { offset: 0x13A7E, size: 0x8, addend: 0x0, symName: ___destroy_helper_block_ea8_32s40s48s, symObjAddr: 0x9EC, symBinAddr: 0x4B4C, symSize: 0x30 }
  - { offset: 0x13A9D, size: 0x8, addend: 0x0, symName: '-[RNGoogleSignin signIn:resolve:reject:]', symObjAddr: 0xA28, symBinAddr: 0x4B88, symSize: 0xC8 }
  - { offset: 0x13B37, size: 0x8, addend: 0x0, symName: '___40-[RNGoogleSignin signIn:resolve:reject:]_block_invoke', symObjAddr: 0xAF0, symBinAddr: 0x4C50, symSize: 0x140 }
  - { offset: 0x14BF9, size: 0x8, addend: 0x0, symName: '___40-[RNGoogleSignin signIn:resolve:reject:]_block_invoke_2', symObjAddr: 0xC30, symBinAddr: 0x4D90, symSize: 0x20 }
  - { offset: 0x14C76, size: 0x8, addend: 0x0, symName: ___copy_helper_block_ea8_32s40s48b56b, symObjAddr: 0xC50, symBinAddr: 0x4DB0, symSize: 0x4C }
  - { offset: 0x14C9F, size: 0x8, addend: 0x0, symName: ___destroy_helper_block_ea8_32s40s48s56s, symObjAddr: 0xC9C, symBinAddr: 0x4DFC, symSize: 0x38 }
  - { offset: 0x14CBE, size: 0x8, addend: 0x0, symName: '-[RNGoogleSignin addScopes:resolve:reject:]', symObjAddr: 0xCE0, symBinAddr: 0x4E40, symSize: 0xC8 }
  - { offset: 0x14D31, size: 0x8, addend: 0x0, symName: '___43-[RNGoogleSignin addScopes:resolve:reject:]_block_invoke', symObjAddr: 0xDA8, symBinAddr: 0x4F08, symSize: 0x168 }
  - { offset: 0x14DFD, size: 0x8, addend: 0x0, symName: '___43-[RNGoogleSignin addScopes:resolve:reject:]_block_invoke_2', symObjAddr: 0xF10, symBinAddr: 0x5070, symSize: 0x20 }
  - { offset: 0x14E7A, size: 0x8, addend: 0x0, symName: '-[RNGoogleSignin signOut:reject:]', symObjAddr: 0xF3C, symBinAddr: 0x509C, symSize: 0x98 }
  - { offset: 0x14EDC, size: 0x8, addend: 0x0, symName: '-[RNGoogleSignin revokeAccess:reject:]', symObjAddr: 0xFE0, symBinAddr: 0x5140, symSize: 0xF4 }
  - { offset: 0x14F27, size: 0x8, addend: 0x0, symName: '___38-[RNGoogleSignin revokeAccess:reject:]_block_invoke', symObjAddr: 0x10D4, symBinAddr: 0x5234, symSize: 0x9C }
  - { offset: 0x14F9A, size: 0x8, addend: 0x0, symName: ___copy_helper_block_ea8_32b40b, symObjAddr: 0x1170, symBinAddr: 0x52D0, symSize: 0x3C }
  - { offset: 0x14FC3, size: 0x8, addend: 0x0, symName: ___destroy_helper_block_ea8_32s40s, symObjAddr: 0x11AC, symBinAddr: 0x530C, symSize: 0x28 }
  - { offset: 0x14FE1, size: 0x8, addend: 0x0, symName: '-[RNGoogleSignin hasPreviousSignIn]', symObjAddr: 0x11E0, symBinAddr: 0x5340, symSize: 0x54 }
  - { offset: 0x15021, size: 0x8, addend: 0x0, symName: '-[RNGoogleSignin getCurrentUser]', symObjAddr: 0x1240, symBinAddr: 0x53A0, symSize: 0xC4 }
  - { offset: 0x15067, size: 0x8, addend: 0x0, symName: '-[RNGoogleSignin getTokens:reject:]', symObjAddr: 0x1310, symBinAddr: 0x5470, symSize: 0x134 }
  - { offset: 0x150DA, size: 0x8, addend: 0x0, symName: '___35-[RNGoogleSignin getTokens:reject:]_block_invoke', symObjAddr: 0x1444, symBinAddr: 0x55A4, symSize: 0x1BC }
  - { offset: 0x1516E, size: 0x8, addend: 0x0, symName: '-[RNGoogleSignin playServicesAvailable:resolve:reject:]', symObjAddr: 0x1600, symBinAddr: 0x5760, symSize: 0x14 }
  - { offset: 0x151D4, size: 0x8, addend: 0x0, symName: '-[RNGoogleSignin clearCachedAccessToken:resolve:reject:]', symObjAddr: 0x1614, symBinAddr: 0x5774, symSize: 0x74 }
  - { offset: 0x15240, size: 0x8, addend: 0x0, symName: '-[RNGoogleSignin createUserDictionary:]', symObjAddr: 0x1688, symBinAddr: 0x57E8, symSize: 0x98 }
  - { offset: 0x15284, size: 0x8, addend: 0x0, symName: '-[RNGoogleSignin createUserDictionary:serverAuthCode:]', symObjAddr: 0x1720, symBinAddr: 0x5880, symSize: 0x578 }
  - { offset: 0x15308, size: 0x8, addend: 0x0, symName: '-[RNGoogleSignin handleCompletion:withError:withResolver:withRejector:fromCallsite:]', symObjAddr: 0x1C98, symBinAddr: 0x5DF8, symSize: 0x10C }
  - { offset: 0x15390, size: 0x8, addend: 0x0, symName: '-[RNGoogleSignin handleCompletion:serverAuthCode:withError:withResolver:withRejector:fromCallsite:]', symObjAddr: 0x1DA4, symBinAddr: 0x5F04, symSize: 0x134 }
  - { offset: 0x15460, size: 0x8, addend: 0x0, symName: '+[RNGoogleSignin rejectWithSigninError:withRejector:]', symObjAddr: 0x1ED8, symBinAddr: 0x6038, symSize: 0x204 }
  - { offset: 0x15609, size: 0x8, addend: 0x0, symName: '-[RNGoogleSignin getTurboModule:]', symObjAddr: 0x20DC, symBinAddr: 0x623C, symSize: 0x3C }
  - { offset: 0x156D5, size: 0x8, addend: 0x0, symName: '-[RNGoogleSignin scopes]', symObjAddr: 0x2118, symBinAddr: 0x6278, symSize: 0x8 }
  - { offset: 0x1570B, size: 0x8, addend: 0x0, symName: '-[RNGoogleSignin setScopes:]', symObjAddr: 0x2120, symBinAddr: 0x6280, symSize: 0xC }
  - { offset: 0x1574B, size: 0x8, addend: 0x0, symName: '-[RNGoogleSignin profileImageSize]', symObjAddr: 0x212C, symBinAddr: 0x628C, symSize: 0x8 }
  - { offset: 0x15781, size: 0x8, addend: 0x0, symName: '-[RNGoogleSignin setProfileImageSize:]', symObjAddr: 0x2134, symBinAddr: 0x6294, symSize: 0x8 }
  - { offset: 0x157BD, size: 0x8, addend: 0x0, symName: '-[RNGoogleSignin .cxx_destruct]', symObjAddr: 0x213C, symBinAddr: 0x629C, symSize: 0xC }
  - { offset: 0x15876, size: 0x8, addend: 0x0, symName: ____ZN2JS18NativeGoogleSignin9Constants7BuilderC2ENS2_5InputE_block_invoke, symObjAddr: 0x2264, symBinAddr: 0x63C4, symSize: 0x230 }
  - { offset: 0x15954, size: 0x8, addend: 0x0, symName: ___copy_helper_block_ea8_32c54_ZTSKN2JS18NativeGoogleSignin9Constants7Builder5InputE, symObjAddr: 0x2494, symBinAddr: 0x65F4, symSize: 0x84 }
  - { offset: 0x15BF9, size: 0x8, addend: 0x0, symName: ___destroy_helper_block_ea8_32c54_ZTSKN2JS18NativeGoogleSignin9Constants7Builder5InputE, symObjAddr: 0x2518, symBinAddr: 0x6678, symSize: 0x50 }
  - { offset: 0x16039, size: 0x8, addend: 0x0, symName: __ZNSt3__120__shared_ptr_emplaceIN8facebook5react25NativeGoogleSigninSpecJSIENS_9allocatorIS3_EEEC2B8ne200100IJRKNS2_15ObjCTurboModule10InitParamsEES5_Li0EEES5_DpOT_, symObjAddr: 0x25C0, symBinAddr: 0x6720, symSize: 0x4C }
  - { offset: 0x161FE, size: 0x8, addend: 0x0, symName: __ZNSt3__120__shared_ptr_emplaceIN8facebook5react25NativeGoogleSigninSpecJSIENS_9allocatorIS3_EEED1Ev, symObjAddr: 0x260C, symBinAddr: 0x676C, symSize: 0x14 }
  - { offset: 0x16220, size: 0x8, addend: 0x0, symName: __ZNSt3__120__shared_ptr_emplaceIN8facebook5react25NativeGoogleSigninSpecJSIENS_9allocatorIS3_EEED1Ev, symObjAddr: 0x260C, symBinAddr: 0x676C, symSize: 0x14 }
  - { offset: 0x16255, size: 0x8, addend: 0x0, symName: __ZNSt3__120__shared_ptr_emplaceIN8facebook5react25NativeGoogleSigninSpecJSIENS_9allocatorIS3_EEED0Ev, symObjAddr: 0x2620, symBinAddr: 0x6780, symSize: 0x24 }
  - { offset: 0x16324, size: 0x8, addend: 0x0, symName: __ZNSt3__120__shared_ptr_emplaceIN8facebook5react25NativeGoogleSigninSpecJSIENS_9allocatorIS3_EEE16__on_zero_sharedEv, symObjAddr: 0x2644, symBinAddr: 0x67A4, symSize: 0xC }
  - { offset: 0x1634D, size: 0x8, addend: 0x0, symName: __ZNSt3__120__shared_ptr_emplaceIN8facebook5react25NativeGoogleSigninSpecJSIENS_9allocatorIS3_EEE16__on_zero_sharedEv, symObjAddr: 0x2644, symBinAddr: 0x67A4, symSize: 0xC }
  - { offset: 0x1636B, size: 0x8, addend: 0x0, symName: __ZNSt3__120__shared_ptr_emplaceIN8facebook5react25NativeGoogleSigninSpecJSIENS_9allocatorIS3_EEE16__on_zero_sharedEv, symObjAddr: 0x2644, symBinAddr: 0x67A4, symSize: 0xC }
  - { offset: 0x1638A, size: 0x8, addend: 0x0, symName: __ZNSt3__120__shared_ptr_emplaceIN8facebook5react25NativeGoogleSigninSpecJSIENS_9allocatorIS3_EEE16__on_zero_sharedEv, symObjAddr: 0x2644, symBinAddr: 0x67A4, symSize: 0xC }
  - { offset: 0x163B6, size: 0x8, addend: 0x0, symName: __ZNSt3__120__shared_ptr_emplaceIN8facebook5react25NativeGoogleSigninSpecJSIENS_9allocatorIS3_EEE21__on_zero_shared_weakEv, symObjAddr: 0x2650, symBinAddr: 0x67B0, symSize: 0x4 }
  - { offset: 0x163E9, size: 0x8, addend: 0x0, symName: __ZNSt3__120__shared_ptr_emplaceIN8facebook5react25NativeGoogleSigninSpecJSIENS_9allocatorIS3_EEE21__on_zero_shared_weakEv, symObjAddr: 0x2650, symBinAddr: 0x67B0, symSize: 0x4 }
  - { offset: 0x1640C, size: 0x8, addend: 0x0, symName: __ZNSt3__120__shared_ptr_emplaceIN8facebook5react25NativeGoogleSigninSpecJSIENS_9allocatorIS3_EEE21__on_zero_shared_weakEv, symObjAddr: 0x2650, symBinAddr: 0x67B0, symSize: 0x4 }
  - { offset: 0x1642F, size: 0x8, addend: 0x0, symName: __ZNSt3__120__shared_ptr_emplaceIN8facebook5react25NativeGoogleSigninSpecJSIENS_9allocatorIS3_EEE21__on_zero_shared_weakEv, symObjAddr: 0x2650, symBinAddr: 0x67B0, symSize: 0x4 }
  - { offset: 0x16465, size: 0x8, addend: 0x0, symName: __ZNSt3__120__shared_ptr_emplaceIN8facebook5react25NativeGoogleSigninSpecJSIENS_9allocatorIS3_EEE21__on_zero_shared_weakEv, symObjAddr: 0x2650, symBinAddr: 0x67B0, symSize: 0x4 }
  - { offset: 0x18C6A, size: 0x8, addend: 0x0, symName: '-[RNGoogleSignInButton onPress]', symObjAddr: 0x0, symBinAddr: 0x67B4, symSize: 0x10 }
  - { offset: 0x19014, size: 0x8, addend: 0x0, symName: '-[RNGoogleSignInButton onPress]', symObjAddr: 0x0, symBinAddr: 0x67B4, symSize: 0x10 }
  - { offset: 0x1904A, size: 0x8, addend: 0x0, symName: '-[RNGoogleSignInButton setOnPress:]', symObjAddr: 0x10, symBinAddr: 0x67C4, symSize: 0xC }
  - { offset: 0x19089, size: 0x8, addend: 0x0, symName: '-[RNGoogleSignInButton .cxx_destruct]', symObjAddr: 0x1C, symBinAddr: 0x67D0, symSize: 0x14 }
  - { offset: 0x192CA, size: 0x8, addend: 0x0, symName: __ZN8facebook5react17HostPlatformColorL14UndefinedColorE, symObjAddr: 0x16AA68, symBinAddr: 0x15160, symSize: 0x0 }
  - { offset: 0x1F044, size: 0x8, addend: 0x0, symName: __ZN8facebook5react38concreteComponentDescriptorConstructorINS0_27ConcreteComponentDescriptorINS0_22ConcreteViewShadowNodeIXadL_ZNS0_33RNGoogleSigninButtonComponentNameEEENS0_25RNGoogleSigninButtonPropsENS0_32RNGoogleSigninButtonEventEmitterENS0_9StateDataEEEEEEENSt3__110unique_ptrIKNS0_19ComponentDescriptorENS9_14default_deleteISC_EEEERKNS0_29ComponentDescriptorParametersE, symObjAddr: 0x448, symBinAddr: 0x6C2C, symSize: 0x34 }
  - { offset: 0x4EF4C, size: 0x8, addend: 0x0, symName: __ZNSt3__115allocate_sharedB8ne200100IKN8facebook5react25RNGoogleSigninButtonPropsENS_9allocatorIS3_EEJELi0EEENS_10shared_ptrIT_EERKT0_DpOT1_, symObjAddr: 0x3120, symBinAddr: 0x92E0, symSize: 0x48 }
  - { offset: 0x4F33D, size: 0x8, addend: 0x0, symName: __ZNSt3__111make_uniqueB8ne200100IKN8facebook5react27ConcreteComponentDescriptorINS2_22ConcreteViewShadowNodeIXadL_ZNS2_33RNGoogleSigninButtonComponentNameEEENS2_25RNGoogleSigninButtonPropsENS2_32RNGoogleSigninButtonEventEmitterENS2_9StateDataEEEEEJRKNS2_29ComponentDescriptorParametersEELi0EEENS_10unique_ptrIT_NS_14default_deleteISF_EEEEDpOT0_, symObjAddr: 0x47C, symBinAddr: 0x6C60, symSize: 0xD4 }
  - { offset: 0x4FCB1, size: 0x8, addend: 0x0, symName: __ZNSt3__115allocate_sharedB8ne200100IN8facebook5react22ConcreteViewShadowNodeIXadL_ZNS2_33RNGoogleSigninButtonComponentNameEEENS2_25RNGoogleSigninButtonPropsENS2_32RNGoogleSigninButtonEventEmitterENS2_9StateDataEEENS_9allocatorIS7_EEJRKNS2_18ShadowNodeFragmentERKNS_10shared_ptrIKNS2_16ShadowNodeFamilyEEENS2_16ShadowNodeTraitsEELi0EEENSD_IT_EERKT0_DpOT1_, symObjAddr: 0x1C8C, symBinAddr: 0x83B8, symSize: 0x70 }
  - { offset: 0x4FFD8, size: 0x8, addend: 0x0, symName: __ZNSt3__115allocate_sharedB8ne200100IN8facebook5react22ConcreteViewShadowNodeIXadL_ZNS2_33RNGoogleSigninButtonComponentNameEEENS2_25RNGoogleSigninButtonPropsENS2_32RNGoogleSigninButtonEventEmitterENS2_9StateDataEEENS_9allocatorIS7_EEJRKNS2_10ShadowNodeERKNS2_18ShadowNodeFragmentEELi0EEENS_10shared_ptrIT_EERKT0_DpOT1_, symObjAddr: 0x2248, symBinAddr: 0x8764, symSize: 0x60 }
  - { offset: 0x5078A, size: 0x8, addend: 0x0, symName: __ZNSt3__115allocate_sharedB8ne200100IN8facebook5react11EventTargetENS_9allocatorIS3_EEJRKNS_10shared_ptrIKNS2_14InstanceHandleEEERKiELi0EEENS6_IT_EERKT0_DpOT1_, symObjAddr: 0x2C28, symBinAddr: 0x8F48, symSize: 0x60 }
  - { offset: 0x50A3B, size: 0x8, addend: 0x0, symName: __ZNSt3__115allocate_sharedB8ne200100IKN8facebook5react32RNGoogleSigninButtonEventEmitterENS_9allocatorIS3_EEJNS_10shared_ptrINS2_11EventTargetEEERKNS_8weak_ptrIKNS2_15EventDispatcherEEEELi0EEENS7_IT_EERKT0_DpOT1_, symObjAddr: 0x27C0, symBinAddr: 0x8B90, symSize: 0x60 }
  - { offset: 0x50CEC, size: 0x8, addend: 0x0, symName: __ZNSt3__115allocate_sharedB8ne200100IN8facebook5react16ShadowNodeFamilyENS_9allocatorIS3_EEJRKNS2_24ShadowNodeFamilyFragmentERNS_10shared_ptrIKNS2_32RNGoogleSigninButtonEventEmitterEEERKNS_8weak_ptrIKNS2_15EventDispatcherEEERKNS2_27ConcreteComponentDescriptorINS2_22ConcreteViewShadowNodeIXadL_ZNS2_33RNGoogleSigninButtonComponentNameEEENS2_25RNGoogleSigninButtonPropsESA_NS2_9StateDataEEEEEELi0EEENS9_IT_EERKT0_DpOT1_, symObjAddr: 0x2E8C, symBinAddr: 0x90FC, symSize: 0x78 }
  - { offset: 0x5156A, size: 0x8, addend: 0x0, symName: __ZNSt3__112__destroy_atB8ne200100IN8facebook5react19AccessibilityActionELi0EEEvPT_, symObjAddr: 0x17E4, symBinAddr: 0x7FC8, symSize: 0x50 }
  - { offset: 0x51C81, size: 0x8, addend: 0x0, symName: __ZNSt3__112__destroy_atB8ne200100INS_4pairIKNS_12basic_stringIcNS_11char_traitsIcEENS_9allocatorIcEEEENS_10shared_ptrIvEEEELi0EEEvPT_, symObjAddr: 0x1A48, symBinAddr: 0x822C, symSize: 0x3C }
  - { offset: 0x52746, size: 0x8, addend: 0x0, symName: __ZNSt3__115allocate_sharedB8ne200100IN8facebook5react25RNGoogleSigninButtonPropsENS_9allocatorIS3_EEJRKNS2_18PropsParserContextERKS3_RKNS2_8RawPropsEELi0EEENS_10shared_ptrIT_EERKT0_DpOT1_, symObjAddr: 0x2458, symBinAddr: 0x891C, symSize: 0x70 }
  - { offset: 0x530BA, size: 0x8, addend: 0x0, symName: __ZNSt3__120__throw_length_errorB8ne200100EPKc, symObjAddr: 0x26F4, symBinAddr: 0x8B1C, symSize: 0x50 }
  - { offset: 0x5354B, size: 0x8, addend: 0x0, symName: __ZNSt3__112construct_atB8ne200100IN8facebook5react32RNGoogleSigninButtonEventEmitterEJNS_10shared_ptrINS2_11EventTargetEEERKNS_8weak_ptrIKNS2_15EventDispatcherEEEEPS3_EEPT_SF_DpOT0_, symObjAddr: 0x28B4, symBinAddr: 0x8C84, symSize: 0x140 }
  - { offset: 0x54493, size: 0x8, addend: 0x0, symName: __ZNSt3__112construct_atB8ne200100IN8facebook5react11EventTargetEJRKNS_10shared_ptrIKNS2_14InstanceHandleEEERKiEPS3_EEPT_SE_DpOT0_, symObjAddr: 0x2D38, symBinAddr: 0x9058, symSize: 0xA4 }
  - { offset: 0x54B40, size: 0x8, addend: 0x0, symName: __ZNSt3__112construct_atB8ne200100IN8facebook5react16ShadowNodeFamilyEJRKNS2_24ShadowNodeFamilyFragmentERNS_10shared_ptrIKNS2_32RNGoogleSigninButtonEventEmitterEEERKNS_8weak_ptrIKNS2_15EventDispatcherEEERKNS2_27ConcreteComponentDescriptorINS2_22ConcreteViewShadowNodeIXadL_ZNS2_33RNGoogleSigninButtonComponentNameEEENS2_25RNGoogleSigninButtonPropsES8_NS2_9StateDataEEEEEEPS3_EEPT_SS_DpOT0_, symObjAddr: 0x2F94, symBinAddr: 0x9204, symSize: 0xDC }
  - { offset: 0x568FF, size: 0x8, addend: 0x0, symName: '-[RNGoogleSignInButtonComponentView initWithFrame:]', symObjAddr: 0x20, symBinAddr: 0x6804, symSize: 0x144 }
  - { offset: 0x56928, size: 0x8, addend: 0x0, symName: '__ZZ51-[RNGoogleSignInButtonComponentView initWithFrame:]E12defaultProps', symObjAddr: 0x16AA80, symBinAddr: 0x15178, symSize: 0x0 }
  - { offset: 0x59834, size: 0x8, addend: 0x0, symName: __ZN5folly6detail16throw_exception_INS_9TypeErrorEJPKcNS_7dynamic4TypeEEEEvDpT0_, symObjAddr: 0x2564, symBinAddr: 0x96F8, symSize: 0x68 }
  - { offset: 0x5A8C2, size: 0x8, addend: 0x0, symName: __ZN5folly15throw_exceptionINS_9TypeErrorEEEvOT_, symObjAddr: 0x25CC, symBinAddr: 0x9760, symSize: 0x34 }
  - { offset: 0x5DF14, size: 0x8, addend: 0x0, symName: __ZN8facebook5react18ConcreteShadowNodeIXadL_ZNS0_33RNGoogleSigninButtonComponentNameEEENS0_24YogaLayoutableShadowNodeENS0_25RNGoogleSigninButtonPropsENS0_32RNGoogleSigninButtonEventEmitterENS0_9StateDataEE18defaultSharedPropsEv, symObjAddr: 0x2364, symBinAddr: 0x8828, symSize: 0x9C }
  - { offset: 0x5DF34, size: 0x8, addend: 0x0, symName: __ZZN8facebook5react18ConcreteShadowNodeIXadL_ZNS0_33RNGoogleSigninButtonComponentNameEEENS0_24YogaLayoutableShadowNodeENS0_25RNGoogleSigninButtonPropsENS0_32RNGoogleSigninButtonEventEmitterENS0_9StateDataEE18defaultSharedPropsEvE18defaultSharedProps, symObjAddr: 0x3F10, symBinAddr: 0x15128, symSize: 0x0 }
  - { offset: 0x5E43B, size: 0x8, addend: 0x0, symName: '+[RNGoogleSignInButtonComponentView componentDescriptorProvider]', symObjAddr: 0x0, symBinAddr: 0x67E4, symSize: 0x20 }
  - { offset: 0x5E46E, size: 0x8, addend: 0x0, symName: '+[RNGoogleSignInButtonComponentView componentDescriptorProvider]', symObjAddr: 0x0, symBinAddr: 0x67E4, symSize: 0x20 }
  - { offset: 0x5E4CD, size: 0x8, addend: 0x0, symName: __ZNSt3__110shared_ptrIKN8facebook5react13BaseViewPropsEEaSB8ne200100IKNS2_25RNGoogleSigninButtonPropsELi0EEERS5_RKNS0_IT_EE, symObjAddr: 0x168, symBinAddr: 0x694C, symSize: 0x78 }
  - { offset: 0x5E698, size: 0x8, addend: 0x0, symName: __ZNSt3__110shared_ptrIKN8facebook5react25RNGoogleSigninButtonPropsEED1B8ne200100Ev, symObjAddr: 0x164, symBinAddr: 0x6948, symSize: 0x4 }
  - { offset: 0x5E6BB, size: 0x8, addend: 0x0, symName: __ZNSt3__110shared_ptrIKN8facebook5react25RNGoogleSigninButtonPropsEED1B8ne200100Ev, symObjAddr: 0x164, symBinAddr: 0x6948, symSize: 0x4 }
  - { offset: 0x5E94A, size: 0x8, addend: 0x0, symName: '-[RNGoogleSignInButtonComponentView onButtonPress:]', symObjAddr: 0x1E0, symBinAddr: 0x69C4, symSize: 0xDC }
  - { offset: 0x5ED2E, size: 0x8, addend: 0x0, symName: '-[RNGoogleSignInButtonComponentView updateProps:oldProps:]', symObjAddr: 0x2BC, symBinAddr: 0x6AA0, symSize: 0x16C }
  - { offset: 0x5F059, size: 0x8, addend: 0x0, symName: '-[RNGoogleSignInButtonComponentView .cxx_destruct]', symObjAddr: 0x428, symBinAddr: 0x6C0C, symSize: 0x14 }
  - { offset: 0x5F08B, size: 0x8, addend: 0x0, symName: __Z23RNGoogleSigninButtonClsv, symObjAddr: 0x43C, symBinAddr: 0x6C20, symSize: 0xC }
  - { offset: 0x5F5E1, size: 0x8, addend: 0x0, symName: __ZN8facebook5react14RawPropsParser7prepareINS0_25RNGoogleSigninButtonPropsEEEvv, symObjAddr: 0x5A0, symBinAddr: 0x6D84, symSize: 0x1D8 }
  - { offset: 0x5FCDF, size: 0x8, addend: 0x0, symName: __ZN8facebook5react14RawPropsParserD1Ev, symObjAddr: 0x550, symBinAddr: 0x6D34, symSize: 0x50 }
  - { offset: 0x605ED, size: 0x8, addend: 0x0, symName: __ZN8facebook5react13BaseViewPropsC2Ev, symObjAddr: 0xD10, symBinAddr: 0x74F4, symSize: 0x2E4 }
  - { offset: 0x62CC6, size: 0x8, addend: 0x0, symName: __ZN8facebook5react13BaseViewPropsD2Ev, symObjAddr: 0x1904, symBinAddr: 0x80E8, symSize: 0xD0 }
  - { offset: 0x6347B, size: 0x8, addend: 0x0, symName: __ZNSt3__112__hash_tableINS_17__hash_value_typeINS_12basic_stringIcNS_11char_traitsIcEENS_9allocatorIcEEEENS_10shared_ptrIvEEEENS_22__unordered_map_hasherIS7_SA_NS_4hashIS7_EENS_8equal_toIS7_EELb1EEENS_21__unordered_map_equalIS7_SA_SF_SD_Lb1EEENS5_ISA_EEED2Ev, symObjAddr: 0x19D4, symBinAddr: 0x81B8, symSize: 0x38 }
  - { offset: 0x635DC, size: 0x8, addend: 0x0, symName: __ZNSt3__16vectorIN8facebook5react8RawValueENS_9allocatorIS3_EEE16__destroy_vectorclB8ne200100Ev, symObjAddr: 0x1A84, symBinAddr: 0x8268, symSize: 0x70 }
  - { offset: 0x638DD, size: 0x8, addend: 0x0, symName: __ZN8facebook5react27ConcreteComponentDescriptorINS0_22ConcreteViewShadowNodeIXadL_ZNS0_33RNGoogleSigninButtonComponentNameEEENS0_25RNGoogleSigninButtonPropsENS0_32RNGoogleSigninButtonEventEmitterENS0_9StateDataEEEED1Ev, symObjAddr: 0x778, symBinAddr: 0x6F5C, symSize: 0x4 }
  - { offset: 0x638FF, size: 0x8, addend: 0x0, symName: __ZN8facebook5react27ConcreteComponentDescriptorINS0_22ConcreteViewShadowNodeIXadL_ZNS0_33RNGoogleSigninButtonComponentNameEEENS0_25RNGoogleSigninButtonPropsENS0_32RNGoogleSigninButtonEventEmitterENS0_9StateDataEEEED1Ev, symObjAddr: 0x778, symBinAddr: 0x6F5C, symSize: 0x4 }
  - { offset: 0x6391C, size: 0x8, addend: 0x0, symName: __ZN8facebook5react27ConcreteComponentDescriptorINS0_22ConcreteViewShadowNodeIXadL_ZNS0_33RNGoogleSigninButtonComponentNameEEENS0_25RNGoogleSigninButtonPropsENS0_32RNGoogleSigninButtonEventEmitterENS0_9StateDataEEEED1Ev, symObjAddr: 0x778, symBinAddr: 0x6F5C, symSize: 0x4 }
  - { offset: 0x6392F, size: 0x8, addend: 0x0, symName: __ZN8facebook5react19ComponentDescriptorD2Ev, symObjAddr: 0x1B58, symBinAddr: 0x833C, symSize: 0x7C }
  - { offset: 0x63DFE, size: 0x8, addend: 0x0, symName: __ZN8facebook5react27ConcreteComponentDescriptorINS0_22ConcreteViewShadowNodeIXadL_ZNS0_33RNGoogleSigninButtonComponentNameEEENS0_25RNGoogleSigninButtonPropsENS0_32RNGoogleSigninButtonEventEmitterENS0_9StateDataEEEED0Ev, symObjAddr: 0x77C, symBinAddr: 0x6F60, symSize: 0x14 }
  - { offset: 0x63E76, size: 0x8, addend: 0x0, symName: __ZNK8facebook5react27ConcreteComponentDescriptorINS0_22ConcreteViewShadowNodeIXadL_ZNS0_33RNGoogleSigninButtonComponentNameEEENS0_25RNGoogleSigninButtonPropsENS0_32RNGoogleSigninButtonEventEmitterENS0_9StateDataEEEE18getComponentHandleEv, symObjAddr: 0x790, symBinAddr: 0x6F74, symSize: 0xC }
  - { offset: 0x63E9D, size: 0x8, addend: 0x0, symName: __ZNK8facebook5react27ConcreteComponentDescriptorINS0_22ConcreteViewShadowNodeIXadL_ZNS0_33RNGoogleSigninButtonComponentNameEEENS0_25RNGoogleSigninButtonPropsENS0_32RNGoogleSigninButtonEventEmitterENS0_9StateDataEEEE16getComponentNameEv, symObjAddr: 0x79C, symBinAddr: 0x6F80, symSize: 0xC }
  - { offset: 0x63EC4, size: 0x8, addend: 0x0, symName: __ZNK8facebook5react27ConcreteComponentDescriptorINS0_22ConcreteViewShadowNodeIXadL_ZNS0_33RNGoogleSigninButtonComponentNameEEENS0_25RNGoogleSigninButtonPropsENS0_32RNGoogleSigninButtonEventEmitterENS0_9StateDataEEEE9getTraitsEv, symObjAddr: 0x7A8, symBinAddr: 0x6F8C, symSize: 0x8 }
  - { offset: 0x63FC3, size: 0x8, addend: 0x0, symName: __ZNK8facebook5react27ConcreteComponentDescriptorINS0_22ConcreteViewShadowNodeIXadL_ZNS0_33RNGoogleSigninButtonComponentNameEEENS0_25RNGoogleSigninButtonPropsENS0_32RNGoogleSigninButtonEventEmitterENS0_9StateDataEEEE16createShadowNodeERKNS0_18ShadowNodeFragmentERKNSt3__110shared_ptrIKNS0_16ShadowNodeFamilyEEE, symObjAddr: 0x7B0, symBinAddr: 0x6F94, symSize: 0x90 }
  - { offset: 0x64244, size: 0x8, addend: 0x0, symName: __ZNK8facebook5react27ConcreteComponentDescriptorINS0_22ConcreteViewShadowNodeIXadL_ZNS0_33RNGoogleSigninButtonComponentNameEEENS0_25RNGoogleSigninButtonPropsENS0_32RNGoogleSigninButtonEventEmitterENS0_9StateDataEEEE15cloneShadowNodeERKNS0_10ShadowNodeERKNS0_18ShadowNodeFragmentE, symObjAddr: 0x840, symBinAddr: 0x7024, symSize: 0x104 }
  - { offset: 0x645B1, size: 0x8, addend: 0x0, symName: __ZNK8facebook5react27ConcreteComponentDescriptorINS0_22ConcreteViewShadowNodeIXadL_ZNS0_33RNGoogleSigninButtonComponentNameEEENS0_25RNGoogleSigninButtonPropsENS0_32RNGoogleSigninButtonEventEmitterENS0_9StateDataEEEE11appendChildERKNSt3__110shared_ptrIKNS0_10ShadowNodeEEESE_, symObjAddr: 0x944, symBinAddr: 0x7128, symSize: 0x14 }
  - { offset: 0x64608, size: 0x8, addend: 0x0, symName: __ZNK8facebook5react27ConcreteComponentDescriptorINS0_22ConcreteViewShadowNodeIXadL_ZNS0_33RNGoogleSigninButtonComponentNameEEENS0_25RNGoogleSigninButtonPropsENS0_32RNGoogleSigninButtonEventEmitterENS0_9StateDataEEEE11appendChildERKNSt3__110shared_ptrIKNS0_10ShadowNodeEEESE_, symObjAddr: 0x944, symBinAddr: 0x7128, symSize: 0x14 }
  - { offset: 0x64EED, size: 0x8, addend: 0x0, symName: __ZNK8facebook5react27ConcreteComponentDescriptorINS0_22ConcreteViewShadowNodeIXadL_ZNS0_33RNGoogleSigninButtonComponentNameEEENS0_25RNGoogleSigninButtonPropsENS0_32RNGoogleSigninButtonEventEmitterENS0_9StateDataEEEE10clonePropsERKNS0_18PropsParserContextERKNSt3__110shared_ptrIKNS0_5PropsEEENS0_8RawPropsE, symObjAddr: 0x958, symBinAddr: 0x713C, symSize: 0x21C }
  - { offset: 0x65A35, size: 0x8, addend: 0x0, symName: __ZN8facebook5react18ConcreteShadowNodeIXadL_ZNS0_33RNGoogleSigninButtonComponentNameEEENS0_24YogaLayoutableShadowNodeENS0_25RNGoogleSigninButtonPropsENS0_32RNGoogleSigninButtonEventEmitterENS0_9StateDataEE5PropsERKNS0_18PropsParserContextERKNS0_8RawPropsERKNSt3__110shared_ptrIKNS0_5PropsEEE, symObjAddr: 0x2400, symBinAddr: 0x88C4, symSize: 0x58 }
  - { offset: 0x65B2A, size: 0x8, addend: 0x0, symName: __ZNSt3__116__variant_detail6__dtorINS0_8__traitsIJN5folly7dynamicENS_4pairIPN8facebook3jsi7RuntimeENS7_5ValueEEEEEELNS0_6_TraitE1EE9__destroyB8ne200100Ev, symObjAddr: 0x1AF4, symBinAddr: 0x82D8, symSize: 0x54 }
  - { offset: 0x65CEF, size: 0x8, addend: 0x0, symName: __ZNK8facebook5react27ConcreteComponentDescriptorINS0_22ConcreteViewShadowNodeIXadL_ZNS0_33RNGoogleSigninButtonComponentNameEEENS0_25RNGoogleSigninButtonPropsENS0_32RNGoogleSigninButtonEventEmitterENS0_9StateDataEEEE18createInitialStateERKNSt3__110shared_ptrIKNS0_5PropsEEERKNS9_IKNS0_16ShadowNodeFamilyEEE, symObjAddr: 0xB74, symBinAddr: 0x7358, symSize: 0x8 }
  - { offset: 0x65D32, size: 0x8, addend: 0x0, symName: __ZNK8facebook5react27ConcreteComponentDescriptorINS0_22ConcreteViewShadowNodeIXadL_ZNS0_33RNGoogleSigninButtonComponentNameEEENS0_25RNGoogleSigninButtonPropsENS0_32RNGoogleSigninButtonEventEmitterENS0_9StateDataEEEE18createInitialStateERKNSt3__110shared_ptrIKNS0_5PropsEEERKNS9_IKNS0_16ShadowNodeFamilyEEE, symObjAddr: 0xB74, symBinAddr: 0x7358, symSize: 0x8 }
  - { offset: 0x65D55, size: 0x8, addend: 0x0, symName: __ZNK8facebook5react27ConcreteComponentDescriptorINS0_22ConcreteViewShadowNodeIXadL_ZNS0_33RNGoogleSigninButtonComponentNameEEENS0_25RNGoogleSigninButtonPropsENS0_32RNGoogleSigninButtonEventEmitterENS0_9StateDataEEEE18createInitialStateERKNSt3__110shared_ptrIKNS0_5PropsEEERKNS9_IKNS0_16ShadowNodeFamilyEEE, symObjAddr: 0xB74, symBinAddr: 0x7358, symSize: 0x8 }
  - { offset: 0x65D78, size: 0x8, addend: 0x0, symName: __ZNK8facebook5react27ConcreteComponentDescriptorINS0_22ConcreteViewShadowNodeIXadL_ZNS0_33RNGoogleSigninButtonComponentNameEEENS0_25RNGoogleSigninButtonPropsENS0_32RNGoogleSigninButtonEventEmitterENS0_9StateDataEEEE11createStateERKNS0_16ShadowNodeFamilyERKNSt3__110shared_ptrIKvEE, symObjAddr: 0xB7C, symBinAddr: 0x7360, symSize: 0x8 }
  - { offset: 0x65DBB, size: 0x8, addend: 0x0, symName: __ZNK8facebook5react27ConcreteComponentDescriptorINS0_22ConcreteViewShadowNodeIXadL_ZNS0_33RNGoogleSigninButtonComponentNameEEENS0_25RNGoogleSigninButtonPropsENS0_32RNGoogleSigninButtonEventEmitterENS0_9StateDataEEEE11createStateERKNS0_16ShadowNodeFamilyERKNSt3__110shared_ptrIKvEE, symObjAddr: 0xB7C, symBinAddr: 0x7360, symSize: 0x8 }
  - { offset: 0x65DDE, size: 0x8, addend: 0x0, symName: __ZNK8facebook5react27ConcreteComponentDescriptorINS0_22ConcreteViewShadowNodeIXadL_ZNS0_33RNGoogleSigninButtonComponentNameEEENS0_25RNGoogleSigninButtonPropsENS0_32RNGoogleSigninButtonEventEmitterENS0_9StateDataEEEE11createStateERKNS0_16ShadowNodeFamilyERKNSt3__110shared_ptrIKvEE, symObjAddr: 0xB7C, symBinAddr: 0x7360, symSize: 0x8 }
  - { offset: 0x65FEF, size: 0x8, addend: 0x0, symName: __ZNK8facebook5react27ConcreteComponentDescriptorINS0_22ConcreteViewShadowNodeIXadL_ZNS0_33RNGoogleSigninButtonComponentNameEEENS0_25RNGoogleSigninButtonPropsENS0_32RNGoogleSigninButtonEventEmitterENS0_9StateDataEEEE12createFamilyERKNS0_24ShadowNodeFamilyFragmentE, symObjAddr: 0xB84, symBinAddr: 0x7368, symSize: 0x168 }
  - { offset: 0x664FD, size: 0x8, addend: 0x0, symName: __ZNK8facebook5react27ConcreteComponentDescriptorINS0_22ConcreteViewShadowNodeIXadL_ZNS0_33RNGoogleSigninButtonComponentNameEEENS0_25RNGoogleSigninButtonPropsENS0_32RNGoogleSigninButtonEventEmitterENS0_9StateDataEEEE5adoptERNS0_10ShadowNodeE, symObjAddr: 0xCEC, symBinAddr: 0x74D0, symSize: 0x4 }
  - { offset: 0x66530, size: 0x8, addend: 0x0, symName: __ZN8facebook5react25RNGoogleSigninButtonPropsD1Ev, symObjAddr: 0xD00, symBinAddr: 0x74E4, symSize: 0x10 }
  - { offset: 0x66552, size: 0x8, addend: 0x0, symName: __ZN8facebook5react25RNGoogleSigninButtonPropsD1Ev, symObjAddr: 0xD00, symBinAddr: 0x74E4, symSize: 0x10 }
  - { offset: 0x66E2B, size: 0x8, addend: 0x0, symName: __ZN8facebook5react17YogaStylablePropsC2Ev, symObjAddr: 0x117C, symBinAddr: 0x7960, symSize: 0xF0 }
  - { offset: 0x66E62, size: 0x8, addend: 0x0, symName: __ZN8facebook5react17YogaStylablePropsC2Ev, symObjAddr: 0x117C, symBinAddr: 0x7960, symSize: 0xF0 }
  - { offset: 0x6780A, size: 0x8, addend: 0x0, symName: __ZN8facebook5react13BaseViewPropsD1Ev, symObjAddr: 0xFF4, symBinAddr: 0x77D8, symSize: 0xC }
  - { offset: 0x67860, size: 0x8, addend: 0x0, symName: __ZN8facebook5react13BaseViewPropsD0Ev, symObjAddr: 0x1000, symBinAddr: 0x77E4, symSize: 0x1C }
  - { offset: 0x67ACE, size: 0x8, addend: 0x0, symName: __ZN8facebook5react17YogaStylablePropsD1Ev, symObjAddr: 0x101C, symBinAddr: 0x7800, symSize: 0x60 }
  - { offset: 0x67D6D, size: 0x8, addend: 0x0, symName: __ZNKSt3__114default_deleteIN8facebook4yoga16SmallValueBufferILm4EE8OverflowEEclB8ne200100EPS5_, symObjAddr: 0x18C0, symBinAddr: 0x80A4, symSize: 0x44 }
  - { offset: 0x67FEB, size: 0x8, addend: 0x0, symName: __ZN8facebook5react17YogaStylablePropsD0Ev, symObjAddr: 0x107C, symBinAddr: 0x7860, symSize: 0x60 }
  - { offset: 0x682B0, size: 0x8, addend: 0x0, symName: __ZN8facebook5react5PropsD1Ev, symObjAddr: 0x10DC, symBinAddr: 0x78C0, symSize: 0x40 }
  - { offset: 0x68413, size: 0x8, addend: 0x0, symName: __ZN8facebook5react5PropsD0Ev, symObjAddr: 0x111C, symBinAddr: 0x7900, symSize: 0x40 }
  - { offset: 0x68581, size: 0x8, addend: 0x0, symName: __ZN8facebook5react25RNGoogleSigninButtonPropsD0Ev, symObjAddr: 0x115C, symBinAddr: 0x7940, symSize: 0x20 }
  - { offset: 0x68A17, size: 0x8, addend: 0x0, symName: __ZN8facebook5react18AccessibilityPropsD2Ev, symObjAddr: 0x126C, symBinAddr: 0x7A50, symSize: 0xD4 }
  - { offset: 0x69501, size: 0x8, addend: 0x0, symName: __ZNSt3__16vectorIN8facebook5react19AccessibilityActionENS_9allocatorIS3_EEE16__destroy_vectorclB8ne200100Ev, symObjAddr: 0x1774, symBinAddr: 0x7F58, symSize: 0x70 }
  - { offset: 0x69647, size: 0x8, addend: 0x0, symName: __ZNSt3__16vectorINS_12basic_stringIcNS_11char_traitsIcEENS_9allocatorIcEEEENS4_IS6_EEE16__destroy_vectorclB8ne200100Ev, symObjAddr: 0x1834, symBinAddr: 0x8018, symSize: 0x40 }
  - { offset: 0x69949, size: 0x8, addend: 0x0, symName: __ZNSt3__16vectorINS_7variantIJN8facebook5react14LinearGradientENS3_14RadialGradientEEEENS_9allocatorIS6_EEE16__destroy_vectorclB8ne200100Ev, symObjAddr: 0x1340, symBinAddr: 0x7B24, symSize: 0x70 }
  - { offset: 0x69BF7, size: 0x8, addend: 0x0, symName: __ZNSt3__116__variant_detail6__dtorINS0_8__traitsIJN8facebook5react14LinearGradientENS4_14RadialGradientEEEELNS0_6_TraitE1EE9__destroyB8ne200100Ev, symObjAddr: 0x13B0, symBinAddr: 0x7B94, symSize: 0x54 }
  - { offset: 0x69F8C, size: 0x8, addend: 0x0, symName: __ZNSt3__116__variant_detail12__visitation6__base12__dispatcherIJLm0EEE10__dispatchB8ne200100IOZNS0_6__dtorINS0_8__traitsIJN8facebook5react14LinearGradientENS9_14RadialGradientEEEELNS0_6_TraitE1EE9__destroyB8ne200100EvEUlRT_E_JRNS0_6__baseILSD_1EJSA_SB_EEEEEEDcSF_DpT0_, symObjAddr: 0x1404, symBinAddr: 0x7BE8, symSize: 0x28 }
  - { offset: 0x6A125, size: 0x8, addend: 0x0, symName: __ZNSt3__16vectorIN8facebook5react9ColorStopENS_9allocatorIS3_EEE16__destroy_vectorclB8ne200100Ev, symObjAddr: 0x1454, symBinAddr: 0x7C38, symSize: 0x70 }
  - { offset: 0x6A3FE, size: 0x8, addend: 0x0, symName: __ZNSt3__116__variant_detail12__visitation6__base12__dispatcherIJLm1EEE10__dispatchB8ne200100IOZNS0_6__dtorINS0_8__traitsIJN8facebook5react14LinearGradientENS9_14RadialGradientEEEELNS0_6_TraitE1EE9__destroyB8ne200100EvEUlRT_E_JRNS0_6__baseILSD_1EJSA_SB_EEEEEEDcSF_DpT0_, symObjAddr: 0x142C, symBinAddr: 0x7C10, symSize: 0x28 }
  - { offset: 0x6A756, size: 0x8, addend: 0x0, symName: __ZNSt3__110shared_ptrIvED2B8ne200100Ev, symObjAddr: 0x160C, symBinAddr: 0x7DF0, symSize: 0x58 }
  - { offset: 0x6AA7F, size: 0x8, addend: 0x0, symName: __ZNSt3__16vectorIN8facebook5react14FilterFunctionENS_9allocatorIS3_EEE16__destroy_vectorclB8ne200100Ev, symObjAddr: 0x14C4, symBinAddr: 0x7CA8, symSize: 0x74 }
  - { offset: 0x6AD8B, size: 0x8, addend: 0x0, symName: __ZNSt3__116__variant_detail6__dtorINS0_8__traitsIJdN8facebook5react16DropShadowParamsEEEELNS0_6_TraitE1EE9__destroyB8ne200100Ev, symObjAddr: 0x1538, symBinAddr: 0x7D1C, symSize: 0x54 }
  - { offset: 0x6AFBA, size: 0x8, addend: 0x0, symName: __ZNSt3__116__variant_detail12__visitation6__base12__dispatcherIJLm0EEE10__dispatchB8ne200100IOZNS0_6__dtorINS0_8__traitsIJdN8facebook5react16DropShadowParamsEEEELNS0_6_TraitE1EE9__destroyB8ne200100EvEUlRT_E_JRNS0_6__baseILSC_1EJdSA_EEEEEEDcSE_DpT0_, symObjAddr: 0x158C, symBinAddr: 0x7D70, symSize: 0x4 }
  - { offset: 0x6B0C8, size: 0x8, addend: 0x0, symName: __ZNSt3__116__variant_detail12__visitation6__base12__dispatcherIJLm1EEE10__dispatchB8ne200100IOZNS0_6__dtorINS0_8__traitsIJdN8facebook5react16DropShadowParamsEEEELNS0_6_TraitE1EE9__destroyB8ne200100EvEUlRT_E_JRNS0_6__baseILSC_1EJdSA_EEEEEEDcSE_DpT0_, symObjAddr: 0x1590, symBinAddr: 0x7D74, symSize: 0x8 }
  - { offset: 0x6B100, size: 0x8, addend: 0x0, symName: __ZNSt3__116__variant_detail12__visitation6__base12__dispatcherIJLm1EEE10__dispatchB8ne200100IOZNS0_6__dtorINS0_8__traitsIJdN8facebook5react16DropShadowParamsEEEELNS0_6_TraitE1EE9__destroyB8ne200100EvEUlRT_E_JRNS0_6__baseILSC_1EJdSA_EEEEEEDcSE_DpT0_, symObjAddr: 0x1590, symBinAddr: 0x7D74, symSize: 0x8 }
  - { offset: 0x6B127, size: 0x8, addend: 0x0, symName: __ZNSt3__116__variant_detail12__visitation6__base12__dispatcherIJLm1EEE10__dispatchB8ne200100IOZNS0_6__dtorINS0_8__traitsIJdN8facebook5react16DropShadowParamsEEEELNS0_6_TraitE1EE9__destroyB8ne200100EvEUlRT_E_JRNS0_6__baseILSC_1EJdSA_EEEEEEDcSE_DpT0_, symObjAddr: 0x1590, symBinAddr: 0x7D74, symSize: 0x8 }
  - { offset: 0x6B14E, size: 0x8, addend: 0x0, symName: __ZNSt3__116__variant_detail12__visitation6__base12__dispatcherIJLm1EEE10__dispatchB8ne200100IOZNS0_6__dtorINS0_8__traitsIJdN8facebook5react16DropShadowParamsEEEELNS0_6_TraitE1EE9__destroyB8ne200100EvEUlRT_E_JRNS0_6__baseILSC_1EJdSA_EEEEEEDcSE_DpT0_, symObjAddr: 0x1590, symBinAddr: 0x7D74, symSize: 0x8 }
  - { offset: 0x6B16B, size: 0x8, addend: 0x0, symName: __ZNSt3__116__variant_detail12__visitation6__base12__dispatcherIJLm1EEE10__dispatchB8ne200100IOZNS0_6__dtorINS0_8__traitsIJdN8facebook5react16DropShadowParamsEEEELNS0_6_TraitE1EE9__destroyB8ne200100EvEUlRT_E_JRNS0_6__baseILSC_1EJdSA_EEEEEEDcSE_DpT0_, symObjAddr: 0x1590, symBinAddr: 0x7D74, symSize: 0x8 }
  - { offset: 0x6B188, size: 0x8, addend: 0x0, symName: __ZNSt3__116__variant_detail12__visitation6__base12__dispatcherIJLm1EEE10__dispatchB8ne200100IOZNS0_6__dtorINS0_8__traitsIJdN8facebook5react16DropShadowParamsEEEELNS0_6_TraitE1EE9__destroyB8ne200100EvEUlRT_E_JRNS0_6__baseILSC_1EJdSA_EEEEEEDcSE_DpT0_, symObjAddr: 0x1590, symBinAddr: 0x7D74, symSize: 0x8 }
  - { offset: 0x6B1A4, size: 0x8, addend: 0x0, symName: __ZNSt3__116__variant_detail12__visitation6__base12__dispatcherIJLm1EEE10__dispatchB8ne200100IOZNS0_6__dtorINS0_8__traitsIJdN8facebook5react16DropShadowParamsEEEELNS0_6_TraitE1EE9__destroyB8ne200100EvEUlRT_E_JRNS0_6__baseILSC_1EJdSA_EEEEEEDcSE_DpT0_, symObjAddr: 0x1590, symBinAddr: 0x7D74, symSize: 0x8 }
  - { offset: 0x6B389, size: 0x8, addend: 0x0, symName: __ZNSt3__16vectorIN8facebook5react9BoxShadowENS_9allocatorIS3_EEE16__destroy_vectorclB8ne200100Ev, symObjAddr: 0x1598, symBinAddr: 0x7D7C, symSize: 0x74 }
  - { offset: 0x6B69A, size: 0x8, addend: 0x0, symName: __ZN8facebook5react22CascadedRectangleEdgesINS0_11SharedColorEED2Ev, symObjAddr: 0x1664, symBinAddr: 0x7E48, symSize: 0x110 }
  - { offset: 0x6C7F6, size: 0x8, addend: 0x0, symName: __ZNSt3__16vectorINS_12basic_stringIcNS_11char_traitsIcEENS_9allocatorIcEEEENS4_IS6_EEE5clearB8ne200100Ev, symObjAddr: 0x1874, symBinAddr: 0x8058, symSize: 0x4C }
  - { offset: 0x6CFE6, size: 0x8, addend: 0x0, symName: __ZNSt3__112__hash_tableINS_17__hash_value_typeINS_12basic_stringIcNS_11char_traitsIcEENS_9allocatorIcEEEENS_10shared_ptrIvEEEENS_22__unordered_map_hasherIS7_SA_NS_4hashIS7_EENS_8equal_toIS7_EELb1EEENS_21__unordered_map_equalIS7_SA_SF_SD_Lb1EEENS5_ISA_EEE17__deallocate_nodeEPNS_16__hash_node_baseIPNS_11__hash_nodeISA_PvEEEE, symObjAddr: 0x1A0C, symBinAddr: 0x81F0, symSize: 0x3C }
  - { offset: 0x6D498, size: 0x8, addend: 0x0, symName: __ZNSt3__116__variant_detail12__visitation6__base12__dispatcherIJLm0EEE10__dispatchB8ne200100IOZNS0_6__dtorINS0_8__traitsIJN5folly7dynamicENS_4pairIPN8facebook3jsi7RuntimeENSC_5ValueEEEEEELNS0_6_TraitE1EE9__destroyB8ne200100EvEUlRT_E_JRNS0_6__baseILSI_1EJS9_SG_EEEEEEDcSK_DpT0_, symObjAddr: 0x1B48, symBinAddr: 0x832C, symSize: 0x8 }
  - { offset: 0x6D64A, size: 0x8, addend: 0x0, symName: __ZNSt3__116__variant_detail12__visitation6__base12__dispatcherIJLm1EEE10__dispatchB8ne200100IOZNS0_6__dtorINS0_8__traitsIJN5folly7dynamicENS_4pairIPN8facebook3jsi7RuntimeENSC_5ValueEEEEEELNS0_6_TraitE1EE9__destroyB8ne200100EvEUlRT_E_JRNS0_6__baseILSI_1EJS9_SG_EEEEEEDcSK_DpT0_, symObjAddr: 0x1B50, symBinAddr: 0x8334, symSize: 0x8 }
  - { offset: 0x6D682, size: 0x8, addend: 0x0, symName: __ZNSt3__116__variant_detail12__visitation6__base12__dispatcherIJLm1EEE10__dispatchB8ne200100IOZNS0_6__dtorINS0_8__traitsIJN5folly7dynamicENS_4pairIPN8facebook3jsi7RuntimeENSC_5ValueEEEEEELNS0_6_TraitE1EE9__destroyB8ne200100EvEUlRT_E_JRNS0_6__baseILSI_1EJS9_SG_EEEEEEDcSK_DpT0_, symObjAddr: 0x1B50, symBinAddr: 0x8334, symSize: 0x8 }
  - { offset: 0x6D6A9, size: 0x8, addend: 0x0, symName: __ZNSt3__116__variant_detail12__visitation6__base12__dispatcherIJLm1EEE10__dispatchB8ne200100IOZNS0_6__dtorINS0_8__traitsIJN5folly7dynamicENS_4pairIPN8facebook3jsi7RuntimeENSC_5ValueEEEEEELNS0_6_TraitE1EE9__destroyB8ne200100EvEUlRT_E_JRNS0_6__baseILSI_1EJS9_SG_EEEEEEDcSK_DpT0_, symObjAddr: 0x1B50, symBinAddr: 0x8334, symSize: 0x8 }
  - { offset: 0x6D6D0, size: 0x8, addend: 0x0, symName: __ZNSt3__116__variant_detail12__visitation6__base12__dispatcherIJLm1EEE10__dispatchB8ne200100IOZNS0_6__dtorINS0_8__traitsIJN5folly7dynamicENS_4pairIPN8facebook3jsi7RuntimeENSC_5ValueEEEEEELNS0_6_TraitE1EE9__destroyB8ne200100EvEUlRT_E_JRNS0_6__baseILSI_1EJS9_SG_EEEEEEDcSK_DpT0_, symObjAddr: 0x1B50, symBinAddr: 0x8334, symSize: 0x8 }
  - { offset: 0x6D6ED, size: 0x8, addend: 0x0, symName: __ZNSt3__116__variant_detail12__visitation6__base12__dispatcherIJLm1EEE10__dispatchB8ne200100IOZNS0_6__dtorINS0_8__traitsIJN5folly7dynamicENS_4pairIPN8facebook3jsi7RuntimeENSC_5ValueEEEEEELNS0_6_TraitE1EE9__destroyB8ne200100EvEUlRT_E_JRNS0_6__baseILSI_1EJS9_SG_EEEEEEDcSK_DpT0_, symObjAddr: 0x1B50, symBinAddr: 0x8334, symSize: 0x8 }
  - { offset: 0x6D70A, size: 0x8, addend: 0x0, symName: __ZNSt3__116__variant_detail12__visitation6__base12__dispatcherIJLm1EEE10__dispatchB8ne200100IOZNS0_6__dtorINS0_8__traitsIJN5folly7dynamicENS_4pairIPN8facebook3jsi7RuntimeENSC_5ValueEEEEEELNS0_6_TraitE1EE9__destroyB8ne200100EvEUlRT_E_JRNS0_6__baseILSI_1EJS9_SG_EEEEEEDcSK_DpT0_, symObjAddr: 0x1B50, symBinAddr: 0x8334, symSize: 0x8 }
  - { offset: 0x6D726, size: 0x8, addend: 0x0, symName: __ZNSt3__116__variant_detail12__visitation6__base12__dispatcherIJLm1EEE10__dispatchB8ne200100IOZNS0_6__dtorINS0_8__traitsIJN5folly7dynamicENS_4pairIPN8facebook3jsi7RuntimeENSC_5ValueEEEEEELNS0_6_TraitE1EE9__destroyB8ne200100EvEUlRT_E_JRNS0_6__baseILSI_1EJS9_SG_EEEEEEDcSK_DpT0_, symObjAddr: 0x1B50, symBinAddr: 0x8334, symSize: 0x8 }
  - { offset: 0x6D883, size: 0x8, addend: 0x0, symName: __ZN8facebook5react19ComponentDescriptorD1Ev, symObjAddr: 0x1BD4, symBinAddr: 0x96F0, symSize: 0x4 }
  - { offset: 0x6D8AC, size: 0x8, addend: 0x0, symName: __ZN8facebook5react19ComponentDescriptorD0Ev, symObjAddr: 0x1BD8, symBinAddr: 0x96F4, symSize: 0x4 }
  - { offset: 0x6DB31, size: 0x8, addend: 0x0, symName: __ZNSt3__120__shared_ptr_emplaceIN8facebook5react22ConcreteViewShadowNodeIXadL_ZNS2_33RNGoogleSigninButtonComponentNameEEENS2_25RNGoogleSigninButtonPropsENS2_32RNGoogleSigninButtonEventEmitterENS2_9StateDataEEENS_9allocatorIS7_EEEC2B8ne200100IJRKNS2_18ShadowNodeFragmentERKNS_10shared_ptrIKNS2_16ShadowNodeFamilyEEENS2_16ShadowNodeTraitsEES9_Li0EEES9_DpOT_, symObjAddr: 0x1CFC, symBinAddr: 0x8428, symSize: 0x68 }
  - { offset: 0x6DEAC, size: 0x8, addend: 0x0, symName: __ZN8facebook5react22ConcreteViewShadowNodeIXadL_ZNS0_33RNGoogleSigninButtonComponentNameEEENS0_25RNGoogleSigninButtonPropsENS0_32RNGoogleSigninButtonEventEmitterENS0_9StateDataEE10initializeEv, symObjAddr: 0x1DAC, symBinAddr: 0x84D8, symSize: 0x6C }
  - { offset: 0x6DEF3, size: 0x8, addend: 0x0, symName: __ZN8facebook5react22ConcreteViewShadowNodeIXadL_ZNS0_33RNGoogleSigninButtonComponentNameEEENS0_25RNGoogleSigninButtonPropsENS0_32RNGoogleSigninButtonEventEmitterENS0_9StateDataEE10initializeEv, symObjAddr: 0x1DAC, symBinAddr: 0x84D8, symSize: 0x6C }
  - { offset: 0x6DF0E, size: 0x8, addend: 0x0, symName: __ZN8facebook5react22ConcreteViewShadowNodeIXadL_ZNS0_33RNGoogleSigninButtonComponentNameEEENS0_25RNGoogleSigninButtonPropsENS0_32RNGoogleSigninButtonEventEmitterENS0_9StateDataEE10initializeEv, symObjAddr: 0x1DAC, symBinAddr: 0x84D8, symSize: 0x6C }
  - { offset: 0x6DFA4, size: 0x8, addend: 0x0, symName: __ZNSt3__120__shared_ptr_emplaceIN8facebook5react22ConcreteViewShadowNodeIXadL_ZNS2_33RNGoogleSigninButtonComponentNameEEENS2_25RNGoogleSigninButtonPropsENS2_32RNGoogleSigninButtonEventEmitterENS2_9StateDataEEENS_9allocatorIS7_EEED1Ev, symObjAddr: 0x1D64, symBinAddr: 0x8490, symSize: 0x14 }
  - { offset: 0x6DFC6, size: 0x8, addend: 0x0, symName: __ZNSt3__120__shared_ptr_emplaceIN8facebook5react22ConcreteViewShadowNodeIXadL_ZNS2_33RNGoogleSigninButtonComponentNameEEENS2_25RNGoogleSigninButtonPropsENS2_32RNGoogleSigninButtonEventEmitterENS2_9StateDataEEENS_9allocatorIS7_EEED1Ev, symObjAddr: 0x1D64, symBinAddr: 0x8490, symSize: 0x14 }
  - { offset: 0x6DFFB, size: 0x8, addend: 0x0, symName: __ZNSt3__120__shared_ptr_emplaceIN8facebook5react22ConcreteViewShadowNodeIXadL_ZNS2_33RNGoogleSigninButtonComponentNameEEENS2_25RNGoogleSigninButtonPropsENS2_32RNGoogleSigninButtonEventEmitterENS2_9StateDataEEENS_9allocatorIS7_EEED0Ev, symObjAddr: 0x1D78, symBinAddr: 0x84A4, symSize: 0x24 }
  - { offset: 0x6E0CA, size: 0x8, addend: 0x0, symName: __ZNSt3__120__shared_ptr_emplaceIN8facebook5react22ConcreteViewShadowNodeIXadL_ZNS2_33RNGoogleSigninButtonComponentNameEEENS2_25RNGoogleSigninButtonPropsENS2_32RNGoogleSigninButtonEventEmitterENS2_9StateDataEEENS_9allocatorIS7_EEE16__on_zero_sharedEv, symObjAddr: 0x1D9C, symBinAddr: 0x84C8, symSize: 0xC }
  - { offset: 0x6E0F3, size: 0x8, addend: 0x0, symName: __ZNSt3__120__shared_ptr_emplaceIN8facebook5react22ConcreteViewShadowNodeIXadL_ZNS2_33RNGoogleSigninButtonComponentNameEEENS2_25RNGoogleSigninButtonPropsENS2_32RNGoogleSigninButtonEventEmitterENS2_9StateDataEEENS_9allocatorIS7_EEE16__on_zero_sharedEv, symObjAddr: 0x1D9C, symBinAddr: 0x84C8, symSize: 0xC }
  - { offset: 0x6E111, size: 0x8, addend: 0x0, symName: __ZNSt3__120__shared_ptr_emplaceIN8facebook5react22ConcreteViewShadowNodeIXadL_ZNS2_33RNGoogleSigninButtonComponentNameEEENS2_25RNGoogleSigninButtonPropsENS2_32RNGoogleSigninButtonEventEmitterENS2_9StateDataEEENS_9allocatorIS7_EEE16__on_zero_sharedEv, symObjAddr: 0x1D9C, symBinAddr: 0x84C8, symSize: 0xC }
  - { offset: 0x6E130, size: 0x8, addend: 0x0, symName: __ZNSt3__120__shared_ptr_emplaceIN8facebook5react22ConcreteViewShadowNodeIXadL_ZNS2_33RNGoogleSigninButtonComponentNameEEENS2_25RNGoogleSigninButtonPropsENS2_32RNGoogleSigninButtonEventEmitterENS2_9StateDataEEENS_9allocatorIS7_EEE16__on_zero_sharedEv, symObjAddr: 0x1D9C, symBinAddr: 0x84C8, symSize: 0xC }
  - { offset: 0x6E15C, size: 0x8, addend: 0x0, symName: __ZNSt3__120__shared_ptr_emplaceIN8facebook5react22ConcreteViewShadowNodeIXadL_ZNS2_33RNGoogleSigninButtonComponentNameEEENS2_25RNGoogleSigninButtonPropsENS2_32RNGoogleSigninButtonEventEmitterENS2_9StateDataEEENS_9allocatorIS7_EEE21__on_zero_shared_weakEv, symObjAddr: 0x1DA8, symBinAddr: 0x84D4, symSize: 0x4 }
  - { offset: 0x6E18F, size: 0x8, addend: 0x0, symName: __ZNSt3__120__shared_ptr_emplaceIN8facebook5react22ConcreteViewShadowNodeIXadL_ZNS2_33RNGoogleSigninButtonComponentNameEEENS2_25RNGoogleSigninButtonPropsENS2_32RNGoogleSigninButtonEventEmitterENS2_9StateDataEEENS_9allocatorIS7_EEE21__on_zero_shared_weakEv, symObjAddr: 0x1DA8, symBinAddr: 0x84D4, symSize: 0x4 }
  - { offset: 0x6E1B2, size: 0x8, addend: 0x0, symName: __ZNSt3__120__shared_ptr_emplaceIN8facebook5react22ConcreteViewShadowNodeIXadL_ZNS2_33RNGoogleSigninButtonComponentNameEEENS2_25RNGoogleSigninButtonPropsENS2_32RNGoogleSigninButtonEventEmitterENS2_9StateDataEEENS_9allocatorIS7_EEE21__on_zero_shared_weakEv, symObjAddr: 0x1DA8, symBinAddr: 0x84D4, symSize: 0x4 }
  - { offset: 0x6E1D5, size: 0x8, addend: 0x0, symName: __ZNSt3__120__shared_ptr_emplaceIN8facebook5react22ConcreteViewShadowNodeIXadL_ZNS2_33RNGoogleSigninButtonComponentNameEEENS2_25RNGoogleSigninButtonPropsENS2_32RNGoogleSigninButtonEventEmitterENS2_9StateDataEEENS_9allocatorIS7_EEE21__on_zero_shared_weakEv, symObjAddr: 0x1DA8, symBinAddr: 0x84D4, symSize: 0x4 }
  - { offset: 0x6E20B, size: 0x8, addend: 0x0, symName: __ZNSt3__120__shared_ptr_emplaceIN8facebook5react22ConcreteViewShadowNodeIXadL_ZNS2_33RNGoogleSigninButtonComponentNameEEENS2_25RNGoogleSigninButtonPropsENS2_32RNGoogleSigninButtonEventEmitterENS2_9StateDataEEENS_9allocatorIS7_EEE21__on_zero_shared_weakEv, symObjAddr: 0x1DA8, symBinAddr: 0x84D4, symSize: 0x4 }
  - { offset: 0x6E502, size: 0x8, addend: 0x0, symName: __ZN8facebook5react22ConcreteViewShadowNodeIXadL_ZNS0_33RNGoogleSigninButtonComponentNameEEENS0_25RNGoogleSigninButtonPropsENS0_32RNGoogleSigninButtonEventEmitterENS0_9StateDataEED1Ev, symObjAddr: 0x1E18, symBinAddr: 0x8544, symSize: 0x70 }
  - { offset: 0x6E8B8, size: 0x8, addend: 0x0, symName: __ZNSt3__16vectorINS_10shared_ptrIKN8facebook5react24YogaLayoutableShadowNodeEEENS_9allocatorIS6_EEE16__destroy_vectorclB8ne200100Ev, symObjAddr: 0x1F6C, symBinAddr: 0x8698, symSize: 0x70 }
  - { offset: 0x6EA33, size: 0x8, addend: 0x0, symName: __ZN8facebook5react10ShadowNodeD2Ev, symObjAddr: 0x2034, symBinAddr: 0x8708, symSize: 0x5C }
  - { offset: 0x6EB5A, size: 0x8, addend: 0x0, symName: __ZN8facebook5react22ConcreteViewShadowNodeIXadL_ZNS0_33RNGoogleSigninButtonComponentNameEEENS0_25RNGoogleSigninButtonPropsENS0_32RNGoogleSigninButtonEventEmitterENS0_9StateDataEED0Ev, symObjAddr: 0x1E88, symBinAddr: 0x85B4, symSize: 0x74 }
  - { offset: 0x6EF36, size: 0x8, addend: 0x0, symName: __ZNK8facebook5react22ConcreteViewShadowNodeIXadL_ZNS0_33RNGoogleSigninButtonComponentNameEEENS0_25RNGoogleSigninButtonPropsENS0_32RNGoogleSigninButtonEventEmitterENS0_9StateDataEE12getTransformEv, symObjAddr: 0x1EFC, symBinAddr: 0x8628, symSize: 0x40 }
  - { offset: 0x6EFA5, size: 0x8, addend: 0x0, symName: __ZNK8facebook5react22ConcreteViewShadowNodeIXadL_ZNS0_33RNGoogleSigninButtonComponentNameEEENS0_25RNGoogleSigninButtonPropsENS0_32RNGoogleSigninButtonEventEmitterENS0_9StateDataEE16canBeTouchTargetEv, symObjAddr: 0x1F3C, symBinAddr: 0x8668, symSize: 0x18 }
  - { offset: 0x6EFDE, size: 0x8, addend: 0x0, symName: __ZNK8facebook5react22ConcreteViewShadowNodeIXadL_ZNS0_33RNGoogleSigninButtonComponentNameEEENS0_25RNGoogleSigninButtonPropsENS0_32RNGoogleSigninButtonEventEmitterENS0_9StateDataEE16canBeTouchTargetEv, symObjAddr: 0x1F3C, symBinAddr: 0x8668, symSize: 0x18 }
  - { offset: 0x6EFF9, size: 0x8, addend: 0x0, symName: __ZNK8facebook5react22ConcreteViewShadowNodeIXadL_ZNS0_33RNGoogleSigninButtonComponentNameEEENS0_25RNGoogleSigninButtonPropsENS0_32RNGoogleSigninButtonEventEmitterENS0_9StateDataEE16canBeTouchTargetEv, symObjAddr: 0x1F3C, symBinAddr: 0x8668, symSize: 0x18 }
  - { offset: 0x6F016, size: 0x8, addend: 0x0, symName: __ZNK8facebook5react22ConcreteViewShadowNodeIXadL_ZNS0_33RNGoogleSigninButtonComponentNameEEENS0_25RNGoogleSigninButtonPropsENS0_32RNGoogleSigninButtonEventEmitterENS0_9StateDataEE24canChildrenBeTouchTargetEv, symObjAddr: 0x1F54, symBinAddr: 0x8680, symSize: 0x18 }
  - { offset: 0x6F04B, size: 0x8, addend: 0x0, symName: __ZNK8facebook5react22ConcreteViewShadowNodeIXadL_ZNS0_33RNGoogleSigninButtonComponentNameEEENS0_25RNGoogleSigninButtonPropsENS0_32RNGoogleSigninButtonEventEmitterENS0_9StateDataEE24canChildrenBeTouchTargetEv, symObjAddr: 0x1F54, symBinAddr: 0x8680, symSize: 0x18 }
  - { offset: 0x6F066, size: 0x8, addend: 0x0, symName: __ZNK8facebook5react22ConcreteViewShadowNodeIXadL_ZNS0_33RNGoogleSigninButtonComponentNameEEENS0_25RNGoogleSigninButtonPropsENS0_32RNGoogleSigninButtonEventEmitterENS0_9StateDataEE24canChildrenBeTouchTargetEv, symObjAddr: 0x1F54, symBinAddr: 0x8680, symSize: 0x18 }
  - { offset: 0x6F463, size: 0x8, addend: 0x0, symName: __ZNSt3__120__shared_ptr_emplaceIN8facebook5react22ConcreteViewShadowNodeIXadL_ZNS2_33RNGoogleSigninButtonComponentNameEEENS2_25RNGoogleSigninButtonPropsENS2_32RNGoogleSigninButtonEventEmitterENS2_9StateDataEEENS_9allocatorIS7_EEEC2B8ne200100IJRKNS2_10ShadowNodeERKNS2_18ShadowNodeFragmentEES9_Li0EEES9_DpOT_, symObjAddr: 0x22A8, symBinAddr: 0x87C4, symSize: 0x64 }
  - { offset: 0x6F986, size: 0x8, addend: 0x0, symName: __ZNSt3__120__shared_ptr_emplaceIN8facebook5react25RNGoogleSigninButtonPropsENS_9allocatorIS3_EEEC2B8ne200100IJRKNS2_18PropsParserContextERKS3_RKNS2_8RawPropsEES5_Li0EEES5_DpOT_, symObjAddr: 0x24C8, symBinAddr: 0x898C, symSize: 0x4C }
  - { offset: 0x6FB7A, size: 0x8, addend: 0x0, symName: __ZNSt3__120__shared_ptr_emplaceIN8facebook5react25RNGoogleSigninButtonPropsENS_9allocatorIS3_EEED1Ev, symObjAddr: 0x2514, symBinAddr: 0x89D8, symSize: 0x14 }
  - { offset: 0x6FB9C, size: 0x8, addend: 0x0, symName: __ZNSt3__120__shared_ptr_emplaceIN8facebook5react25RNGoogleSigninButtonPropsENS_9allocatorIS3_EEED1Ev, symObjAddr: 0x2514, symBinAddr: 0x89D8, symSize: 0x14 }
  - { offset: 0x6FBD1, size: 0x8, addend: 0x0, symName: __ZNSt3__120__shared_ptr_emplaceIN8facebook5react25RNGoogleSigninButtonPropsENS_9allocatorIS3_EEED0Ev, symObjAddr: 0x2528, symBinAddr: 0x89EC, symSize: 0x24 }
  - { offset: 0x6FCA0, size: 0x8, addend: 0x0, symName: __ZNSt3__120__shared_ptr_emplaceIN8facebook5react25RNGoogleSigninButtonPropsENS_9allocatorIS3_EEE16__on_zero_sharedEv, symObjAddr: 0x254C, symBinAddr: 0x8A10, symSize: 0x14 }
  - { offset: 0x6FCC9, size: 0x8, addend: 0x0, symName: __ZNSt3__120__shared_ptr_emplaceIN8facebook5react25RNGoogleSigninButtonPropsENS_9allocatorIS3_EEE16__on_zero_sharedEv, symObjAddr: 0x254C, symBinAddr: 0x8A10, symSize: 0x14 }
  - { offset: 0x6FD54, size: 0x8, addend: 0x0, symName: __ZNSt3__120__shared_ptr_emplaceIN8facebook5react25RNGoogleSigninButtonPropsENS_9allocatorIS3_EEE21__on_zero_shared_weakEv, symObjAddr: 0x2560, symBinAddr: 0x8A24, symSize: 0x4 }
  - { offset: 0x6FD87, size: 0x8, addend: 0x0, symName: __ZNSt3__120__shared_ptr_emplaceIN8facebook5react25RNGoogleSigninButtonPropsENS_9allocatorIS3_EEE21__on_zero_shared_weakEv, symObjAddr: 0x2560, symBinAddr: 0x8A24, symSize: 0x4 }
  - { offset: 0x6FDAA, size: 0x8, addend: 0x0, symName: __ZNSt3__120__shared_ptr_emplaceIN8facebook5react25RNGoogleSigninButtonPropsENS_9allocatorIS3_EEE21__on_zero_shared_weakEv, symObjAddr: 0x2560, symBinAddr: 0x8A24, symSize: 0x4 }
  - { offset: 0x6FDCD, size: 0x8, addend: 0x0, symName: __ZNSt3__120__shared_ptr_emplaceIN8facebook5react25RNGoogleSigninButtonPropsENS_9allocatorIS3_EEE21__on_zero_shared_weakEv, symObjAddr: 0x2560, symBinAddr: 0x8A24, symSize: 0x4 }
  - { offset: 0x6FE03, size: 0x8, addend: 0x0, symName: __ZNSt3__120__shared_ptr_emplaceIN8facebook5react25RNGoogleSigninButtonPropsENS_9allocatorIS3_EEE21__on_zero_shared_weakEv, symObjAddr: 0x2560, symBinAddr: 0x8A24, symSize: 0x4 }
  - { offset: 0x6FE98, size: 0x8, addend: 0x0, symName: __ZNSt3__112basic_stringIcNS_11char_traitsIcEENS_9allocatorIcEEEC2B8ne200100ILi0EEEPKc, symObjAddr: 0x263C, symBinAddr: 0x8A64, symSize: 0xA4 }
  - { offset: 0x70108, size: 0x8, addend: 0x0, symName: __ZNSt3__112basic_stringIcNS_11char_traitsIcEENS_9allocatorIcEEE20__throw_length_errorB8ne200100Ev, symObjAddr: 0x26E0, symBinAddr: 0x8B08, symSize: 0x14 }
  - { offset: 0x70120, size: 0x8, addend: 0x0, symName: __ZN5folly9TypeErrorC1EOS0_, symObjAddr: 0x2604, symBinAddr: 0x8A2C, symSize: 0x24 }
  - { offset: 0x7017B, size: 0x8, addend: 0x0, symName: __ZN5folly9TypeErrorD1Ev, symObjAddr: 0x2600, symBinAddr: 0x8A28, symSize: 0x4 }
  - { offset: 0x7019D, size: 0x8, addend: 0x0, symName: __ZN5folly9TypeErrorD1Ev, symObjAddr: 0x2600, symBinAddr: 0x8A28, symSize: 0x4 }
  - { offset: 0x701D7, size: 0x8, addend: 0x0, symName: __ZN5folly9TypeErrorD0Ev, symObjAddr: 0x2628, symBinAddr: 0x8A50, symSize: 0x14 }
  - { offset: 0x703AD, size: 0x8, addend: 0x0, symName: __ZNSt3__112basic_stringIcNS_11char_traitsIcEENS_9allocatorIcEEE20__throw_length_errorB8ne200100Ev, symObjAddr: 0x26E0, symBinAddr: 0x8B08, symSize: 0x14 }
  - { offset: 0x703C4, size: 0x8, addend: 0x0, symName: __ZNSt3__120__throw_length_errorB8ne200100EPKc, symObjAddr: 0x26F4, symBinAddr: 0x8B1C, symSize: 0x50 }
  - { offset: 0x703CF, size: 0x8, addend: 0x0, symName: __ZNSt12length_errorC1B8ne200100EPKc, symObjAddr: 0x2744, symBinAddr: 0x8B6C, symSize: 0x24 }
  - { offset: 0x706A1, size: 0x8, addend: 0x0, symName: __ZNSt3__120__shared_ptr_emplaceIKN8facebook5react32RNGoogleSigninButtonEventEmitterENS_9allocatorIS3_EEEC2B8ne200100IJNS_10shared_ptrINS2_11EventTargetEEERKNS_8weak_ptrIKNS2_15EventDispatcherEEEES6_Li0EEES6_DpOT_, symObjAddr: 0x2820, symBinAddr: 0x8BF0, symSize: 0x4C }
  - { offset: 0x7084F, size: 0x8, addend: 0x0, symName: __ZNSt3__120__shared_ptr_emplaceIKN8facebook5react32RNGoogleSigninButtonEventEmitterENS_9allocatorIS3_EEED1Ev, symObjAddr: 0x286C, symBinAddr: 0x8C3C, symSize: 0x14 }
  - { offset: 0x70871, size: 0x8, addend: 0x0, symName: __ZNSt3__120__shared_ptr_emplaceIKN8facebook5react32RNGoogleSigninButtonEventEmitterENS_9allocatorIS3_EEED1Ev, symObjAddr: 0x286C, symBinAddr: 0x8C3C, symSize: 0x14 }
  - { offset: 0x708A6, size: 0x8, addend: 0x0, symName: __ZNSt3__120__shared_ptr_emplaceIKN8facebook5react32RNGoogleSigninButtonEventEmitterENS_9allocatorIS3_EEED0Ev, symObjAddr: 0x2880, symBinAddr: 0x8C50, symSize: 0x24 }
  - { offset: 0x70975, size: 0x8, addend: 0x0, symName: __ZNSt3__120__shared_ptr_emplaceIKN8facebook5react32RNGoogleSigninButtonEventEmitterENS_9allocatorIS3_EEE16__on_zero_sharedEv, symObjAddr: 0x28A4, symBinAddr: 0x8C74, symSize: 0xC }
  - { offset: 0x7099E, size: 0x8, addend: 0x0, symName: __ZNSt3__120__shared_ptr_emplaceIKN8facebook5react32RNGoogleSigninButtonEventEmitterENS_9allocatorIS3_EEE16__on_zero_sharedEv, symObjAddr: 0x28A4, symBinAddr: 0x8C74, symSize: 0xC }
  - { offset: 0x709BC, size: 0x8, addend: 0x0, symName: __ZNSt3__120__shared_ptr_emplaceIKN8facebook5react32RNGoogleSigninButtonEventEmitterENS_9allocatorIS3_EEE16__on_zero_sharedEv, symObjAddr: 0x28A4, symBinAddr: 0x8C74, symSize: 0xC }
  - { offset: 0x709DB, size: 0x8, addend: 0x0, symName: __ZNSt3__120__shared_ptr_emplaceIKN8facebook5react32RNGoogleSigninButtonEventEmitterENS_9allocatorIS3_EEE16__on_zero_sharedEv, symObjAddr: 0x28A4, symBinAddr: 0x8C74, symSize: 0xC }
  - { offset: 0x70A07, size: 0x8, addend: 0x0, symName: __ZNSt3__120__shared_ptr_emplaceIKN8facebook5react32RNGoogleSigninButtonEventEmitterENS_9allocatorIS3_EEE21__on_zero_shared_weakEv, symObjAddr: 0x28B0, symBinAddr: 0x8C80, symSize: 0x4 }
  - { offset: 0x70A3A, size: 0x8, addend: 0x0, symName: __ZNSt3__120__shared_ptr_emplaceIKN8facebook5react32RNGoogleSigninButtonEventEmitterENS_9allocatorIS3_EEE21__on_zero_shared_weakEv, symObjAddr: 0x28B0, symBinAddr: 0x8C80, symSize: 0x4 }
  - { offset: 0x70A5D, size: 0x8, addend: 0x0, symName: __ZNSt3__120__shared_ptr_emplaceIKN8facebook5react32RNGoogleSigninButtonEventEmitterENS_9allocatorIS3_EEE21__on_zero_shared_weakEv, symObjAddr: 0x28B0, symBinAddr: 0x8C80, symSize: 0x4 }
  - { offset: 0x70A80, size: 0x8, addend: 0x0, symName: __ZNSt3__120__shared_ptr_emplaceIKN8facebook5react32RNGoogleSigninButtonEventEmitterENS_9allocatorIS3_EEE21__on_zero_shared_weakEv, symObjAddr: 0x28B0, symBinAddr: 0x8C80, symSize: 0x4 }
  - { offset: 0x70AB5, size: 0x8, addend: 0x0, symName: __ZNSt3__120__shared_ptr_emplaceIKN8facebook5react32RNGoogleSigninButtonEventEmitterENS_9allocatorIS3_EEE21__on_zero_shared_weakEv, symObjAddr: 0x28B0, symBinAddr: 0x8C80, symSize: 0x4 }
  - { offset: 0x70F10, size: 0x8, addend: 0x0, symName: __ZN8facebook5react12EventEmitterD2Ev, symObjAddr: 0x2B68, symBinAddr: 0x8EE0, symSize: 0x50 }
  - { offset: 0x71087, size: 0x8, addend: 0x0, symName: __ZN8facebook5react32RNGoogleSigninButtonEventEmitterD1Ev, symObjAddr: 0x29F4, symBinAddr: 0x8DC4, symSize: 0x34 }
  - { offset: 0x711B4, size: 0x8, addend: 0x0, symName: __ZN8facebook5react32RNGoogleSigninButtonEventEmitterD0Ev, symObjAddr: 0x2A28, symBinAddr: 0x8DF8, symSize: 0x38 }
  - { offset: 0x7128E, size: 0x8, addend: 0x0, symName: __ZN8facebook5react20BaseViewEventEmitterD1Ev, symObjAddr: 0x2A60, symBinAddr: 0x8E30, symSize: 0x34 }
  - { offset: 0x71341, size: 0x8, addend: 0x0, symName: __ZN8facebook5react20BaseViewEventEmitterD0Ev, symObjAddr: 0x2A94, symBinAddr: 0x8E64, symSize: 0x38 }
  - { offset: 0x7141A, size: 0x8, addend: 0x0, symName: __ZNSt3__120__shared_ptr_emplaceIN8facebook5react20BaseViewEventEmitter16LayoutEventStateENS_9allocatorIS4_EEED1Ev, symObjAddr: 0x2ACC, symBinAddr: 0x8E9C, symSize: 0x14 }
  - { offset: 0x7143C, size: 0x8, addend: 0x0, symName: __ZNSt3__120__shared_ptr_emplaceIN8facebook5react20BaseViewEventEmitter16LayoutEventStateENS_9allocatorIS4_EEED1Ev, symObjAddr: 0x2ACC, symBinAddr: 0x8E9C, symSize: 0x14 }
  - { offset: 0x71471, size: 0x8, addend: 0x0, symName: __ZNSt3__120__shared_ptr_emplaceIN8facebook5react20BaseViewEventEmitter16LayoutEventStateENS_9allocatorIS4_EEED0Ev, symObjAddr: 0x2AE0, symBinAddr: 0x8EB0, symSize: 0x24 }
  - { offset: 0x7158B, size: 0x8, addend: 0x0, symName: __ZNSt3__120__shared_ptr_emplaceIN8facebook5react20BaseViewEventEmitter16LayoutEventStateENS_9allocatorIS4_EEE16__on_zero_sharedEv, symObjAddr: 0x2B04, symBinAddr: 0x8ED4, symSize: 0x8 }
  - { offset: 0x715B4, size: 0x8, addend: 0x0, symName: __ZNSt3__120__shared_ptr_emplaceIN8facebook5react20BaseViewEventEmitter16LayoutEventStateENS_9allocatorIS4_EEE16__on_zero_sharedEv, symObjAddr: 0x2B04, symBinAddr: 0x8ED4, symSize: 0x8 }
  - { offset: 0x715D2, size: 0x8, addend: 0x0, symName: __ZNSt3__120__shared_ptr_emplaceIN8facebook5react20BaseViewEventEmitter16LayoutEventStateENS_9allocatorIS4_EEE16__on_zero_sharedEv, symObjAddr: 0x2B04, symBinAddr: 0x8ED4, symSize: 0x8 }
  - { offset: 0x716A3, size: 0x8, addend: 0x0, symName: __ZNSt3__120__shared_ptr_emplaceIN8facebook5react20BaseViewEventEmitter16LayoutEventStateENS_9allocatorIS4_EEE21__on_zero_shared_weakEv, symObjAddr: 0x2B0C, symBinAddr: 0x8EDC, symSize: 0x4 }
  - { offset: 0x716D6, size: 0x8, addend: 0x0, symName: __ZNSt3__120__shared_ptr_emplaceIN8facebook5react20BaseViewEventEmitter16LayoutEventStateENS_9allocatorIS4_EEE21__on_zero_shared_weakEv, symObjAddr: 0x2B0C, symBinAddr: 0x8EDC, symSize: 0x4 }
  - { offset: 0x716F9, size: 0x8, addend: 0x0, symName: __ZNSt3__120__shared_ptr_emplaceIN8facebook5react20BaseViewEventEmitter16LayoutEventStateENS_9allocatorIS4_EEE21__on_zero_shared_weakEv, symObjAddr: 0x2B0C, symBinAddr: 0x8EDC, symSize: 0x4 }
  - { offset: 0x7171C, size: 0x8, addend: 0x0, symName: __ZNSt3__120__shared_ptr_emplaceIN8facebook5react20BaseViewEventEmitter16LayoutEventStateENS_9allocatorIS4_EEE21__on_zero_shared_weakEv, symObjAddr: 0x2B0C, symBinAddr: 0x8EDC, symSize: 0x4 }
  - { offset: 0x71752, size: 0x8, addend: 0x0, symName: __ZNSt3__120__shared_ptr_emplaceIN8facebook5react20BaseViewEventEmitter16LayoutEventStateENS_9allocatorIS4_EEE21__on_zero_shared_weakEv, symObjAddr: 0x2B0C, symBinAddr: 0x8EDC, symSize: 0x4 }
  - { offset: 0x7177A, size: 0x8, addend: 0x0, symName: __ZN8facebook5react12EventEmitterD1Ev, symObjAddr: 0x2BB8, symBinAddr: 0x8F30, symSize: 0x4 }
  - { offset: 0x7179D, size: 0x8, addend: 0x0, symName: __ZN8facebook5react12EventEmitterD1Ev, symObjAddr: 0x2BB8, symBinAddr: 0x8F30, symSize: 0x4 }
  - { offset: 0x717CE, size: 0x8, addend: 0x0, symName: __ZN8facebook5react12EventEmitterD0Ev, symObjAddr: 0x2BBC, symBinAddr: 0x8F34, symSize: 0x14 }
  - { offset: 0x71A73, size: 0x8, addend: 0x0, symName: __ZNSt3__120__shared_ptr_emplaceIN8facebook5react11EventTargetENS_9allocatorIS3_EEEC2B8ne200100IJRKNS_10shared_ptrIKNS2_14InstanceHandleEEERKiES5_Li0EEES5_DpOT_, symObjAddr: 0x2C88, symBinAddr: 0x8FA8, symSize: 0x4C }
  - { offset: 0x71C21, size: 0x8, addend: 0x0, symName: __ZNSt3__120__shared_ptr_emplaceIN8facebook5react11EventTargetENS_9allocatorIS3_EEED1Ev, symObjAddr: 0x2CD4, symBinAddr: 0x8FF4, symSize: 0x14 }
  - { offset: 0x71C43, size: 0x8, addend: 0x0, symName: __ZNSt3__120__shared_ptr_emplaceIN8facebook5react11EventTargetENS_9allocatorIS3_EEED1Ev, symObjAddr: 0x2CD4, symBinAddr: 0x8FF4, symSize: 0x14 }
  - { offset: 0x71C78, size: 0x8, addend: 0x0, symName: __ZNSt3__120__shared_ptr_emplaceIN8facebook5react11EventTargetENS_9allocatorIS3_EEED0Ev, symObjAddr: 0x2CE8, symBinAddr: 0x9008, symSize: 0x24 }
  - { offset: 0x71D9B, size: 0x8, addend: 0x0, symName: __ZNSt3__120__shared_ptr_emplaceIN8facebook5react11EventTargetENS_9allocatorIS3_EEE16__on_zero_sharedEv, symObjAddr: 0x2D0C, symBinAddr: 0x902C, symSize: 0x28 }
  - { offset: 0x71EAD, size: 0x8, addend: 0x0, symName: __ZNSt3__120__shared_ptr_emplaceIN8facebook5react11EventTargetENS_9allocatorIS3_EEE21__on_zero_shared_weakEv, symObjAddr: 0x2D34, symBinAddr: 0x9054, symSize: 0x4 }
  - { offset: 0x71EE0, size: 0x8, addend: 0x0, symName: __ZNSt3__120__shared_ptr_emplaceIN8facebook5react11EventTargetENS_9allocatorIS3_EEE21__on_zero_shared_weakEv, symObjAddr: 0x2D34, symBinAddr: 0x9054, symSize: 0x4 }
  - { offset: 0x71F03, size: 0x8, addend: 0x0, symName: __ZNSt3__120__shared_ptr_emplaceIN8facebook5react11EventTargetENS_9allocatorIS3_EEE21__on_zero_shared_weakEv, symObjAddr: 0x2D34, symBinAddr: 0x9054, symSize: 0x4 }
  - { offset: 0x71F26, size: 0x8, addend: 0x0, symName: __ZNSt3__120__shared_ptr_emplaceIN8facebook5react11EventTargetENS_9allocatorIS3_EEE21__on_zero_shared_weakEv, symObjAddr: 0x2D34, symBinAddr: 0x9054, symSize: 0x4 }
  - { offset: 0x71F5B, size: 0x8, addend: 0x0, symName: __ZNSt3__120__shared_ptr_emplaceIN8facebook5react11EventTargetENS_9allocatorIS3_EEE21__on_zero_shared_weakEv, symObjAddr: 0x2D34, symBinAddr: 0x9054, symSize: 0x4 }
  - { offset: 0x72255, size: 0x8, addend: 0x0, symName: __ZNSt3__120__shared_ptr_emplaceIN8facebook5react16ShadowNodeFamilyENS_9allocatorIS3_EEEC2B8ne200100IJRKNS2_24ShadowNodeFamilyFragmentERNS_10shared_ptrIKNS2_32RNGoogleSigninButtonEventEmitterEEERKNS_8weak_ptrIKNS2_15EventDispatcherEEERKNS2_27ConcreteComponentDescriptorINS2_22ConcreteViewShadowNodeIXadL_ZNS2_33RNGoogleSigninButtonComponentNameEEENS2_25RNGoogleSigninButtonPropsESC_NS2_9StateDataEEEEEES5_Li0EEES5_DpOT_, symObjAddr: 0x2F04, symBinAddr: 0x9174, symSize: 0x4C }
  - { offset: 0x7247D, size: 0x8, addend: 0x0, symName: __ZNSt3__120__shared_ptr_emplaceIN8facebook5react16ShadowNodeFamilyENS_9allocatorIS3_EEED1Ev, symObjAddr: 0x2F50, symBinAddr: 0x91C0, symSize: 0x14 }
  - { offset: 0x7249F, size: 0x8, addend: 0x0, symName: __ZNSt3__120__shared_ptr_emplaceIN8facebook5react16ShadowNodeFamilyENS_9allocatorIS3_EEED1Ev, symObjAddr: 0x2F50, symBinAddr: 0x91C0, symSize: 0x14 }
  - { offset: 0x724D4, size: 0x8, addend: 0x0, symName: __ZNSt3__120__shared_ptr_emplaceIN8facebook5react16ShadowNodeFamilyENS_9allocatorIS3_EEED0Ev, symObjAddr: 0x2F64, symBinAddr: 0x91D4, symSize: 0x24 }
  - { offset: 0x725A3, size: 0x8, addend: 0x0, symName: __ZNSt3__120__shared_ptr_emplaceIN8facebook5react16ShadowNodeFamilyENS_9allocatorIS3_EEE16__on_zero_sharedEv, symObjAddr: 0x2F88, symBinAddr: 0x91F8, symSize: 0x8 }
  - { offset: 0x725CC, size: 0x8, addend: 0x0, symName: __ZNSt3__120__shared_ptr_emplaceIN8facebook5react16ShadowNodeFamilyENS_9allocatorIS3_EEE16__on_zero_sharedEv, symObjAddr: 0x2F88, symBinAddr: 0x91F8, symSize: 0x8 }
  - { offset: 0x725EA, size: 0x8, addend: 0x0, symName: __ZNSt3__120__shared_ptr_emplaceIN8facebook5react16ShadowNodeFamilyENS_9allocatorIS3_EEE16__on_zero_sharedEv, symObjAddr: 0x2F88, symBinAddr: 0x91F8, symSize: 0x8 }
  - { offset: 0x72630, size: 0x8, addend: 0x0, symName: __ZNSt3__120__shared_ptr_emplaceIN8facebook5react16ShadowNodeFamilyENS_9allocatorIS3_EEE21__on_zero_shared_weakEv, symObjAddr: 0x2F90, symBinAddr: 0x9200, symSize: 0x4 }
  - { offset: 0x72663, size: 0x8, addend: 0x0, symName: __ZNSt3__120__shared_ptr_emplaceIN8facebook5react16ShadowNodeFamilyENS_9allocatorIS3_EEE21__on_zero_shared_weakEv, symObjAddr: 0x2F90, symBinAddr: 0x9200, symSize: 0x4 }
  - { offset: 0x72686, size: 0x8, addend: 0x0, symName: __ZNSt3__120__shared_ptr_emplaceIN8facebook5react16ShadowNodeFamilyENS_9allocatorIS3_EEE21__on_zero_shared_weakEv, symObjAddr: 0x2F90, symBinAddr: 0x9200, symSize: 0x4 }
  - { offset: 0x726A9, size: 0x8, addend: 0x0, symName: __ZNSt3__120__shared_ptr_emplaceIN8facebook5react16ShadowNodeFamilyENS_9allocatorIS3_EEE21__on_zero_shared_weakEv, symObjAddr: 0x2F90, symBinAddr: 0x9200, symSize: 0x4 }
  - { offset: 0x726DF, size: 0x8, addend: 0x0, symName: __ZNSt3__120__shared_ptr_emplaceIN8facebook5react16ShadowNodeFamilyENS_9allocatorIS3_EEE21__on_zero_shared_weakEv, symObjAddr: 0x2F90, symBinAddr: 0x9200, symSize: 0x4 }
  - { offset: 0x72A26, size: 0x8, addend: 0x0, symName: __ZNSt3__120__shared_ptr_emplaceIKN8facebook5react25RNGoogleSigninButtonPropsENS_9allocatorIS3_EEEC2B8ne200100IJES6_Li0EEES6_DpOT_, symObjAddr: 0x3168, symBinAddr: 0x9328, symSize: 0x84 }
  - { offset: 0x72B83, size: 0x8, addend: 0x0, symName: __ZNSt3__120__shared_ptr_emplaceIKN8facebook5react25RNGoogleSigninButtonPropsENS_9allocatorIS3_EEED1Ev, symObjAddr: 0x31EC, symBinAddr: 0x93AC, symSize: 0x14 }
  - { offset: 0x72BA5, size: 0x8, addend: 0x0, symName: __ZNSt3__120__shared_ptr_emplaceIKN8facebook5react25RNGoogleSigninButtonPropsENS_9allocatorIS3_EEED1Ev, symObjAddr: 0x31EC, symBinAddr: 0x93AC, symSize: 0x14 }
  - { offset: 0x72BDA, size: 0x8, addend: 0x0, symName: __ZNSt3__120__shared_ptr_emplaceIKN8facebook5react25RNGoogleSigninButtonPropsENS_9allocatorIS3_EEED0Ev, symObjAddr: 0x3200, symBinAddr: 0x93C0, symSize: 0x24 }
  - { offset: 0x72C79, size: 0x8, addend: 0x0, symName: __ZNSt3__120__shared_ptr_emplaceIKN8facebook5react25RNGoogleSigninButtonPropsENS_9allocatorIS3_EEE16__on_zero_sharedEv, symObjAddr: 0x3224, symBinAddr: 0x93E4, symSize: 0x14 }
  - { offset: 0x72CA2, size: 0x8, addend: 0x0, symName: __ZNSt3__120__shared_ptr_emplaceIKN8facebook5react25RNGoogleSigninButtonPropsENS_9allocatorIS3_EEE16__on_zero_sharedEv, symObjAddr: 0x3224, symBinAddr: 0x93E4, symSize: 0x14 }
  - { offset: 0x72D2D, size: 0x8, addend: 0x0, symName: __ZNSt3__120__shared_ptr_emplaceIKN8facebook5react25RNGoogleSigninButtonPropsENS_9allocatorIS3_EEE21__on_zero_shared_weakEv, symObjAddr: 0x3238, symBinAddr: 0x93F8, symSize: 0x4 }
  - { offset: 0x72D60, size: 0x8, addend: 0x0, symName: __ZNSt3__120__shared_ptr_emplaceIKN8facebook5react25RNGoogleSigninButtonPropsENS_9allocatorIS3_EEE21__on_zero_shared_weakEv, symObjAddr: 0x3238, symBinAddr: 0x93F8, symSize: 0x4 }
  - { offset: 0x72D83, size: 0x8, addend: 0x0, symName: __ZNSt3__120__shared_ptr_emplaceIKN8facebook5react25RNGoogleSigninButtonPropsENS_9allocatorIS3_EEE21__on_zero_shared_weakEv, symObjAddr: 0x3238, symBinAddr: 0x93F8, symSize: 0x4 }
  - { offset: 0x72DA6, size: 0x8, addend: 0x0, symName: __ZNSt3__120__shared_ptr_emplaceIKN8facebook5react25RNGoogleSigninButtonPropsENS_9allocatorIS3_EEE21__on_zero_shared_weakEv, symObjAddr: 0x3238, symBinAddr: 0x93F8, symSize: 0x4 }
  - { offset: 0x72DDC, size: 0x8, addend: 0x0, symName: __ZNSt3__120__shared_ptr_emplaceIKN8facebook5react25RNGoogleSigninButtonPropsENS_9allocatorIS3_EEE21__on_zero_shared_weakEv, symObjAddr: 0x3238, symBinAddr: 0x93F8, symSize: 0x4 }
  - { offset: 0x72E81, size: 0x8, addend: 0x0, symName: __GLOBAL__sub_I_RNGoogleSignInButtonComponentView.mm, symObjAddr: 0x3588, symBinAddr: 0x93FC, symSize: 0x20 }
  - { offset: 0x75160, size: 0x8, addend: 0x0, symName: '+[RNGoogleSigninButtonManager moduleName]', symObjAddr: 0x0, symBinAddr: 0x941C, symSize: 0xC }
  - { offset: 0x752E4, size: 0x8, addend: 0x0, symName: '+[RNGoogleSigninButtonManager moduleName]', symObjAddr: 0x0, symBinAddr: 0x941C, symSize: 0xC }
  - { offset: 0x75315, size: 0x8, addend: 0x0, symName: '+[RNGoogleSigninButtonManager load]', symObjAddr: 0xC, symBinAddr: 0x9428, symSize: 0x4 }
  - { offset: 0x75348, size: 0x8, addend: 0x0, symName: '+[RNGoogleSigninButtonManager load]', symObjAddr: 0xC, symBinAddr: 0x9428, symSize: 0x4 }
  - { offset: 0x75367, size: 0x8, addend: 0x0, symName: '-[RNGoogleSigninButtonManager view]', symObjAddr: 0x10, symBinAddr: 0x942C, symSize: 0x54 }
  - { offset: 0x753AC, size: 0x8, addend: 0x0, symName: '+[RNGoogleSigninButtonManager propConfig_color]', symObjAddr: 0x64, symBinAddr: 0x9480, symSize: 0xC }
  - { offset: 0x753DD, size: 0x8, addend: 0x0, symName: '-[RNGoogleSigninButtonManager set_color:forView:withDefaultView:]', symObjAddr: 0x70, symBinAddr: 0x948C, symSize: 0x98 }
  - { offset: 0x75436, size: 0x8, addend: 0x0, symName: '+[RNGoogleSigninButtonManager propConfig_size]', symObjAddr: 0x108, symBinAddr: 0x9524, symSize: 0xC }
  - { offset: 0x75467, size: 0x8, addend: 0x0, symName: '-[RNGoogleSigninButtonManager set_size:forView:withDefaultView:]', symObjAddr: 0x114, symBinAddr: 0x9530, symSize: 0x90 }
  - { offset: 0x754C0, size: 0x8, addend: 0x0, symName: '+[RNGoogleSigninButtonManager propConfig_disabled]', symObjAddr: 0x1A4, symBinAddr: 0x95C0, symSize: 0xC }
  - { offset: 0x754F1, size: 0x8, addend: 0x0, symName: '-[RNGoogleSigninButtonManager set_disabled:forView:withDefaultView:]', symObjAddr: 0x1B0, symBinAddr: 0x95CC, symSize: 0x70 }
  - { offset: 0x75546, size: 0x8, addend: 0x0, symName: '+[RNGoogleSigninButtonManager propConfig_onPress]', symObjAddr: 0x220, symBinAddr: 0x963C, symSize: 0xC }
  - { offset: 0x75577, size: 0x8, addend: 0x0, symName: '-[RNGoogleSigninButtonManager onButtonPress:]', symObjAddr: 0x22C, symBinAddr: 0x9648, symSize: 0x80 }
...
