---
triple:          'arm64-apple-darwin'
binary-path:     '/Users/uk-aplatts/Development/InjuryIQ/ios/DerivedData/Build/Intermediates.noindex/ArchiveIntermediates/InjuryIQ/IntermediateBuildFilesPath/UninstalledProducts/iphoneos/cxxreact.framework/cxxreact'
relocations:
  - { offset: 0x33, size: 0x8, addend: 0x0, symName: _cxxreactVersionString, symObjAddr: 0x0, symBinAddr: 0x19910, symSize: 0x0 }
  - { offset: 0x67, size: 0x8, addend: 0x0, symName: _cxxreactVersionNumber, symObjAddr: 0x28, symBinAddr: 0x19938, symSize: 0x0 }
  - { offset: 0xD2, size: 0x8, addend: 0x0, symName: __ZN8facebook5react15CxxNativeModule16shouldWarnOnUse_E, symObjAddr: 0x186590, symBinAddr: 0x280E8, symSize: 0x0 }
  - { offset: 0x2615, size: 0x8, addend: 0x0, symName: __ZN8facebook5react8systrace20instrumentsLogHandleE, symObjAddr: 0x8208, symBinAddr: 0x280E0, symSize: 0x0 }
  - { offset: 0x262F, size: 0x8, addend: 0x0, symName: __ZZN8facebook5react8systraceL31getOrCreateInstrumentsLogHandleEvE4flag, symObjAddr: 0x186598, symBinAddr: 0x281D8, symSize: 0x0 }
  - { offset: 0x26FB, size: 0x8, addend: 0x0, symName: __ZN8facebook5react12_GLOBAL__N_115convertCallbackENSt3__18functionIFvN5folly7dynamicEEEE, symObjAddr: 0x1980, symBinAddr: 0x5980, symSize: 0xEC }
  - { offset: 0x2BF1, size: 0x8, addend: 0x0, symName: __ZN8facebook5react12makeCallbackENSt3__18weak_ptrINS0_8InstanceEEERKN5folly7dynamicE, symObjAddr: 0x0, symBinAddr: 0x4000, symSize: 0xCC }
  - { offset: 0x28213, size: 0x8, addend: 0x0, symName: __ZNSt3__119piecewise_constructE, symObjAddr: 0x80BF, symBinAddr: 0x19CCF, symSize: 0x0 }
  - { offset: 0x2CC69, size: 0x8, addend: 0x0, symName: __ZNSt3__124__put_character_sequenceB8ne200100IcNS_11char_traitsIcEEEERNS_13basic_ostreamIT_T0_EES7_PKS4_m, symObjAddr: 0x5D54, symBinAddr: 0x9994, symSize: 0x168 }
  - { offset: 0x2DA40, size: 0x8, addend: 0x0, symName: __ZNSt3__1plB8ne200100IcNS_11char_traitsIcEENS_9allocatorIcEEEENS_12basic_stringIT_T0_T1_EEOS9_PKS6_, symObjAddr: 0x288, symBinAddr: 0x4288, symSize: 0x5C }
  - { offset: 0x2DB81, size: 0x8, addend: 0x0, symName: __ZNSt3__1plB8ne200100IcNS_11char_traitsIcEENS_9allocatorIcEEEENS_12basic_stringIT_T0_T1_EEPKS6_OS9_, symObjAddr: 0x55C, symBinAddr: 0x455C, symSize: 0x5C }
  - { offset: 0x2DD06, size: 0x8, addend: 0x0, symName: __ZNSt3__112construct_atB8ne200100IN8facebook5react16MethodDescriptorEJRNS_12basic_stringIcNS_11char_traitsIcEENS_9allocatorIcEEEEPKcEPS3_EEPT_SF_DpOT0_, symObjAddr: 0x3318, symBinAddr: 0x714C, symSize: 0xA0 }
  - { offset: 0x2EAD4, size: 0x8, addend: 0x0, symName: __ZNSt3__125__throw_bad_function_callB8ne200100Ev, symObjAddr: 0x3D70, symBinAddr: 0x7B4C, symSize: 0x34 }
  - { offset: 0x2EBBB, size: 0x8, addend: 0x0, symName: __ZNSt3__120__throw_length_errorB8ne200100EPKc, symObjAddr: 0x2780, symBinAddr: 0x66D8, symSize: 0x50 }
  - { offset: 0x2ED48, size: 0x8, addend: 0x0, symName: __ZNSt3__119__allocate_at_leastB8ne200100INS_9allocatorIN8facebook5react16MethodDescriptorEEEEENS_19__allocation_resultINS_16allocator_traitsIT_E7pointerEEERS8_m, symObjAddr: 0x34A8, symBinAddr: 0x72DC, symSize: 0x44 }
  - { offset: 0x2EDEE, size: 0x8, addend: 0x0, symName: __ZNSt3__112__destroy_atB8ne200100IN8facebook5react16MethodDescriptorELi0EEEvPT_, symObjAddr: 0x34EC, symBinAddr: 0x7320, symSize: 0x44 }
  - { offset: 0x2EF91, size: 0x8, addend: 0x0, symName: __ZNSt3__112__destroy_atB8ne200100IN8facebook5react16MethodDescriptorELi0EEEvPT_, symObjAddr: 0x34EC, symBinAddr: 0x7320, symSize: 0x44 }
  - { offset: 0x2F7B1, size: 0x8, addend: 0x0, symName: __ZNSt3__134__uninitialized_allocator_relocateB8ne200100INS_9allocatorIN5folly7dynamicEEEPS3_EEvRT_T0_S8_S8_, symObjAddr: 0x3CBC, symBinAddr: 0x7A98, symSize: 0x68 }
  - { offset: 0x2F7C5, size: 0x8, addend: 0x0, symName: __ZNSt3__134__uninitialized_allocator_relocateB8ne200100INS_9allocatorIN5folly7dynamicEEEPS3_EEvRT_T0_S8_S8_, symObjAddr: 0x3CBC, symBinAddr: 0x7A98, symSize: 0x68 }
  - { offset: 0x2F823, size: 0x8, addend: 0x0, symName: __ZNSt3__134__uninitialized_allocator_relocateB8ne200100INS_9allocatorIN5folly7dynamicEEEPS3_EEvRT_T0_S8_S8_, symObjAddr: 0x3CBC, symBinAddr: 0x7A98, symSize: 0x68 }
  - { offset: 0x2FC73, size: 0x8, addend: 0x0, symName: __ZNSt3__112__destroy_atB8ne200100IN8facebook5xplat6module9CxxModule6MethodELi0EEEvPT_, symObjAddr: 0x429C, symBinAddr: 0x7FB0, symSize: 0x8C }
  - { offset: 0x30120, size: 0x8, addend: 0x0, symName: __ZNSt3__112__destroy_atB8ne200100INS_4pairIKNS_12basic_stringIcNS_11char_traitsIcEENS_9allocatorIcEEEEN5folly7dynamicEEELi0EEEvPT_, symObjAddr: 0x46F0, symBinAddr: 0x83AC, symSize: 0x3C }
  - { offset: 0x30A6D, size: 0x8, addend: 0x0, symName: __ZNSt3__117__call_once_proxyB8ne200100INS_5tupleIJOZN8facebook5react8systraceL31getOrCreateInstrumentsLogHandleEvEUlvE_EEEEEvPv, symObjAddr: 0x590C, symBinAddr: 0x954C, symSize: 0x40 }
  - { offset: 0x30D28, size: 0x8, addend: 0x0, symName: __ZNSt3__1lsB8ne200100INS_11char_traitsIcEEEERNS_13basic_ostreamIcT_EES6_PKc, symObjAddr: 0x5AF4, symBinAddr: 0x9734, symSize: 0x34 }
  - { offset: 0x31268, size: 0x8, addend: 0x0, symName: __ZNSt3__116__pad_and_outputB8ne200100IcNS_11char_traitsIcEEEENS_19ostreambuf_iteratorIT_T0_EES6_PKS4_S8_S8_RNS_8ios_baseES4_, symObjAddr: 0x5EBC, symBinAddr: 0x9AFC, symSize: 0x13C }
  - { offset: 0x31927, size: 0x8, addend: 0x0, symName: __ZNSt3__135__uninitialized_allocator_copy_implB8ne200100INS_9allocatorINS_12basic_stringIcNS_11char_traitsIcEENS1_IcEEEEEEPKS6_S9_PS6_EET2_RT_T0_T1_SB_, symObjAddr: 0x6380, symBinAddr: 0x9FAC, symSize: 0xBC }
  - { offset: 0x31BA5, size: 0x8, addend: 0x0, symName: __ZNSt3__119__allocate_at_leastB8ne200100INS_9allocatorINS_12basic_stringIcNS_11char_traitsIcEENS1_IcEEEEEEEENS_19__allocation_resultINS_16allocator_traitsIT_E7pointerEEERSA_m, symObjAddr: 0x633C, symBinAddr: 0x9F68, symSize: 0x44 }
  - { offset: 0x31C4B, size: 0x8, addend: 0x0, symName: __ZNSt3__135__uninitialized_allocator_copy_implB8ne200100INS_9allocatorINS_12basic_stringIcNS_11char_traitsIcEENS1_IcEEEEEEPKS6_S9_PS6_EET2_RT_T0_T1_SB_, symObjAddr: 0x6380, symBinAddr: 0x9FAC, symSize: 0xBC }
  - { offset: 0x33B9B, size: 0x8, addend: 0x0, symName: __ZSt28__throw_bad_array_new_lengthB8ne200100v, symObjAddr: 0x27F4, symBinAddr: 0x674C, symSize: 0x28 }
  - { offset: 0x36986, size: 0x8, addend: 0x0, symName: __ZN5folly6detail22callWithKeyAndPairArgsINS_7dynamicES2_ZNS_3f146detail11F14BasicMapIS2_S2_NS0_13DynamicHasherENS0_15DynamicKeyEqualENSt3__19allocatorINS8_4pairIKS2_S2_EEEEE7emplaceIJRKNS8_21piecewise_construct_tENS8_5tupleIJOKNS8_12basic_stringIcNS8_11char_traitsIcEENS9_IcEEEEEEENSJ_IJEEEEEENSA_INS8_19__hash_map_iteratorINS8_15__hash_iteratorIPNS8_11__hash_nodeINS8_17__hash_value_typeIS2_S2_EEPvEEEEEEbEEDpOT_EUlRT_DpOT0_E_SO_JSQ_EJEEEDaOT1_RKT2_ONSJ_IJDpT3_EEEONSJ_IJDpT4_EEE, symObjAddr: 0x472C, symBinAddr: 0x83E8, symSize: 0x78 }
  - { offset: 0x36B73, size: 0x8, addend: 0x0, symName: __ZN5folly6detail16throw_exception_INS_9TypeErrorEJPKcNS_7dynamic4TypeEEEEvDpT0_, symObjAddr: 0x3040, symBinAddr: 0x18FEC, symSize: 0x68 }
  - { offset: 0x36E6E, size: 0x8, addend: 0x0, symName: __ZN5folly6detail22callWithKeyAndPairArgsINS_7dynamicES2_ZNS_3f146detail11F14BasicMapIS2_S2_NS0_13DynamicHasherENS0_15DynamicKeyEqualENSt3__19allocatorINS8_4pairIKS2_S2_EEEEE7emplaceIJmDnEEENSA_INS8_19__hash_map_iteratorINS8_15__hash_iteratorIPNS8_11__hash_nodeINS8_17__hash_value_typeIS2_S2_EEPvEEEEEEbEEDpOT_EUlRT_DpOT0_E_mOmODnLi0EEEDaOT1_RKT2_ONS8_5tupleIJT3_EEEONS18_IJT4_EEE, symObjAddr: 0x5070, symBinAddr: 0x8CB0, symSize: 0x70 }
  - { offset: 0x37177, size: 0x8, addend: 0x0, symName: __ZN5folly6detail9convertToIxdEENSt3__19enable_ifIXooaa13is_integral_vIT0_Esr3std17is_floating_pointIT_EE5valueaasr3std17is_floating_pointIS4_EE5value13is_integral_vIS5_EENS_8ExpectedIS5_NS_14ConversionCodeEEEE4typeERKS4_, symObjAddr: 0x22F0, symBinAddr: 0x62F0, symSize: 0xD4 }
  - { offset: 0x372E4, size: 0x8, addend: 0x0, symName: __ZN5folly6detail16throw_exception_INS_17BadExpectedAccessIvEEJEEEvDpT0_, symObjAddr: 0x2434, symBinAddr: 0x18EBC, symSize: 0x40 }
  - { offset: 0x37661, size: 0x8, addend: 0x0, symName: __ZN5folly6detail24toAppendDoubleConversionINSt3__112basic_stringIcNS2_11char_traitsIcEENS2_9allocatorIcEEEEdEENS2_9enable_ifIXaasr3std17is_floating_pointIT0_EE5valuesr12IsSomeStringIT_EE5valueEvE4typeESA_PSB_NS_8DtoaModeEjNS_9DtoaFlagsE, symObjAddr: 0x28DC, symBinAddr: 0x6834, symSize: 0x130 }
  - { offset: 0x37DA0, size: 0x8, addend: 0x0, symName: __ZN5folly6detail16throw_exception_INS_17BadExpectedAccessINS_14ConversionCodeEEEJS3_EEEvDpT0_, symObjAddr: 0x2F20, symBinAddr: 0x18F64, symSize: 0x44 }
  - { offset: 0x3955B, size: 0x8, addend: 0x0, symName: __ZN5folly8identityE, symObjAddr: 0x7D93, symBinAddr: 0x199A3, symSize: 0x0 }
  - { offset: 0x3A832, size: 0x8, addend: 0x0, symName: __ZN5folly2toIxdEENSt3__19enable_ifIXsr6detail14IsArithToArithIT_T0_EE5valueES3_E4typeERKS4_, symObjAddr: 0x22A8, symBinAddr: 0x62A8, symSize: 0x48 }
  - { offset: 0x3AA17, size: 0x8, addend: 0x0, symName: __ZN5folly15throw_exceptionINS_15ConversionErrorEEEvOT_, symObjAddr: 0x24CC, symBinAddr: 0x18F30, symSize: 0x34 }
  - { offset: 0x3AA5E, size: 0x8, addend: 0x0, symName: __ZN5folly15throw_exceptionINS_17BadExpectedAccessIvEEEEvOT_, symObjAddr: 0x2474, symBinAddr: 0x18EFC, symSize: 0x34 }
  - { offset: 0x3AAC9, size: 0x8, addend: 0x0, symName: __ZN5folly2toINSt3__112basic_stringIcNS1_11char_traitsIcEENS1_9allocatorIcEEEEJA2_cPKcA3_cdELi0EEET_DpRKT0_, symObjAddr: 0x2604, symBinAddr: 0x655C, symSize: 0x54 }
  - { offset: 0x3ACD7, size: 0x8, addend: 0x0, symName: __ZN5folly11toAppendFitIJA2_cPKcA3_cdPNSt3__112basic_stringIcNS5_11char_traitsIcEENS5_9allocatorIcEEEEELi0EEEvDpRKT_, symObjAddr: 0x2658, symBinAddr: 0x65B0, symSize: 0x64 }
  - { offset: 0x3B007, size: 0x8, addend: 0x0, symName: __ZN5folly8toAppendINSt3__112basic_stringIcNS1_11char_traitsIcEENS1_9allocatorIcEEEEPKcEENS1_9enable_ifIXaasr3std14is_convertibleIT0_S9_EE5valuesr12IsSomeStringIT_EE5valueEvE4typeESB_PSC_, symObjAddr: 0x28A4, symBinAddr: 0x67FC, symSize: 0x38 }
  - { offset: 0x3B0A5, size: 0x8, addend: 0x0, symName: __ZN5folly2toINSt3__112basic_stringIcNS1_11char_traitsIcEENS1_9allocatorIcEEEEJA2_cPKcA3_cbELi0EEET_DpRKT0_, symObjAddr: 0x2B20, symBinAddr: 0x6A78, symSize: 0x54 }
  - { offset: 0x3B299, size: 0x8, addend: 0x0, symName: __ZN5folly11toAppendFitIJA2_cPKcA3_cbPNSt3__112basic_stringIcNS5_11char_traitsIcEENS5_9allocatorIcEEEEELi0EEEvDpRKT_, symObjAddr: 0x2B74, symBinAddr: 0x6ACC, symSize: 0x64 }
  - { offset: 0x3B5FE, size: 0x8, addend: 0x0, symName: __ZN5folly13to_ascii_withILy10ENS_17to_ascii_alphabetILb0EEELm20EEEmRAT1__cy, symObjAddr: 0x2D64, symBinAddr: 0x6CBC, symSize: 0xB8 }
  - { offset: 0x3B753, size: 0x8, addend: 0x0, symName: __ZN5folly15throw_exceptionINS_17BadExpectedAccessINS_14ConversionCodeEEEEEvOT_, symObjAddr: 0x2F64, symBinAddr: 0x18FA8, symSize: 0x44 }
  - { offset: 0x3B816, size: 0x8, addend: 0x0, symName: __ZN5folly15throw_exceptionINS_9TypeErrorEEEvOT_, symObjAddr: 0x30A8, symBinAddr: 0x19054, symSize: 0x34 }
  - { offset: 0x3F222, size: 0x8, addend: 0x0, symName: __ZN5folly6detail18pretty_name_zarrayIxNS0_14pretty_tag_gccEE6zarrayE, symObjAddr: 0x7DEB, symBinAddr: 0x199FB, symSize: 0x0 }
  - { offset: 0x3F285, size: 0x8, addend: 0x0, symName: __ZN8facebook5react12TraceSectionD2Ev, symObjAddr: 0x4170, symBinAddr: 0x7E84, symSize: 0xC8 }
  - { offset: 0x3F3D8, size: 0x8, addend: 0x0, symName: __ZN8facebook5react12TraceSectionC2IJRA7_KcRKNSt3__112basic_stringIcNS6_11char_traitsIcEENS6_9allocatorIcEEEES5_SE_EEEPS3_DpOT_, symObjAddr: 0x547C, symBinAddr: 0x90BC, symSize: 0x490 }
  - { offset: 0x41B85, size: 0x8, addend: 0x0, symName: __ZN8facebook5react15CxxNativeModule6invokeEjON5folly7dynamicEi, symObjAddr: 0xA18, symBinAddr: 0x4A18, symSize: 0xF68 }
  - { offset: 0x45BEE, size: 0x8, addend: 0x0, symName: __ZNK5folly7dynamic6asImplIxEET_v, symObjAddr: 0x2170, symBinAddr: 0x6170, symSize: 0x138 }
  - { offset: 0x45FF5, size: 0x8, addend: 0x0, symName: __ZN5folly2toIxdEENSt3__19enable_ifIXsr6detail14IsArithToArithIT_T0_EE5valueES3_E4typeERKS4_, symObjAddr: 0x22A8, symBinAddr: 0x62A8, symSize: 0x48 }
  - { offset: 0x46009, size: 0x8, addend: 0x0, symName: __ZNSt16invalid_argumentC1B8ne200100EPKc, symObjAddr: 0xCC, symBinAddr: 0x40CC, symSize: 0x24 }
  - { offset: 0x46090, size: 0x8, addend: 0x0, symName: __ZN8facebook5react15CxxNativeModule18setShouldWarnOnUseEb, symObjAddr: 0xF0, symBinAddr: 0x40F0, symSize: 0xC }
  - { offset: 0x46253, size: 0x8, addend: 0x0, symName: __ZN8facebook5react15CxxNativeModule21emitWarnIfWarnOnUsageERKNSt3__112basic_stringIcNS2_11char_traitsIcEENS2_9allocatorIcEEEESA_, symObjAddr: 0xFC, symBinAddr: 0x40FC, symSize: 0x18C }
  - { offset: 0x46DA3, size: 0x8, addend: 0x0, symName: __ZN8facebook5react15CxxNativeModule7getNameEv, symObjAddr: 0x2E4, symBinAddr: 0x42E4, symSize: 0x28 }
  - { offset: 0x46DE9, size: 0x8, addend: 0x0, symName: __ZN8facebook5react15CxxNativeModule7getNameEv, symObjAddr: 0x2E4, symBinAddr: 0x42E4, symSize: 0x28 }
  - { offset: 0x46E21, size: 0x8, addend: 0x0, symName: __ZNSt3__112basic_stringIcNS_11char_traitsIcEENS_9allocatorIcEEE25__init_copy_ctor_externalEPKcm, symObjAddr: 0x3190, symBinAddr: 0x6FC4, symSize: 0x80 }
  - { offset: 0x46FF3, size: 0x8, addend: 0x0, symName: __ZNSt3__16vectorIN8facebook5react16MethodDescriptorENS_9allocatorIS3_EEE24__emplace_back_slow_pathIJRNS_12basic_stringIcNS_11char_traitsIcEENS4_IcEEEEPKcEEEPS3_DpOT_, symObjAddr: 0x3210, symBinAddr: 0x7044, symSize: 0x108 }
  - { offset: 0x4708B, size: 0x8, addend: 0x0, symName: __ZN8facebook5react15CxxNativeModule17getSyncMethodNameEj, symObjAddr: 0x30C, symBinAddr: 0x430C, symSize: 0x250 }
  - { offset: 0x47C24, size: 0x8, addend: 0x0, symName: __ZN8facebook5react15CxxNativeModule10getMethodsEv, symObjAddr: 0x5B8, symBinAddr: 0x45B8, symSize: 0x100 }
  - { offset: 0x47F46, size: 0x8, addend: 0x0, symName: __ZN8facebook5react15CxxNativeModule8lazyInitEv, symObjAddr: 0x6B8, symBinAddr: 0x46B8, symSize: 0x144 }
  - { offset: 0x47F71, size: 0x8, addend: 0x0, symName: __ZN8facebook5react15CxxNativeModule8lazyInitEv, symObjAddr: 0x6B8, symBinAddr: 0x46B8, symSize: 0x144 }
  - { offset: 0x48486, size: 0x8, addend: 0x0, symName: __ZNSt3__16vectorIN8facebook5react16MethodDescriptorENS_9allocatorIS3_EEE24__emplace_back_slow_pathIJRNS_12basic_stringIcNS_11char_traitsIcEENS4_IcEEEEPKcEEEPS3_DpOT_, symObjAddr: 0x3210, symBinAddr: 0x7044, symSize: 0x108 }
  - { offset: 0x486F5, size: 0x8, addend: 0x0, symName: __ZNSt3__16vectorIN8facebook5react16MethodDescriptorENS_9allocatorIS3_EEE16__destroy_vectorclB8ne200100Ev, symObjAddr: 0x357C, symBinAddr: 0x73B0, symSize: 0x70 }
  - { offset: 0x48BA9, size: 0x8, addend: 0x0, symName: __ZNSt3__16vectorIN8facebook5xplat6module9CxxModule6MethodENS_9allocatorIS5_EEE13__vdeallocateEv, symObjAddr: 0x4238, symBinAddr: 0x7F4C, symSize: 0x64 }
  - { offset: 0x48CF8, size: 0x8, addend: 0x0, symName: __ZNSt3__16vectorIN8facebook5xplat6module9CxxModule6MethodENS_9allocatorIS5_EEE16__destroy_vectorclB8ne200100Ev, symObjAddr: 0x4328, symBinAddr: 0x803C, symSize: 0x70 }
  - { offset: 0x49544, size: 0x8, addend: 0x0, symName: __ZN8facebook5react15CxxNativeModule12getConstantsEv, symObjAddr: 0x7FC, symBinAddr: 0x47FC, symSize: 0x21C }
  - { offset: 0x4A1E1, size: 0x8, addend: 0x0, symName: __ZNSt3__112basic_stringIcNS_11char_traitsIcEENS_9allocatorIcEEEC2B8ne200100ILi0EEEPKc, symObjAddr: 0x35EC, symBinAddr: 0x7420, symSize: 0xA4 }
  - { offset: 0x4A43B, size: 0x8, addend: 0x0, symName: __ZNSt3__112__hash_tableINS_17__hash_value_typeIN5folly7dynamicES3_EENS_22__unordered_map_hasherIS3_S4_NS2_6detail13DynamicHasherENS6_15DynamicKeyEqualELb1EEENS_21__unordered_map_equalIS3_S4_S8_S7_Lb1EEENS_9allocatorIS4_EEEC2EOSE_, symObjAddr: 0x3690, symBinAddr: 0x74C4, symSize: 0x70 }
  - { offset: 0x4A44C, size: 0x8, addend: 0x0, symName: __ZNSt3__112__hash_tableINS_17__hash_value_typeIN5folly7dynamicES3_EENS_22__unordered_map_hasherIS3_S4_NS2_6detail13DynamicHasherENS6_15DynamicKeyEqualELb1EEENS_21__unordered_map_equalIS3_S4_S8_S7_Lb1EEENS_9allocatorIS4_EEEC2EOSE_, symObjAddr: 0x3690, symBinAddr: 0x74C4, symSize: 0x70 }
  - { offset: 0x4A4C6, size: 0x8, addend: 0x0, symName: __ZNSt3__112__hash_tableINS_17__hash_value_typeIN5folly7dynamicES3_EENS_22__unordered_map_hasherIS3_S4_NS2_6detail13DynamicHasherENS6_15DynamicKeyEqualELb1EEENS_21__unordered_map_equalIS3_S4_S8_S7_Lb1EEENS_9allocatorIS4_EEEC2EOSE_, symObjAddr: 0x3690, symBinAddr: 0x74C4, symSize: 0x70 }
  - { offset: 0x4A59B, size: 0x8, addend: 0x0, symName: __ZNSt3__16__treeINS_12__value_typeINS_12basic_stringIcNS_11char_traitsIcEENS_9allocatorIcEEEEN5folly7dynamicEEENS_19__map_value_compareIS7_SA_NS_4lessIS7_EELb1EEENS5_ISA_EEE7destroyEPNS_11__tree_nodeISA_PvEE, symObjAddr: 0x46A8, symBinAddr: 0x8364, symSize: 0x48 }
  - { offset: 0x4B1F0, size: 0x8, addend: 0x0, symName: __ZNR5folly7dynamicixImEENSt3__19enable_ifIXaantsr3std14is_convertibleIT_NS_5RangeIPKcEEEE5valuesr3std14is_convertibleIS4_S0_EE5valueERS0_E4typeEOS4_, symObjAddr: 0x1A6C, symBinAddr: 0x5A6C, symSize: 0x70 }
  - { offset: 0x4B393, size: 0x8, addend: 0x0, symName: __ZN8facebook5xplat6module9CxxModule6MethodD1Ev, symObjAddr: 0x1ADC, symBinAddr: 0x5ADC, symSize: 0x88 }
  - { offset: 0x4B3A7, size: 0x8, addend: 0x0, symName: __ZNSt3__110__function12__value_funcIFvNS_6vectorIN5folly7dynamicENS_9allocatorIS4_EEEEEEaSB8ne200100EOS9_, symObjAddr: 0x53F0, symBinAddr: 0x9030, symSize: 0x8C }
  - { offset: 0x4B429, size: 0x8, addend: 0x0, symName: __ZNSt3__16vectorIN5folly7dynamicENS_9allocatorIS2_EEE6resizeEmRKS2_, symObjAddr: 0x3E78, symBinAddr: 0x7C54, symSize: 0x84 }
  - { offset: 0x4B5E0, size: 0x8, addend: 0x0, symName: __ZNSt3__110__function12__value_funcIFvNS_6vectorIN5folly7dynamicENS_9allocatorIS4_EEEEEEC2B8ne200100EOS9_, symObjAddr: 0x6CD4, symBinAddr: 0xA89C, symSize: 0x64 }
  - { offset: 0x4B62F, size: 0x8, addend: 0x0, symName: __ZN8facebook5xplat6module9CxxModule6MethodD1Ev, symObjAddr: 0x1ADC, symBinAddr: 0x5ADC, symSize: 0x88 }
  - { offset: 0x4B872, size: 0x8, addend: 0x0, symName: '__ZZN8facebook5react15CxxNativeModule6invokeEjON5folly7dynamicEiEN3$_0D1Ev', symObjAddr: 0x1B64, symBinAddr: 0x5B64, symSize: 0xF8 }
  - { offset: 0x4C0B1, size: 0x8, addend: 0x0, symName: __ZNSt3__110__function12__value_funcIFvN5folly7dynamicEEEC2B8ne200100EOS5_, symObjAddr: 0x3700, symBinAddr: 0x7534, symSize: 0x64 }
  - { offset: 0x4C21F, size: 0x8, addend: 0x0, symName: __ZNKR5folly7dynamic2atIRmEENSt3__19enable_ifIXaantsr3std14is_convertibleIT_NS_5RangeIPKcEEEE5valuesr3std14is_convertibleIS5_S0_EE5valueERKS0_E4typeEOS5_, symObjAddr: 0x4FE8, symBinAddr: 0x8C28, symSize: 0x88 }
  - { offset: 0x4C533, size: 0x8, addend: 0x0, symName: __ZN8facebook5react15CxxNativeModule26callSerializableNativeHookEjON5folly7dynamicE, symObjAddr: 0x1C5C, symBinAddr: 0x5C5C, symSize: 0x3B8 }
  - { offset: 0x4D54A, size: 0x8, addend: 0x0, symName: __ZN8facebook5react15CxxNativeModuleD1Ev, symObjAddr: 0x2014, symBinAddr: 0x6014, symSize: 0xAC }
  - { offset: 0x4D8B2, size: 0x8, addend: 0x0, symName: __ZNSt3__110shared_ptrIN8facebook5react18MessageQueueThreadEED2B8ne200100Ev, symObjAddr: 0x4398, symBinAddr: 0x80AC, symSize: 0x58 }
  - { offset: 0x4D961, size: 0x8, addend: 0x0, symName: __ZN8facebook5react15CxxNativeModuleD0Ev, symObjAddr: 0x20C0, symBinAddr: 0x60C0, symSize: 0xB0 }
  - { offset: 0x4E167, size: 0x8, addend: 0x0, symName: __ZN5folly15expected_detail30expected_detail_ExpectedHelper14ExpectedHelper12thenOrThrow_INS0_15ExpectedStorageIxNS_14ConversionCodeELNS0_11StorageTypeE0EEERKNS_11identity_fnEZNS_2toIxbEENSt3__19enable_ifIXsr6detail14IsArithToArithIT_T0_EE5valueESE_E4typeERKSF_EUlS5_E_OxNS_15ConversionErrorELb0ELi0EEET2_OSE_OSF_OT1_, symObjAddr: 0x2A0C, symBinAddr: 0x6964, symSize: 0x60 }
  - { offset: 0x4E292, size: 0x8, addend: 0x0, symName: __ZN5folly15expected_detail30expected_detail_ExpectedHelper14ExpectedHelper12thenOrThrow_IRNS0_15ExpectedStorageINS_5RangeIPKcEENS_14ConversionCodeELNS0_11StorageTypeE1EEENS_6detail18CheckTrailingSpaceEZNS_2toIxEENSt3__19enable_ifIXntsr3std7is_sameIS8_T_EE5valueESI_E4typeES8_EUlS9_E_NS_8ExpectedINS_4UnitES9_EEvLb0ELi0EEET2_OSI_OT0_OT1_, symObjAddr: 0x2E1C, symBinAddr: 0x6D74, symSize: 0x2C }
  - { offset: 0x4E2EA, size: 0x8, addend: 0x0, symName: __ZNK5folly6detail18CheckTrailingSpaceclENS_5RangeIPKcEE, symObjAddr: 0x2E48, symBinAddr: 0x6DA0, symSize: 0x90 }
  - { offset: 0x4E32F, size: 0x8, addend: 0x0, symName: __ZNK5folly7dynamic6asImplIxEET_v.cold.1, symObjAddr: 0x6FC0, symBinAddr: 0x19104, symSize: 0x24 }
  - { offset: 0x4E403, size: 0x8, addend: 0x0, symName: __ZN5folly15expected_detail30expected_detail_ExpectedHelper14ExpectedHelper12thenOrThrow_INS0_15ExpectedStorageIxNS_14ConversionCodeELNS0_11StorageTypeE0EEERKNS_11identity_fnEZNS_2toIxdEENSt3__19enable_ifIXsr6detail14IsArithToArithIT_T0_EE5valueESE_E4typeERKSF_EUlS5_E_OxNS_15ConversionErrorELb0ELi0EEET2_OSE_OSF_OT1_, symObjAddr: 0x23D4, symBinAddr: 0x63D4, symSize: 0x60 }
  - { offset: 0x4E5C8, size: 0x8, addend: 0x0, symName: __ZZN5folly2toIxdEENSt3__19enable_ifIXsr6detail14IsArithToArithIT_T0_EE5valueES3_E4typeERKS4_ENKUlNS_14ConversionCodeEE_clES9_, symObjAddr: 0x2500, symBinAddr: 0x6458, symSize: 0xB4 }
  - { offset: 0x4E9AC, size: 0x8, addend: 0x0, symName: __ZN5folly17BadExpectedAccessIvED1Ev, symObjAddr: 0x24A8, symBinAddr: 0x6434, symSize: 0x4 }
  - { offset: 0x4E9CE, size: 0x8, addend: 0x0, symName: __ZN5folly17BadExpectedAccessIvED1Ev, symObjAddr: 0x24A8, symBinAddr: 0x6434, symSize: 0x4 }
  - { offset: 0x4E9E8, size: 0x8, addend: 0x0, symName: __ZN5folly17BadExpectedAccessIvED0Ev, symObjAddr: 0x24AC, symBinAddr: 0x6438, symSize: 0x14 }
  - { offset: 0x4EA4B, size: 0x8, addend: 0x0, symName: __ZNK5folly17BadExpectedAccessIvE4whatEv, symObjAddr: 0x24C0, symBinAddr: 0x644C, symSize: 0xC }
  - { offset: 0x4EA78, size: 0x8, addend: 0x0, symName: __ZN5folly15ConversionErrorC1EOS0_, symObjAddr: 0x25B8, symBinAddr: 0x6510, symSize: 0x38 }
  - { offset: 0x4EBB5, size: 0x8, addend: 0x0, symName: __ZN5folly15ConversionErrorD1Ev, symObjAddr: 0x25B4, symBinAddr: 0x650C, symSize: 0x4 }
  - { offset: 0x4EBD7, size: 0x8, addend: 0x0, symName: __ZN5folly15ConversionErrorD1Ev, symObjAddr: 0x25B4, symBinAddr: 0x650C, symSize: 0x4 }
  - { offset: 0x4EBF2, size: 0x8, addend: 0x0, symName: __ZN5folly15ConversionErrorD1Ev, symObjAddr: 0x25B4, symBinAddr: 0x650C, symSize: 0x4 }
  - { offset: 0x4EC7C, size: 0x8, addend: 0x0, symName: __ZN5folly15ConversionErrorD0Ev, symObjAddr: 0x25F0, symBinAddr: 0x6548, symSize: 0x14 }
  - { offset: 0x4ED6C, size: 0x8, addend: 0x0, symName: __ZN5folly6detail25EstimateSpaceToReserveAllINSt3__116integer_sequenceImJLm0ELm1ELm2ELm3ELm4EEEEE4callIJA2_cPKcA3_cdPNS2_12basic_stringIcNS2_11char_traitsIcEENS2_9allocatorIcEEEEEEEmDpRKT_, symObjAddr: 0x26BC, symBinAddr: 0x6614, symSize: 0xB0 }
  - { offset: 0x4EF08, size: 0x8, addend: 0x0, symName: __ZN5folly6detail18ToAppendStrImplAllINSt3__116integer_sequenceImJLm0ELm1ELm2ELm3ELm4EEEEE4callIJA2_cPKcA3_cdPNS2_12basic_stringIcNS2_11char_traitsIcEENS2_9allocatorIcEEEEEEEvDpRKT_, symObjAddr: 0x281C, symBinAddr: 0x6774, symSize: 0x88 }
  - { offset: 0x4F205, size: 0x8, addend: 0x0, symName: __ZNSt3__112basic_stringIcNS_11char_traitsIcEENS_9allocatorIcEEE20__throw_length_errorB8ne200100Ev, symObjAddr: 0x276C, symBinAddr: 0x66C4, symSize: 0x14 }
  - { offset: 0x4F21C, size: 0x8, addend: 0x0, symName: __ZNSt3__120__throw_length_errorB8ne200100EPKc, symObjAddr: 0x2780, symBinAddr: 0x66D8, symSize: 0x50 }
  - { offset: 0x4F227, size: 0x8, addend: 0x0, symName: __ZNSt12length_errorC1B8ne200100EPKc, symObjAddr: 0x27D0, symBinAddr: 0x6728, symSize: 0x24 }
  - { offset: 0x4F538, size: 0x8, addend: 0x0, symName: __ZZN5folly2toIxbEENSt3__19enable_ifIXsr6detail14IsArithToArithIT_T0_EE5valueES3_E4typeERKS4_ENKUlNS_14ConversionCodeEE_clES9_, symObjAddr: 0x2A6C, symBinAddr: 0x69C4, symSize: 0xB4 }
  - { offset: 0x4F867, size: 0x8, addend: 0x0, symName: __ZN5folly6detail25EstimateSpaceToReserveAllINSt3__116integer_sequenceImJLm0ELm1ELm2ELm3ELm4EEEEE4callIJA2_cPKcA3_cbPNS2_12basic_stringIcNS2_11char_traitsIcEENS2_9allocatorIcEEEEEEEmDpRKT_, symObjAddr: 0x2BD8, symBinAddr: 0x6B30, symSize: 0xC8 }
  - { offset: 0x4FA6C, size: 0x8, addend: 0x0, symName: __ZN5folly6detail18ToAppendStrImplAllINSt3__116integer_sequenceImJLm0ELm1ELm2ELm3ELm4EEEEE4callIJA2_cPKcA3_cbPNS2_12basic_stringIcNS2_11char_traitsIcEENS2_9allocatorIcEEEEEEEvDpRKT_, symObjAddr: 0x2CA0, symBinAddr: 0x6BF8, symSize: 0xC4 }
  - { offset: 0x4FDBC, size: 0x8, addend: 0x0, symName: __ZNK5folly6detail18CheckTrailingSpaceclENS_5RangeIPKcEE, symObjAddr: 0x2E48, symBinAddr: 0x6DA0, symSize: 0x90 }
  - { offset: 0x4FDFF, size: 0x8, addend: 0x0, symName: __ZNK5folly6detail18CheckTrailingSpaceclENS_5RangeIPKcEE, symObjAddr: 0x2E48, symBinAddr: 0x6DA0, symSize: 0x90 }
  - { offset: 0x4FE19, size: 0x8, addend: 0x0, symName: __ZNK5folly6detail18CheckTrailingSpaceclENS_5RangeIPKcEE, symObjAddr: 0x2E48, symBinAddr: 0x6DA0, symSize: 0x90 }
  - { offset: 0x4FE97, size: 0x8, addend: 0x0, symName: __ZN5folly15expected_detail30expected_detail_ExpectedHelper14ExpectedHelper12thenOrThrow_IRNS0_15ExpectedStorageINS_5RangeIPKcEENS_14ConversionCodeELNS0_11StorageTypeE1EEENS_6detail18CheckTrailingSpaceEZNS_2toIxEENSt3__19enable_ifIXntsr3std7is_sameIS8_T_EE5valueESI_E4typeES8_EUlS9_E_NS_8ExpectedINS_4UnitES9_EEvLb0ELi0EEET2_OSI_OT0_OT1_.cold.1, symObjAddr: 0x6FE4, symBinAddr: 0x19128, symSize: 0x28 }
  - { offset: 0x4FF39, size: 0x8, addend: 0x0, symName: __ZZN5folly2toIxEENSt3__19enable_ifIXntsr3std7is_sameINS_5RangeIPKcEET_EE5valueES7_E4typeES6_ENKUlNS_14ConversionCodeEE_clESA_, symObjAddr: 0x2ED8, symBinAddr: 0x6E30, symSize: 0x48 }
  - { offset: 0x500CE, size: 0x8, addend: 0x0, symName: __ZN5folly17BadExpectedAccessINS_14ConversionCodeEED1Ev, symObjAddr: 0x2FA8, symBinAddr: 0x6E78, symSize: 0x4 }
  - { offset: 0x500F0, size: 0x8, addend: 0x0, symName: __ZN5folly17BadExpectedAccessINS_14ConversionCodeEED1Ev, symObjAddr: 0x2FA8, symBinAddr: 0x6E78, symSize: 0x4 }
  - { offset: 0x5010B, size: 0x8, addend: 0x0, symName: __ZN5folly17BadExpectedAccessINS_14ConversionCodeEED1Ev, symObjAddr: 0x2FA8, symBinAddr: 0x6E78, symSize: 0x4 }
  - { offset: 0x50126, size: 0x8, addend: 0x0, symName: __ZN5folly17BadExpectedAccessINS_14ConversionCodeEED0Ev, symObjAddr: 0x2FAC, symBinAddr: 0x6E7C, symSize: 0x14 }
  - { offset: 0x501C5, size: 0x8, addend: 0x0, symName: __ZZN5folly2toIxEENSt3__19enable_ifIXntsr3std7is_sameINS_5RangeIPKcEET_EE5valueES7_E4typeES6_ENKUlNS_14ConversionCodeEE0_clESA_, symObjAddr: 0x2FC0, symBinAddr: 0x6E90, symSize: 0x50 }
  - { offset: 0x502BB, size: 0x8, addend: 0x0, symName: __ZNK5folly8ExpectedINS_5RangeIPKcEENS_14ConversionCodeEE12requireValueEv, symObjAddr: 0x3010, symBinAddr: 0x6EE0, symSize: 0x30 }
  - { offset: 0x50342, size: 0x8, addend: 0x0, symName: __ZN5folly6detail16throw_exception_INS_9TypeErrorEJPKcNS_7dynamic4TypeEEEEvDpT0_, symObjAddr: 0x3040, symBinAddr: 0x18FEC, symSize: 0x68 }
  - { offset: 0x503AB, size: 0x8, addend: 0x0, symName: __ZN5folly9TypeErrorC1EOS0_, symObjAddr: 0x30E0, symBinAddr: 0x6F14, symSize: 0x24 }
  - { offset: 0x50405, size: 0x8, addend: 0x0, symName: __ZN5folly9TypeErrorD1Ev, symObjAddr: 0x30DC, symBinAddr: 0x6F10, symSize: 0x4 }
  - { offset: 0x50427, size: 0x8, addend: 0x0, symName: __ZN5folly9TypeErrorD1Ev, symObjAddr: 0x30DC, symBinAddr: 0x6F10, symSize: 0x4 }
  - { offset: 0x50462, size: 0x8, addend: 0x0, symName: __ZN5folly9TypeErrorD0Ev, symObjAddr: 0x3104, symBinAddr: 0x6F38, symSize: 0x14 }
  - { offset: 0x505A0, size: 0x8, addend: 0x0, symName: __ZNSt3__112basic_stringIcNS_11char_traitsIcEENS_9allocatorIcEEEC2B8ne200100ENS_24__uninitialized_size_tagEmRKS4_, symObjAddr: 0x3118, symBinAddr: 0x6F4C, symSize: 0x78 }
  - { offset: 0x5073F, size: 0x8, addend: 0x0, symName: __ZNSt3__112basic_stringIcNS_11char_traitsIcEENS_9allocatorIcEEE25__init_copy_ctor_externalEPKcm, symObjAddr: 0x3190, symBinAddr: 0x6FC4, symSize: 0x80 }
  - { offset: 0x50891, size: 0x8, addend: 0x0, symName: __ZNSt3__16vectorIN8facebook5react16MethodDescriptorENS_9allocatorIS3_EEE26__swap_out_circular_bufferERNS_14__split_bufferIS3_RS5_EE, symObjAddr: 0x33B8, symBinAddr: 0x71EC, symSize: 0xDC }
  - { offset: 0x50B6B, size: 0x8, addend: 0x0, symName: __ZNSt3__114__split_bufferIN8facebook5react16MethodDescriptorERNS_9allocatorIS3_EEED2Ev, symObjAddr: 0x3530, symBinAddr: 0x7364, symSize: 0x4C }
  - { offset: 0x50C9B, size: 0x8, addend: 0x0, symName: __ZNSt3__16vectorIN8facebook5react16MethodDescriptorENS_9allocatorIS3_EEE20__throw_length_errorB8ne200100Ev, symObjAddr: 0x3494, symBinAddr: 0x72C8, symSize: 0x14 }
  - { offset: 0x50CB2, size: 0x8, addend: 0x0, symName: __ZNSt3__119__allocate_at_leastB8ne200100INS_9allocatorIN8facebook5react16MethodDescriptorEEEEENS_19__allocation_resultINS_16allocator_traitsIT_E7pointerEEERS8_m, symObjAddr: 0x34A8, symBinAddr: 0x72DC, symSize: 0x44 }
  - { offset: 0x51124, size: 0x8, addend: 0x0, symName: '__ZNSt3__110__function6__funcIZN8facebook5react12_GLOBAL__N_115convertCallbackENS_8functionIFvN5folly7dynamicEEEEE3$_0NS_9allocatorISA_EEFvNS_6vectorIS7_NSB_IS7_EEEEEED1Ev', symObjAddr: 0x3764, symBinAddr: 0x7598, symSize: 0x58 }
  - { offset: 0x5127F, size: 0x8, addend: 0x0, symName: '__ZNSt3__110__function6__funcIZN8facebook5react12_GLOBAL__N_115convertCallbackENS_8functionIFvN5folly7dynamicEEEEE3$_0NS_9allocatorISA_EEFvNS_6vectorIS7_NSB_IS7_EEEEEED0Ev', symObjAddr: 0x37BC, symBinAddr: 0x75F0, symSize: 0x58 }
  - { offset: 0x5168A, size: 0x8, addend: 0x0, symName: '__ZNKSt3__110__function6__funcIZN8facebook5react12_GLOBAL__N_115convertCallbackENS_8functionIFvN5folly7dynamicEEEEE3$_0NS_9allocatorISA_EEFvNS_6vectorIS7_NSB_IS7_EEEEEE7__cloneEv', symObjAddr: 0x3814, symBinAddr: 0x7648, symSize: 0x54 }
  - { offset: 0x51924, size: 0x8, addend: 0x0, symName: __ZNSt3__110__function12__value_funcIFvN5folly7dynamicEEEC2B8ne200100ERKS5_, symObjAddr: 0x3A94, symBinAddr: 0x78C8, symSize: 0x64 }
  - { offset: 0x51A46, size: 0x8, addend: 0x0, symName: '__ZNKSt3__110__function6__funcIZN8facebook5react12_GLOBAL__N_115convertCallbackENS_8functionIFvN5folly7dynamicEEEEE3$_0NS_9allocatorISA_EEFvNS_6vectorIS7_NSB_IS7_EEEEEE7__cloneEPNS0_6__baseISG_EE', symObjAddr: 0x3868, symBinAddr: 0x769C, symSize: 0x1C }
  - { offset: 0x51B99, size: 0x8, addend: 0x0, symName: '__ZNSt3__110__function6__funcIZN8facebook5react12_GLOBAL__N_115convertCallbackENS_8functionIFvN5folly7dynamicEEEEE3$_0NS_9allocatorISA_EEFvNS_6vectorIS7_NSB_IS7_EEEEEE7destroyEv', symObjAddr: 0x3884, symBinAddr: 0x76B8, symSize: 0x30 }
  - { offset: 0x51CA2, size: 0x8, addend: 0x0, symName: '__ZNSt3__110__function6__funcIZN8facebook5react12_GLOBAL__N_115convertCallbackENS_8functionIFvN5folly7dynamicEEEEE3$_0NS_9allocatorISA_EEFvNS_6vectorIS7_NSB_IS7_EEEEEE18destroy_deallocateEv', symObjAddr: 0x38B4, symBinAddr: 0x76E8, symSize: 0x4C }
  - { offset: 0x520F3, size: 0x8, addend: 0x0, symName: '__ZNSt3__110__function6__funcIZN8facebook5react12_GLOBAL__N_115convertCallbackENS_8functionIFvN5folly7dynamicEEEEE3$_0NS_9allocatorISA_EEFvNS_6vectorIS7_NSB_IS7_EEEEEEclEOSF_', symObjAddr: 0x3900, symBinAddr: 0x7734, symSize: 0x14C }
  - { offset: 0x525CB, size: 0x8, addend: 0x0, symName: __ZNSt3__16vectorIN5folly7dynamicENS_9allocatorIS2_EEE9push_backB8ne200100EOS2_, symObjAddr: 0x3AF8, symBinAddr: 0x792C, symSize: 0x44 }
  - { offset: 0x526E7, size: 0x8, addend: 0x0, symName: __ZNSt3__16vectorIN5folly7dynamicENS_9allocatorIS2_EEE16__destroy_vectorclB8ne200100Ev, symObjAddr: 0x3DBC, symBinAddr: 0x7B98, symSize: 0x70 }
  - { offset: 0x52866, size: 0x8, addend: 0x0, symName: '__ZNKSt3__110__function6__funcIZN8facebook5react12_GLOBAL__N_115convertCallbackENS_8functionIFvN5folly7dynamicEEEEE3$_0NS_9allocatorISA_EEFvNS_6vectorIS7_NSB_IS7_EEEEEE6targetERKSt9type_info', symObjAddr: 0x3A4C, symBinAddr: 0x7880, symSize: 0x3C }
  - { offset: 0x528B3, size: 0x8, addend: 0x0, symName: __ZNKSt9type_infoeqB8ne200100ERKS_, symObjAddr: 0x3E2C, symBinAddr: 0x7C08, symSize: 0x4C }
  - { offset: 0x52951, size: 0x8, addend: 0x0, symName: '__ZNKSt3__110__function6__funcIZN8facebook5react12_GLOBAL__N_115convertCallbackENS_8functionIFvN5folly7dynamicEEEEE3$_0NS_9allocatorISA_EEFvNS_6vectorIS7_NSB_IS7_EEEEEE11target_typeEv', symObjAddr: 0x3A88, symBinAddr: 0x78BC, symSize: 0xC }
  - { offset: 0x52A4B, size: 0x8, addend: 0x0, symName: __ZNSt3__16vectorIN5folly7dynamicENS_9allocatorIS2_EEE24__emplace_back_slow_pathIJS2_EEEPS2_DpOT_, symObjAddr: 0x3B3C, symBinAddr: 0x7970, symSize: 0x128 }
  - { offset: 0x52E68, size: 0x8, addend: 0x0, symName: __ZNSt3__114__split_bufferIN5folly7dynamicERNS_9allocatorIS2_EEED2Ev, symObjAddr: 0x3D24, symBinAddr: 0x7B00, symSize: 0x4C }
  - { offset: 0x53172, size: 0x8, addend: 0x0, symName: __ZNSt3__117bad_function_callD1Ev, symObjAddr: 0x3DA4, symBinAddr: 0x7B80, symSize: 0x4 }
  - { offset: 0x53194, size: 0x8, addend: 0x0, symName: __ZNSt3__117bad_function_callD1Ev, symObjAddr: 0x3DA4, symBinAddr: 0x7B80, symSize: 0x4 }
  - { offset: 0x531C8, size: 0x8, addend: 0x0, symName: __ZNSt3__117bad_function_callD0Ev, symObjAddr: 0x3DA8, symBinAddr: 0x7B84, symSize: 0x14 }
  - { offset: 0x532F4, size: 0x8, addend: 0x0, symName: __ZNSt3__16vectorIN5folly7dynamicENS_9allocatorIS2_EEE8__appendEmRKS2_, symObjAddr: 0x3EFC, symBinAddr: 0x7CD8, symSize: 0x1AC }
  - { offset: 0x53B47, size: 0x8, addend: 0x0, symName: '__ZNSt3__110__function6__funcIZN8facebook5react12makeCallbackENS_8weak_ptrINS3_8InstanceEEERKN5folly7dynamicEE3$_0NS_9allocatorISB_EEFvS8_EED1Ev', symObjAddr: 0x43F0, symBinAddr: 0x8104, symSize: 0x38 }
  - { offset: 0x53C59, size: 0x8, addend: 0x0, symName: '__ZNSt3__110__function6__funcIZN8facebook5react12makeCallbackENS_8weak_ptrINS3_8InstanceEEERKN5folly7dynamicEE3$_0NS_9allocatorISB_EEFvS8_EED0Ev', symObjAddr: 0x4428, symBinAddr: 0x813C, symSize: 0x38 }
  - { offset: 0x53E81, size: 0x8, addend: 0x0, symName: '__ZNKSt3__110__function6__funcIZN8facebook5react12makeCallbackENS_8weak_ptrINS3_8InstanceEEERKN5folly7dynamicEE3$_0NS_9allocatorISB_EEFvS8_EE7__cloneEv', symObjAddr: 0x4460, symBinAddr: 0x8174, symSize: 0x58 }
  - { offset: 0x54141, size: 0x8, addend: 0x0, symName: '__ZNKSt3__110__function6__funcIZN8facebook5react12makeCallbackENS_8weak_ptrINS3_8InstanceEEERKN5folly7dynamicEE3$_0NS_9allocatorISB_EEFvS8_EE7__cloneEPNS0_6__baseISE_EE', symObjAddr: 0x44B8, symBinAddr: 0x81CC, symSize: 0x38 }
  - { offset: 0x54177, size: 0x8, addend: 0x0, symName: '__ZNKSt3__110__function6__funcIZN8facebook5react12makeCallbackENS_8weak_ptrINS3_8InstanceEEERKN5folly7dynamicEE3$_0NS_9allocatorISB_EEFvS8_EE7__cloneEPNS0_6__baseISE_EE', symObjAddr: 0x44B8, symBinAddr: 0x81CC, symSize: 0x38 }
  - { offset: 0x541A5, size: 0x8, addend: 0x0, symName: '__ZNKSt3__110__function6__funcIZN8facebook5react12makeCallbackENS_8weak_ptrINS3_8InstanceEEERKN5folly7dynamicEE3$_0NS_9allocatorISB_EEFvS8_EE7__cloneEPNS0_6__baseISE_EE', symObjAddr: 0x44B8, symBinAddr: 0x81CC, symSize: 0x38 }
  - { offset: 0x542F8, size: 0x8, addend: 0x0, symName: '__ZNSt3__110__function6__funcIZN8facebook5react12makeCallbackENS_8weak_ptrINS3_8InstanceEEERKN5folly7dynamicEE3$_0NS_9allocatorISB_EEFvS8_EE7destroyEv', symObjAddr: 0x44F0, symBinAddr: 0x8204, symSize: 0x10 }
  - { offset: 0x54321, size: 0x8, addend: 0x0, symName: '__ZNSt3__110__function6__funcIZN8facebook5react12makeCallbackENS_8weak_ptrINS3_8InstanceEEERKN5folly7dynamicEE3$_0NS_9allocatorISB_EEFvS8_EE7destroyEv', symObjAddr: 0x44F0, symBinAddr: 0x8204, symSize: 0x10 }
  - { offset: 0x5433F, size: 0x8, addend: 0x0, symName: '__ZNSt3__110__function6__funcIZN8facebook5react12makeCallbackENS_8weak_ptrINS3_8InstanceEEERKN5folly7dynamicEE3$_0NS_9allocatorISB_EEFvS8_EE7destroyEv', symObjAddr: 0x44F0, symBinAddr: 0x8204, symSize: 0x10 }
  - { offset: 0x5435C, size: 0x8, addend: 0x0, symName: '__ZNSt3__110__function6__funcIZN8facebook5react12makeCallbackENS_8weak_ptrINS3_8InstanceEEERKN5folly7dynamicEE3$_0NS_9allocatorISB_EEFvS8_EE7destroyEv', symObjAddr: 0x44F0, symBinAddr: 0x8204, symSize: 0x10 }
  - { offset: 0x54379, size: 0x8, addend: 0x0, symName: '__ZNSt3__110__function6__funcIZN8facebook5react12makeCallbackENS_8weak_ptrINS3_8InstanceEEERKN5folly7dynamicEE3$_0NS_9allocatorISB_EEFvS8_EE7destroyEv', symObjAddr: 0x44F0, symBinAddr: 0x8204, symSize: 0x10 }
  - { offset: 0x54396, size: 0x8, addend: 0x0, symName: '__ZNSt3__110__function6__funcIZN8facebook5react12makeCallbackENS_8weak_ptrINS3_8InstanceEEERKN5folly7dynamicEE3$_0NS_9allocatorISB_EEFvS8_EE7destroyEv', symObjAddr: 0x44F0, symBinAddr: 0x8204, symSize: 0x10 }
  - { offset: 0x543E8, size: 0x8, addend: 0x0, symName: '__ZNSt3__110__function6__funcIZN8facebook5react12makeCallbackENS_8weak_ptrINS3_8InstanceEEERKN5folly7dynamicEE3$_0NS_9allocatorISB_EEFvS8_EE18destroy_deallocateEv', symObjAddr: 0x4500, symBinAddr: 0x8214, symSize: 0x2C }
  - { offset: 0x5462F, size: 0x8, addend: 0x0, symName: '__ZNSt3__110__function6__funcIZN8facebook5react12makeCallbackENS_8weak_ptrINS3_8InstanceEEERKN5folly7dynamicEE3$_0NS_9allocatorISB_EEFvS8_EEclEOS8_', symObjAddr: 0x452C, symBinAddr: 0x8240, symSize: 0xDC }
  - { offset: 0x548E5, size: 0x8, addend: 0x0, symName: '__ZNKSt3__110__function6__funcIZN8facebook5react12makeCallbackENS_8weak_ptrINS3_8InstanceEEERKN5folly7dynamicEE3$_0NS_9allocatorISB_EEFvS8_EE6targetERKSt9type_info', symObjAddr: 0x4608, symBinAddr: 0x831C, symSize: 0x3C }
  - { offset: 0x54932, size: 0x8, addend: 0x0, symName: '__ZNKSt3__110__function6__funcIZN8facebook5react12makeCallbackENS_8weak_ptrINS3_8InstanceEEERKN5folly7dynamicEE3$_0NS_9allocatorISB_EEFvS8_EE11target_typeEv', symObjAddr: 0x4644, symBinAddr: 0x8358, symSize: 0xC }
  - { offset: 0x54C5A, size: 0x8, addend: 0x0, symName: __ZN5folly3f146detail11F14BasicMapINS_7dynamicES3_NS_6detail13DynamicHasherENS4_15DynamicKeyEqualENSt3__19allocatorINS7_4pairIKS3_S3_EEEEE9findLocalISD_NS7_12basic_stringIcNS7_11char_traitsIcEENS8_IcEEEEEENS_8OptionalIDTcldtfp_5beginLi0EEEEERT_RKT0_, symObjAddr: 0x47A4, symBinAddr: 0x8460, symSize: 0xE4 }
  - { offset: 0x54F7E, size: 0x8, addend: 0x0, symName: __ZNSt3__112__hash_tableINS_17__hash_value_typeIN5folly7dynamicES3_EENS_22__unordered_map_hasherIS3_S4_NS2_6detail13DynamicHasherENS6_15DynamicKeyEqualELb1EEENS_21__unordered_map_equalIS3_S4_S8_S7_Lb1EEENS_9allocatorIS4_EEE21__emplace_unique_implIJRKNS_21piecewise_construct_tENS_5tupleIJOKNS_12basic_stringIcNS_11char_traitsIcEENSC_IcEEEEEEENSJ_IJEEEEEENS_4pairINS_15__hash_iteratorIPNS_11__hash_nodeIS4_PvEEEEbEEDpOT_, symObjAddr: 0x497C, symBinAddr: 0x85BC, symSize: 0x88 }
  - { offset: 0x55437, size: 0x8, addend: 0x0, symName: __ZNKSt3__112__hash_tableINS_17__hash_value_typeINS_12basic_stringIcNS_11char_traitsIcEENS_9allocatorIcEEEEN5folly7dynamicEEENS_22__unordered_map_hasherIS7_SA_NS8_6detail13DynamicHasherENS8_3f146detail11F14BasicMapIS9_S9_SD_NSC_15DynamicKeyEqualENS5_INS_4pairIKS9_S9_EEEEE14BottomKeyEqualIS7_EELb1EEENS_21__unordered_map_equalIS7_SA_SO_SD_Lb1EEENS5_ISA_EEE6bucketB8ne200100IS7_EEmRKT_, symObjAddr: 0x4904, symBinAddr: 0x8544, symSize: 0x78 }
  - { offset: 0x5563C, size: 0x8, addend: 0x0, symName: __ZNK5folly6detail15DynamicKeyEqualclINSt3__112basic_stringIcNS3_11char_traitsIcEENS3_9allocatorIcEEEEEENS3_9enable_ifIXsr3std14is_convertibleIT_NS_5RangeIPKcEEEE5valueEbE4typeERKSB_RKNS_7dynamicE, symObjAddr: 0x4888, symBinAddr: 0x19088, symSize: 0x7C }
  - { offset: 0x55683, size: 0x8, addend: 0x0, symName: __ZNK5folly6detail15DynamicKeyEqualclINSt3__112basic_stringIcNS3_11char_traitsIcEENS3_9allocatorIcEEEEEENS3_9enable_ifIXsr3std14is_convertibleIT_NS_5RangeIPKcEEEE5valueEbE4typeERKSB_RKNS_7dynamicE, symObjAddr: 0x4888, symBinAddr: 0x19088, symSize: 0x7C }
  - { offset: 0x55AC4, size: 0x8, addend: 0x0, symName: __ZNSt3__112__hash_tableINS_17__hash_value_typeIN5folly7dynamicES3_EENS_22__unordered_map_hasherIS3_S4_NS2_6detail13DynamicHasherENS6_15DynamicKeyEqualELb1EEENS_21__unordered_map_equalIS3_S4_S8_S7_Lb1EEENS_9allocatorIS4_EEE16__construct_nodeIJRKNS_21piecewise_construct_tENS_5tupleIJOKNS_12basic_stringIcNS_11char_traitsIcEENSC_IcEEEEEEENSJ_IJEEEEEENS_10unique_ptrINS_11__hash_nodeIS4_PvEENS_22__hash_node_destructorINSC_ISW_EEEEEEDpOT_, symObjAddr: 0x4A04, symBinAddr: 0x8644, symSize: 0xA0 }
  - { offset: 0x55E6C, size: 0x8, addend: 0x0, symName: __ZNSt3__112__hash_tableINS_17__hash_value_typeIN5folly7dynamicES3_EENS_22__unordered_map_hasherIS3_S4_NS2_6detail13DynamicHasherENS6_15DynamicKeyEqualELb1EEENS_21__unordered_map_equalIS3_S4_S8_S7_Lb1EEENS_9allocatorIS4_EEE20__node_insert_uniqueEPNS_11__hash_nodeIS4_PvEE, symObjAddr: 0x4AA4, symBinAddr: 0x86E4, symSize: 0x60 }
  - { offset: 0x55F4C, size: 0x8, addend: 0x0, symName: __ZNSt3__122__hash_node_destructorINS_9allocatorINS_11__hash_nodeINS_17__hash_value_typeIN5folly7dynamicES5_EEPvEEEEEclB8ne200100EPS8_, symObjAddr: 0x4F9C, symBinAddr: 0x8BDC, symSize: 0x4C }
  - { offset: 0x563AB, size: 0x8, addend: 0x0, symName: __ZNSt3__14pairIKN5folly7dynamicES2_EC2B8ne200100IJOKNS_12basic_stringIcNS_11char_traitsIcEENS_9allocatorIcEEEEEJEJLm0EEJEEENS_21piecewise_construct_tERNS_5tupleIJDpT_EEERNSF_IJDpT0_EEENS_15__tuple_indicesIJXspT1_EEEENSO_IJXspT2_EEEE, symObjAddr: 0x4B04, symBinAddr: 0x8744, symSize: 0x74 }
  - { offset: 0x56648, size: 0x8, addend: 0x0, symName: __ZNSt3__112__hash_tableINS_17__hash_value_typeIN5folly7dynamicES3_EENS_22__unordered_map_hasherIS3_S4_NS2_6detail13DynamicHasherENS6_15DynamicKeyEqualELb1EEENS_21__unordered_map_equalIS3_S4_S8_S7_Lb1EEENS_9allocatorIS4_EEE28__node_insert_unique_prepareB8ne200100EmRS4_, symObjAddr: 0x4B78, symBinAddr: 0x87B8, symSize: 0x144 }
  - { offset: 0x56883, size: 0x8, addend: 0x0, symName: __ZNSt3__112__hash_tableINS_17__hash_value_typeIN5folly7dynamicES3_EENS_22__unordered_map_hasherIS3_S4_NS2_6detail13DynamicHasherENS6_15DynamicKeyEqualELb1EEENS_21__unordered_map_equalIS3_S4_S8_S7_Lb1EEENS_9allocatorIS4_EEE28__node_insert_unique_performB8ne200100EPNS_11__hash_nodeIS4_PvEE, symObjAddr: 0x4CBC, symBinAddr: 0x88FC, symSize: 0xB4 }
  - { offset: 0x568EE, size: 0x8, addend: 0x0, symName: __ZNSt3__112__hash_tableINS_17__hash_value_typeIN5folly7dynamicES3_EENS_22__unordered_map_hasherIS3_S4_NS2_6detail13DynamicHasherENS6_15DynamicKeyEqualELb1EEENS_21__unordered_map_equalIS3_S4_S8_S7_Lb1EEENS_9allocatorIS4_EEE28__node_insert_unique_performB8ne200100EPNS_11__hash_nodeIS4_PvEE, symObjAddr: 0x4CBC, symBinAddr: 0x88FC, symSize: 0xB4 }
  - { offset: 0x5690A, size: 0x8, addend: 0x0, symName: __ZNSt3__112__hash_tableINS_17__hash_value_typeIN5folly7dynamicES3_EENS_22__unordered_map_hasherIS3_S4_NS2_6detail13DynamicHasherENS6_15DynamicKeyEqualELb1EEENS_21__unordered_map_equalIS3_S4_S8_S7_Lb1EEENS_9allocatorIS4_EEE28__node_insert_unique_performB8ne200100EPNS_11__hash_nodeIS4_PvEE, symObjAddr: 0x4CBC, symBinAddr: 0x88FC, symSize: 0xB4 }
  - { offset: 0x56B4C, size: 0x8, addend: 0x0, symName: __ZNSt3__112__hash_tableINS_17__hash_value_typeIN5folly7dynamicES3_EENS_22__unordered_map_hasherIS3_S4_NS2_6detail13DynamicHasherENS6_15DynamicKeyEqualELb1EEENS_21__unordered_map_equalIS3_S4_S8_S7_Lb1EEENS_9allocatorIS4_EEE8__rehashILb1EEEvm, symObjAddr: 0x4D70, symBinAddr: 0x89B0, symSize: 0xDC }
  - { offset: 0x56C44, size: 0x8, addend: 0x0, symName: __ZNSt3__112__hash_tableINS_17__hash_value_typeIN5folly7dynamicES3_EENS_22__unordered_map_hasherIS3_S4_NS2_6detail13DynamicHasherENS6_15DynamicKeyEqualELb1EEENS_21__unordered_map_equalIS3_S4_S8_S7_Lb1EEENS_9allocatorIS4_EEE11__do_rehashILb1EEEvm, symObjAddr: 0x4E4C, symBinAddr: 0x8A8C, symSize: 0x150 }
  - { offset: 0x5704C, size: 0x8, addend: 0x0, symName: __ZNSt3__122__hash_node_destructorINS_9allocatorINS_11__hash_nodeINS_17__hash_value_typeIN5folly7dynamicES5_EEPvEEEEEclB8ne200100EPS8_, symObjAddr: 0x4F9C, symBinAddr: 0x8BDC, symSize: 0x4C }
  - { offset: 0x5744A, size: 0x8, addend: 0x0, symName: __ZN5folly3f146detail11F14BasicMapINS_7dynamicES3_NS_6detail13DynamicHasherENS4_15DynamicKeyEqualENSt3__19allocatorINS7_4pairIKS3_S3_EEEEE9findLocalISD_mEENS_8OptionalIDTcldtfp_5beginLi0EEEEERT_RKT0_, symObjAddr: 0x50E0, symBinAddr: 0x8D20, symSize: 0x168 }
  - { offset: 0x578F3, size: 0x8, addend: 0x0, symName: __ZNSt3__112__hash_tableINS_17__hash_value_typeIN5folly7dynamicES3_EENS_22__unordered_map_hasherIS3_S4_NS2_6detail13DynamicHasherENS6_15DynamicKeyEqualELb1EEENS_21__unordered_map_equalIS3_S4_S8_S7_Lb1EEENS_9allocatorIS4_EEE21__emplace_unique_implIJmDnEEENS_4pairINS_15__hash_iteratorIPNS_11__hash_nodeIS4_PvEEEEbEEDpOT_, symObjAddr: 0x52D0, symBinAddr: 0x8F10, symSize: 0x88 }
  - { offset: 0x57B56, size: 0x8, addend: 0x0, symName: __ZNKSt3__122__unordered_map_hasherImNS_17__hash_value_typeImN5folly7dynamicEEENS2_6detail13DynamicHasherENS2_3f146detail11F14BasicMapIS3_S3_S6_NS5_15DynamicKeyEqualENS_9allocatorINS_4pairIKS3_S3_EEEEE14BottomKeyEqualImEELb1EEclB8ne200100ERKm, symObjAddr: 0x5248, symBinAddr: 0x8E88, symSize: 0x88 }
  - { offset: 0x57C75, size: 0x8, addend: 0x0, symName: __ZNSt3__112__hash_tableINS_17__hash_value_typeIN5folly7dynamicES3_EENS_22__unordered_map_hasherIS3_S4_NS2_6detail13DynamicHasherENS6_15DynamicKeyEqualELb1EEENS_21__unordered_map_equalIS3_S4_S8_S7_Lb1EEENS_9allocatorIS4_EEE16__construct_nodeIJmDnEEENS_10unique_ptrINS_11__hash_nodeIS4_PvEENS_22__hash_node_destructorINSC_ISJ_EEEEEEDpOT_, symObjAddr: 0x5358, symBinAddr: 0x8F98, symSize: 0x98 }
  - { offset: 0x58631, size: 0x8, addend: 0x0, symName: __ZN8facebook5react8systrace8rendererIA7_cvE6renderERA7_Kc, symObjAddr: 0x594C, symBinAddr: 0x958C, symSize: 0xE4 }
  - { offset: 0x588F2, size: 0x8, addend: 0x0, symName: __ZN8facebook5react8systrace8rendererINSt3__112basic_stringIcNS3_11char_traitsIcEENS3_9allocatorIcEEEEvE6renderERKS9_, symObjAddr: 0x6170, symBinAddr: 0x9DB0, symSize: 0xEC }
  - { offset: 0x58BB7, size: 0x8, addend: 0x0, symName: __ZNSt3__16vectorINS_12basic_stringIcNS_11char_traitsIcEENS_9allocatorIcEEEENS4_IS6_EEE16__init_with_sizeB8ne200100IPKS6_SB_EEvT_T0_m, symObjAddr: 0x625C, symBinAddr: 0x9E9C, symSize: 0x84 }
  - { offset: 0x58E2B, size: 0x8, addend: 0x0, symName: __ZNSt3__16vectorINS_12basic_stringIcNS_11char_traitsIcEENS_9allocatorIcEEEENS4_IS6_EEE16__destroy_vectorclB8ne200100Ev, symObjAddr: 0x64B4, symBinAddr: 0xA0E0, symSize: 0x40 }
  - { offset: 0x5906A, size: 0x8, addend: 0x0, symName: __ZNSt3__119basic_ostringstreamIcNS_11char_traitsIcEENS_9allocatorIcEEEC1B8ne200100Ev, symObjAddr: 0x5A30, symBinAddr: 0x9670, symSize: 0xC4 }
  - { offset: 0x5915F, size: 0x8, addend: 0x0, symName: __ZNKSt3__115basic_stringbufIcNS_11char_traitsIcEENS_9allocatorIcEEE3strB8ne200100IS4_EENS_12basic_stringIcS2_T_EERKS8_, symObjAddr: 0x6094, symBinAddr: 0x9CD4, symSize: 0x90 }
  - { offset: 0x593AA, size: 0x8, addend: 0x0, symName: __ZNKSt3__115basic_stringbufIcNS_11char_traitsIcEENS_9allocatorIcEEE4viewB8ne200100Ev, symObjAddr: 0x6124, symBinAddr: 0x9D64, symSize: 0x4C }
  - { offset: 0x593BE, size: 0x8, addend: 0x0, symName: __ZNSt3__119basic_ostringstreamIcNS_11char_traitsIcEENS_9allocatorIcEEED1Ev, symObjAddr: 0x5B28, symBinAddr: 0x9768, symSize: 0x88 }
  - { offset: 0x59647, size: 0x8, addend: 0x0, symName: __ZNSt3__115basic_stringbufIcNS_11char_traitsIcEENS_9allocatorIcEEEC2B8ne200100Ej, symObjAddr: 0x5BB0, symBinAddr: 0x97F0, symSize: 0xA0 }
  - { offset: 0x597CB, size: 0x8, addend: 0x0, symName: __ZNSt3__115basic_stringbufIcNS_11char_traitsIcEENS_9allocatorIcEEE15__init_buf_ptrsB8ne200100Ev, symObjAddr: 0x5C50, symBinAddr: 0x9890, symSize: 0x104 }
  - { offset: 0x59D7E, size: 0x8, addend: 0x0, symName: __ZNSt3__112basic_stringIcNS_11char_traitsIcEENS_9allocatorIcEEEC2B8ne200100Emc, symObjAddr: 0x5FF8, symBinAddr: 0x9C38, symSize: 0x9C }
  - { offset: 0x59FB3, size: 0x8, addend: 0x0, symName: __ZNKSt3__115basic_stringbufIcNS_11char_traitsIcEENS_9allocatorIcEEE3strB8ne200100IS4_EENS_12basic_stringIcS2_T_EERKS8_, symObjAddr: 0x6094, symBinAddr: 0x9CD4, symSize: 0x90 }
  - { offset: 0x5A0D0, size: 0x8, addend: 0x0, symName: __ZNKSt3__115basic_stringbufIcNS_11char_traitsIcEENS_9allocatorIcEEE4viewB8ne200100Ev, symObjAddr: 0x6124, symBinAddr: 0x9D64, symSize: 0x4C }
  - { offset: 0x5A482, size: 0x8, addend: 0x0, symName: __ZNSt3__16vectorINS_12basic_stringIcNS_11char_traitsIcEENS_9allocatorIcEEEENS4_IS6_EEE11__vallocateB8ne200100Em, symObjAddr: 0x62E0, symBinAddr: 0x9F20, symSize: 0x48 }
  - { offset: 0x5A4EE, size: 0x8, addend: 0x0, symName: __ZNSt3__119__allocate_at_leastB8ne200100INS_9allocatorINS_12basic_stringIcNS_11char_traitsIcEENS1_IcEEEEEEEENS_19__allocation_resultINS_16allocator_traitsIT_E7pointerEEERSA_m, symObjAddr: 0x633C, symBinAddr: 0x9F68, symSize: 0x44 }
  - { offset: 0x5A5E4, size: 0x8, addend: 0x0, symName: __ZNSt3__128__exception_guard_exceptionsINS_29_AllocatorDestroyRangeReverseINS_9allocatorINS_12basic_stringIcNS_11char_traitsIcEENS2_IcEEEEEEPS7_EEED2B8ne200100Ev, symObjAddr: 0x643C, symBinAddr: 0xA068, symSize: 0x34 }
  - { offset: 0x5A623, size: 0x8, addend: 0x0, symName: __ZNKSt3__129_AllocatorDestroyRangeReverseINS_9allocatorINS_12basic_stringIcNS_11char_traitsIcEENS1_IcEEEEEEPS6_EclB8ne200100Ev, symObjAddr: 0x6470, symBinAddr: 0xA09C, symSize: 0x44 }
  - { offset: 0x5A8A7, size: 0x8, addend: 0x0, symName: __ZNSt3__16vectorINS_12basic_stringIcNS_11char_traitsIcEENS_9allocatorIcEEEENS4_IS6_EEE5clearB8ne200100Ev, symObjAddr: 0x64F4, symBinAddr: 0xA120, symSize: 0x4C }
  - { offset: 0x5AB05, size: 0x8, addend: 0x0, symName: '__ZNSt3__110__function6__funcIZN8facebook5react15CxxNativeModule6invokeEjON5folly7dynamicEiE3$_0NS_9allocatorIS8_EEFvvEED1Ev', symObjAddr: 0x65A4, symBinAddr: 0xA16C, symSize: 0x104 }
  - { offset: 0x5B068, size: 0x8, addend: 0x0, symName: '__ZNSt3__110__function6__funcIZN8facebook5react15CxxNativeModule6invokeEjON5folly7dynamicEiE3$_0NS_9allocatorIS8_EEFvvEED0Ev', symObjAddr: 0x66A8, symBinAddr: 0xA270, symSize: 0x104 }
  - { offset: 0x5B77C, size: 0x8, addend: 0x0, symName: '__ZNKSt3__110__function6__funcIZN8facebook5react15CxxNativeModule6invokeEjON5folly7dynamicEiE3$_0NS_9allocatorIS8_EEFvvEE7__cloneEv', symObjAddr: 0x67AC, symBinAddr: 0xA374, symSize: 0x58 }
  - { offset: 0x5B9C8, size: 0x8, addend: 0x0, symName: '__ZZN8facebook5react15CxxNativeModule6invokeEjON5folly7dynamicEiEN3$_0C1ERKS5_', symObjAddr: 0x6D38, symBinAddr: 0xA900, symSize: 0x18C }
  - { offset: 0x5C0A3, size: 0x8, addend: 0x0, symName: '__ZNKSt3__110__function6__funcIZN8facebook5react15CxxNativeModule6invokeEjON5folly7dynamicEiE3$_0NS_9allocatorIS8_EEFvvEE7__cloneEPNS0_6__baseISB_EE', symObjAddr: 0x6804, symBinAddr: 0xA3CC, symSize: 0x3C }
  - { offset: 0x5C17D, size: 0x8, addend: 0x0, symName: '__ZNSt3__110__function6__funcIZN8facebook5react15CxxNativeModule6invokeEjON5folly7dynamicEiE3$_0NS_9allocatorIS8_EEFvvEE7destroyEv', symObjAddr: 0x6840, symBinAddr: 0xA408, symSize: 0x8 }
  - { offset: 0x5C1B2, size: 0x8, addend: 0x0, symName: '__ZNSt3__110__function12__alloc_funcIZN8facebook5react15CxxNativeModule6invokeEjON5folly7dynamicEiE3$_0NS_9allocatorIS8_EEFvvEE7destroyB8ne200100Ev', symObjAddr: 0x6EC4, symBinAddr: 0xAA8C, symSize: 0xFC }
  - { offset: 0x5C663, size: 0x8, addend: 0x0, symName: '__ZNSt3__110__function6__funcIZN8facebook5react15CxxNativeModule6invokeEjON5folly7dynamicEiE3$_0NS_9allocatorIS8_EEFvvEE18destroy_deallocateEv', symObjAddr: 0x6848, symBinAddr: 0xA410, symSize: 0x28 }
  - { offset: 0x5C844, size: 0x8, addend: 0x0, symName: '__ZNSt3__110__function6__funcIZN8facebook5react15CxxNativeModule6invokeEjON5folly7dynamicEiE3$_0NS_9allocatorIS8_EEFvvEEclEv', symObjAddr: 0x6870, symBinAddr: 0xA438, symSize: 0x41C }
  - { offset: 0x5D2A0, size: 0x8, addend: 0x0, symName: '__ZNKSt3__110__function6__funcIZN8facebook5react15CxxNativeModule6invokeEjON5folly7dynamicEiE3$_0NS_9allocatorIS8_EEFvvEE6targetERKSt9type_info', symObjAddr: 0x6C8C, symBinAddr: 0xA854, symSize: 0x3C }
  - { offset: 0x5D2ED, size: 0x8, addend: 0x0, symName: '__ZNKSt3__110__function6__funcIZN8facebook5react15CxxNativeModule6invokeEjON5folly7dynamicEiE3$_0NS_9allocatorIS8_EEFvvEE11target_typeEv', symObjAddr: 0x6CC8, symBinAddr: 0xA890, symSize: 0xC }
  - { offset: 0x5FA3B, size: 0x8, addend: 0x0, symName: __ZZN8facebook5react8systraceL31getOrCreateInstrumentsLogHandleEvE4flag, symObjAddr: 0x18C5C0, symBinAddr: 0x281E0, symSize: 0x0 }
  - { offset: 0x60C1E, size: 0x8, addend: 0x0, symName: __ZN8facebook5react18jsinspector_modern18makeScopedExecutorINS1_10HostTargetEEENSt3__18functionIFvONS5_IFvRT_EEEEEENS4_10shared_ptrIS6_EENS5_IFvONS5_IFvvEEEEEE, symObjAddr: 0x2F0C, symBinAddr: 0xD234, symSize: 0xE8 }
  - { offset: 0x61D1B, size: 0x8, addend: 0x0, symName: __ZN8facebook5reactL13handleJSErrorERNS_3jsi7RuntimeERKNS1_7JSErrorEb, symObjAddr: 0x554C, symBinAddr: 0xED84, symSize: 0x464 }
  - { offset: 0x816B7, size: 0x8, addend: 0x0, symName: __ZNSt3__115allocate_sharedB8ne200100IN8facebook5react16NativeToJsBridgeENS_9allocatorIS3_EEJPNS2_17JSExecutorFactoryERNS_10shared_ptrINS2_14ModuleRegistryEEERNS8_INS2_18MessageQueueThreadEEERNS8_INS2_16InstanceCallbackEEEELi0EEENS8_IT_EERKT0_DpOT1_, symObjAddr: 0x2C94, symBinAddr: 0xCFBC, symSize: 0x78 }
  - { offset: 0x81DE8, size: 0x8, addend: 0x0, symName: __ZNSt3__112construct_atB8ne200100IN8facebook5react16NativeToJsBridgeEJPNS2_17JSExecutorFactoryERNS_10shared_ptrINS2_14ModuleRegistryEEERNS6_INS2_18MessageQueueThreadEEERNS6_INS2_16InstanceCallbackEEEEPS3_EEPT_SI_DpOT0_, symObjAddr: 0x2DA0, symBinAddr: 0xD0C8, symSize: 0x16C }
  - { offset: 0x83009, size: 0x8, addend: 0x0, symName: __ZNSt3__120__throw_bad_weak_ptrB8ne200100Ev, symObjAddr: 0x3A9C, symBinAddr: 0xDCAC, symSize: 0x34 }
  - { offset: 0x83733, size: 0x8, addend: 0x0, symName: __ZNSt3__117__call_once_proxyB8ne200100INS_5tupleIJOZN8facebook5react8systraceL31getOrCreateInstrumentsLogHandleEvEUlvE_EEEEEvPv, symObjAddr: 0x43A0, symBinAddr: 0xE4F4, symSize: 0x40 }
  - { offset: 0x863A8, size: 0x8, addend: 0x0, symName: __ZN8facebook5react12TraceSectionC2IJRA10_KcRNSt3__112basic_stringIcNS6_11char_traitsIcEENS6_9allocatorIcEEEEEEEPS3_DpOT_, symObjAddr: 0x3F50, symBinAddr: 0xE0A4, symSize: 0x450 }
  - { offset: 0x87ACA, size: 0x8, addend: 0x0, symName: __ZN8facebook5react12TraceSectionC2IJEEEPKcDpOT_, symObjAddr: 0x4D7C, symBinAddr: 0xE618, symSize: 0x17C }
  - { offset: 0x8B846, size: 0x8, addend: 0x0, symName: __ZN8facebook5react11CallInvoker11invokeAsyncEONSt3__18functionIFvvEEE, symObjAddr: 0x1658, symBinAddr: 0xC1D0, symSize: 0xF8 }
  - { offset: 0x8BD87, size: 0x8, addend: 0x0, symName: __ZN8facebook5react11CallInvoker10invokeSyncEONSt3__18functionIFvvEEE, symObjAddr: 0x1750, symBinAddr: 0xC2C8, symSize: 0x15C }
  - { offset: 0x8D6D2, size: 0x8, addend: 0x0, symName: __ZN8facebook5react8Instance16initializeBridgeENSt3__110unique_ptrINS0_16InstanceCallbackENS2_14default_deleteIS4_EEEENS2_10shared_ptrINS0_17JSExecutorFactoryEEENS8_INS0_18MessageQueueThreadEEENS8_INS0_14ModuleRegistryEEEPNS0_18jsinspector_modern10HostTargetE, symObjAddr: 0xD0, symBinAddr: 0xAC48, symSize: 0x1A8 }
  - { offset: 0x8DDD5, size: 0x8, addend: 0x0, symName: __ZZN8facebook5react18jsinspector_modern18makeScopedExecutorINS1_10HostTargetEEENSt3__18functionIFvONS5_IFvRT_EEEEEENS4_10shared_ptrIS6_EENS5_IFvONS5_IFvvEEEEEEENKUlOS6_E_clINS5_IFvRS3_EEEEEDaSK_, symObjAddr: 0x3414, symBinAddr: 0xD73C, symSize: 0x188 }
  - { offset: 0x8E87A, size: 0x8, addend: 0x0, symName: __ZN8facebook5react8Instance18getRuntimeExecutorEv, symObjAddr: 0x11DC, symBinAddr: 0xBD54, symSize: 0x90 }
  - { offset: 0x8ED2C, size: 0x8, addend: 0x0, symName: __ZN8facebook5react8Instance13JSCallInvoker13scheduleAsyncEONSt3__18functionIFvRNS_3jsi7RuntimeEEEE, symObjAddr: 0x1398, symBinAddr: 0xBF10, symSize: 0x14C }
  - { offset: 0x8F3DA, size: 0x8, addend: 0x0, symName: __ZN8facebook5react8InstanceD2Ev, symObjAddr: 0x0, symBinAddr: 0xAB88, symSize: 0x70 }
  - { offset: 0x8F635, size: 0x8, addend: 0x0, symName: __ZN8facebook5react8InstanceD1Ev, symObjAddr: 0x80, symBinAddr: 0xABF8, symSize: 0x4 }
  - { offset: 0x8F658, size: 0x8, addend: 0x0, symName: __ZN8facebook5react8InstanceD1Ev, symObjAddr: 0x80, symBinAddr: 0xABF8, symSize: 0x4 }
  - { offset: 0x8F687, size: 0x8, addend: 0x0, symName: __ZN8facebook5react8InstanceD0Ev, symObjAddr: 0x84, symBinAddr: 0xABFC, symSize: 0x14 }
  - { offset: 0x8F6E3, size: 0x8, addend: 0x0, symName: __ZN8facebook5react8Instance23unregisterFromInspectorEv, symObjAddr: 0x98, symBinAddr: 0xAC10, symSize: 0x38 }
  - { offset: 0x8FB99, size: 0x8, addend: 0x0, symName: __ZNSt3__110shared_ptrIN8facebook5react16InstanceCallbackEEaSB8ne200100IS3_NS_14default_deleteIS3_EELi0EEERS4_ONS_10unique_ptrIT_T0_EE, symObjAddr: 0x278, symBinAddr: 0xADF0, symSize: 0x98 }
  - { offset: 0x8FDB2, size: 0x8, addend: 0x0, symName: __ZNSt3__110shared_ptrIN8facebook5react14ModuleRegistryEEaSB8ne200100EOS4_, symObjAddr: 0x310, symBinAddr: 0xAE88, symSize: 0x64 }
  - { offset: 0x90590, size: 0x8, addend: 0x0, symName: __ZN8facebook5react8Instance10loadBundleENSt3__110unique_ptrINS0_17RAMBundleRegistryENS2_14default_deleteIS4_EEEENS3_IKNS0_11JSBigStringENS5_IS9_EEEENS2_12basic_stringIcNS2_11char_traitsIcEENS2_9allocatorIcEEEE, symObjAddr: 0x374, symBinAddr: 0xAEEC, symSize: 0x150 }
  - { offset: 0x90B8C, size: 0x8, addend: 0x0, symName: __ZN8facebook5react8Instance10loadBundleENSt3__110unique_ptrINS0_17RAMBundleRegistryENS2_14default_deleteIS4_EEEENS3_IKNS0_11JSBigStringENS5_IS9_EEEENS2_12basic_stringIcNS2_11char_traitsIcEENS2_9allocatorIcEEEE.cold.1, symObjAddr: 0x5C44, symBinAddr: 0x19150, symSize: 0x34 }
  - { offset: 0x90C84, size: 0x8, addend: 0x0, symName: __ZN8facebook5react8Instance14loadBundleSyncENSt3__110unique_ptrINS0_17RAMBundleRegistryENS2_14default_deleteIS4_EEEENS3_IKNS0_11JSBigStringENS5_IS9_EEEENS2_12basic_stringIcNS2_11char_traitsIcEENS2_9allocatorIcEEEE, symObjAddr: 0x4C4, symBinAddr: 0xB03C, symSize: 0x1A0 }
  - { offset: 0x913E3, size: 0x8, addend: 0x0, symName: __ZN8facebook5react8Instance14loadBundleSyncENSt3__110unique_ptrINS0_17RAMBundleRegistryENS2_14default_deleteIS4_EEEENS3_IKNS0_11JSBigStringENS5_IS9_EEEENS2_12basic_stringIcNS2_11char_traitsIcEENS2_9allocatorIcEEEE.cold.1, symObjAddr: 0x5C78, symBinAddr: 0x19184, symSize: 0x40 }
  - { offset: 0x914FB, size: 0x8, addend: 0x0, symName: __ZN8facebook5react8Instance12setSourceURLENSt3__112basic_stringIcNS2_11char_traitsIcEENS2_9allocatorIcEEEE, symObjAddr: 0x664, symBinAddr: 0xB1DC, symSize: 0x130 }
  - { offset: 0x91AA7, size: 0x8, addend: 0x0, symName: __ZN8facebook5react8Instance20loadScriptFromStringENSt3__110unique_ptrIKNS0_11JSBigStringENS2_14default_deleteIS5_EEEENS2_12basic_stringIcNS2_11char_traitsIcEENS2_9allocatorIcEEEEb, symObjAddr: 0x794, symBinAddr: 0xB30C, symSize: 0x1EC }
  - { offset: 0x92883, size: 0x8, addend: 0x0, symName: __ZN8facebook5react8Instance23loadRAMBundleFromStringENSt3__110unique_ptrIKNS0_11JSBigStringENS2_14default_deleteIS5_EEEERKNS2_12basic_stringIcNS2_11char_traitsIcEENS2_9allocatorIcEEEE, symObjAddr: 0x980, symBinAddr: 0xB4F8, symSize: 0x228 }
  - { offset: 0x935CD, size: 0x8, addend: 0x0, symName: __ZN8facebook5react8Instance13loadRAMBundleENSt3__110unique_ptrINS0_17RAMBundleRegistryENS2_14default_deleteIS4_EEEENS3_IKNS0_11JSBigStringENS5_IS9_EEEENS2_12basic_stringIcNS2_11char_traitsIcEENS2_9allocatorIcEEEEb, symObjAddr: 0xBA8, symBinAddr: 0xB720, symSize: 0x17C }
  - { offset: 0x941DA, size: 0x8, addend: 0x0, symName: __ZN8facebook5react8Instance21loadRAMBundleFromFileERKNSt3__112basic_stringIcNS2_11char_traitsIcEENS2_9allocatorIcEEEESA_b, symObjAddr: 0xD24, symBinAddr: 0xB89C, symSize: 0x290 }
  - { offset: 0x94D7A, size: 0x8, addend: 0x0, symName: __ZN8facebook5react8Instance17setGlobalVariableENSt3__112basic_stringIcNS2_11char_traitsIcEENS2_9allocatorIcEEEENS2_10unique_ptrIKNS0_11JSBigStringENS2_14default_deleteISB_EEEE, symObjAddr: 0xFB4, symBinAddr: 0xBB2C, symSize: 0xA8 }
  - { offset: 0x9512A, size: 0x8, addend: 0x0, symName: __ZN8facebook5react8Instance17setGlobalVariableENSt3__112basic_stringIcNS2_11char_traitsIcEENS2_9allocatorIcEEEENS2_10unique_ptrIKNS0_11JSBigStringENS2_14default_deleteISB_EEEE.cold.1, symObjAddr: 0x5CEC, symBinAddr: 0x191C4, symSize: 0x24 }
  - { offset: 0x95145, size: 0x8, addend: 0x0, symName: __ZN8facebook5react8Instance17setGlobalVariableENSt3__112basic_stringIcNS2_11char_traitsIcEENS2_9allocatorIcEEEENS2_10unique_ptrIKNS0_11JSBigStringENS2_14default_deleteISB_EEEE.cold.1, symObjAddr: 0x5CEC, symBinAddr: 0x191C4, symSize: 0x24 }
  - { offset: 0x95159, size: 0x8, addend: 0x0, symName: __ZN8facebook5react8Instance17setGlobalVariableENSt3__112basic_stringIcNS2_11char_traitsIcEENS2_9allocatorIcEEEENS2_10unique_ptrIKNS0_11JSBigStringENS2_14default_deleteISB_EEEE.cold.1, symObjAddr: 0x5CEC, symBinAddr: 0x191C4, symSize: 0x24 }
  - { offset: 0x9516E, size: 0x8, addend: 0x0, symName: __ZN8facebook5react8Instance17setGlobalVariableENSt3__112basic_stringIcNS2_11char_traitsIcEENS2_9allocatorIcEEEENS2_10unique_ptrIKNS0_11JSBigStringENS2_14default_deleteISB_EEEE.cold.1, symObjAddr: 0x5CEC, symBinAddr: 0x191C4, symSize: 0x24 }
  - { offset: 0x95218, size: 0x8, addend: 0x0, symName: __ZN8facebook5react8Instance20getJavaScriptContextEv, symObjAddr: 0x105C, symBinAddr: 0xBBD4, symSize: 0x10 }
  - { offset: 0x9523C, size: 0x8, addend: 0x0, symName: __ZN8facebook5react8Instance20getJavaScriptContextEv, symObjAddr: 0x105C, symBinAddr: 0xBBD4, symSize: 0x10 }
  - { offset: 0x95259, size: 0x8, addend: 0x0, symName: __ZN8facebook5react8Instance20getJavaScriptContextEv, symObjAddr: 0x105C, symBinAddr: 0xBBD4, symSize: 0x10 }
  - { offset: 0x95277, size: 0x8, addend: 0x0, symName: __ZN8facebook5react8Instance13isInspectableEv, symObjAddr: 0x106C, symBinAddr: 0xBBE4, symSize: 0x10 }
  - { offset: 0x952A2, size: 0x8, addend: 0x0, symName: __ZN8facebook5react8Instance13isInspectableEv, symObjAddr: 0x106C, symBinAddr: 0xBBE4, symSize: 0x10 }
  - { offset: 0x952BF, size: 0x8, addend: 0x0, symName: __ZN8facebook5react8Instance13isInspectableEv, symObjAddr: 0x106C, symBinAddr: 0xBBE4, symSize: 0x10 }
  - { offset: 0x952DD, size: 0x8, addend: 0x0, symName: __ZN8facebook5react8Instance13isBatchActiveEv, symObjAddr: 0x107C, symBinAddr: 0xBBF4, symSize: 0x10 }
  - { offset: 0x95308, size: 0x8, addend: 0x0, symName: __ZN8facebook5react8Instance13isBatchActiveEv, symObjAddr: 0x107C, symBinAddr: 0xBBF4, symSize: 0x10 }
  - { offset: 0x95325, size: 0x8, addend: 0x0, symName: __ZN8facebook5react8Instance13isBatchActiveEv, symObjAddr: 0x107C, symBinAddr: 0xBBF4, symSize: 0x10 }
  - { offset: 0x95343, size: 0x8, addend: 0x0, symName: __ZN8facebook5react8Instance14callJSFunctionEONSt3__112basic_stringIcNS2_11char_traitsIcEENS2_9allocatorIcEEEES9_ON5folly7dynamicE, symObjAddr: 0x108C, symBinAddr: 0xBC04, symSize: 0x50 }
  - { offset: 0x9540B, size: 0x8, addend: 0x0, symName: __ZN8facebook5react8Instance14callJSCallbackEyON5folly7dynamicE, symObjAddr: 0x10DC, symBinAddr: 0xBC54, symSize: 0xB4 }
  - { offset: 0x95547, size: 0x8, addend: 0x0, symName: __ZN8facebook5react8Instance14registerBundleEjRKNSt3__112basic_stringIcNS2_11char_traitsIcEENS2_9allocatorIcEEEE, symObjAddr: 0x1190, symBinAddr: 0xBD08, symSize: 0x8 }
  - { offset: 0x9558E, size: 0x8, addend: 0x0, symName: __ZN8facebook5react8Instance14registerBundleEjRKNSt3__112basic_stringIcNS2_11char_traitsIcEENS2_9allocatorIcEEEE, symObjAddr: 0x1190, symBinAddr: 0xBD08, symSize: 0x8 }
  - { offset: 0x955C5, size: 0x8, addend: 0x0, symName: __ZNK8facebook5react8Instance17getModuleRegistryEv, symObjAddr: 0x1198, symBinAddr: 0xBD10, symSize: 0x8 }
  - { offset: 0x955F1, size: 0x8, addend: 0x0, symName: __ZNK8facebook5react8Instance17getModuleRegistryEv, symObjAddr: 0x1198, symBinAddr: 0xBD10, symSize: 0x8 }
  - { offset: 0x9560E, size: 0x8, addend: 0x0, symName: __ZN8facebook5react8Instance17getModuleRegistryEv, symObjAddr: 0x11A0, symBinAddr: 0xBD18, symSize: 0x8 }
  - { offset: 0x9563A, size: 0x8, addend: 0x0, symName: __ZN8facebook5react8Instance17getModuleRegistryEv, symObjAddr: 0x11A0, symBinAddr: 0xBD18, symSize: 0x8 }
  - { offset: 0x95657, size: 0x8, addend: 0x0, symName: __ZN8facebook5react8Instance20handleMemoryPressureEi, symObjAddr: 0x11A8, symBinAddr: 0xBD20, symSize: 0x10 }
  - { offset: 0x95692, size: 0x8, addend: 0x0, symName: __ZN8facebook5react8Instance20handleMemoryPressureEi, symObjAddr: 0x11A8, symBinAddr: 0xBD20, symSize: 0x10 }
  - { offset: 0x956B0, size: 0x8, addend: 0x0, symName: __ZN8facebook5react8Instance20handleMemoryPressureEi, symObjAddr: 0x11A8, symBinAddr: 0xBD20, symSize: 0x10 }
  - { offset: 0x95768, size: 0x8, addend: 0x0, symName: __ZN8facebook5react8Instance16getJSCallInvokerEv, symObjAddr: 0x11B8, symBinAddr: 0xBD30, symSize: 0x24 }
  - { offset: 0x95792, size: 0x8, addend: 0x0, symName: __ZN8facebook5react8Instance16getJSCallInvokerEv, symObjAddr: 0x11B8, symBinAddr: 0xBD30, symSize: 0x24 }
  - { offset: 0x957B1, size: 0x8, addend: 0x0, symName: __ZN8facebook5react8Instance16getJSCallInvokerEv, symObjAddr: 0x11B8, symBinAddr: 0xBD30, symSize: 0x24 }
  - { offset: 0x95D74, size: 0x8, addend: 0x0, symName: __ZN8facebook5react8Instance35getDecoratedNativeMethodCallInvokerENSt3__110shared_ptrINS0_23NativeMethodCallInvokerEEE, symObjAddr: 0x126C, symBinAddr: 0xBDE4, symSize: 0x98 }
  - { offset: 0x960D5, size: 0x8, addend: 0x0, symName: __ZN8facebook5react8Instance13JSCallInvoker32setNativeToJsBridgeAndFlushCallsENSt3__18weak_ptrINS0_16NativeToJsBridgeEEE, symObjAddr: 0x1304, symBinAddr: 0xBE7C, symSize: 0x94 }
  - { offset: 0x96339, size: 0x8, addend: 0x0, symName: __ZNSt3__14listINS_8functionIFvRN8facebook3jsi7RuntimeEEEENS_9allocatorIS7_EEE9pop_frontEv, symObjAddr: 0x14E4, symBinAddr: 0xC05C, symSize: 0x60 }
  - { offset: 0x969E7, size: 0x8, addend: 0x0, symName: __ZNSt3__110__function12__value_funcIFvRN8facebook3jsi7RuntimeEEEC2B8ne200100EOS7_, symObjAddr: 0x4EF8, symBinAddr: 0xE794, symSize: 0x64 }
  - { offset: 0x96B15, size: 0x8, addend: 0x0, symName: __ZN8facebook5react8Instance13JSCallInvoker10invokeSyncEONSt3__18functionIFvRNS_3jsi7RuntimeEEEE, symObjAddr: 0x1544, symBinAddr: 0xC0BC, symSize: 0x50 }
  - { offset: 0x96B44, size: 0x8, addend: 0x0, symName: __ZN8facebook5react8Instance13JSCallInvoker11invokeAsyncEONSt3__18functionIFvRNS_3jsi7RuntimeEEEE, symObjAddr: 0x1594, symBinAddr: 0xC10C, symSize: 0x58 }
  - { offset: 0x96C17, size: 0x8, addend: 0x0, symName: __ZNSt3__14listINS_8functionIFvRN8facebook3jsi7RuntimeEEEENS_9allocatorIS7_EEE9push_backEOS7_, symObjAddr: 0x15EC, symBinAddr: 0xC164, symSize: 0x5C }
  - { offset: 0x9714D, size: 0x8, addend: 0x0, symName: __ZN8facebook5react11CallInvoker11invokeAsyncENS0_17SchedulerPriorityEONSt3__18functionIFvRNS_3jsi7RuntimeEEEE, symObjAddr: 0x1648, symBinAddr: 0xC1C0, symSize: 0x10 }
  - { offset: 0x975E7, size: 0x8, addend: 0x0, symName: __ZNSt3__110__function12__value_funcIFvvEEC2B8ne200100EOS3_, symObjAddr: 0x1DEC, symBinAddr: 0xC6B0, symSize: 0x64 }
  - { offset: 0x979B7, size: 0x8, addend: 0x0, symName: __ZN8facebook5react8Instance13JSCallInvokerD1Ev, symObjAddr: 0x18AC, symBinAddr: 0xC424, symSize: 0x44 }
  - { offset: 0x97A7F, size: 0x8, addend: 0x0, symName: __ZNSt3__110__list_impINS_8functionIFvRN8facebook3jsi7RuntimeEEEENS_9allocatorIS7_EEE5clearEv, symObjAddr: 0x20EC, symBinAddr: 0xC918, symSize: 0x90 }
  - { offset: 0x97AAA, size: 0x8, addend: 0x0, symName: __ZNSt3__110__list_impINS_8functionIFvRN8facebook3jsi7RuntimeEEEENS_9allocatorIS7_EEE5clearEv, symObjAddr: 0x20EC, symBinAddr: 0xC918, symSize: 0x90 }
  - { offset: 0x97D04, size: 0x8, addend: 0x0, symName: __ZN8facebook5react8Instance13JSCallInvokerD0Ev, symObjAddr: 0x18F0, symBinAddr: 0xC468, symSize: 0x44 }
  - { offset: 0x9801D, size: 0x8, addend: 0x0, symName: __ZNSt3__110__function6__funcIZN8facebook5react11CallInvoker11invokeAsyncEONS_8functionIFvvEEEEUlRNS2_3jsi7RuntimeEE_NS_9allocatorISC_EEFvSB_EED1Ev, symObjAddr: 0x1BE8, symBinAddr: 0xC4AC, symSize: 0x58 }
  - { offset: 0x98178, size: 0x8, addend: 0x0, symName: __ZNSt3__110__function6__funcIZN8facebook5react11CallInvoker11invokeAsyncEONS_8functionIFvvEEEEUlRNS2_3jsi7RuntimeEE_NS_9allocatorISC_EEFvSB_EED0Ev, symObjAddr: 0x1C40, symBinAddr: 0xC504, symSize: 0x58 }
  - { offset: 0x9850A, size: 0x8, addend: 0x0, symName: __ZNKSt3__110__function6__funcIZN8facebook5react11CallInvoker11invokeAsyncEONS_8functionIFvvEEEEUlRNS2_3jsi7RuntimeEE_NS_9allocatorISC_EEFvSB_EE7__cloneEv, symObjAddr: 0x1C98, symBinAddr: 0xC55C, symSize: 0x54 }
  - { offset: 0x9886C, size: 0x8, addend: 0x0, symName: __ZNKSt3__110__function6__funcIZN8facebook5react11CallInvoker11invokeAsyncEONS_8functionIFvvEEEEUlRNS2_3jsi7RuntimeEE_NS_9allocatorISC_EEFvSB_EE7__cloneEPNS0_6__baseISF_EE, symObjAddr: 0x1CEC, symBinAddr: 0xC5B0, symSize: 0x1C }
  - { offset: 0x989BF, size: 0x8, addend: 0x0, symName: __ZNSt3__110__function6__funcIZN8facebook5react11CallInvoker11invokeAsyncEONS_8functionIFvvEEEEUlRNS2_3jsi7RuntimeEE_NS_9allocatorISC_EEFvSB_EE7destroyEv, symObjAddr: 0x1D08, symBinAddr: 0xC5CC, symSize: 0x30 }
  - { offset: 0x98AC8, size: 0x8, addend: 0x0, symName: __ZNSt3__110__function6__funcIZN8facebook5react11CallInvoker11invokeAsyncEONS_8functionIFvvEEEEUlRNS2_3jsi7RuntimeEE_NS_9allocatorISC_EEFvSB_EE18destroy_deallocateEv, symObjAddr: 0x1D38, symBinAddr: 0xC5FC, symSize: 0x4C }
  - { offset: 0x98D1B, size: 0x8, addend: 0x0, symName: __ZNSt3__110__function6__funcIZN8facebook5react11CallInvoker11invokeAsyncEONS_8functionIFvvEEEEUlRNS2_3jsi7RuntimeEE_NS_9allocatorISC_EEFvSB_EEclESB_, symObjAddr: 0x1D84, symBinAddr: 0xC648, symSize: 0x20 }
  - { offset: 0x98D55, size: 0x8, addend: 0x0, symName: __ZNSt3__110__function6__funcIZN8facebook5react11CallInvoker11invokeAsyncEONS_8functionIFvvEEEEUlRNS2_3jsi7RuntimeEE_NS_9allocatorISC_EEFvSB_EEclESB_, symObjAddr: 0x1D84, symBinAddr: 0xC648, symSize: 0x20 }
  - { offset: 0x98D7C, size: 0x8, addend: 0x0, symName: __ZNSt3__110__function6__funcIZN8facebook5react11CallInvoker11invokeAsyncEONS_8functionIFvvEEEEUlRNS2_3jsi7RuntimeEE_NS_9allocatorISC_EEFvSB_EEclESB_, symObjAddr: 0x1D84, symBinAddr: 0xC648, symSize: 0x20 }
  - { offset: 0x98DA2, size: 0x8, addend: 0x0, symName: __ZNSt3__110__function6__funcIZN8facebook5react11CallInvoker11invokeAsyncEONS_8functionIFvvEEEEUlRNS2_3jsi7RuntimeEE_NS_9allocatorISC_EEFvSB_EEclESB_, symObjAddr: 0x1D84, symBinAddr: 0xC648, symSize: 0x20 }
  - { offset: 0x98DC9, size: 0x8, addend: 0x0, symName: __ZNSt3__110__function6__funcIZN8facebook5react11CallInvoker11invokeAsyncEONS_8functionIFvvEEEEUlRNS2_3jsi7RuntimeEE_NS_9allocatorISC_EEFvSB_EEclESB_, symObjAddr: 0x1D84, symBinAddr: 0xC648, symSize: 0x20 }
  - { offset: 0x98DEF, size: 0x8, addend: 0x0, symName: __ZNSt3__110__function6__funcIZN8facebook5react11CallInvoker11invokeAsyncEONS_8functionIFvvEEEEUlRNS2_3jsi7RuntimeEE_NS_9allocatorISC_EEFvSB_EEclESB_, symObjAddr: 0x1D84, symBinAddr: 0xC648, symSize: 0x20 }
  - { offset: 0x98E15, size: 0x8, addend: 0x0, symName: __ZNSt3__110__function6__funcIZN8facebook5react11CallInvoker11invokeAsyncEONS_8functionIFvvEEEEUlRNS2_3jsi7RuntimeEE_NS_9allocatorISC_EEFvSB_EEclESB_, symObjAddr: 0x1D84, symBinAddr: 0xC648, symSize: 0x20 }
  - { offset: 0x98E32, size: 0x8, addend: 0x0, symName: __ZNSt3__110__function6__funcIZN8facebook5react11CallInvoker11invokeAsyncEONS_8functionIFvvEEEEUlRNS2_3jsi7RuntimeEE_NS_9allocatorISC_EEFvSB_EEclESB_, symObjAddr: 0x1D84, symBinAddr: 0xC648, symSize: 0x20 }
  - { offset: 0x98E63, size: 0x8, addend: 0x0, symName: __ZNKSt3__110__function6__funcIZN8facebook5react11CallInvoker11invokeAsyncEONS_8functionIFvvEEEEUlRNS2_3jsi7RuntimeEE_NS_9allocatorISC_EEFvSB_EE6targetERKSt9type_info, symObjAddr: 0x1DA4, symBinAddr: 0xC668, symSize: 0x3C }
  - { offset: 0x98E6E, size: 0x8, addend: 0x0, symName: __ZNKSt3__110__function6__funcIZN8facebook5react11CallInvoker11invokeAsyncEONS_8functionIFvvEEEEUlRNS2_3jsi7RuntimeEE_NS_9allocatorISC_EEFvSB_EE6targetERKSt9type_info, symObjAddr: 0x1DA4, symBinAddr: 0xC668, symSize: 0x3C }
  - { offset: 0x98F21, size: 0x8, addend: 0x0, symName: __ZNKSt3__110__function6__funcIZN8facebook5react11CallInvoker11invokeAsyncEONS_8functionIFvvEEEEUlRNS2_3jsi7RuntimeEE_NS_9allocatorISC_EEFvSB_EE11target_typeEv, symObjAddr: 0x1DE0, symBinAddr: 0xC6A4, symSize: 0xC }
  - { offset: 0x9901E, size: 0x8, addend: 0x0, symName: __ZNSt3__110__function6__funcIZN8facebook5react11CallInvoker10invokeSyncEONS_8functionIFvvEEEEUlRNS2_3jsi7RuntimeEE_NS_9allocatorISC_EEFvSB_EED1Ev, symObjAddr: 0x1EE8, symBinAddr: 0xC714, symSize: 0x58 }
  - { offset: 0x99179, size: 0x8, addend: 0x0, symName: __ZNSt3__110__function6__funcIZN8facebook5react11CallInvoker10invokeSyncEONS_8functionIFvvEEEEUlRNS2_3jsi7RuntimeEE_NS_9allocatorISC_EEFvSB_EED0Ev, symObjAddr: 0x1F40, symBinAddr: 0xC76C, symSize: 0x58 }
  - { offset: 0x9950B, size: 0x8, addend: 0x0, symName: __ZNKSt3__110__function6__funcIZN8facebook5react11CallInvoker10invokeSyncEONS_8functionIFvvEEEEUlRNS2_3jsi7RuntimeEE_NS_9allocatorISC_EEFvSB_EE7__cloneEv, symObjAddr: 0x1F98, symBinAddr: 0xC7C4, symSize: 0x54 }
  - { offset: 0x9986D, size: 0x8, addend: 0x0, symName: __ZNKSt3__110__function6__funcIZN8facebook5react11CallInvoker10invokeSyncEONS_8functionIFvvEEEEUlRNS2_3jsi7RuntimeEE_NS_9allocatorISC_EEFvSB_EE7__cloneEPNS0_6__baseISF_EE, symObjAddr: 0x1FEC, symBinAddr: 0xC818, symSize: 0x1C }
  - { offset: 0x999C0, size: 0x8, addend: 0x0, symName: __ZNSt3__110__function6__funcIZN8facebook5react11CallInvoker10invokeSyncEONS_8functionIFvvEEEEUlRNS2_3jsi7RuntimeEE_NS_9allocatorISC_EEFvSB_EE7destroyEv, symObjAddr: 0x2008, symBinAddr: 0xC834, symSize: 0x30 }
  - { offset: 0x99AC9, size: 0x8, addend: 0x0, symName: __ZNSt3__110__function6__funcIZN8facebook5react11CallInvoker10invokeSyncEONS_8functionIFvvEEEEUlRNS2_3jsi7RuntimeEE_NS_9allocatorISC_EEFvSB_EE18destroy_deallocateEv, symObjAddr: 0x2038, symBinAddr: 0xC864, symSize: 0x4C }
  - { offset: 0x99CE4, size: 0x8, addend: 0x0, symName: __ZNSt3__110__function6__funcIZN8facebook5react11CallInvoker10invokeSyncEONS_8functionIFvvEEEEUlRNS2_3jsi7RuntimeEE_NS_9allocatorISC_EEFvSB_EEclESB_, symObjAddr: 0x2084, symBinAddr: 0xC8B0, symSize: 0x20 }
  - { offset: 0x99D1E, size: 0x8, addend: 0x0, symName: __ZNSt3__110__function6__funcIZN8facebook5react11CallInvoker10invokeSyncEONS_8functionIFvvEEEEUlRNS2_3jsi7RuntimeEE_NS_9allocatorISC_EEFvSB_EEclESB_, symObjAddr: 0x2084, symBinAddr: 0xC8B0, symSize: 0x20 }
  - { offset: 0x99D45, size: 0x8, addend: 0x0, symName: __ZNSt3__110__function6__funcIZN8facebook5react11CallInvoker10invokeSyncEONS_8functionIFvvEEEEUlRNS2_3jsi7RuntimeEE_NS_9allocatorISC_EEFvSB_EEclESB_, symObjAddr: 0x2084, symBinAddr: 0xC8B0, symSize: 0x20 }
  - { offset: 0x99D6B, size: 0x8, addend: 0x0, symName: __ZNSt3__110__function6__funcIZN8facebook5react11CallInvoker10invokeSyncEONS_8functionIFvvEEEEUlRNS2_3jsi7RuntimeEE_NS_9allocatorISC_EEFvSB_EEclESB_, symObjAddr: 0x2084, symBinAddr: 0xC8B0, symSize: 0x20 }
  - { offset: 0x99D92, size: 0x8, addend: 0x0, symName: __ZNSt3__110__function6__funcIZN8facebook5react11CallInvoker10invokeSyncEONS_8functionIFvvEEEEUlRNS2_3jsi7RuntimeEE_NS_9allocatorISC_EEFvSB_EEclESB_, symObjAddr: 0x2084, symBinAddr: 0xC8B0, symSize: 0x20 }
  - { offset: 0x99DB8, size: 0x8, addend: 0x0, symName: __ZNSt3__110__function6__funcIZN8facebook5react11CallInvoker10invokeSyncEONS_8functionIFvvEEEEUlRNS2_3jsi7RuntimeEE_NS_9allocatorISC_EEFvSB_EEclESB_, symObjAddr: 0x2084, symBinAddr: 0xC8B0, symSize: 0x20 }
  - { offset: 0x99DDE, size: 0x8, addend: 0x0, symName: __ZNSt3__110__function6__funcIZN8facebook5react11CallInvoker10invokeSyncEONS_8functionIFvvEEEEUlRNS2_3jsi7RuntimeEE_NS_9allocatorISC_EEFvSB_EEclESB_, symObjAddr: 0x2084, symBinAddr: 0xC8B0, symSize: 0x20 }
  - { offset: 0x99DFB, size: 0x8, addend: 0x0, symName: __ZNSt3__110__function6__funcIZN8facebook5react11CallInvoker10invokeSyncEONS_8functionIFvvEEEEUlRNS2_3jsi7RuntimeEE_NS_9allocatorISC_EEFvSB_EEclESB_, symObjAddr: 0x2084, symBinAddr: 0xC8B0, symSize: 0x20 }
  - { offset: 0x99E2C, size: 0x8, addend: 0x0, symName: __ZNKSt3__110__function6__funcIZN8facebook5react11CallInvoker10invokeSyncEONS_8functionIFvvEEEEUlRNS2_3jsi7RuntimeEE_NS_9allocatorISC_EEFvSB_EE6targetERKSt9type_info, symObjAddr: 0x20A4, symBinAddr: 0xC8D0, symSize: 0x3C }
  - { offset: 0x99E37, size: 0x8, addend: 0x0, symName: __ZNKSt3__110__function6__funcIZN8facebook5react11CallInvoker10invokeSyncEONS_8functionIFvvEEEEUlRNS2_3jsi7RuntimeEE_NS_9allocatorISC_EEFvSB_EE6targetERKSt9type_info, symObjAddr: 0x20A4, symBinAddr: 0xC8D0, symSize: 0x3C }
  - { offset: 0x99E84, size: 0x8, addend: 0x0, symName: __ZNKSt3__110__function6__funcIZN8facebook5react11CallInvoker10invokeSyncEONS_8functionIFvvEEEEUlRNS2_3jsi7RuntimeEE_NS_9allocatorISC_EEFvSB_EE11target_typeEv, symObjAddr: 0x20E0, symBinAddr: 0xC90C, symSize: 0xC }
  - { offset: 0x9A386, size: 0x8, addend: 0x0, symName: __ZNSt3__120__shared_ptr_pointerIPN8facebook5react16InstanceCallbackENS_14default_deleteIS3_EENS_9allocatorIS3_EEED1Ev, symObjAddr: 0x261C, symBinAddr: 0xC9A8, symSize: 0x4 }
  - { offset: 0x9A3A8, size: 0x8, addend: 0x0, symName: __ZNSt3__120__shared_ptr_pointerIPN8facebook5react16InstanceCallbackENS_14default_deleteIS3_EENS_9allocatorIS3_EEED1Ev, symObjAddr: 0x261C, symBinAddr: 0xC9A8, symSize: 0x4 }
  - { offset: 0x9A3DE, size: 0x8, addend: 0x0, symName: __ZNSt3__120__shared_ptr_pointerIPN8facebook5react16InstanceCallbackENS_14default_deleteIS3_EENS_9allocatorIS3_EEED0Ev, symObjAddr: 0x2620, symBinAddr: 0xC9AC, symSize: 0x14 }
  - { offset: 0x9A467, size: 0x8, addend: 0x0, symName: __ZNSt3__120__shared_ptr_pointerIPN8facebook5react16InstanceCallbackENS_14default_deleteIS3_EENS_9allocatorIS3_EEE16__on_zero_sharedEv, symObjAddr: 0x2634, symBinAddr: 0xC9C0, symSize: 0x18 }
  - { offset: 0x9A4B6, size: 0x8, addend: 0x0, symName: __ZNKSt3__120__shared_ptr_pointerIPN8facebook5react16InstanceCallbackENS_14default_deleteIS3_EENS_9allocatorIS3_EEE13__get_deleterERKSt9type_info, symObjAddr: 0x264C, symBinAddr: 0xC9D8, symSize: 0x38 }
  - { offset: 0x9A541, size: 0x8, addend: 0x0, symName: __ZNSt3__120__shared_ptr_pointerIPN8facebook5react16InstanceCallbackENS_14default_deleteIS3_EENS_9allocatorIS3_EEE21__on_zero_shared_weakEv, symObjAddr: 0x2684, symBinAddr: 0xCA10, symSize: 0x4 }
  - { offset: 0x9A574, size: 0x8, addend: 0x0, symName: __ZNSt3__120__shared_ptr_pointerIPN8facebook5react16InstanceCallbackENS_14default_deleteIS3_EENS_9allocatorIS3_EEE21__on_zero_shared_weakEv, symObjAddr: 0x2684, symBinAddr: 0xCA10, symSize: 0x4 }
  - { offset: 0x9A595, size: 0x8, addend: 0x0, symName: __ZNSt3__120__shared_ptr_pointerIPN8facebook5react16InstanceCallbackENS_14default_deleteIS3_EENS_9allocatorIS3_EEE21__on_zero_shared_weakEv, symObjAddr: 0x2684, symBinAddr: 0xCA10, symSize: 0x4 }
  - { offset: 0x9A5C8, size: 0x8, addend: 0x0, symName: __ZNSt3__120__shared_ptr_pointerIPN8facebook5react16InstanceCallbackENS_14default_deleteIS3_EENS_9allocatorIS3_EEE21__on_zero_shared_weakEv, symObjAddr: 0x2684, symBinAddr: 0xCA10, symSize: 0x4 }
  - { offset: 0x9A644, size: 0x8, addend: 0x0, symName: '__ZNSt3__110__function6__funcIZN8facebook5react8Instance16initializeBridgeENS_10unique_ptrINS3_16InstanceCallbackENS_14default_deleteIS6_EEEENS_10shared_ptrINS3_17JSExecutorFactoryEEENSA_INS3_18MessageQueueThreadEEENSA_INS3_14ModuleRegistryEEEPNS3_18jsinspector_modern10HostTargetEE3$_0NS_9allocatorISK_EEFvvEED1Ev', symObjAddr: 0x2688, symBinAddr: 0xCA14, symSize: 0x30 }
  - { offset: 0x9A742, size: 0x8, addend: 0x0, symName: '__ZNSt3__110__function6__funcIZN8facebook5react8Instance16initializeBridgeENS_10unique_ptrINS3_16InstanceCallbackENS_14default_deleteIS6_EEEENS_10shared_ptrINS3_17JSExecutorFactoryEEENSA_INS3_18MessageQueueThreadEEENSA_INS3_14ModuleRegistryEEEPNS3_18jsinspector_modern10HostTargetEE3$_0NS_9allocatorISK_EEFvvEED0Ev', symObjAddr: 0x26B8, symBinAddr: 0xCA44, symSize: 0x30 }
  - { offset: 0x9A956, size: 0x8, addend: 0x0, symName: '__ZNKSt3__110__function6__funcIZN8facebook5react8Instance16initializeBridgeENS_10unique_ptrINS3_16InstanceCallbackENS_14default_deleteIS6_EEEENS_10shared_ptrINS3_17JSExecutorFactoryEEENSA_INS3_18MessageQueueThreadEEENSA_INS3_14ModuleRegistryEEEPNS3_18jsinspector_modern10HostTargetEE3$_0NS_9allocatorISK_EEFvvEE7__cloneEv', symObjAddr: 0x26E8, symBinAddr: 0xCA74, symSize: 0x58 }
  - { offset: 0x9AC5E, size: 0x8, addend: 0x0, symName: '__ZNKSt3__110__function6__funcIZN8facebook5react8Instance16initializeBridgeENS_10unique_ptrINS3_16InstanceCallbackENS_14default_deleteIS6_EEEENS_10shared_ptrINS3_17JSExecutorFactoryEEENSA_INS3_18MessageQueueThreadEEENSA_INS3_14ModuleRegistryEEEPNS3_18jsinspector_modern10HostTargetEE3$_0NS_9allocatorISK_EEFvvEE7__cloneEPNS0_6__baseISN_EE', symObjAddr: 0x2740, symBinAddr: 0xCACC, symSize: 0x38 }
  - { offset: 0x9AC94, size: 0x8, addend: 0x0, symName: '__ZNKSt3__110__function6__funcIZN8facebook5react8Instance16initializeBridgeENS_10unique_ptrINS3_16InstanceCallbackENS_14default_deleteIS6_EEEENS_10shared_ptrINS3_17JSExecutorFactoryEEENSA_INS3_18MessageQueueThreadEEENSA_INS3_14ModuleRegistryEEEPNS3_18jsinspector_modern10HostTargetEE3$_0NS_9allocatorISK_EEFvvEE7__cloneEPNS0_6__baseISN_EE', symObjAddr: 0x2740, symBinAddr: 0xCACC, symSize: 0x38 }
  - { offset: 0x9ACC2, size: 0x8, addend: 0x0, symName: '__ZNKSt3__110__function6__funcIZN8facebook5react8Instance16initializeBridgeENS_10unique_ptrINS3_16InstanceCallbackENS_14default_deleteIS6_EEEENS_10shared_ptrINS3_17JSExecutorFactoryEEENSA_INS3_18MessageQueueThreadEEENSA_INS3_14ModuleRegistryEEEPNS3_18jsinspector_modern10HostTargetEE3$_0NS_9allocatorISK_EEFvvEE7__cloneEPNS0_6__baseISN_EE', symObjAddr: 0x2740, symBinAddr: 0xCACC, symSize: 0x38 }
  - { offset: 0x9AE5D, size: 0x8, addend: 0x0, symName: '__ZNSt3__110__function6__funcIZN8facebook5react8Instance16initializeBridgeENS_10unique_ptrINS3_16InstanceCallbackENS_14default_deleteIS6_EEEENS_10shared_ptrINS3_17JSExecutorFactoryEEENSA_INS3_18MessageQueueThreadEEENSA_INS3_14ModuleRegistryEEEPNS3_18jsinspector_modern10HostTargetEE3$_0NS_9allocatorISK_EEFvvEE7destroyEv', symObjAddr: 0x2778, symBinAddr: 0xCB04, symSize: 0x8 }
  - { offset: 0x9AE86, size: 0x8, addend: 0x0, symName: '__ZNSt3__110__function6__funcIZN8facebook5react8Instance16initializeBridgeENS_10unique_ptrINS3_16InstanceCallbackENS_14default_deleteIS6_EEEENS_10shared_ptrINS3_17JSExecutorFactoryEEENSA_INS3_18MessageQueueThreadEEENSA_INS3_14ModuleRegistryEEEPNS3_18jsinspector_modern10HostTargetEE3$_0NS_9allocatorISK_EEFvvEE7destroyEv', symObjAddr: 0x2778, symBinAddr: 0xCB04, symSize: 0x8 }
  - { offset: 0x9AEA4, size: 0x8, addend: 0x0, symName: '__ZNSt3__110__function6__funcIZN8facebook5react8Instance16initializeBridgeENS_10unique_ptrINS3_16InstanceCallbackENS_14default_deleteIS6_EEEENS_10shared_ptrINS3_17JSExecutorFactoryEEENSA_INS3_18MessageQueueThreadEEENSA_INS3_14ModuleRegistryEEEPNS3_18jsinspector_modern10HostTargetEE3$_0NS_9allocatorISK_EEFvvEE7destroyEv', symObjAddr: 0x2778, symBinAddr: 0xCB04, symSize: 0x8 }
  - { offset: 0x9AEC1, size: 0x8, addend: 0x0, symName: '__ZNSt3__110__function6__funcIZN8facebook5react8Instance16initializeBridgeENS_10unique_ptrINS3_16InstanceCallbackENS_14default_deleteIS6_EEEENS_10shared_ptrINS3_17JSExecutorFactoryEEENSA_INS3_18MessageQueueThreadEEENSA_INS3_14ModuleRegistryEEEPNS3_18jsinspector_modern10HostTargetEE3$_0NS_9allocatorISK_EEFvvEE7destroyEv', symObjAddr: 0x2778, symBinAddr: 0xCB04, symSize: 0x8 }
  - { offset: 0x9AF33, size: 0x8, addend: 0x0, symName: '__ZNSt3__110__function6__funcIZN8facebook5react8Instance16initializeBridgeENS_10unique_ptrINS3_16InstanceCallbackENS_14default_deleteIS6_EEEENS_10shared_ptrINS3_17JSExecutorFactoryEEENSA_INS3_18MessageQueueThreadEEENSA_INS3_14ModuleRegistryEEEPNS3_18jsinspector_modern10HostTargetEE3$_0NS_9allocatorISK_EEFvvEE18destroy_deallocateEv', symObjAddr: 0x2780, symBinAddr: 0xCB0C, symSize: 0x28 }
  - { offset: 0x9B5FB, size: 0x8, addend: 0x0, symName: '__ZNSt3__110__function6__funcIZN8facebook5react8Instance16initializeBridgeENS_10unique_ptrINS3_16InstanceCallbackENS_14default_deleteIS6_EEEENS_10shared_ptrINS3_17JSExecutorFactoryEEENSA_INS3_18MessageQueueThreadEEENSA_INS3_14ModuleRegistryEEEPNS3_18jsinspector_modern10HostTargetEE3$_0NS_9allocatorISK_EEFvvEEclEv', symObjAddr: 0x27A8, symBinAddr: 0xCB34, symSize: 0x314 }
  - { offset: 0x9BFED, size: 0x8, addend: 0x0, symName: __ZN8facebook5react18jsinspector_modern22EnableExecutorFromThisINS1_10HostTargetEE16executorFromThisEv, symObjAddr: 0x2B68, symBinAddr: 0xCE90, symSize: 0x12C }
  - { offset: 0x9C2D4, size: 0x8, addend: 0x0, symName: '__ZNKSt3__110__function6__funcIZN8facebook5react8Instance16initializeBridgeENS_10unique_ptrINS3_16InstanceCallbackENS_14default_deleteIS6_EEEENS_10shared_ptrINS3_17JSExecutorFactoryEEENSA_INS3_18MessageQueueThreadEEENSA_INS3_14ModuleRegistryEEEPNS3_18jsinspector_modern10HostTargetEE3$_0NS_9allocatorISK_EEFvvEE6targetERKSt9type_info', symObjAddr: 0x2ABC, symBinAddr: 0xCE48, symSize: 0x3C }
  - { offset: 0x9C321, size: 0x8, addend: 0x0, symName: '__ZNKSt3__110__function6__funcIZN8facebook5react8Instance16initializeBridgeENS_10unique_ptrINS3_16InstanceCallbackENS_14default_deleteIS6_EEEENS_10shared_ptrINS3_17JSExecutorFactoryEEENSA_INS3_18MessageQueueThreadEEENSA_INS3_14ModuleRegistryEEEPNS3_18jsinspector_modern10HostTargetEE3$_0NS_9allocatorISK_EEFvvEE11target_typeEv', symObjAddr: 0x2AF8, symBinAddr: 0xCE84, symSize: 0xC }
  - { offset: 0x9C52E, size: 0x8, addend: 0x0, symName: __ZNSt3__110shared_ptrIN8facebook5react18jsinspector_modern10HostTargetEEC2B8ne200100IS4_Li0EEERKNS_8weak_ptrIT_EE, symObjAddr: 0x3A5C, symBinAddr: 0xDC6C, symSize: 0x40 }
  - { offset: 0x9C56C, size: 0x8, addend: 0x0, symName: __ZNSt3__120__throw_bad_weak_ptrB8ne200100Ev, symObjAddr: 0x3A9C, symBinAddr: 0xDCAC, symSize: 0x34 }
  - { offset: 0x9C888, size: 0x8, addend: 0x0, symName: __ZNSt3__120__shared_ptr_emplaceIN8facebook5react16NativeToJsBridgeENS_9allocatorIS3_EEEC2B8ne200100IJPNS2_17JSExecutorFactoryERNS_10shared_ptrINS2_14ModuleRegistryEEERNSA_INS2_18MessageQueueThreadEEERNSA_INS2_16InstanceCallbackEEEES5_Li0EEES5_DpOT_, symObjAddr: 0x2D0C, symBinAddr: 0xD034, symSize: 0x4C }
  - { offset: 0x9CAC9, size: 0x8, addend: 0x0, symName: __ZNSt3__120__shared_ptr_emplaceIN8facebook5react16NativeToJsBridgeENS_9allocatorIS3_EEED1Ev, symObjAddr: 0x2D58, symBinAddr: 0xD080, symSize: 0x14 }
  - { offset: 0x9CAEB, size: 0x8, addend: 0x0, symName: __ZNSt3__120__shared_ptr_emplaceIN8facebook5react16NativeToJsBridgeENS_9allocatorIS3_EEED1Ev, symObjAddr: 0x2D58, symBinAddr: 0xD080, symSize: 0x14 }
  - { offset: 0x9CB21, size: 0x8, addend: 0x0, symName: __ZNSt3__120__shared_ptr_emplaceIN8facebook5react16NativeToJsBridgeENS_9allocatorIS3_EEED0Ev, symObjAddr: 0x2D6C, symBinAddr: 0xD094, symSize: 0x24 }
  - { offset: 0x9CBEE, size: 0x8, addend: 0x0, symName: __ZNSt3__120__shared_ptr_emplaceIN8facebook5react16NativeToJsBridgeENS_9allocatorIS3_EEE16__on_zero_sharedEv, symObjAddr: 0x2D90, symBinAddr: 0xD0B8, symSize: 0xC }
  - { offset: 0x9CC17, size: 0x8, addend: 0x0, symName: __ZNSt3__120__shared_ptr_emplaceIN8facebook5react16NativeToJsBridgeENS_9allocatorIS3_EEE16__on_zero_sharedEv, symObjAddr: 0x2D90, symBinAddr: 0xD0B8, symSize: 0xC }
  - { offset: 0x9CC34, size: 0x8, addend: 0x0, symName: __ZNSt3__120__shared_ptr_emplaceIN8facebook5react16NativeToJsBridgeENS_9allocatorIS3_EEE16__on_zero_sharedEv, symObjAddr: 0x2D90, symBinAddr: 0xD0B8, symSize: 0xC }
  - { offset: 0x9CC51, size: 0x8, addend: 0x0, symName: __ZNSt3__120__shared_ptr_emplaceIN8facebook5react16NativeToJsBridgeENS_9allocatorIS3_EEE16__on_zero_sharedEv, symObjAddr: 0x2D90, symBinAddr: 0xD0B8, symSize: 0xC }
  - { offset: 0x9CC7C, size: 0x8, addend: 0x0, symName: __ZNSt3__120__shared_ptr_emplaceIN8facebook5react16NativeToJsBridgeENS_9allocatorIS3_EEE21__on_zero_shared_weakEv, symObjAddr: 0x2D9C, symBinAddr: 0xD0C4, symSize: 0x4 }
  - { offset: 0x9CCAF, size: 0x8, addend: 0x0, symName: __ZNSt3__120__shared_ptr_emplaceIN8facebook5react16NativeToJsBridgeENS_9allocatorIS3_EEE21__on_zero_shared_weakEv, symObjAddr: 0x2D9C, symBinAddr: 0xD0C4, symSize: 0x4 }
  - { offset: 0x9CCD0, size: 0x8, addend: 0x0, symName: __ZNSt3__120__shared_ptr_emplaceIN8facebook5react16NativeToJsBridgeENS_9allocatorIS3_EEE21__on_zero_shared_weakEv, symObjAddr: 0x2D9C, symBinAddr: 0xD0C4, symSize: 0x4 }
  - { offset: 0x9CCF2, size: 0x8, addend: 0x0, symName: __ZNSt3__120__shared_ptr_emplaceIN8facebook5react16NativeToJsBridgeENS_9allocatorIS3_EEE21__on_zero_shared_weakEv, symObjAddr: 0x2D9C, symBinAddr: 0xD0C4, symSize: 0x4 }
  - { offset: 0x9CD25, size: 0x8, addend: 0x0, symName: __ZNSt3__120__shared_ptr_emplaceIN8facebook5react16NativeToJsBridgeENS_9allocatorIS3_EEE21__on_zero_shared_weakEv, symObjAddr: 0x2D9C, symBinAddr: 0xD0C4, symSize: 0x4 }
  - { offset: 0x9CF4B, size: 0x8, addend: 0x0, symName: __ZNSt3__110__function12__value_funcIFvONS_8functionIFvRN8facebook5react18jsinspector_modern10HostTargetEEEEEEC1B8ne200100IZNS5_18makeScopedExecutorIS6_EENS2_IFvONS2_IFvRT_EEEEEENS_10shared_ptrISF_EENS2_IFvONS2_IFvvEEEEEEEUlOSF_E_Li0EEEST_, symObjAddr: 0x304C, symBinAddr: 0xD374, symSize: 0x68 }
  - { offset: 0x9D1CF, size: 0x8, addend: 0x0, symName: __ZZN8facebook5react18jsinspector_modern18makeScopedExecutorINS1_10HostTargetEEENSt3__18functionIFvONS5_IFvRT_EEEEEENS4_10shared_ptrIS6_EENS5_IFvONS5_IFvvEEEEEEENUlOS6_E_D1Ev, symObjAddr: 0x2FF4, symBinAddr: 0xD31C, symSize: 0x58 }
  - { offset: 0x9D5CC, size: 0x8, addend: 0x0, symName: __ZNSt3__110__function12__value_funcIFvONS_8functionIFvvEEEEEC2B8ne200100EOS7_, symObjAddr: 0x328C, symBinAddr: 0xD5B4, symSize: 0x64 }
  - { offset: 0x9D670, size: 0x8, addend: 0x0, symName: __ZNSt3__110__function6__funcIZN8facebook5react18jsinspector_modern18makeScopedExecutorINS4_10HostTargetEEENS_8functionIFvONS7_IFvRT_EEEEEENS_10shared_ptrIS8_EENS7_IFvONS7_IFvvEEEEEEEUlOS8_E_NS_9allocatorISN_EEFvONS7_IFvRS6_EEEEED1Ev, symObjAddr: 0x30B4, symBinAddr: 0xD3DC, symSize: 0x68 }
  - { offset: 0x9D808, size: 0x8, addend: 0x0, symName: __ZNSt3__110__function6__funcIZN8facebook5react18jsinspector_modern18makeScopedExecutorINS4_10HostTargetEEENS_8functionIFvONS7_IFvRT_EEEEEENS_10shared_ptrIS8_EENS7_IFvONS7_IFvvEEEEEEEUlOS8_E_NS_9allocatorISN_EEFvONS7_IFvRS6_EEEEED0Ev, symObjAddr: 0x311C, symBinAddr: 0xD444, symSize: 0x68 }
  - { offset: 0x9DB65, size: 0x8, addend: 0x0, symName: __ZNKSt3__110__function6__funcIZN8facebook5react18jsinspector_modern18makeScopedExecutorINS4_10HostTargetEEENS_8functionIFvONS7_IFvRT_EEEEEENS_10shared_ptrIS8_EENS7_IFvONS7_IFvvEEEEEEEUlOS8_E_NS_9allocatorISN_EEFvONS7_IFvRS6_EEEEE7__cloneEv, symObjAddr: 0x3184, symBinAddr: 0xD4AC, symSize: 0x64 }
  - { offset: 0x9DD76, size: 0x8, addend: 0x0, symName: __ZNSt3__110__function12__alloc_funcIZN8facebook5react18jsinspector_modern18makeScopedExecutorINS4_10HostTargetEEENS_8functionIFvONS7_IFvRT_EEEEEENS_10shared_ptrIS8_EENS7_IFvONS7_IFvvEEEEEEEUlOS8_E_NS_9allocatorISN_EEFvONS7_IFvRS6_EEEEEC2B8ne200100ERKSN_OSP_, symObjAddr: 0x32F0, symBinAddr: 0xD618, symSize: 0x64 }
  - { offset: 0x9DFA6, size: 0x8, addend: 0x0, symName: __ZNKSt3__110__function6__funcIZN8facebook5react18jsinspector_modern18makeScopedExecutorINS4_10HostTargetEEENS_8functionIFvONS7_IFvRT_EEEEEENS_10shared_ptrIS8_EENS7_IFvONS7_IFvvEEEEEEEUlOS8_E_NS_9allocatorISN_EEFvONS7_IFvRS6_EEEEE7__cloneEPNS0_6__baseISU_EE, symObjAddr: 0x31E8, symBinAddr: 0xD510, symSize: 0x24 }
  - { offset: 0x9E039, size: 0x8, addend: 0x0, symName: __ZNSt3__110__function12__alloc_funcIZN8facebook5react18jsinspector_modern18makeScopedExecutorINS4_10HostTargetEEENS_8functionIFvONS7_IFvRT_EEEEEENS_10shared_ptrIS8_EENS7_IFvONS7_IFvvEEEEEEEUlOS8_E_NS_9allocatorISN_EEFvONS7_IFvRS6_EEEEEC2B8ne200100ERKSN_RKSP_, symObjAddr: 0x3354, symBinAddr: 0xD67C, symSize: 0x64 }
  - { offset: 0x9E1D1, size: 0x8, addend: 0x0, symName: __ZNSt3__110__function6__funcIZN8facebook5react18jsinspector_modern18makeScopedExecutorINS4_10HostTargetEEENS_8functionIFvONS7_IFvRT_EEEEEENS_10shared_ptrIS8_EENS7_IFvONS7_IFvvEEEEEEEUlOS8_E_NS_9allocatorISN_EEFvONS7_IFvRS6_EEEEE7destroyEv, symObjAddr: 0x320C, symBinAddr: 0xD534, symSize: 0x8 }
  - { offset: 0x9E206, size: 0x8, addend: 0x0, symName: __ZNSt3__110__function12__alloc_funcIZN8facebook5react18jsinspector_modern18makeScopedExecutorINS4_10HostTargetEEENS_8functionIFvONS7_IFvRT_EEEEEENS_10shared_ptrIS8_EENS7_IFvONS7_IFvvEEEEEEEUlOS8_E_NS_9allocatorISN_EEFvONS7_IFvRS6_EEEEE7destroyB8ne200100Ev, symObjAddr: 0x33B8, symBinAddr: 0xD6E0, symSize: 0x5C }
  - { offset: 0x9E32C, size: 0x8, addend: 0x0, symName: __ZNSt3__110__function6__funcIZN8facebook5react18jsinspector_modern18makeScopedExecutorINS4_10HostTargetEEENS_8functionIFvONS7_IFvRT_EEEEEENS_10shared_ptrIS8_EENS7_IFvONS7_IFvvEEEEEEEUlOS8_E_NS_9allocatorISN_EEFvONS7_IFvRS6_EEEEE18destroy_deallocateEv, symObjAddr: 0x3214, symBinAddr: 0xD53C, symSize: 0x28 }
  - { offset: 0x9E447, size: 0x8, addend: 0x0, symName: __ZNSt3__110__function6__funcIZN8facebook5react18jsinspector_modern18makeScopedExecutorINS4_10HostTargetEEENS_8functionIFvONS7_IFvRT_EEEEEENS_10shared_ptrIS8_EENS7_IFvONS7_IFvvEEEEEEEUlOS8_E_NS_9allocatorISN_EEFvONS7_IFvRS6_EEEEEclEST_, symObjAddr: 0x323C, symBinAddr: 0xD564, symSize: 0x8 }
  - { offset: 0x9E505, size: 0x8, addend: 0x0, symName: __ZNKSt3__110__function6__funcIZN8facebook5react18jsinspector_modern18makeScopedExecutorINS4_10HostTargetEEENS_8functionIFvONS7_IFvRT_EEEEEENS_10shared_ptrIS8_EENS7_IFvONS7_IFvvEEEEEEEUlOS8_E_NS_9allocatorISN_EEFvONS7_IFvRS6_EEEEE6targetERKSt9type_info, symObjAddr: 0x3244, symBinAddr: 0xD56C, symSize: 0x3C }
  - { offset: 0x9E552, size: 0x8, addend: 0x0, symName: __ZNKSt3__110__function6__funcIZN8facebook5react18jsinspector_modern18makeScopedExecutorINS4_10HostTargetEEENS_8functionIFvONS7_IFvRT_EEEEEENS_10shared_ptrIS8_EENS7_IFvONS7_IFvvEEEEEEEUlOS8_E_NS_9allocatorISN_EEFvONS7_IFvRS6_EEEEE11target_typeEv, symObjAddr: 0x3280, symBinAddr: 0xD5A8, symSize: 0xC }
  - { offset: 0x9E9E2, size: 0x8, addend: 0x0, symName: __ZNSt3__110__function12__value_funcIFvRN8facebook5react18jsinspector_modern10HostTargetEEEC2B8ne200100EOS8_, symObjAddr: 0x35F4, symBinAddr: 0xD8C4, symSize: 0x64 }
  - { offset: 0x9EB16, size: 0x8, addend: 0x0, symName: __ZNSt3__110__function6__funcIZZN8facebook5react18jsinspector_modern18makeScopedExecutorINS4_10HostTargetEEENS_8functionIFvONS7_IFvRT_EEEEEENS_10shared_ptrIS8_EENS7_IFvONS7_IFvvEEEEEEENKUlOS8_E_clINS7_IFvRS6_EEEEEDaSM_EUlvE_NS_9allocatorIST_EESH_ED1Ev, symObjAddr: 0x3658, symBinAddr: 0xD928, symSize: 0x64 }
  - { offset: 0x9ECAE, size: 0x8, addend: 0x0, symName: __ZNSt3__110__function6__funcIZZN8facebook5react18jsinspector_modern18makeScopedExecutorINS4_10HostTargetEEENS_8functionIFvONS7_IFvRT_EEEEEENS_10shared_ptrIS8_EENS7_IFvONS7_IFvvEEEEEEENKUlOS8_E_clINS7_IFvRS6_EEEEEDaSM_EUlvE_NS_9allocatorIST_EESH_ED0Ev, symObjAddr: 0x36BC, symBinAddr: 0xD98C, symSize: 0x64 }
  - { offset: 0x9F00B, size: 0x8, addend: 0x0, symName: __ZNKSt3__110__function6__funcIZZN8facebook5react18jsinspector_modern18makeScopedExecutorINS4_10HostTargetEEENS_8functionIFvONS7_IFvRT_EEEEEENS_10shared_ptrIS8_EENS7_IFvONS7_IFvvEEEEEEENKUlOS8_E_clINS7_IFvRS6_EEEEEDaSM_EUlvE_NS_9allocatorIST_EESH_E7__cloneEv, symObjAddr: 0x3720, symBinAddr: 0xD9F0, symSize: 0x60 }
  - { offset: 0x9F21C, size: 0x8, addend: 0x0, symName: __ZNSt3__110__function12__alloc_funcIZZN8facebook5react18jsinspector_modern18makeScopedExecutorINS4_10HostTargetEEENS_8functionIFvONS7_IFvRT_EEEEEENS_10shared_ptrIS8_EENS7_IFvONS7_IFvvEEEEEEENKUlOS8_E_clINS7_IFvRS6_EEEEEDaSM_EUlvE_NS_9allocatorIST_EESH_EC2B8ne200100ERKST_OSV_, symObjAddr: 0x3820, symBinAddr: 0xDAF0, symSize: 0x64 }
  - { offset: 0x9F44C, size: 0x8, addend: 0x0, symName: __ZNKSt3__110__function6__funcIZZN8facebook5react18jsinspector_modern18makeScopedExecutorINS4_10HostTargetEEENS_8functionIFvONS7_IFvRT_EEEEEENS_10shared_ptrIS8_EENS7_IFvONS7_IFvvEEEEEEENKUlOS8_E_clINS7_IFvRS6_EEEEEDaSM_EUlvE_NS_9allocatorIST_EESH_E7__cloneEPNS0_6__baseISH_EE, symObjAddr: 0x3780, symBinAddr: 0xDA50, symSize: 0x20 }
  - { offset: 0x9F4DF, size: 0x8, addend: 0x0, symName: __ZNSt3__110__function12__alloc_funcIZZN8facebook5react18jsinspector_modern18makeScopedExecutorINS4_10HostTargetEEENS_8functionIFvONS7_IFvRT_EEEEEENS_10shared_ptrIS8_EENS7_IFvONS7_IFvvEEEEEEENKUlOS8_E_clINS7_IFvRS6_EEEEEDaSM_EUlvE_NS_9allocatorIST_EESH_EC2B8ne200100ERKST_RKSV_, symObjAddr: 0x38E8, symBinAddr: 0xDB54, symSize: 0x64 }
  - { offset: 0x9F677, size: 0x8, addend: 0x0, symName: __ZNSt3__110__function6__funcIZZN8facebook5react18jsinspector_modern18makeScopedExecutorINS4_10HostTargetEEENS_8functionIFvONS7_IFvRT_EEEEEENS_10shared_ptrIS8_EENS7_IFvONS7_IFvvEEEEEEENKUlOS8_E_clINS7_IFvRS6_EEEEEDaSM_EUlvE_NS_9allocatorIST_EESH_E7destroyEv, symObjAddr: 0x37A0, symBinAddr: 0xDA70, symSize: 0x8 }
  - { offset: 0x9F750, size: 0x8, addend: 0x0, symName: __ZNSt3__110__function6__funcIZZN8facebook5react18jsinspector_modern18makeScopedExecutorINS4_10HostTargetEEENS_8functionIFvONS7_IFvRT_EEEEEENS_10shared_ptrIS8_EENS7_IFvONS7_IFvvEEEEEEENKUlOS8_E_clINS7_IFvRS6_EEEEEDaSM_EUlvE_NS_9allocatorIST_EESH_E18destroy_deallocateEv, symObjAddr: 0x37A8, symBinAddr: 0xDA78, symSize: 0x28 }
  - { offset: 0x9F832, size: 0x8, addend: 0x0, symName: __ZNSt3__110__function6__funcIZZN8facebook5react18jsinspector_modern18makeScopedExecutorINS4_10HostTargetEEENS_8functionIFvONS7_IFvRT_EEEEEENS_10shared_ptrIS8_EENS7_IFvONS7_IFvvEEEEEEENKUlOS8_E_clINS7_IFvRS6_EEEEEDaSM_EUlvE_NS_9allocatorIST_EESH_EclEv, symObjAddr: 0x37D0, symBinAddr: 0xDAA0, symSize: 0x8 }
  - { offset: 0x9F892, size: 0x8, addend: 0x0, symName: __ZNSt3__128__invoke_void_return_wrapperIvLb1EE6__callB8ne200100IJRZZN8facebook5react18jsinspector_modern18makeScopedExecutorINS5_10HostTargetEEENS_8functionIFvONS8_IFvRT_EEEEEENS_10shared_ptrIS9_EENS8_IFvONS8_IFvvEEEEEEENKUlOS9_E_clINS8_IFvRS7_EEEEEDaSN_EUlvE_EEEvDpOT_, symObjAddr: 0x39A8, symBinAddr: 0xDBB8, symSize: 0xB4 }
  - { offset: 0x9FA33, size: 0x8, addend: 0x0, symName: __ZNKSt3__110__function6__funcIZZN8facebook5react18jsinspector_modern18makeScopedExecutorINS4_10HostTargetEEENS_8functionIFvONS7_IFvRT_EEEEEENS_10shared_ptrIS8_EENS7_IFvONS7_IFvvEEEEEEENKUlOS8_E_clINS7_IFvRS6_EEEEEDaSM_EUlvE_NS_9allocatorIST_EESH_E6targetERKSt9type_info, symObjAddr: 0x37D8, symBinAddr: 0xDAA8, symSize: 0x3C }
  - { offset: 0x9FA80, size: 0x8, addend: 0x0, symName: __ZNKSt3__110__function6__funcIZZN8facebook5react18jsinspector_modern18makeScopedExecutorINS4_10HostTargetEEENS_8functionIFvONS7_IFvRT_EEEEEENS_10shared_ptrIS8_EENS7_IFvONS7_IFvvEEEEEEENKUlOS8_E_clINS7_IFvRS6_EEEEEDaSM_EUlvE_NS_9allocatorIST_EESH_E11target_typeEv, symObjAddr: 0x3814, symBinAddr: 0xDAE4, symSize: 0xC }
  - { offset: 0x9FCA5, size: 0x8, addend: 0x0, symName: '__ZNSt3__110__function6__funcIZZN8facebook5react8Instance16initializeBridgeENS_10unique_ptrINS3_16InstanceCallbackENS_14default_deleteIS6_EEEENS_10shared_ptrINS3_17JSExecutorFactoryEEENSA_INS3_18MessageQueueThreadEEENSA_INS3_14ModuleRegistryEEEPNS3_18jsinspector_modern10HostTargetEEN3$_0clEvEUlRSI_E_NS_9allocatorISM_EEFvSL_EED1Ev', symObjAddr: 0x3B8C, symBinAddr: 0xDCE0, symSize: 0x4 }
  - { offset: 0x9FCD1, size: 0x8, addend: 0x0, symName: '__ZNSt3__110__function6__funcIZZN8facebook5react8Instance16initializeBridgeENS_10unique_ptrINS3_16InstanceCallbackENS_14default_deleteIS6_EEEENS_10shared_ptrINS3_17JSExecutorFactoryEEENSA_INS3_18MessageQueueThreadEEENSA_INS3_14ModuleRegistryEEEPNS3_18jsinspector_modern10HostTargetEEN3$_0clEvEUlRSI_E_NS_9allocatorISM_EEFvSL_EED0Ev', symObjAddr: 0x3B90, symBinAddr: 0xDCE4, symSize: 0x4 }
  - { offset: 0x9FDC5, size: 0x8, addend: 0x0, symName: '__ZNKSt3__110__function6__funcIZZN8facebook5react8Instance16initializeBridgeENS_10unique_ptrINS3_16InstanceCallbackENS_14default_deleteIS6_EEEENS_10shared_ptrINS3_17JSExecutorFactoryEEENSA_INS3_18MessageQueueThreadEEENSA_INS3_14ModuleRegistryEEEPNS3_18jsinspector_modern10HostTargetEEN3$_0clEvEUlRSI_E_NS_9allocatorISM_EEFvSL_EE7__cloneEv', symObjAddr: 0x3B94, symBinAddr: 0xDCE8, symSize: 0x40 }
  - { offset: 0x9FFD7, size: 0x8, addend: 0x0, symName: '__ZNKSt3__110__function6__funcIZZN8facebook5react8Instance16initializeBridgeENS_10unique_ptrINS3_16InstanceCallbackENS_14default_deleteIS6_EEEENS_10shared_ptrINS3_17JSExecutorFactoryEEENSA_INS3_18MessageQueueThreadEEENSA_INS3_14ModuleRegistryEEEPNS3_18jsinspector_modern10HostTargetEEN3$_0clEvEUlRSI_E_NS_9allocatorISM_EEFvSL_EE7__cloneEPNS0_6__baseISP_EE', symObjAddr: 0x3BD4, symBinAddr: 0xDD28, symSize: 0x20 }
  - { offset: 0xA000D, size: 0x8, addend: 0x0, symName: '__ZNKSt3__110__function6__funcIZZN8facebook5react8Instance16initializeBridgeENS_10unique_ptrINS3_16InstanceCallbackENS_14default_deleteIS6_EEEENS_10shared_ptrINS3_17JSExecutorFactoryEEENSA_INS3_18MessageQueueThreadEEENSA_INS3_14ModuleRegistryEEEPNS3_18jsinspector_modern10HostTargetEEN3$_0clEvEUlRSI_E_NS_9allocatorISM_EEFvSL_EE7__cloneEPNS0_6__baseISP_EE', symObjAddr: 0x3BD4, symBinAddr: 0xDD28, symSize: 0x20 }
  - { offset: 0xA003B, size: 0x8, addend: 0x0, symName: '__ZNKSt3__110__function6__funcIZZN8facebook5react8Instance16initializeBridgeENS_10unique_ptrINS3_16InstanceCallbackENS_14default_deleteIS6_EEEENS_10shared_ptrINS3_17JSExecutorFactoryEEENSA_INS3_18MessageQueueThreadEEENSA_INS3_14ModuleRegistryEEEPNS3_18jsinspector_modern10HostTargetEEN3$_0clEvEUlRSI_E_NS_9allocatorISM_EEFvSL_EE7__cloneEPNS0_6__baseISP_EE', symObjAddr: 0x3BD4, symBinAddr: 0xDD28, symSize: 0x20 }
  - { offset: 0xA00CA, size: 0x8, addend: 0x0, symName: '__ZNSt3__110__function6__funcIZZN8facebook5react8Instance16initializeBridgeENS_10unique_ptrINS3_16InstanceCallbackENS_14default_deleteIS6_EEEENS_10shared_ptrINS3_17JSExecutorFactoryEEENSA_INS3_18MessageQueueThreadEEENSA_INS3_14ModuleRegistryEEEPNS3_18jsinspector_modern10HostTargetEEN3$_0clEvEUlRSI_E_NS_9allocatorISM_EEFvSL_EE7destroyEv', symObjAddr: 0x3BF4, symBinAddr: 0xDD48, symSize: 0x4 }
  - { offset: 0xA011E, size: 0x8, addend: 0x0, symName: '__ZNSt3__110__function6__funcIZZN8facebook5react8Instance16initializeBridgeENS_10unique_ptrINS3_16InstanceCallbackENS_14default_deleteIS6_EEEENS_10shared_ptrINS3_17JSExecutorFactoryEEENSA_INS3_18MessageQueueThreadEEENSA_INS3_14ModuleRegistryEEEPNS3_18jsinspector_modern10HostTargetEEN3$_0clEvEUlRSI_E_NS_9allocatorISM_EEFvSL_EE18destroy_deallocateEv', symObjAddr: 0x3BF8, symBinAddr: 0xDD4C, symSize: 0x4 }
  - { offset: 0xA0152, size: 0x8, addend: 0x0, symName: '__ZNSt3__110__function6__funcIZZN8facebook5react8Instance16initializeBridgeENS_10unique_ptrINS3_16InstanceCallbackENS_14default_deleteIS6_EEEENS_10shared_ptrINS3_17JSExecutorFactoryEEENSA_INS3_18MessageQueueThreadEEENSA_INS3_14ModuleRegistryEEEPNS3_18jsinspector_modern10HostTargetEEN3$_0clEvEUlRSI_E_NS_9allocatorISM_EEFvSL_EE18destroy_deallocateEv', symObjAddr: 0x3BF8, symBinAddr: 0xDD4C, symSize: 0x4 }
  - { offset: 0xA0174, size: 0x8, addend: 0x0, symName: '__ZNSt3__110__function6__funcIZZN8facebook5react8Instance16initializeBridgeENS_10unique_ptrINS3_16InstanceCallbackENS_14default_deleteIS6_EEEENS_10shared_ptrINS3_17JSExecutorFactoryEEENSA_INS3_18MessageQueueThreadEEENSA_INS3_14ModuleRegistryEEEPNS3_18jsinspector_modern10HostTargetEEN3$_0clEvEUlRSI_E_NS_9allocatorISM_EEFvSL_EE18destroy_deallocateEv', symObjAddr: 0x3BF8, symBinAddr: 0xDD4C, symSize: 0x4 }
  - { offset: 0xA01A7, size: 0x8, addend: 0x0, symName: '__ZNSt3__110__function6__funcIZZN8facebook5react8Instance16initializeBridgeENS_10unique_ptrINS3_16InstanceCallbackENS_14default_deleteIS6_EEEENS_10shared_ptrINS3_17JSExecutorFactoryEEENSA_INS3_18MessageQueueThreadEEENSA_INS3_14ModuleRegistryEEEPNS3_18jsinspector_modern10HostTargetEEN3$_0clEvEUlRSI_E_NS_9allocatorISM_EEFvSL_EE18destroy_deallocateEv', symObjAddr: 0x3BF8, symBinAddr: 0xDD4C, symSize: 0x4 }
  - { offset: 0xA0602, size: 0x8, addend: 0x0, symName: '__ZNSt3__110__function6__funcIZZN8facebook5react8Instance16initializeBridgeENS_10unique_ptrINS3_16InstanceCallbackENS_14default_deleteIS6_EEEENS_10shared_ptrINS3_17JSExecutorFactoryEEENSA_INS3_18MessageQueueThreadEEENSA_INS3_14ModuleRegistryEEEPNS3_18jsinspector_modern10HostTargetEEN3$_0clEvEUlRSI_E_NS_9allocatorISM_EEFvSL_EEclESL_', symObjAddr: 0x3BFC, symBinAddr: 0xDD50, symSize: 0x200 }
  - { offset: 0xA0C45, size: 0x8, addend: 0x0, symName: '__ZNKSt3__110__function6__funcIZZN8facebook5react8Instance16initializeBridgeENS_10unique_ptrINS3_16InstanceCallbackENS_14default_deleteIS6_EEEENS_10shared_ptrINS3_17JSExecutorFactoryEEENSA_INS3_18MessageQueueThreadEEENSA_INS3_14ModuleRegistryEEEPNS3_18jsinspector_modern10HostTargetEEN3$_0clEvEUlRSI_E_NS_9allocatorISM_EEFvSL_EE6targetERKSt9type_info', symObjAddr: 0x3DFC, symBinAddr: 0xDF50, symSize: 0x3C }
  - { offset: 0xA0C92, size: 0x8, addend: 0x0, symName: '__ZNKSt3__110__function6__funcIZZN8facebook5react8Instance16initializeBridgeENS_10unique_ptrINS3_16InstanceCallbackENS_14default_deleteIS6_EEEENS_10shared_ptrINS3_17JSExecutorFactoryEEENSA_INS3_18MessageQueueThreadEEENSA_INS3_14ModuleRegistryEEEPNS3_18jsinspector_modern10HostTargetEEN3$_0clEvEUlRSI_E_NS_9allocatorISM_EEFvSL_EE11target_typeEv', symObjAddr: 0x3E38, symBinAddr: 0xDF8C, symSize: 0xC }
  - { offset: 0xA0CB5, size: 0x8, addend: 0x0, symName: '__ZNSt3__110__function6__funcIZZZN8facebook5react8Instance16initializeBridgeENS_10unique_ptrINS3_16InstanceCallbackENS_14default_deleteIS6_EEEENS_10shared_ptrINS3_17JSExecutorFactoryEEENSA_INS3_18MessageQueueThreadEEENSA_INS3_14ModuleRegistryEEEPNS3_18jsinspector_modern10HostTargetEEN3$_0clEvENKUlRSI_E_clESL_EUlT_E_NS_9allocatorISO_EEFvONS_8functionIFvRNS2_3jsi7RuntimeEEEEEED1Ev', symObjAddr: 0x3E44, symBinAddr: 0xDF98, symSize: 0x4 }
  - { offset: 0xA0CE1, size: 0x8, addend: 0x0, symName: '__ZNSt3__110__function6__funcIZZZN8facebook5react8Instance16initializeBridgeENS_10unique_ptrINS3_16InstanceCallbackENS_14default_deleteIS6_EEEENS_10shared_ptrINS3_17JSExecutorFactoryEEENSA_INS3_18MessageQueueThreadEEENSA_INS3_14ModuleRegistryEEEPNS3_18jsinspector_modern10HostTargetEEN3$_0clEvENKUlRSI_E_clESL_EUlT_E_NS_9allocatorISO_EEFvONS_8functionIFvRNS2_3jsi7RuntimeEEEEEED0Ev', symObjAddr: 0x3E48, symBinAddr: 0xDF9C, symSize: 0x4 }
  - { offset: 0xA0D9B, size: 0x8, addend: 0x0, symName: '__ZNKSt3__110__function6__funcIZZZN8facebook5react8Instance16initializeBridgeENS_10unique_ptrINS3_16InstanceCallbackENS_14default_deleteIS6_EEEENS_10shared_ptrINS3_17JSExecutorFactoryEEENSA_INS3_18MessageQueueThreadEEENSA_INS3_14ModuleRegistryEEEPNS3_18jsinspector_modern10HostTargetEEN3$_0clEvENKUlRSI_E_clESL_EUlT_E_NS_9allocatorISO_EEFvONS_8functionIFvRNS2_3jsi7RuntimeEEEEEE7__cloneEv', symObjAddr: 0x3E4C, symBinAddr: 0xDFA0, symSize: 0x24 }
  - { offset: 0xA0EE8, size: 0x8, addend: 0x0, symName: '__ZNKSt3__110__function6__funcIZZZN8facebook5react8Instance16initializeBridgeENS_10unique_ptrINS3_16InstanceCallbackENS_14default_deleteIS6_EEEENS_10shared_ptrINS3_17JSExecutorFactoryEEENSA_INS3_18MessageQueueThreadEEENSA_INS3_14ModuleRegistryEEEPNS3_18jsinspector_modern10HostTargetEEN3$_0clEvENKUlRSI_E_clESL_EUlT_E_NS_9allocatorISO_EEFvONS_8functionIFvRNS2_3jsi7RuntimeEEEEEE7__cloneEPNS0_6__baseISY_EE', symObjAddr: 0x3E70, symBinAddr: 0xDFC4, symSize: 0x10 }
  - { offset: 0xA0F1C, size: 0x8, addend: 0x0, symName: '__ZNKSt3__110__function6__funcIZZZN8facebook5react8Instance16initializeBridgeENS_10unique_ptrINS3_16InstanceCallbackENS_14default_deleteIS6_EEEENS_10shared_ptrINS3_17JSExecutorFactoryEEENSA_INS3_18MessageQueueThreadEEENSA_INS3_14ModuleRegistryEEEPNS3_18jsinspector_modern10HostTargetEEN3$_0clEvENKUlRSI_E_clESL_EUlT_E_NS_9allocatorISO_EEFvONS_8functionIFvRNS2_3jsi7RuntimeEEEEEE7__cloneEPNS0_6__baseISY_EE', symObjAddr: 0x3E70, symBinAddr: 0xDFC4, symSize: 0x10 }
  - { offset: 0xA0F38, size: 0x8, addend: 0x0, symName: '__ZNKSt3__110__function6__funcIZZZN8facebook5react8Instance16initializeBridgeENS_10unique_ptrINS3_16InstanceCallbackENS_14default_deleteIS6_EEEENS_10shared_ptrINS3_17JSExecutorFactoryEEENSA_INS3_18MessageQueueThreadEEENSA_INS3_14ModuleRegistryEEEPNS3_18jsinspector_modern10HostTargetEEN3$_0clEvENKUlRSI_E_clESL_EUlT_E_NS_9allocatorISO_EEFvONS_8functionIFvRNS2_3jsi7RuntimeEEEEEE7__cloneEPNS0_6__baseISY_EE', symObjAddr: 0x3E70, symBinAddr: 0xDFC4, symSize: 0x10 }
  - { offset: 0xA0F54, size: 0x8, addend: 0x0, symName: '__ZNSt3__110__function6__funcIZZZN8facebook5react8Instance16initializeBridgeENS_10unique_ptrINS3_16InstanceCallbackENS_14default_deleteIS6_EEEENS_10shared_ptrINS3_17JSExecutorFactoryEEENSA_INS3_18MessageQueueThreadEEENSA_INS3_14ModuleRegistryEEEPNS3_18jsinspector_modern10HostTargetEEN3$_0clEvENKUlRSI_E_clESL_EUlT_E_NS_9allocatorISO_EEFvONS_8functionIFvRNS2_3jsi7RuntimeEEEEEE7destroyEv', symObjAddr: 0x3E80, symBinAddr: 0xDFD4, symSize: 0x4 }
  - { offset: 0xA0FA8, size: 0x8, addend: 0x0, symName: '__ZNSt3__110__function6__funcIZZZN8facebook5react8Instance16initializeBridgeENS_10unique_ptrINS3_16InstanceCallbackENS_14default_deleteIS6_EEEENS_10shared_ptrINS3_17JSExecutorFactoryEEENSA_INS3_18MessageQueueThreadEEENSA_INS3_14ModuleRegistryEEEPNS3_18jsinspector_modern10HostTargetEEN3$_0clEvENKUlRSI_E_clESL_EUlT_E_NS_9allocatorISO_EEFvONS_8functionIFvRNS2_3jsi7RuntimeEEEEEE18destroy_deallocateEv', symObjAddr: 0x3E84, symBinAddr: 0xDFD8, symSize: 0x4 }
  - { offset: 0xA0FDC, size: 0x8, addend: 0x0, symName: '__ZNSt3__110__function6__funcIZZZN8facebook5react8Instance16initializeBridgeENS_10unique_ptrINS3_16InstanceCallbackENS_14default_deleteIS6_EEEENS_10shared_ptrINS3_17JSExecutorFactoryEEENSA_INS3_18MessageQueueThreadEEENSA_INS3_14ModuleRegistryEEEPNS3_18jsinspector_modern10HostTargetEEN3$_0clEvENKUlRSI_E_clESL_EUlT_E_NS_9allocatorISO_EEFvONS_8functionIFvRNS2_3jsi7RuntimeEEEEEE18destroy_deallocateEv', symObjAddr: 0x3E84, symBinAddr: 0xDFD8, symSize: 0x4 }
  - { offset: 0xA0FFE, size: 0x8, addend: 0x0, symName: '__ZNSt3__110__function6__funcIZZZN8facebook5react8Instance16initializeBridgeENS_10unique_ptrINS3_16InstanceCallbackENS_14default_deleteIS6_EEEENS_10shared_ptrINS3_17JSExecutorFactoryEEENSA_INS3_18MessageQueueThreadEEENSA_INS3_14ModuleRegistryEEEPNS3_18jsinspector_modern10HostTargetEEN3$_0clEvENKUlRSI_E_clESL_EUlT_E_NS_9allocatorISO_EEFvONS_8functionIFvRNS2_3jsi7RuntimeEEEEEE18destroy_deallocateEv', symObjAddr: 0x3E84, symBinAddr: 0xDFD8, symSize: 0x4 }
  - { offset: 0xA1030, size: 0x8, addend: 0x0, symName: '__ZNSt3__110__function6__funcIZZZN8facebook5react8Instance16initializeBridgeENS_10unique_ptrINS3_16InstanceCallbackENS_14default_deleteIS6_EEEENS_10shared_ptrINS3_17JSExecutorFactoryEEENSA_INS3_18MessageQueueThreadEEENSA_INS3_14ModuleRegistryEEEPNS3_18jsinspector_modern10HostTargetEEN3$_0clEvENKUlRSI_E_clESL_EUlT_E_NS_9allocatorISO_EEFvONS_8functionIFvRNS2_3jsi7RuntimeEEEEEE18destroy_deallocateEv', symObjAddr: 0x3E84, symBinAddr: 0xDFD8, symSize: 0x4 }
  - { offset: 0xA10AD, size: 0x8, addend: 0x0, symName: '__ZNSt3__110__function6__funcIZZZN8facebook5react8Instance16initializeBridgeENS_10unique_ptrINS3_16InstanceCallbackENS_14default_deleteIS6_EEEENS_10shared_ptrINS3_17JSExecutorFactoryEEENSA_INS3_18MessageQueueThreadEEENSA_INS3_14ModuleRegistryEEEPNS3_18jsinspector_modern10HostTargetEEN3$_0clEvENKUlRSI_E_clESL_EUlT_E_NS_9allocatorISO_EEFvONS_8functionIFvRNS2_3jsi7RuntimeEEEEEEclESX_', symObjAddr: 0x3E88, symBinAddr: 0xDFDC, symSize: 0x80 }
  - { offset: 0xA126D, size: 0x8, addend: 0x0, symName: '__ZNKSt3__110__function6__funcIZZZN8facebook5react8Instance16initializeBridgeENS_10unique_ptrINS3_16InstanceCallbackENS_14default_deleteIS6_EEEENS_10shared_ptrINS3_17JSExecutorFactoryEEENSA_INS3_18MessageQueueThreadEEENSA_INS3_14ModuleRegistryEEEPNS3_18jsinspector_modern10HostTargetEEN3$_0clEvENKUlRSI_E_clESL_EUlT_E_NS_9allocatorISO_EEFvONS_8functionIFvRNS2_3jsi7RuntimeEEEEEE6targetERKSt9type_info', symObjAddr: 0x3F08, symBinAddr: 0xE05C, symSize: 0x3C }
  - { offset: 0xA12BA, size: 0x8, addend: 0x0, symName: '__ZNKSt3__110__function6__funcIZZZN8facebook5react8Instance16initializeBridgeENS_10unique_ptrINS3_16InstanceCallbackENS_14default_deleteIS6_EEEENS_10shared_ptrINS3_17JSExecutorFactoryEEENSA_INS3_18MessageQueueThreadEEENSA_INS3_14ModuleRegistryEEEPNS3_18jsinspector_modern10HostTargetEEN3$_0clEvENKUlRSI_E_clESL_EUlT_E_NS_9allocatorISO_EEFvONS_8functionIFvRNS2_3jsi7RuntimeEEEEEE11target_typeEv', symObjAddr: 0x3F44, symBinAddr: 0xE098, symSize: 0xC }
  - { offset: 0xA17D3, size: 0x8, addend: 0x0, symName: __ZN8facebook5react8systrace8rendererIA10_cvE6renderERA10_Kc, symObjAddr: 0x43E0, symBinAddr: 0xE534, symSize: 0xE4 }
  - { offset: 0xA2075, size: 0x8, addend: 0x0, symName: __ZN8facebook5react12TraceSectionC2IJEEEPKcDpOT_, symObjAddr: 0x4D7C, symBinAddr: 0xE618, symSize: 0x17C }
  - { offset: 0xA32D8, size: 0x8, addend: 0x0, symName: '__ZNSt3__110__function6__funcIZN8facebook5react8Instance18getRuntimeExecutorEvE3$_0NS_9allocatorIS5_EEFvONS_8functionIFvRNS2_3jsi7RuntimeEEEEEED1Ev', symObjAddr: 0x4F5C, symBinAddr: 0xE7F8, symSize: 0x38 }
  - { offset: 0xA33EC, size: 0x8, addend: 0x0, symName: '__ZNSt3__110__function6__funcIZN8facebook5react8Instance18getRuntimeExecutorEvE3$_0NS_9allocatorIS5_EEFvONS_8functionIFvRNS2_3jsi7RuntimeEEEEEED0Ev', symObjAddr: 0x4F94, symBinAddr: 0xE830, symSize: 0x38 }
  - { offset: 0xA363E, size: 0x8, addend: 0x0, symName: '__ZNKSt3__110__function6__funcIZN8facebook5react8Instance18getRuntimeExecutorEvE3$_0NS_9allocatorIS5_EEFvONS_8functionIFvRNS2_3jsi7RuntimeEEEEEE7__cloneEv', symObjAddr: 0x4FCC, symBinAddr: 0xE868, symSize: 0x50 }
  - { offset: 0xA38CA, size: 0x8, addend: 0x0, symName: '__ZNKSt3__110__function6__funcIZN8facebook5react8Instance18getRuntimeExecutorEvE3$_0NS_9allocatorIS5_EEFvONS_8functionIFvRNS2_3jsi7RuntimeEEEEEE7__cloneEPNS0_6__baseISF_EE', symObjAddr: 0x501C, symBinAddr: 0xE8B8, symSize: 0x30 }
  - { offset: 0xA3900, size: 0x8, addend: 0x0, symName: '__ZNKSt3__110__function6__funcIZN8facebook5react8Instance18getRuntimeExecutorEvE3$_0NS_9allocatorIS5_EEFvONS_8functionIFvRNS2_3jsi7RuntimeEEEEEE7__cloneEPNS0_6__baseISF_EE', symObjAddr: 0x501C, symBinAddr: 0xE8B8, symSize: 0x30 }
  - { offset: 0xA392E, size: 0x8, addend: 0x0, symName: '__ZNKSt3__110__function6__funcIZN8facebook5react8Instance18getRuntimeExecutorEvE3$_0NS_9allocatorIS5_EEFvONS_8functionIFvRNS2_3jsi7RuntimeEEEEEE7__cloneEPNS0_6__baseISF_EE', symObjAddr: 0x501C, symBinAddr: 0xE8B8, symSize: 0x30 }
  - { offset: 0xA3A3B, size: 0x8, addend: 0x0, symName: '__ZNSt3__110__function6__funcIZN8facebook5react8Instance18getRuntimeExecutorEvE3$_0NS_9allocatorIS5_EEFvONS_8functionIFvRNS2_3jsi7RuntimeEEEEEE7destroyEv', symObjAddr: 0x504C, symBinAddr: 0xE8E8, symSize: 0x10 }
  - { offset: 0xA3A64, size: 0x8, addend: 0x0, symName: '__ZNSt3__110__function6__funcIZN8facebook5react8Instance18getRuntimeExecutorEvE3$_0NS_9allocatorIS5_EEFvONS_8functionIFvRNS2_3jsi7RuntimeEEEEEE7destroyEv', symObjAddr: 0x504C, symBinAddr: 0xE8E8, symSize: 0x10 }
  - { offset: 0xA3A82, size: 0x8, addend: 0x0, symName: '__ZNSt3__110__function6__funcIZN8facebook5react8Instance18getRuntimeExecutorEvE3$_0NS_9allocatorIS5_EEFvONS_8functionIFvRNS2_3jsi7RuntimeEEEEEE7destroyEv', symObjAddr: 0x504C, symBinAddr: 0xE8E8, symSize: 0x10 }
  - { offset: 0xA3A9F, size: 0x8, addend: 0x0, symName: '__ZNSt3__110__function6__funcIZN8facebook5react8Instance18getRuntimeExecutorEvE3$_0NS_9allocatorIS5_EEFvONS_8functionIFvRNS2_3jsi7RuntimeEEEEEE7destroyEv', symObjAddr: 0x504C, symBinAddr: 0xE8E8, symSize: 0x10 }
  - { offset: 0xA3ABD, size: 0x8, addend: 0x0, symName: '__ZNSt3__110__function6__funcIZN8facebook5react8Instance18getRuntimeExecutorEvE3$_0NS_9allocatorIS5_EEFvONS_8functionIFvRNS2_3jsi7RuntimeEEEEEE7destroyEv', symObjAddr: 0x504C, symBinAddr: 0xE8E8, symSize: 0x10 }
  - { offset: 0xA3ADB, size: 0x8, addend: 0x0, symName: '__ZNSt3__110__function6__funcIZN8facebook5react8Instance18getRuntimeExecutorEvE3$_0NS_9allocatorIS5_EEFvONS_8functionIFvRNS2_3jsi7RuntimeEEEEEE7destroyEv', symObjAddr: 0x504C, symBinAddr: 0xE8E8, symSize: 0x10 }
  - { offset: 0xA3B2D, size: 0x8, addend: 0x0, symName: '__ZNSt3__110__function6__funcIZN8facebook5react8Instance18getRuntimeExecutorEvE3$_0NS_9allocatorIS5_EEFvONS_8functionIFvRNS2_3jsi7RuntimeEEEEEE18destroy_deallocateEv', symObjAddr: 0x505C, symBinAddr: 0xE8F8, symSize: 0x2C }
  - { offset: 0xA401E, size: 0x8, addend: 0x0, symName: '__ZNSt3__110__function6__funcIZN8facebook5react8Instance18getRuntimeExecutorEvE3$_0NS_9allocatorIS5_EEFvONS_8functionIFvRNS2_3jsi7RuntimeEEEEEEclESE_', symObjAddr: 0x5088, symBinAddr: 0xE924, symSize: 0x184 }
  - { offset: 0xA46EB, size: 0x8, addend: 0x0, symName: '__ZNKSt3__110__function6__funcIZN8facebook5react8Instance18getRuntimeExecutorEvE3$_0NS_9allocatorIS5_EEFvONS_8functionIFvRNS2_3jsi7RuntimeEEEEEE6targetERKSt9type_info', symObjAddr: 0x520C, symBinAddr: 0xEAA8, symSize: 0x3C }
  - { offset: 0xA4738, size: 0x8, addend: 0x0, symName: '__ZNKSt3__110__function6__funcIZN8facebook5react8Instance18getRuntimeExecutorEvE3$_0NS_9allocatorIS5_EEFvONS_8functionIFvRNS2_3jsi7RuntimeEEEEEE11target_typeEv', symObjAddr: 0x5248, symBinAddr: 0xEAE4, symSize: 0xC }
  - { offset: 0xA47B0, size: 0x8, addend: 0x0, symName: '__ZNSt3__110__function6__funcIZZN8facebook5react8Instance18getRuntimeExecutorEvENK3$_0clEONS_8functionIFvRNS2_3jsi7RuntimeEEEEEUlPNS3_10JSExecutorEE_NS_9allocatorISF_EEFvSE_EED1Ev', symObjAddr: 0x5254, symBinAddr: 0xEAF0, symSize: 0x58 }
  - { offset: 0xA490D, size: 0x8, addend: 0x0, symName: '__ZNSt3__110__function6__funcIZZN8facebook5react8Instance18getRuntimeExecutorEvENK3$_0clEONS_8functionIFvRNS2_3jsi7RuntimeEEEEEUlPNS3_10JSExecutorEE_NS_9allocatorISF_EEFvSE_EED0Ev', symObjAddr: 0x52AC, symBinAddr: 0xEB48, symSize: 0x58 }
  - { offset: 0xA4D1C, size: 0x8, addend: 0x0, symName: '__ZNKSt3__110__function6__funcIZZN8facebook5react8Instance18getRuntimeExecutorEvENK3$_0clEONS_8functionIFvRNS2_3jsi7RuntimeEEEEEUlPNS3_10JSExecutorEE_NS_9allocatorISF_EEFvSE_EE7__cloneEv', symObjAddr: 0x5304, symBinAddr: 0xEBA0, symSize: 0x54 }
  - { offset: 0xA50C3, size: 0x8, addend: 0x0, symName: '__ZNKSt3__110__function6__funcIZZN8facebook5react8Instance18getRuntimeExecutorEvENK3$_0clEONS_8functionIFvRNS2_3jsi7RuntimeEEEEEUlPNS3_10JSExecutorEE_NS_9allocatorISF_EEFvSE_EE7__cloneEPNS0_6__baseISI_EE', symObjAddr: 0x5358, symBinAddr: 0xEBF4, symSize: 0x1C }
  - { offset: 0xA5218, size: 0x8, addend: 0x0, symName: '__ZNSt3__110__function6__funcIZZN8facebook5react8Instance18getRuntimeExecutorEvENK3$_0clEONS_8functionIFvRNS2_3jsi7RuntimeEEEEEUlPNS3_10JSExecutorEE_NS_9allocatorISF_EEFvSE_EE7destroyEv', symObjAddr: 0x5374, symBinAddr: 0xEC10, symSize: 0x30 }
  - { offset: 0xA5323, size: 0x8, addend: 0x0, symName: '__ZNSt3__110__function6__funcIZZN8facebook5react8Instance18getRuntimeExecutorEvENK3$_0clEONS_8functionIFvRNS2_3jsi7RuntimeEEEEEUlPNS3_10JSExecutorEE_NS_9allocatorISF_EEFvSE_EE18destroy_deallocateEv', symObjAddr: 0x53A4, symBinAddr: 0xEC40, symSize: 0x4C }
  - { offset: 0xA5607, size: 0x8, addend: 0x0, symName: '__ZNSt3__110__function6__funcIZZN8facebook5react8Instance18getRuntimeExecutorEvENK3$_0clEONS_8functionIFvRNS2_3jsi7RuntimeEEEEEUlPNS3_10JSExecutorEE_NS_9allocatorISF_EEFvSE_EEclEOSE_', symObjAddr: 0x53F0, symBinAddr: 0xEC8C, symSize: 0xB0 }
  - { offset: 0xA578F, size: 0x8, addend: 0x0, symName: '__ZNKSt3__110__function6__funcIZZN8facebook5react8Instance18getRuntimeExecutorEvENK3$_0clEONS_8functionIFvRNS2_3jsi7RuntimeEEEEEUlPNS3_10JSExecutorEE_NS_9allocatorISF_EEFvSE_EE6targetERKSt9type_info', symObjAddr: 0x54A0, symBinAddr: 0xED3C, symSize: 0x3C }
  - { offset: 0xA57DC, size: 0x8, addend: 0x0, symName: '__ZNKSt3__110__function6__funcIZZN8facebook5react8Instance18getRuntimeExecutorEvENK3$_0clEONS_8functionIFvRNS2_3jsi7RuntimeEEEEEUlPNS3_10JSExecutorEE_NS_9allocatorISF_EEFvSE_EE11target_typeEv', symObjAddr: 0x54DC, symBinAddr: 0xED78, symSize: 0xC }
  - { offset: 0xA5C50, size: 0x8, addend: 0x0, symName: '__ZNSt3__110__function6__funcIZN8facebook5react8Instance13JSCallInvoker13scheduleAsyncEONS_8functionIFvRNS2_3jsi7RuntimeEEEEE3$_0NS_9allocatorISD_EEFvPNS3_10JSExecutorEEED1Ev', symObjAddr: 0x5A08, symBinAddr: 0xF1E8, symSize: 0x58 }
  - { offset: 0xA5DAD, size: 0x8, addend: 0x0, symName: '__ZNSt3__110__function6__funcIZN8facebook5react8Instance13JSCallInvoker13scheduleAsyncEONS_8functionIFvRNS2_3jsi7RuntimeEEEEE3$_0NS_9allocatorISD_EEFvPNS3_10JSExecutorEEED0Ev', symObjAddr: 0x5A60, symBinAddr: 0xF240, symSize: 0x58 }
  - { offset: 0xA6143, size: 0x8, addend: 0x0, symName: '__ZNKSt3__110__function6__funcIZN8facebook5react8Instance13JSCallInvoker13scheduleAsyncEONS_8functionIFvRNS2_3jsi7RuntimeEEEEE3$_0NS_9allocatorISD_EEFvPNS3_10JSExecutorEEE7__cloneEv', symObjAddr: 0x5AB8, symBinAddr: 0xF298, symSize: 0x54 }
  - { offset: 0xA64A7, size: 0x8, addend: 0x0, symName: '__ZNKSt3__110__function6__funcIZN8facebook5react8Instance13JSCallInvoker13scheduleAsyncEONS_8functionIFvRNS2_3jsi7RuntimeEEEEE3$_0NS_9allocatorISD_EEFvPNS3_10JSExecutorEEE7__cloneEPNS0_6__baseISI_EE', symObjAddr: 0x5B0C, symBinAddr: 0xF2EC, symSize: 0x1C }
  - { offset: 0xA65FC, size: 0x8, addend: 0x0, symName: '__ZNSt3__110__function6__funcIZN8facebook5react8Instance13JSCallInvoker13scheduleAsyncEONS_8functionIFvRNS2_3jsi7RuntimeEEEEE3$_0NS_9allocatorISD_EEFvPNS3_10JSExecutorEEE7destroyEv', symObjAddr: 0x5B28, symBinAddr: 0xF308, symSize: 0x30 }
  - { offset: 0xA6707, size: 0x8, addend: 0x0, symName: '__ZNSt3__110__function6__funcIZN8facebook5react8Instance13JSCallInvoker13scheduleAsyncEONS_8functionIFvRNS2_3jsi7RuntimeEEEEE3$_0NS_9allocatorISD_EEFvPNS3_10JSExecutorEEE18destroy_deallocateEv', symObjAddr: 0x5B58, symBinAddr: 0xF338, symSize: 0x4C }
  - { offset: 0xA6936, size: 0x8, addend: 0x0, symName: '__ZNSt3__110__function6__funcIZN8facebook5react8Instance13JSCallInvoker13scheduleAsyncEONS_8functionIFvRNS2_3jsi7RuntimeEEEEE3$_0NS_9allocatorISD_EEFvPNS3_10JSExecutorEEEclEOSH_', symObjAddr: 0x5BA4, symBinAddr: 0xF384, symSize: 0x58 }
  - { offset: 0xA6AAA, size: 0x8, addend: 0x0, symName: '__ZNKSt3__110__function6__funcIZN8facebook5react8Instance13JSCallInvoker13scheduleAsyncEONS_8functionIFvRNS2_3jsi7RuntimeEEEEE3$_0NS_9allocatorISD_EEFvPNS3_10JSExecutorEEE6targetERKSt9type_info', symObjAddr: 0x5BFC, symBinAddr: 0xF3DC, symSize: 0x3C }
  - { offset: 0xA6AB5, size: 0x8, addend: 0x0, symName: '__ZNKSt3__110__function6__funcIZN8facebook5react8Instance13JSCallInvoker13scheduleAsyncEONS_8functionIFvRNS2_3jsi7RuntimeEEEEE3$_0NS_9allocatorISD_EEFvPNS3_10JSExecutorEEE6targetERKSt9type_info', symObjAddr: 0x5BFC, symBinAddr: 0xF3DC, symSize: 0x3C }
  - { offset: 0xA6B02, size: 0x8, addend: 0x0, symName: '__ZNKSt3__110__function6__funcIZN8facebook5react8Instance13JSCallInvoker13scheduleAsyncEONS_8functionIFvRNS2_3jsi7RuntimeEEEEE3$_0NS_9allocatorISD_EEFvPNS3_10JSExecutorEEE11target_typeEv', symObjAddr: 0x5C38, symBinAddr: 0xF418, symSize: 0xC }
  - { offset: 0xA6B25, size: 0x8, addend: 0x0, symName: _OUTLINED_FUNCTION_0, symObjAddr: 0x5D10, symBinAddr: 0xF424, symSize: 0xC }
  - { offset: 0xA6B3D, size: 0x8, addend: 0x0, symName: _OUTLINED_FUNCTION_1, symObjAddr: 0x5D1C, symBinAddr: 0xF430, symSize: 0x10 }
  - { offset: 0xA6B55, size: 0x8, addend: 0x0, symName: _OUTLINED_FUNCTION_2, symObjAddr: 0x5D2C, symBinAddr: 0xF440, symSize: 0x8 }
  - { offset: 0xAD0E5, size: 0x8, addend: 0x0, symName: __ZN8facebook5react15JSBigFileStringC2Eimx, symObjAddr: 0x0, symBinAddr: 0xF448, symSize: 0x17C }
  - { offset: 0xAD10E, size: 0x8, addend: 0x0, symName: __ZZN8facebook5react15JSBigFileStringC1EimxE2ps, symObjAddr: 0x20B30, symBinAddr: 0x281E8, symSize: 0x0 }
  - { offset: 0xAD1F7, size: 0x8, addend: 0x0, symName: __ZNK8facebook5react15JSBigFileString5c_strEv, symObjAddr: 0x1F0, symBinAddr: 0xF628, symSize: 0x200 }
  - { offset: 0xAD6C8, size: 0x8, addend: 0x0, symName: __ZN8facebook5react15JSBigFileStringC1Eimx, symObjAddr: 0x17C, symBinAddr: 0xF5C4, symSize: 0x4 }
  - { offset: 0xAD700, size: 0x8, addend: 0x0, symName: __ZN8facebook5react15JSBigFileStringC1Eimx, symObjAddr: 0x17C, symBinAddr: 0xF5C4, symSize: 0x4 }
  - { offset: 0xAD728, size: 0x8, addend: 0x0, symName: __ZN8facebook5react15JSBigFileStringD2Ev, symObjAddr: 0x180, symBinAddr: 0xF5C8, symSize: 0x48 }
  - { offset: 0xAD7A0, size: 0x8, addend: 0x0, symName: __ZN8facebook5react15JSBigFileStringD1Ev, symObjAddr: 0x1D8, symBinAddr: 0xF610, symSize: 0x4 }
  - { offset: 0xAD7C3, size: 0x8, addend: 0x0, symName: __ZN8facebook5react15JSBigFileStringD1Ev, symObjAddr: 0x1D8, symBinAddr: 0xF610, symSize: 0x4 }
  - { offset: 0xAD7F7, size: 0x8, addend: 0x0, symName: __ZN8facebook5react15JSBigFileStringD0Ev, symObjAddr: 0x1DC, symBinAddr: 0xF614, symSize: 0x14 }
  - { offset: 0xAD8C7, size: 0x8, addend: 0x0, symName: __ZNK8facebook5react15JSBigFileString4sizeEv, symObjAddr: 0x3F0, symBinAddr: 0xF828, symSize: 0x30 }
  - { offset: 0xAD904, size: 0x8, addend: 0x0, symName: __ZNK8facebook5react15JSBigFileString2fdEv, symObjAddr: 0x420, symBinAddr: 0xF858, symSize: 0x8 }
  - { offset: 0xADC24, size: 0x8, addend: 0x0, symName: __ZN8facebook5react15JSBigFileString8fromPathERKNSt3__112basic_stringIcNS2_11char_traitsIcEENS2_9allocatorIcEEEE, symObjAddr: 0x428, symBinAddr: 0xF860, symSize: 0x2FC }
  - { offset: 0xAE7F1, size: 0x8, addend: 0x0, symName: __ZNK8facebook5react15JSBigFileString7isAsciiEv, symObjAddr: 0x724, symBinAddr: 0xFB5C, symSize: 0x8 }
  - { offset: 0xB0F28, size: 0x8, addend: 0x0, symName: __ZN8facebook5react19parseTypeFromHeaderERKNS0_12BundleHeaderE, symObjAddr: 0x0, symBinAddr: 0xFB64, symSize: 0x18 }
  - { offset: 0xB0F81, size: 0x8, addend: 0x0, symName: __ZN8facebook5react19parseTypeFromHeaderERKNS0_12BundleHeaderE, symObjAddr: 0x0, symBinAddr: 0xFB64, symSize: 0x18 }
  - { offset: 0xB0FAF, size: 0x8, addend: 0x0, symName: __ZN8facebook5react18stringForScriptTagERKNS0_9ScriptTagE, symObjAddr: 0x18, symBinAddr: 0xFB7C, symSize: 0x30 }
  - { offset: 0xB0FDD, size: 0x8, addend: 0x0, symName: __ZN8facebook5react22isHermesBytecodeBundleERKNS0_12BundleHeaderE, symObjAddr: 0x48, symBinAddr: 0xFBAC, symSize: 0x20 }
  - { offset: 0xB14FA, size: 0x8, addend: 0x0, symName: __ZN8facebook5react10JSExecutor22getSyntheticBundlePathEjRKNSt3__112basic_stringIcNS2_11char_traitsIcEENS2_9allocatorIcEEEE, symObjAddr: 0x0, symBinAddr: 0xFBCC, symSize: 0xD0 }
  - { offset: 0xBC3CF, size: 0x8, addend: 0x0, symName: __ZNSt3__112construct_atB8ne200100IN8facebook5react18jsinspector_modern29FallbackRuntimeTargetDelegateEJNS_12basic_stringIcNS_11char_traitsIcEENS_9allocatorIcEEEEEPS4_EEPT_SD_DpOT0_, symObjAddr: 0x384, symBinAddr: 0xFD9C, symSize: 0x74 }
  - { offset: 0xC198F, size: 0x8, addend: 0x0, symName: __ZN8facebook5react10JSExecutor22getSyntheticBundlePathEjRKNSt3__112basic_stringIcNS2_11char_traitsIcEENS2_9allocatorIcEEEE, symObjAddr: 0x0, symBinAddr: 0xFBCC, symSize: 0xD0 }
  - { offset: 0xC1C50, size: 0x8, addend: 0x0, symName: __ZNSt3__112construct_atB8ne200100IN8facebook5react18jsinspector_modern29FallbackRuntimeTargetDelegateEJNS_12basic_stringIcNS_11char_traitsIcEENS_9allocatorIcEEEEEPS4_EEPT_SD_DpOT0_, symObjAddr: 0x384, symBinAddr: 0xFD9C, symSize: 0x74 }
  - { offset: 0xC1E7A, size: 0x8, addend: 0x0, symName: __ZN8facebook5react10JSExecutor24getRuntimeTargetDelegateEv, symObjAddr: 0xD0, symBinAddr: 0xFC9C, symSize: 0x7C }
  - { offset: 0xC2110, size: 0x8, addend: 0x0, symName: __ZNSt3__18optionalIN8facebook5react18jsinspector_modern29FallbackRuntimeTargetDelegateEE7emplaceB8ne200100IJNS_12basic_stringIcNS_11char_traitsIcEENS_9allocatorIcEEEEEvEERS4_DpOT_, symObjAddr: 0x14C, symBinAddr: 0xFD18, symSize: 0x68 }
  - { offset: 0xC2397, size: 0x8, addend: 0x0, symName: __ZN8facebook5react10JSExecutor20getJavaScriptContextEv, symObjAddr: 0x1B4, symBinAddr: 0xFD80, symSize: 0x8 }
  - { offset: 0xC23BE, size: 0x8, addend: 0x0, symName: __ZN8facebook5react10JSExecutor13isInspectableEv, symObjAddr: 0x1BC, symBinAddr: 0xFD88, symSize: 0x8 }
  - { offset: 0xC23E5, size: 0x8, addend: 0x0, symName: __ZN8facebook5react10JSExecutor20handleMemoryPressureEi, symObjAddr: 0x1C4, symBinAddr: 0xFD90, symSize: 0x4 }
  - { offset: 0xC2418, size: 0x8, addend: 0x0, symName: __ZN8facebook5react10JSExecutor7destroyEv, symObjAddr: 0x1C8, symBinAddr: 0xFD94, symSize: 0x4 }
  - { offset: 0xC243D, size: 0x8, addend: 0x0, symName: __ZN8facebook5react10JSExecutorD1Ev, symObjAddr: 0x1CC, symBinAddr: 0x191E8, symSize: 0x4 }
  - { offset: 0xC2466, size: 0x8, addend: 0x0, symName: __ZN8facebook5react10JSExecutorD0Ev, symObjAddr: 0x1D0, symBinAddr: 0x191EC, symSize: 0x4 }
  - { offset: 0xC248F, size: 0x8, addend: 0x0, symName: __ZN8facebook5react10JSExecutor5flushEv, symObjAddr: 0x1D4, symBinAddr: 0xFD98, symSize: 0x4 }
  - { offset: 0xD518C, size: 0x8, addend: 0x0, symName: __ZN8facebook5react18JSIndexedRAMBundle12buildFactoryEv, symObjAddr: 0x0, symBinAddr: 0xFE10, symSize: 0x14 }
  - { offset: 0xD51C3, size: 0x8, addend: 0x0, symName: __ZN8facebook5react18JSIndexedRAMBundle12buildFactoryEv, symObjAddr: 0x0, symBinAddr: 0xFE10, symSize: 0x14 }
  - { offset: 0xD51DE, size: 0x8, addend: 0x0, symName: __ZN8facebook5react18JSIndexedRAMBundle12buildFactoryEv, symObjAddr: 0x0, symBinAddr: 0xFE10, symSize: 0x14 }
  - { offset: 0xD51FA, size: 0x8, addend: 0x0, symName: __ZN8facebook5react18JSIndexedRAMBundle12buildFactoryEv, symObjAddr: 0x0, symBinAddr: 0xFE10, symSize: 0x14 }
  - { offset: 0xD5216, size: 0x8, addend: 0x0, symName: __ZN8facebook5react18JSIndexedRAMBundle12buildFactoryEv, symObjAddr: 0x0, symBinAddr: 0xFE10, symSize: 0x14 }
  - { offset: 0xD5232, size: 0x8, addend: 0x0, symName: __ZN8facebook5react18JSIndexedRAMBundle12buildFactoryEv, symObjAddr: 0x0, symBinAddr: 0xFE10, symSize: 0x14 }
  - { offset: 0xD524E, size: 0x8, addend: 0x0, symName: __ZN8facebook5react18JSIndexedRAMBundle12buildFactoryEv, symObjAddr: 0x0, symBinAddr: 0xFE10, symSize: 0x14 }
  - { offset: 0xD526A, size: 0x8, addend: 0x0, symName: __ZN8facebook5react18JSIndexedRAMBundle12buildFactoryEv, symObjAddr: 0x0, symBinAddr: 0xFE10, symSize: 0x14 }
  - { offset: 0xD5DB6, size: 0x8, addend: 0x0, symName: __ZN8facebook5react18JSIndexedRAMBundleC2EPKc, symObjAddr: 0x14, symBinAddr: 0xFE24, symSize: 0x284 }
  - { offset: 0xD68B3, size: 0x8, addend: 0x0, symName: __ZNSt3__114basic_ifstreamIcNS_11char_traitsIcEEEC1EPKcj, symObjAddr: 0x11E0, symBinAddr: 0x10D14, symSize: 0x10C }
  - { offset: 0xD69CE, size: 0x8, addend: 0x0, symName: __ZN8facebook5react18JSIndexedRAMBundle4initEv, symObjAddr: 0x2F4, symBinAddr: 0x100A8, symSize: 0x120 }
  - { offset: 0xD6DA9, size: 0x8, addend: 0x0, symName: __ZN8facebook5react17JSBigBufferStringD1Ev, symObjAddr: 0xF7C, symBinAddr: 0x10B98, symSize: 0x3C }
  - { offset: 0xD6F8E, size: 0x8, addend: 0x0, symName: __ZNK8facebook5react18JSIndexedRAMBundle10readBundleEPcl, symObjAddr: 0x690, symBinAddr: 0x103E8, symSize: 0x174 }
  - { offset: 0xD73AA, size: 0x8, addend: 0x0, symName: __ZN8facebook5react18JSIndexedRAMBundleC1EPKc, symObjAddr: 0x414, symBinAddr: 0x101C8, symSize: 0x4 }
  - { offset: 0xD73D4, size: 0x8, addend: 0x0, symName: __ZN8facebook5react18JSIndexedRAMBundleC1EPKc, symObjAddr: 0x414, symBinAddr: 0x101C8, symSize: 0x4 }
  - { offset: 0xD74CD, size: 0x8, addend: 0x0, symName: __ZN8facebook5react18JSIndexedRAMBundleC2ENSt3__110unique_ptrIKNS0_11JSBigStringENS2_14default_deleteIS5_EEEE, symObjAddr: 0x418, symBinAddr: 0x101CC, symSize: 0x218 }
  - { offset: 0xD7BE6, size: 0x8, addend: 0x0, symName: __ZNSt3__118basic_stringstreamIcNS_11char_traitsIcEENS_9allocatorIcEEEC1B8ne200100Ev, symObjAddr: 0x12EC, symBinAddr: 0x10E20, symSize: 0x104 }
  - { offset: 0xD7D47, size: 0x8, addend: 0x0, symName: __ZN8facebook5react18JSIndexedRAMBundleC1ENSt3__110unique_ptrIKNS0_11JSBigStringENS2_14default_deleteIS5_EEEE, symObjAddr: 0x68C, symBinAddr: 0x103E4, symSize: 0x4 }
  - { offset: 0xD7D84, size: 0x8, addend: 0x0, symName: __ZN8facebook5react18JSIndexedRAMBundleC1ENSt3__110unique_ptrIKNS0_11JSBigStringENS2_14default_deleteIS5_EEEE, symObjAddr: 0x68C, symBinAddr: 0x103E4, symSize: 0x4 }
  - { offset: 0xD7E7D, size: 0x8, addend: 0x0, symName: __ZNK8facebook5react18JSIndexedRAMBundle9getModuleEj, symObjAddr: 0x804, symBinAddr: 0x1055C, symSize: 0x11C }
  - { offset: 0xD8279, size: 0x8, addend: 0x0, symName: __ZNK8facebook5react18JSIndexedRAMBundle13getModuleCodeEj, symObjAddr: 0x920, symBinAddr: 0x10678, symSize: 0x1F4 }
  - { offset: 0xD88B4, size: 0x8, addend: 0x0, symName: __ZN8facebook5react17JSModulesUnbundle6ModuleD1Ev, symObjAddr: 0xB14, symBinAddr: 0x1086C, symSize: 0x40 }
  - { offset: 0xD8D37, size: 0x8, addend: 0x0, symName: '__ZNSt3__110__function6__funcIZN8facebook5react18JSIndexedRAMBundle12buildFactoryEvE3$_0NS_9allocatorIS5_EEFNS_10unique_ptrINS3_17JSModulesUnbundleENS_14default_deleteIS9_EEEENS_12basic_stringIcNS_11char_traitsIcEENS6_IcEEEEEED1Ev', symObjAddr: 0x10A8, symBinAddr: 0x10C28, symSize: 0x4 }
  - { offset: 0xD8D42, size: 0x8, addend: 0x0, symName: __ZNK8facebook5react18JSIndexedRAMBundle10readBundleEPclNSt3__14fposI11__mbstate_tEE, symObjAddr: 0xBC4, symBinAddr: 0x1091C, symSize: 0x1A4 }
  - { offset: 0xD918B, size: 0x8, addend: 0x0, symName: __ZN8facebook5react18JSIndexedRAMBundle14getStartupCodeEv, symObjAddr: 0xB54, symBinAddr: 0x108AC, symSize: 0x70 }
  - { offset: 0xD92D1, size: 0x8, addend: 0x0, symName: __ZN8facebook5react18JSIndexedRAMBundleD1Ev, symObjAddr: 0xD68, symBinAddr: 0x10AC0, symSize: 0x6C }
  - { offset: 0xD9530, size: 0x8, addend: 0x0, symName: __ZN8facebook5react18JSIndexedRAMBundleD0Ev, symObjAddr: 0xDD4, symBinAddr: 0x10B2C, symSize: 0x6C }
  - { offset: 0xD997F, size: 0x8, addend: 0x0, symName: __ZN8facebook5react17JSBigBufferStringD1Ev, symObjAddr: 0xF7C, symBinAddr: 0x10B98, symSize: 0x3C }
  - { offset: 0xD99D7, size: 0x8, addend: 0x0, symName: __ZN8facebook5react17JSBigBufferStringD0Ev, symObjAddr: 0xFB8, symBinAddr: 0x10BD4, symSize: 0x3C }
  - { offset: 0xD9A3A, size: 0x8, addend: 0x0, symName: __ZNK8facebook5react17JSBigBufferString7isAsciiEv, symObjAddr: 0xFF4, symBinAddr: 0x10C10, symSize: 0x8 }
  - { offset: 0xD9A61, size: 0x8, addend: 0x0, symName: __ZNK8facebook5react17JSBigBufferString5c_strEv, symObjAddr: 0xFFC, symBinAddr: 0x10C18, symSize: 0x8 }
  - { offset: 0xD9A88, size: 0x8, addend: 0x0, symName: __ZNK8facebook5react17JSBigBufferString4sizeEv, symObjAddr: 0x1004, symBinAddr: 0x10C20, symSize: 0x8 }
  - { offset: 0xD9B2D, size: 0x8, addend: 0x0, symName: '__ZNSt3__110__function6__funcIZN8facebook5react18JSIndexedRAMBundle12buildFactoryEvE3$_0NS_9allocatorIS5_EEFNS_10unique_ptrINS3_17JSModulesUnbundleENS_14default_deleteIS9_EEEENS_12basic_stringIcNS_11char_traitsIcEENS6_IcEEEEEED1Ev', symObjAddr: 0x10A8, symBinAddr: 0x10C28, symSize: 0x4 }
  - { offset: 0xD9B59, size: 0x8, addend: 0x0, symName: '__ZNSt3__110__function6__funcIZN8facebook5react18JSIndexedRAMBundle12buildFactoryEvE3$_0NS_9allocatorIS5_EEFNS_10unique_ptrINS3_17JSModulesUnbundleENS_14default_deleteIS9_EEEENS_12basic_stringIcNS_11char_traitsIcEENS6_IcEEEEEED0Ev', symObjAddr: 0x10AC, symBinAddr: 0x10C2C, symSize: 0x4 }
  - { offset: 0xD9C13, size: 0x8, addend: 0x0, symName: '__ZNKSt3__110__function6__funcIZN8facebook5react18JSIndexedRAMBundle12buildFactoryEvE3$_0NS_9allocatorIS5_EEFNS_10unique_ptrINS3_17JSModulesUnbundleENS_14default_deleteIS9_EEEENS_12basic_stringIcNS_11char_traitsIcEENS6_IcEEEEEE7__cloneEv', symObjAddr: 0x10B0, symBinAddr: 0x10C30, symSize: 0x24 }
  - { offset: 0xD9D60, size: 0x8, addend: 0x0, symName: '__ZNKSt3__110__function6__funcIZN8facebook5react18JSIndexedRAMBundle12buildFactoryEvE3$_0NS_9allocatorIS5_EEFNS_10unique_ptrINS3_17JSModulesUnbundleENS_14default_deleteIS9_EEEENS_12basic_stringIcNS_11char_traitsIcEENS6_IcEEEEEE7__cloneEPNS0_6__baseISI_EE', symObjAddr: 0x10D4, symBinAddr: 0x10C54, symSize: 0x10 }
  - { offset: 0xD9D94, size: 0x8, addend: 0x0, symName: '__ZNKSt3__110__function6__funcIZN8facebook5react18JSIndexedRAMBundle12buildFactoryEvE3$_0NS_9allocatorIS5_EEFNS_10unique_ptrINS3_17JSModulesUnbundleENS_14default_deleteIS9_EEEENS_12basic_stringIcNS_11char_traitsIcEENS6_IcEEEEEE7__cloneEPNS0_6__baseISI_EE', symObjAddr: 0x10D4, symBinAddr: 0x10C54, symSize: 0x10 }
  - { offset: 0xD9DB0, size: 0x8, addend: 0x0, symName: '__ZNKSt3__110__function6__funcIZN8facebook5react18JSIndexedRAMBundle12buildFactoryEvE3$_0NS_9allocatorIS5_EEFNS_10unique_ptrINS3_17JSModulesUnbundleENS_14default_deleteIS9_EEEENS_12basic_stringIcNS_11char_traitsIcEENS6_IcEEEEEE7__cloneEPNS0_6__baseISI_EE', symObjAddr: 0x10D4, symBinAddr: 0x10C54, symSize: 0x10 }
  - { offset: 0xD9DCC, size: 0x8, addend: 0x0, symName: '__ZNSt3__110__function6__funcIZN8facebook5react18JSIndexedRAMBundle12buildFactoryEvE3$_0NS_9allocatorIS5_EEFNS_10unique_ptrINS3_17JSModulesUnbundleENS_14default_deleteIS9_EEEENS_12basic_stringIcNS_11char_traitsIcEENS6_IcEEEEEE7destroyEv', symObjAddr: 0x10E4, symBinAddr: 0x10C64, symSize: 0x4 }
  - { offset: 0xD9E20, size: 0x8, addend: 0x0, symName: '__ZNSt3__110__function6__funcIZN8facebook5react18JSIndexedRAMBundle12buildFactoryEvE3$_0NS_9allocatorIS5_EEFNS_10unique_ptrINS3_17JSModulesUnbundleENS_14default_deleteIS9_EEEENS_12basic_stringIcNS_11char_traitsIcEENS6_IcEEEEEE18destroy_deallocateEv', symObjAddr: 0x10E8, symBinAddr: 0x10C68, symSize: 0x4 }
  - { offset: 0xD9E54, size: 0x8, addend: 0x0, symName: '__ZNSt3__110__function6__funcIZN8facebook5react18JSIndexedRAMBundle12buildFactoryEvE3$_0NS_9allocatorIS5_EEFNS_10unique_ptrINS3_17JSModulesUnbundleENS_14default_deleteIS9_EEEENS_12basic_stringIcNS_11char_traitsIcEENS6_IcEEEEEE18destroy_deallocateEv', symObjAddr: 0x10E8, symBinAddr: 0x10C68, symSize: 0x4 }
  - { offset: 0xD9E76, size: 0x8, addend: 0x0, symName: '__ZNSt3__110__function6__funcIZN8facebook5react18JSIndexedRAMBundle12buildFactoryEvE3$_0NS_9allocatorIS5_EEFNS_10unique_ptrINS3_17JSModulesUnbundleENS_14default_deleteIS9_EEEENS_12basic_stringIcNS_11char_traitsIcEENS6_IcEEEEEE18destroy_deallocateEv', symObjAddr: 0x10E8, symBinAddr: 0x10C68, symSize: 0x4 }
  - { offset: 0xD9EA8, size: 0x8, addend: 0x0, symName: '__ZNSt3__110__function6__funcIZN8facebook5react18JSIndexedRAMBundle12buildFactoryEvE3$_0NS_9allocatorIS5_EEFNS_10unique_ptrINS3_17JSModulesUnbundleENS_14default_deleteIS9_EEEENS_12basic_stringIcNS_11char_traitsIcEENS6_IcEEEEEE18destroy_deallocateEv', symObjAddr: 0x10E8, symBinAddr: 0x10C68, symSize: 0x4 }
  - { offset: 0xDA00E, size: 0x8, addend: 0x0, symName: '__ZNSt3__110__function6__funcIZN8facebook5react18JSIndexedRAMBundle12buildFactoryEvE3$_0NS_9allocatorIS5_EEFNS_10unique_ptrINS3_17JSModulesUnbundleENS_14default_deleteIS9_EEEENS_12basic_stringIcNS_11char_traitsIcEENS6_IcEEEEEEclEOSH_', symObjAddr: 0x10EC, symBinAddr: 0x10C6C, symSize: 0x60 }
  - { offset: 0xDA1A8, size: 0x8, addend: 0x0, symName: '__ZNKSt3__110__function6__funcIZN8facebook5react18JSIndexedRAMBundle12buildFactoryEvE3$_0NS_9allocatorIS5_EEFNS_10unique_ptrINS3_17JSModulesUnbundleENS_14default_deleteIS9_EEEENS_12basic_stringIcNS_11char_traitsIcEENS6_IcEEEEEE6targetERKSt9type_info', symObjAddr: 0x114C, symBinAddr: 0x10CCC, symSize: 0x3C }
  - { offset: 0xDA25B, size: 0x8, addend: 0x0, symName: '__ZNKSt3__110__function6__funcIZN8facebook5react18JSIndexedRAMBundle12buildFactoryEvE3$_0NS_9allocatorIS5_EEFNS_10unique_ptrINS3_17JSModulesUnbundleENS_14default_deleteIS9_EEEENS_12basic_stringIcNS_11char_traitsIcEENS6_IcEEEEEE11target_typeEv', symObjAddr: 0x1188, symBinAddr: 0x10D08, symSize: 0xC }
  - { offset: 0xDC939, size: 0x8, addend: 0x0, symName: __ZN8facebook5react16parseMethodCallsEON5folly7dynamicE, symObjAddr: 0x0, symBinAddr: 0x10F24, symSize: 0x824 }
  - { offset: 0xE6636, size: 0x8, addend: 0x0, symName: __ZNSt3__119__allocate_at_leastB8ne200100INS_9allocatorIN8facebook5react10MethodCallEEEEENS_19__allocation_resultINS_16allocator_traitsIT_E7pointerEEERS8_m, symObjAddr: 0x1AE0, symBinAddr: 0x118E8, symSize: 0x34 }
  - { offset: 0xE66DC, size: 0x8, addend: 0x0, symName: __ZNSt3__134__uninitialized_allocator_relocateB8ne200100INS_9allocatorIN8facebook5react10MethodCallEEEPS4_EEvRT_T0_S9_S9_, symObjAddr: 0x1B14, symBinAddr: 0x1191C, symSize: 0x7C }
  - { offset: 0xE66F0, size: 0x8, addend: 0x0, symName: __ZNSt3__134__uninitialized_allocator_relocateB8ne200100INS_9allocatorIN8facebook5react10MethodCallEEEPS4_EEvRT_T0_S9_S9_, symObjAddr: 0x1B14, symBinAddr: 0x1191C, symSize: 0x7C }
  - { offset: 0xE674E, size: 0x8, addend: 0x0, symName: __ZNSt3__134__uninitialized_allocator_relocateB8ne200100INS_9allocatorIN8facebook5react10MethodCallEEEPS4_EEvRT_T0_S9_S9_, symObjAddr: 0x1B14, symBinAddr: 0x1191C, symSize: 0x7C }
  - { offset: 0xE7E90, size: 0x8, addend: 0x0, symName: __ZN8facebook5react16parseMethodCallsEON5folly7dynamicE, symObjAddr: 0x0, symBinAddr: 0x10F24, symSize: 0x824 }
  - { offset: 0xE9962, size: 0x8, addend: 0x0, symName: __ZN5folly6detail22callWithKeyAndPairArgsINS_7dynamicES2_ZNS_3f146detail11F14BasicMapIS2_S2_NS0_13DynamicHasherENS0_15DynamicKeyEqualENSt3__19allocatorINS8_4pairIKS2_S2_EEEEE7emplaceIJiDnEEENSA_INS8_19__hash_map_iteratorINS8_15__hash_iteratorIPNS8_11__hash_nodeINS8_17__hash_value_typeIS2_S2_EEPvEEEEEEbEEDpOT_EUlRT_DpOT0_E_iOiODnLi0EEEDaOT1_RKT2_ONS8_5tupleIJT3_EEEONS18_IJT4_EEE, symObjAddr: 0x1CDC, symBinAddr: 0x11AE4, symSize: 0x70 }
  - { offset: 0xF0743, size: 0x8, addend: 0x0, symName: __ZNR5folly7dynamicixIiEENSt3__19enable_ifIXaantsr3std14is_convertibleIT_NS_5RangeIPKcEEEE5valuesr3std14is_convertibleIS4_S0_EE5valueERS0_E4typeEOS4_, symObjAddr: 0x880, symBinAddr: 0x11748, symSize: 0x70 }
  - { offset: 0xF0CB5, size: 0x8, addend: 0x0, symName: __ZNSt3__16vectorIN8facebook5react10MethodCallENS_9allocatorIS3_EEE24__emplace_back_slow_pathIJiiN5folly7dynamicERiEEEPS3_DpOT_, symObjAddr: 0x199C, symBinAddr: 0x117B8, symSize: 0x130 }
  - { offset: 0xF121B, size: 0x8, addend: 0x0, symName: __ZNSt3__16vectorIN8facebook5react10MethodCallENS_9allocatorIS3_EEE16__destroy_vectorclB8ne200100Ev, symObjAddr: 0x1BE0, symBinAddr: 0x119E8, symSize: 0x74 }
  - { offset: 0xF157A, size: 0x8, addend: 0x0, symName: __ZNKR5folly7dynamic2atIRiEENSt3__19enable_ifIXaantsr3std14is_convertibleIT_NS_5RangeIPKcEEEE5valuesr3std14is_convertibleIS5_S0_EE5valueERKS0_E4typeEOS5_, symObjAddr: 0x1C54, symBinAddr: 0x11A5C, symSize: 0x88 }
  - { offset: 0xF3344, size: 0x8, addend: 0x0, symName: __ZNSt3__114__split_bufferIN8facebook5react10MethodCallERNS_9allocatorIS3_EEED2Ev, symObjAddr: 0x1B90, symBinAddr: 0x11998, symSize: 0x50 }
  - { offset: 0xF34E2, size: 0x8, addend: 0x0, symName: __ZNSt3__119__allocate_at_leastB8ne200100INS_9allocatorIN8facebook5react10MethodCallEEEEENS_19__allocation_resultINS_16allocator_traitsIT_E7pointerEEERS8_m, symObjAddr: 0x1AE0, symBinAddr: 0x118E8, symSize: 0x34 }
  - { offset: 0xF3A06, size: 0x8, addend: 0x0, symName: __ZN5folly3f146detail11F14BasicMapINS_7dynamicES3_NS_6detail13DynamicHasherENS4_15DynamicKeyEqualENSt3__19allocatorINS7_4pairIKS3_S3_EEEEE9findLocalISD_iEENS_8OptionalIDTcldtfp_5beginLi0EEEEERT_RKT0_, symObjAddr: 0x1D4C, symBinAddr: 0x11B54, symSize: 0x168 }
  - { offset: 0xF3EA1, size: 0x8, addend: 0x0, symName: __ZNSt3__112__hash_tableINS_17__hash_value_typeIN5folly7dynamicES3_EENS_22__unordered_map_hasherIS3_S4_NS2_6detail13DynamicHasherENS6_15DynamicKeyEqualELb1EEENS_21__unordered_map_equalIS3_S4_S8_S7_Lb1EEENS_9allocatorIS4_EEE21__emplace_unique_implIJiDnEEENS_4pairINS_15__hash_iteratorIPNS_11__hash_nodeIS4_PvEEEEbEEDpOT_, symObjAddr: 0x1F3C, symBinAddr: 0x11D44, symSize: 0x88 }
  - { offset: 0xF442A, size: 0x8, addend: 0x0, symName: __ZNKSt3__122__unordered_map_hasherIiNS_17__hash_value_typeIiN5folly7dynamicEEENS2_6detail13DynamicHasherENS2_3f146detail11F14BasicMapIS3_S3_S6_NS5_15DynamicKeyEqualENS_9allocatorINS_4pairIKS3_S3_EEEEE14BottomKeyEqualIiEELb1EEclB8ne200100ERKi, symObjAddr: 0x1EB4, symBinAddr: 0x11CBC, symSize: 0x88 }
  - { offset: 0xF45E5, size: 0x8, addend: 0x0, symName: __ZNSt3__112__hash_tableINS_17__hash_value_typeIN5folly7dynamicES3_EENS_22__unordered_map_hasherIS3_S4_NS2_6detail13DynamicHasherENS6_15DynamicKeyEqualELb1EEENS_21__unordered_map_equalIS3_S4_S8_S7_Lb1EEENS_9allocatorIS4_EEE16__construct_nodeIJiDnEEENS_10unique_ptrINS_11__hash_nodeIS4_PvEENS_22__hash_node_destructorINSC_ISJ_EEEEEEDpOT_, symObjAddr: 0x1FC4, symBinAddr: 0x11DCC, symSize: 0x98 }
  - { offset: 0x1081AA, size: 0x8, addend: 0x0, symName: __ZNSt3__119__allocate_at_leastB8ne200100INS_9allocatorINS_10unique_ptrIN8facebook5react12NativeModuleENS_14default_deleteIS5_EEEEEEEENS_19__allocation_resultINS_16allocator_traitsIT_E7pointerEEERSC_m, symObjAddr: 0x1B80, symBinAddr: 0x137E8, symSize: 0x34 }
  - { offset: 0x108250, size: 0x8, addend: 0x0, symName: __ZNSt3__114__split_bufferINS_10unique_ptrIN8facebook5react12NativeModuleENS_14default_deleteIS4_EEEERNS_9allocatorIS7_EEED2Ev, symObjAddr: 0x1BB4, symBinAddr: 0x1381C, symSize: 0x5C }
  - { offset: 0x108434, size: 0x8, addend: 0x0, symName: __ZNSt3__114__split_bufferINS_12basic_stringIcNS_11char_traitsIcEENS_9allocatorIcEEEERNS4_IS6_EEED2Ev, symObjAddr: 0x1EA4, symBinAddr: 0x13974, symSize: 0x34 }
  - { offset: 0x109B2E, size: 0x8, addend: 0x0, symName: __ZNSt3__117__call_once_proxyB8ne200100INS_5tupleIJOZN8facebook5react8systraceL31getOrCreateInstrumentsLogHandleEvEUlvE_EEEEEvPv, symObjAddr: 0x35AC, symBinAddr: 0x14300, symSize: 0x40 }
  - { offset: 0x10A581, size: 0x8, addend: 0x0, symName: __ZNSt3__135__uninitialized_allocator_copy_implB8ne200100INS_9allocatorIN5folly7dynamicEEEPKS3_S6_PS3_EET2_RT_T0_T1_S8_, symObjAddr: 0x4A5C, symBinAddr: 0x14C54, symSize: 0x84 }
  - { offset: 0x10BABF, size: 0x8, addend: 0x0, symName: __ZZN8facebook5react8systraceL31getOrCreateInstrumentsLogHandleEvE4flag, symObjAddr: 0xE0480, symBinAddr: 0x281F8, symSize: 0x0 }
  - { offset: 0x10BD07, size: 0x8, addend: 0x0, symName: __ZN8facebook5react12_GLOBAL__N_113normalizeNameENSt3__112basic_stringIcNS2_11char_traitsIcEENS2_9allocatorIcEEEE, symObjAddr: 0x1A4, symBinAddr: 0x12008, symSize: 0xA4 }
  - { offset: 0x10C457, size: 0x8, addend: 0x0, symName: __ZN8facebook5react12TraceSectionC2IJRA7_KcRKNSt3__112basic_stringIcNS6_11char_traitsIcEENS6_9allocatorIcEEEEEEEPS3_DpOT_, symObjAddr: 0x36E4, symBinAddr: 0x14438, symSize: 0x450 }
  - { offset: 0x112092, size: 0x8, addend: 0x0, symName: __ZN8facebook5react14ModuleRegistryC2ENSt3__16vectorINS2_10unique_ptrINS0_12NativeModuleENS2_14default_deleteIS5_EEEENS2_9allocatorIS8_EEEENS2_8functionIFbRKNS2_12basic_stringIcNS2_11char_traitsIcEENS9_IcEEEEEEE, symObjAddr: 0x0, symBinAddr: 0x11E64, symSize: 0xAC }
  - { offset: 0x11258E, size: 0x8, addend: 0x0, symName: __ZNSt3__112__hash_tableINS_17__hash_value_typeINS_12basic_stringIcNS_11char_traitsIcEENS_9allocatorIcEEEEmEENS_22__unordered_map_hasherIS7_S8_NS_4hashIS7_EENS_8equal_toIS7_EELb1EEENS_21__unordered_map_equalIS7_S8_SD_SB_Lb1EEENS5_IS8_EEED2Ev, symObjAddr: 0x2804, symBinAddr: 0x139FC, symSize: 0x38 }
  - { offset: 0x1126E6, size: 0x8, addend: 0x0, symName: __ZNSt3__16vectorINS_10unique_ptrIN8facebook5react12NativeModuleENS_14default_deleteIS4_EEEENS_9allocatorIS7_EEE16__destroy_vectorclB8ne200100Ev, symObjAddr: 0x19D0, symBinAddr: 0x136FC, symSize: 0x7C }
  - { offset: 0x1128CA, size: 0x8, addend: 0x0, symName: __ZN8facebook5react14ModuleRegistryC1ENSt3__16vectorINS2_10unique_ptrINS0_12NativeModuleENS2_14default_deleteIS5_EEEENS2_9allocatorIS8_EEEENS2_8functionIFbRKNS2_12basic_stringIcNS2_11char_traitsIcEENS9_IcEEEEEEE, symObjAddr: 0xAC, symBinAddr: 0x11F10, symSize: 0x4 }
  - { offset: 0x112916, size: 0x8, addend: 0x0, symName: __ZN8facebook5react14ModuleRegistryC1ENSt3__16vectorINS2_10unique_ptrINS0_12NativeModuleENS2_14default_deleteIS5_EEEENS2_9allocatorIS8_EEEENS2_8functionIFbRKNS2_12basic_stringIcNS2_11char_traitsIcEENS9_IcEEEEEEE, symObjAddr: 0xAC, symBinAddr: 0x11F10, symSize: 0x4 }
  - { offset: 0x112A57, size: 0x8, addend: 0x0, symName: __ZN8facebook5react14ModuleRegistry26updateModuleNamesFromIndexEm, symObjAddr: 0xB0, symBinAddr: 0x11F14, symSize: 0xF4 }
  - { offset: 0x112EAE, size: 0x8, addend: 0x0, symName: __ZNSt3__112__hash_tableINS_17__hash_value_typeINS_12basic_stringIcNS_11char_traitsIcEENS_9allocatorIcEEEEmEENS_22__unordered_map_hasherIS7_S8_NS_4hashIS7_EENS_8equal_toIS7_EELb1EEENS_21__unordered_map_equalIS7_S8_SD_SB_Lb1EEENS5_IS8_EEE25__emplace_unique_key_argsIS7_JRKNS_21piecewise_construct_tENS_5tupleIJRKS7_EEENSN_IJEEEEEENS_4pairINS_15__hash_iteratorIPNS_11__hash_nodeIS8_PvEEEEbEERKT_DpOT0_, symObjAddr: 0x28FC, symBinAddr: 0x13A78, symSize: 0x274 }
  - { offset: 0x1136BA, size: 0x8, addend: 0x0, symName: __ZN8facebook5react14ModuleRegistry15registerModulesENSt3__16vectorINS2_10unique_ptrINS0_12NativeModuleENS2_14default_deleteIS5_EEEENS2_9allocatorIS8_EEEE, symObjAddr: 0x248, symBinAddr: 0x120AC, symSize: 0x2D0 }
  - { offset: 0x114194, size: 0x8, addend: 0x0, symName: __ZNSt3__16vectorINS_10unique_ptrIN8facebook5react12NativeModuleENS_14default_deleteIS4_EEEENS_9allocatorIS7_EEE7reserveEm, symObjAddr: 0x518, symBinAddr: 0x1237C, symSize: 0x98 }
  - { offset: 0x114388, size: 0x8, addend: 0x0, symName: __ZNSt3__16vectorINS_10unique_ptrIN8facebook5react12NativeModuleENS_14default_deleteIS4_EEEENS_9allocatorIS7_EEE9push_backB8ne200100EOS7_, symObjAddr: 0x1C10, symBinAddr: 0x13878, symSize: 0xFC }
  - { offset: 0x1147BE, size: 0x8, addend: 0x0, symName: __ZNSt3__112__hash_tableINS_12basic_stringIcNS_11char_traitsIcEENS_9allocatorIcEEEENS_4hashIS6_EENS_8equal_toIS6_EENS4_IS6_EEE4findIS6_EENS_15__hash_iteratorIPNS_11__hash_nodeIS6_PvEEEERKT_, symObjAddr: 0x35EC, symBinAddr: 0x14340, symSize: 0xF8 }
  - { offset: 0x11496A, size: 0x8, addend: 0x0, symName: __ZNSt3__16vectorINS_10unique_ptrIN8facebook5react12NativeModuleENS_14default_deleteIS4_EEEENS_9allocatorIS7_EEE13__vdeallocateEv, symObjAddr: 0x1AFC, symBinAddr: 0x13778, symSize: 0x70 }
  - { offset: 0x114C4F, size: 0x8, addend: 0x0, symName: __ZNSt3__114__split_bufferINS_10unique_ptrIN8facebook5react12NativeModuleENS_14default_deleteIS4_EEEERNS_9allocatorIS7_EEED2Ev, symObjAddr: 0x1BB4, symBinAddr: 0x1381C, symSize: 0x5C }
  - { offset: 0x114E0C, size: 0x8, addend: 0x0, symName: __ZNSt3__119__allocate_at_leastB8ne200100INS_9allocatorINS_10unique_ptrIN8facebook5react12NativeModuleENS_14default_deleteIS5_EEEEEEEENS_19__allocation_resultINS_16allocator_traitsIT_E7pointerEEERSC_m, symObjAddr: 0x1B80, symBinAddr: 0x137E8, symSize: 0x34 }
  - { offset: 0x114F1B, size: 0x8, addend: 0x0, symName: __ZN8facebook5react14ModuleRegistry11moduleNamesEv, symObjAddr: 0x60C, symBinAddr: 0x12414, symSize: 0x174 }
  - { offset: 0x1155D8, size: 0x8, addend: 0x0, symName: __ZNSt3__16vectorINS_12basic_stringIcNS_11char_traitsIcEENS_9allocatorIcEEEENS4_IS6_EEE9push_backB8ne200100EOS6_, symObjAddr: 0x780, symBinAddr: 0x12588, symSize: 0x12C }
  - { offset: 0x1159DD, size: 0x8, addend: 0x0, symName: __ZN8facebook5react14ModuleRegistry9getConfigERKNSt3__112basic_stringIcNS2_11char_traitsIcEENS2_9allocatorIcEEEE, symObjAddr: 0x8AC, symBinAddr: 0x126B4, symSize: 0x72C }
  - { offset: 0x115CB1, size: 0x8, addend: 0x0, symName: __ZNSt3__114__split_bufferINS_12basic_stringIcNS_11char_traitsIcEENS_9allocatorIcEEEERNS4_IS6_EEED2Ev, symObjAddr: 0x1EA4, symBinAddr: 0x13974, symSize: 0x34 }
  - { offset: 0x116639, size: 0x8, addend: 0x0, symName: __ZN8facebook5react14ModuleRegistry9getConfigERKNSt3__112basic_stringIcNS2_11char_traitsIcEENS2_9allocatorIcEEEE, symObjAddr: 0x8AC, symBinAddr: 0x126B4, symSize: 0x72C }
  - { offset: 0x118539, size: 0x8, addend: 0x0, symName: __ZN5folly7dynamic5arrayIJRKNSt3__112basic_stringIcNS2_11char_traitsIcEENS2_9allocatorIcEEEEEEES0_DpOT_, symObjAddr: 0xFD8, symBinAddr: 0x12DE0, symSize: 0x134 }
  - { offset: 0x118D50, size: 0x8, addend: 0x0, symName: __ZN8facebook5react14ModuleRegistry13getModuleNameEj, symObjAddr: 0x117C, symBinAddr: 0x12F14, symSize: 0x1F4 }
  - { offset: 0x118D64, size: 0x8, addend: 0x0, symName: __ZNSt3__112__hash_tableINS_12basic_stringIcNS_11char_traitsIcEENS_9allocatorIcEEEENS_4hashIS6_EENS_8equal_toIS6_EENS4_IS6_EEE25__emplace_unique_key_argsIS6_JRKS6_EEENS_4pairINS_15__hash_iteratorIPNS_11__hash_nodeIS6_PvEEEEbEERKT_DpOT0_, symObjAddr: 0x43C8, symBinAddr: 0x14888, symSize: 0x25C }
  - { offset: 0x1194DD, size: 0x8, addend: 0x0, symName: __ZNSt3__16vectorIN5folly7dynamicENS_9allocatorIS2_EEE16__init_with_sizeB8ne200100IPKS2_S8_EEvT_T0_m, symObjAddr: 0x4990, symBinAddr: 0x14B88, symSize: 0x84 }
  - { offset: 0x119A20, size: 0x8, addend: 0x0, symName: __ZN8facebook5react14ModuleRegistry13getModuleNameEj, symObjAddr: 0x117C, symBinAddr: 0x12F14, symSize: 0x1F4 }
  - { offset: 0x11A264, size: 0x8, addend: 0x0, symName: __ZN8facebook5react14ModuleRegistry23getModuleSyncMethodNameEjj, symObjAddr: 0x13CC, symBinAddr: 0x13108, symSize: 0x1F8 }
  - { offset: 0x11AA85, size: 0x8, addend: 0x0, symName: __ZN8facebook5react14ModuleRegistry16callNativeMethodEjjON5folly7dynamicEi, symObjAddr: 0x15C4, symBinAddr: 0x13300, symSize: 0x200 }
  - { offset: 0x11B2C4, size: 0x8, addend: 0x0, symName: __ZN8facebook5react14ModuleRegistry26callSerializableNativeHookEjjON5folly7dynamicE, symObjAddr: 0x17C4, symBinAddr: 0x13500, symSize: 0x1FC }
  - { offset: 0x11C220, size: 0x8, addend: 0x0, symName: __ZNSt3__114__split_bufferINS_12basic_stringIcNS_11char_traitsIcEENS_9allocatorIcEEEERNS4_IS6_EEE17__destruct_at_endB8ne200100EPS6_, symObjAddr: 0x1ED8, symBinAddr: 0x139A8, symSize: 0x54 }
  - { offset: 0x11C258, size: 0x8, addend: 0x0, symName: __ZNSt3__114__split_bufferINS_12basic_stringIcNS_11char_traitsIcEENS_9allocatorIcEEEERNS4_IS6_EEE17__destruct_at_endB8ne200100EPS6_, symObjAddr: 0x1ED8, symBinAddr: 0x139A8, symSize: 0x54 }
  - { offset: 0x11D4BF, size: 0x8, addend: 0x0, symName: __ZNSt3__112__hash_tableINS_17__hash_value_typeINS_12basic_stringIcNS_11char_traitsIcEENS_9allocatorIcEEEEmEENS_22__unordered_map_hasherIS7_S8_NS_4hashIS7_EENS_8equal_toIS7_EELb1EEENS_21__unordered_map_equalIS7_S8_SD_SB_Lb1EEENS5_IS8_EEE17__deallocate_nodeEPNS_16__hash_node_baseIPNS_11__hash_nodeIS8_PvEEEE, symObjAddr: 0x283C, symBinAddr: 0x13A34, symSize: 0x44 }
  - { offset: 0x11DCB7, size: 0x8, addend: 0x0, symName: __ZNKSt3__113__string_hashIcNS_9allocatorIcEEEclB8ne200100ERKNS_12basic_stringIcNS_11char_traitsIcEES2_EE, symObjAddr: 0x2C1C, symBinAddr: 0x13D98, symSize: 0x3C }
  - { offset: 0x11DD87, size: 0x8, addend: 0x0, symName: __ZNKSt3__18equal_toINS_12basic_stringIcNS_11char_traitsIcEENS_9allocatorIcEEEEEclB8ne200100ERKS6_S9_, symObjAddr: 0x30C4, symBinAddr: 0x14240, symSize: 0x70 }
  - { offset: 0x11DDD2, size: 0x8, addend: 0x0, symName: __ZNKSt3__18equal_toINS_12basic_stringIcNS_11char_traitsIcEENS_9allocatorIcEEEEEclB8ne200100ERKS6_S9_, symObjAddr: 0x30C4, symBinAddr: 0x14240, symSize: 0x70 }
  - { offset: 0x11DE02, size: 0x8, addend: 0x0, symName: __ZNKSt3__18equal_toINS_12basic_stringIcNS_11char_traitsIcEENS_9allocatorIcEEEEEclB8ne200100ERKS6_S9_, symObjAddr: 0x30C4, symBinAddr: 0x14240, symSize: 0x70 }
  - { offset: 0x11DE1E, size: 0x8, addend: 0x0, symName: __ZNKSt3__18equal_toINS_12basic_stringIcNS_11char_traitsIcEENS_9allocatorIcEEEEEclB8ne200100ERKS6_S9_, symObjAddr: 0x30C4, symBinAddr: 0x14240, symSize: 0x70 }
  - { offset: 0x11DF21, size: 0x8, addend: 0x0, symName: __ZNSt3__112__hash_tableINS_17__hash_value_typeINS_12basic_stringIcNS_11char_traitsIcEENS_9allocatorIcEEEEmEENS_22__unordered_map_hasherIS7_S8_NS_4hashIS7_EENS_8equal_toIS7_EELb1EEENS_21__unordered_map_equalIS7_S8_SD_SB_Lb1EEENS5_IS8_EEE21__construct_node_hashIRKNS_21piecewise_construct_tEJNS_5tupleIJRKS7_EEENSN_IJEEEEEENS_10unique_ptrINS_11__hash_nodeIS8_PvEENS_22__hash_node_destructorINS5_ISV_EEEEEEmOT_DpOT0_, symObjAddr: 0x2B70, symBinAddr: 0x13CEC, symSize: 0xAC }
  - { offset: 0x11E3B9, size: 0x8, addend: 0x0, symName: __ZNSt3__122__hash_node_destructorINS_9allocatorINS_11__hash_nodeINS_17__hash_value_typeINS_12basic_stringIcNS_11char_traitsIcEENS1_IcEEEEmEEPvEEEEEclB8ne200100EPSB_, symObjAddr: 0x33E0, symBinAddr: 0x142B0, symSize: 0x50 }
  - { offset: 0x11E938, size: 0x8, addend: 0x0, symName: __ZNKSt3__121__murmur2_or_cityhashImLm64EEclB8ne200100EPKvm, symObjAddr: 0x2C58, symBinAddr: 0x13DD4, symSize: 0x208 }
  - { offset: 0x11EF9D, size: 0x8, addend: 0x0, symName: __ZNSt3__121__murmur2_or_cityhashImLm64EE18__hash_len_0_to_16B8ne200100EPKcm, symObjAddr: 0x2E60, symBinAddr: 0x13FDC, symSize: 0xF8 }
  - { offset: 0x11F1A4, size: 0x8, addend: 0x0, symName: __ZNSt3__121__murmur2_or_cityhashImLm64EE19__hash_len_33_to_64B8ne200100EPKcm, symObjAddr: 0x3004, symBinAddr: 0x14180, symSize: 0xC0 }
  - { offset: 0x11F40D, size: 0x8, addend: 0x0, symName: __ZNSt3__121__murmur2_or_cityhashImLm64EE19__hash_len_17_to_32B8ne200100EPKcm, symObjAddr: 0x2F58, symBinAddr: 0x140D4, symSize: 0xAC }
  - { offset: 0x11F81E, size: 0x8, addend: 0x0, symName: __ZNSt3__122__hash_node_destructorINS_9allocatorINS_11__hash_nodeINS_17__hash_value_typeINS_12basic_stringIcNS_11char_traitsIcEENS1_IcEEEEmEEPvEEEEEclB8ne200100EPSB_, symObjAddr: 0x33E0, symBinAddr: 0x142B0, symSize: 0x50 }
  - { offset: 0x121173, size: 0x8, addend: 0x0, symName: __ZNSt3__112__hash_tableINS_12basic_stringIcNS_11char_traitsIcEENS_9allocatorIcEEEENS_4hashIS6_EENS_8equal_toIS6_EENS4_IS6_EEE21__construct_node_hashIRKS6_JEEENS_10unique_ptrINS_11__hash_nodeIS6_PvEENS_22__hash_node_destructorINS4_ISJ_EEEEEEmOT_DpOT0_, symObjAddr: 0x4624, symBinAddr: 0x14AE4, symSize: 0xA4 }
  - { offset: 0x121DA3, size: 0x8, addend: 0x0, symName: __ZNSt3__16vectorIN5folly7dynamicENS_9allocatorIS2_EEE11__vallocateB8ne200100Em, symObjAddr: 0x4A14, symBinAddr: 0x14C0C, symSize: 0x48 }
  - { offset: 0x121DFB, size: 0x8, addend: 0x0, symName: __ZNSt3__135__uninitialized_allocator_copy_implB8ne200100INS_9allocatorIN5folly7dynamicEEEPKS3_S6_PS3_EET2_RT_T0_T1_S8_, symObjAddr: 0x4A5C, symBinAddr: 0x14C54, symSize: 0x84 }
  - { offset: 0x13C784, size: 0x8, addend: 0x0, symName: __ZNSt3__115allocate_sharedB8ne200100IN8facebook5react16JsToNativeBridgeENS_9allocatorIS3_EEJRNS_10shared_ptrINS2_14ModuleRegistryEEERNS6_INS2_16InstanceCallbackEEEELi0EEENS6_IT_EERKT0_DpOT1_, symObjAddr: 0x1424, symBinAddr: 0x15C4C, symSize: 0x60 }
  - { offset: 0x13F73D, size: 0x8, addend: 0x0, symName: __ZNSt3__112construct_atB8ne200100IN8facebook5react16JsToNativeBridgeEJRNS_10shared_ptrINS2_14ModuleRegistryEEERNS4_INS2_16InstanceCallbackEEEEPS3_EEPT_SD_DpOT0_, symObjAddr: 0x1518, symBinAddr: 0x15D40, symSize: 0x114 }
  - { offset: 0x147B3A, size: 0x8, addend: 0x0, symName: __ZN8facebook5react16NativeToJsBridge17initializeRuntimeEv, symObjAddr: 0x2D0, symBinAddr: 0x14F98, symSize: 0x90 }
  - { offset: 0x147DB0, size: 0x8, addend: 0x0, symName: __ZN8facebook5react16NativeToJsBridge10loadBundleENSt3__110unique_ptrINS0_17RAMBundleRegistryENS2_14default_deleteIS4_EEEENS3_IKNS0_11JSBigStringENS5_IS9_EEEENS2_12basic_stringIcNS2_11char_traitsIcEENS2_9allocatorIcEEEE, symObjAddr: 0x54C, symBinAddr: 0x15214, symSize: 0x104 }
  - { offset: 0x148404, size: 0x8, addend: 0x0, symName: __ZN8facebook5react16NativeToJsBridge12callFunctionEONSt3__112basic_stringIcNS2_11char_traitsIcEENS2_9allocatorIcEEEES9_ON5folly7dynamicE, symObjAddr: 0x7EC, symBinAddr: 0x154B4, symSize: 0x178 }
  - { offset: 0x148AF3, size: 0x8, addend: 0x0, symName: __ZN8facebook5react16NativeToJsBridge14invokeCallbackEdON5folly7dynamicE, symObjAddr: 0x9AC, symBinAddr: 0x15674, symSize: 0x100 }
  - { offset: 0x148F42, size: 0x8, addend: 0x0, symName: __ZN8facebook5react16NativeToJsBridge14registerBundleEjRKNSt3__112basic_stringIcNS2_11char_traitsIcEENS2_9allocatorIcEEEE, symObjAddr: 0xAAC, symBinAddr: 0x15774, symSize: 0x150 }
  - { offset: 0x1496ED, size: 0x8, addend: 0x0, symName: __ZN8facebook5react16NativeToJsBridge17setGlobalVariableENSt3__112basic_stringIcNS2_11char_traitsIcEENS2_9allocatorIcEEEENS2_10unique_ptrIKNS0_11JSBigStringENS2_14default_deleteISB_EEEE, symObjAddr: 0xBFC, symBinAddr: 0x158C4, symSize: 0x110 }
  - { offset: 0x149D75, size: 0x8, addend: 0x0, symName: __ZN8facebook5react16NativeToJsBridge20handleMemoryPressureEi, symObjAddr: 0xD38, symBinAddr: 0x15A00, symSize: 0x94 }
  - { offset: 0x149FF0, size: 0x8, addend: 0x0, symName: __ZN8facebook5react16NativeToJsBridge7destroyEv, symObjAddr: 0xDCC, symBinAddr: 0x15A94, symSize: 0xE4 }
  - { offset: 0x14A2DE, size: 0x8, addend: 0x0, symName: __ZN8facebook5react16NativeToJsBridge18runOnExecutorQueueEONSt3__18functionIFvPNS0_10JSExecutorEEEE, symObjAddr: 0x360, symBinAddr: 0x15028, symSize: 0x1EC }
  - { offset: 0x14AAE0, size: 0x8, addend: 0x0, symName: __ZNK8facebook5react16NativeToJsBridge35getDecoratedNativeMethodCallInvokerENSt3__110shared_ptrINS0_23NativeMethodCallInvokerEEE, symObjAddr: 0xEB0, symBinAddr: 0x15B78, symSize: 0x84 }
  - { offset: 0x14B4A0, size: 0x8, addend: 0x0, symName: __ZN8facebook5react16NativeToJsBridgeC2EPNS0_17JSExecutorFactoryENSt3__110shared_ptrINS0_14ModuleRegistryEEENS5_INS0_18MessageQueueThreadEEENS5_INS0_16InstanceCallbackEEE, symObjAddr: 0x0, symBinAddr: 0x14CD8, symSize: 0x1E8 }
  - { offset: 0x14BCB9, size: 0x8, addend: 0x0, symName: __ZN8facebook5react16NativeToJsBridgeC1EPNS0_17JSExecutorFactoryENSt3__110shared_ptrINS0_14ModuleRegistryEEENS5_INS0_18MessageQueueThreadEEENS5_INS0_16InstanceCallbackEEE, symObjAddr: 0x1E8, symBinAddr: 0x14EC0, symSize: 0x4 }
  - { offset: 0x14BD22, size: 0x8, addend: 0x0, symName: __ZN8facebook5react16NativeToJsBridgeC1EPNS0_17JSExecutorFactoryENSt3__110shared_ptrINS0_14ModuleRegistryEEENS5_INS0_18MessageQueueThreadEEENS5_INS0_16InstanceCallbackEEE, symObjAddr: 0x1E8, symBinAddr: 0x14EC0, symSize: 0x4 }
  - { offset: 0x14BD72, size: 0x8, addend: 0x0, symName: __ZN8facebook5react16NativeToJsBridgeD2Ev, symObjAddr: 0x1EC, symBinAddr: 0x14EC4, symSize: 0xBC }
  - { offset: 0x14BF3C, size: 0x8, addend: 0x0, symName: __ZN8facebook5react16NativeToJsBridgeD1Ev, symObjAddr: 0x2B8, symBinAddr: 0x14F80, symSize: 0x4 }
  - { offset: 0x14BF5F, size: 0x8, addend: 0x0, symName: __ZN8facebook5react16NativeToJsBridgeD1Ev, symObjAddr: 0x2B8, symBinAddr: 0x14F80, symSize: 0x4 }
  - { offset: 0x14BF8E, size: 0x8, addend: 0x0, symName: __ZN8facebook5react16NativeToJsBridgeD0Ev, symObjAddr: 0x2BC, symBinAddr: 0x14F84, symSize: 0x14 }
  - { offset: 0x14C6E6, size: 0x8, addend: 0x0, symName: __ZNSt3__110__function12__value_funcIFvPN8facebook5react10JSExecutorEEEC2B8ne200100EOS7_, symObjAddr: 0x2E84, symBinAddr: 0x173D8, symSize: 0x64 }
  - { offset: 0x14CC17, size: 0x8, addend: 0x0, symName: '__ZZN8facebook5react16NativeToJsBridge10loadBundleENSt3__110unique_ptrINS0_17RAMBundleRegistryENS2_14default_deleteIS4_EEEENS3_IKNS0_11JSBigStringENS5_IS9_EEEENS2_12basic_stringIcNS2_11char_traitsIcEENS2_9allocatorIcEEEEEN3$_0D1Ev', symObjAddr: 0x650, symBinAddr: 0x15318, symSize: 0x60 }
  - { offset: 0x14D185, size: 0x8, addend: 0x0, symName: __ZN8facebook5react16NativeToJsBridge14loadBundleSyncENSt3__110unique_ptrINS0_17RAMBundleRegistryENS2_14default_deleteIS4_EEEENS3_IKNS0_11JSBigStringENS5_IS9_EEEENS2_12basic_stringIcNS2_11char_traitsIcEENS2_9allocatorIcEEEE, symObjAddr: 0x6B0, symBinAddr: 0x15378, symSize: 0x13C }
  - { offset: 0x14D79D, size: 0x8, addend: 0x0, symName: __ZN8facebook5react16NativeToJsBridge14loadBundleSyncENSt3__110unique_ptrINS0_17RAMBundleRegistryENS2_14default_deleteIS4_EEEENS3_IKNS0_11JSBigStringENS5_IS9_EEEENS2_12basic_stringIcNS2_11char_traitsIcEENS2_9allocatorIcEEEE.cold.1, symObjAddr: 0x3440, symBinAddr: 0x191F0, symSize: 0x24 }
  - { offset: 0x14DB4A, size: 0x8, addend: 0x0, symName: '__ZZN8facebook5react16NativeToJsBridge12callFunctionEONSt3__112basic_stringIcNS2_11char_traitsIcEENS2_9allocatorIcEEEES9_ON5folly7dynamicEEN3$_0D1Ev', symObjAddr: 0x964, symBinAddr: 0x1562C, symSize: 0x48 }
  - { offset: 0x14E9A6, size: 0x8, addend: 0x0, symName: __ZN8facebook5react16NativeToJsBridge20getJavaScriptContextEv, symObjAddr: 0xD0C, symBinAddr: 0x159D4, symSize: 0x10 }
  - { offset: 0x14E9D2, size: 0x8, addend: 0x0, symName: __ZN8facebook5react16NativeToJsBridge20getJavaScriptContextEv, symObjAddr: 0xD0C, symBinAddr: 0x159D4, symSize: 0x10 }
  - { offset: 0x14E9FB, size: 0x8, addend: 0x0, symName: __ZN8facebook5react16NativeToJsBridge13isInspectableEv, symObjAddr: 0xD1C, symBinAddr: 0x159E4, symSize: 0x8 }
  - { offset: 0x14EA9C, size: 0x8, addend: 0x0, symName: __ZN8facebook5react16NativeToJsBridge13isBatchActiveEv, symObjAddr: 0xD24, symBinAddr: 0x159EC, symSize: 0x14 }
  - { offset: 0x14EAC8, size: 0x8, addend: 0x0, symName: __ZN8facebook5react16NativeToJsBridge13isBatchActiveEv, symObjAddr: 0xD24, symBinAddr: 0x159EC, symSize: 0x14 }
  - { offset: 0x14F387, size: 0x8, addend: 0x0, symName: __ZN8facebook5react16NativeToJsBridge26getInspectorTargetDelegateEv, symObjAddr: 0xF34, symBinAddr: 0x15BFC, symSize: 0x10 }
  - { offset: 0x14F3B3, size: 0x8, addend: 0x0, symName: __ZN8facebook5react16NativeToJsBridge26getInspectorTargetDelegateEv, symObjAddr: 0xF34, symBinAddr: 0x15BFC, symSize: 0x10 }
  - { offset: 0x14F93B, size: 0x8, addend: 0x0, symName: __ZNSt3__120__shared_ptr_emplaceIbNS_9allocatorIbEEED1Ev, symObjAddr: 0x138C, symBinAddr: 0x15C0C, symSize: 0x14 }
  - { offset: 0x14F9FC, size: 0x8, addend: 0x0, symName: __ZNSt3__120__shared_ptr_emplaceIbNS_9allocatorIbEEED1Ev, symObjAddr: 0x138C, symBinAddr: 0x15C0C, symSize: 0x14 }
  - { offset: 0x14FA1E, size: 0x8, addend: 0x0, symName: __ZNSt3__120__shared_ptr_emplaceIbNS_9allocatorIbEEED1Ev, symObjAddr: 0x138C, symBinAddr: 0x15C0C, symSize: 0x14 }
  - { offset: 0x14FA54, size: 0x8, addend: 0x0, symName: __ZNSt3__120__shared_ptr_emplaceIbNS_9allocatorIbEEED0Ev, symObjAddr: 0x13A0, symBinAddr: 0x15C20, symSize: 0x24 }
  - { offset: 0x14FAB7, size: 0x8, addend: 0x0, symName: __ZNSt3__120__shared_ptr_emplaceIbNS_9allocatorIbEEE16__on_zero_sharedEv, symObjAddr: 0x13C4, symBinAddr: 0x15C44, symSize: 0x4 }
  - { offset: 0x14FB3C, size: 0x8, addend: 0x0, symName: __ZNSt3__120__shared_ptr_emplaceIbNS_9allocatorIbEEE21__on_zero_shared_weakEv, symObjAddr: 0x13C8, symBinAddr: 0x15C48, symSize: 0x4 }
  - { offset: 0x14FB6F, size: 0x8, addend: 0x0, symName: __ZNSt3__120__shared_ptr_emplaceIbNS_9allocatorIbEEE21__on_zero_shared_weakEv, symObjAddr: 0x13C8, symBinAddr: 0x15C48, symSize: 0x4 }
  - { offset: 0x14FB90, size: 0x8, addend: 0x0, symName: __ZNSt3__120__shared_ptr_emplaceIbNS_9allocatorIbEEE21__on_zero_shared_weakEv, symObjAddr: 0x13C8, symBinAddr: 0x15C48, symSize: 0x4 }
  - { offset: 0x14FBB2, size: 0x8, addend: 0x0, symName: __ZNSt3__120__shared_ptr_emplaceIbNS_9allocatorIbEEE21__on_zero_shared_weakEv, symObjAddr: 0x13C8, symBinAddr: 0x15C48, symSize: 0x4 }
  - { offset: 0x14FBE5, size: 0x8, addend: 0x0, symName: __ZNSt3__120__shared_ptr_emplaceIbNS_9allocatorIbEEE21__on_zero_shared_weakEv, symObjAddr: 0x13C8, symBinAddr: 0x15C48, symSize: 0x4 }
  - { offset: 0x14FE58, size: 0x8, addend: 0x0, symName: __ZNSt3__120__shared_ptr_emplaceIN8facebook5react16JsToNativeBridgeENS_9allocatorIS3_EEEC2B8ne200100IJRNS_10shared_ptrINS2_14ModuleRegistryEEERNS8_INS2_16InstanceCallbackEEEES5_Li0EEES5_DpOT_, symObjAddr: 0x1484, symBinAddr: 0x15CAC, symSize: 0x4C }
  - { offset: 0x150023, size: 0x8, addend: 0x0, symName: __ZNSt3__120__shared_ptr_emplaceIN8facebook5react16JsToNativeBridgeENS_9allocatorIS3_EEED1Ev, symObjAddr: 0x14D0, symBinAddr: 0x15CF8, symSize: 0x14 }
  - { offset: 0x150045, size: 0x8, addend: 0x0, symName: __ZNSt3__120__shared_ptr_emplaceIN8facebook5react16JsToNativeBridgeENS_9allocatorIS3_EEED1Ev, symObjAddr: 0x14D0, symBinAddr: 0x15CF8, symSize: 0x14 }
  - { offset: 0x15007B, size: 0x8, addend: 0x0, symName: __ZNSt3__120__shared_ptr_emplaceIN8facebook5react16JsToNativeBridgeENS_9allocatorIS3_EEED0Ev, symObjAddr: 0x14E4, symBinAddr: 0x15D0C, symSize: 0x24 }
  - { offset: 0x150148, size: 0x8, addend: 0x0, symName: __ZNSt3__120__shared_ptr_emplaceIN8facebook5react16JsToNativeBridgeENS_9allocatorIS3_EEE16__on_zero_sharedEv, symObjAddr: 0x1508, symBinAddr: 0x15D30, symSize: 0xC }
  - { offset: 0x150171, size: 0x8, addend: 0x0, symName: __ZNSt3__120__shared_ptr_emplaceIN8facebook5react16JsToNativeBridgeENS_9allocatorIS3_EEE16__on_zero_sharedEv, symObjAddr: 0x1508, symBinAddr: 0x15D30, symSize: 0xC }
  - { offset: 0x15018E, size: 0x8, addend: 0x0, symName: __ZNSt3__120__shared_ptr_emplaceIN8facebook5react16JsToNativeBridgeENS_9allocatorIS3_EEE16__on_zero_sharedEv, symObjAddr: 0x1508, symBinAddr: 0x15D30, symSize: 0xC }
  - { offset: 0x1501AB, size: 0x8, addend: 0x0, symName: __ZNSt3__120__shared_ptr_emplaceIN8facebook5react16JsToNativeBridgeENS_9allocatorIS3_EEE16__on_zero_sharedEv, symObjAddr: 0x1508, symBinAddr: 0x15D30, symSize: 0xC }
  - { offset: 0x1501D6, size: 0x8, addend: 0x0, symName: __ZNSt3__120__shared_ptr_emplaceIN8facebook5react16JsToNativeBridgeENS_9allocatorIS3_EEE21__on_zero_shared_weakEv, symObjAddr: 0x1514, symBinAddr: 0x15D3C, symSize: 0x4 }
  - { offset: 0x150209, size: 0x8, addend: 0x0, symName: __ZNSt3__120__shared_ptr_emplaceIN8facebook5react16JsToNativeBridgeENS_9allocatorIS3_EEE21__on_zero_shared_weakEv, symObjAddr: 0x1514, symBinAddr: 0x15D3C, symSize: 0x4 }
  - { offset: 0x15022A, size: 0x8, addend: 0x0, symName: __ZNSt3__120__shared_ptr_emplaceIN8facebook5react16JsToNativeBridgeENS_9allocatorIS3_EEE21__on_zero_shared_weakEv, symObjAddr: 0x1514, symBinAddr: 0x15D3C, symSize: 0x4 }
  - { offset: 0x15024C, size: 0x8, addend: 0x0, symName: __ZNSt3__120__shared_ptr_emplaceIN8facebook5react16JsToNativeBridgeENS_9allocatorIS3_EEE21__on_zero_shared_weakEv, symObjAddr: 0x1514, symBinAddr: 0x15D3C, symSize: 0x4 }
  - { offset: 0x15027F, size: 0x8, addend: 0x0, symName: __ZNSt3__120__shared_ptr_emplaceIN8facebook5react16JsToNativeBridgeENS_9allocatorIS3_EEE21__on_zero_shared_weakEv, symObjAddr: 0x1514, symBinAddr: 0x15D3C, symSize: 0x4 }
  - { offset: 0x150523, size: 0x8, addend: 0x0, symName: __ZN8facebook5react16JsToNativeBridgeD1Ev, symObjAddr: 0x162C, symBinAddr: 0x15E54, symSize: 0x44 }
  - { offset: 0x150677, size: 0x8, addend: 0x0, symName: __ZN8facebook5react16JsToNativeBridgeD0Ev, symObjAddr: 0x1670, symBinAddr: 0x15E98, symSize: 0x44 }
  - { offset: 0x15072E, size: 0x8, addend: 0x0, symName: __ZN8facebook5react16JsToNativeBridge17getModuleRegistryEv, symObjAddr: 0x16B4, symBinAddr: 0x15EDC, symSize: 0x24 }
  - { offset: 0x150755, size: 0x8, addend: 0x0, symName: __ZN8facebook5react16JsToNativeBridge17getModuleRegistryEv, symObjAddr: 0x16B4, symBinAddr: 0x15EDC, symSize: 0x24 }
  - { offset: 0x15077B, size: 0x8, addend: 0x0, symName: __ZN8facebook5react16JsToNativeBridge17getModuleRegistryEv, symObjAddr: 0x16B4, symBinAddr: 0x15EDC, symSize: 0x24 }
  - { offset: 0x1509E8, size: 0x8, addend: 0x0, symName: __ZN8facebook5react16JsToNativeBridge17callNativeModulesERNS0_10JSExecutorEON5folly7dynamicEb, symObjAddr: 0x16D8, symBinAddr: 0x15F00, symSize: 0x17C }
  - { offset: 0x1510C1, size: 0x8, addend: 0x0, symName: __ZN8facebook5react16JsToNativeBridge26callSerializableNativeHookERNS0_10JSExecutorEjjON5folly7dynamicE, symObjAddr: 0x1854, symBinAddr: 0x1607C, symSize: 0x14 }
  - { offset: 0x151260, size: 0x8, addend: 0x0, symName: '__ZNSt3__110__function6__funcIZN8facebook5react16NativeToJsBridge17initializeRuntimeEvE3$_0NS_9allocatorIS5_EEFvPNS3_10JSExecutorEEED1Ev', symObjAddr: 0x1A94, symBinAddr: 0x16090, symSize: 0x4 }
  - { offset: 0x15128C, size: 0x8, addend: 0x0, symName: '__ZNSt3__110__function6__funcIZN8facebook5react16NativeToJsBridge17initializeRuntimeEvE3$_0NS_9allocatorIS5_EEFvPNS3_10JSExecutorEEED0Ev', symObjAddr: 0x1A98, symBinAddr: 0x16094, symSize: 0x4 }
  - { offset: 0x151346, size: 0x8, addend: 0x0, symName: '__ZNKSt3__110__function6__funcIZN8facebook5react16NativeToJsBridge17initializeRuntimeEvE3$_0NS_9allocatorIS5_EEFvPNS3_10JSExecutorEEE7__cloneEv', symObjAddr: 0x1A9C, symBinAddr: 0x16098, symSize: 0x24 }
  - { offset: 0x151493, size: 0x8, addend: 0x0, symName: '__ZNKSt3__110__function6__funcIZN8facebook5react16NativeToJsBridge17initializeRuntimeEvE3$_0NS_9allocatorIS5_EEFvPNS3_10JSExecutorEEE7__cloneEPNS0_6__baseISA_EE', symObjAddr: 0x1AC0, symBinAddr: 0x160BC, symSize: 0x10 }
  - { offset: 0x1514C7, size: 0x8, addend: 0x0, symName: '__ZNKSt3__110__function6__funcIZN8facebook5react16NativeToJsBridge17initializeRuntimeEvE3$_0NS_9allocatorIS5_EEFvPNS3_10JSExecutorEEE7__cloneEPNS0_6__baseISA_EE', symObjAddr: 0x1AC0, symBinAddr: 0x160BC, symSize: 0x10 }
  - { offset: 0x1514E3, size: 0x8, addend: 0x0, symName: '__ZNKSt3__110__function6__funcIZN8facebook5react16NativeToJsBridge17initializeRuntimeEvE3$_0NS_9allocatorIS5_EEFvPNS3_10JSExecutorEEE7__cloneEPNS0_6__baseISA_EE', symObjAddr: 0x1AC0, symBinAddr: 0x160BC, symSize: 0x10 }
  - { offset: 0x1514FF, size: 0x8, addend: 0x0, symName: '__ZNSt3__110__function6__funcIZN8facebook5react16NativeToJsBridge17initializeRuntimeEvE3$_0NS_9allocatorIS5_EEFvPNS3_10JSExecutorEEE7destroyEv', symObjAddr: 0x1AD0, symBinAddr: 0x160CC, symSize: 0x4 }
  - { offset: 0x151553, size: 0x8, addend: 0x0, symName: '__ZNSt3__110__function6__funcIZN8facebook5react16NativeToJsBridge17initializeRuntimeEvE3$_0NS_9allocatorIS5_EEFvPNS3_10JSExecutorEEE18destroy_deallocateEv', symObjAddr: 0x1AD4, symBinAddr: 0x160D0, symSize: 0x4 }
  - { offset: 0x151587, size: 0x8, addend: 0x0, symName: '__ZNSt3__110__function6__funcIZN8facebook5react16NativeToJsBridge17initializeRuntimeEvE3$_0NS_9allocatorIS5_EEFvPNS3_10JSExecutorEEE18destroy_deallocateEv', symObjAddr: 0x1AD4, symBinAddr: 0x160D0, symSize: 0x4 }
  - { offset: 0x1515A9, size: 0x8, addend: 0x0, symName: '__ZNSt3__110__function6__funcIZN8facebook5react16NativeToJsBridge17initializeRuntimeEvE3$_0NS_9allocatorIS5_EEFvPNS3_10JSExecutorEEE18destroy_deallocateEv', symObjAddr: 0x1AD4, symBinAddr: 0x160D0, symSize: 0x4 }
  - { offset: 0x1515DB, size: 0x8, addend: 0x0, symName: '__ZNSt3__110__function6__funcIZN8facebook5react16NativeToJsBridge17initializeRuntimeEvE3$_0NS_9allocatorIS5_EEFvPNS3_10JSExecutorEEE18destroy_deallocateEv', symObjAddr: 0x1AD4, symBinAddr: 0x160D0, symSize: 0x4 }
  - { offset: 0x151682, size: 0x8, addend: 0x0, symName: '__ZNSt3__110__function6__funcIZN8facebook5react16NativeToJsBridge17initializeRuntimeEvE3$_0NS_9allocatorIS5_EEFvPNS3_10JSExecutorEEEclEOS9_', symObjAddr: 0x1AD8, symBinAddr: 0x160D4, symSize: 0x10 }
  - { offset: 0x1516B8, size: 0x8, addend: 0x0, symName: '__ZNSt3__110__function6__funcIZN8facebook5react16NativeToJsBridge17initializeRuntimeEvE3$_0NS_9allocatorIS5_EEFvPNS3_10JSExecutorEEEclEOS9_', symObjAddr: 0x1AD8, symBinAddr: 0x160D4, symSize: 0x10 }
  - { offset: 0x1516D6, size: 0x8, addend: 0x0, symName: '__ZNSt3__110__function6__funcIZN8facebook5react16NativeToJsBridge17initializeRuntimeEvE3$_0NS_9allocatorIS5_EEFvPNS3_10JSExecutorEEEclEOS9_', symObjAddr: 0x1AD8, symBinAddr: 0x160D4, symSize: 0x10 }
  - { offset: 0x1516F3, size: 0x8, addend: 0x0, symName: '__ZNSt3__110__function6__funcIZN8facebook5react16NativeToJsBridge17initializeRuntimeEvE3$_0NS_9allocatorIS5_EEFvPNS3_10JSExecutorEEEclEOS9_', symObjAddr: 0x1AD8, symBinAddr: 0x160D4, symSize: 0x10 }
  - { offset: 0x151711, size: 0x8, addend: 0x0, symName: '__ZNSt3__110__function6__funcIZN8facebook5react16NativeToJsBridge17initializeRuntimeEvE3$_0NS_9allocatorIS5_EEFvPNS3_10JSExecutorEEEclEOS9_', symObjAddr: 0x1AD8, symBinAddr: 0x160D4, symSize: 0x10 }
  - { offset: 0x151758, size: 0x8, addend: 0x0, symName: '__ZNKSt3__110__function6__funcIZN8facebook5react16NativeToJsBridge17initializeRuntimeEvE3$_0NS_9allocatorIS5_EEFvPNS3_10JSExecutorEEE6targetERKSt9type_info', symObjAddr: 0x1AE8, symBinAddr: 0x160E4, symSize: 0x3C }
  - { offset: 0x15180B, size: 0x8, addend: 0x0, symName: '__ZNKSt3__110__function6__funcIZN8facebook5react16NativeToJsBridge17initializeRuntimeEvE3$_0NS_9allocatorIS5_EEFvPNS3_10JSExecutorEEE11target_typeEv', symObjAddr: 0x1B24, symBinAddr: 0x16120, symSize: 0xC }
  - { offset: 0x1518E7, size: 0x8, addend: 0x0, symName: '__ZNSt3__110__function6__funcIZN8facebook5react16NativeToJsBridge10loadBundleENS_10unique_ptrINS3_17RAMBundleRegistryENS_14default_deleteIS6_EEEENS5_IKNS3_11JSBigStringENS7_ISB_EEEENS_12basic_stringIcNS_11char_traitsIcEENS_9allocatorIcEEEEE3$_0NSH_ISK_EEFvPNS3_10JSExecutorEEED1Ev', symObjAddr: 0x1B7C, symBinAddr: 0x1612C, symSize: 0x6C }
  - { offset: 0x151C71, size: 0x8, addend: 0x0, symName: '__ZNSt3__110__function6__funcIZN8facebook5react16NativeToJsBridge10loadBundleENS_10unique_ptrINS3_17RAMBundleRegistryENS_14default_deleteIS6_EEEENS5_IKNS3_11JSBigStringENS7_ISB_EEEENS_12basic_stringIcNS_11char_traitsIcEENS_9allocatorIcEEEEE3$_0NSH_ISK_EEFvPNS3_10JSExecutorEEED0Ev', symObjAddr: 0x1BE8, symBinAddr: 0x16198, symSize: 0x6C }
  - { offset: 0x1522C6, size: 0x8, addend: 0x0, symName: '__ZNKSt3__110__function6__funcIZN8facebook5react16NativeToJsBridge10loadBundleENS_10unique_ptrINS3_17RAMBundleRegistryENS_14default_deleteIS6_EEEENS5_IKNS3_11JSBigStringENS7_ISB_EEEENS_12basic_stringIcNS_11char_traitsIcEENS_9allocatorIcEEEEE3$_0NSH_ISK_EEFvPNS3_10JSExecutorEEE7__cloneEv', symObjAddr: 0x1C54, symBinAddr: 0x16204, symSize: 0xA8 }
  - { offset: 0x152801, size: 0x8, addend: 0x0, symName: '__ZNKSt3__110__function6__funcIZN8facebook5react16NativeToJsBridge10loadBundleENS_10unique_ptrINS3_17RAMBundleRegistryENS_14default_deleteIS6_EEEENS5_IKNS3_11JSBigStringENS7_ISB_EEEENS_12basic_stringIcNS_11char_traitsIcEENS_9allocatorIcEEEEE3$_0NSH_ISK_EEFvPNS3_10JSExecutorEEE7__cloneEv.cold.1', symObjAddr: 0x3464, symBinAddr: 0x19214, symSize: 0x18 }
  - { offset: 0x1529DD, size: 0x8, addend: 0x0, symName: '__ZNKSt3__110__function6__funcIZN8facebook5react16NativeToJsBridge10loadBundleENS_10unique_ptrINS3_17RAMBundleRegistryENS_14default_deleteIS6_EEEENS5_IKNS3_11JSBigStringENS7_ISB_EEEENS_12basic_stringIcNS_11char_traitsIcEENS_9allocatorIcEEEEE3$_0NSH_ISK_EEFvPNS3_10JSExecutorEEE7__cloneEPNS0_6__baseISO_EE', symObjAddr: 0x1CFC, symBinAddr: 0x162AC, symSize: 0x94 }
  - { offset: 0x152E90, size: 0x8, addend: 0x0, symName: '__ZNSt3__110__function6__funcIZN8facebook5react16NativeToJsBridge10loadBundleENS_10unique_ptrINS3_17RAMBundleRegistryENS_14default_deleteIS6_EEEENS5_IKNS3_11JSBigStringENS7_ISB_EEEENS_12basic_stringIcNS_11char_traitsIcEENS_9allocatorIcEEEEE3$_0NSH_ISK_EEFvPNS3_10JSExecutorEEE7destroyEv', symObjAddr: 0x1D90, symBinAddr: 0x16340, symSize: 0x8 }
  - { offset: 0x152EC5, size: 0x8, addend: 0x0, symName: '__ZNSt3__110__function12__alloc_funcIZN8facebook5react16NativeToJsBridge10loadBundleENS_10unique_ptrINS3_17RAMBundleRegistryENS_14default_deleteIS6_EEEENS5_IKNS3_11JSBigStringENS7_ISB_EEEENS_12basic_stringIcNS_11char_traitsIcEENS_9allocatorIcEEEEE3$_0NSH_ISK_EEFvPNS3_10JSExecutorEEE7destroyB8ne200100Ev', symObjAddr: 0x1F3C, symBinAddr: 0x164EC, symSize: 0x64 }
  - { offset: 0x1531D5, size: 0x8, addend: 0x0, symName: '__ZNSt3__110__function6__funcIZN8facebook5react16NativeToJsBridge10loadBundleENS_10unique_ptrINS3_17RAMBundleRegistryENS_14default_deleteIS6_EEEENS5_IKNS3_11JSBigStringENS7_ISB_EEEENS_12basic_stringIcNS_11char_traitsIcEENS_9allocatorIcEEEEE3$_0NSH_ISK_EEFvPNS3_10JSExecutorEEE18destroy_deallocateEv', symObjAddr: 0x1D98, symBinAddr: 0x16348, symSize: 0x28 }
  - { offset: 0x153321, size: 0x8, addend: 0x0, symName: '__ZNSt3__110__function6__funcIZN8facebook5react16NativeToJsBridge10loadBundleENS_10unique_ptrINS3_17RAMBundleRegistryENS_14default_deleteIS6_EEEENS5_IKNS3_11JSBigStringENS7_ISB_EEEENS_12basic_stringIcNS_11char_traitsIcEENS_9allocatorIcEEEEE3$_0NSH_ISK_EEFvPNS3_10JSExecutorEEEclEOSN_', symObjAddr: 0x1DC0, symBinAddr: 0x16370, symSize: 0x134 }
  - { offset: 0x1539F3, size: 0x8, addend: 0x0, symName: '__ZNKSt3__110__function6__funcIZN8facebook5react16NativeToJsBridge10loadBundleENS_10unique_ptrINS3_17RAMBundleRegistryENS_14default_deleteIS6_EEEENS5_IKNS3_11JSBigStringENS7_ISB_EEEENS_12basic_stringIcNS_11char_traitsIcEENS_9allocatorIcEEEEE3$_0NSH_ISK_EEFvPNS3_10JSExecutorEEE6targetERKSt9type_info', symObjAddr: 0x1EF4, symBinAddr: 0x164A4, symSize: 0x3C }
  - { offset: 0x153A40, size: 0x8, addend: 0x0, symName: '__ZNKSt3__110__function6__funcIZN8facebook5react16NativeToJsBridge10loadBundleENS_10unique_ptrINS3_17RAMBundleRegistryENS_14default_deleteIS6_EEEENS5_IKNS3_11JSBigStringENS7_ISB_EEEENS_12basic_stringIcNS_11char_traitsIcEENS_9allocatorIcEEEEE3$_0NSH_ISK_EEFvPNS3_10JSExecutorEEE11target_typeEv', symObjAddr: 0x1F30, symBinAddr: 0x164E0, symSize: 0xC }
  - { offset: 0x153AB8, size: 0x8, addend: 0x0, symName: '__ZNSt3__110__function6__funcIZN8facebook5react16NativeToJsBridge12callFunctionEONS_12basic_stringIcNS_11char_traitsIcEENS_9allocatorIcEEEESB_ON5folly7dynamicEE3$_0NS8_ISF_EEFvPNS3_10JSExecutorEEED1Ev', symObjAddr: 0x1FA0, symBinAddr: 0x16550, symSize: 0x50 }
  - { offset: 0x153DC1, size: 0x8, addend: 0x0, symName: '__ZNSt3__110__function6__funcIZN8facebook5react16NativeToJsBridge12callFunctionEONS_12basic_stringIcNS_11char_traitsIcEENS_9allocatorIcEEEESB_ON5folly7dynamicEE3$_0NS8_ISF_EEFvPNS3_10JSExecutorEEED0Ev', symObjAddr: 0x1FF0, symBinAddr: 0x165A0, symSize: 0x50 }
  - { offset: 0x154301, size: 0x8, addend: 0x0, symName: '__ZNKSt3__110__function6__funcIZN8facebook5react16NativeToJsBridge12callFunctionEONS_12basic_stringIcNS_11char_traitsIcEENS_9allocatorIcEEEESB_ON5folly7dynamicEE3$_0NS8_ISF_EEFvPNS3_10JSExecutorEEE7__cloneEv', symObjAddr: 0x2040, symBinAddr: 0x165F0, symSize: 0xE4 }
  - { offset: 0x15486F, size: 0x8, addend: 0x0, symName: '__ZNKSt3__110__function6__funcIZN8facebook5react16NativeToJsBridge12callFunctionEONS_12basic_stringIcNS_11char_traitsIcEENS_9allocatorIcEEEESB_ON5folly7dynamicEE3$_0NS8_ISF_EEFvPNS3_10JSExecutorEEE7__cloneEPNS0_6__baseISJ_EE', symObjAddr: 0x2124, symBinAddr: 0x166D4, symSize: 0xC8 }
  - { offset: 0x154BDE, size: 0x8, addend: 0x0, symName: '__ZNSt3__110__function6__funcIZN8facebook5react16NativeToJsBridge12callFunctionEONS_12basic_stringIcNS_11char_traitsIcEENS_9allocatorIcEEEESB_ON5folly7dynamicEE3$_0NS8_ISF_EEFvPNS3_10JSExecutorEEE7destroyEv', symObjAddr: 0x21EC, symBinAddr: 0x1679C, symSize: 0x8 }
  - { offset: 0x154C13, size: 0x8, addend: 0x0, symName: '__ZNSt3__110__function12__alloc_funcIZN8facebook5react16NativeToJsBridge12callFunctionEONS_12basic_stringIcNS_11char_traitsIcEENS_9allocatorIcEEEESB_ON5folly7dynamicEE3$_0NS8_ISF_EEFvPNS3_10JSExecutorEEE7destroyB8ne200100Ev', symObjAddr: 0x24CC, symBinAddr: 0x16A7C, symSize: 0x4C }
  - { offset: 0x154E7C, size: 0x8, addend: 0x0, symName: '__ZNSt3__110__function6__funcIZN8facebook5react16NativeToJsBridge12callFunctionEONS_12basic_stringIcNS_11char_traitsIcEENS_9allocatorIcEEEESB_ON5folly7dynamicEE3$_0NS8_ISF_EEFvPNS3_10JSExecutorEEE18destroy_deallocateEv', symObjAddr: 0x21F4, symBinAddr: 0x167A4, symSize: 0x28 }
  - { offset: 0x15503E, size: 0x8, addend: 0x0, symName: '__ZNSt3__110__function6__funcIZN8facebook5react16NativeToJsBridge12callFunctionEONS_12basic_stringIcNS_11char_traitsIcEENS_9allocatorIcEEEESB_ON5folly7dynamicEE3$_0NS8_ISF_EEFvPNS3_10JSExecutorEEEclEOSI_', symObjAddr: 0x221C, symBinAddr: 0x167CC, symSize: 0x268 }
  - { offset: 0x1558F3, size: 0x8, addend: 0x0, symName: '__ZNKSt3__110__function6__funcIZN8facebook5react16NativeToJsBridge12callFunctionEONS_12basic_stringIcNS_11char_traitsIcEENS_9allocatorIcEEEESB_ON5folly7dynamicEE3$_0NS8_ISF_EEFvPNS3_10JSExecutorEEE6targetERKSt9type_info', symObjAddr: 0x2484, symBinAddr: 0x16A34, symSize: 0x3C }
  - { offset: 0x155940, size: 0x8, addend: 0x0, symName: '__ZNKSt3__110__function6__funcIZN8facebook5react16NativeToJsBridge12callFunctionEONS_12basic_stringIcNS_11char_traitsIcEENS_9allocatorIcEEEESB_ON5folly7dynamicEE3$_0NS8_ISF_EEFvPNS3_10JSExecutorEEE11target_typeEv', symObjAddr: 0x24C0, symBinAddr: 0x16A70, symSize: 0xC }
  - { offset: 0x1559DB, size: 0x8, addend: 0x0, symName: '__ZNSt3__110__function6__funcIZN8facebook5react16NativeToJsBridge14invokeCallbackEdON5folly7dynamicEE3$_0NS_9allocatorIS8_EEFvPNS3_10JSExecutorEEED1Ev', symObjAddr: 0x2574, symBinAddr: 0x16AC8, symSize: 0x30 }
  - { offset: 0x155AE9, size: 0x8, addend: 0x0, symName: '__ZNSt3__110__function6__funcIZN8facebook5react16NativeToJsBridge14invokeCallbackEdON5folly7dynamicEE3$_0NS_9allocatorIS8_EEFvPNS3_10JSExecutorEEED0Ev', symObjAddr: 0x25A4, symBinAddr: 0x16AF8, symSize: 0x30 }
  - { offset: 0x155E2E, size: 0x8, addend: 0x0, symName: '__ZNKSt3__110__function6__funcIZN8facebook5react16NativeToJsBridge14invokeCallbackEdON5folly7dynamicEE3$_0NS_9allocatorIS8_EEFvPNS3_10JSExecutorEEE7__cloneEv', symObjAddr: 0x25D4, symBinAddr: 0x16B28, symSize: 0x68 }
  - { offset: 0x156172, size: 0x8, addend: 0x0, symName: '__ZNKSt3__110__function6__funcIZN8facebook5react16NativeToJsBridge14invokeCallbackEdON5folly7dynamicEE3$_0NS_9allocatorIS8_EEFvPNS3_10JSExecutorEEE7__cloneEPNS0_6__baseISD_EE', symObjAddr: 0x263C, symBinAddr: 0x16B90, symSize: 0x48 }
  - { offset: 0x1562CD, size: 0x8, addend: 0x0, symName: '__ZNSt3__110__function6__funcIZN8facebook5react16NativeToJsBridge14invokeCallbackEdON5folly7dynamicEE3$_0NS_9allocatorIS8_EEFvPNS3_10JSExecutorEEE7destroyEv', symObjAddr: 0x2684, symBinAddr: 0x16BD8, symSize: 0x8 }
  - { offset: 0x1562F6, size: 0x8, addend: 0x0, symName: '__ZNSt3__110__function6__funcIZN8facebook5react16NativeToJsBridge14invokeCallbackEdON5folly7dynamicEE3$_0NS_9allocatorIS8_EEFvPNS3_10JSExecutorEEE7destroyEv', symObjAddr: 0x2684, symBinAddr: 0x16BD8, symSize: 0x8 }
  - { offset: 0x156314, size: 0x8, addend: 0x0, symName: '__ZNSt3__110__function6__funcIZN8facebook5react16NativeToJsBridge14invokeCallbackEdON5folly7dynamicEE3$_0NS_9allocatorIS8_EEFvPNS3_10JSExecutorEEE7destroyEv', symObjAddr: 0x2684, symBinAddr: 0x16BD8, symSize: 0x8 }
  - { offset: 0x156331, size: 0x8, addend: 0x0, symName: '__ZNSt3__110__function6__funcIZN8facebook5react16NativeToJsBridge14invokeCallbackEdON5folly7dynamicEE3$_0NS_9allocatorIS8_EEFvPNS3_10JSExecutorEEE7destroyEv', symObjAddr: 0x2684, symBinAddr: 0x16BD8, symSize: 0x8 }
  - { offset: 0x156379, size: 0x8, addend: 0x0, symName: '__ZNSt3__110__function6__funcIZN8facebook5react16NativeToJsBridge14invokeCallbackEdON5folly7dynamicEE3$_0NS_9allocatorIS8_EEFvPNS3_10JSExecutorEEE18destroy_deallocateEv', symObjAddr: 0x268C, symBinAddr: 0x16BE0, symSize: 0x28 }
  - { offset: 0x15653B, size: 0x8, addend: 0x0, symName: '__ZNSt3__110__function6__funcIZN8facebook5react16NativeToJsBridge14invokeCallbackEdON5folly7dynamicEE3$_0NS_9allocatorIS8_EEFvPNS3_10JSExecutorEEEclEOSC_', symObjAddr: 0x26B4, symBinAddr: 0x16C08, symSize: 0xE0 }
  - { offset: 0x156652, size: 0x8, addend: 0x0, symName: '__ZNKSt3__110__function6__funcIZN8facebook5react16NativeToJsBridge14invokeCallbackEdON5folly7dynamicEE3$_0NS_9allocatorIS8_EEFvPNS3_10JSExecutorEEE6targetERKSt9type_info', symObjAddr: 0x2794, symBinAddr: 0x16CE8, symSize: 0x3C }
  - { offset: 0x15669F, size: 0x8, addend: 0x0, symName: '__ZNKSt3__110__function6__funcIZN8facebook5react16NativeToJsBridge14invokeCallbackEdON5folly7dynamicEE3$_0NS_9allocatorIS8_EEFvPNS3_10JSExecutorEEE11target_typeEv', symObjAddr: 0x27D0, symBinAddr: 0x16D24, symSize: 0xC }
  - { offset: 0x156717, size: 0x8, addend: 0x0, symName: '__ZNSt3__110__function6__funcIZN8facebook5react16NativeToJsBridge14registerBundleEjRKNS_12basic_stringIcNS_11char_traitsIcEENS_9allocatorIcEEEEE3$_0NS8_ISD_EEFvPNS3_10JSExecutorEEED1Ev', symObjAddr: 0x27DC, symBinAddr: 0x16D30, symSize: 0x3C }
  - { offset: 0x1568F1, size: 0x8, addend: 0x0, symName: '__ZNSt3__110__function6__funcIZN8facebook5react16NativeToJsBridge14registerBundleEjRKNS_12basic_stringIcNS_11char_traitsIcEENS_9allocatorIcEEEEE3$_0NS8_ISD_EEFvPNS3_10JSExecutorEEED0Ev', symObjAddr: 0x2818, symBinAddr: 0x16D6C, symSize: 0x3C }
  - { offset: 0x156C7C, size: 0x8, addend: 0x0, symName: '__ZNKSt3__110__function6__funcIZN8facebook5react16NativeToJsBridge14registerBundleEjRKNS_12basic_stringIcNS_11char_traitsIcEENS_9allocatorIcEEEEE3$_0NS8_ISD_EEFvPNS3_10JSExecutorEEE7__cloneEv', symObjAddr: 0x2854, symBinAddr: 0x16DA8, symSize: 0x7C }
  - { offset: 0x15701B, size: 0x8, addend: 0x0, symName: '__ZNKSt3__110__function6__funcIZN8facebook5react16NativeToJsBridge14registerBundleEjRKNS_12basic_stringIcNS_11char_traitsIcEENS_9allocatorIcEEEEE3$_0NS8_ISD_EEFvPNS3_10JSExecutorEEE7__cloneEPNS0_6__baseISH_EE', symObjAddr: 0x28D0, symBinAddr: 0x16E24, symSize: 0x40 }
  - { offset: 0x1571A5, size: 0x8, addend: 0x0, symName: '__ZNSt3__110__function6__funcIZN8facebook5react16NativeToJsBridge14registerBundleEjRKNS_12basic_stringIcNS_11char_traitsIcEENS_9allocatorIcEEEEE3$_0NS8_ISD_EEFvPNS3_10JSExecutorEEE7destroyEv', symObjAddr: 0x2910, symBinAddr: 0x16E64, symSize: 0x14 }
  - { offset: 0x15723E, size: 0x8, addend: 0x0, symName: '__ZNSt3__110__function6__funcIZN8facebook5react16NativeToJsBridge14registerBundleEjRKNS_12basic_stringIcNS_11char_traitsIcEENS_9allocatorIcEEEEE3$_0NS8_ISD_EEFvPNS3_10JSExecutorEEE7destroyEv', symObjAddr: 0x2910, symBinAddr: 0x16E64, symSize: 0x14 }
  - { offset: 0x1572F7, size: 0x8, addend: 0x0, symName: '__ZNSt3__110__function6__funcIZN8facebook5react16NativeToJsBridge14registerBundleEjRKNS_12basic_stringIcNS_11char_traitsIcEENS_9allocatorIcEEEEE3$_0NS8_ISD_EEFvPNS3_10JSExecutorEEE18destroy_deallocateEv', symObjAddr: 0x2924, symBinAddr: 0x16E78, symSize: 0x30 }
  - { offset: 0x157594, size: 0x8, addend: 0x0, symName: '__ZNSt3__110__function6__funcIZN8facebook5react16NativeToJsBridge14registerBundleEjRKNS_12basic_stringIcNS_11char_traitsIcEENS_9allocatorIcEEEEE3$_0NS8_ISD_EEFvPNS3_10JSExecutorEEEclEOSG_', symObjAddr: 0x2954, symBinAddr: 0x16EA8, symSize: 0x1C }
  - { offset: 0x1575CE, size: 0x8, addend: 0x0, symName: '__ZNSt3__110__function6__funcIZN8facebook5react16NativeToJsBridge14registerBundleEjRKNS_12basic_stringIcNS_11char_traitsIcEENS_9allocatorIcEEEEE3$_0NS8_ISD_EEFvPNS3_10JSExecutorEEEclEOSG_', symObjAddr: 0x2954, symBinAddr: 0x16EA8, symSize: 0x1C }
  - { offset: 0x1575F5, size: 0x8, addend: 0x0, symName: '__ZNSt3__110__function6__funcIZN8facebook5react16NativeToJsBridge14registerBundleEjRKNS_12basic_stringIcNS_11char_traitsIcEENS_9allocatorIcEEEEE3$_0NS8_ISD_EEFvPNS3_10JSExecutorEEEclEOSG_', symObjAddr: 0x2954, symBinAddr: 0x16EA8, symSize: 0x1C }
  - { offset: 0x15761B, size: 0x8, addend: 0x0, symName: '__ZNSt3__110__function6__funcIZN8facebook5react16NativeToJsBridge14registerBundleEjRKNS_12basic_stringIcNS_11char_traitsIcEENS_9allocatorIcEEEEE3$_0NS8_ISD_EEFvPNS3_10JSExecutorEEEclEOSG_', symObjAddr: 0x2954, symBinAddr: 0x16EA8, symSize: 0x1C }
  - { offset: 0x157642, size: 0x8, addend: 0x0, symName: '__ZNSt3__110__function6__funcIZN8facebook5react16NativeToJsBridge14registerBundleEjRKNS_12basic_stringIcNS_11char_traitsIcEENS_9allocatorIcEEEEE3$_0NS8_ISD_EEFvPNS3_10JSExecutorEEEclEOSG_', symObjAddr: 0x2954, symBinAddr: 0x16EA8, symSize: 0x1C }
  - { offset: 0x15769B, size: 0x8, addend: 0x0, symName: '__ZNKSt3__110__function6__funcIZN8facebook5react16NativeToJsBridge14registerBundleEjRKNS_12basic_stringIcNS_11char_traitsIcEENS_9allocatorIcEEEEE3$_0NS8_ISD_EEFvPNS3_10JSExecutorEEE6targetERKSt9type_info', symObjAddr: 0x2970, symBinAddr: 0x16EC4, symSize: 0x3C }
  - { offset: 0x1576E8, size: 0x8, addend: 0x0, symName: '__ZNKSt3__110__function6__funcIZN8facebook5react16NativeToJsBridge14registerBundleEjRKNS_12basic_stringIcNS_11char_traitsIcEENS_9allocatorIcEEEEE3$_0NS8_ISD_EEFvPNS3_10JSExecutorEEE11target_typeEv', symObjAddr: 0x29AC, symBinAddr: 0x16F00, symSize: 0xC }
  - { offset: 0x157760, size: 0x8, addend: 0x0, symName: '__ZNSt3__110__function6__funcIZN8facebook5react16NativeToJsBridge17setGlobalVariableENS_12basic_stringIcNS_11char_traitsIcEENS_9allocatorIcEEEENS_10unique_ptrIKNS3_11JSBigStringENS_14default_deleteISD_EEEEE3$_0NS8_ISH_EEFvPNS3_10JSExecutorEEED1Ev', symObjAddr: 0x29B8, symBinAddr: 0x16F0C, symSize: 0x54 }
  - { offset: 0x157A12, size: 0x8, addend: 0x0, symName: '__ZNSt3__110__function6__funcIZN8facebook5react16NativeToJsBridge17setGlobalVariableENS_12basic_stringIcNS_11char_traitsIcEENS_9allocatorIcEEEENS_10unique_ptrIKNS3_11JSBigStringENS_14default_deleteISD_EEEEE3$_0NS8_ISH_EEFvPNS3_10JSExecutorEEED0Ev', symObjAddr: 0x2A0C, symBinAddr: 0x16F60, symSize: 0x54 }
  - { offset: 0x157EFB, size: 0x8, addend: 0x0, symName: '__ZNKSt3__110__function6__funcIZN8facebook5react16NativeToJsBridge17setGlobalVariableENS_12basic_stringIcNS_11char_traitsIcEENS_9allocatorIcEEEENS_10unique_ptrIKNS3_11JSBigStringENS_14default_deleteISD_EEEEE3$_0NS8_ISH_EEFvPNS3_10JSExecutorEEE7__cloneEv', symObjAddr: 0x2A60, symBinAddr: 0x16FB4, symSize: 0x7C }
  - { offset: 0x15833C, size: 0x8, addend: 0x0, symName: '__ZNKSt3__110__function6__funcIZN8facebook5react16NativeToJsBridge17setGlobalVariableENS_12basic_stringIcNS_11char_traitsIcEENS_9allocatorIcEEEENS_10unique_ptrIKNS3_11JSBigStringENS_14default_deleteISD_EEEEE3$_0NS8_ISH_EEFvPNS3_10JSExecutorEEE7__cloneEPNS0_6__baseISL_EE', symObjAddr: 0x2ADC, symBinAddr: 0x17030, symSize: 0x60 }
  - { offset: 0x15855A, size: 0x8, addend: 0x0, symName: '__ZNSt3__110__function6__funcIZN8facebook5react16NativeToJsBridge17setGlobalVariableENS_12basic_stringIcNS_11char_traitsIcEENS_9allocatorIcEEEENS_10unique_ptrIKNS3_11JSBigStringENS_14default_deleteISD_EEEEE3$_0NS8_ISH_EEFvPNS3_10JSExecutorEEE7destroyEv', symObjAddr: 0x2B3C, symBinAddr: 0x17090, symSize: 0x8 }
  - { offset: 0x15858F, size: 0x8, addend: 0x0, symName: '__ZNSt3__110__function12__alloc_funcIZN8facebook5react16NativeToJsBridge17setGlobalVariableENS_12basic_stringIcNS_11char_traitsIcEENS_9allocatorIcEEEENS_10unique_ptrIKNS3_11JSBigStringENS_14default_deleteISD_EEEEE3$_0NS8_ISH_EEFvPNS3_10JSExecutorEEE7destroyB8ne200100Ev', symObjAddr: 0x2C7C, symBinAddr: 0x171D0, symSize: 0x4C }
  - { offset: 0x15879D, size: 0x8, addend: 0x0, symName: '__ZNSt3__110__function6__funcIZN8facebook5react16NativeToJsBridge17setGlobalVariableENS_12basic_stringIcNS_11char_traitsIcEENS_9allocatorIcEEEENS_10unique_ptrIKNS3_11JSBigStringENS_14default_deleteISD_EEEEE3$_0NS8_ISH_EEFvPNS3_10JSExecutorEEE18destroy_deallocateEv', symObjAddr: 0x2B44, symBinAddr: 0x17098, symSize: 0x28 }
  - { offset: 0x1588DD, size: 0x8, addend: 0x0, symName: '__ZNSt3__110__function6__funcIZN8facebook5react16NativeToJsBridge17setGlobalVariableENS_12basic_stringIcNS_11char_traitsIcEENS_9allocatorIcEEEENS_10unique_ptrIKNS3_11JSBigStringENS_14default_deleteISD_EEEEE3$_0NS8_ISH_EEFvPNS3_10JSExecutorEEEclEOSK_', symObjAddr: 0x2B6C, symBinAddr: 0x170C0, symSize: 0xC8 }
  - { offset: 0x158DD1, size: 0x8, addend: 0x0, symName: '__ZNKSt3__110__function6__funcIZN8facebook5react16NativeToJsBridge17setGlobalVariableENS_12basic_stringIcNS_11char_traitsIcEENS_9allocatorIcEEEENS_10unique_ptrIKNS3_11JSBigStringENS_14default_deleteISD_EEEEE3$_0NS8_ISH_EEFvPNS3_10JSExecutorEEE6targetERKSt9type_info', symObjAddr: 0x2C34, symBinAddr: 0x17188, symSize: 0x3C }
  - { offset: 0x158E1E, size: 0x8, addend: 0x0, symName: '__ZNKSt3__110__function6__funcIZN8facebook5react16NativeToJsBridge17setGlobalVariableENS_12basic_stringIcNS_11char_traitsIcEENS_9allocatorIcEEEENS_10unique_ptrIKNS3_11JSBigStringENS_14default_deleteISD_EEEEE3$_0NS8_ISH_EEFvPNS3_10JSExecutorEEE11target_typeEv', symObjAddr: 0x2C70, symBinAddr: 0x171C4, symSize: 0xC }
  - { offset: 0x158E41, size: 0x8, addend: 0x0, symName: '__ZNSt3__110__function6__funcIZN8facebook5react16NativeToJsBridge20handleMemoryPressureEiE3$_0NS_9allocatorIS5_EEFvPNS3_10JSExecutorEEED1Ev', symObjAddr: 0x2CC8, symBinAddr: 0x1721C, symSize: 0x4 }
  - { offset: 0x158E6D, size: 0x8, addend: 0x0, symName: '__ZNSt3__110__function6__funcIZN8facebook5react16NativeToJsBridge20handleMemoryPressureEiE3$_0NS_9allocatorIS5_EEFvPNS3_10JSExecutorEEED0Ev', symObjAddr: 0x2CCC, symBinAddr: 0x17220, symSize: 0x4 }
  - { offset: 0x158F87, size: 0x8, addend: 0x0, symName: '__ZNKSt3__110__function6__funcIZN8facebook5react16NativeToJsBridge20handleMemoryPressureEiE3$_0NS_9allocatorIS5_EEFvPNS3_10JSExecutorEEE7__cloneEv', symObjAddr: 0x2CD0, symBinAddr: 0x17224, symSize: 0x38 }
  - { offset: 0x159199, size: 0x8, addend: 0x0, symName: '__ZNKSt3__110__function6__funcIZN8facebook5react16NativeToJsBridge20handleMemoryPressureEiE3$_0NS_9allocatorIS5_EEFvPNS3_10JSExecutorEEE7__cloneEPNS0_6__baseISA_EE', symObjAddr: 0x2D08, symBinAddr: 0x1725C, symSize: 0x18 }
  - { offset: 0x1591CF, size: 0x8, addend: 0x0, symName: '__ZNKSt3__110__function6__funcIZN8facebook5react16NativeToJsBridge20handleMemoryPressureEiE3$_0NS_9allocatorIS5_EEFvPNS3_10JSExecutorEEE7__cloneEPNS0_6__baseISA_EE', symObjAddr: 0x2D08, symBinAddr: 0x1725C, symSize: 0x18 }
  - { offset: 0x1591FD, size: 0x8, addend: 0x0, symName: '__ZNKSt3__110__function6__funcIZN8facebook5react16NativeToJsBridge20handleMemoryPressureEiE3$_0NS_9allocatorIS5_EEFvPNS3_10JSExecutorEEE7__cloneEPNS0_6__baseISA_EE', symObjAddr: 0x2D08, symBinAddr: 0x1725C, symSize: 0x18 }
  - { offset: 0x15928C, size: 0x8, addend: 0x0, symName: '__ZNSt3__110__function6__funcIZN8facebook5react16NativeToJsBridge20handleMemoryPressureEiE3$_0NS_9allocatorIS5_EEFvPNS3_10JSExecutorEEE7destroyEv', symObjAddr: 0x2D20, symBinAddr: 0x17274, symSize: 0x4 }
  - { offset: 0x1592E0, size: 0x8, addend: 0x0, symName: '__ZNSt3__110__function6__funcIZN8facebook5react16NativeToJsBridge20handleMemoryPressureEiE3$_0NS_9allocatorIS5_EEFvPNS3_10JSExecutorEEE18destroy_deallocateEv', symObjAddr: 0x2D24, symBinAddr: 0x17278, symSize: 0x4 }
  - { offset: 0x159314, size: 0x8, addend: 0x0, symName: '__ZNSt3__110__function6__funcIZN8facebook5react16NativeToJsBridge20handleMemoryPressureEiE3$_0NS_9allocatorIS5_EEFvPNS3_10JSExecutorEEE18destroy_deallocateEv', symObjAddr: 0x2D24, symBinAddr: 0x17278, symSize: 0x4 }
  - { offset: 0x159336, size: 0x8, addend: 0x0, symName: '__ZNSt3__110__function6__funcIZN8facebook5react16NativeToJsBridge20handleMemoryPressureEiE3$_0NS_9allocatorIS5_EEFvPNS3_10JSExecutorEEE18destroy_deallocateEv', symObjAddr: 0x2D24, symBinAddr: 0x17278, symSize: 0x4 }
  - { offset: 0x159368, size: 0x8, addend: 0x0, symName: '__ZNSt3__110__function6__funcIZN8facebook5react16NativeToJsBridge20handleMemoryPressureEiE3$_0NS_9allocatorIS5_EEFvPNS3_10JSExecutorEEE18destroy_deallocateEv', symObjAddr: 0x2D24, symBinAddr: 0x17278, symSize: 0x4 }
  - { offset: 0x159416, size: 0x8, addend: 0x0, symName: '__ZNSt3__110__function6__funcIZN8facebook5react16NativeToJsBridge20handleMemoryPressureEiE3$_0NS_9allocatorIS5_EEFvPNS3_10JSExecutorEEEclEOS9_', symObjAddr: 0x2D28, symBinAddr: 0x1727C, symSize: 0x18 }
  - { offset: 0x159450, size: 0x8, addend: 0x0, symName: '__ZNSt3__110__function6__funcIZN8facebook5react16NativeToJsBridge20handleMemoryPressureEiE3$_0NS_9allocatorIS5_EEFvPNS3_10JSExecutorEEEclEOS9_', symObjAddr: 0x2D28, symBinAddr: 0x1727C, symSize: 0x18 }
  - { offset: 0x159477, size: 0x8, addend: 0x0, symName: '__ZNSt3__110__function6__funcIZN8facebook5react16NativeToJsBridge20handleMemoryPressureEiE3$_0NS_9allocatorIS5_EEFvPNS3_10JSExecutorEEEclEOS9_', symObjAddr: 0x2D28, symBinAddr: 0x1727C, symSize: 0x18 }
  - { offset: 0x15949D, size: 0x8, addend: 0x0, symName: '__ZNSt3__110__function6__funcIZN8facebook5react16NativeToJsBridge20handleMemoryPressureEiE3$_0NS_9allocatorIS5_EEFvPNS3_10JSExecutorEEEclEOS9_', symObjAddr: 0x2D28, symBinAddr: 0x1727C, symSize: 0x18 }
  - { offset: 0x1594C4, size: 0x8, addend: 0x0, symName: '__ZNSt3__110__function6__funcIZN8facebook5react16NativeToJsBridge20handleMemoryPressureEiE3$_0NS_9allocatorIS5_EEFvPNS3_10JSExecutorEEEclEOS9_', symObjAddr: 0x2D28, symBinAddr: 0x1727C, symSize: 0x18 }
  - { offset: 0x15951D, size: 0x8, addend: 0x0, symName: '__ZNKSt3__110__function6__funcIZN8facebook5react16NativeToJsBridge20handleMemoryPressureEiE3$_0NS_9allocatorIS5_EEFvPNS3_10JSExecutorEEE6targetERKSt9type_info', symObjAddr: 0x2D40, symBinAddr: 0x17294, symSize: 0x3C }
  - { offset: 0x15956A, size: 0x8, addend: 0x0, symName: '__ZNKSt3__110__function6__funcIZN8facebook5react16NativeToJsBridge20handleMemoryPressureEiE3$_0NS_9allocatorIS5_EEFvPNS3_10JSExecutorEEE11target_typeEv', symObjAddr: 0x2D7C, symBinAddr: 0x172D0, symSize: 0xC }
  - { offset: 0x15958D, size: 0x8, addend: 0x0, symName: '__ZNSt3__110__function6__funcIZN8facebook5react16NativeToJsBridge7destroyEvE3$_0NS_9allocatorIS5_EEFvvEED1Ev', symObjAddr: 0x2D88, symBinAddr: 0x172DC, symSize: 0x4 }
  - { offset: 0x1595B9, size: 0x8, addend: 0x0, symName: '__ZNSt3__110__function6__funcIZN8facebook5react16NativeToJsBridge7destroyEvE3$_0NS_9allocatorIS5_EEFvvEED0Ev', symObjAddr: 0x2D8C, symBinAddr: 0x172E0, symSize: 0x4 }
  - { offset: 0x1596D3, size: 0x8, addend: 0x0, symName: '__ZNKSt3__110__function6__funcIZN8facebook5react16NativeToJsBridge7destroyEvE3$_0NS_9allocatorIS5_EEFvvEE7__cloneEv', symObjAddr: 0x2D90, symBinAddr: 0x172E4, symSize: 0x34 }
  - { offset: 0x1598D3, size: 0x8, addend: 0x0, symName: '__ZNKSt3__110__function6__funcIZN8facebook5react16NativeToJsBridge7destroyEvE3$_0NS_9allocatorIS5_EEFvvEE7__cloneEPNS0_6__baseIS8_EE', symObjAddr: 0x2DC4, symBinAddr: 0x17318, symSize: 0x14 }
  - { offset: 0x159909, size: 0x8, addend: 0x0, symName: '__ZNKSt3__110__function6__funcIZN8facebook5react16NativeToJsBridge7destroyEvE3$_0NS_9allocatorIS5_EEFvvEE7__cloneEPNS0_6__baseIS8_EE', symObjAddr: 0x2DC4, symBinAddr: 0x17318, symSize: 0x14 }
  - { offset: 0x159937, size: 0x8, addend: 0x0, symName: '__ZNKSt3__110__function6__funcIZN8facebook5react16NativeToJsBridge7destroyEvE3$_0NS_9allocatorIS5_EEFvvEE7__cloneEPNS0_6__baseIS8_EE', symObjAddr: 0x2DC4, symBinAddr: 0x17318, symSize: 0x14 }
  - { offset: 0x159965, size: 0x8, addend: 0x0, symName: '__ZNKSt3__110__function6__funcIZN8facebook5react16NativeToJsBridge7destroyEvE3$_0NS_9allocatorIS5_EEFvvEE7__cloneEPNS0_6__baseIS8_EE', symObjAddr: 0x2DC4, symBinAddr: 0x17318, symSize: 0x14 }
  - { offset: 0x15997B, size: 0x8, addend: 0x0, symName: '__ZNKSt3__110__function6__funcIZN8facebook5react16NativeToJsBridge7destroyEvE3$_0NS_9allocatorIS5_EEFvvEE7__cloneEPNS0_6__baseIS8_EE', symObjAddr: 0x2DC4, symBinAddr: 0x17318, symSize: 0x14 }
  - { offset: 0x159990, size: 0x8, addend: 0x0, symName: '__ZNSt3__110__function6__funcIZN8facebook5react16NativeToJsBridge7destroyEvE3$_0NS_9allocatorIS5_EEFvvEE7destroyEv', symObjAddr: 0x2DD8, symBinAddr: 0x1732C, symSize: 0x4 }
  - { offset: 0x1599E4, size: 0x8, addend: 0x0, symName: '__ZNSt3__110__function6__funcIZN8facebook5react16NativeToJsBridge7destroyEvE3$_0NS_9allocatorIS5_EEFvvEE18destroy_deallocateEv', symObjAddr: 0x2DDC, symBinAddr: 0x17330, symSize: 0x4 }
  - { offset: 0x159A18, size: 0x8, addend: 0x0, symName: '__ZNSt3__110__function6__funcIZN8facebook5react16NativeToJsBridge7destroyEvE3$_0NS_9allocatorIS5_EEFvvEE18destroy_deallocateEv', symObjAddr: 0x2DDC, symBinAddr: 0x17330, symSize: 0x4 }
  - { offset: 0x159A3A, size: 0x8, addend: 0x0, symName: '__ZNSt3__110__function6__funcIZN8facebook5react16NativeToJsBridge7destroyEvE3$_0NS_9allocatorIS5_EEFvvEE18destroy_deallocateEv', symObjAddr: 0x2DDC, symBinAddr: 0x17330, symSize: 0x4 }
  - { offset: 0x159A6C, size: 0x8, addend: 0x0, symName: '__ZNSt3__110__function6__funcIZN8facebook5react16NativeToJsBridge7destroyEvE3$_0NS_9allocatorIS5_EEFvvEE18destroy_deallocateEv', symObjAddr: 0x2DDC, symBinAddr: 0x17330, symSize: 0x4 }
  - { offset: 0x159B11, size: 0x8, addend: 0x0, symName: '__ZNSt3__110__function6__funcIZN8facebook5react16NativeToJsBridge7destroyEvE3$_0NS_9allocatorIS5_EEFvvEEclEv', symObjAddr: 0x2DE0, symBinAddr: 0x17334, symSize: 0x5C }
  - { offset: 0x159CA0, size: 0x8, addend: 0x0, symName: '__ZNKSt3__110__function6__funcIZN8facebook5react16NativeToJsBridge7destroyEvE3$_0NS_9allocatorIS5_EEFvvEE6targetERKSt9type_info', symObjAddr: 0x2E3C, symBinAddr: 0x17390, symSize: 0x3C }
  - { offset: 0x159CED, size: 0x8, addend: 0x0, symName: '__ZNKSt3__110__function6__funcIZN8facebook5react16NativeToJsBridge7destroyEvE3$_0NS_9allocatorIS5_EEFvvEE11target_typeEv', symObjAddr: 0x2E78, symBinAddr: 0x173CC, symSize: 0xC }
  - { offset: 0x159D65, size: 0x8, addend: 0x0, symName: '__ZNSt3__110__function6__funcIZN8facebook5react16NativeToJsBridge18runOnExecutorQueueEONS_8functionIFvPNS3_10JSExecutorEEEEE3$_0NS_9allocatorISB_EEFvvEED1Ev', symObjAddr: 0x2EE8, symBinAddr: 0x1743C, symSize: 0x60 }
  - { offset: 0x159EEB, size: 0x8, addend: 0x0, symName: '__ZNSt3__110__function6__funcIZN8facebook5react16NativeToJsBridge18runOnExecutorQueueEONS_8functionIFvPNS3_10JSExecutorEEEEE3$_0NS_9allocatorISB_EEFvvEED0Ev', symObjAddr: 0x2F48, symBinAddr: 0x1749C, symSize: 0x60 }
  - { offset: 0x15A323, size: 0x8, addend: 0x0, symName: '__ZNKSt3__110__function6__funcIZN8facebook5react16NativeToJsBridge18runOnExecutorQueueEONS_8functionIFvPNS3_10JSExecutorEEEEE3$_0NS_9allocatorISB_EEFvvEE7__cloneEv', symObjAddr: 0x2FA8, symBinAddr: 0x174FC, symSize: 0x88 }
  - { offset: 0x15A7B2, size: 0x8, addend: 0x0, symName: '__ZNKSt3__110__function6__funcIZN8facebook5react16NativeToJsBridge18runOnExecutorQueueEONS_8functionIFvPNS3_10JSExecutorEEEEE3$_0NS_9allocatorISB_EEFvvEE7__cloneEPNS0_6__baseISE_EE', symObjAddr: 0x3030, symBinAddr: 0x17584, symSize: 0x74 }
  - { offset: 0x15AA0F, size: 0x8, addend: 0x0, symName: '__ZNSt3__110__function6__funcIZN8facebook5react16NativeToJsBridge18runOnExecutorQueueEONS_8functionIFvPNS3_10JSExecutorEEEEE3$_0NS_9allocatorISB_EEFvvEE7destroyEv', symObjAddr: 0x30A4, symBinAddr: 0x175F8, symSize: 0x4C }
  - { offset: 0x15AB3C, size: 0x8, addend: 0x0, symName: '__ZNSt3__110__function6__funcIZN8facebook5react16NativeToJsBridge18runOnExecutorQueueEONS_8functionIFvPNS3_10JSExecutorEEEEE3$_0NS_9allocatorISB_EEFvvEE18destroy_deallocateEv', symObjAddr: 0x30F0, symBinAddr: 0x17644, symSize: 0x54 }
  - { offset: 0x15ADC7, size: 0x8, addend: 0x0, symName: '__ZNSt3__110__function6__funcIZN8facebook5react16NativeToJsBridge18runOnExecutorQueueEONS_8functionIFvPNS3_10JSExecutorEEEEE3$_0NS_9allocatorISB_EEFvvEEclEv', symObjAddr: 0x3144, symBinAddr: 0x17698, symSize: 0x4C }
  - { offset: 0x15AEF8, size: 0x8, addend: 0x0, symName: '__ZNKSt3__110__function6__funcIZN8facebook5react16NativeToJsBridge18runOnExecutorQueueEONS_8functionIFvPNS3_10JSExecutorEEEEE3$_0NS_9allocatorISB_EEFvvEE6targetERKSt9type_info', symObjAddr: 0x3190, symBinAddr: 0x176E4, symSize: 0x3C }
  - { offset: 0x15AF03, size: 0x8, addend: 0x0, symName: '__ZNKSt3__110__function6__funcIZN8facebook5react16NativeToJsBridge18runOnExecutorQueueEONS_8functionIFvPNS3_10JSExecutorEEEEE3$_0NS_9allocatorISB_EEFvvEE6targetERKSt9type_info', symObjAddr: 0x3190, symBinAddr: 0x176E4, symSize: 0x3C }
  - { offset: 0x15AF50, size: 0x8, addend: 0x0, symName: '__ZNKSt3__110__function6__funcIZN8facebook5react16NativeToJsBridge18runOnExecutorQueueEONS_8functionIFvPNS3_10JSExecutorEEEEE3$_0NS_9allocatorISB_EEFvvEE11target_typeEv', symObjAddr: 0x31CC, symBinAddr: 0x17720, symSize: 0xC }
  - { offset: 0x15AFC8, size: 0x8, addend: 0x0, symName: __ZNSt3__120__shared_ptr_emplaceIZNK8facebook5react16NativeToJsBridge35getDecoratedNativeMethodCallInvokerENS_10shared_ptrINS2_23NativeMethodCallInvokerEEEE27NativeMethodCallInvokerImplNS_9allocatorIS7_EEED1Ev, symObjAddr: 0x3288, symBinAddr: 0x1772C, symSize: 0x10 }
  - { offset: 0x15AFEA, size: 0x8, addend: 0x0, symName: __ZNSt3__120__shared_ptr_emplaceIZNK8facebook5react16NativeToJsBridge35getDecoratedNativeMethodCallInvokerENS_10shared_ptrINS2_23NativeMethodCallInvokerEEEE27NativeMethodCallInvokerImplNS_9allocatorIS7_EEED1Ev, symObjAddr: 0x3288, symBinAddr: 0x1772C, symSize: 0x10 }
  - { offset: 0x15B020, size: 0x8, addend: 0x0, symName: __ZNSt3__120__shared_ptr_emplaceIZNK8facebook5react16NativeToJsBridge35getDecoratedNativeMethodCallInvokerENS_10shared_ptrINS2_23NativeMethodCallInvokerEEEE27NativeMethodCallInvokerImplNS_9allocatorIS7_EEED0Ev, symObjAddr: 0x3298, symBinAddr: 0x1773C, symSize: 0x20 }
  - { offset: 0x15B0ED, size: 0x8, addend: 0x0, symName: __ZNSt3__120__shared_ptr_emplaceIZNK8facebook5react16NativeToJsBridge35getDecoratedNativeMethodCallInvokerENS_10shared_ptrINS2_23NativeMethodCallInvokerEEEE27NativeMethodCallInvokerImplNS_9allocatorIS7_EEE16__on_zero_sharedEv, symObjAddr: 0x32B8, symBinAddr: 0x1775C, symSize: 0xC }
  - { offset: 0x15B116, size: 0x8, addend: 0x0, symName: __ZNSt3__120__shared_ptr_emplaceIZNK8facebook5react16NativeToJsBridge35getDecoratedNativeMethodCallInvokerENS_10shared_ptrINS2_23NativeMethodCallInvokerEEEE27NativeMethodCallInvokerImplNS_9allocatorIS7_EEE16__on_zero_sharedEv, symObjAddr: 0x32B8, symBinAddr: 0x1775C, symSize: 0xC }
  - { offset: 0x15B133, size: 0x8, addend: 0x0, symName: __ZNSt3__120__shared_ptr_emplaceIZNK8facebook5react16NativeToJsBridge35getDecoratedNativeMethodCallInvokerENS_10shared_ptrINS2_23NativeMethodCallInvokerEEEE27NativeMethodCallInvokerImplNS_9allocatorIS7_EEE16__on_zero_sharedEv, symObjAddr: 0x32B8, symBinAddr: 0x1775C, symSize: 0xC }
  - { offset: 0x15B150, size: 0x8, addend: 0x0, symName: __ZNSt3__120__shared_ptr_emplaceIZNK8facebook5react16NativeToJsBridge35getDecoratedNativeMethodCallInvokerENS_10shared_ptrINS2_23NativeMethodCallInvokerEEEE27NativeMethodCallInvokerImplNS_9allocatorIS7_EEE16__on_zero_sharedEv, symObjAddr: 0x32B8, symBinAddr: 0x1775C, symSize: 0xC }
  - { offset: 0x15B1DB, size: 0x8, addend: 0x0, symName: __ZNSt3__120__shared_ptr_emplaceIZNK8facebook5react16NativeToJsBridge35getDecoratedNativeMethodCallInvokerENS_10shared_ptrINS2_23NativeMethodCallInvokerEEEE27NativeMethodCallInvokerImplNS_9allocatorIS7_EEE21__on_zero_shared_weakEv, symObjAddr: 0x32C4, symBinAddr: 0x17768, symSize: 0x4 }
  - { offset: 0x15B20E, size: 0x8, addend: 0x0, symName: __ZNSt3__120__shared_ptr_emplaceIZNK8facebook5react16NativeToJsBridge35getDecoratedNativeMethodCallInvokerENS_10shared_ptrINS2_23NativeMethodCallInvokerEEEE27NativeMethodCallInvokerImplNS_9allocatorIS7_EEE21__on_zero_shared_weakEv, symObjAddr: 0x32C4, symBinAddr: 0x17768, symSize: 0x4 }
  - { offset: 0x15B22F, size: 0x8, addend: 0x0, symName: __ZNSt3__120__shared_ptr_emplaceIZNK8facebook5react16NativeToJsBridge35getDecoratedNativeMethodCallInvokerENS_10shared_ptrINS2_23NativeMethodCallInvokerEEEE27NativeMethodCallInvokerImplNS_9allocatorIS7_EEE21__on_zero_shared_weakEv, symObjAddr: 0x32C4, symBinAddr: 0x17768, symSize: 0x4 }
  - { offset: 0x15B251, size: 0x8, addend: 0x0, symName: __ZNSt3__120__shared_ptr_emplaceIZNK8facebook5react16NativeToJsBridge35getDecoratedNativeMethodCallInvokerENS_10shared_ptrINS2_23NativeMethodCallInvokerEEEE27NativeMethodCallInvokerImplNS_9allocatorIS7_EEE21__on_zero_shared_weakEv, symObjAddr: 0x32C4, symBinAddr: 0x17768, symSize: 0x4 }
  - { offset: 0x15B284, size: 0x8, addend: 0x0, symName: __ZNSt3__120__shared_ptr_emplaceIZNK8facebook5react16NativeToJsBridge35getDecoratedNativeMethodCallInvokerENS_10shared_ptrINS2_23NativeMethodCallInvokerEEEE27NativeMethodCallInvokerImplNS_9allocatorIS7_EEE21__on_zero_shared_weakEv, symObjAddr: 0x32C4, symBinAddr: 0x17768, symSize: 0x4 }
  - { offset: 0x15B321, size: 0x8, addend: 0x0, symName: __ZZNK8facebook5react16NativeToJsBridge35getDecoratedNativeMethodCallInvokerENSt3__110shared_ptrINS0_23NativeMethodCallInvokerEEEEN27NativeMethodCallInvokerImpl11invokeAsyncERKNS2_12basic_stringIcNS2_11char_traitsIcEENS2_9allocatorIcEEEEONS2_8functionIFvvEEE, symObjAddr: 0x32C8, symBinAddr: 0x1776C, symSize: 0x98 }
  - { offset: 0x15B4F9, size: 0x8, addend: 0x0, symName: __ZZNK8facebook5react16NativeToJsBridge35getDecoratedNativeMethodCallInvokerENSt3__110shared_ptrINS0_23NativeMethodCallInvokerEEEEN27NativeMethodCallInvokerImpl10invokeSyncERKNS2_12basic_stringIcNS2_11char_traitsIcEENS2_9allocatorIcEEEEONS2_8functionIFvvEEE, symObjAddr: 0x3360, symBinAddr: 0x17804, symSize: 0x10 }
  - { offset: 0x15B544, size: 0x8, addend: 0x0, symName: __ZZNK8facebook5react16NativeToJsBridge35getDecoratedNativeMethodCallInvokerENSt3__110shared_ptrINS0_23NativeMethodCallInvokerEEEEN27NativeMethodCallInvokerImpl10invokeSyncERKNS2_12basic_stringIcNS2_11char_traitsIcEENS2_9allocatorIcEEEEONS2_8functionIFvvEEE, symObjAddr: 0x3360, symBinAddr: 0x17804, symSize: 0x10 }
  - { offset: 0x15B5EB, size: 0x8, addend: 0x0, symName: __ZZNK8facebook5react16NativeToJsBridge35getDecoratedNativeMethodCallInvokerENSt3__110shared_ptrINS0_23NativeMethodCallInvokerEEEEN27NativeMethodCallInvokerImplD1Ev, symObjAddr: 0x3370, symBinAddr: 0x17814, symSize: 0x3C }
  - { offset: 0x15B703, size: 0x8, addend: 0x0, symName: __ZZNK8facebook5react16NativeToJsBridge35getDecoratedNativeMethodCallInvokerENSt3__110shared_ptrINS0_23NativeMethodCallInvokerEEEEN27NativeMethodCallInvokerImplD0Ev, symObjAddr: 0x33AC, symBinAddr: 0x17850, symSize: 0x3C }
  - { offset: 0x15B7CB, size: 0x8, addend: 0x0, symName: _OUTLINED_FUNCTION_1, symObjAddr: 0x34E8, symBinAddr: 0x1788C, symSize: 0xC }
  - { offset: 0x15DA30, size: 0x8, addend: 0x0, symName: __ZN8facebook5react17RAMBundleRegistry14MAIN_BUNDLE_IDE, symObjAddr: 0x1AA4, symBinAddr: 0x1BF84, symSize: 0x0 }
  - { offset: 0x1644E6, size: 0x8, addend: 0x0, symName: __ZNSt3__120__throw_out_of_rangeB8ne200100EPKc, symObjAddr: 0x858, symBinAddr: 0x17F70, symSize: 0x50 }
  - { offset: 0x1666DE, size: 0x8, addend: 0x0, symName: __ZN8facebook5react17RAMBundleRegistry20singleBundleRegistryENSt3__110unique_ptrINS0_17JSModulesUnbundleENS2_14default_deleteIS4_EEEE, symObjAddr: 0x0, symBinAddr: 0x17898, symSize: 0x118 }
  - { offset: 0x166A95, size: 0x8, addend: 0x0, symName: __ZN8facebook5react17RAMBundleRegistryC2ENSt3__110unique_ptrINS0_17JSModulesUnbundleENS2_14default_deleteIS4_EEEENS2_8functionIFS7_NS2_12basic_stringIcNS2_11char_traitsIcEENS2_9allocatorIcEEEEEEE, symObjAddr: 0x240, symBinAddr: 0x17AD8, symSize: 0xDC }
  - { offset: 0x166F4F, size: 0x8, addend: 0x0, symName: __ZN8facebook5react17RAMBundleRegistry23multipleBundlesRegistryENSt3__110unique_ptrINS0_17JSModulesUnbundleENS2_14default_deleteIS4_EEEENS2_8functionIFS7_NS2_12basic_stringIcNS2_11char_traitsIcEENS2_9allocatorIcEEEEEEE, symObjAddr: 0x118, symBinAddr: 0x179B0, symSize: 0x128 }
  - { offset: 0x167328, size: 0x8, addend: 0x0, symName: __ZNSt3__110__function12__value_funcIFNS_10unique_ptrIN8facebook5react17JSModulesUnbundleENS_14default_deleteIS5_EEEENS_12basic_stringIcNS_11char_traitsIcEENS_9allocatorIcEEEEEEC2B8ne200100EOSG_, symObjAddr: 0x8CC, symBinAddr: 0x17FE4, symSize: 0x64 }
  - { offset: 0x167635, size: 0x8, addend: 0x0, symName: __ZNSt3__112__hash_tableINS_17__hash_value_typeIjNS_10unique_ptrIN8facebook5react17JSModulesUnbundleENS_14default_deleteIS5_EEEEEENS_22__unordered_map_hasherIjS9_NS_4hashIjEENS_8equal_toIjEELb1EEENS_21__unordered_map_equalIjS9_SE_SC_Lb1EEENS_9allocatorIS9_EEE25__emplace_unique_key_argsIjJRKjS8_EEENS_4pairINS_15__hash_iteratorIPNS_11__hash_nodeIS9_PvEEEEbEERKT_DpOT0_, symObjAddr: 0xA30, symBinAddr: 0x18148, symSize: 0x268 }
  - { offset: 0x167E42, size: 0x8, addend: 0x0, symName: __ZNSt3__112__hash_tableINS_17__hash_value_typeIjNS_10unique_ptrIN8facebook5react17JSModulesUnbundleENS_14default_deleteIS5_EEEEEENS_22__unordered_map_hasherIjS9_NS_4hashIjEENS_8equal_toIjEELb1EEENS_21__unordered_map_equalIjS9_SE_SC_Lb1EEENS_9allocatorIS9_EEED2Ev, symObjAddr: 0x9AC, symBinAddr: 0x180C4, symSize: 0x38 }
  - { offset: 0x167F9A, size: 0x8, addend: 0x0, symName: __ZNSt3__112__hash_tableINS_17__hash_value_typeIjNS_12basic_stringIcNS_11char_traitsIcEENS_9allocatorIcEEEEEENS_22__unordered_map_hasherIjS8_NS_4hashIjEENS_8equal_toIjEELb1EEENS_21__unordered_map_equalIjS8_SD_SB_Lb1EEENS5_IS8_EEED2Ev, symObjAddr: 0x930, symBinAddr: 0x18048, symSize: 0x38 }
  - { offset: 0x1680F2, size: 0x8, addend: 0x0, symName: __ZN8facebook5react17RAMBundleRegistryC1ENSt3__110unique_ptrINS0_17JSModulesUnbundleENS2_14default_deleteIS4_EEEENS2_8functionIFS7_NS2_12basic_stringIcNS2_11char_traitsIcEENS2_9allocatorIcEEEEEEE, symObjAddr: 0x31C, symBinAddr: 0x17BB4, symSize: 0x4 }
  - { offset: 0x168125, size: 0x8, addend: 0x0, symName: __ZN8facebook5react17RAMBundleRegistryC1ENSt3__110unique_ptrINS0_17JSModulesUnbundleENS2_14default_deleteIS4_EEEENS2_8functionIFS7_NS2_12basic_stringIcNS2_11char_traitsIcEENS2_9allocatorIcEEEEEEE, symObjAddr: 0x31C, symBinAddr: 0x17BB4, symSize: 0x4 }
  - { offset: 0x1681D4, size: 0x8, addend: 0x0, symName: __ZN8facebook5react17RAMBundleRegistry14registerBundleEjNSt3__112basic_stringIcNS2_11char_traitsIcEENS2_9allocatorIcEEEE, symObjAddr: 0x320, symBinAddr: 0x17BB8, symSize: 0x30 }
  - { offset: 0x168287, size: 0x8, addend: 0x0, symName: __ZNSt3__112__hash_tableINS_17__hash_value_typeIjNS_12basic_stringIcNS_11char_traitsIcEENS_9allocatorIcEEEEEENS_22__unordered_map_hasherIjS8_NS_4hashIjEENS_8equal_toIjEELb1EEENS_21__unordered_map_equalIjS8_SD_SB_Lb1EEENS5_IS8_EEE25__emplace_unique_key_argsIjJRjS7_EEENS_4pairINS_15__hash_iteratorIPNS_11__hash_nodeIS8_PvEEEEbEERKT_DpOT0_, symObjAddr: 0xF1C, symBinAddr: 0x18408, symSize: 0x25C }
  - { offset: 0x168D39, size: 0x8, addend: 0x0, symName: __ZN8facebook5react17RAMBundleRegistry9getModuleEjj, symObjAddr: 0x350, symBinAddr: 0x17BE8, symSize: 0x334 }
  - { offset: 0x169ECE, size: 0x8, addend: 0x0, symName: __ZNSt3__112__hash_tableINS_17__hash_value_typeIjNS_10unique_ptrIN8facebook5react17JSModulesUnbundleENS_14default_deleteIS5_EEEEEENS_22__unordered_map_hasherIjS9_NS_4hashIjEENS_8equal_toIjEELb1EEENS_21__unordered_map_equalIjS9_SE_SC_Lb1EEENS_9allocatorIS9_EEE4findIjEENS_15__hash_iteratorIPNS_11__hash_nodeIS9_PvEEEERKT_, symObjAddr: 0x13F4, symBinAddr: 0x186B4, symSize: 0xB4 }
  - { offset: 0x169F28, size: 0x8, addend: 0x0, symName: __ZNSt3__112__hash_tableINS_17__hash_value_typeIjNS_10unique_ptrIN8facebook5react17JSModulesUnbundleENS_14default_deleteIS5_EEEEEENS_22__unordered_map_hasherIjS9_NS_4hashIjEENS_8equal_toIjEELb1EEENS_21__unordered_map_equalIjS9_SE_SC_Lb1EEENS_9allocatorIS9_EEE4findIjEENS_15__hash_iteratorIPNS_11__hash_nodeIS9_PvEEEERKT_, symObjAddr: 0x13F4, symBinAddr: 0x186B4, symSize: 0xB4 }
  - { offset: 0x169F44, size: 0x8, addend: 0x0, symName: __ZNSt3__112__hash_tableINS_17__hash_value_typeIjNS_10unique_ptrIN8facebook5react17JSModulesUnbundleENS_14default_deleteIS5_EEEEEENS_22__unordered_map_hasherIjS9_NS_4hashIjEENS_8equal_toIjEELb1EEENS_21__unordered_map_equalIjS9_SE_SC_Lb1EEENS_9allocatorIS9_EEE4findIjEENS_15__hash_iteratorIPNS_11__hash_nodeIS9_PvEEEERKT_, symObjAddr: 0x13F4, symBinAddr: 0x186B4, symSize: 0xB4 }
  - { offset: 0x16A79C, size: 0x8, addend: 0x0, symName: __ZNK8facebook5react17RAMBundleRegistry9getBundleEj, symObjAddr: 0x684, symBinAddr: 0x17F1C, symSize: 0x3C }
  - { offset: 0x16AB0C, size: 0x8, addend: 0x0, symName: __ZN8facebook5react17RAMBundleRegistryD1Ev, symObjAddr: 0x700, symBinAddr: 0x17F58, symSize: 0x4 }
  - { offset: 0x16AB2F, size: 0x8, addend: 0x0, symName: __ZN8facebook5react17RAMBundleRegistryD1Ev, symObjAddr: 0x700, symBinAddr: 0x17F58, symSize: 0x4 }
  - { offset: 0x16AB42, size: 0x8, addend: 0x0, symName: __ZN8facebook5react17RAMBundleRegistryD2Ev, symObjAddr: 0x18C4, symBinAddr: 0x18768, symSize: 0x68 }
  - { offset: 0x16ACAE, size: 0x8, addend: 0x0, symName: __ZN8facebook5react17RAMBundleRegistryD0Ev, symObjAddr: 0x704, symBinAddr: 0x17F5C, symSize: 0x14 }
  - { offset: 0x16AE68, size: 0x8, addend: 0x0, symName: __ZNSt12out_of_rangeC1B8ne200100EPKc, symObjAddr: 0x8A8, symBinAddr: 0x17FC0, symSize: 0x24 }
  - { offset: 0x16AFE1, size: 0x8, addend: 0x0, symName: __ZNSt3__112__hash_tableINS_17__hash_value_typeIjNS_12basic_stringIcNS_11char_traitsIcEENS_9allocatorIcEEEEEENS_22__unordered_map_hasherIjS8_NS_4hashIjEENS_8equal_toIjEELb1EEENS_21__unordered_map_equalIjS8_SD_SB_Lb1EEENS5_IS8_EEE17__deallocate_nodeEPNS_16__hash_node_baseIPNS_11__hash_nodeIS8_PvEEEE, symObjAddr: 0x968, symBinAddr: 0x18080, symSize: 0x44 }
  - { offset: 0x16B42E, size: 0x8, addend: 0x0, symName: __ZNSt3__112__hash_tableINS_17__hash_value_typeIjNS_10unique_ptrIN8facebook5react17JSModulesUnbundleENS_14default_deleteIS5_EEEEEENS_22__unordered_map_hasherIjS9_NS_4hashIjEENS_8equal_toIjEELb1EEENS_21__unordered_map_equalIjS9_SE_SC_Lb1EEENS_9allocatorIS9_EEE17__deallocate_nodeEPNS_16__hash_node_baseIPNS_11__hash_nodeIS9_PvEEEE, symObjAddr: 0x9E4, symBinAddr: 0x180FC, symSize: 0x4C }
  - { offset: 0x16BC55, size: 0x8, addend: 0x0, symName: __ZNSt3__110unique_ptrINS_11__hash_nodeINS_17__hash_value_typeIjNS0_IN8facebook5react17JSModulesUnbundleENS_14default_deleteIS5_EEEEEEPvEENS_22__hash_node_destructorINS_9allocatorISB_EEEEE5resetB8ne200100EPSB_, symObjAddr: 0xEC4, symBinAddr: 0x183B0, symSize: 0x58 }
  - { offset: 0x16C104, size: 0x8, addend: 0x0, symName: __ZNSt3__110unique_ptrINS_11__hash_nodeINS_17__hash_value_typeIjNS0_IN8facebook5react17JSModulesUnbundleENS_14default_deleteIS5_EEEEEEPvEENS_22__hash_node_destructorINS_9allocatorISB_EEEEE5resetB8ne200100EPSB_, symObjAddr: 0xEC4, symBinAddr: 0x183B0, symSize: 0x58 }
  - { offset: 0x16C667, size: 0x8, addend: 0x0, symName: __ZNSt3__122__hash_node_destructorINS_9allocatorINS_11__hash_nodeINS_17__hash_value_typeIjNS_12basic_stringIcNS_11char_traitsIcEENS1_IcEEEEEEPvEEEEEclB8ne200100EPSB_, symObjAddr: 0x13A4, symBinAddr: 0x18664, symSize: 0x50 }
  - { offset: 0x16CB4E, size: 0x8, addend: 0x0, symName: __ZNSt3__122__hash_node_destructorINS_9allocatorINS_11__hash_nodeINS_17__hash_value_typeIjNS_12basic_stringIcNS_11char_traitsIcEENS1_IcEEEEEEPvEEEEEclB8ne200100EPSB_, symObjAddr: 0x13A4, symBinAddr: 0x18664, symSize: 0x50 }
  - { offset: 0x16EDB3, size: 0x8, addend: 0x0, symName: __ZN8facebook5react11ReactMarker29logTaggedMarkerBridgelessImplE, symObjAddr: 0x10F98, symBinAddr: 0x280F0, symSize: 0x0 }
  - { offset: 0x16EE4B, size: 0x8, addend: 0x0, symName: __ZN8facebook5react11ReactMarker19logTaggedMarkerImplE, symObjAddr: 0x10FB8, symBinAddr: 0x28110, symSize: 0x0 }
  - { offset: 0x16EE64, size: 0x8, addend: 0x0, symName: __ZN8facebook5react11ReactMarker24logTaggedMarkerImplMutexE, symObjAddr: 0x10FD8, symBinAddr: 0x28130, symSize: 0x0 }
  - { offset: 0x16EFBF, size: 0x8, addend: 0x0, symName: __ZN8facebook5react11ReactMarker9logMarkerENS1_13ReactMarkerIdE, symObjAddr: 0x78, symBinAddr: 0x18848, symSize: 0x8 }
  - { offset: 0x16F003, size: 0x8, addend: 0x0, symName: __ZN8facebook5react11ReactMarker15logTaggedMarkerENS1_13ReactMarkerIdEPKc, symObjAddr: 0x80, symBinAddr: 0x18850, symSize: 0x138 }
  - { offset: 0x16F3F1, size: 0x8, addend: 0x0, symName: __ZN8facebook5react11ReactMarker19logMarkerBridgelessENS1_13ReactMarkerIdE, symObjAddr: 0x28C, symBinAddr: 0x18A5C, symSize: 0x14 }
  - { offset: 0x16F458, size: 0x8, addend: 0x0, symName: __ZN8facebook5react11ReactMarker25logTaggedMarkerBridgelessENS1_13ReactMarkerIdEPKc, symObjAddr: 0x2A0, symBinAddr: 0x18A70, symSize: 0x14 }
  - { offset: 0x16F49C, size: 0x8, addend: 0x0, symName: __ZN8facebook5react11ReactMarker13logMarkerDoneENS1_13ReactMarkerIdEd, symObjAddr: 0x2B4, symBinAddr: 0x18A84, symSize: 0x3C }
  - { offset: 0x170C2F, size: 0x8, addend: 0x0, symName: __ZN8facebook5react11ReactMarker13StartupLogger11getInstanceEv, symObjAddr: 0x2F0, symBinAddr: 0x18AC0, symSize: 0x30 }
  - { offset: 0x170C50, size: 0x8, addend: 0x0, symName: __MergedGlobals, symObjAddr: 0x11080, symBinAddr: 0x28200, symSize: 0x0 }
  - { offset: 0x170CC4, size: 0x8, addend: 0x0, symName: __ZNSt3__18functionIFvN8facebook5react11ReactMarker13ReactMarkerIdEPKcEED1Ev, symObjAddr: 0x0, symBinAddr: 0x187D0, symSize: 0x48 }
  - { offset: 0x170DA0, size: 0x8, addend: 0x0, symName: __ZNSt3__112shared_mutexD1B8ne200100Ev, symObjAddr: 0x48, symBinAddr: 0x18818, symSize: 0x30 }
  - { offset: 0x171032, size: 0x8, addend: 0x0, symName: __ZNSt3__18functionIFvN8facebook5react11ReactMarker13ReactMarkerIdEPKcEEaSERKS8_, symObjAddr: 0x1B8, symBinAddr: 0x18988, symSize: 0x94 }
  - { offset: 0x1711C0, size: 0x8, addend: 0x0, symName: __ZNSt3__111shared_lockINS_12shared_mutexEED2B8ne200100Ev, symObjAddr: 0x4D0, symBinAddr: 0x18CA0, symSize: 0x38 }
  - { offset: 0x1712E0, size: 0x8, addend: 0x0, symName: __ZNSt3__110__function12__value_funcIFvN8facebook5react11ReactMarker13ReactMarkerIdEPKcEE4swapB8ne200100ERS9_, symObjAddr: 0x57C, symBinAddr: 0x18CD8, symSize: 0x16C }
  - { offset: 0x171414, size: 0x8, addend: 0x0, symName: __ZNKSt3__18functionIFvN8facebook5react11ReactMarker13ReactMarkerIdEPKcEEclES4_S6_, symObjAddr: 0x24C, symBinAddr: 0x18A1C, symSize: 0x40 }
  - { offset: 0x17148D, size: 0x8, addend: 0x0, symName: __ZN8facebook5react11ReactMarker19logMarkerBridgelessENS1_13ReactMarkerIdE, symObjAddr: 0x28C, symBinAddr: 0x18A5C, symSize: 0x14 }
  - { offset: 0x171498, size: 0x8, addend: 0x0, symName: __ZN8facebook5react11ReactMarker13StartupLogger15logStartupEventENS1_13ReactMarkerIdEd, symObjAddr: 0x320, symBinAddr: 0x18AF0, symSize: 0xA4 }
  - { offset: 0x1714F3, size: 0x8, addend: 0x0, symName: __ZN8facebook5react11ReactMarker13StartupLogger11getInstanceEv.cold.1, symObjAddr: 0x734, symBinAddr: 0x1922C, symSize: 0x44 }
  - { offset: 0x171521, size: 0x8, addend: 0x0, symName: __ZN8facebook5react11ReactMarker13StartupLogger5resetEv, symObjAddr: 0x3C4, symBinAddr: 0x18B94, symSize: 0x6C }
  - { offset: 0x1715D5, size: 0x8, addend: 0x0, symName: __ZN8facebook5react11ReactMarker13StartupLogger22getAppStartupStartTimeEv, symObjAddr: 0x430, symBinAddr: 0x18C00, symSize: 0x8 }
  - { offset: 0x1715FC, size: 0x8, addend: 0x0, symName: __ZN8facebook5react11ReactMarker13StartupLogger28getInitReactRuntimeStartTimeEv, symObjAddr: 0x438, symBinAddr: 0x18C08, symSize: 0x8 }
  - { offset: 0x171623, size: 0x8, addend: 0x0, symName: __ZN8facebook5react11ReactMarker13StartupLogger26getInitReactRuntimeEndTimeEv, symObjAddr: 0x440, symBinAddr: 0x18C10, symSize: 0x8 }
  - { offset: 0x17164A, size: 0x8, addend: 0x0, symName: __ZN8facebook5react11ReactMarker13StartupLogger23getRunJSBundleStartTimeEv, symObjAddr: 0x448, symBinAddr: 0x18C18, symSize: 0x8 }
  - { offset: 0x171671, size: 0x8, addend: 0x0, symName: __ZN8facebook5react11ReactMarker13StartupLogger21getRunJSBundleEndTimeEv, symObjAddr: 0x450, symBinAddr: 0x18C20, symSize: 0x8 }
  - { offset: 0x171698, size: 0x8, addend: 0x0, symName: __ZN8facebook5react11ReactMarker13StartupLogger20getAppStartupEndTimeEv, symObjAddr: 0x458, symBinAddr: 0x18C28, symSize: 0x8 }
  - { offset: 0x1716BF, size: 0x8, addend: 0x0, symName: __ZN8facebook5react11ReactMarker13StartupLoggerC2Ev, symObjAddr: 0x460, symBinAddr: 0x18C30, symSize: 0x70 }
  - { offset: 0x1717EA, size: 0x8, addend: 0x0, symName: __GLOBAL__sub_I_ReactMarker.cpp, symObjAddr: 0x7F8, symBinAddr: 0x18E44, symSize: 0x78 }
...
