---
triple:          'arm64-apple-darwin'
binary-path:     '/Users/uk-aplatts/Development/InjuryIQ/ios/DerivedData/Build/Intermediates.noindex/ArchiveIntermediates/InjuryIQ/IntermediateBuildFilesPath/UninstalledProducts/iphoneos/idlecallbacksnativemodule.framework/idlecallbacksnativemodule'
relocations:
  - { offset: 0x33, size: 0x8, addend: 0x0, symName: _idlecallbacksnativemoduleVersionString, symObjAddr: 0x0, symBinAddr: 0x7CD0, symSize: 0x0 }
  - { offset: 0x67, size: 0x8, addend: 0x0, symName: _idlecallbacksnativemoduleVersionNumber, symObjAddr: 0x38, symBinAddr: 0x7D08, symSize: 0x0 }
  - { offset: 0x18DBF, size: 0x8, addend: 0x0, symName: __ZNSt3__115allocate_sharedB8ne200100IN8facebook5react19NativeIdleCallbacksENS_9allocatorIS3_EEJNS_10shared_ptrINS2_11CallInvokerEEEELi0EEENS6_IT_EERKT0_DpOT1_, symObjAddr: 0xD94, symBinAddr: 0x4CE4, symSize: 0x58 }
  - { offset: 0x1A1CD, size: 0x8, addend: 0x0, symName: __ZNSt3__120__throw_length_errorB8ne200100EPKc, symObjAddr: 0xC48, symBinAddr: 0x4C48, symSize: 0x50 }
  - { offset: 0x1A616, size: 0x8, addend: 0x0, symName: __ZNSt3__112construct_atB8ne200100IN8facebook5react19NativeIdleCallbacksEJNS_10shared_ptrINS2_11CallInvokerEEEEPS3_EEPT_S9_DpOT0_, symObjAddr: 0xE80, symBinAddr: 0x4DD0, symSize: 0x88 }
  - { offset: 0x1AC2F, size: 0x8, addend: 0x0, symName: __ZNSt3__119__allocate_at_leastB8ne200100INS_9allocatorIN8facebook3jsi10PropNameIDEEEEENS_19__allocation_resultINS_16allocator_traitsIT_E7pointerEEERS8_m, symObjAddr: 0x1758, symBinAddr: 0x55F8, symSize: 0x34 }
  - { offset: 0x1ACE0, size: 0x8, addend: 0x0, symName: __ZNSt3__114__split_bufferIN8facebook3jsi10PropNameIDERNS_9allocatorIS3_EEED2Ev, symObjAddr: 0x178C, symBinAddr: 0x562C, symSize: 0x58 }
  - { offset: 0x1BBF1, size: 0x8, addend: 0x0, symName: __ZNSt3__112__destroy_atB8ne200100INS_4pairIKNS_12basic_stringIcNS_11char_traitsIcEENS_9allocatorIcEEEENS_10shared_ptrIN8facebook5react18IAsyncEventEmitterEEEEELi0EEEvPT_, symObjAddr: 0x2F60, symBinAddr: 0x6C58, symSize: 0x3C }
  - { offset: 0x1DF0B, size: 0x8, addend: 0x0, symName: __ZSt28__throw_bad_array_new_lengthB8ne200100v, symObjAddr: 0xCBC, symBinAddr: 0x4CBC, symSize: 0x28 }
  - { offset: 0x1FDD4, size: 0x8, addend: 0x0, symName: __ZN8facebook5react8bridging10callFromJsINS_3jsi5ValueENS0_19NativeIdleCallbacksENS3_6ObjectEJONS0_12SyncCallbackIFvS6_EEENSt3__18optionalINS0_45NativeIdleCallbacksRequestIdleCallbackOptionsINSC_INS0_15HighResDurationEEEEEEEEJNS3_8FunctionENSC_IS6_EEEEET_RNS3_7RuntimeEMT0_FT1_SM_DpT2_ERKNSB_10shared_ptrINS0_11CallInvokerEEEPSN_DpOT3_, symObjAddr: 0x20E8, symBinAddr: 0x5E90, symSize: 0xC4 }
  - { offset: 0x20148, size: 0x8, addend: 0x0, symName: __ZN8facebook5react8bridging10callFromJsIvNS0_19NativeIdleCallbacksEvJNS_3jsi6ObjectEEJNS4_5ValueEEEET_RNS4_7RuntimeEMT0_FT1_S9_DpT2_ERKNSt3__110shared_ptrINS0_11CallInvokerEEEPSA_DpOT3_, symObjAddr: 0x2CE8, symBinAddr: 0x69E0, symSize: 0x98 }
  - { offset: 0x2042F, size: 0x8, addend: 0x0, symName: __ZN8facebook5react8bridging6fromJsIONS0_12SyncCallbackIFvNS_3jsi6ObjectEEEENS4_8FunctionEEEDTclsr8BridgingIu11__remove_cvIu20__remove_reference_tIT_EEEE6fromJsfp_cl7convertfp_clsr3stdE7forwardIT0_Efp0_EEfp1_EERNS4_7RuntimeEOSD_RKNSt3__110shared_ptrINS0_11CallInvokerEEE, symObjAddr: 0x21AC, symBinAddr: 0x5F54, symSize: 0x68 }
  - { offset: 0x20788, size: 0x8, addend: 0x0, symName: __ZN8facebook5react8bridging6fromJsINSt3__18optionalINS0_45NativeIdleCallbacksRequestIdleCallbackOptionsINS4_INS0_15HighResDurationEEEEEEENS4_INS_3jsi6ObjectEEEEEDTclsr8BridgingIu11__remove_cvIu20__remove_reference_tIT_EEEE6fromJsfp_cl7convertfp_clsr3stdE7forwardIT0_Efp0_EEfp1_EERNSA_7RuntimeEOSG_RKNS3_10shared_ptrINS0_11CallInvokerEEE, symObjAddr: 0x2214, symBinAddr: 0x5FBC, symSize: 0x124 }
  - { offset: 0x2123E, size: 0x8, addend: 0x0, symName: __ZN8facebook5react8bridging7convertINS_3jsi6ObjectELi0EEEDaRNS3_7RuntimeENSt3__18optionalIT_EE, symObjAddr: 0x281C, symBinAddr: 0x6514, symSize: 0x9C }
  - { offset: 0x217CF, size: 0x8, addend: 0x0, symName: __ZN8facebook5react8bridging6fromJsINS0_45NativeIdleCallbacksRequestIdleCallbackOptionsINSt3__18optionalINS0_15HighResDurationEEEEERKNS_3jsi5ValueEEEDTclsr8BridgingIu11__remove_cvIu20__remove_reference_tIT_EEEE6fromJsfp_cl7convertfp_clsr3stdE7forwardIT0_Efp0_EEfp1_EERNS9_7RuntimeEOSG_RKNS4_10shared_ptrINS0_11CallInvokerEEE, symObjAddr: 0x28B8, symBinAddr: 0x65B0, symSize: 0x8C }
  - { offset: 0x219E2, size: 0x8, addend: 0x0, symName: __ZN8facebook5react8bridging6fromJsINSt3__18optionalINS0_15HighResDurationEEENS_3jsi5ValueEEEDTclsr8BridgingIu11__remove_cvIu20__remove_reference_tIT_EEEE6fromJsfp_cl7convertfp_clsr3stdE7forwardIT0_Efp0_EEfp1_EERNS7_7RuntimeEOSC_RKNS3_10shared_ptrINS0_11CallInvokerEEE, symObjAddr: 0x2A9C, symBinAddr: 0x6794, symSize: 0xB0 }
  - { offset: 0x21CF6, size: 0x8, addend: 0x0, symName: __ZN8facebook5react8bridging6fromJsINS0_15HighResDurationERKNS_3jsi5ValueEEEDTclsr8BridgingIu11__remove_cvIu20__remove_reference_tIT_EEEE6fromJsfp_cl7convertfp_clsr3stdE7forwardIT0_Efp0_EEEERNS4_7RuntimeEOSB_RKNSt3__110shared_ptrINS0_11CallInvokerEEE, symObjAddr: 0x2B4C, symBinAddr: 0x6844, symSize: 0x68 }
  - { offset: 0x21DB0, size: 0x8, addend: 0x0, symName: __ZN8facebook5react8bridging6fromJsINS_3jsi6ObjectENS3_5ValueEEEDTscT_clsr3stdE4movecl7convertfp_clsr3stdE7forwardIT0_Efp0_EEEERNS3_7RuntimeEOS7_RKNSt3__110shared_ptrINS0_11CallInvokerEEE, symObjAddr: 0x2D80, symBinAddr: 0x6A78, symSize: 0x60 }
  - { offset: 0x25E07, size: 0x8, addend: 0x0, symName: __ZN8facebook5react11TurboModule6createERNS_3jsi7RuntimeERKNS2_10PropNameIDE, symObjAddr: 0x1280, symBinAddr: 0x5120, symSize: 0x240 }
  - { offset: 0x26A44, size: 0x8, addend: 0x0, symName: __ZN8facebook5react19NativeIdleCallbacks19requestIdleCallbackERNS_3jsi7RuntimeEONS0_12SyncCallbackIFvNS2_6ObjectEEEENSt3__18optionalINS0_45NativeIdleCallbacksRequestIdleCallbackOptionsINSB_INS0_15HighResDurationEEEEEEE, symObjAddr: 0x258, symBinAddr: 0x4258, symSize: 0x584 }
  - { offset: 0x29839, size: 0x8, addend: 0x0, symName: __Z33NativeIdleCallbacksModuleProviderNSt3__110shared_ptrIN8facebook5react11CallInvokerEEE, symObjAddr: 0x0, symBinAddr: 0x4000, symSize: 0x3C }
  - { offset: 0x299B6, size: 0x8, addend: 0x0, symName: __ZN8facebook5react19NativeIdleCallbacksC2ENSt3__110shared_ptrINS0_11CallInvokerEEE, symObjAddr: 0x3C, symBinAddr: 0x403C, symSize: 0x98 }
  - { offset: 0x29B3E, size: 0x8, addend: 0x0, symName: __ZN8facebook5react26NativeIdleCallbacksCxxSpecINS0_19NativeIdleCallbacksEEC2ENSt3__110shared_ptrINS0_11CallInvokerEEE, symObjAddr: 0xD4, symBinAddr: 0x40D4, symSize: 0x180 }
  - { offset: 0x2A539, size: 0x8, addend: 0x0, symName: __ZN8facebook5react26NativeIdleCallbacksCxxSpecINS0_19NativeIdleCallbacksEE8DelegateC2EPS2_NSt3__110shared_ptrINS0_11CallInvokerEEE, symObjAddr: 0x1030, symBinAddr: 0x4ED0, symSize: 0xA8 }
  - { offset: 0x2A6B6, size: 0x8, addend: 0x0, symName: __ZN8facebook5react11TurboModuleD2Ev, symObjAddr: 0xFB8, symBinAddr: 0x4E58, symSize: 0x60 }
  - { offset: 0x2A910, size: 0x8, addend: 0x0, symName: __ZN8facebook5react19NativeIdleCallbacksC1ENSt3__110shared_ptrINS0_11CallInvokerEEE, symObjAddr: 0x254, symBinAddr: 0x4254, symSize: 0x4 }
  - { offset: 0x2A93D, size: 0x8, addend: 0x0, symName: __ZN8facebook5react19NativeIdleCallbacksC1ENSt3__110shared_ptrINS0_11CallInvokerEEE, symObjAddr: 0x254, symBinAddr: 0x4254, symSize: 0x4 }
  - { offset: 0x2B83C, size: 0x8, addend: 0x0, symName: __ZN8facebook3jsi7JSErrorC1ERNS0_7RuntimeEPKc, symObjAddr: 0x7DC, symBinAddr: 0x47DC, symSize: 0x74 }
  - { offset: 0x2BB56, size: 0x8, addend: 0x0, symName: __ZNSt3__110shared_ptrIN8facebook5react12_GLOBAL__N_111IdleTaskRefEED1B8ne200100Ev, symObjAddr: 0x850, symBinAddr: 0x4850, symSize: 0x58 }
  - { offset: 0x2BD83, size: 0x8, addend: 0x0, symName: __ZNSt3__112basic_stringIcNS_11char_traitsIcEENS_9allocatorIcEEEC2B8ne200100ILi0EEEPKc, symObjAddr: 0xB90, symBinAddr: 0x4B90, symSize: 0xA4 }
  - { offset: 0x2C007, size: 0x8, addend: 0x0, symName: __ZNSt3__112basic_stringIcNS_11char_traitsIcEENS_9allocatorIcEEE20__throw_length_errorB8ne200100Ev, symObjAddr: 0xC34, symBinAddr: 0x4C34, symSize: 0x14 }
  - { offset: 0x2C1C2, size: 0x8, addend: 0x0, symName: __ZN8facebook5react19NativeIdleCallbacks18cancelIdleCallbackERNS_3jsi7RuntimeENS2_6ObjectE, symObjAddr: 0x8A8, symBinAddr: 0x48A8, symSize: 0x1C0 }
  - { offset: 0x2C7D1, size: 0x8, addend: 0x0, symName: __ZN8facebook5react19NativeIdleCallbacksD1Ev, symObjAddr: 0xA68, symBinAddr: 0x4A68, symSize: 0x4 }
  - { offset: 0x2C7F5, size: 0x8, addend: 0x0, symName: __ZN8facebook5react19NativeIdleCallbacksD1Ev, symObjAddr: 0xA68, symBinAddr: 0x4A68, symSize: 0x4 }
  - { offset: 0x2C813, size: 0x8, addend: 0x0, symName: __ZN8facebook5react19NativeIdleCallbacksD1Ev, symObjAddr: 0xA68, symBinAddr: 0x4A68, symSize: 0x4 }
  - { offset: 0x2C827, size: 0x8, addend: 0x0, symName: __ZN8facebook5react26NativeIdleCallbacksCxxSpecINS0_19NativeIdleCallbacksEED2Ev, symObjAddr: 0x3070, symBinAddr: 0x6D10, symSize: 0xC0 }
  - { offset: 0x2CD91, size: 0x8, addend: 0x0, symName: __ZN8facebook5react19NativeIdleCallbacksD0Ev, symObjAddr: 0xA6C, symBinAddr: 0x4A6C, symSize: 0x14 }
  - { offset: 0x2CE56, size: 0x8, addend: 0x0, symName: __ZN8facebook5react11TurboModule3getERNS_3jsi7RuntimeERKNS2_10PropNameIDE, symObjAddr: 0xA80, symBinAddr: 0x4A80, symSize: 0xF0 }
  - { offset: 0x2D042, size: 0x8, addend: 0x0, symName: __ZNK8facebook3jsi6Object11setPropertyIRNS0_5ValueEEEvRNS0_7RuntimeERKNS0_10PropNameIDEOT_, symObjAddr: 0x3E88, symBinAddr: 0x7A78, symSize: 0x78 }
  - { offset: 0x2D127, size: 0x8, addend: 0x0, symName: __ZN8facebook5react26NativeIdleCallbacksCxxSpecINS0_19NativeIdleCallbacksEE16getPropertyNamesERNS_3jsi7RuntimeE, symObjAddr: 0xB70, symBinAddr: 0x4B70, symSize: 0x8 }
  - { offset: 0x2D17C, size: 0x8, addend: 0x0, symName: __ZN8facebook5react11TurboModule16getPropertyNamesERNS_3jsi7RuntimeE, symObjAddr: 0x119C, symBinAddr: 0x503C, symSize: 0xE4 }
  - { offset: 0x2D4B1, size: 0x8, addend: 0x0, symName: __ZN8facebook5react26NativeIdleCallbacksCxxSpecINS0_19NativeIdleCallbacksEE6createERNS_3jsi7RuntimeERKNS4_10PropNameIDE, symObjAddr: 0xB78, symBinAddr: 0x4B78, symSize: 0x8 }
  - { offset: 0x2D5FD, size: 0x8, addend: 0x0, symName: __ZNSt3__112basic_stringIcNS_11char_traitsIcEENS_9allocatorIcEEE20__throw_length_errorB8ne200100Ev, symObjAddr: 0xC34, symBinAddr: 0x4C34, symSize: 0x14 }
  - { offset: 0x2D615, size: 0x8, addend: 0x0, symName: __ZNSt3__120__throw_length_errorB8ne200100EPKc, symObjAddr: 0xC48, symBinAddr: 0x4C48, symSize: 0x50 }
  - { offset: 0x2D620, size: 0x8, addend: 0x0, symName: __ZNSt12length_errorC1B8ne200100EPKc, symObjAddr: 0xC98, symBinAddr: 0x4C98, symSize: 0x24 }
  - { offset: 0x2D8E7, size: 0x8, addend: 0x0, symName: __ZNSt3__120__shared_ptr_emplaceIN8facebook5react19NativeIdleCallbacksENS_9allocatorIS3_EEEC2B8ne200100IJNS_10shared_ptrINS2_11CallInvokerEEEES5_Li0EEES5_DpOT_, symObjAddr: 0xDEC, symBinAddr: 0x4D3C, symSize: 0x4C }
  - { offset: 0x2DA7E, size: 0x8, addend: 0x0, symName: __ZNSt3__120__shared_ptr_emplaceIN8facebook5react19NativeIdleCallbacksENS_9allocatorIS3_EEED1Ev, symObjAddr: 0xE38, symBinAddr: 0x4D88, symSize: 0x14 }
  - { offset: 0x2DAA2, size: 0x8, addend: 0x0, symName: __ZNSt3__120__shared_ptr_emplaceIN8facebook5react19NativeIdleCallbacksENS_9allocatorIS3_EEED1Ev, symObjAddr: 0xE38, symBinAddr: 0x4D88, symSize: 0x14 }
  - { offset: 0x2DAD9, size: 0x8, addend: 0x0, symName: __ZNSt3__120__shared_ptr_emplaceIN8facebook5react19NativeIdleCallbacksENS_9allocatorIS3_EEED0Ev, symObjAddr: 0xE4C, symBinAddr: 0x4D9C, symSize: 0x24 }
  - { offset: 0x2DBA9, size: 0x8, addend: 0x0, symName: __ZNSt3__120__shared_ptr_emplaceIN8facebook5react19NativeIdleCallbacksENS_9allocatorIS3_EEE16__on_zero_sharedEv, symObjAddr: 0xE70, symBinAddr: 0x4DC0, symSize: 0xC }
  - { offset: 0x2DBD3, size: 0x8, addend: 0x0, symName: __ZNSt3__120__shared_ptr_emplaceIN8facebook5react19NativeIdleCallbacksENS_9allocatorIS3_EEE16__on_zero_sharedEv, symObjAddr: 0xE70, symBinAddr: 0x4DC0, symSize: 0xC }
  - { offset: 0x2DBF2, size: 0x8, addend: 0x0, symName: __ZNSt3__120__shared_ptr_emplaceIN8facebook5react19NativeIdleCallbacksENS_9allocatorIS3_EEE16__on_zero_sharedEv, symObjAddr: 0xE70, symBinAddr: 0x4DC0, symSize: 0xC }
  - { offset: 0x2DC11, size: 0x8, addend: 0x0, symName: __ZNSt3__120__shared_ptr_emplaceIN8facebook5react19NativeIdleCallbacksENS_9allocatorIS3_EEE16__on_zero_sharedEv, symObjAddr: 0xE70, symBinAddr: 0x4DC0, symSize: 0xC }
  - { offset: 0x2DC3D, size: 0x8, addend: 0x0, symName: __ZNSt3__120__shared_ptr_emplaceIN8facebook5react19NativeIdleCallbacksENS_9allocatorIS3_EEE21__on_zero_shared_weakEv, symObjAddr: 0xE7C, symBinAddr: 0x4DCC, symSize: 0x4 }
  - { offset: 0x2DC71, size: 0x8, addend: 0x0, symName: __ZNSt3__120__shared_ptr_emplaceIN8facebook5react19NativeIdleCallbacksENS_9allocatorIS3_EEE21__on_zero_shared_weakEv, symObjAddr: 0xE7C, symBinAddr: 0x4DCC, symSize: 0x4 }
  - { offset: 0x2DC95, size: 0x8, addend: 0x0, symName: __ZNSt3__120__shared_ptr_emplaceIN8facebook5react19NativeIdleCallbacksENS_9allocatorIS3_EEE21__on_zero_shared_weakEv, symObjAddr: 0xE7C, symBinAddr: 0x4DCC, symSize: 0x4 }
  - { offset: 0x2DCBA, size: 0x8, addend: 0x0, symName: __ZNSt3__120__shared_ptr_emplaceIN8facebook5react19NativeIdleCallbacksENS_9allocatorIS3_EEE21__on_zero_shared_weakEv, symObjAddr: 0xE7C, symBinAddr: 0x4DCC, symSize: 0x4 }
  - { offset: 0x2DCF2, size: 0x8, addend: 0x0, symName: __ZNSt3__120__shared_ptr_emplaceIN8facebook5react19NativeIdleCallbacksENS_9allocatorIS3_EEE21__on_zero_shared_weakEv, symObjAddr: 0xE7C, symBinAddr: 0x4DCC, symSize: 0x4 }
  - { offset: 0x2DE34, size: 0x8, addend: 0x0, symName: __ZNSt3__110unique_ptrIN8facebook3jsi10WeakObjectENS_14default_deleteIS3_EEE5resetB8ne200100EPS3_, symObjAddr: 0x2EA4, symBinAddr: 0x6B9C, symSize: 0x48 }
  - { offset: 0x2DF06, size: 0x8, addend: 0x0, symName: __ZNSt3__112__hash_tableINS_17__hash_value_typeINS_12basic_stringIcNS_11char_traitsIcEENS_9allocatorIcEEEENS_10shared_ptrIN8facebook5react18IAsyncEventEmitterEEEEENS_22__unordered_map_hasherIS7_SD_NS_4hashIS7_EENS_8equal_toIS7_EELb1EEENS_21__unordered_map_equalIS7_SD_SI_SG_Lb1EEENS5_ISD_EEED2Ev, symObjAddr: 0x2EEC, symBinAddr: 0x6BE4, symSize: 0x38 }
  - { offset: 0x2E076, size: 0x8, addend: 0x0, symName: __ZNSt3__112__hash_tableINS_17__hash_value_typeINS_12basic_stringIcNS_11char_traitsIcEENS_9allocatorIcEEEEN8facebook5react11TurboModule14MethodMetadataEEENS_22__unordered_map_hasherIS7_SC_NS_4hashIS7_EENS_8equal_toIS7_EELb1EEENS_21__unordered_map_equalIS7_SC_SH_SF_Lb1EEENS5_ISC_EEED2Ev, symObjAddr: 0x2FF4, symBinAddr: 0x6C94, symSize: 0x38 }
  - { offset: 0x2E1E6, size: 0x8, addend: 0x0, symName: __ZN8facebook5react26NativeIdleCallbacksCxxSpecINS0_19NativeIdleCallbacksEED1Ev, symObjAddr: 0x1018, symBinAddr: 0x4EB8, symSize: 0x4 }
  - { offset: 0x2E20A, size: 0x8, addend: 0x0, symName: __ZN8facebook5react26NativeIdleCallbacksCxxSpecINS0_19NativeIdleCallbacksEED1Ev, symObjAddr: 0x1018, symBinAddr: 0x4EB8, symSize: 0x4 }
  - { offset: 0x2E241, size: 0x8, addend: 0x0, symName: __ZN8facebook5react26NativeIdleCallbacksCxxSpecINS0_19NativeIdleCallbacksEED0Ev, symObjAddr: 0x101C, symBinAddr: 0x4EBC, symSize: 0x14 }
  - { offset: 0x2E2FF, size: 0x8, addend: 0x0, symName: __ZN8facebook5react26NativeIdleCallbacksCxxSpecINS0_19NativeIdleCallbacksEE8DelegateD1Ev, symObjAddr: 0x10D8, symBinAddr: 0x4F78, symSize: 0x60 }
  - { offset: 0x2E5D9, size: 0x8, addend: 0x0, symName: __ZN8facebook5react26NativeIdleCallbacksCxxSpecINS0_19NativeIdleCallbacksEE8DelegateD0Ev, symObjAddr: 0x1138, symBinAddr: 0x4FD8, symSize: 0x64 }
  - { offset: 0x2EA36, size: 0x8, addend: 0x0, symName: __ZNSt3__16vectorIN8facebook3jsi10PropNameIDENS_9allocatorIS3_EEE7reserveEm, symObjAddr: 0x150C, symBinAddr: 0x53AC, symSize: 0x8C }
  - { offset: 0x2EBE6, size: 0x8, addend: 0x0, symName: __ZNSt3__16vectorIN8facebook3jsi10PropNameIDENS_9allocatorIS3_EEE9push_backB8ne200100EOS3_, symObjAddr: 0x1598, symBinAddr: 0x5438, symSize: 0xF0 }
  - { offset: 0x2EFBF, size: 0x8, addend: 0x0, symName: __ZNSt3__16vectorIN8facebook3jsi10PropNameIDENS_9allocatorIS3_EEE16__destroy_vectorclB8ne200100Ev, symObjAddr: 0x17E4, symBinAddr: 0x5684, symSize: 0x78 }
  - { offset: 0x2F6DC, size: 0x8, addend: 0x0, symName: __ZNSt3__112__hash_tableINS_17__hash_value_typeINS_12basic_stringIcNS_11char_traitsIcEENS_9allocatorIcEEEEN8facebook5react11TurboModule14MethodMetadataEEENS_22__unordered_map_hasherIS7_SC_NS_4hashIS7_EENS_8equal_toIS7_EELb1EEENS_21__unordered_map_equalIS7_SC_SH_SF_Lb1EEENS5_ISC_EEE4findIS7_EENS_15__hash_iteratorIPNS_11__hash_nodeISC_PvEEEERKT_, symObjAddr: 0x185C, symBinAddr: 0x56FC, symSize: 0xF8 }
  - { offset: 0x2F8EE, size: 0x8, addend: 0x0, symName: __ZNSt3__110__function12__value_funcIFN8facebook3jsi5ValueERNS3_7RuntimeERKS4_PS7_mEEC2B8ne200100EOSB_, symObjAddr: 0x1E6C, symBinAddr: 0x5D0C, symSize: 0x64 }
  - { offset: 0x2FA89, size: 0x8, addend: 0x0, symName: __ZN8facebook5react26NativeIdleCallbacksCxxSpecINS0_19NativeIdleCallbacksEE8Delegate19requestIdleCallbackERNS_3jsi7RuntimeENS5_8FunctionENSt3__18optionalINS5_6ObjectEEE, symObjAddr: 0x14C0, symBinAddr: 0x5360, symSize: 0x28 }
  - { offset: 0x2FB18, size: 0x8, addend: 0x0, symName: __ZN8facebook5react26NativeIdleCallbacksCxxSpecINS0_19NativeIdleCallbacksEE8Delegate18cancelIdleCallbackERNS_3jsi7RuntimeENS5_5ValueE, symObjAddr: 0x14E8, symBinAddr: 0x5388, symSize: 0x24 }
  - { offset: 0x2FC5E, size: 0x8, addend: 0x0, symName: __ZNSt3__16vectorIN8facebook3jsi10PropNameIDENS_9allocatorIS3_EEE26__swap_out_circular_bufferERNS_14__split_bufferIS3_RS5_EE, symObjAddr: 0x169C, symBinAddr: 0x553C, symSize: 0xBC }
  - { offset: 0x2FF71, size: 0x8, addend: 0x0, symName: __ZNSt3__114__split_bufferIN8facebook3jsi10PropNameIDERNS_9allocatorIS3_EEED2Ev, symObjAddr: 0x178C, symBinAddr: 0x562C, symSize: 0x58 }
  - { offset: 0x30110, size: 0x8, addend: 0x0, symName: __ZNSt3__16vectorIN8facebook3jsi10PropNameIDENS_9allocatorIS3_EEE20__throw_length_errorB8ne200100Ev, symObjAddr: 0x1688, symBinAddr: 0x5528, symSize: 0x14 }
  - { offset: 0x30128, size: 0x8, addend: 0x0, symName: __ZNSt3__16vectorIN8facebook3jsi10PropNameIDENS_9allocatorIS3_EEE26__swap_out_circular_bufferERNS_14__split_bufferIS3_RS5_EE, symObjAddr: 0x169C, symBinAddr: 0x553C, symSize: 0xBC }
  - { offset: 0x30554, size: 0x8, addend: 0x0, symName: __ZNKSt3__113__string_hashIcNS_9allocatorIcEEEclB8ne200100ERKNS_12basic_stringIcNS_11char_traitsIcEES2_EE, symObjAddr: 0x1954, symBinAddr: 0x57F4, symSize: 0x3C }
  - { offset: 0x3062F, size: 0x8, addend: 0x0, symName: __ZNKSt3__18equal_toINS_12basic_stringIcNS_11char_traitsIcEENS_9allocatorIcEEEEEclB8ne200100ERKS6_S9_, symObjAddr: 0x1DFC, symBinAddr: 0x5C9C, symSize: 0x70 }
  - { offset: 0x3067B, size: 0x8, addend: 0x0, symName: __ZNKSt3__18equal_toINS_12basic_stringIcNS_11char_traitsIcEENS_9allocatorIcEEEEEclB8ne200100ERKS6_S9_, symObjAddr: 0x1DFC, symBinAddr: 0x5C9C, symSize: 0x70 }
  - { offset: 0x306AF, size: 0x8, addend: 0x0, symName: __ZNKSt3__18equal_toINS_12basic_stringIcNS_11char_traitsIcEENS_9allocatorIcEEEEEclB8ne200100ERKS6_S9_, symObjAddr: 0x1DFC, symBinAddr: 0x5C9C, symSize: 0x70 }
  - { offset: 0x306CD, size: 0x8, addend: 0x0, symName: __ZNKSt3__18equal_toINS_12basic_stringIcNS_11char_traitsIcEENS_9allocatorIcEEEEEclB8ne200100ERKS6_S9_, symObjAddr: 0x1DFC, symBinAddr: 0x5C9C, symSize: 0x70 }
  - { offset: 0x307E2, size: 0x8, addend: 0x0, symName: __ZNKSt3__121__murmur2_or_cityhashImLm64EEclB8ne200100EPKvm, symObjAddr: 0x1990, symBinAddr: 0x5830, symSize: 0x208 }
  - { offset: 0x30E9A, size: 0x8, addend: 0x0, symName: __ZNSt3__121__murmur2_or_cityhashImLm64EE18__hash_len_0_to_16B8ne200100EPKcm, symObjAddr: 0x1B98, symBinAddr: 0x5A38, symSize: 0xF8 }
  - { offset: 0x310C0, size: 0x8, addend: 0x0, symName: __ZNSt3__121__murmur2_or_cityhashImLm64EE19__hash_len_33_to_64B8ne200100EPKcm, symObjAddr: 0x1D3C, symBinAddr: 0x5BDC, symSize: 0xC0 }
  - { offset: 0x31349, size: 0x8, addend: 0x0, symName: __ZNSt3__121__murmur2_or_cityhashImLm64EE19__hash_len_17_to_32B8ne200100EPKcm, symObjAddr: 0x1C90, symBinAddr: 0x5B30, symSize: 0xAC }
  - { offset: 0x31522, size: 0x8, addend: 0x0, symName: __ZNSt3__110__function6__funcIZN8facebook5react11TurboModule6createERNS2_3jsi7RuntimeERKNS5_10PropNameIDEEUlS7_RKNS5_5ValueEPSC_mE_NS_9allocatorISF_EEFSB_S7_SD_SE_mEED1Ev, symObjAddr: 0x1ED0, symBinAddr: 0x5D70, symSize: 0x4 }
  - { offset: 0x3154E, size: 0x8, addend: 0x0, symName: __ZNSt3__110__function6__funcIZN8facebook5react11TurboModule6createERNS2_3jsi7RuntimeERKNS5_10PropNameIDEEUlS7_RKNS5_5ValueEPSC_mE_NS_9allocatorISF_EEFSB_S7_SD_SE_mEED0Ev, symObjAddr: 0x1ED4, symBinAddr: 0x5D74, symSize: 0x4 }
  - { offset: 0x3163E, size: 0x8, addend: 0x0, symName: __ZNKSt3__110__function6__funcIZN8facebook5react11TurboModule6createERNS2_3jsi7RuntimeERKNS5_10PropNameIDEEUlS7_RKNS5_5ValueEPSC_mE_NS_9allocatorISF_EEFSB_S7_SD_SE_mEE7__cloneEv, symObjAddr: 0x1ED8, symBinAddr: 0x5D78, symSize: 0x40 }
  - { offset: 0x31860, size: 0x8, addend: 0x0, symName: __ZNKSt3__110__function6__funcIZN8facebook5react11TurboModule6createERNS2_3jsi7RuntimeERKNS5_10PropNameIDEEUlS7_RKNS5_5ValueEPSC_mE_NS_9allocatorISF_EEFSB_S7_SD_SE_mEE7__cloneEPNS0_6__baseISI_EE, symObjAddr: 0x1F18, symBinAddr: 0x5DB8, symSize: 0x20 }
  - { offset: 0x31897, size: 0x8, addend: 0x0, symName: __ZNKSt3__110__function6__funcIZN8facebook5react11TurboModule6createERNS2_3jsi7RuntimeERKNS5_10PropNameIDEEUlS7_RKNS5_5ValueEPSC_mE_NS_9allocatorISF_EEFSB_S7_SD_SE_mEE7__cloneEPNS0_6__baseISI_EE, symObjAddr: 0x1F18, symBinAddr: 0x5DB8, symSize: 0x20 }
  - { offset: 0x318C9, size: 0x8, addend: 0x0, symName: __ZNKSt3__110__function6__funcIZN8facebook5react11TurboModule6createERNS2_3jsi7RuntimeERKNS5_10PropNameIDEEUlS7_RKNS5_5ValueEPSC_mE_NS_9allocatorISF_EEFSB_S7_SD_SE_mEE7__cloneEPNS0_6__baseISI_EE, symObjAddr: 0x1F18, symBinAddr: 0x5DB8, symSize: 0x20 }
  - { offset: 0x31963, size: 0x8, addend: 0x0, symName: __ZNSt3__110__function6__funcIZN8facebook5react11TurboModule6createERNS2_3jsi7RuntimeERKNS5_10PropNameIDEEUlS7_RKNS5_5ValueEPSC_mE_NS_9allocatorISF_EEFSB_S7_SD_SE_mEE7destroyEv, symObjAddr: 0x1F38, symBinAddr: 0x5DD8, symSize: 0x4 }
  - { offset: 0x319BA, size: 0x8, addend: 0x0, symName: __ZNSt3__110__function6__funcIZN8facebook5react11TurboModule6createERNS2_3jsi7RuntimeERKNS5_10PropNameIDEEUlS7_RKNS5_5ValueEPSC_mE_NS_9allocatorISF_EEFSB_S7_SD_SE_mEE18destroy_deallocateEv, symObjAddr: 0x1F3C, symBinAddr: 0x5DDC, symSize: 0x4 }
  - { offset: 0x319EF, size: 0x8, addend: 0x0, symName: __ZNSt3__110__function6__funcIZN8facebook5react11TurboModule6createERNS2_3jsi7RuntimeERKNS5_10PropNameIDEEUlS7_RKNS5_5ValueEPSC_mE_NS_9allocatorISF_EEFSB_S7_SD_SE_mEE18destroy_deallocateEv, symObjAddr: 0x1F3C, symBinAddr: 0x5DDC, symSize: 0x4 }
  - { offset: 0x31A14, size: 0x8, addend: 0x0, symName: __ZNSt3__110__function6__funcIZN8facebook5react11TurboModule6createERNS2_3jsi7RuntimeERKNS5_10PropNameIDEEUlS7_RKNS5_5ValueEPSC_mE_NS_9allocatorISF_EEFSB_S7_SD_SE_mEE18destroy_deallocateEv, symObjAddr: 0x1F3C, symBinAddr: 0x5DDC, symSize: 0x4 }
  - { offset: 0x31A4B, size: 0x8, addend: 0x0, symName: __ZNSt3__110__function6__funcIZN8facebook5react11TurboModule6createERNS2_3jsi7RuntimeERKNS5_10PropNameIDEEUlS7_RKNS5_5ValueEPSC_mE_NS_9allocatorISF_EEFSB_S7_SD_SE_mEE18destroy_deallocateEv, symObjAddr: 0x1F3C, symBinAddr: 0x5DDC, symSize: 0x4 }
  - { offset: 0x31B6C, size: 0x8, addend: 0x0, symName: __ZNSt3__110__function6__funcIZN8facebook5react11TurboModule6createERNS2_3jsi7RuntimeERKNS5_10PropNameIDEEUlS7_RKNS5_5ValueEPSC_mE_NS_9allocatorISF_EEFSB_S7_SD_SE_mEEclES7_SD_OSE_Om, symObjAddr: 0x1F40, symBinAddr: 0x5DE0, symSize: 0x1C }
  - { offset: 0x31D1E, size: 0x8, addend: 0x0, symName: __ZNKSt3__110__function6__funcIZN8facebook5react11TurboModule6createERNS2_3jsi7RuntimeERKNS5_10PropNameIDEEUlS7_RKNS5_5ValueEPSC_mE_NS_9allocatorISF_EEFSB_S7_SD_SE_mEE6targetERKSt9type_info, symObjAddr: 0x1F5C, symBinAddr: 0x5DFC, symSize: 0x3C }
  - { offset: 0x31D6D, size: 0x8, addend: 0x0, symName: __ZNKSt9type_infoeqB8ne200100ERKS_, symObjAddr: 0x1FA4, symBinAddr: 0x5E44, symSize: 0x4C }
  - { offset: 0x31E12, size: 0x8, addend: 0x0, symName: __ZNKSt3__110__function6__funcIZN8facebook5react11TurboModule6createERNS2_3jsi7RuntimeERKNS5_10PropNameIDEEUlS7_RKNS5_5ValueEPSC_mE_NS_9allocatorISF_EEFSB_S7_SD_SE_mEE11target_typeEv, symObjAddr: 0x1F98, symBinAddr: 0x5E38, symSize: 0xC }
  - { offset: 0x3201D, size: 0x8, addend: 0x0, symName: __ZN8facebook5react12SyncCallbackIFvNS_3jsi6ObjectEEED2Ev, symObjAddr: 0x2C60, symBinAddr: 0x6958, symSize: 0x88 }
  - { offset: 0x32268, size: 0x8, addend: 0x0, symName: __ZN8facebook5react8BridgingINS0_12SyncCallbackIFvNS_3jsi6ObjectEEEEvE6fromJsERNS3_7RuntimeEONS3_8FunctionERKNSt3__110shared_ptrINS0_11CallInvokerEEE, symObjAddr: 0x2338, symBinAddr: 0x60E0, symSize: 0xD8 }
  - { offset: 0x32C39, size: 0x8, addend: 0x0, symName: __ZN8facebook5react12SyncCallbackIFvNS_3jsi6ObjectEEEC2ERNS2_7RuntimeENS2_8FunctionENSt3__110shared_ptrINS0_11CallInvokerEEE, symObjAddr: 0x2410, symBinAddr: 0x61B8, symSize: 0x94 }
  - { offset: 0x32DEF, size: 0x8, addend: 0x0, symName: __ZN8facebook5react15CallbackWrapper10createWeakEONS_3jsi8FunctionERNS2_7RuntimeENSt3__110shared_ptrINS0_11CallInvokerEEE, symObjAddr: 0x24A4, symBinAddr: 0x624C, symSize: 0x164 }
  - { offset: 0x33601, size: 0x8, addend: 0x0, symName: __ZNSt3__110shared_ptrIN8facebook5react15CallbackWrapperEEC2B8ne200100IS3_Li0EEEPT_, symObjAddr: 0x2698, symBinAddr: 0x6440, symSize: 0x68 }
  - { offset: 0x33829, size: 0x8, addend: 0x0, symName: __ZN8facebook5react15CallbackWrapperD1Ev, symObjAddr: 0x2608, symBinAddr: 0x63B0, symSize: 0x48 }
  - { offset: 0x33938, size: 0x8, addend: 0x0, symName: __ZN8facebook5react15CallbackWrapperD0Ev, symObjAddr: 0x2650, symBinAddr: 0x63F8, symSize: 0x48 }
  - { offset: 0x33BD7, size: 0x8, addend: 0x0, symName: __ZNSt3__120__shared_ptr_pointerIPN8facebook5react15CallbackWrapperENS_10shared_ptrIS3_E27__shared_ptr_default_deleteIS3_S3_EENS_9allocatorIS3_EEED1Ev, symObjAddr: 0x2700, symBinAddr: 0x64A8, symSize: 0x4 }
  - { offset: 0x33BFB, size: 0x8, addend: 0x0, symName: __ZNSt3__120__shared_ptr_pointerIPN8facebook5react15CallbackWrapperENS_10shared_ptrIS3_E27__shared_ptr_default_deleteIS3_S3_EENS_9allocatorIS3_EEED1Ev, symObjAddr: 0x2700, symBinAddr: 0x64A8, symSize: 0x4 }
  - { offset: 0x33C32, size: 0x8, addend: 0x0, symName: __ZNSt3__120__shared_ptr_pointerIPN8facebook5react15CallbackWrapperENS_10shared_ptrIS3_E27__shared_ptr_default_deleteIS3_S3_EENS_9allocatorIS3_EEED0Ev, symObjAddr: 0x2704, symBinAddr: 0x64AC, symSize: 0x14 }
  - { offset: 0x33C99, size: 0x8, addend: 0x0, symName: __ZNSt3__120__shared_ptr_pointerIPN8facebook5react15CallbackWrapperENS_10shared_ptrIS3_E27__shared_ptr_default_deleteIS3_S3_EENS_9allocatorIS3_EEE16__on_zero_sharedEv, symObjAddr: 0x2718, symBinAddr: 0x64C0, symSize: 0x18 }
  - { offset: 0x33CEA, size: 0x8, addend: 0x0, symName: __ZNKSt3__120__shared_ptr_pointerIPN8facebook5react15CallbackWrapperENS_10shared_ptrIS3_E27__shared_ptr_default_deleteIS3_S3_EENS_9allocatorIS3_EEE13__get_deleterERKSt9type_info, symObjAddr: 0x2730, symBinAddr: 0x64D8, symSize: 0x38 }
  - { offset: 0x33D7C, size: 0x8, addend: 0x0, symName: __ZNSt3__120__shared_ptr_pointerIPN8facebook5react15CallbackWrapperENS_10shared_ptrIS3_E27__shared_ptr_default_deleteIS3_S3_EENS_9allocatorIS3_EEE21__on_zero_shared_weakEv, symObjAddr: 0x2768, symBinAddr: 0x6510, symSize: 0x4 }
  - { offset: 0x33DB0, size: 0x8, addend: 0x0, symName: __ZNSt3__120__shared_ptr_pointerIPN8facebook5react15CallbackWrapperENS_10shared_ptrIS3_E27__shared_ptr_default_deleteIS3_S3_EENS_9allocatorIS3_EEE21__on_zero_shared_weakEv, symObjAddr: 0x2768, symBinAddr: 0x6510, symSize: 0x4 }
  - { offset: 0x33DD4, size: 0x8, addend: 0x0, symName: __ZNSt3__120__shared_ptr_pointerIPN8facebook5react15CallbackWrapperENS_10shared_ptrIS3_E27__shared_ptr_default_deleteIS3_S3_EENS_9allocatorIS3_EEE21__on_zero_shared_weakEv, symObjAddr: 0x2768, symBinAddr: 0x6510, symSize: 0x4 }
  - { offset: 0x33E0B, size: 0x8, addend: 0x0, symName: __ZNSt3__120__shared_ptr_pointerIPN8facebook5react15CallbackWrapperENS_10shared_ptrIS3_E27__shared_ptr_default_deleteIS3_S3_EENS_9allocatorIS3_EEE21__on_zero_shared_weakEv, symObjAddr: 0x2768, symBinAddr: 0x6510, symSize: 0x4 }
  - { offset: 0x33E63, size: 0x8, addend: 0x0, symName: __ZN8facebook5react8bridging9ConverterINSt3__18optionalINS_3jsi6ObjectEEEEC2ERNS5_7RuntimeES7_, symObjAddr: 0x2BF8, symBinAddr: 0x68F0, symSize: 0x68 }
  - { offset: 0x33F9E, size: 0x8, addend: 0x0, symName: __ZN8facebook5react8bridging7convertINS_3jsi6ObjectELi0EEEDaRNS3_7RuntimeENSt3__18optionalIT_EE.cold.1, symObjAddr: 0x3F00, symBinAddr: 0x7AF0, symSize: 0x24 }
  - { offset: 0x33FBA, size: 0x8, addend: 0x0, symName: __ZN8facebook5react8bridging7convertINS_3jsi6ObjectELi0EEEDaRNS3_7RuntimeENSt3__18optionalIT_EE.cold.1, symObjAddr: 0x3F00, symBinAddr: 0x7AF0, symSize: 0x24 }
  - { offset: 0x33FCF, size: 0x8, addend: 0x0, symName: __ZN8facebook5react8bridging7convertINS_3jsi6ObjectELi0EEEDaRNS3_7RuntimeENSt3__18optionalIT_EE.cold.1, symObjAddr: 0x3F00, symBinAddr: 0x7AF0, symSize: 0x24 }
  - { offset: 0x33FE5, size: 0x8, addend: 0x0, symName: __ZN8facebook5react8bridging7convertINS_3jsi6ObjectELi0EEEDaRNS3_7RuntimeENSt3__18optionalIT_EE.cold.1, symObjAddr: 0x3F00, symBinAddr: 0x7AF0, symSize: 0x24 }
  - { offset: 0x33FFB, size: 0x8, addend: 0x0, symName: __ZN8facebook5react8bridging7convertINS_3jsi6ObjectELi0EEEDaRNS3_7RuntimeENSt3__18optionalIT_EE.cold.1, symObjAddr: 0x3F00, symBinAddr: 0x7AF0, symSize: 0x24 }
  - { offset: 0x34011, size: 0x8, addend: 0x0, symName: __ZN8facebook5react8bridging7convertINS_3jsi6ObjectELi0EEEDaRNS3_7RuntimeENSt3__18optionalIT_EE.cold.1, symObjAddr: 0x3F00, symBinAddr: 0x7AF0, symSize: 0x24 }
  - { offset: 0x34027, size: 0x8, addend: 0x0, symName: __ZN8facebook5react8bridging7convertINS_3jsi6ObjectELi0EEEDaRNS3_7RuntimeENSt3__18optionalIT_EE.cold.1, symObjAddr: 0x3F00, symBinAddr: 0x7AF0, symSize: 0x24 }
  - { offset: 0x3403D, size: 0x8, addend: 0x0, symName: __ZN8facebook5react8bridging7convertINS_3jsi6ObjectELi0EEEDaRNS3_7RuntimeENSt3__18optionalIT_EE.cold.1, symObjAddr: 0x3F00, symBinAddr: 0x7AF0, symSize: 0x24 }
  - { offset: 0x34053, size: 0x8, addend: 0x0, symName: __ZN8facebook5react8bridging7convertINS_3jsi6ObjectELi0EEEDaRNS3_7RuntimeENSt3__18optionalIT_EE.cold.1, symObjAddr: 0x3F00, symBinAddr: 0x7AF0, symSize: 0x24 }
  - { offset: 0x34069, size: 0x8, addend: 0x0, symName: __ZN8facebook5react8bridging7convertINS_3jsi6ObjectELi0EEEDaRNS3_7RuntimeENSt3__18optionalIT_EE.cold.1, symObjAddr: 0x3F00, symBinAddr: 0x7AF0, symSize: 0x24 }
  - { offset: 0x3407F, size: 0x8, addend: 0x0, symName: __ZN8facebook5react8bridging7convertINS_3jsi6ObjectELi0EEEDaRNS3_7RuntimeENSt3__18optionalIT_EE.cold.1, symObjAddr: 0x3F00, symBinAddr: 0x7AF0, symSize: 0x24 }
  - { offset: 0x34095, size: 0x8, addend: 0x0, symName: __ZN8facebook5react8bridging7convertINS_3jsi6ObjectELi0EEEDaRNS3_7RuntimeENSt3__18optionalIT_EE.cold.1, symObjAddr: 0x3F00, symBinAddr: 0x7AF0, symSize: 0x24 }
  - { offset: 0x340B8, size: 0x8, addend: 0x0, symName: __ZNO8facebook5react8bridging13ConverterBaseIRKNS_3jsi5ValueEEcvT_INS3_6ObjectELi0EEEv, symObjAddr: 0x2A1C, symBinAddr: 0x6714, symSize: 0x80 }
  - { offset: 0x34268, size: 0x8, addend: 0x0, symName: __ZN8facebook5react53NativeIdleCallbacksRequestIdleCallbackOptionsBridgingINS0_45NativeIdleCallbacksRequestIdleCallbackOptionsINSt3__18optionalINS0_15HighResDurationEEEEEE6fromJsERNS_3jsi7RuntimeERKNS9_6ObjectERKNS3_10shared_ptrINS0_11CallInvokerEEE, symObjAddr: 0x2944, symBinAddr: 0x663C, symSize: 0xD8 }
  - { offset: 0x3467F, size: 0x8, addend: 0x0, symName: __ZNO8facebook5react8bridging13ConverterBaseIRKNS_3jsi5ValueEEcvS4_Ev, symObjAddr: 0x2BB4, symBinAddr: 0x68AC, symSize: 0x44 }
  - { offset: 0x347BC, size: 0x8, addend: 0x0, symName: __ZN8facebook5react11TurboModuleD1Ev, symObjAddr: 0x2DE0, symBinAddr: 0x6AD8, symSize: 0x60 }
  - { offset: 0x34A52, size: 0x8, addend: 0x0, symName: __ZN8facebook5react11TurboModuleD0Ev, symObjAddr: 0x2E40, symBinAddr: 0x6B38, symSize: 0x64 }
  - { offset: 0x34E45, size: 0x8, addend: 0x0, symName: __ZNSt3__112__hash_tableINS_17__hash_value_typeINS_12basic_stringIcNS_11char_traitsIcEENS_9allocatorIcEEEENS_10shared_ptrIN8facebook5react18IAsyncEventEmitterEEEEENS_22__unordered_map_hasherIS7_SD_NS_4hashIS7_EENS_8equal_toIS7_EELb1EEENS_21__unordered_map_equalIS7_SD_SI_SG_Lb1EEENS5_ISD_EEE17__deallocate_nodeEPNS_16__hash_node_baseIPNS_11__hash_nodeISD_PvEEEE, symObjAddr: 0x2F24, symBinAddr: 0x6C1C, symSize: 0x3C }
  - { offset: 0x351CD, size: 0x8, addend: 0x0, symName: __ZNSt3__112__hash_tableINS_17__hash_value_typeINS_12basic_stringIcNS_11char_traitsIcEENS_9allocatorIcEEEEN8facebook5react11TurboModule14MethodMetadataEEENS_22__unordered_map_hasherIS7_SC_NS_4hashIS7_EENS_8equal_toIS7_EELb1EEENS_21__unordered_map_equalIS7_SC_SH_SF_Lb1EEENS5_ISC_EEE17__deallocate_nodeEPNS_16__hash_node_baseIPNS_11__hash_nodeISC_PvEEEE, symObjAddr: 0x302C, symBinAddr: 0x6CCC, symSize: 0x44 }
  - { offset: 0x35570, size: 0x8, addend: 0x0, symName: __ZNSt3__120__shared_ptr_emplaceIN8facebook5react12SyncCallbackIFvNS1_3jsi6ObjectEEEENS_9allocatorIS7_EEED1Ev, symObjAddr: 0x3188, symBinAddr: 0x6DD0, symSize: 0x14 }
  - { offset: 0x35594, size: 0x8, addend: 0x0, symName: __ZNSt3__120__shared_ptr_emplaceIN8facebook5react12SyncCallbackIFvNS1_3jsi6ObjectEEEENS_9allocatorIS7_EEED1Ev, symObjAddr: 0x3188, symBinAddr: 0x6DD0, symSize: 0x14 }
  - { offset: 0x355CB, size: 0x8, addend: 0x0, symName: __ZNSt3__120__shared_ptr_emplaceIN8facebook5react12SyncCallbackIFvNS1_3jsi6ObjectEEEENS_9allocatorIS7_EEED0Ev, symObjAddr: 0x319C, symBinAddr: 0x6DE4, symSize: 0x24 }
  - { offset: 0x356B1, size: 0x8, addend: 0x0, symName: __ZNSt3__120__shared_ptr_emplaceIN8facebook5react12SyncCallbackIFvNS1_3jsi6ObjectEEEENS_9allocatorIS7_EEE16__on_zero_sharedEv, symObjAddr: 0x31C0, symBinAddr: 0x6E08, symSize: 0x8 }
  - { offset: 0x356DB, size: 0x8, addend: 0x0, symName: __ZNSt3__120__shared_ptr_emplaceIN8facebook5react12SyncCallbackIFvNS1_3jsi6ObjectEEEENS_9allocatorIS7_EEE16__on_zero_sharedEv, symObjAddr: 0x31C0, symBinAddr: 0x6E08, symSize: 0x8 }
  - { offset: 0x356FA, size: 0x8, addend: 0x0, symName: __ZNSt3__120__shared_ptr_emplaceIN8facebook5react12SyncCallbackIFvNS1_3jsi6ObjectEEEENS_9allocatorIS7_EEE16__on_zero_sharedEv, symObjAddr: 0x31C0, symBinAddr: 0x6E08, symSize: 0x8 }
  - { offset: 0x357C4, size: 0x8, addend: 0x0, symName: __ZNSt3__120__shared_ptr_emplaceIN8facebook5react12SyncCallbackIFvNS1_3jsi6ObjectEEEENS_9allocatorIS7_EEE21__on_zero_shared_weakEv, symObjAddr: 0x31C8, symBinAddr: 0x6E10, symSize: 0x4 }
  - { offset: 0x357F8, size: 0x8, addend: 0x0, symName: __ZNSt3__120__shared_ptr_emplaceIN8facebook5react12SyncCallbackIFvNS1_3jsi6ObjectEEEENS_9allocatorIS7_EEE21__on_zero_shared_weakEv, symObjAddr: 0x31C8, symBinAddr: 0x6E10, symSize: 0x4 }
  - { offset: 0x3581C, size: 0x8, addend: 0x0, symName: __ZNSt3__120__shared_ptr_emplaceIN8facebook5react12SyncCallbackIFvNS1_3jsi6ObjectEEEENS_9allocatorIS7_EEE21__on_zero_shared_weakEv, symObjAddr: 0x31C8, symBinAddr: 0x6E10, symSize: 0x4 }
  - { offset: 0x35841, size: 0x8, addend: 0x0, symName: __ZNSt3__120__shared_ptr_emplaceIN8facebook5react12SyncCallbackIFvNS1_3jsi6ObjectEEEENS_9allocatorIS7_EEE21__on_zero_shared_weakEv, symObjAddr: 0x31C8, symBinAddr: 0x6E10, symSize: 0x4 }
  - { offset: 0x35878, size: 0x8, addend: 0x0, symName: __ZNSt3__120__shared_ptr_emplaceIN8facebook5react12SyncCallbackIFvNS1_3jsi6ObjectEEEENS_9allocatorIS7_EEE21__on_zero_shared_weakEv, symObjAddr: 0x31C8, symBinAddr: 0x6E10, symSize: 0x4 }
  - { offset: 0x358F6, size: 0x8, addend: 0x0, symName: '__ZNSt3__110__function6__funcIZN8facebook5react19NativeIdleCallbacks19requestIdleCallbackERNS2_3jsi7RuntimeEONS3_12SyncCallbackIFvNS5_6ObjectEEEENS_8optionalINS3_45NativeIdleCallbacksRequestIdleCallbackOptionsINSD_INS3_15HighResDurationEEEEEEEE3$_0NS_9allocatorISJ_EEFvS7_EED1Ev', symObjAddr: 0x3224, symBinAddr: 0x6E14, symSize: 0x38 }
  - { offset: 0x359E5, size: 0x8, addend: 0x0, symName: '__ZNSt3__110__function6__funcIZN8facebook5react19NativeIdleCallbacks19requestIdleCallbackERNS2_3jsi7RuntimeEONS3_12SyncCallbackIFvNS5_6ObjectEEEENS_8optionalINS3_45NativeIdleCallbacksRequestIdleCallbackOptionsINSD_INS3_15HighResDurationEEEEEEEE3$_0NS_9allocatorISJ_EEFvS7_EED0Ev', symObjAddr: 0x325C, symBinAddr: 0x6E4C, symSize: 0x38 }
  - { offset: 0x35BE7, size: 0x8, addend: 0x0, symName: '__ZNKSt3__110__function6__funcIZN8facebook5react19NativeIdleCallbacks19requestIdleCallbackERNS2_3jsi7RuntimeEONS3_12SyncCallbackIFvNS5_6ObjectEEEENS_8optionalINS3_45NativeIdleCallbacksRequestIdleCallbackOptionsINSD_INS3_15HighResDurationEEEEEEEE3$_0NS_9allocatorISJ_EEFvS7_EE7__cloneEv', symObjAddr: 0x3294, symBinAddr: 0x6E84, symSize: 0x78 }
  - { offset: 0x35F95, size: 0x8, addend: 0x0, symName: '__ZNKSt3__110__function6__funcIZN8facebook5react19NativeIdleCallbacks19requestIdleCallbackERNS2_3jsi7RuntimeEONS3_12SyncCallbackIFvNS5_6ObjectEEEENS_8optionalINS3_45NativeIdleCallbacksRequestIdleCallbackOptionsINSD_INS3_15HighResDurationEEEEEEEE3$_0NS_9allocatorISJ_EEFvS7_EE7__cloneEPNS0_6__baseISM_EE', symObjAddr: 0x330C, symBinAddr: 0x6EFC, symSize: 0x58 }
  - { offset: 0x35FCC, size: 0x8, addend: 0x0, symName: '__ZNKSt3__110__function6__funcIZN8facebook5react19NativeIdleCallbacks19requestIdleCallbackERNS2_3jsi7RuntimeEONS3_12SyncCallbackIFvNS5_6ObjectEEEENS_8optionalINS3_45NativeIdleCallbacksRequestIdleCallbackOptionsINSD_INS3_15HighResDurationEEEEEEEE3$_0NS_9allocatorISJ_EEFvS7_EE7__cloneEPNS0_6__baseISM_EE', symObjAddr: 0x330C, symBinAddr: 0x6EFC, symSize: 0x58 }
  - { offset: 0x35FFE, size: 0x8, addend: 0x0, symName: '__ZNKSt3__110__function6__funcIZN8facebook5react19NativeIdleCallbacks19requestIdleCallbackERNS2_3jsi7RuntimeEONS3_12SyncCallbackIFvNS5_6ObjectEEEENS_8optionalINS3_45NativeIdleCallbacksRequestIdleCallbackOptionsINSD_INS3_15HighResDurationEEEEEEEE3$_0NS_9allocatorISJ_EEFvS7_EE7__cloneEPNS0_6__baseISM_EE', symObjAddr: 0x330C, symBinAddr: 0x6EFC, symSize: 0x58 }
  - { offset: 0x3623A, size: 0x8, addend: 0x0, symName: '__ZNSt3__110__function6__funcIZN8facebook5react19NativeIdleCallbacks19requestIdleCallbackERNS2_3jsi7RuntimeEONS3_12SyncCallbackIFvNS5_6ObjectEEEENS_8optionalINS3_45NativeIdleCallbacksRequestIdleCallbackOptionsINSD_INS3_15HighResDurationEEEEEEEE3$_0NS_9allocatorISJ_EEFvS7_EE7destroyEv', symObjAddr: 0x3364, symBinAddr: 0x6F54, symSize: 0x28 }
  - { offset: 0x36304, size: 0x8, addend: 0x0, symName: '__ZNSt3__110__function6__funcIZN8facebook5react19NativeIdleCallbacks19requestIdleCallbackERNS2_3jsi7RuntimeEONS3_12SyncCallbackIFvNS5_6ObjectEEEENS_8optionalINS3_45NativeIdleCallbacksRequestIdleCallbackOptionsINSD_INS3_15HighResDurationEEEEEEEE3$_0NS_9allocatorISJ_EEFvS7_EE18destroy_deallocateEv', symObjAddr: 0x338C, symBinAddr: 0x6F7C, symSize: 0x30 }
  - { offset: 0x368BD, size: 0x8, addend: 0x0, symName: '__ZNSt3__110__function6__funcIZN8facebook5react19NativeIdleCallbacks19requestIdleCallbackERNS2_3jsi7RuntimeEONS3_12SyncCallbackIFvNS5_6ObjectEEEENS_8optionalINS3_45NativeIdleCallbacksRequestIdleCallbackOptionsINSD_INS3_15HighResDurationEEEEEEEE3$_0NS_9allocatorISJ_EEFvS7_EEclES7_', symObjAddr: 0x33BC, symBinAddr: 0x6FAC, symSize: 0x378 }
  - { offset: 0x37899, size: 0x8, addend: 0x0, symName: __ZNK8facebook3jsi6Object11setPropertyIRbEEvRNS0_7RuntimeEPKcOT_, symObjAddr: 0x377C, symBinAddr: 0x736C, symSize: 0xA4 }
  - { offset: 0x37A8E, size: 0x8, addend: 0x0, symName: __ZNK8facebook3jsi6Object11setPropertyINS0_8FunctionEEEvRNS0_7RuntimeEPKcOT_, symObjAddr: 0x3820, symBinAddr: 0x7410, symSize: 0xA4 }
  - { offset: 0x37C83, size: 0x8, addend: 0x0, symName: __ZNK8facebook5react12SyncCallbackIFvNS_3jsi6ObjectEEE4callES3_, symObjAddr: 0x38C4, symBinAddr: 0x74B4, symSize: 0x1DC }
  - { offset: 0x383E3, size: 0x8, addend: 0x0, symName: '__ZNKSt3__110__function6__funcIZN8facebook5react19NativeIdleCallbacks19requestIdleCallbackERNS2_3jsi7RuntimeEONS3_12SyncCallbackIFvNS5_6ObjectEEEENS_8optionalINS3_45NativeIdleCallbacksRequestIdleCallbackOptionsINSD_INS3_15HighResDurationEEEEEEEE3$_0NS_9allocatorISJ_EEFvS7_EE6targetERKSt9type_info', symObjAddr: 0x3734, symBinAddr: 0x7324, symSize: 0x3C }
  - { offset: 0x38432, size: 0x8, addend: 0x0, symName: '__ZNKSt3__110__function6__funcIZN8facebook5react19NativeIdleCallbacks19requestIdleCallbackERNS2_3jsi7RuntimeEONS3_12SyncCallbackIFvNS5_6ObjectEEEENS_8optionalINS3_45NativeIdleCallbacksRequestIdleCallbackOptionsINSD_INS3_15HighResDurationEEEEEEEE3$_0NS_9allocatorISJ_EEFvS7_EE11target_typeEv', symObjAddr: 0x3770, symBinAddr: 0x7360, symSize: 0xC }
  - { offset: 0x38455, size: 0x8, addend: 0x0, symName: __ZNK8facebook3jsi6Object11setPropertyIRbEEvRNS0_7RuntimeERKNS0_6StringEOT_, symObjAddr: 0x3AA0, symBinAddr: 0x7690, symSize: 0x68 }
  - { offset: 0x385B9, size: 0x8, addend: 0x0, symName: __ZNK8facebook3jsi6Object11setPropertyINS0_8FunctionEEEvRNS0_7RuntimeERKNS0_6StringEOT_, symObjAddr: 0x3B08, symBinAddr: 0x76F8, symSize: 0x90 }
  - { offset: 0x389D0, size: 0x8, addend: 0x0, symName: '__ZNSt3__110__function6__funcIZN8facebook5react12_GLOBAL__N_125makeTimeRemainingFunctionERNS2_3jsi7RuntimeENS_10shared_ptrINS3_16RuntimeSchedulerEEENS3_16HighResTimeStampEE3$_0NS_9allocatorISC_EEFNS5_5ValueES7_RKSF_PSG_mEED1Ev', symObjAddr: 0x3B98, symBinAddr: 0x7788, symSize: 0x30 }
  - { offset: 0x38AD4, size: 0x8, addend: 0x0, symName: '__ZNSt3__110__function6__funcIZN8facebook5react12_GLOBAL__N_125makeTimeRemainingFunctionERNS2_3jsi7RuntimeENS_10shared_ptrINS3_16RuntimeSchedulerEEENS3_16HighResTimeStampEE3$_0NS_9allocatorISC_EEFNS5_5ValueES7_RKSF_PSG_mEED0Ev', symObjAddr: 0x3BC8, symBinAddr: 0x77B8, symSize: 0x30 }
  - { offset: 0x38CEB, size: 0x8, addend: 0x0, symName: '__ZNKSt3__110__function6__funcIZN8facebook5react12_GLOBAL__N_125makeTimeRemainingFunctionERNS2_3jsi7RuntimeENS_10shared_ptrINS3_16RuntimeSchedulerEEENS3_16HighResTimeStampEE3$_0NS_9allocatorISC_EEFNS5_5ValueES7_RKSF_PSG_mEE7__cloneEv', symObjAddr: 0x3BF8, symBinAddr: 0x77E8, symSize: 0x68 }
  - { offset: 0x39025, size: 0x8, addend: 0x0, symName: '__ZNKSt3__110__function6__funcIZN8facebook5react12_GLOBAL__N_125makeTimeRemainingFunctionERNS2_3jsi7RuntimeENS_10shared_ptrINS3_16RuntimeSchedulerEEENS3_16HighResTimeStampEE3$_0NS_9allocatorISC_EEFNS5_5ValueES7_RKSF_PSG_mEE7__cloneEPNS0_6__baseISJ_EE', symObjAddr: 0x3C60, symBinAddr: 0x7850, symSize: 0x48 }
  - { offset: 0x3905C, size: 0x8, addend: 0x0, symName: '__ZNKSt3__110__function6__funcIZN8facebook5react12_GLOBAL__N_125makeTimeRemainingFunctionERNS2_3jsi7RuntimeENS_10shared_ptrINS3_16RuntimeSchedulerEEENS3_16HighResTimeStampEE3$_0NS_9allocatorISC_EEFNS5_5ValueES7_RKSF_PSG_mEE7__cloneEPNS0_6__baseISJ_EE', symObjAddr: 0x3C60, symBinAddr: 0x7850, symSize: 0x48 }
  - { offset: 0x3908E, size: 0x8, addend: 0x0, symName: '__ZNKSt3__110__function6__funcIZN8facebook5react12_GLOBAL__N_125makeTimeRemainingFunctionERNS2_3jsi7RuntimeENS_10shared_ptrINS3_16RuntimeSchedulerEEENS3_16HighResTimeStampEE3$_0NS_9allocatorISC_EEFNS5_5ValueES7_RKSF_PSG_mEE7__cloneEPNS0_6__baseISJ_EE', symObjAddr: 0x3C60, symBinAddr: 0x7850, symSize: 0x48 }
  - { offset: 0x39256, size: 0x8, addend: 0x0, symName: '__ZNSt3__110__function6__funcIZN8facebook5react12_GLOBAL__N_125makeTimeRemainingFunctionERNS2_3jsi7RuntimeENS_10shared_ptrINS3_16RuntimeSchedulerEEENS3_16HighResTimeStampEE3$_0NS_9allocatorISC_EEFNS5_5ValueES7_RKSF_PSG_mEE7destroyEv', symObjAddr: 0x3CA8, symBinAddr: 0x7898, symSize: 0x8 }
  - { offset: 0x39315, size: 0x8, addend: 0x0, symName: '__ZNSt3__110__function6__funcIZN8facebook5react12_GLOBAL__N_125makeTimeRemainingFunctionERNS2_3jsi7RuntimeENS_10shared_ptrINS3_16RuntimeSchedulerEEENS3_16HighResTimeStampEE3$_0NS_9allocatorISC_EEFNS5_5ValueES7_RKSF_PSG_mEE18destroy_deallocateEv', symObjAddr: 0x3CB0, symBinAddr: 0x78A0, symSize: 0x28 }
  - { offset: 0x39646, size: 0x8, addend: 0x0, symName: '__ZNSt3__110__function6__funcIZN8facebook5react12_GLOBAL__N_125makeTimeRemainingFunctionERNS2_3jsi7RuntimeENS_10shared_ptrINS3_16RuntimeSchedulerEEENS3_16HighResTimeStampEE3$_0NS_9allocatorISC_EEFNS5_5ValueES7_RKSF_PSG_mEEclES7_SH_OSI_Om', symObjAddr: 0x3CD8, symBinAddr: 0x78C8, symSize: 0xC4 }
  - { offset: 0x398DF, size: 0x8, addend: 0x0, symName: '__ZNKSt3__110__function6__funcIZN8facebook5react12_GLOBAL__N_125makeTimeRemainingFunctionERNS2_3jsi7RuntimeENS_10shared_ptrINS3_16RuntimeSchedulerEEENS3_16HighResTimeStampEE3$_0NS_9allocatorISC_EEFNS5_5ValueES7_RKSF_PSG_mEE6targetERKSt9type_info', symObjAddr: 0x3D9C, symBinAddr: 0x798C, symSize: 0x3C }
  - { offset: 0x3992E, size: 0x8, addend: 0x0, symName: '__ZNKSt3__110__function6__funcIZN8facebook5react12_GLOBAL__N_125makeTimeRemainingFunctionERNS2_3jsi7RuntimeENS_10shared_ptrINS3_16RuntimeSchedulerEEENS3_16HighResTimeStampEE3$_0NS_9allocatorISC_EEFNS5_5ValueES7_RKSF_PSG_mEE11target_typeEv', symObjAddr: 0x3DD8, symBinAddr: 0x79C8, symSize: 0xC }
  - { offset: 0x3996D, size: 0x8, addend: 0x0, symName: __ZNSt3__120__shared_ptr_emplaceIN8facebook5react12_GLOBAL__N_111IdleTaskRefENS_9allocatorIS4_EEED1Ev, symObjAddr: 0x3DE4, symBinAddr: 0x79D4, symSize: 0x10 }
  - { offset: 0x39991, size: 0x8, addend: 0x0, symName: __ZNSt3__120__shared_ptr_emplaceIN8facebook5react12_GLOBAL__N_111IdleTaskRefENS_9allocatorIS4_EEED1Ev, symObjAddr: 0x3DE4, symBinAddr: 0x79D4, symSize: 0x10 }
  - { offset: 0x399C8, size: 0x8, addend: 0x0, symName: __ZNSt3__120__shared_ptr_emplaceIN8facebook5react12_GLOBAL__N_111IdleTaskRefENS_9allocatorIS4_EEED0Ev, symObjAddr: 0x3DF4, symBinAddr: 0x79E4, symSize: 0x20 }
  - { offset: 0x39A98, size: 0x8, addend: 0x0, symName: __ZNSt3__120__shared_ptr_emplaceIN8facebook5react12_GLOBAL__N_111IdleTaskRefENS_9allocatorIS4_EEE16__on_zero_sharedEv, symObjAddr: 0x3E14, symBinAddr: 0x7A04, symSize: 0xC }
  - { offset: 0x39AC2, size: 0x8, addend: 0x0, symName: __ZNSt3__120__shared_ptr_emplaceIN8facebook5react12_GLOBAL__N_111IdleTaskRefENS_9allocatorIS4_EEE16__on_zero_sharedEv, symObjAddr: 0x3E14, symBinAddr: 0x7A04, symSize: 0xC }
  - { offset: 0x39AE1, size: 0x8, addend: 0x0, symName: __ZNSt3__120__shared_ptr_emplaceIN8facebook5react12_GLOBAL__N_111IdleTaskRefENS_9allocatorIS4_EEE16__on_zero_sharedEv, symObjAddr: 0x3E14, symBinAddr: 0x7A04, symSize: 0xC }
  - { offset: 0x39B00, size: 0x8, addend: 0x0, symName: __ZNSt3__120__shared_ptr_emplaceIN8facebook5react12_GLOBAL__N_111IdleTaskRefENS_9allocatorIS4_EEE16__on_zero_sharedEv, symObjAddr: 0x3E14, symBinAddr: 0x7A04, symSize: 0xC }
  - { offset: 0x39B8A, size: 0x8, addend: 0x0, symName: __ZNSt3__120__shared_ptr_emplaceIN8facebook5react12_GLOBAL__N_111IdleTaskRefENS_9allocatorIS4_EEE21__on_zero_shared_weakEv, symObjAddr: 0x3E20, symBinAddr: 0x7A10, symSize: 0x4 }
  - { offset: 0x39BBE, size: 0x8, addend: 0x0, symName: __ZNSt3__120__shared_ptr_emplaceIN8facebook5react12_GLOBAL__N_111IdleTaskRefENS_9allocatorIS4_EEE21__on_zero_shared_weakEv, symObjAddr: 0x3E20, symBinAddr: 0x7A10, symSize: 0x4 }
  - { offset: 0x39BE2, size: 0x8, addend: 0x0, symName: __ZNSt3__120__shared_ptr_emplaceIN8facebook5react12_GLOBAL__N_111IdleTaskRefENS_9allocatorIS4_EEE21__on_zero_shared_weakEv, symObjAddr: 0x3E20, symBinAddr: 0x7A10, symSize: 0x4 }
  - { offset: 0x39C07, size: 0x8, addend: 0x0, symName: __ZNSt3__120__shared_ptr_emplaceIN8facebook5react12_GLOBAL__N_111IdleTaskRefENS_9allocatorIS4_EEE21__on_zero_shared_weakEv, symObjAddr: 0x3E20, symBinAddr: 0x7A10, symSize: 0x4 }
  - { offset: 0x39C3E, size: 0x8, addend: 0x0, symName: __ZNSt3__120__shared_ptr_emplaceIN8facebook5react12_GLOBAL__N_111IdleTaskRefENS_9allocatorIS4_EEE21__on_zero_shared_weakEv, symObjAddr: 0x3E20, symBinAddr: 0x7A10, symSize: 0x4 }
  - { offset: 0x39C83, size: 0x8, addend: 0x0, symName: __ZN8facebook5react12_GLOBAL__N_111IdleTaskRefD1Ev, symObjAddr: 0x3E24, symBinAddr: 0x7A14, symSize: 0x30 }
  - { offset: 0x39D0E, size: 0x8, addend: 0x0, symName: __ZN8facebook5react12_GLOBAL__N_111IdleTaskRefD0Ev, symObjAddr: 0x3E54, symBinAddr: 0x7A44, symSize: 0x34 }
...
