---
triple:          'arm64-apple-darwin'
binary-path:     '/Users/uk-aplatts/Development/InjuryIQ/ios/DerivedData/Build/Intermediates.noindex/ArchiveIntermediates/InjuryIQ/IntermediateBuildFilesPath/UninstalledProducts/iphoneos/React_microtasksnativemodule.framework/React_microtasksnativemodule'
relocations:
  - { offset: 0x33, size: 0x8, addend: 0x0, symName: _React_microtasksnativemoduleVersionString, symObjAddr: 0x0, symBinAddr: 0x5AD0, symSize: 0x0 }
  - { offset: 0x67, size: 0x8, addend: 0x0, symName: _React_microtasksnativemoduleVersionNumber, symObjAddr: 0x40, symBinAddr: 0x5B10, symSize: 0x0 }
  - { offset: 0xF708, size: 0x8, addend: 0x0, symName: __ZNSt3__115allocate_sharedB8ne200100IN8facebook5react16NativeMicrotasksENS_9allocatorIS3_EEJNS_10shared_ptrINS2_11CallInvokerEEEELi0EEENS6_IT_EERKT0_DpOT1_, symObjAddr: 0x3E4, symBinAddr: 0x43E4, symSize: 0x58 }
  - { offset: 0xFED9, size: 0x8, addend: 0x0, symName: __ZNSt3__112construct_atB8ne200100IN8facebook5react16NativeMicrotasksEJNS_10shared_ptrINS2_11CallInvokerEEEEPS3_EEPT_S9_DpOT0_, symObjAddr: 0x4F8, symBinAddr: 0x44F8, symSize: 0x88 }
  - { offset: 0x100AF, size: 0x8, addend: 0x0, symName: __ZNSt3__120__throw_length_errorB8ne200100EPKc, symObjAddr: 0x608, symBinAddr: 0x4608, symSize: 0x50 }
  - { offset: 0x10520, size: 0x8, addend: 0x0, symName: __ZNSt3__119__allocate_at_leastB8ne200100INS_9allocatorIN8facebook3jsi10PropNameIDEEEEENS_19__allocation_resultINS_16allocator_traitsIT_E7pointerEEERS8_m, symObjAddr: 0xDCC, symBinAddr: 0x4DCC, symSize: 0x34 }
  - { offset: 0x105CC, size: 0x8, addend: 0x0, symName: __ZNSt3__114__split_bufferIN8facebook3jsi10PropNameIDERNS_9allocatorIS3_EEED2Ev, symObjAddr: 0xE00, symBinAddr: 0x4E00, symSize: 0x58 }
  - { offset: 0x10D48, size: 0x8, addend: 0x0, symName: __ZNSt3__112__destroy_atB8ne200100INS_4pairIKNS_12basic_stringIcNS_11char_traitsIcEENS_9allocatorIcEEEENS_10shared_ptrIN8facebook5react18IAsyncEventEmitterEEEEELi0EEEvPT_, symObjAddr: 0x18DC, symBinAddr: 0x57E4, symSize: 0x3C }
  - { offset: 0x124EF, size: 0x8, addend: 0x0, symName: __ZSt28__throw_bad_array_new_lengthB8ne200100v, symObjAddr: 0x43C, symBinAddr: 0x443C, symSize: 0x28 }
  - { offset: 0x135AF, size: 0x8, addend: 0x0, symName: __ZN8facebook5react11TurboModule6createERNS_3jsi7RuntimeERKNS2_10PropNameIDE, symObjAddr: 0x8CC, symBinAddr: 0x48CC, symSize: 0x240 }
  - { offset: 0x141E6, size: 0x8, addend: 0x0, symName: __Z30NativeMicrotasksModuleProviderNSt3__110shared_ptrIN8facebook5react11CallInvokerEEE, symObjAddr: 0x0, symBinAddr: 0x4000, symSize: 0x3C }
  - { offset: 0x14355, size: 0x8, addend: 0x0, symName: __ZN8facebook5react16NativeMicrotasksC2ENSt3__110shared_ptrINS0_11CallInvokerEEE, symObjAddr: 0x3C, symBinAddr: 0x403C, symSize: 0x98 }
  - { offset: 0x144C5, size: 0x8, addend: 0x0, symName: __ZN8facebook5react23NativeMicrotasksCxxSpecINS0_16NativeMicrotasksEEC2ENSt3__110shared_ptrINS0_11CallInvokerEEE, symObjAddr: 0xD4, symBinAddr: 0x40D4, symSize: 0x188 }
  - { offset: 0x14B8A, size: 0x8, addend: 0x0, symName: __ZNSt3__110shared_ptrIN8facebook5react11CallInvokerEED2B8ne200100Ev, symObjAddr: 0x38C, symBinAddr: 0x438C, symSize: 0x58 }
  - { offset: 0x14EC8, size: 0x8, addend: 0x0, symName: __ZN8facebook5react23NativeMicrotasksCxxSpecINS0_16NativeMicrotasksEE8DelegateC2EPS2_NSt3__110shared_ptrINS0_11CallInvokerEEE, symObjAddr: 0x67C, symBinAddr: 0x467C, symSize: 0xA8 }
  - { offset: 0x1502E, size: 0x8, addend: 0x0, symName: __ZN8facebook5react11TurboModuleD2Ev, symObjAddr: 0x590, symBinAddr: 0x4590, symSize: 0x60 }
  - { offset: 0x15268, size: 0x8, addend: 0x0, symName: __ZN8facebook5react16NativeMicrotasksC1ENSt3__110shared_ptrINS0_11CallInvokerEEE, symObjAddr: 0x25C, symBinAddr: 0x425C, symSize: 0x4 }
  - { offset: 0x15293, size: 0x8, addend: 0x0, symName: __ZN8facebook5react16NativeMicrotasksC1ENSt3__110shared_ptrINS0_11CallInvokerEEE, symObjAddr: 0x25C, symBinAddr: 0x425C, symSize: 0x4 }
  - { offset: 0x152AD, size: 0x8, addend: 0x0, symName: __ZN8facebook5react16NativeMicrotasks14queueMicrotaskERNS_3jsi7RuntimeENS2_8FunctionE, symObjAddr: 0x260, symBinAddr: 0x4260, symSize: 0x14 }
  - { offset: 0x15317, size: 0x8, addend: 0x0, symName: __ZN8facebook5react16NativeMicrotasksD1Ev, symObjAddr: 0x274, symBinAddr: 0x4274, symSize: 0x4 }
  - { offset: 0x15339, size: 0x8, addend: 0x0, symName: __ZN8facebook5react16NativeMicrotasksD1Ev, symObjAddr: 0x274, symBinAddr: 0x4274, symSize: 0x4 }
  - { offset: 0x15356, size: 0x8, addend: 0x0, symName: __ZN8facebook5react16NativeMicrotasksD1Ev, symObjAddr: 0x274, symBinAddr: 0x4274, symSize: 0x4 }
  - { offset: 0x15369, size: 0x8, addend: 0x0, symName: __ZN8facebook5react23NativeMicrotasksCxxSpecINS0_16NativeMicrotasksEED2Ev, symObjAddr: 0x19EC, symBinAddr: 0x589C, symSize: 0xC0 }
  - { offset: 0x1588F, size: 0x8, addend: 0x0, symName: __ZN8facebook5react16NativeMicrotasksD0Ev, symObjAddr: 0x278, symBinAddr: 0x4278, symSize: 0x14 }
  - { offset: 0x159AA, size: 0x8, addend: 0x0, symName: __ZN8facebook5react11TurboModule3getERNS_3jsi7RuntimeERKNS2_10PropNameIDE, symObjAddr: 0x28C, symBinAddr: 0x428C, symSize: 0xF0 }
  - { offset: 0x15B7A, size: 0x8, addend: 0x0, symName: __ZNK8facebook3jsi6Object11setPropertyIRNS0_5ValueEEEvRNS0_7RuntimeERKNS0_10PropNameIDEOT_, symObjAddr: 0x1AAC, symBinAddr: 0x595C, symSize: 0x78 }
  - { offset: 0x15C53, size: 0x8, addend: 0x0, symName: __ZN8facebook5react23NativeMicrotasksCxxSpecINS0_16NativeMicrotasksEE16getPropertyNamesERNS_3jsi7RuntimeE, symObjAddr: 0x37C, symBinAddr: 0x437C, symSize: 0x8 }
  - { offset: 0x15CA6, size: 0x8, addend: 0x0, symName: __ZN8facebook5react11TurboModule16getPropertyNamesERNS_3jsi7RuntimeE, symObjAddr: 0x7E8, symBinAddr: 0x47E8, symSize: 0xE4 }
  - { offset: 0x15FAF, size: 0x8, addend: 0x0, symName: __ZN8facebook5react23NativeMicrotasksCxxSpecINS0_16NativeMicrotasksEE6createERNS_3jsi7RuntimeERKNS4_10PropNameIDE, symObjAddr: 0x384, symBinAddr: 0x4384, symSize: 0x8 }
  - { offset: 0x1624C, size: 0x8, addend: 0x0, symName: __ZNSt3__120__shared_ptr_emplaceIN8facebook5react16NativeMicrotasksENS_9allocatorIS3_EEEC2B8ne200100IJNS_10shared_ptrINS2_11CallInvokerEEEES5_Li0EEES5_DpOT_, symObjAddr: 0x464, symBinAddr: 0x4464, symSize: 0x4C }
  - { offset: 0x16400, size: 0x8, addend: 0x0, symName: __ZNSt3__120__shared_ptr_emplaceIN8facebook5react16NativeMicrotasksENS_9allocatorIS3_EEED1Ev, symObjAddr: 0x4B0, symBinAddr: 0x44B0, symSize: 0x14 }
  - { offset: 0x16422, size: 0x8, addend: 0x0, symName: __ZNSt3__120__shared_ptr_emplaceIN8facebook5react16NativeMicrotasksENS_9allocatorIS3_EEED1Ev, symObjAddr: 0x4B0, symBinAddr: 0x44B0, symSize: 0x14 }
  - { offset: 0x16458, size: 0x8, addend: 0x0, symName: __ZNSt3__120__shared_ptr_emplaceIN8facebook5react16NativeMicrotasksENS_9allocatorIS3_EEED0Ev, symObjAddr: 0x4C4, symBinAddr: 0x44C4, symSize: 0x24 }
  - { offset: 0x16524, size: 0x8, addend: 0x0, symName: __ZNSt3__120__shared_ptr_emplaceIN8facebook5react16NativeMicrotasksENS_9allocatorIS3_EEE16__on_zero_sharedEv, symObjAddr: 0x4E8, symBinAddr: 0x44E8, symSize: 0xC }
  - { offset: 0x1654D, size: 0x8, addend: 0x0, symName: __ZNSt3__120__shared_ptr_emplaceIN8facebook5react16NativeMicrotasksENS_9allocatorIS3_EEE16__on_zero_sharedEv, symObjAddr: 0x4E8, symBinAddr: 0x44E8, symSize: 0xC }
  - { offset: 0x1656B, size: 0x8, addend: 0x0, symName: __ZNSt3__120__shared_ptr_emplaceIN8facebook5react16NativeMicrotasksENS_9allocatorIS3_EEE16__on_zero_sharedEv, symObjAddr: 0x4E8, symBinAddr: 0x44E8, symSize: 0xC }
  - { offset: 0x16589, size: 0x8, addend: 0x0, symName: __ZNSt3__120__shared_ptr_emplaceIN8facebook5react16NativeMicrotasksENS_9allocatorIS3_EEE16__on_zero_sharedEv, symObjAddr: 0x4E8, symBinAddr: 0x44E8, symSize: 0xC }
  - { offset: 0x165B5, size: 0x8, addend: 0x0, symName: __ZNSt3__120__shared_ptr_emplaceIN8facebook5react16NativeMicrotasksENS_9allocatorIS3_EEE21__on_zero_shared_weakEv, symObjAddr: 0x4F4, symBinAddr: 0x44F4, symSize: 0x4 }
  - { offset: 0x165E8, size: 0x8, addend: 0x0, symName: __ZNSt3__120__shared_ptr_emplaceIN8facebook5react16NativeMicrotasksENS_9allocatorIS3_EEE21__on_zero_shared_weakEv, symObjAddr: 0x4F4, symBinAddr: 0x44F4, symSize: 0x4 }
  - { offset: 0x16609, size: 0x8, addend: 0x0, symName: __ZNSt3__120__shared_ptr_emplaceIN8facebook5react16NativeMicrotasksENS_9allocatorIS3_EEE21__on_zero_shared_weakEv, symObjAddr: 0x4F4, symBinAddr: 0x44F4, symSize: 0x4 }
  - { offset: 0x1662B, size: 0x8, addend: 0x0, symName: __ZNSt3__120__shared_ptr_emplaceIN8facebook5react16NativeMicrotasksENS_9allocatorIS3_EEE21__on_zero_shared_weakEv, symObjAddr: 0x4F4, symBinAddr: 0x44F4, symSize: 0x4 }
  - { offset: 0x1665E, size: 0x8, addend: 0x0, symName: __ZNSt3__120__shared_ptr_emplaceIN8facebook5react16NativeMicrotasksENS_9allocatorIS3_EEE21__on_zero_shared_weakEv, symObjAddr: 0x4F4, symBinAddr: 0x44F4, symSize: 0x4 }
  - { offset: 0x1679A, size: 0x8, addend: 0x0, symName: __ZNSt3__110unique_ptrIN8facebook3jsi10WeakObjectENS_14default_deleteIS3_EEE5resetB8ne200100EPS3_, symObjAddr: 0x1820, symBinAddr: 0x5728, symSize: 0x48 }
  - { offset: 0x16863, size: 0x8, addend: 0x0, symName: __ZNSt3__112__hash_tableINS_17__hash_value_typeINS_12basic_stringIcNS_11char_traitsIcEENS_9allocatorIcEEEENS_10shared_ptrIN8facebook5react18IAsyncEventEmitterEEEEENS_22__unordered_map_hasherIS7_SD_NS_4hashIS7_EENS_8equal_toIS7_EELb1EEENS_21__unordered_map_equalIS7_SD_SI_SG_Lb1EEENS5_ISD_EEED2Ev, symObjAddr: 0x1868, symBinAddr: 0x5770, symSize: 0x38 }
  - { offset: 0x169BC, size: 0x8, addend: 0x0, symName: __ZNSt3__112__hash_tableINS_17__hash_value_typeINS_12basic_stringIcNS_11char_traitsIcEENS_9allocatorIcEEEEN8facebook5react11TurboModule14MethodMetadataEEENS_22__unordered_map_hasherIS7_SC_NS_4hashIS7_EENS_8equal_toIS7_EELb1EEENS_21__unordered_map_equalIS7_SC_SH_SF_Lb1EEENS5_ISC_EEED2Ev, symObjAddr: 0x1970, symBinAddr: 0x5820, symSize: 0x38 }
  - { offset: 0x16B15, size: 0x8, addend: 0x0, symName: __ZN8facebook5react23NativeMicrotasksCxxSpecINS0_16NativeMicrotasksEED1Ev, symObjAddr: 0x5F0, symBinAddr: 0x45F0, symSize: 0x4 }
  - { offset: 0x16B38, size: 0x8, addend: 0x0, symName: __ZN8facebook5react23NativeMicrotasksCxxSpecINS0_16NativeMicrotasksEED1Ev, symObjAddr: 0x5F0, symBinAddr: 0x45F0, symSize: 0x4 }
  - { offset: 0x16B6D, size: 0x8, addend: 0x0, symName: __ZN8facebook5react23NativeMicrotasksCxxSpecINS0_16NativeMicrotasksEED0Ev, symObjAddr: 0x5F4, symBinAddr: 0x45F4, symSize: 0x14 }
  - { offset: 0x16BCB, size: 0x8, addend: 0x0, symName: __ZNSt12length_errorC1B8ne200100EPKc, symObjAddr: 0x658, symBinAddr: 0x4658, symSize: 0x24 }
  - { offset: 0x16CAF, size: 0x8, addend: 0x0, symName: __ZN8facebook5react23NativeMicrotasksCxxSpecINS0_16NativeMicrotasksEE8DelegateD1Ev, symObjAddr: 0x724, symBinAddr: 0x4724, symSize: 0x60 }
  - { offset: 0x16F66, size: 0x8, addend: 0x0, symName: __ZN8facebook5react23NativeMicrotasksCxxSpecINS0_16NativeMicrotasksEE8DelegateD0Ev, symObjAddr: 0x784, symBinAddr: 0x4784, symSize: 0x64 }
  - { offset: 0x17397, size: 0x8, addend: 0x0, symName: __ZNSt3__16vectorIN8facebook3jsi10PropNameIDENS_9allocatorIS3_EEE7reserveEm, symObjAddr: 0xB80, symBinAddr: 0x4B80, symSize: 0x8C }
  - { offset: 0x1752E, size: 0x8, addend: 0x0, symName: __ZNSt3__16vectorIN8facebook3jsi10PropNameIDENS_9allocatorIS3_EEE9push_backB8ne200100EOS3_, symObjAddr: 0xC0C, symBinAddr: 0x4C0C, symSize: 0xF0 }
  - { offset: 0x178DC, size: 0x8, addend: 0x0, symName: __ZNSt3__16vectorIN8facebook3jsi10PropNameIDENS_9allocatorIS3_EEE16__destroy_vectorclB8ne200100Ev, symObjAddr: 0xE58, symBinAddr: 0x4E58, symSize: 0x78 }
  - { offset: 0x1804F, size: 0x8, addend: 0x0, symName: __ZNSt3__112__hash_tableINS_17__hash_value_typeINS_12basic_stringIcNS_11char_traitsIcEENS_9allocatorIcEEEEN8facebook5react11TurboModule14MethodMetadataEEENS_22__unordered_map_hasherIS7_SC_NS_4hashIS7_EENS_8equal_toIS7_EELb1EEENS_21__unordered_map_equalIS7_SC_SH_SF_Lb1EEENS5_ISC_EEE4findIS7_EENS_15__hash_iteratorIPNS_11__hash_nodeISC_PvEEEERKT_, symObjAddr: 0xED0, symBinAddr: 0x4ED0, symSize: 0xF8 }
  - { offset: 0x18240, size: 0x8, addend: 0x0, symName: __ZNSt3__110__function12__value_funcIFN8facebook3jsi5ValueERNS3_7RuntimeERKS4_PS7_mEEC2B8ne200100EOSB_, symObjAddr: 0x14E0, symBinAddr: 0x54E0, symSize: 0x64 }
  - { offset: 0x18501, size: 0x8, addend: 0x0, symName: __ZN8facebook5react23NativeMicrotasksCxxSpecINS0_16NativeMicrotasksEE8Delegate14queueMicrotaskERNS_3jsi7RuntimeENS5_8FunctionE, symObjAddr: 0xB0C, symBinAddr: 0x4B0C, symSize: 0x74 }
  - { offset: 0x18949, size: 0x8, addend: 0x0, symName: __ZNSt3__16vectorIN8facebook3jsi10PropNameIDENS_9allocatorIS3_EEE26__swap_out_circular_bufferERNS_14__split_bufferIS3_RS5_EE, symObjAddr: 0xD10, symBinAddr: 0x4D10, symSize: 0xBC }
  - { offset: 0x18C32, size: 0x8, addend: 0x0, symName: __ZNSt3__114__split_bufferIN8facebook3jsi10PropNameIDERNS_9allocatorIS3_EEED2Ev, symObjAddr: 0xE00, symBinAddr: 0x4E00, symSize: 0x58 }
  - { offset: 0x18DC0, size: 0x8, addend: 0x0, symName: __ZNSt3__16vectorIN8facebook3jsi10PropNameIDENS_9allocatorIS3_EEE20__throw_length_errorB8ne200100Ev, symObjAddr: 0xCFC, symBinAddr: 0x4CFC, symSize: 0x14 }
  - { offset: 0x18DD8, size: 0x8, addend: 0x0, symName: __ZNSt3__16vectorIN8facebook3jsi10PropNameIDENS_9allocatorIS3_EEE26__swap_out_circular_bufferERNS_14__split_bufferIS3_RS5_EE, symObjAddr: 0xD10, symBinAddr: 0x4D10, symSize: 0xBC }
  - { offset: 0x191FA, size: 0x8, addend: 0x0, symName: __ZNKSt3__113__string_hashIcNS_9allocatorIcEEEclB8ne200100ERKNS_12basic_stringIcNS_11char_traitsIcEES2_EE, symObjAddr: 0xFC8, symBinAddr: 0x4FC8, symSize: 0x3C }
  - { offset: 0x192CB, size: 0x8, addend: 0x0, symName: __ZNKSt3__18equal_toINS_12basic_stringIcNS_11char_traitsIcEENS_9allocatorIcEEEEEclB8ne200100ERKS6_S9_, symObjAddr: 0x1470, symBinAddr: 0x5470, symSize: 0x70 }
  - { offset: 0x19314, size: 0x8, addend: 0x0, symName: __ZNKSt3__18equal_toINS_12basic_stringIcNS_11char_traitsIcEENS_9allocatorIcEEEEEclB8ne200100ERKS6_S9_, symObjAddr: 0x1470, symBinAddr: 0x5470, symSize: 0x70 }
  - { offset: 0x19347, size: 0x8, addend: 0x0, symName: __ZNKSt3__18equal_toINS_12basic_stringIcNS_11char_traitsIcEENS_9allocatorIcEEEEEclB8ne200100ERKS6_S9_, symObjAddr: 0x1470, symBinAddr: 0x5470, symSize: 0x70 }
  - { offset: 0x19363, size: 0x8, addend: 0x0, symName: __ZNKSt3__18equal_toINS_12basic_stringIcNS_11char_traitsIcEENS_9allocatorIcEEEEEclB8ne200100ERKS6_S9_, symObjAddr: 0x1470, symBinAddr: 0x5470, symSize: 0x70 }
  - { offset: 0x19467, size: 0x8, addend: 0x0, symName: __ZNKSt3__121__murmur2_or_cityhashImLm64EEclB8ne200100EPKvm, symObjAddr: 0x1004, symBinAddr: 0x5004, symSize: 0x208 }
  - { offset: 0x19AED, size: 0x8, addend: 0x0, symName: __ZNSt3__121__murmur2_or_cityhashImLm64EE18__hash_len_0_to_16B8ne200100EPKcm, symObjAddr: 0x120C, symBinAddr: 0x520C, symSize: 0xF8 }
  - { offset: 0x19D02, size: 0x8, addend: 0x0, symName: __ZNSt3__121__murmur2_or_cityhashImLm64EE19__hash_len_33_to_64B8ne200100EPKcm, symObjAddr: 0x13B0, symBinAddr: 0x53B0, symSize: 0xC0 }
  - { offset: 0x19F73, size: 0x8, addend: 0x0, symName: __ZNSt3__121__murmur2_or_cityhashImLm64EE19__hash_len_17_to_32B8ne200100EPKcm, symObjAddr: 0x1304, symBinAddr: 0x5304, symSize: 0xAC }
  - { offset: 0x1A140, size: 0x8, addend: 0x0, symName: __ZNSt3__110__function6__funcIZN8facebook5react11TurboModule6createERNS2_3jsi7RuntimeERKNS5_10PropNameIDEEUlS7_RKNS5_5ValueEPSC_mE_NS_9allocatorISF_EEFSB_S7_SD_SE_mEED1Ev, symObjAddr: 0x1544, symBinAddr: 0x5544, symSize: 0x4 }
  - { offset: 0x1A16C, size: 0x8, addend: 0x0, symName: __ZNSt3__110__function6__funcIZN8facebook5react11TurboModule6createERNS2_3jsi7RuntimeERKNS5_10PropNameIDEEUlS7_RKNS5_5ValueEPSC_mE_NS_9allocatorISF_EEFSB_S7_SD_SE_mEED0Ev, symObjAddr: 0x1548, symBinAddr: 0x5548, symSize: 0x4 }
  - { offset: 0x1A25C, size: 0x8, addend: 0x0, symName: __ZNKSt3__110__function6__funcIZN8facebook5react11TurboModule6createERNS2_3jsi7RuntimeERKNS5_10PropNameIDEEUlS7_RKNS5_5ValueEPSC_mE_NS_9allocatorISF_EEFSB_S7_SD_SE_mEE7__cloneEv, symObjAddr: 0x154C, symBinAddr: 0x554C, symSize: 0x40 }
  - { offset: 0x1A469, size: 0x8, addend: 0x0, symName: __ZNKSt3__110__function6__funcIZN8facebook5react11TurboModule6createERNS2_3jsi7RuntimeERKNS5_10PropNameIDEEUlS7_RKNS5_5ValueEPSC_mE_NS_9allocatorISF_EEFSB_S7_SD_SE_mEE7__cloneEPNS0_6__baseISI_EE, symObjAddr: 0x158C, symBinAddr: 0x558C, symSize: 0x20 }
  - { offset: 0x1A49F, size: 0x8, addend: 0x0, symName: __ZNKSt3__110__function6__funcIZN8facebook5react11TurboModule6createERNS2_3jsi7RuntimeERKNS5_10PropNameIDEEUlS7_RKNS5_5ValueEPSC_mE_NS_9allocatorISF_EEFSB_S7_SD_SE_mEE7__cloneEPNS0_6__baseISI_EE, symObjAddr: 0x158C, symBinAddr: 0x558C, symSize: 0x20 }
  - { offset: 0x1A4CD, size: 0x8, addend: 0x0, symName: __ZNKSt3__110__function6__funcIZN8facebook5react11TurboModule6createERNS2_3jsi7RuntimeERKNS5_10PropNameIDEEUlS7_RKNS5_5ValueEPSC_mE_NS_9allocatorISF_EEFSB_S7_SD_SE_mEE7__cloneEPNS0_6__baseISI_EE, symObjAddr: 0x158C, symBinAddr: 0x558C, symSize: 0x20 }
  - { offset: 0x1A55C, size: 0x8, addend: 0x0, symName: __ZNSt3__110__function6__funcIZN8facebook5react11TurboModule6createERNS2_3jsi7RuntimeERKNS5_10PropNameIDEEUlS7_RKNS5_5ValueEPSC_mE_NS_9allocatorISF_EEFSB_S7_SD_SE_mEE7destroyEv, symObjAddr: 0x15AC, symBinAddr: 0x55AC, symSize: 0x4 }
  - { offset: 0x1A5B2, size: 0x8, addend: 0x0, symName: __ZNSt3__110__function6__funcIZN8facebook5react11TurboModule6createERNS2_3jsi7RuntimeERKNS5_10PropNameIDEEUlS7_RKNS5_5ValueEPSC_mE_NS_9allocatorISF_EEFSB_S7_SD_SE_mEE18destroy_deallocateEv, symObjAddr: 0x15B0, symBinAddr: 0x55B0, symSize: 0x4 }
  - { offset: 0x1A5E6, size: 0x8, addend: 0x0, symName: __ZNSt3__110__function6__funcIZN8facebook5react11TurboModule6createERNS2_3jsi7RuntimeERKNS5_10PropNameIDEEUlS7_RKNS5_5ValueEPSC_mE_NS_9allocatorISF_EEFSB_S7_SD_SE_mEE18destroy_deallocateEv, symObjAddr: 0x15B0, symBinAddr: 0x55B0, symSize: 0x4 }
  - { offset: 0x1A608, size: 0x8, addend: 0x0, symName: __ZNSt3__110__function6__funcIZN8facebook5react11TurboModule6createERNS2_3jsi7RuntimeERKNS5_10PropNameIDEEUlS7_RKNS5_5ValueEPSC_mE_NS_9allocatorISF_EEFSB_S7_SD_SE_mEE18destroy_deallocateEv, symObjAddr: 0x15B0, symBinAddr: 0x55B0, symSize: 0x4 }
  - { offset: 0x1A63A, size: 0x8, addend: 0x0, symName: __ZNSt3__110__function6__funcIZN8facebook5react11TurboModule6createERNS2_3jsi7RuntimeERKNS5_10PropNameIDEEUlS7_RKNS5_5ValueEPSC_mE_NS_9allocatorISF_EEFSB_S7_SD_SE_mEE18destroy_deallocateEv, symObjAddr: 0x15B0, symBinAddr: 0x55B0, symSize: 0x4 }
  - { offset: 0x1A758, size: 0x8, addend: 0x0, symName: __ZNSt3__110__function6__funcIZN8facebook5react11TurboModule6createERNS2_3jsi7RuntimeERKNS5_10PropNameIDEEUlS7_RKNS5_5ValueEPSC_mE_NS_9allocatorISF_EEFSB_S7_SD_SE_mEEclES7_SD_OSE_Om, symObjAddr: 0x15B4, symBinAddr: 0x55B4, symSize: 0x1C }
  - { offset: 0x1A8F8, size: 0x8, addend: 0x0, symName: __ZNKSt3__110__function6__funcIZN8facebook5react11TurboModule6createERNS2_3jsi7RuntimeERKNS5_10PropNameIDEEUlS7_RKNS5_5ValueEPSC_mE_NS_9allocatorISF_EEFSB_S7_SD_SE_mEE6targetERKSt9type_info, symObjAddr: 0x15D0, symBinAddr: 0x55D0, symSize: 0x3C }
  - { offset: 0x1A944, size: 0x8, addend: 0x0, symName: __ZNKSt9type_infoeqB8ne200100ERKS_, symObjAddr: 0x1618, symBinAddr: 0x5618, symSize: 0x4C }
  - { offset: 0x1A9E4, size: 0x8, addend: 0x0, symName: __ZNKSt3__110__function6__funcIZN8facebook5react11TurboModule6createERNS2_3jsi7RuntimeERKNS5_10PropNameIDEEUlS7_RKNS5_5ValueEPSC_mE_NS_9allocatorISF_EEFSB_S7_SD_SE_mEE11target_typeEv, symObjAddr: 0x160C, symBinAddr: 0x560C, symSize: 0xC }
  - { offset: 0x1AB3B, size: 0x8, addend: 0x0, symName: __ZN8facebook5react11TurboModuleD1Ev, symObjAddr: 0x175C, symBinAddr: 0x5664, symSize: 0x60 }
  - { offset: 0x1ADB0, size: 0x8, addend: 0x0, symName: __ZN8facebook5react11TurboModuleD0Ev, symObjAddr: 0x17BC, symBinAddr: 0x56C4, symSize: 0x64 }
  - { offset: 0x1B17A, size: 0x8, addend: 0x0, symName: __ZNSt3__112__hash_tableINS_17__hash_value_typeINS_12basic_stringIcNS_11char_traitsIcEENS_9allocatorIcEEEENS_10shared_ptrIN8facebook5react18IAsyncEventEmitterEEEEENS_22__unordered_map_hasherIS7_SD_NS_4hashIS7_EENS_8equal_toIS7_EELb1EEENS_21__unordered_map_equalIS7_SD_SI_SG_Lb1EEENS5_ISD_EEE17__deallocate_nodeEPNS_16__hash_node_baseIPNS_11__hash_nodeISD_PvEEEE, symObjAddr: 0x18A0, symBinAddr: 0x57A8, symSize: 0x3C }
  - { offset: 0x1B4E8, size: 0x8, addend: 0x0, symName: __ZNSt3__112__hash_tableINS_17__hash_value_typeINS_12basic_stringIcNS_11char_traitsIcEENS_9allocatorIcEEEEN8facebook5react11TurboModule14MethodMetadataEEENS_22__unordered_map_hasherIS7_SC_NS_4hashIS7_EENS_8equal_toIS7_EELb1EEENS_21__unordered_map_equalIS7_SC_SH_SF_Lb1EEENS5_ISC_EEE17__deallocate_nodeEPNS_16__hash_node_baseIPNS_11__hash_nodeISC_PvEEEE, symObjAddr: 0x19A8, symBinAddr: 0x5858, symSize: 0x44 }
...
