---
triple:          'arm64-apple-darwin'
binary-path:     '/Users/uk-aplatts/Development/InjuryIQ/ios/DerivedData/Build/Intermediates.noindex/ArchiveIntermediates/InjuryIQ/IntermediateBuildFilesPath/UninstalledProducts/iphoneos/React_domnativemodule.framework/React_domnativemodule'
relocations:
  - { offset: 0x33, size: 0x8, addend: 0x0, symName: _React_domnativemoduleVersionString, symObjAddr: 0x0, symBinAddr: 0xA348, symSize: 0x0 }
  - { offset: 0x67, size: 0x8, addend: 0x0, symName: _React_domnativemoduleVersionNumber, symObjAddr: 0x38, symBinAddr: 0xA380, symSize: 0x0 }
  - { offset: 0x6C33, size: 0x8, addend: 0x0, symName: __ZN8facebook5reactL28getCurrentShadowTreeRevisionERNS_3jsi7RuntimeERNS1_5ValueE, symObjAddr: 0x6BC, symBinAddr: 0x46BC, symSize: 0xFC }
  - { offset: 0x6EA3, size: 0x8, addend: 0x0, symName: __ZN8facebook5reactL23getUIManagerFromRuntimeERNS_3jsi7RuntimeE, symObjAddr: 0x24C4, symBinAddr: 0x64C4, symSize: 0x84 }
  - { offset: 0x6FBC, size: 0x8, addend: 0x0, symName: __ZN8facebook5reactL40getArrayOfInstanceHandlesFromShadowNodesERKNSt3__16vectorINS1_10shared_ptrIKNS0_10ShadowNodeEEENS1_9allocatorIS6_EEEERNS_3jsi7RuntimeE, symObjAddr: 0xA34, symBinAddr: 0x4A34, symSize: 0xC0 }
  - { offset: 0x71E3, size: 0x8, addend: 0x0, symName: __ZN8facebook5reactL36getPointerEventsProcessorFromRuntimeERNS_3jsi7RuntimeE, symObjAddr: 0x1364, symBinAddr: 0x5364, symSize: 0x84 }
  - { offset: 0x8E9C, size: 0x8, addend: 0x0, symName: __ZN8facebook5react8bridging10callFromJsIdNS0_9NativeDOMEdJNS_3jsi5ValueES5_EJS5_S5_EEET_RNS4_7RuntimeEMT0_FT1_S8_DpT2_ERKNSt3__110shared_ptrINS0_11CallInvokerEEEPS9_DpOT3_, symObjAddr: 0x4998, symBinAddr: 0x8634, symSize: 0xD0 }
  - { offset: 0x8FC0, size: 0x8, addend: 0x0, symName: __ZN8facebook5react8bridging10callFromJsINS_3jsi5ArrayENS0_9NativeDOMENSt3__16vectorINS3_5ValueENS6_9allocatorIS8_EEEEJS8_EJS8_EEET_RNS3_7RuntimeEMT0_FT1_SE_DpT2_ERKNS6_10shared_ptrINS0_11CallInvokerEEEPSF_DpOT3_, symObjAddr: 0x4AB0, symBinAddr: 0x874C, symSize: 0xCC }
  - { offset: 0x9239, size: 0x8, addend: 0x0, symName: __ZN8facebook5react8bridging10callFromJsINS_3jsi5ValueENS0_9NativeDOMES4_JS4_EJS4_EEET_RNS3_7RuntimeEMT0_FT1_S8_DpT2_ERKNSt3__110shared_ptrINS0_11CallInvokerEEEPS9_DpOT3_, symObjAddr: 0x4CA4, symBinAddr: 0x8940, symSize: 0xC0 }
  - { offset: 0x9343, size: 0x8, addend: 0x0, symName: __ZN8facebook5react8bridging10callFromJsIbNS0_9NativeDOMEbJNS_3jsi5ValueEEJS5_EEET_RNS4_7RuntimeEMT0_FT1_S8_DpT2_ERKNSt3__110shared_ptrINS0_11CallInvokerEEEPS9_DpOT3_, symObjAddr: 0x4DAC, symBinAddr: 0x8A00, symSize: 0x88 }
  - { offset: 0x941B, size: 0x8, addend: 0x0, symName: __ZN8facebook5react8bridging10callFromJsINS_3jsi5ArrayENS0_9NativeDOMENSt3__15tupleIJiiiiEEEJNS6_10shared_ptrIKNS0_10ShadowNodeEEEEJNS3_5ValueEEEET_RNS3_7RuntimeEMT0_FT1_SG_DpT2_ERKNS9_INS0_11CallInvokerEEEPSH_DpOT3_, symObjAddr: 0x4E34, symBinAddr: 0x8A88, symSize: 0xD8 }
  - { offset: 0x964B, size: 0x8, addend: 0x0, symName: __ZN8facebook5react8bridging10callFromJsINS_3jsi5ArrayENS0_9NativeDOMENSt3__15tupleIJddddEEEJNS6_10shared_ptrIKNS0_10ShadowNodeEEEbEJNS3_5ValueEbEEET_RNS3_7RuntimeEMT0_FT1_SG_DpT2_ERKNS9_INS0_11CallInvokerEEEPSH_DpOT3_, symObjAddr: 0x5070, symBinAddr: 0x8CC4, symSize: 0xF4 }
  - { offset: 0x98B5, size: 0x8, addend: 0x0, symName: __ZN8facebook5react8bridging10callFromJsINS_3jsi5ArrayENS0_9NativeDOMENSt3__15tupleIJiiEEEJNS6_10shared_ptrIKNS0_10ShadowNodeEEEEJNS3_5ValueEEEET_RNS3_7RuntimeEMT0_FT1_SG_DpT2_ERKNS9_INS0_11CallInvokerEEEPSH_DpOT3_, symObjAddr: 0x528C, symBinAddr: 0x8EE0, symSize: 0xD8 }
  - { offset: 0x9AEB, size: 0x8, addend: 0x0, symName: __ZN8facebook5react8bridging10callFromJsINS_3jsi5ArrayENS0_9NativeDOMENSt3__15tupleIJddEEEJNS6_10shared_ptrIKNS0_10ShadowNodeEEEEJNS3_5ValueEEEET_RNS3_7RuntimeEMT0_FT1_SG_DpT2_ERKNS9_INS0_11CallInvokerEEEPSH_DpOT3_, symObjAddr: 0x5424, symBinAddr: 0x9078, symSize: 0xD8 }
  - { offset: 0x9D1B, size: 0x8, addend: 0x0, symName: __ZN8facebook5react8bridging10callFromJsINS_3jsi6StringENS0_9NativeDOMENSt3__112basic_stringIcNS6_11char_traitsIcEENS6_9allocatorIcEEEEJNS6_10shared_ptrIKNS0_10ShadowNodeEEEEJNS3_5ValueEEEET_RNS3_7RuntimeEMT0_FT1_SK_DpT2_ERKNSD_INS0_11CallInvokerEEEPSL_DpOT3_, symObjAddr: 0x55B4, symBinAddr: 0x9208, symSize: 0x118 }
  - { offset: 0xA1CE, size: 0x8, addend: 0x0, symName: __ZN8facebook5react8bridging10callFromJsIbNS0_9NativeDOMEbJNSt3__110shared_ptrIKNS0_10ShadowNodeEEEdEJNS_3jsi5ValueEdEEET_RNS9_7RuntimeEMT0_FT1_SD_DpT2_ERKNS5_INS0_11CallInvokerEEEPSE_DpOT3_, symObjAddr: 0x56CC, symBinAddr: 0x9320, symSize: 0xD8 }
  - { offset: 0xA3B9, size: 0x8, addend: 0x0, symName: __ZN8facebook5react8bridging10callFromJsIvNS0_9NativeDOMEvJNSt3__110shared_ptrIKNS0_10ShadowNodeEEEdEJNS_3jsi5ValueEdEEET_RNS9_7RuntimeEMT0_FT1_SD_DpT2_ERKNS5_INS0_11CallInvokerEEEPSE_DpOT3_, symObjAddr: 0x5808, symBinAddr: 0x945C, symSize: 0xD0 }
  - { offset: 0xA599, size: 0x8, addend: 0x0, symName: __ZN8facebook5react8bridging10callFromJsINS_3jsi5ArrayENS0_9NativeDOMENSt3__15tupleIJNS3_5ValueEddEEEJNS6_10shared_ptrIKNS0_10ShadowNodeEEEEJS8_EEET_RNS3_7RuntimeEMT0_FT1_SG_DpT2_ERKNSA_INS0_11CallInvokerEEEPSH_DpOT3_, symObjAddr: 0x58D8, symBinAddr: 0x952C, symSize: 0xF0 }
  - { offset: 0xA905, size: 0x8, addend: 0x0, symName: __ZN8facebook5react8bridging10callFromJsINS_3jsi5ValueENS0_9NativeDOMES4_JiS4_EJdS4_EEET_RNS3_7RuntimeEMT0_FT1_S8_DpT2_ERKNSt3__110shared_ptrINS0_11CallInvokerEEEPS9_DpOT3_, symObjAddr: 0x5AD0, symBinAddr: 0x9724, symSize: 0xE4 }
  - { offset: 0xAA50, size: 0x8, addend: 0x0, symName: __ZN8facebook5react8bridging10callFromJsIvNS0_9NativeDOMEvJNSt3__110shared_ptrIKNS0_10ShadowNodeEEENS_3jsi8FunctionEEJNS9_5ValueESA_EEET_RNS9_7RuntimeEMT0_FT1_SE_DpT2_ERKNS5_INS0_11CallInvokerEEEPSF_DpOT3_, symObjAddr: 0x5C10, symBinAddr: 0x9864, symSize: 0xEC }
  - { offset: 0xAEE1, size: 0x8, addend: 0x0, symName: __ZN8facebook5react8bridging10callFromJsIvNS0_9NativeDOMEvJNSt3__110shared_ptrIKNS0_10ShadowNodeEEES8_NS_3jsi8FunctionESA_EJNS9_5ValueESB_SA_SA_EEET_RNS9_7RuntimeEMT0_FT1_SE_DpT2_ERKNS5_INS0_11CallInvokerEEEPSF_DpOT3_, symObjAddr: 0x5CFC, symBinAddr: 0x9950, symSize: 0x184 }
  - { offset: 0xB68E, size: 0x8, addend: 0x0, symName: __ZN8facebook5react8bridging10callFromJsIvNS0_9NativeDOMEvJNSt3__110shared_ptrIKNS0_10ShadowNodeEEENS_3jsi5ValueEEJSA_SA_EEET_RNS9_7RuntimeEMT0_FT1_SD_DpT2_ERKNS5_INS0_11CallInvokerEEEPSE_DpOT3_, symObjAddr: 0x5E80, symBinAddr: 0x9AD4, symSize: 0xF0 }
  - { offset: 0xB880, size: 0x8, addend: 0x0, symName: __ZN8facebook5react8bridging6fromJsINS_3jsi5ValueES4_EEDTscT_clsr3stdE4movecl7convertfp_clsr3stdE7forwardIT0_Efp0_EEEERNS3_7RuntimeEOS6_RKNSt3__110shared_ptrINS0_11CallInvokerEEE, symObjAddr: 0x4A68, symBinAddr: 0x8704, symSize: 0x48 }
  - { offset: 0xBD7F, size: 0x8, addend: 0x0, symName: __ZN8facebook5react8bridging6fromJsINSt3__110shared_ptrIKNS0_10ShadowNodeEEENS_3jsi5ValueEEEDTclsr8BridgingIu11__remove_cvIu20__remove_reference_tIT_EEEE6fromJsfp_cl7convertfp_clsr3stdE7forwardIT0_Efp0_EEEERNS8_7RuntimeEOSD_RKNS4_INS0_11CallInvokerEEE, symObjAddr: 0x4F0C, symBinAddr: 0x8B60, symSize: 0x88 }
  - { offset: 0xBFF0, size: 0x8, addend: 0x0, symName: __ZN8facebook5react8bridging6fromJsIbbEEDTclsr8BridgingIu11__remove_cvIu20__remove_reference_tIT_EEEE6fromJsfp_cl7convertfp_clsr3stdE7forwardIT0_Efp0_EEEERNS_3jsi7RuntimeEOS6_RKNSt3__110shared_ptrINS0_11CallInvokerEEE, symObjAddr: 0x5164, symBinAddr: 0x8DB8, symSize: 0x5C }
  - { offset: 0xC231, size: 0x8, addend: 0x0, symName: __ZN8facebook5react8bridging6fromJsIddEEDTclsr8BridgingIu11__remove_cvIu20__remove_reference_tIT_EEEE6fromJsfp_cl7convertfp_clsr3stdE7forwardIT0_Efp0_EEEERNS_3jsi7RuntimeEOS6_RKNSt3__110shared_ptrINS0_11CallInvokerEEE, symObjAddr: 0x57A4, symBinAddr: 0x93F8, symSize: 0x64 }
  - { offset: 0xC3B2, size: 0x8, addend: 0x0, symName: __ZN8facebook5react8bridging6fromJsIidEEDTclsr8BridgingIu11__remove_cvIu20__remove_reference_tIT_EEEE6fromJsfp_cl7convertfp_clsr3stdE7forwardIT0_Efp0_EEEERNS_3jsi7RuntimeEOS6_RKNSt3__110shared_ptrINS0_11CallInvokerEEE, symObjAddr: 0x5BB4, symBinAddr: 0x9808, symSize: 0x5C }
  - { offset: 0x38FB1, size: 0x8, addend: 0x0, symName: __ZNSt3__115allocate_sharedB8ne200100IN8facebook5react9NativeDOMENS_9allocatorIS3_EEJNS_10shared_ptrINS2_11CallInvokerEEEELi0EEENS6_IT_EERKT0_DpOT1_, symObjAddr: 0x3398, symBinAddr: 0x7140, symSize: 0x58 }
  - { offset: 0x5B429, size: 0x8, addend: 0x0, symName: __ZNSt3__115allocate_sharedB8ne200100IN8facebook5react14InstanceHandleENS_9allocatorIS3_EEJRNS1_3jsi7RuntimeERNS6_5ValueERiELi0EEENS_10shared_ptrIT_EERKT0_DpOT1_, symObjAddr: 0x62C0, symBinAddr: 0x9EBC, symSize: 0x70 }
  - { offset: 0x5C081, size: 0x8, addend: 0x0, symName: __ZNSt3__119__allocate_at_leastB8ne200100INS_9allocatorIN8facebook3jsi5ValueEEEEENS_19__allocation_resultINS_16allocator_traitsIT_E7pointerEEERS8_m, symObjAddr: 0x2BFC, symBinAddr: 0x6BA4, symSize: 0x34 }
  - { offset: 0x5C129, size: 0x8, addend: 0x0, symName: __ZSt28__throw_bad_array_new_lengthB8ne200100v, symObjAddr: 0x2C30, symBinAddr: 0x6BD8, symSize: 0x28 }
  - { offset: 0x5C13D, size: 0x8, addend: 0x0, symName: __ZNSt3__134__uninitialized_allocator_relocateB8ne200100INS_9allocatorIN8facebook3jsi5ValueEEEPS4_EEvRT_T0_S9_S9_, symObjAddr: 0x2C58, symBinAddr: 0x6C00, symSize: 0x68 }
  - { offset: 0x5C19B, size: 0x8, addend: 0x0, symName: __ZNSt3__134__uninitialized_allocator_relocateB8ne200100INS_9allocatorIN8facebook3jsi5ValueEEEPS4_EEvRT_T0_S9_S9_, symObjAddr: 0x2C58, symBinAddr: 0x6C00, symSize: 0x68 }
  - { offset: 0x5C341, size: 0x8, addend: 0x0, symName: __ZNSt3__120__throw_length_errorB8ne200100EPKc, symObjAddr: 0x2B88, symBinAddr: 0x6B30, symSize: 0x50 }
  - { offset: 0x5C7C3, size: 0x8, addend: 0x0, symName: __ZNSt3__16vectorINS_10shared_ptrIKN8facebook5react10ShadowNodeEEENS_9allocatorIS6_EEE16__destroy_vectorclB8ne200100Ev, symObjAddr: 0x2F9C, symBinAddr: 0x6EFC, symSize: 0x70 }
  - { offset: 0x5D02E, size: 0x8, addend: 0x0, symName: __ZNSt3__112construct_atB8ne200100IN8facebook5react9NativeDOMEJNS_10shared_ptrINS2_11CallInvokerEEEEPS3_EEPT_S9_DpOT0_, symObjAddr: 0x3484, symBinAddr: 0x722C, symSize: 0x88 }
  - { offset: 0x5D640, size: 0x8, addend: 0x0, symName: __ZNSt3__119__allocate_at_leastB8ne200100INS_9allocatorIN8facebook3jsi10PropNameIDEEEEENS_19__allocation_resultINS_16allocator_traitsIT_E7pointerEEERS8_m, symObjAddr: 0x4008, symBinAddr: 0x7D9C, symSize: 0x34 }
  - { offset: 0x5D6E8, size: 0x8, addend: 0x0, symName: __ZNSt3__114__split_bufferIN8facebook3jsi10PropNameIDERNS_9allocatorIS3_EEED2Ev, symObjAddr: 0x403C, symBinAddr: 0x7DD0, symSize: 0x58 }
  - { offset: 0x5DEF6, size: 0x8, addend: 0x0, symName: __ZNSt3__112__destroy_atB8ne200100INS_4pairIKNS_12basic_stringIcNS_11char_traitsIcEENS_9allocatorIcEEEENS_10shared_ptrIN8facebook5react18IAsyncEventEmitterEEEEELi0EEEvPT_, symObjAddr: 0x60F0, symBinAddr: 0x9D44, symSize: 0x3C }
  - { offset: 0x6025F, size: 0x8, addend: 0x0, symName: __ZSt28__throw_bad_array_new_lengthB8ne200100v, symObjAddr: 0x2C30, symBinAddr: 0x6BD8, symSize: 0x28 }
  - { offset: 0x67838, size: 0x8, addend: 0x0, symName: __ZN8facebook5react11TurboModule6createERNS_3jsi7RuntimeERKNS2_10PropNameIDE, symObjAddr: 0x37D4, symBinAddr: 0x757C, symSize: 0x240 }
  - { offset: 0x684CC, size: 0x8, addend: 0x0, symName: __Z23NativeDOMModuleProviderNSt3__110shared_ptrIN8facebook5react11CallInvokerEEE, symObjAddr: 0x0, symBinAddr: 0x4000, symSize: 0x3C }
  - { offset: 0x68638, size: 0x8, addend: 0x0, symName: __ZN8facebook5react9NativeDOMC2ENSt3__110shared_ptrINS0_11CallInvokerEEE, symObjAddr: 0x3C, symBinAddr: 0x403C, symSize: 0x98 }
  - { offset: 0x687A6, size: 0x8, addend: 0x0, symName: __ZN8facebook5react16NativeDOMCxxSpecINS0_9NativeDOMEEC2ENSt3__110shared_ptrINS0_11CallInvokerEEE, symObjAddr: 0xD4, symBinAddr: 0x40D4, symSize: 0x188 }
  - { offset: 0x69147, size: 0x8, addend: 0x0, symName: __ZN8facebook5react16NativeDOMCxxSpecINS0_9NativeDOMEE8DelegateC2EPS2_NSt3__110shared_ptrINS0_11CallInvokerEEE, symObjAddr: 0x3584, symBinAddr: 0x732C, symSize: 0xA8 }
  - { offset: 0x692AE, size: 0x8, addend: 0x0, symName: __ZN8facebook5react11TurboModuleD2Ev, symObjAddr: 0x350C, symBinAddr: 0x72B4, symSize: 0x60 }
  - { offset: 0x694E7, size: 0x8, addend: 0x0, symName: __ZN8facebook5react9NativeDOMC1ENSt3__110shared_ptrINS0_11CallInvokerEEE, symObjAddr: 0x25C, symBinAddr: 0x425C, symSize: 0x4 }
  - { offset: 0x69512, size: 0x8, addend: 0x0, symName: __ZN8facebook5react9NativeDOMC1ENSt3__110shared_ptrINS0_11CallInvokerEEE, symObjAddr: 0x25C, symBinAddr: 0x425C, symSize: 0x4 }
  - { offset: 0x6B036, size: 0x8, addend: 0x0, symName: __ZN8facebook5react9NativeDOM23compareDocumentPositionERNS_3jsi7RuntimeENS2_5ValueES5_, symObjAddr: 0x260, symBinAddr: 0x4260, symSize: 0x45C }
  - { offset: 0x6BF01, size: 0x8, addend: 0x0, symName: __ZNSt3__110shared_ptrIKN8facebook5react10ShadowNodeEEaSB8ne200100IKNS2_14RootShadowNodeELi0EEERS5_RKNS0_IT_EE, symObjAddr: 0x7B8, symBinAddr: 0x47B8, symSize: 0x78 }
  - { offset: 0x6C0C3, size: 0x8, addend: 0x0, symName: __ZN8facebook5react8BridgingINSt3__110shared_ptrIKNS0_10ShadowNodeEEEvE6fromJsERNS_3jsi7RuntimeERKNS8_5ValueE, symObjAddr: 0x26B8, symBinAddr: 0x66B8, symSize: 0x300 }
  - { offset: 0x6CD63, size: 0x8, addend: 0x0, symName: __ZN8facebook5react9NativeDOM13getChildNodesERNS_3jsi7RuntimeENS2_5ValueE, symObjAddr: 0x830, symBinAddr: 0x4830, symSize: 0x204 }
  - { offset: 0x6D4D4, size: 0x8, addend: 0x0, symName: __ZNSt3__16vectorINS_10shared_ptrIKN8facebook5react10ShadowNodeEEENS_9allocatorIS6_EEE16__init_with_sizeB8ne200100IPKS6_SC_EEvT_T0_m, symObjAddr: 0x2E84, symBinAddr: 0x6E2C, symSize: 0x98 }
  - { offset: 0x6D826, size: 0x8, addend: 0x0, symName: __ZNSt3__16vectorINS_10shared_ptrIKN8facebook5react10ShadowNodeEEENS_9allocatorIS6_EEE16__destroy_vectorclB8ne200100Ev, symObjAddr: 0x2F9C, symBinAddr: 0x6EFC, symSize: 0x70 }
  - { offset: 0x6DA80, size: 0x8, addend: 0x0, symName: __ZNSt3__16vectorIN8facebook3jsi5ValueENS_9allocatorIS3_EEE7reserveEm, symObjAddr: 0x2A78, symBinAddr: 0x6A20, symSize: 0xB8 }
  - { offset: 0x6DCA5, size: 0x8, addend: 0x0, symName: __ZNSt3__16vectorIN8facebook3jsi5ValueENS_9allocatorIS3_EEE9push_backB8ne200100EOS3_, symObjAddr: 0x2B30, symBinAddr: 0x6AD8, symSize: 0x44 }
  - { offset: 0x6DDC2, size: 0x8, addend: 0x0, symName: __ZNSt3__16vectorIN8facebook3jsi5ValueENS_9allocatorIS3_EEE16__destroy_vectorclB8ne200100Ev, symObjAddr: 0x2E14, symBinAddr: 0x6DBC, symSize: 0x70 }
  - { offset: 0x6DFCB, size: 0x8, addend: 0x0, symName: __ZN8facebook5react9NativeDOM13getParentNodeERNS_3jsi7RuntimeENS2_5ValueE, symObjAddr: 0xAF4, symBinAddr: 0x4AF4, symSize: 0x1C4 }
  - { offset: 0x6E6A6, size: 0x8, addend: 0x0, symName: __ZN8facebook5react9NativeDOM11isConnectedERNS_3jsi7RuntimeENS2_5ValueE, symObjAddr: 0xCB8, symBinAddr: 0x4CB8, symSize: 0x114 }
  - { offset: 0x6E9BF, size: 0x8, addend: 0x0, symName: __ZN8facebook5react9NativeDOM14getBorderWidthERNS_3jsi7RuntimeENSt3__110shared_ptrIKNS0_10ShadowNodeEEE, symObjAddr: 0xDCC, symBinAddr: 0x4DCC, symSize: 0xF0 }
  - { offset: 0x6EBF0, size: 0x8, addend: 0x0, symName: __ZN8facebook5react9NativeDOM21getBoundingClientRectERNS_3jsi7RuntimeENSt3__110shared_ptrIKNS0_10ShadowNodeEEEb, symObjAddr: 0xEBC, symBinAddr: 0x4EBC, symSize: 0x108 }
  - { offset: 0x6EE38, size: 0x8, addend: 0x0, symName: __ZN8facebook5react9NativeDOM12getInnerSizeERNS_3jsi7RuntimeENSt3__110shared_ptrIKNS0_10ShadowNodeEEE, symObjAddr: 0xFC4, symBinAddr: 0x4FC4, symSize: 0xD4 }
  - { offset: 0x6F078, size: 0x8, addend: 0x0, symName: __ZN8facebook5react9NativeDOM17getScrollPositionERNS_3jsi7RuntimeENSt3__110shared_ptrIKNS0_10ShadowNodeEEE, symObjAddr: 0x1098, symBinAddr: 0x5098, symSize: 0xE0 }
  - { offset: 0x6F2B8, size: 0x8, addend: 0x0, symName: __ZN8facebook5react9NativeDOM13getScrollSizeERNS_3jsi7RuntimeENSt3__110shared_ptrIKNS0_10ShadowNodeEEE, symObjAddr: 0x1178, symBinAddr: 0x5178, symSize: 0xD4 }
  - { offset: 0x6F4F8, size: 0x8, addend: 0x0, symName: __ZN8facebook5react9NativeDOM10getTagNameERNS_3jsi7RuntimeENSt3__110shared_ptrIKNS0_10ShadowNodeEEE, symObjAddr: 0x124C, symBinAddr: 0x524C, symSize: 0x8 }
  - { offset: 0x6F53D, size: 0x8, addend: 0x0, symName: __ZN8facebook5react9NativeDOM10getTagNameERNS_3jsi7RuntimeENSt3__110shared_ptrIKNS0_10ShadowNodeEEE, symObjAddr: 0x124C, symBinAddr: 0x524C, symSize: 0x8 }
  - { offset: 0x6F59C, size: 0x8, addend: 0x0, symName: __ZN8facebook5react9NativeDOM14getTextContentERNS_3jsi7RuntimeENSt3__110shared_ptrIKNS0_10ShadowNodeEEE, symObjAddr: 0x1254, symBinAddr: 0x5254, symSize: 0xD8 }
  - { offset: 0x6F80B, size: 0x8, addend: 0x0, symName: __ZNSt3__112basic_stringIcNS_11char_traitsIcEENS_9allocatorIcEEEC2B8ne200100ILi0EEEPKc, symObjAddr: 0x300C, symBinAddr: 0x6F6C, symSize: 0xA4 }
  - { offset: 0x6FA67, size: 0x8, addend: 0x0, symName: __ZNSt3__112basic_stringIcNS_11char_traitsIcEENS_9allocatorIcEEE20__throw_length_errorB8ne200100Ev, symObjAddr: 0x30B0, symBinAddr: 0x7010, symSize: 0x14 }
  - { offset: 0x6FA79, size: 0x8, addend: 0x0, symName: __ZN8facebook5react9NativeDOM17hasPointerCaptureERNS_3jsi7RuntimeENSt3__110shared_ptrIKNS0_10ShadowNodeEEEd, symObjAddr: 0x132C, symBinAddr: 0x532C, symSize: 0x38 }
  - { offset: 0x71939, size: 0x8, addend: 0x0, symName: __ZN8facebook5react9NativeDOM21releasePointerCaptureERNS_3jsi7RuntimeENSt3__110shared_ptrIKNS0_10ShadowNodeEEEd, symObjAddr: 0x13E8, symBinAddr: 0x53E8, symSize: 0x38 }
  - { offset: 0x719C4, size: 0x8, addend: 0x0, symName: __ZN8facebook5react9NativeDOM17setPointerCaptureERNS_3jsi7RuntimeENSt3__110shared_ptrIKNS0_10ShadowNodeEEEd, symObjAddr: 0x1420, symBinAddr: 0x5420, symSize: 0x38 }
  - { offset: 0x71F8B, size: 0x8, addend: 0x0, symName: __ZN8facebook5react9NativeDOM9getOffsetERNS_3jsi7RuntimeENSt3__110shared_ptrIKNS0_10ShadowNodeEEE, symObjAddr: 0x1458, symBinAddr: 0x5458, symSize: 0x164 }
  - { offset: 0x72790, size: 0x8, addend: 0x0, symName: __ZN8facebook5react9NativeDOM12linkRootNodeERNS_3jsi7RuntimeEiNS2_5ValueE, symObjAddr: 0x15BC, symBinAddr: 0x55BC, symSize: 0x1FC }
  - { offset: 0x72E8C, size: 0x8, addend: 0x0, symName: __ZN8facebook5react8BridgingINSt3__110shared_ptrIKNS0_10ShadowNodeEEEvE4toJsERNS_3jsi7RuntimeERKS6_, symObjAddr: 0x17B8, symBinAddr: 0x57B8, symSize: 0x1D4 }
  - { offset: 0x73D9F, size: 0x8, addend: 0x0, symName: __ZNSt3__110shared_ptrIN8facebook5react17ShadowNodeWrapperEED2B8ne200100Ev, symObjAddr: 0x29C8, symBinAddr: 0x69C8, symSize: 0x58 }
  - { offset: 0x73ECF, size: 0x8, addend: 0x0, symName: __ZN8facebook5react9NativeDOM7measureERNS_3jsi7RuntimeENSt3__110shared_ptrIKNS0_10ShadowNodeEEENS2_8FunctionE, symObjAddr: 0x198C, symBinAddr: 0x598C, symSize: 0x3D4 }
  - { offset: 0x74849, size: 0x8, addend: 0x0, symName: __ZN8facebook5react9NativeDOM15measureInWindowERNS_3jsi7RuntimeENSt3__110shared_ptrIKNS0_10ShadowNodeEEENS2_8FunctionE, symObjAddr: 0x1D60, symBinAddr: 0x5D60, symSize: 0x348 }
  - { offset: 0x7510E, size: 0x8, addend: 0x0, symName: __ZN8facebook5react9NativeDOM13measureLayoutERNS_3jsi7RuntimeENSt3__110shared_ptrIKNS0_10ShadowNodeEEES9_NS2_8FunctionESA_, symObjAddr: 0x20A8, symBinAddr: 0x60A8, symSize: 0x33C }
  - { offset: 0x75BB8, size: 0x8, addend: 0x0, symName: __ZN8facebook5react9NativeDOM14setNativePropsERNS_3jsi7RuntimeENSt3__110shared_ptrIKNS0_10ShadowNodeEEENS2_5ValueE, symObjAddr: 0x23E4, symBinAddr: 0x63E4, symSize: 0xE0 }
  - { offset: 0x75E61, size: 0x8, addend: 0x0, symName: __ZNSt3__16vectorIN8facebook5react8RawValueENS_9allocatorIS3_EEE16__destroy_vectorclB8ne200100Ev, symObjAddr: 0x3164, symBinAddr: 0x706C, symSize: 0x70 }
  - { offset: 0x76133, size: 0x8, addend: 0x0, symName: __ZN8facebook5react8RawPropsD1Ev, symObjAddr: 0x2548, symBinAddr: 0x6548, symSize: 0x58 }
  - { offset: 0x76377, size: 0x8, addend: 0x0, symName: __ZN8facebook5react9NativeDOMD1Ev, symObjAddr: 0x25A0, symBinAddr: 0x65A0, symSize: 0x4 }
  - { offset: 0x76399, size: 0x8, addend: 0x0, symName: __ZN8facebook5react9NativeDOMD1Ev, symObjAddr: 0x25A0, symBinAddr: 0x65A0, symSize: 0x4 }
  - { offset: 0x763B6, size: 0x8, addend: 0x0, symName: __ZN8facebook5react9NativeDOMD1Ev, symObjAddr: 0x25A0, symBinAddr: 0x65A0, symSize: 0x4 }
  - { offset: 0x763C9, size: 0x8, addend: 0x0, symName: __ZN8facebook5react16NativeDOMCxxSpecINS0_9NativeDOMEED2Ev, symObjAddr: 0x6200, symBinAddr: 0x9DFC, symSize: 0xC0 }
  - { offset: 0x768E8, size: 0x8, addend: 0x0, symName: __ZN8facebook5react9NativeDOMD0Ev, symObjAddr: 0x25A4, symBinAddr: 0x65A4, symSize: 0x14 }
  - { offset: 0x769AA, size: 0x8, addend: 0x0, symName: __ZN8facebook5react11TurboModule3getERNS_3jsi7RuntimeERKNS2_10PropNameIDE, symObjAddr: 0x25B8, symBinAddr: 0x65B8, symSize: 0xF0 }
  - { offset: 0x76B75, size: 0x8, addend: 0x0, symName: __ZNK8facebook3jsi6Object11setPropertyIRNS0_5ValueEEEvRNS0_7RuntimeERKNS0_10PropNameIDEOT_, symObjAddr: 0x642C, symBinAddr: 0x9FD0, symSize: 0x78 }
  - { offset: 0x76C4F, size: 0x8, addend: 0x0, symName: __ZN8facebook5react16NativeDOMCxxSpecINS0_9NativeDOMEE16getPropertyNamesERNS_3jsi7RuntimeE, symObjAddr: 0x26A8, symBinAddr: 0x66A8, symSize: 0x8 }
  - { offset: 0x76CA2, size: 0x8, addend: 0x0, symName: __ZN8facebook5react11TurboModule16getPropertyNamesERNS_3jsi7RuntimeE, symObjAddr: 0x36F0, symBinAddr: 0x7498, symSize: 0xE4 }
  - { offset: 0x76FA2, size: 0x8, addend: 0x0, symName: __ZN8facebook5react16NativeDOMCxxSpecINS0_9NativeDOMEE6createERNS_3jsi7RuntimeERKNS4_10PropNameIDE, symObjAddr: 0x26B0, symBinAddr: 0x66B0, symSize: 0x8 }
  - { offset: 0x77386, size: 0x8, addend: 0x0, symName: __ZNSt3__114__split_bufferIN8facebook3jsi5ValueERNS_9allocatorIS3_EEED2Ev, symObjAddr: 0x2CC0, symBinAddr: 0x6C68, symSize: 0x4C }
  - { offset: 0x774C9, size: 0x8, addend: 0x0, symName: __ZNSt3__16vectorIN8facebook3jsi5ValueENS_9allocatorIS3_EEE20__throw_length_errorB8ne200100Ev, symObjAddr: 0x2B74, symBinAddr: 0x6B1C, symSize: 0x14 }
  - { offset: 0x774E1, size: 0x8, addend: 0x0, symName: __ZNSt3__120__throw_length_errorB8ne200100EPKc, symObjAddr: 0x2B88, symBinAddr: 0x6B30, symSize: 0x50 }
  - { offset: 0x775C8, size: 0x8, addend: 0x0, symName: __ZNSt3__16vectorIN8facebook3jsi5ValueENS_9allocatorIS3_EEE24__emplace_back_slow_pathIJS3_EEEPS3_DpOT_, symObjAddr: 0x2D0C, symBinAddr: 0x6CB4, symSize: 0x108 }
  - { offset: 0x778A6, size: 0x8, addend: 0x0, symName: __ZNSt12length_errorC1B8ne200100EPKc, symObjAddr: 0x2BD8, symBinAddr: 0x6B80, symSize: 0x24 }
  - { offset: 0x77CE6, size: 0x8, addend: 0x0, symName: __ZNSt3__16vectorINS_10shared_ptrIKN8facebook5react10ShadowNodeEEENS_9allocatorIS6_EEE11__vallocateB8ne200100Em, symObjAddr: 0x2F1C, symBinAddr: 0x6EC4, symSize: 0x38 }
  - { offset: 0x77F2C, size: 0x8, addend: 0x0, symName: __ZNSt3__112basic_stringIcNS_11char_traitsIcEENS_9allocatorIcEEE20__throw_length_errorB8ne200100Ev, symObjAddr: 0x30B0, symBinAddr: 0x7010, symSize: 0x14 }
  - { offset: 0x77F6B, size: 0x8, addend: 0x0, symName: __ZNSt3__120__shared_ptr_emplaceIN8facebook5react17ShadowNodeWrapperENS_9allocatorIS3_EEED1Ev, symObjAddr: 0x311C, symBinAddr: 0x7024, symSize: 0x14 }
  - { offset: 0x77F8D, size: 0x8, addend: 0x0, symName: __ZNSt3__120__shared_ptr_emplaceIN8facebook5react17ShadowNodeWrapperENS_9allocatorIS3_EEED1Ev, symObjAddr: 0x311C, symBinAddr: 0x7024, symSize: 0x14 }
  - { offset: 0x77FC3, size: 0x8, addend: 0x0, symName: __ZNSt3__120__shared_ptr_emplaceIN8facebook5react17ShadowNodeWrapperENS_9allocatorIS3_EEED0Ev, symObjAddr: 0x3130, symBinAddr: 0x7038, symSize: 0x24 }
  - { offset: 0x78092, size: 0x8, addend: 0x0, symName: __ZNSt3__120__shared_ptr_emplaceIN8facebook5react17ShadowNodeWrapperENS_9allocatorIS3_EEE16__on_zero_sharedEv, symObjAddr: 0x3154, symBinAddr: 0x705C, symSize: 0xC }
  - { offset: 0x780BB, size: 0x8, addend: 0x0, symName: __ZNSt3__120__shared_ptr_emplaceIN8facebook5react17ShadowNodeWrapperENS_9allocatorIS3_EEE16__on_zero_sharedEv, symObjAddr: 0x3154, symBinAddr: 0x705C, symSize: 0xC }
  - { offset: 0x780D8, size: 0x8, addend: 0x0, symName: __ZNSt3__120__shared_ptr_emplaceIN8facebook5react17ShadowNodeWrapperENS_9allocatorIS3_EEE16__on_zero_sharedEv, symObjAddr: 0x3154, symBinAddr: 0x705C, symSize: 0xC }
  - { offset: 0x780F5, size: 0x8, addend: 0x0, symName: __ZNSt3__120__shared_ptr_emplaceIN8facebook5react17ShadowNodeWrapperENS_9allocatorIS3_EEE16__on_zero_sharedEv, symObjAddr: 0x3154, symBinAddr: 0x705C, symSize: 0xC }
  - { offset: 0x78180, size: 0x8, addend: 0x0, symName: __ZNSt3__120__shared_ptr_emplaceIN8facebook5react17ShadowNodeWrapperENS_9allocatorIS3_EEE21__on_zero_shared_weakEv, symObjAddr: 0x3160, symBinAddr: 0x7068, symSize: 0x4 }
  - { offset: 0x781B2, size: 0x8, addend: 0x0, symName: __ZNSt3__120__shared_ptr_emplaceIN8facebook5react17ShadowNodeWrapperENS_9allocatorIS3_EEE21__on_zero_shared_weakEv, symObjAddr: 0x3160, symBinAddr: 0x7068, symSize: 0x4 }
  - { offset: 0x781D4, size: 0x8, addend: 0x0, symName: __ZNSt3__120__shared_ptr_emplaceIN8facebook5react17ShadowNodeWrapperENS_9allocatorIS3_EEE21__on_zero_shared_weakEv, symObjAddr: 0x3160, symBinAddr: 0x7068, symSize: 0x4 }
  - { offset: 0x781F7, size: 0x8, addend: 0x0, symName: __ZNSt3__120__shared_ptr_emplaceIN8facebook5react17ShadowNodeWrapperENS_9allocatorIS3_EEE21__on_zero_shared_weakEv, symObjAddr: 0x3160, symBinAddr: 0x7068, symSize: 0x4 }
  - { offset: 0x7822C, size: 0x8, addend: 0x0, symName: __ZNSt3__120__shared_ptr_emplaceIN8facebook5react17ShadowNodeWrapperENS_9allocatorIS3_EEE21__on_zero_shared_weakEv, symObjAddr: 0x3160, symBinAddr: 0x7068, symSize: 0x4 }
  - { offset: 0x784FE, size: 0x8, addend: 0x0, symName: __ZNSt3__116__variant_detail6__dtorINS0_8__traitsIJN5folly7dynamicENS_4pairIPN8facebook3jsi7RuntimeENS7_5ValueEEEEEELNS0_6_TraitE1EE9__destroyB8ne200100Ev, symObjAddr: 0x31D4, symBinAddr: 0x70DC, symSize: 0x54 }
  - { offset: 0x787DE, size: 0x8, addend: 0x0, symName: __ZNSt3__116__variant_detail12__visitation6__base12__dispatcherIJLm0EEE10__dispatchB8ne200100IOZNS0_6__dtorINS0_8__traitsIJN5folly7dynamicENS_4pairIPN8facebook3jsi7RuntimeENSC_5ValueEEEEEELNS0_6_TraitE1EE9__destroyB8ne200100EvEUlRT_E_JRNS0_6__baseILSI_1EJS9_SG_EEEEEEDcSK_DpT0_, symObjAddr: 0x3228, symBinAddr: 0x7130, symSize: 0x8 }
  - { offset: 0x78991, size: 0x8, addend: 0x0, symName: __ZNSt3__116__variant_detail12__visitation6__base12__dispatcherIJLm1EEE10__dispatchB8ne200100IOZNS0_6__dtorINS0_8__traitsIJN5folly7dynamicENS_4pairIPN8facebook3jsi7RuntimeENSC_5ValueEEEEEELNS0_6_TraitE1EE9__destroyB8ne200100EvEUlRT_E_JRNS0_6__baseILSI_1EJS9_SG_EEEEEEDcSK_DpT0_, symObjAddr: 0x3230, symBinAddr: 0x7138, symSize: 0x8 }
  - { offset: 0x789C8, size: 0x8, addend: 0x0, symName: __ZNSt3__116__variant_detail12__visitation6__base12__dispatcherIJLm1EEE10__dispatchB8ne200100IOZNS0_6__dtorINS0_8__traitsIJN5folly7dynamicENS_4pairIPN8facebook3jsi7RuntimeENSC_5ValueEEEEEELNS0_6_TraitE1EE9__destroyB8ne200100EvEUlRT_E_JRNS0_6__baseILSI_1EJS9_SG_EEEEEEDcSK_DpT0_, symObjAddr: 0x3230, symBinAddr: 0x7138, symSize: 0x8 }
  - { offset: 0x789ED, size: 0x8, addend: 0x0, symName: __ZNSt3__116__variant_detail12__visitation6__base12__dispatcherIJLm1EEE10__dispatchB8ne200100IOZNS0_6__dtorINS0_8__traitsIJN5folly7dynamicENS_4pairIPN8facebook3jsi7RuntimeENSC_5ValueEEEEEELNS0_6_TraitE1EE9__destroyB8ne200100EvEUlRT_E_JRNS0_6__baseILSI_1EJS9_SG_EEEEEEDcSK_DpT0_, symObjAddr: 0x3230, symBinAddr: 0x7138, symSize: 0x8 }
  - { offset: 0x78A12, size: 0x8, addend: 0x0, symName: __ZNSt3__116__variant_detail12__visitation6__base12__dispatcherIJLm1EEE10__dispatchB8ne200100IOZNS0_6__dtorINS0_8__traitsIJN5folly7dynamicENS_4pairIPN8facebook3jsi7RuntimeENSC_5ValueEEEEEELNS0_6_TraitE1EE9__destroyB8ne200100EvEUlRT_E_JRNS0_6__baseILSI_1EJS9_SG_EEEEEEDcSK_DpT0_, symObjAddr: 0x3230, symBinAddr: 0x7138, symSize: 0x8 }
  - { offset: 0x78A2E, size: 0x8, addend: 0x0, symName: __ZNSt3__116__variant_detail12__visitation6__base12__dispatcherIJLm1EEE10__dispatchB8ne200100IOZNS0_6__dtorINS0_8__traitsIJN5folly7dynamicENS_4pairIPN8facebook3jsi7RuntimeENSC_5ValueEEEEEELNS0_6_TraitE1EE9__destroyB8ne200100EvEUlRT_E_JRNS0_6__baseILSI_1EJS9_SG_EEEEEEDcSK_DpT0_, symObjAddr: 0x3230, symBinAddr: 0x7138, symSize: 0x8 }
  - { offset: 0x78A4A, size: 0x8, addend: 0x0, symName: __ZNSt3__116__variant_detail12__visitation6__base12__dispatcherIJLm1EEE10__dispatchB8ne200100IOZNS0_6__dtorINS0_8__traitsIJN5folly7dynamicENS_4pairIPN8facebook3jsi7RuntimeENSC_5ValueEEEEEELNS0_6_TraitE1EE9__destroyB8ne200100EvEUlRT_E_JRNS0_6__baseILSI_1EJS9_SG_EEEEEEDcSK_DpT0_, symObjAddr: 0x3230, symBinAddr: 0x7138, symSize: 0x8 }
  - { offset: 0x78A66, size: 0x8, addend: 0x0, symName: __ZNSt3__116__variant_detail12__visitation6__base12__dispatcherIJLm1EEE10__dispatchB8ne200100IOZNS0_6__dtorINS0_8__traitsIJN5folly7dynamicENS_4pairIPN8facebook3jsi7RuntimeENSC_5ValueEEEEEELNS0_6_TraitE1EE9__destroyB8ne200100EvEUlRT_E_JRNS0_6__baseILSI_1EJS9_SG_EEEEEEDcSK_DpT0_, symObjAddr: 0x3230, symBinAddr: 0x7138, symSize: 0x8 }
  - { offset: 0x78CE5, size: 0x8, addend: 0x0, symName: __ZNSt3__120__shared_ptr_emplaceIN8facebook5react9NativeDOMENS_9allocatorIS3_EEEC2B8ne200100IJNS_10shared_ptrINS2_11CallInvokerEEEES5_Li0EEES5_DpOT_, symObjAddr: 0x33F0, symBinAddr: 0x7198, symSize: 0x4C }
  - { offset: 0x78E76, size: 0x8, addend: 0x0, symName: __ZNSt3__120__shared_ptr_emplaceIN8facebook5react9NativeDOMENS_9allocatorIS3_EEED1Ev, symObjAddr: 0x343C, symBinAddr: 0x71E4, symSize: 0x14 }
  - { offset: 0x78E98, size: 0x8, addend: 0x0, symName: __ZNSt3__120__shared_ptr_emplaceIN8facebook5react9NativeDOMENS_9allocatorIS3_EEED1Ev, symObjAddr: 0x343C, symBinAddr: 0x71E4, symSize: 0x14 }
  - { offset: 0x78ECE, size: 0x8, addend: 0x0, symName: __ZNSt3__120__shared_ptr_emplaceIN8facebook5react9NativeDOMENS_9allocatorIS3_EEED0Ev, symObjAddr: 0x3450, symBinAddr: 0x71F8, symSize: 0x24 }
  - { offset: 0x78F9D, size: 0x8, addend: 0x0, symName: __ZNSt3__120__shared_ptr_emplaceIN8facebook5react9NativeDOMENS_9allocatorIS3_EEE16__on_zero_sharedEv, symObjAddr: 0x3474, symBinAddr: 0x721C, symSize: 0xC }
  - { offset: 0x78FC6, size: 0x8, addend: 0x0, symName: __ZNSt3__120__shared_ptr_emplaceIN8facebook5react9NativeDOMENS_9allocatorIS3_EEE16__on_zero_sharedEv, symObjAddr: 0x3474, symBinAddr: 0x721C, symSize: 0xC }
  - { offset: 0x78FE3, size: 0x8, addend: 0x0, symName: __ZNSt3__120__shared_ptr_emplaceIN8facebook5react9NativeDOMENS_9allocatorIS3_EEE16__on_zero_sharedEv, symObjAddr: 0x3474, symBinAddr: 0x721C, symSize: 0xC }
  - { offset: 0x79000, size: 0x8, addend: 0x0, symName: __ZNSt3__120__shared_ptr_emplaceIN8facebook5react9NativeDOMENS_9allocatorIS3_EEE16__on_zero_sharedEv, symObjAddr: 0x3474, symBinAddr: 0x721C, symSize: 0xC }
  - { offset: 0x7902A, size: 0x8, addend: 0x0, symName: __ZNSt3__120__shared_ptr_emplaceIN8facebook5react9NativeDOMENS_9allocatorIS3_EEE21__on_zero_shared_weakEv, symObjAddr: 0x3480, symBinAddr: 0x7228, symSize: 0x4 }
  - { offset: 0x7905C, size: 0x8, addend: 0x0, symName: __ZNSt3__120__shared_ptr_emplaceIN8facebook5react9NativeDOMENS_9allocatorIS3_EEE21__on_zero_shared_weakEv, symObjAddr: 0x3480, symBinAddr: 0x7228, symSize: 0x4 }
  - { offset: 0x7907E, size: 0x8, addend: 0x0, symName: __ZNSt3__120__shared_ptr_emplaceIN8facebook5react9NativeDOMENS_9allocatorIS3_EEE21__on_zero_shared_weakEv, symObjAddr: 0x3480, symBinAddr: 0x7228, symSize: 0x4 }
  - { offset: 0x790A1, size: 0x8, addend: 0x0, symName: __ZNSt3__120__shared_ptr_emplaceIN8facebook5react9NativeDOMENS_9allocatorIS3_EEE21__on_zero_shared_weakEv, symObjAddr: 0x3480, symBinAddr: 0x7228, symSize: 0x4 }
  - { offset: 0x790D7, size: 0x8, addend: 0x0, symName: __ZNSt3__120__shared_ptr_emplaceIN8facebook5react9NativeDOMENS_9allocatorIS3_EEE21__on_zero_shared_weakEv, symObjAddr: 0x3480, symBinAddr: 0x7228, symSize: 0x4 }
  - { offset: 0x79218, size: 0x8, addend: 0x0, symName: __ZNSt3__110unique_ptrIN8facebook3jsi10WeakObjectENS_14default_deleteIS3_EEE5resetB8ne200100EPS3_, symObjAddr: 0x6034, symBinAddr: 0x9C88, symSize: 0x48 }
  - { offset: 0x792E2, size: 0x8, addend: 0x0, symName: __ZNSt3__112__hash_tableINS_17__hash_value_typeINS_12basic_stringIcNS_11char_traitsIcEENS_9allocatorIcEEEENS_10shared_ptrIN8facebook5react18IAsyncEventEmitterEEEEENS_22__unordered_map_hasherIS7_SD_NS_4hashIS7_EENS_8equal_toIS7_EELb1EEENS_21__unordered_map_equalIS7_SD_SI_SG_Lb1EEENS5_ISD_EEED2Ev, symObjAddr: 0x607C, symBinAddr: 0x9CD0, symSize: 0x38 }
  - { offset: 0x7943C, size: 0x8, addend: 0x0, symName: __ZNSt3__112__hash_tableINS_17__hash_value_typeINS_12basic_stringIcNS_11char_traitsIcEENS_9allocatorIcEEEEN8facebook5react11TurboModule14MethodMetadataEEENS_22__unordered_map_hasherIS7_SC_NS_4hashIS7_EENS_8equal_toIS7_EELb1EEENS_21__unordered_map_equalIS7_SC_SH_SF_Lb1EEENS5_ISC_EEED2Ev, symObjAddr: 0x6184, symBinAddr: 0x9D80, symSize: 0x38 }
  - { offset: 0x79596, size: 0x8, addend: 0x0, symName: __ZN8facebook5react16NativeDOMCxxSpecINS0_9NativeDOMEED1Ev, symObjAddr: 0x356C, symBinAddr: 0x7314, symSize: 0x4 }
  - { offset: 0x795B9, size: 0x8, addend: 0x0, symName: __ZN8facebook5react16NativeDOMCxxSpecINS0_9NativeDOMEED1Ev, symObjAddr: 0x356C, symBinAddr: 0x7314, symSize: 0x4 }
  - { offset: 0x795EF, size: 0x8, addend: 0x0, symName: __ZN8facebook5react16NativeDOMCxxSpecINS0_9NativeDOMEED0Ev, symObjAddr: 0x3570, symBinAddr: 0x7318, symSize: 0x14 }
  - { offset: 0x796A9, size: 0x8, addend: 0x0, symName: __ZN8facebook5react16NativeDOMCxxSpecINS0_9NativeDOMEE8DelegateD1Ev, symObjAddr: 0x362C, symBinAddr: 0x73D4, symSize: 0x60 }
  - { offset: 0x7995C, size: 0x8, addend: 0x0, symName: __ZN8facebook5react16NativeDOMCxxSpecINS0_9NativeDOMEE8DelegateD0Ev, symObjAddr: 0x368C, symBinAddr: 0x7434, symSize: 0x64 }
  - { offset: 0x79D93, size: 0x8, addend: 0x0, symName: __ZNSt3__16vectorIN8facebook3jsi10PropNameIDENS_9allocatorIS3_EEE7reserveEm, symObjAddr: 0x3DBC, symBinAddr: 0x7B64, symSize: 0x8C }
  - { offset: 0x79F29, size: 0x8, addend: 0x0, symName: __ZNSt3__16vectorIN8facebook3jsi10PropNameIDENS_9allocatorIS3_EEE9push_backB8ne200100EOS3_, symObjAddr: 0x3E48, symBinAddr: 0x7BF0, symSize: 0xF0 }
  - { offset: 0x7A2CB, size: 0x8, addend: 0x0, symName: __ZNSt3__16vectorIN8facebook3jsi10PropNameIDENS_9allocatorIS3_EEE16__destroy_vectorclB8ne200100Ev, symObjAddr: 0x4094, symBinAddr: 0x7E28, symSize: 0x78 }
  - { offset: 0x7A947, size: 0x8, addend: 0x0, symName: __ZNSt3__112__hash_tableINS_17__hash_value_typeINS_12basic_stringIcNS_11char_traitsIcEENS_9allocatorIcEEEEN8facebook5react11TurboModule14MethodMetadataEEENS_22__unordered_map_hasherIS7_SC_NS_4hashIS7_EENS_8equal_toIS7_EELb1EEENS_21__unordered_map_equalIS7_SC_SH_SF_Lb1EEENS5_ISC_EEE4findIS7_EENS_15__hash_iteratorIPNS_11__hash_nodeISC_PvEEEERKT_, symObjAddr: 0x410C, symBinAddr: 0x7EA0, symSize: 0xF8 }
  - { offset: 0x7AB3B, size: 0x8, addend: 0x0, symName: __ZNSt3__110__function12__value_funcIFN8facebook3jsi5ValueERNS3_7RuntimeERKS4_PS7_mEEC2B8ne200100EOSB_, symObjAddr: 0x471C, symBinAddr: 0x84B0, symSize: 0x64 }
  - { offset: 0x7ACD3, size: 0x8, addend: 0x0, symName: __ZN8facebook5react16NativeDOMCxxSpecINS0_9NativeDOMEE8Delegate23compareDocumentPositionERNS_3jsi7RuntimeENS5_5ValueES8_, symObjAddr: 0x3A14, symBinAddr: 0x77BC, symSize: 0x28 }
  - { offset: 0x7AD56, size: 0x8, addend: 0x0, symName: __ZN8facebook5react16NativeDOMCxxSpecINS0_9NativeDOMEE8Delegate13getChildNodesERNS_3jsi7RuntimeENS5_5ValueE, symObjAddr: 0x3A3C, symBinAddr: 0x77E4, symSize: 0x24 }
  - { offset: 0x7ADC8, size: 0x8, addend: 0x0, symName: __ZN8facebook5react16NativeDOMCxxSpecINS0_9NativeDOMEE8Delegate13getParentNodeERNS_3jsi7RuntimeENS5_5ValueE, symObjAddr: 0x3A60, symBinAddr: 0x7808, symSize: 0x24 }
  - { offset: 0x7AE3A, size: 0x8, addend: 0x0, symName: __ZN8facebook5react16NativeDOMCxxSpecINS0_9NativeDOMEE8Delegate11isConnectedERNS_3jsi7RuntimeENS5_5ValueE, symObjAddr: 0x3A84, symBinAddr: 0x782C, symSize: 0x24 }
  - { offset: 0x7AEA5, size: 0x8, addend: 0x0, symName: __ZN8facebook5react16NativeDOMCxxSpecINS0_9NativeDOMEE8Delegate14getBorderWidthERNS_3jsi7RuntimeENS5_5ValueE, symObjAddr: 0x3AA8, symBinAddr: 0x7850, symSize: 0x24 }
  - { offset: 0x7AF17, size: 0x8, addend: 0x0, symName: __ZN8facebook5react16NativeDOMCxxSpecINS0_9NativeDOMEE8Delegate21getBoundingClientRectERNS_3jsi7RuntimeENS5_5ValueEb, symObjAddr: 0x3ACC, symBinAddr: 0x7874, symSize: 0x44 }
  - { offset: 0x7AF9F, size: 0x8, addend: 0x0, symName: __ZN8facebook5react16NativeDOMCxxSpecINS0_9NativeDOMEE8Delegate12getInnerSizeERNS_3jsi7RuntimeENS5_5ValueE, symObjAddr: 0x3B10, symBinAddr: 0x78B8, symSize: 0x24 }
  - { offset: 0x7B011, size: 0x8, addend: 0x0, symName: __ZN8facebook5react16NativeDOMCxxSpecINS0_9NativeDOMEE8Delegate17getScrollPositionERNS_3jsi7RuntimeENS5_5ValueE, symObjAddr: 0x3B34, symBinAddr: 0x78DC, symSize: 0x24 }
  - { offset: 0x7B083, size: 0x8, addend: 0x0, symName: __ZN8facebook5react16NativeDOMCxxSpecINS0_9NativeDOMEE8Delegate13getScrollSizeERNS_3jsi7RuntimeENS5_5ValueE, symObjAddr: 0x3B58, symBinAddr: 0x7900, symSize: 0x24 }
  - { offset: 0x7B0F5, size: 0x8, addend: 0x0, symName: __ZN8facebook5react16NativeDOMCxxSpecINS0_9NativeDOMEE8Delegate10getTagNameERNS_3jsi7RuntimeENS5_5ValueE, symObjAddr: 0x3B7C, symBinAddr: 0x7924, symSize: 0x24 }
  - { offset: 0x7B167, size: 0x8, addend: 0x0, symName: __ZN8facebook5react16NativeDOMCxxSpecINS0_9NativeDOMEE8Delegate14getTextContentERNS_3jsi7RuntimeENS5_5ValueE, symObjAddr: 0x3BA0, symBinAddr: 0x7948, symSize: 0x24 }
  - { offset: 0x7B1D9, size: 0x8, addend: 0x0, symName: __ZN8facebook5react16NativeDOMCxxSpecINS0_9NativeDOMEE8Delegate17hasPointerCaptureERNS_3jsi7RuntimeENS5_5ValueEd, symObjAddr: 0x3BC4, symBinAddr: 0x796C, symSize: 0x44 }
  - { offset: 0x7B25A, size: 0x8, addend: 0x0, symName: __ZN8facebook5react16NativeDOMCxxSpecINS0_9NativeDOMEE8Delegate21releasePointerCaptureERNS_3jsi7RuntimeENS5_5ValueEd, symObjAddr: 0x3C08, symBinAddr: 0x79B0, symSize: 0x44 }
  - { offset: 0x7B2DB, size: 0x8, addend: 0x0, symName: __ZN8facebook5react16NativeDOMCxxSpecINS0_9NativeDOMEE8Delegate17setPointerCaptureERNS_3jsi7RuntimeENS5_5ValueEd, symObjAddr: 0x3C4C, symBinAddr: 0x79F4, symSize: 0x44 }
  - { offset: 0x7B35C, size: 0x8, addend: 0x0, symName: __ZN8facebook5react16NativeDOMCxxSpecINS0_9NativeDOMEE8Delegate9getOffsetERNS_3jsi7RuntimeENS5_5ValueE, symObjAddr: 0x3C90, symBinAddr: 0x7A38, symSize: 0x24 }
  - { offset: 0x7B3CE, size: 0x8, addend: 0x0, symName: __ZN8facebook5react16NativeDOMCxxSpecINS0_9NativeDOMEE8Delegate12linkRootNodeERNS_3jsi7RuntimeEdNS5_5ValueE, symObjAddr: 0x3CB4, symBinAddr: 0x7A5C, symSize: 0x44 }
  - { offset: 0x7B456, size: 0x8, addend: 0x0, symName: __ZN8facebook5react16NativeDOMCxxSpecINS0_9NativeDOMEE8Delegate7measureERNS_3jsi7RuntimeENS5_5ValueENS5_8FunctionE, symObjAddr: 0x3CF8, symBinAddr: 0x7AA0, symSize: 0x28 }
  - { offset: 0x7B4D9, size: 0x8, addend: 0x0, symName: __ZN8facebook5react16NativeDOMCxxSpecINS0_9NativeDOMEE8Delegate15measureInWindowERNS_3jsi7RuntimeENS5_5ValueENS5_8FunctionE, symObjAddr: 0x3D20, symBinAddr: 0x7AC8, symSize: 0x28 }
  - { offset: 0x7B55C, size: 0x8, addend: 0x0, symName: __ZN8facebook5react16NativeDOMCxxSpecINS0_9NativeDOMEE8Delegate13measureLayoutERNS_3jsi7RuntimeENS5_5ValueES8_NS5_8FunctionES9_, symObjAddr: 0x3D48, symBinAddr: 0x7AF0, symSize: 0x4C }
  - { offset: 0x7B607, size: 0x8, addend: 0x0, symName: __ZN8facebook5react16NativeDOMCxxSpecINS0_9NativeDOMEE8Delegate14setNativePropsERNS_3jsi7RuntimeENS5_5ValueES8_, symObjAddr: 0x3D94, symBinAddr: 0x7B3C, symSize: 0x28 }
  - { offset: 0x7B762, size: 0x8, addend: 0x0, symName: __ZNSt3__16vectorIN8facebook3jsi10PropNameIDENS_9allocatorIS3_EEE26__swap_out_circular_bufferERNS_14__split_bufferIS3_RS5_EE, symObjAddr: 0x3F4C, symBinAddr: 0x7CE0, symSize: 0xBC }
  - { offset: 0x7BA45, size: 0x8, addend: 0x0, symName: __ZNSt3__114__split_bufferIN8facebook3jsi10PropNameIDERNS_9allocatorIS3_EEED2Ev, symObjAddr: 0x403C, symBinAddr: 0x7DD0, symSize: 0x58 }
  - { offset: 0x7BBDA, size: 0x8, addend: 0x0, symName: __ZNSt3__16vectorIN8facebook3jsi10PropNameIDENS_9allocatorIS3_EEE26__swap_out_circular_bufferERNS_14__split_bufferIS3_RS5_EE, symObjAddr: 0x3F4C, symBinAddr: 0x7CE0, symSize: 0xBC }
  - { offset: 0x7C01E, size: 0x8, addend: 0x0, symName: __ZNKSt3__113__string_hashIcNS_9allocatorIcEEEclB8ne200100ERKNS_12basic_stringIcNS_11char_traitsIcEES2_EE, symObjAddr: 0x4204, symBinAddr: 0x7F98, symSize: 0x3C }
  - { offset: 0x7C0EE, size: 0x8, addend: 0x0, symName: __ZNKSt3__18equal_toINS_12basic_stringIcNS_11char_traitsIcEENS_9allocatorIcEEEEEclB8ne200100ERKS6_S9_, symObjAddr: 0x46AC, symBinAddr: 0x8440, symSize: 0x70 }
  - { offset: 0x7C139, size: 0x8, addend: 0x0, symName: __ZNKSt3__18equal_toINS_12basic_stringIcNS_11char_traitsIcEENS_9allocatorIcEEEEEclB8ne200100ERKS6_S9_, symObjAddr: 0x46AC, symBinAddr: 0x8440, symSize: 0x70 }
  - { offset: 0x7C169, size: 0x8, addend: 0x0, symName: __ZNKSt3__18equal_toINS_12basic_stringIcNS_11char_traitsIcEENS_9allocatorIcEEEEEclB8ne200100ERKS6_S9_, symObjAddr: 0x46AC, symBinAddr: 0x8440, symSize: 0x70 }
  - { offset: 0x7C185, size: 0x8, addend: 0x0, symName: __ZNKSt3__18equal_toINS_12basic_stringIcNS_11char_traitsIcEENS_9allocatorIcEEEEEclB8ne200100ERKS6_S9_, symObjAddr: 0x46AC, symBinAddr: 0x8440, symSize: 0x70 }
  - { offset: 0x7C289, size: 0x8, addend: 0x0, symName: __ZNKSt3__121__murmur2_or_cityhashImLm64EEclB8ne200100EPKvm, symObjAddr: 0x4240, symBinAddr: 0x7FD4, symSize: 0x208 }
  - { offset: 0x7C8E8, size: 0x8, addend: 0x0, symName: __ZNSt3__121__murmur2_or_cityhashImLm64EE18__hash_len_0_to_16B8ne200100EPKcm, symObjAddr: 0x4448, symBinAddr: 0x81DC, symSize: 0xF8 }
  - { offset: 0x7CAEC, size: 0x8, addend: 0x0, symName: __ZNSt3__121__murmur2_or_cityhashImLm64EE19__hash_len_33_to_64B8ne200100EPKcm, symObjAddr: 0x45EC, symBinAddr: 0x8380, symSize: 0xC0 }
  - { offset: 0x7CD51, size: 0x8, addend: 0x0, symName: __ZNSt3__121__murmur2_or_cityhashImLm64EE19__hash_len_17_to_32B8ne200100EPKcm, symObjAddr: 0x4540, symBinAddr: 0x82D4, symSize: 0xAC }
  - { offset: 0x7CF17, size: 0x8, addend: 0x0, symName: __ZNSt3__110__function6__funcIZN8facebook5react11TurboModule6createERNS2_3jsi7RuntimeERKNS5_10PropNameIDEEUlS7_RKNS5_5ValueEPSC_mE_NS_9allocatorISF_EEFSB_S7_SD_SE_mEED1Ev, symObjAddr: 0x4780, symBinAddr: 0x8514, symSize: 0x4 }
  - { offset: 0x7CF43, size: 0x8, addend: 0x0, symName: __ZNSt3__110__function6__funcIZN8facebook5react11TurboModule6createERNS2_3jsi7RuntimeERKNS5_10PropNameIDEEUlS7_RKNS5_5ValueEPSC_mE_NS_9allocatorISF_EEFSB_S7_SD_SE_mEED0Ev, symObjAddr: 0x4784, symBinAddr: 0x8518, symSize: 0x4 }
  - { offset: 0x7D037, size: 0x8, addend: 0x0, symName: __ZNKSt3__110__function6__funcIZN8facebook5react11TurboModule6createERNS2_3jsi7RuntimeERKNS5_10PropNameIDEEUlS7_RKNS5_5ValueEPSC_mE_NS_9allocatorISF_EEFSB_S7_SD_SE_mEE7__cloneEv, symObjAddr: 0x4788, symBinAddr: 0x851C, symSize: 0x40 }
  - { offset: 0x7D24E, size: 0x8, addend: 0x0, symName: __ZNKSt3__110__function6__funcIZN8facebook5react11TurboModule6createERNS2_3jsi7RuntimeERKNS5_10PropNameIDEEUlS7_RKNS5_5ValueEPSC_mE_NS_9allocatorISF_EEFSB_S7_SD_SE_mEE7__cloneEPNS0_6__baseISI_EE, symObjAddr: 0x47C8, symBinAddr: 0x855C, symSize: 0x20 }
  - { offset: 0x7D284, size: 0x8, addend: 0x0, symName: __ZNKSt3__110__function6__funcIZN8facebook5react11TurboModule6createERNS2_3jsi7RuntimeERKNS5_10PropNameIDEEUlS7_RKNS5_5ValueEPSC_mE_NS_9allocatorISF_EEFSB_S7_SD_SE_mEE7__cloneEPNS0_6__baseISI_EE, symObjAddr: 0x47C8, symBinAddr: 0x855C, symSize: 0x20 }
  - { offset: 0x7D2B2, size: 0x8, addend: 0x0, symName: __ZNKSt3__110__function6__funcIZN8facebook5react11TurboModule6createERNS2_3jsi7RuntimeERKNS5_10PropNameIDEEUlS7_RKNS5_5ValueEPSC_mE_NS_9allocatorISF_EEFSB_S7_SD_SE_mEE7__cloneEPNS0_6__baseISI_EE, symObjAddr: 0x47C8, symBinAddr: 0x855C, symSize: 0x20 }
  - { offset: 0x7D341, size: 0x8, addend: 0x0, symName: __ZNSt3__110__function6__funcIZN8facebook5react11TurboModule6createERNS2_3jsi7RuntimeERKNS5_10PropNameIDEEUlS7_RKNS5_5ValueEPSC_mE_NS_9allocatorISF_EEFSB_S7_SD_SE_mEE7destroyEv, symObjAddr: 0x47E8, symBinAddr: 0x857C, symSize: 0x4 }
  - { offset: 0x7D398, size: 0x8, addend: 0x0, symName: __ZNSt3__110__function6__funcIZN8facebook5react11TurboModule6createERNS2_3jsi7RuntimeERKNS5_10PropNameIDEEUlS7_RKNS5_5ValueEPSC_mE_NS_9allocatorISF_EEFSB_S7_SD_SE_mEE18destroy_deallocateEv, symObjAddr: 0x47EC, symBinAddr: 0x8580, symSize: 0x4 }
  - { offset: 0x7D3CC, size: 0x8, addend: 0x0, symName: __ZNSt3__110__function6__funcIZN8facebook5react11TurboModule6createERNS2_3jsi7RuntimeERKNS5_10PropNameIDEEUlS7_RKNS5_5ValueEPSC_mE_NS_9allocatorISF_EEFSB_S7_SD_SE_mEE18destroy_deallocateEv, symObjAddr: 0x47EC, symBinAddr: 0x8580, symSize: 0x4 }
  - { offset: 0x7D3EF, size: 0x8, addend: 0x0, symName: __ZNSt3__110__function6__funcIZN8facebook5react11TurboModule6createERNS2_3jsi7RuntimeERKNS5_10PropNameIDEEUlS7_RKNS5_5ValueEPSC_mE_NS_9allocatorISF_EEFSB_S7_SD_SE_mEE18destroy_deallocateEv, symObjAddr: 0x47EC, symBinAddr: 0x8580, symSize: 0x4 }
  - { offset: 0x7D424, size: 0x8, addend: 0x0, symName: __ZNSt3__110__function6__funcIZN8facebook5react11TurboModule6createERNS2_3jsi7RuntimeERKNS5_10PropNameIDEEUlS7_RKNS5_5ValueEPSC_mE_NS_9allocatorISF_EEFSB_S7_SD_SE_mEE18destroy_deallocateEv, symObjAddr: 0x47EC, symBinAddr: 0x8580, symSize: 0x4 }
  - { offset: 0x7D54E, size: 0x8, addend: 0x0, symName: __ZNSt3__110__function6__funcIZN8facebook5react11TurboModule6createERNS2_3jsi7RuntimeERKNS5_10PropNameIDEEUlS7_RKNS5_5ValueEPSC_mE_NS_9allocatorISF_EEFSB_S7_SD_SE_mEEclES7_SD_OSE_Om, symObjAddr: 0x47F0, symBinAddr: 0x8584, symSize: 0x1C }
  - { offset: 0x7D6E9, size: 0x8, addend: 0x0, symName: __ZNKSt3__110__function6__funcIZN8facebook5react11TurboModule6createERNS2_3jsi7RuntimeERKNS5_10PropNameIDEEUlS7_RKNS5_5ValueEPSC_mE_NS_9allocatorISF_EEFSB_S7_SD_SE_mEE6targetERKSt9type_info, symObjAddr: 0x480C, symBinAddr: 0x85A0, symSize: 0x3C }
  - { offset: 0x7D736, size: 0x8, addend: 0x0, symName: __ZNKSt9type_infoeqB8ne200100ERKS_, symObjAddr: 0x4854, symBinAddr: 0x85E8, symSize: 0x4C }
  - { offset: 0x7D7D5, size: 0x8, addend: 0x0, symName: __ZNKSt3__110__function6__funcIZN8facebook5react11TurboModule6createERNS2_3jsi7RuntimeERKNS5_10PropNameIDEEUlS7_RKNS5_5ValueEPSC_mE_NS_9allocatorISF_EEFSB_S7_SD_SE_mEE11target_typeEv, symObjAddr: 0x4848, symBinAddr: 0x85DC, symSize: 0xC }
  - { offset: 0x7DA3D, size: 0x8, addend: 0x0, symName: __ZN8facebook5react12array_detail15BridgingDynamicINSt3__16vectorINS_3jsi5ValueENS3_9allocatorIS6_EEEEE4toJsERNS5_7RuntimeERKS9_RKNS3_10shared_ptrINS0_11CallInvokerEEE, symObjAddr: 0x4B7C, symBinAddr: 0x8818, symSize: 0xE4 }
  - { offset: 0x7DE18, size: 0x8, addend: 0x0, symName: __ZNO8facebook5react8bridging13ConverterBaseIRKNS_3jsi5ValueEEcvS4_Ev, symObjAddr: 0x4C60, symBinAddr: 0x88FC, symSize: 0x44 }
  - { offset: 0x7DE8C, size: 0x8, addend: 0x0, symName: __ZN8facebook5react12array_detail14BridgingStaticINSt3__15tupleIJiiiiEEELm4EE4toJsIJLm0ELm1ELm2ELm3EEEENS_3jsi5ArrayERNS8_7RuntimeERKS5_RKNS3_10shared_ptrINS0_11CallInvokerEEENS3_16integer_sequenceImJXspT_EEEE, symObjAddr: 0x4F94, symBinAddr: 0x8BE8, symSize: 0xDC }
  - { offset: 0x7E204, size: 0x8, addend: 0x0, symName: __ZN8facebook5react12array_detail14BridgingStaticINSt3__15tupleIJddddEEELm4EE4toJsIJLm0ELm1ELm2ELm3EEEENS_3jsi5ArrayERNS8_7RuntimeERKS5_RKNS3_10shared_ptrINS0_11CallInvokerEEENS3_16integer_sequenceImJXspT_EEEE, symObjAddr: 0x51C0, symBinAddr: 0x8E14, symSize: 0xCC }
  - { offset: 0x7E5D5, size: 0x8, addend: 0x0, symName: __ZN8facebook5react12array_detail14BridgingStaticINSt3__15tupleIJiiEEELm2EE4toJsIJLm0ELm1EEEENS_3jsi5ArrayERNS8_7RuntimeERKS5_RKNS3_10shared_ptrINS0_11CallInvokerEEENS3_16integer_sequenceImJXspT_EEEE, symObjAddr: 0x5364, symBinAddr: 0x8FB8, symSize: 0xC0 }
  - { offset: 0x7E7F9, size: 0x8, addend: 0x0, symName: __ZN8facebook5react12array_detail14BridgingStaticINSt3__15tupleIJddEEELm2EE4toJsIJLm0ELm1EEEENS_3jsi5ArrayERNS8_7RuntimeERKS5_RKNS3_10shared_ptrINS0_11CallInvokerEEENS3_16integer_sequenceImJXspT_EEEE, symObjAddr: 0x54FC, symBinAddr: 0x9150, symSize: 0xB8 }
  - { offset: 0x7EB14, size: 0x8, addend: 0x0, symName: __ZN8facebook5react12array_detail14BridgingStaticINSt3__15tupleIJNS_3jsi5ValueEddEEELm3EE4toJsIJLm0ELm1ELm2EEEENS5_5ArrayERNS5_7RuntimeERKS7_RKNS3_10shared_ptrINS0_11CallInvokerEEENS3_16integer_sequenceImJXspT_EEEE, symObjAddr: 0x59C8, symBinAddr: 0x961C, symSize: 0x108 }
  - { offset: 0x7EE93, size: 0x8, addend: 0x0, symName: __ZN8facebook5react8bridging10callFromJsIvNS0_9NativeDOMEvJNSt3__110shared_ptrIKNS0_10ShadowNodeEEES8_NS_3jsi8FunctionESA_EJNS9_5ValueESB_SA_SA_EEET_RNS9_7RuntimeEMT0_FT1_SE_DpT2_ERKNS5_INS0_11CallInvokerEEEPSF_DpOT3_.cold.1, symObjAddr: 0x64A4, symBinAddr: 0xA048, symSize: 0x38 }
  - { offset: 0x7EF1A, size: 0x8, addend: 0x0, symName: __ZN8facebook5react11TurboModuleD1Ev, symObjAddr: 0x5F70, symBinAddr: 0x9BC4, symSize: 0x60 }
  - { offset: 0x7F18D, size: 0x8, addend: 0x0, symName: __ZN8facebook5react11TurboModuleD0Ev, symObjAddr: 0x5FD0, symBinAddr: 0x9C24, symSize: 0x64 }
  - { offset: 0x7F560, size: 0x8, addend: 0x0, symName: __ZNSt3__112__hash_tableINS_17__hash_value_typeINS_12basic_stringIcNS_11char_traitsIcEENS_9allocatorIcEEEENS_10shared_ptrIN8facebook5react18IAsyncEventEmitterEEEEENS_22__unordered_map_hasherIS7_SD_NS_4hashIS7_EENS_8equal_toIS7_EELb1EEENS_21__unordered_map_equalIS7_SD_SI_SG_Lb1EEENS5_ISD_EEE17__deallocate_nodeEPNS_16__hash_node_baseIPNS_11__hash_nodeISD_PvEEEE, symObjAddr: 0x60B4, symBinAddr: 0x9D08, symSize: 0x3C }
  - { offset: 0x7F8E6, size: 0x8, addend: 0x0, symName: __ZNSt3__112__hash_tableINS_17__hash_value_typeINS_12basic_stringIcNS_11char_traitsIcEENS_9allocatorIcEEEEN8facebook5react11TurboModule14MethodMetadataEEENS_22__unordered_map_hasherIS7_SC_NS_4hashIS7_EENS_8equal_toIS7_EELb1EEENS_21__unordered_map_equalIS7_SC_SH_SF_Lb1EEENS5_ISC_EEE17__deallocate_nodeEPNS_16__hash_node_baseIPNS_11__hash_nodeISC_PvEEEE, symObjAddr: 0x61BC, symBinAddr: 0x9DB8, symSize: 0x44 }
  - { offset: 0x7FEBD, size: 0x8, addend: 0x0, symName: __ZNSt3__120__shared_ptr_emplaceIN8facebook5react14InstanceHandleENS_9allocatorIS3_EEEC2B8ne200100IJRNS1_3jsi7RuntimeERNS8_5ValueERiES5_Li0EEES5_DpOT_, symObjAddr: 0x6330, symBinAddr: 0x9F2C, symSize: 0x50 }
  - { offset: 0x800AD, size: 0x8, addend: 0x0, symName: __ZNSt3__120__shared_ptr_emplaceIN8facebook5react14InstanceHandleENS_9allocatorIS3_EEED1Ev, symObjAddr: 0x6380, symBinAddr: 0x9F7C, symSize: 0x14 }
  - { offset: 0x800CF, size: 0x8, addend: 0x0, symName: __ZNSt3__120__shared_ptr_emplaceIN8facebook5react14InstanceHandleENS_9allocatorIS3_EEED1Ev, symObjAddr: 0x6380, symBinAddr: 0x9F7C, symSize: 0x14 }
  - { offset: 0x80105, size: 0x8, addend: 0x0, symName: __ZNSt3__120__shared_ptr_emplaceIN8facebook5react14InstanceHandleENS_9allocatorIS3_EEED0Ev, symObjAddr: 0x6394, symBinAddr: 0x9F90, symSize: 0x24 }
  - { offset: 0x8020C, size: 0x8, addend: 0x0, symName: __ZNSt3__120__shared_ptr_emplaceIN8facebook5react14InstanceHandleENS_9allocatorIS3_EEE16__on_zero_sharedEv, symObjAddr: 0x63B8, symBinAddr: 0x9FB4, symSize: 0x18 }
  - { offset: 0x80235, size: 0x8, addend: 0x0, symName: __ZNSt3__120__shared_ptr_emplaceIN8facebook5react14InstanceHandleENS_9allocatorIS3_EEE16__on_zero_sharedEv, symObjAddr: 0x63B8, symBinAddr: 0x9FB4, symSize: 0x18 }
  - { offset: 0x80252, size: 0x8, addend: 0x0, symName: __ZNSt3__120__shared_ptr_emplaceIN8facebook5react14InstanceHandleENS_9allocatorIS3_EEE16__on_zero_sharedEv, symObjAddr: 0x63B8, symBinAddr: 0x9FB4, symSize: 0x18 }
  - { offset: 0x8026F, size: 0x8, addend: 0x0, symName: __ZNSt3__120__shared_ptr_emplaceIN8facebook5react14InstanceHandleENS_9allocatorIS3_EEE16__on_zero_sharedEv, symObjAddr: 0x63B8, symBinAddr: 0x9FB4, symSize: 0x18 }
  - { offset: 0x8028D, size: 0x8, addend: 0x0, symName: __ZNSt3__120__shared_ptr_emplaceIN8facebook5react14InstanceHandleENS_9allocatorIS3_EEE16__on_zero_sharedEv, symObjAddr: 0x63B8, symBinAddr: 0x9FB4, symSize: 0x18 }
  - { offset: 0x802AB, size: 0x8, addend: 0x0, symName: __ZNSt3__120__shared_ptr_emplaceIN8facebook5react14InstanceHandleENS_9allocatorIS3_EEE16__on_zero_sharedEv, symObjAddr: 0x63B8, symBinAddr: 0x9FB4, symSize: 0x18 }
  - { offset: 0x802C8, size: 0x8, addend: 0x0, symName: __ZNSt3__120__shared_ptr_emplaceIN8facebook5react14InstanceHandleENS_9allocatorIS3_EEE16__on_zero_sharedEv, symObjAddr: 0x63B8, symBinAddr: 0x9FB4, symSize: 0x18 }
  - { offset: 0x802E5, size: 0x8, addend: 0x0, symName: __ZNSt3__120__shared_ptr_emplaceIN8facebook5react14InstanceHandleENS_9allocatorIS3_EEE16__on_zero_sharedEv, symObjAddr: 0x63B8, symBinAddr: 0x9FB4, symSize: 0x18 }
  - { offset: 0x80303, size: 0x8, addend: 0x0, symName: __ZNSt3__120__shared_ptr_emplaceIN8facebook5react14InstanceHandleENS_9allocatorIS3_EEE16__on_zero_sharedEv, symObjAddr: 0x63B8, symBinAddr: 0x9FB4, symSize: 0x18 }
  - { offset: 0x80332, size: 0x8, addend: 0x0, symName: __ZNSt3__120__shared_ptr_emplaceIN8facebook5react14InstanceHandleENS_9allocatorIS3_EEE21__on_zero_shared_weakEv, symObjAddr: 0x63D0, symBinAddr: 0x9FCC, symSize: 0x4 }
  - { offset: 0x80364, size: 0x8, addend: 0x0, symName: __ZNSt3__120__shared_ptr_emplaceIN8facebook5react14InstanceHandleENS_9allocatorIS3_EEE21__on_zero_shared_weakEv, symObjAddr: 0x63D0, symBinAddr: 0x9FCC, symSize: 0x4 }
  - { offset: 0x80386, size: 0x8, addend: 0x0, symName: __ZNSt3__120__shared_ptr_emplaceIN8facebook5react14InstanceHandleENS_9allocatorIS3_EEE21__on_zero_shared_weakEv, symObjAddr: 0x63D0, symBinAddr: 0x9FCC, symSize: 0x4 }
  - { offset: 0x803A9, size: 0x8, addend: 0x0, symName: __ZNSt3__120__shared_ptr_emplaceIN8facebook5react14InstanceHandleENS_9allocatorIS3_EEE21__on_zero_shared_weakEv, symObjAddr: 0x63D0, symBinAddr: 0x9FCC, symSize: 0x4 }
  - { offset: 0x803DE, size: 0x8, addend: 0x0, symName: __ZNSt3__120__shared_ptr_emplaceIN8facebook5react14InstanceHandleENS_9allocatorIS3_EEE21__on_zero_shared_weakEv, symObjAddr: 0x63D0, symBinAddr: 0x9FCC, symSize: 0x4 }
...
