---
triple:          'arm64-apple-darwin'
binary-path:     '/Users/uk-aplatts/Development/InjuryIQ/ios/DerivedData/Build/Intermediates.noindex/ArchiveIntermediates/InjuryIQ/IntermediateBuildFilesPath/UninstalledProducts/iphoneos/jsinspector_moderntracing.framework/jsinspector_moderntracing'
relocations:
  - { offset: 0x33, size: 0x8, addend: 0x0, symName: _jsinspector_moderntracingVersionString, symObjAddr: 0x0, symBinAddr: 0xB770, symSize: 0x0 }
  - { offset: 0x67, size: 0x8, addend: 0x0, symName: _jsinspector_moderntracingVersionNumber, symObjAddr: 0x38, symBinAddr: 0xB7A8, symSize: 0x0 }
  - { offset: 0xA2, size: 0x8, addend: 0x0, symName: __ZN8facebook5react18jsinspector_modern7tracing17EventLoopReporterC2ENS2_14EventLoopPhaseE, symObjAddr: 0x0, symBinAddr: 0x4000, symSize: 0x4 }
  - { offset: 0x181, size: 0x8, addend: 0x0, symName: __ZN8facebook5react18jsinspector_modern7tracing17EventLoopReporterC2ENS2_14EventLoopPhaseE, symObjAddr: 0x0, symBinAddr: 0x4000, symSize: 0x4 }
  - { offset: 0x1B7, size: 0x8, addend: 0x0, symName: __ZN8facebook5react18jsinspector_modern7tracing17EventLoopReporterC1ENS2_14EventLoopPhaseE, symObjAddr: 0x4, symBinAddr: 0x4004, symSize: 0x4 }
  - { offset: 0x1ED, size: 0x8, addend: 0x0, symName: __ZN8facebook5react18jsinspector_modern7tracing17EventLoopReporterD2Ev, symObjAddr: 0x8, symBinAddr: 0x4008, symSize: 0x4 }
  - { offset: 0x216, size: 0x8, addend: 0x0, symName: __ZN8facebook5react18jsinspector_modern7tracing17EventLoopReporterD1Ev, symObjAddr: 0xC, symBinAddr: 0x400C, symSize: 0x4 }
  - { offset: 0x26A, size: 0x8, addend: 0x0, symName: __ZN8facebook5react18jsinspector_modern7tracing17PerformanceTracer11getInstanceEv, symObjAddr: 0x0, symBinAddr: 0x4010, symSize: 0xBC }
  - { offset: 0x11E58, size: 0x8, addend: 0x0, symName: __ZNSt3__119piecewise_constructE, symObjAddr: 0x567C, symBinAddr: 0xB7CB, symSize: 0x0 }
  - { offset: 0x12762, size: 0x8, addend: 0x0, symName: __ZNSt3__125__throw_bad_function_callB8ne200100Ev, symObjAddr: 0x4E50, symBinAddr: 0x8DB0, symSize: 0x34 }
  - { offset: 0x128D7, size: 0x8, addend: 0x0, symName: __ZNSt3__127__throw_bad_optional_accessB8ne200100Ev, symObjAddr: 0x42D8, symBinAddr: 0x8238, symSize: 0x34 }
  - { offset: 0x12A7D, size: 0x8, addend: 0x0, symName: __ZNSt3__126__throw_bad_variant_accessB8ne200100Ev, symObjAddr: 0x438C, symBinAddr: 0x82EC, symSize: 0x34 }
  - { offset: 0x12AFC, size: 0x8, addend: 0x0, symName: __ZNSt3__120__throw_length_errorB8ne200100EPKc, symObjAddr: 0x357C, symBinAddr: 0x758C, symSize: 0x50 }
  - { offset: 0x12B68, size: 0x8, addend: 0x0, symName: __ZNSt3__119__allocate_at_leastB8ne200100INS_9allocatorIN8facebook5react18jsinspector_modern7tracing10TraceEventEEEEENS_19__allocation_resultINS_16allocator_traitsIT_E7pointerEEERSA_m, symObjAddr: 0x37BC, symBinAddr: 0x77CC, symSize: 0x48 }
  - { offset: 0x12C19, size: 0x8, addend: 0x0, symName: __ZNSt3__134__uninitialized_allocator_relocateB8ne200100INS_9allocatorIN8facebook5react18jsinspector_modern7tracing10TraceEventEEEPS6_EEvRT_T0_SB_SB_, symObjAddr: 0x3804, symBinAddr: 0x7814, symSize: 0xB4 }
  - { offset: 0x12C2D, size: 0x8, addend: 0x0, symName: __ZNSt3__134__uninitialized_allocator_relocateB8ne200100INS_9allocatorIN8facebook5react18jsinspector_modern7tracing10TraceEventEEEPS6_EEvRT_T0_SB_SB_, symObjAddr: 0x3804, symBinAddr: 0x7814, symSize: 0xB4 }
  - { offset: 0x12C8C, size: 0x8, addend: 0x0, symName: __ZNSt3__134__uninitialized_allocator_relocateB8ne200100INS_9allocatorIN8facebook5react18jsinspector_modern7tracing10TraceEventEEEPS6_EEvRT_T0_SB_SB_, symObjAddr: 0x3804, symBinAddr: 0x7814, symSize: 0xB4 }
  - { offset: 0x12F1E, size: 0x8, addend: 0x0, symName: __ZNSt3__112__destroy_atB8ne200100IN8facebook5react18jsinspector_modern7tracing10TraceEventELi0EEEvPT_, symObjAddr: 0x38B8, symBinAddr: 0x78C8, symSize: 0x4C }
  - { offset: 0x137DB, size: 0x8, addend: 0x0, symName: __ZNSt3__119__allocate_at_leastB8ne200100INS_9allocatorIN5folly7dynamicEEEEENS_19__allocation_resultINS_16allocator_traitsIT_E7pointerEEERS7_m, symObjAddr: 0x4170, symBinAddr: 0x80D0, symSize: 0x44 }
  - { offset: 0x1388C, size: 0x8, addend: 0x0, symName: __ZNSt3__134__uninitialized_allocator_relocateB8ne200100INS_9allocatorIN5folly7dynamicEEEPS3_EEvRT_T0_S8_S8_, symObjAddr: 0x41B4, symBinAddr: 0x8114, symSize: 0x68 }
  - { offset: 0x138A0, size: 0x8, addend: 0x0, symName: __ZNSt3__134__uninitialized_allocator_relocateB8ne200100INS_9allocatorIN5folly7dynamicEEEPS3_EEvRT_T0_S8_S8_, symObjAddr: 0x41B4, symBinAddr: 0x8114, symSize: 0x68 }
  - { offset: 0x138FF, size: 0x8, addend: 0x0, symName: __ZNSt3__134__uninitialized_allocator_relocateB8ne200100INS_9allocatorIN5folly7dynamicEEEPS3_EEvRT_T0_S8_S8_, symObjAddr: 0x41B4, symBinAddr: 0x8114, symSize: 0x68 }
  - { offset: 0x155A4, size: 0x8, addend: 0x0, symName: __ZSt28__throw_bad_array_new_lengthB8ne200100v, symObjAddr: 0x35F0, symBinAddr: 0x7600, symSize: 0x28 }
  - { offset: 0x18218, size: 0x8, addend: 0x0, symName: __ZN5folly6detail16throw_exception_INS_9TypeErrorEJPKcNS_7dynamic4TypeEEEEvDpT0_, symObjAddr: 0x39D4, symBinAddr: 0xB4AC, symSize: 0x68 }
  - { offset: 0x192C6, size: 0x8, addend: 0x0, symName: __ZN5folly15throw_exceptionINS_9TypeErrorEEEvOT_, symObjAddr: 0x3A3C, symBinAddr: 0xB514, symSize: 0x34 }
  - { offset: 0x1A8A0, size: 0x8, addend: 0x0, symName: __ZN8facebook5react18jsinspector_modern7tracing17PerformanceTracer11getInstanceEv, symObjAddr: 0x0, symBinAddr: 0x4010, symSize: 0xBC }
  - { offset: 0x1A8C2, size: 0x8, addend: 0x0, symName: __ZZN8facebook5react18jsinspector_modern7tracing17PerformanceTracer11getInstanceEvE6tracer, symObjAddr: 0xABAB0, symBinAddr: 0x140E0, symSize: 0x0 }
  - { offset: 0x1ACCA, size: 0x8, addend: 0x0, symName: __ZN8facebook5react18jsinspector_modern7tracing17PerformanceTracerC1Ev, symObjAddr: 0xBC, symBinAddr: 0x40CC, symSize: 0x58 }
  - { offset: 0x1AEEF, size: 0x8, addend: 0x0, symName: __ZN8facebook5react18jsinspector_modern7tracing17PerformanceTracerD1Ev, symObjAddr: 0x114, symBinAddr: 0x4124, symSize: 0x40 }
  - { offset: 0x1AFDC, size: 0x8, addend: 0x0, symName: __ZNSt3__16vectorIN8facebook5react18jsinspector_modern7tracing10TraceEventENS_9allocatorIS5_EEE16__destroy_vectorclB8ne200100Ev, symObjAddr: 0x4268, symBinAddr: 0x81C8, symSize: 0x70 }
  - { offset: 0x1B12E, size: 0x8, addend: 0x0, symName: __ZN8facebook5react18jsinspector_modern7tracing17PerformanceTracerC2Ev, symObjAddr: 0x154, symBinAddr: 0x4164, symSize: 0x58 }
  - { offset: 0x1BD7E, size: 0x8, addend: 0x0, symName: __ZN8facebook5react18jsinspector_modern7tracing17PerformanceTracer12startTracingEv, symObjAddr: 0x1AC, symBinAddr: 0x41BC, symSize: 0x3A4 }
  - { offset: 0x1D3B0, size: 0x8, addend: 0x0, symName: __ZNSt3__112basic_stringIcNS_11char_traitsIcEENS_9allocatorIcEEEC2B8ne200100ILi0EEEPKc, symObjAddr: 0x34C4, symBinAddr: 0x74D4, symSize: 0xA4 }
  - { offset: 0x1D634, size: 0x8, addend: 0x0, symName: __ZNSt3__112basic_stringIcNS_11char_traitsIcEENS_9allocatorIcEEE20__throw_length_errorB8ne200100Ev, symObjAddr: 0x3568, symBinAddr: 0x7578, symSize: 0x14 }
  - { offset: 0x1D645, size: 0x8, addend: 0x0, symName: __ZN8facebook5react18jsinspector_modern7tracing17PerformanceTracer13reportProcessEyRKNSt3__112basic_stringIcNS4_11char_traitsIcEENS4_9allocatorIcEEEE, symObjAddr: 0x550, symBinAddr: 0x4560, symSize: 0x360 }
  - { offset: 0x1E888, size: 0x8, addend: 0x0, symName: __ZN5folly7dynamic11ObjectMakerC2ES0_S0_, symObjAddr: 0x3950, symBinAddr: 0x7960, symSize: 0x84 }
  - { offset: 0x1EAA5, size: 0x8, addend: 0x0, symName: __ZNSt3__16vectorIN8facebook5react18jsinspector_modern7tracing10TraceEventENS_9allocatorIS5_EEE24__emplace_back_slow_pathIJS5_EEEPS5_DpOT_, symObjAddr: 0x3618, symBinAddr: 0x7628, symSize: 0x190 }
  - { offset: 0x1EEA9, size: 0x8, addend: 0x0, symName: __ZN8facebook5react18jsinspector_modern7tracing10TraceEventD1Ev, symObjAddr: 0x8B0, symBinAddr: 0x48C0, symSize: 0x48 }
  - { offset: 0x1F1FA, size: 0x8, addend: 0x0, symName: __ZNSt3__112basic_stringIcNS_11char_traitsIcEENS_9allocatorIcEEE25__init_copy_ctor_externalEPKcm, symObjAddr: 0x430C, symBinAddr: 0x826C, symSize: 0x80 }
  - { offset: 0x1F3E8, size: 0x8, addend: 0x0, symName: __ZNSt3__126__throw_bad_variant_accessB8ne200100Ev, symObjAddr: 0x438C, symBinAddr: 0x82EC, symSize: 0x34 }
  - { offset: 0x1F3F3, size: 0x8, addend: 0x0, symName: __ZN8facebook5react18jsinspector_modern7tracing17PerformanceTracer11stopTracingEv, symObjAddr: 0x8F8, symBinAddr: 0x4908, symSize: 0x208 }
  - { offset: 0x2041D, size: 0x8, addend: 0x0, symName: __ZN8facebook5react18jsinspector_modern7tracing17PerformanceTracer13collectEventsERKNSt3__18functionIFvRKN5folly7dynamicEEEEt, symObjAddr: 0xB00, symBinAddr: 0x4B10, symSize: 0x24C }
  - { offset: 0x20DCC, size: 0x8, addend: 0x0, symName: __ZNSt3__16vectorIN5folly7dynamicENS_9allocatorIS2_EEE16__destroy_vectorclB8ne200100Ev, symObjAddr: 0x4DE0, symBinAddr: 0x8D40, symSize: 0x70 }
  - { offset: 0x20F64, size: 0x8, addend: 0x0, symName: __ZNK8facebook5react18jsinspector_modern7tracing17PerformanceTracer19serializeTraceEventEONS2_10TraceEventE, symObjAddr: 0xD4C, symBinAddr: 0x4D5C, symSize: 0x34C }
  - { offset: 0x21637, size: 0x8, addend: 0x0, symName: __ZNSt3__16vectorIN5folly7dynamicENS_9allocatorIS2_EEE9push_backB8ne200100EOS2_, symObjAddr: 0x3FF0, symBinAddr: 0x7F64, symSize: 0x44 }
  - { offset: 0x21A04, size: 0x8, addend: 0x0, symName: __ZN8facebook5react18jsinspector_modern7tracing17PerformanceTracer10reportMarkERKNSt3__117basic_string_viewIcNS4_11char_traitsIcEEEENS0_16HighResTimeStampE, symObjAddr: 0x1098, symBinAddr: 0x50A8, symSize: 0x27C }
  - { offset: 0x22945, size: 0x8, addend: 0x0, symName: __ZNSt3__112basic_stringIcNS_11char_traitsIcEENS_9allocatorIcEEE20__throw_length_errorB8ne200100Ev, symObjAddr: 0x3568, symBinAddr: 0x7578, symSize: 0x14 }
  - { offset: 0x2295D, size: 0x8, addend: 0x0, symName: __ZNSt3__120__throw_length_errorB8ne200100EPKc, symObjAddr: 0x357C, symBinAddr: 0x758C, symSize: 0x50 }
  - { offset: 0x22B0A, size: 0x8, addend: 0x0, symName: __ZN8facebook5react18jsinspector_modern7tracing17PerformanceTracer13reportMeasureERKNSt3__117basic_string_viewIcNS4_11char_traitsIcEEEENS0_16HighResTimeStampENS0_15HighResDurationERKNS4_8optionalINS1_25DevToolsTrackEntryPayloadEEE, symObjAddr: 0x1314, symBinAddr: 0x5324, symSize: 0x8BC }
  - { offset: 0x260B9, size: 0x8, addend: 0x0, symName: __ZN8facebook5react18jsinspector_modern7tracing17PerformanceTracer15reportTimeStampENSt3__112basic_stringIcNS4_11char_traitsIcEENS4_9allocatorIcEEEENS4_8optionalINS4_7variantIJNS0_16HighResTimeStampESA_EEEEESF_NSB_ISA_EESG_NSB_INS2_21ConsoleTimeStampColorEEE, symObjAddr: 0x1BD0, symBinAddr: 0x5BE0, symSize: 0x818 }
  - { offset: 0x281DF, size: 0x8, addend: 0x0, symName: __ZN8facebook5react18jsinspector_modern7tracing17PerformanceTracer22reportJavaScriptThreadEv, symObjAddr: 0x23E8, symBinAddr: 0x63F8, symSize: 0x78 }
  - { offset: 0x284AE, size: 0x8, addend: 0x0, symName: __ZN8facebook5react18jsinspector_modern7tracing17PerformanceTracer12reportThreadEyRKNSt3__112basic_stringIcNS4_11char_traitsIcEENS4_9allocatorIcEEEE, symObjAddr: 0x2460, symBinAddr: 0x6470, symSize: 0x4A8 }
  - { offset: 0x2A1EC, size: 0x8, addend: 0x0, symName: __ZN8facebook5react18jsinspector_modern7tracing17PerformanceTracer19reportEventLoopTaskENS0_16HighResTimeStampES4_, symObjAddr: 0x2908, symBinAddr: 0x6918, symSize: 0x218 }
  - { offset: 0x2AF28, size: 0x8, addend: 0x0, symName: __ZN8facebook5react18jsinspector_modern7tracing17PerformanceTracer25reportEventLoopMicrotasksENS0_16HighResTimeStampES4_, symObjAddr: 0x2B20, symBinAddr: 0x6B30, symSize: 0x218 }
  - { offset: 0x2BE40, size: 0x8, addend: 0x0, symName: __ZN8facebook5react18jsinspector_modern7tracing17PerformanceTracer37getSerializedRuntimeProfileTraceEventEytNS0_16HighResTimeStampE, symObjAddr: 0x2D38, symBinAddr: 0x6D48, symSize: 0x378 }
  - { offset: 0x2D0CD, size: 0x8, addend: 0x0, symName: __ZN8facebook5react18jsinspector_modern7tracing17PerformanceTracer42getSerializedRuntimeProfileChunkTraceEventEtyNS0_16HighResTimeStampERKNS2_22TraceEventProfileChunkE, symObjAddr: 0x30B0, symBinAddr: 0x70C0, symSize: 0x270 }
  - { offset: 0x2DDE8, size: 0x8, addend: 0x0, symName: __ZNK8facebook5react18jsinspector_modern7tracing22TraceEventProfileChunk9toDynamicEv, symObjAddr: 0x3320, symBinAddr: 0x7330, symSize: 0x1A4 }
  - { offset: 0x2E53E, size: 0x8, addend: 0x0, symName: __ZNK8facebook5react18jsinspector_modern7tracing22TraceEventProfileChunk10CPUProfile9toDynamicEv, symObjAddr: 0x43C4, symBinAddr: 0x8324, symSize: 0x2D8 }
  - { offset: 0x2F32A, size: 0x8, addend: 0x0, symName: __ZNK8facebook5react18jsinspector_modern7tracing22TraceEventProfileChunk10TimeDeltas9toDynamicEv, symObjAddr: 0x4700, symBinAddr: 0x8660, symSize: 0x140 }
  - { offset: 0x2F6E3, size: 0x8, addend: 0x0, symName: __ZN5folly7dynamic11ObjectMakerclES0_S0_, symObjAddr: 0x469C, symBinAddr: 0x85FC, symSize: 0x64 }
  - { offset: 0x2F7D8, size: 0x8, addend: 0x0, symName: __ZNK8facebook5react18jsinspector_modern7tracing22TraceEventProfileChunk10TimeDeltas9toDynamicEv, symObjAddr: 0x4700, symBinAddr: 0x8660, symSize: 0x140 }
  - { offset: 0x2F7E3, size: 0x8, addend: 0x0, symName: __ZNSt3__112__hash_tableINS_17__hash_value_typeIN5folly7dynamicES3_EENS_22__unordered_map_hasherIS3_S4_NS2_6detail13DynamicHasherENS6_15DynamicKeyEqualELb1EEENS_21__unordered_map_equalIS3_S4_S8_S7_Lb1EEENS_9allocatorIS4_EEEC2EOSE_, symObjAddr: 0x3F80, symBinAddr: 0x7EF4, symSize: 0x70 }
  - { offset: 0x2F851, size: 0x8, addend: 0x0, symName: __ZNSt3__112__hash_tableINS_17__hash_value_typeIN5folly7dynamicES3_EENS_22__unordered_map_hasherIS3_S4_NS2_6detail13DynamicHasherENS6_15DynamicKeyEqualELb1EEENS_21__unordered_map_equalIS3_S4_S8_S7_Lb1EEENS_9allocatorIS4_EEEC2EOSE_, symObjAddr: 0x3F80, symBinAddr: 0x7EF4, symSize: 0x70 }
  - { offset: 0x2F958, size: 0x8, addend: 0x0, symName: __ZNSt12length_errorC1B8ne200100EPKc, symObjAddr: 0x35CC, symBinAddr: 0x75DC, symSize: 0x24 }
  - { offset: 0x2FB23, size: 0x8, addend: 0x0, symName: __ZNSt3__114__split_bufferIN8facebook5react18jsinspector_modern7tracing10TraceEventERNS_9allocatorIS5_EEED2Ev, symObjAddr: 0x3904, symBinAddr: 0x7914, symSize: 0x4C }
  - { offset: 0x2FC67, size: 0x8, addend: 0x0, symName: __ZNSt3__16vectorIN8facebook5react18jsinspector_modern7tracing10TraceEventENS_9allocatorIS5_EEE20__throw_length_errorB8ne200100Ev, symObjAddr: 0x37A8, symBinAddr: 0x77B8, symSize: 0x14 }
  - { offset: 0x2FC7F, size: 0x8, addend: 0x0, symName: __ZNSt3__119__allocate_at_leastB8ne200100INS_9allocatorIN8facebook5react18jsinspector_modern7tracing10TraceEventEEEEENS_19__allocation_resultINS_16allocator_traitsIT_E7pointerEEERSA_m, symObjAddr: 0x37BC, symBinAddr: 0x77CC, symSize: 0x48 }
  - { offset: 0x2FE24, size: 0x8, addend: 0x0, symName: __ZNSt3__112__hash_tableINS_17__hash_value_typeIN5folly7dynamicES3_EENS_22__unordered_map_hasherIS3_S4_NS2_6detail13DynamicHasherENS6_15DynamicKeyEqualELb1EEENS_21__unordered_map_equalIS3_S4_S8_S7_Lb1EEENS_9allocatorIS4_EEE25__emplace_unique_key_argsIS3_JRKNS_21piecewise_construct_tENS_5tupleIJOS3_EEENSJ_IJEEEEEENS_4pairINS_15__hash_iteratorIPNS_11__hash_nodeIS4_PvEEEEbEERKT_DpOT0_, symObjAddr: 0x3AAC, symBinAddr: 0x7A20, symSize: 0x25C }
  - { offset: 0x3065C, size: 0x8, addend: 0x0, symName: __ZN5folly9TypeErrorC1EOS0_, symObjAddr: 0x3A74, symBinAddr: 0x79E8, symSize: 0x24 }
  - { offset: 0x306B8, size: 0x8, addend: 0x0, symName: __ZN5folly9TypeErrorD1Ev, symObjAddr: 0x3A70, symBinAddr: 0x79E4, symSize: 0x4 }
  - { offset: 0x306DC, size: 0x8, addend: 0x0, symName: __ZN5folly9TypeErrorD1Ev, symObjAddr: 0x3A70, symBinAddr: 0x79E4, symSize: 0x4 }
  - { offset: 0x30718, size: 0x8, addend: 0x0, symName: __ZN5folly9TypeErrorD0Ev, symObjAddr: 0x3A98, symBinAddr: 0x7A0C, symSize: 0x14 }
  - { offset: 0x30D23, size: 0x8, addend: 0x0, symName: __ZNSt3__112__hash_tableINS_17__hash_value_typeIN5folly7dynamicES3_EENS_22__unordered_map_hasherIS3_S4_NS2_6detail13DynamicHasherENS6_15DynamicKeyEqualELb1EEENS_21__unordered_map_equalIS3_S4_S8_S7_Lb1EEENS_9allocatorIS4_EEE8__rehashILb1EEEvm, symObjAddr: 0x3D08, symBinAddr: 0x7C7C, symSize: 0xDC }
  - { offset: 0x30E26, size: 0x8, addend: 0x0, symName: __ZNSt3__122__hash_node_destructorINS_9allocatorINS_11__hash_nodeINS_17__hash_value_typeIN5folly7dynamicES5_EEPvEEEEEclB8ne200100EPS8_, symObjAddr: 0x3F34, symBinAddr: 0x7EA8, symSize: 0x4C }
  - { offset: 0x30FB9, size: 0x8, addend: 0x0, symName: __ZNSt3__112__hash_tableINS_17__hash_value_typeIN5folly7dynamicES3_EENS_22__unordered_map_hasherIS3_S4_NS2_6detail13DynamicHasherENS6_15DynamicKeyEqualELb1EEENS_21__unordered_map_equalIS3_S4_S8_S7_Lb1EEENS_9allocatorIS4_EEE11__do_rehashILb1EEEvm, symObjAddr: 0x3DE4, symBinAddr: 0x7D58, symSize: 0x150 }
  - { offset: 0x31404, size: 0x8, addend: 0x0, symName: __ZNSt3__122__hash_node_destructorINS_9allocatorINS_11__hash_nodeINS_17__hash_value_typeIN5folly7dynamicES5_EEPvEEEEEclB8ne200100EPS8_, symObjAddr: 0x3F34, symBinAddr: 0x7EA8, symSize: 0x4C }
  - { offset: 0x316AF, size: 0x8, addend: 0x0, symName: __ZNSt3__16vectorIN5folly7dynamicENS_9allocatorIS2_EEE24__emplace_back_slow_pathIJS2_EEEPS2_DpOT_, symObjAddr: 0x4034, symBinAddr: 0x7FA8, symSize: 0x128 }
  - { offset: 0x31B03, size: 0x8, addend: 0x0, symName: __ZNSt3__114__split_bufferIN5folly7dynamicERNS_9allocatorIS2_EEED2Ev, symObjAddr: 0x421C, symBinAddr: 0x817C, symSize: 0x4C }
  - { offset: 0x31C9F, size: 0x8, addend: 0x0, symName: __ZNSt3__119__allocate_at_leastB8ne200100INS_9allocatorIN5folly7dynamicEEEEENS_19__allocation_resultINS_16allocator_traitsIT_E7pointerEEERS7_m, symObjAddr: 0x4170, symBinAddr: 0x80D0, symSize: 0x44 }
  - { offset: 0x31EC9, size: 0x8, addend: 0x0, symName: __ZNSt18bad_variant_accessD1Ev, symObjAddr: 0x43C0, symBinAddr: 0x8320, symSize: 0x4 }
  - { offset: 0x31EF7, size: 0x8, addend: 0x0, symName: __ZNSt18bad_variant_accessD1Ev, symObjAddr: 0x43C0, symBinAddr: 0x8320, symSize: 0x4 }
  - { offset: 0x3203E, size: 0x8, addend: 0x0, symName: __ZNK8facebook5react18jsinspector_modern7tracing22TraceEventProfileChunk10CPUProfile4Node9toDynamicEv, symObjAddr: 0x4840, symBinAddr: 0x87A0, symSize: 0x174 }
  - { offset: 0x32484, size: 0x8, addend: 0x0, symName: __ZNSt3__16vectorIN5folly7dynamicENS_9allocatorIS2_EEE16__init_with_sizeB8ne200100INS_11__wrap_iterIPKjEESA_EEvT_T0_m, symObjAddr: 0x4D10, symBinAddr: 0x8C70, symSize: 0x88 }
  - { offset: 0x32811, size: 0x8, addend: 0x0, symName: __ZN5folly7dynamic11ObjectMakerclES0_S0_.cold.1, symObjAddr: 0x4E9C, symBinAddr: 0xB548, symSize: 0x1C }
  - { offset: 0x32975, size: 0x8, addend: 0x0, symName: __ZNK8facebook5react18jsinspector_modern7tracing22TraceEventProfileChunk10CPUProfile4Node9CallFrame9toDynamicEv, symObjAddr: 0x49B4, symBinAddr: 0x8914, symSize: 0x35C }
  - { offset: 0x33B3B, size: 0x8, addend: 0x0, symName: __ZNSt3__16vectorIN5folly7dynamicENS_9allocatorIS2_EEE11__vallocateB8ne200100Em, symObjAddr: 0x4D98, symBinAddr: 0x8CF8, symSize: 0x48 }
  - { offset: 0x33B95, size: 0x8, addend: 0x0, symName: __ZNSt3__16vectorIN5folly7dynamicENS_9allocatorIS2_EEE16__destroy_vectorclB8ne200100Ev, symObjAddr: 0x4DE0, symBinAddr: 0x8D40, symSize: 0x70 }
  - { offset: 0x33C59, size: 0x8, addend: 0x0, symName: __ZNSt3__117bad_function_callD1Ev, symObjAddr: 0x4E84, symBinAddr: 0x8DE4, symSize: 0x4 }
  - { offset: 0x33C7D, size: 0x8, addend: 0x0, symName: __ZNSt3__117bad_function_callD1Ev, symObjAddr: 0x4E84, symBinAddr: 0x8DE4, symSize: 0x4 }
  - { offset: 0x33CB2, size: 0x8, addend: 0x0, symName: __ZNSt3__117bad_function_callD0Ev, symObjAddr: 0x4E88, symBinAddr: 0x8DE8, symSize: 0x14 }
  - { offset: 0x45B7D, size: 0x8, addend: 0x0, symName: __ZNSt3__119__allocate_at_leastB8ne200100INS_9allocatorIjEEEENS_19__allocation_resultINS_16allocator_traitsIT_E7pointerEEERS5_m, symObjAddr: 0x11FC, symBinAddr: 0x9F70, symSize: 0x34 }
  - { offset: 0x45E0C, size: 0x8, addend: 0x0, symName: __ZNSt3__119__allocate_at_leastB8ne200100INS_9allocatorIN8facebook5react15HighResDurationEEEEENS_19__allocation_resultINS_16allocator_traitsIT_E7pointerEEERS8_m, symObjAddr: 0x126C, symBinAddr: 0x9FA4, symSize: 0x34 }
  - { offset: 0x4609F, size: 0x8, addend: 0x0, symName: __ZNSt3__119__allocate_at_leastB8ne200100INS_9allocatorIN8facebook5react18jsinspector_modern7tracing22TraceEventProfileChunk10CPUProfile4NodeEEEEENS_19__allocation_resultINS_16allocator_traitsIT_E7pointerEEERSC_m, symObjAddr: 0x12B4, symBinAddr: 0x9FD8, symSize: 0x44 }
  - { offset: 0x46150, size: 0x8, addend: 0x0, symName: __ZNSt3__134__uninitialized_allocator_relocateB8ne200100INS_9allocatorIN8facebook5react18jsinspector_modern7tracing22TraceEventProfileChunk10CPUProfile4NodeEEEPS8_EEvRT_T0_SD_SD_, symObjAddr: 0x12F8, symBinAddr: 0xA01C, symSize: 0x6C }
  - { offset: 0x46164, size: 0x8, addend: 0x0, symName: __ZNSt3__134__uninitialized_allocator_relocateB8ne200100INS_9allocatorIN8facebook5react18jsinspector_modern7tracing22TraceEventProfileChunk10CPUProfile4NodeEEEPS8_EEvRT_T0_SD_SD_, symObjAddr: 0x12F8, symBinAddr: 0xA01C, symSize: 0x6C }
  - { offset: 0x461C3, size: 0x8, addend: 0x0, symName: __ZNSt3__134__uninitialized_allocator_relocateB8ne200100INS_9allocatorIN8facebook5react18jsinspector_modern7tracing22TraceEventProfileChunk10CPUProfile4NodeEEEPS8_EEvRT_T0_SD_SD_, symObjAddr: 0x12F8, symBinAddr: 0xA01C, symSize: 0x6C }
  - { offset: 0x46319, size: 0x8, addend: 0x0, symName: __ZNSt3__112construct_atB8ne200100IN8facebook5react18jsinspector_modern7tracing22TraceEventProfileChunk10CPUProfile4NodeEJS7_EPS7_EEPT_SA_DpOT0_, symObjAddr: 0x1364, symBinAddr: 0xA088, symSize: 0x94 }
  - { offset: 0x46355, size: 0x8, addend: 0x0, symName: __ZNSt3__112construct_atB8ne200100IN8facebook5react18jsinspector_modern7tracing22TraceEventProfileChunk10CPUProfile4NodeEJS7_EPS7_EEPT_SA_DpOT0_, symObjAddr: 0x1364, symBinAddr: 0xA088, symSize: 0x94 }
  - { offset: 0x4637A, size: 0x8, addend: 0x0, symName: __ZNSt3__112construct_atB8ne200100IN8facebook5react18jsinspector_modern7tracing22TraceEventProfileChunk10CPUProfile4NodeEJS7_EPS7_EEPT_SA_DpOT0_, symObjAddr: 0x1364, symBinAddr: 0xA088, symSize: 0x94 }
  - { offset: 0x469B2, size: 0x8, addend: 0x0, symName: __ZNSt3__112__destroy_atB8ne200100IN8facebook5react18jsinspector_modern7tracing22TraceEventProfileChunk10CPUProfile4NodeELi0EEEvPT_, symObjAddr: 0x13F8, symBinAddr: 0xA11C, symSize: 0x60 }
  - { offset: 0x47543, size: 0x8, addend: 0x0, symName: __ZNSt3__135__uninitialized_allocator_copy_implB8ne200100INS_9allocatorIN8facebook5react18jsinspector_modern7tracing22TraceEventProfileChunk10CPUProfile4NodeEEEPS8_SA_SA_EET2_RT_T0_T1_SB_, symObjAddr: 0x1C24, symBinAddr: 0xA4C0, symSize: 0x84 }
  - { offset: 0x477C5, size: 0x8, addend: 0x0, symName: __ZNSt3__112construct_atB8ne200100IN8facebook5react18jsinspector_modern7tracing22TraceEventProfileChunk10CPUProfile4NodeEJRS7_EPS7_EEPT_SB_DpOT0_, symObjAddr: 0x1CA8, symBinAddr: 0xA544, symSize: 0xE8 }
  - { offset: 0x4843C, size: 0x8, addend: 0x0, symName: __ZNSt3__119__allocate_at_leastB8ne200100INS_9allocatorIN8facebook5react18jsinspector_modern7tracing15ProfileTreeNodeEEEEENS_19__allocation_resultINS_16allocator_traitsIT_E7pointerEEERSA_m, symObjAddr: 0x24AC, symBinAddr: 0xAD34, symSize: 0x48 }
  - { offset: 0x484ED, size: 0x8, addend: 0x0, symName: __ZNSt3__135__uninitialized_allocator_copy_implB8ne200100INS_9allocatorIN8facebook5react18jsinspector_modern7tracing15ProfileTreeNodeEEEPS6_S8_S8_EET2_RT_T0_T1_S9_, symObjAddr: 0x24F4, symBinAddr: 0xAD7C, symSize: 0xF4 }
  - { offset: 0x48501, size: 0x8, addend: 0x0, symName: __ZNSt3__134__uninitialized_allocator_relocateB8ne200100INS_9allocatorIN8facebook5react18jsinspector_modern7tracing15ProfileTreeNodeEEEPS6_EEvRT_T0_SB_SB_, symObjAddr: 0x2670, symBinAddr: 0xAEF8, symSize: 0xE8 }
  - { offset: 0x489BF, size: 0x8, addend: 0x0, symName: __ZNSt3__135__uninitialized_allocator_copy_implB8ne200100INS_9allocatorIN8facebook5react18jsinspector_modern7tracing15ProfileTreeNodeEEEPS6_S8_S8_EET2_RT_T0_T1_S9_, symObjAddr: 0x24F4, symBinAddr: 0xAD7C, symSize: 0xF4 }
  - { offset: 0x48FE1, size: 0x8, addend: 0x0, symName: __ZNSt3__1eqB8ne200100INS_17basic_string_viewIcNS_11char_traitsIcEEEES4_EENS_9enable_ifIX16is_convertible_vIDTeqclsr3stdE7declvalIRKT_EEclsr3stdE7declvalIRKT0_EEEbEEbE4typeERKNS_8optionalIS6_EERKNSF_IS9_EE, symObjAddr: 0x2BA0, symBinAddr: 0xB34C, symSize: 0x58 }
  - { offset: 0x49026, size: 0x8, addend: 0x0, symName: __ZNSt3__1eqB8ne200100INS_17basic_string_viewIcNS_11char_traitsIcEEEES4_EENS_9enable_ifIX16is_convertible_vIDTeqclsr3stdE7declvalIRKT_EEclsr3stdE7declvalIRKT0_EEEbEEbE4typeERKNS_8optionalIS6_EERKNSF_IS9_EE, symObjAddr: 0x2BA0, symBinAddr: 0xB34C, symSize: 0x58 }
  - { offset: 0x49044, size: 0x8, addend: 0x0, symName: __ZNSt3__1eqB8ne200100INS_17basic_string_viewIcNS_11char_traitsIcEEEES4_EENS_9enable_ifIX16is_convertible_vIDTeqclsr3stdE7declvalIRKT_EEclsr3stdE7declvalIRKT0_EEEbEEbE4typeERKNS_8optionalIS6_EERKNSF_IS9_EE, symObjAddr: 0x2BA0, symBinAddr: 0xB34C, symSize: 0x58 }
  - { offset: 0x492AC, size: 0x8, addend: 0x0, symName: __ZNSt3__135__uninitialized_allocator_copy_implB8ne200100INS_9allocatorIN5folly7dynamicEEEPKS3_S6_PS3_EET2_RT_T0_T1_S8_, symObjAddr: 0x2D34, symBinAddr: 0xB428, symSize: 0x84 }
  - { offset: 0x4D463, size: 0x8, addend: 0x0, symName: __ZNK8facebook5react18jsinspector_modern7tracing42RuntimeSamplingProfileTraceEventSerializer21sendProfileTraceEventEytNS0_16HighResTimeStampE, symObjAddr: 0x0, symBinAddr: 0x8DFC, symSize: 0x130 }
  - { offset: 0x4D894, size: 0x8, addend: 0x0, symName: __ZNSt3__16vectorIN5folly7dynamicENS_9allocatorIS2_EEE16__init_with_sizeB8ne200100IPKS2_S8_EEvT_T0_m, symObjAddr: 0x2C68, symBinAddr: 0xB3A4, symSize: 0x84 }
  - { offset: 0x4DC01, size: 0x8, addend: 0x0, symName: __ZN8facebook5react18jsinspector_modern7tracing42RuntimeSamplingProfileTraceEventSerializer16chunkEmptySampleERNS3_12ProfileChunkEjNS0_15HighResDurationE, symObjAddr: 0x130, symBinAddr: 0x8F2C, symSize: 0x44 }
  - { offset: 0x4DC74, size: 0x8, addend: 0x0, symName: __ZNSt3__16vectorIjNS_9allocatorIjEEE9push_backB8ne200100ERKj, symObjAddr: 0x174, symBinAddr: 0x8F70, symSize: 0xDC }
  - { offset: 0x4E067, size: 0x8, addend: 0x0, symName: __ZNSt3__16vectorIN8facebook5react15HighResDurationENS_9allocatorIS3_EEE9push_backB8ne200100ERKS3_, symObjAddr: 0x250, symBinAddr: 0x904C, symSize: 0xDC }
  - { offset: 0x4E072, size: 0x8, addend: 0x0, symName: __ZNSt3__16vectorIN8facebook5react15HighResDurationENS_9allocatorIS3_EEE9push_backB8ne200100ERKS3_, symObjAddr: 0x250, symBinAddr: 0x904C, symSize: 0xDC }
  - { offset: 0x4E465, size: 0x8, addend: 0x0, symName: __ZN8facebook5react18jsinspector_modern7tracing42RuntimeSamplingProfileTraceEventSerializer28bufferProfileChunkTraceEventERNS3_12ProfileChunkEt, symObjAddr: 0x32C, symBinAddr: 0x9128, symSize: 0x5B0 }
  - { offset: 0x4E756, size: 0x8, addend: 0x0, symName: ___clang_call_terminate, symObjAddr: 0x1178, symBinAddr: 0x9F60, symSize: 0x10 }
  - { offset: 0x4EA42, size: 0x8, addend: 0x0, symName: __ZNSt3__119__allocate_at_leastB8ne200100INS_9allocatorIN8facebook5react15HighResDurationEEEEENS_19__allocation_resultINS_16allocator_traitsIT_E7pointerEEERS8_m, symObjAddr: 0x126C, symBinAddr: 0x9FA4, symSize: 0x34 }
  - { offset: 0x4FB1A, size: 0x8, addend: 0x0, symName: __ZN8facebook5react18jsinspector_modern7tracing42RuntimeSamplingProfileTraceEventSerializer28bufferProfileChunkTraceEventERNS3_12ProfileChunkEt, symObjAddr: 0x32C, symBinAddr: 0x9128, symSize: 0x5B0 }
  - { offset: 0x5227A, size: 0x8, addend: 0x0, symName: __ZNSt3__16vectorIN8facebook5react18jsinspector_modern7tracing22TraceEventProfileChunk10CPUProfile4NodeENS_9allocatorIS7_EEE7reserveEm, symObjAddr: 0x8DC, symBinAddr: 0x96D8, symSize: 0xD8 }
  - { offset: 0x52774, size: 0x8, addend: 0x0, symName: __ZNSt3__120__optional_copy_baseINS_12basic_stringIcNS_11char_traitsIcEENS_9allocatorIcEEEELb0EEC2B8ne200100ERKS7_, symObjAddr: 0x1760, symBinAddr: 0xA34C, symSize: 0x4C }
  - { offset: 0x5277F, size: 0x8, addend: 0x0, symName: __ZNSt3__120__optional_copy_baseINS_12basic_stringIcNS_11char_traitsIcEENS_9allocatorIcEEEELb0EEC2B8ne200100ERKS7_, symObjAddr: 0x1760, symBinAddr: 0xA34C, symSize: 0x4C }
  - { offset: 0x528B0, size: 0x8, addend: 0x0, symName: __ZNSt3__16vectorIN8facebook5react18jsinspector_modern7tracing22TraceEventProfileChunk10CPUProfile4NodeENS_9allocatorIS7_EEE9push_backB8ne200100EOS7_, symObjAddr: 0x9B4, symBinAddr: 0x97B0, symSize: 0x44 }
  - { offset: 0x529D0, size: 0x8, addend: 0x0, symName: __ZNSt3__16vectorIN8facebook5react18jsinspector_modern7tracing22TraceEventProfileChunk10CPUProfile4NodeENS_9allocatorIS7_EEE16__init_with_sizeB8ne200100IPS7_SC_EEvT_T0_m, symObjAddr: 0x1B58, symBinAddr: 0xA3F4, symSize: 0x84 }
  - { offset: 0x52C53, size: 0x8, addend: 0x0, symName: __ZNSt3__16vectorIjNS_9allocatorIjEEE16__init_with_sizeB8ne200100IPjS5_EEvT_T0_m, symObjAddr: 0x1E00, symBinAddr: 0xA69C, symSize: 0x78 }
  - { offset: 0x5304B, size: 0x8, addend: 0x0, symName: __ZNSt3__16vectorIN8facebook5react15HighResDurationENS_9allocatorIS3_EEE16__init_with_sizeB8ne200100IPS3_S8_EEvT_T0_m, symObjAddr: 0x1EB0, symBinAddr: 0xA74C, symSize: 0x78 }
  - { offset: 0x534FC, size: 0x8, addend: 0x0, symName: __ZNSt3__16vectorIN8facebook5react18jsinspector_modern7tracing22TraceEventProfileChunk10CPUProfile4NodeENS_9allocatorIS7_EEE16__destroy_vectorclB8ne200100Ev, symObjAddr: 0x1D90, symBinAddr: 0xA62C, symSize: 0x70 }
  - { offset: 0x53663, size: 0x8, addend: 0x0, symName: __ZN8facebook5react18jsinspector_modern7tracing22TraceEventProfileChunk10CPUProfileD1Ev, symObjAddr: 0xA54, symBinAddr: 0x9850, symSize: 0x44 }
  - { offset: 0x5387D, size: 0x8, addend: 0x0, symName: __ZN8facebook5react18jsinspector_modern7tracing22TraceEventProfileChunkD1Ev, symObjAddr: 0xA98, symBinAddr: 0x9894, symSize: 0x54 }
  - { offset: 0x53C48, size: 0x8, addend: 0x0, symName: __ZN8facebook5react18jsinspector_modern7tracing22TraceEventProfileChunk10CPUProfile4Node9CallFrameD1Ev, symObjAddr: 0x15CC, symBinAddr: 0xA2F0, symSize: 0x5C }
  - { offset: 0x540CD, size: 0x8, addend: 0x0, symName: __ZN8facebook5react18jsinspector_modern7tracing22TraceEventProfileChunk10CPUProfile4NodeD1Ev, symObjAddr: 0x9F8, symBinAddr: 0x97F4, symSize: 0x5C }
  - { offset: 0x54696, size: 0x8, addend: 0x0, symName: __ZNSt3__114__split_bufferIN8facebook5react18jsinspector_modern7tracing22TraceEventProfileChunk10CPUProfile4NodeERNS_9allocatorIS7_EEED2Ev, symObjAddr: 0x1458, symBinAddr: 0xA17C, symSize: 0x4C }
  - { offset: 0x547E4, size: 0x8, addend: 0x0, symName: __ZNSt3__119__allocate_at_leastB8ne200100INS_9allocatorIN8facebook5react18jsinspector_modern7tracing22TraceEventProfileChunk10CPUProfile4NodeEEEEENS_19__allocation_resultINS_16allocator_traitsIT_E7pointerEEERSC_m, symObjAddr: 0x12B4, symBinAddr: 0x9FD8, symSize: 0x44 }
  - { offset: 0x548C5, size: 0x8, addend: 0x0, symName: __ZNSt3__16vectorIN8facebook5react18jsinspector_modern7tracing22TraceEventProfileChunk10CPUProfile4NodeENS_9allocatorIS7_EEE24__emplace_back_slow_pathIJS7_EEEPS7_DpOT_, symObjAddr: 0x14A4, symBinAddr: 0xA1C8, symSize: 0x128 }
  - { offset: 0x54BD7, size: 0x8, addend: 0x0, symName: __ZN8facebook5react18jsinspector_modern7tracing42RuntimeSamplingProfileTraceEventSerializer31sendBufferedTraceEventsAndClearEv, symObjAddr: 0xAEC, symBinAddr: 0x98E8, symSize: 0xA8 }
  - { offset: 0x55436, size: 0x8, addend: 0x0, symName: __ZN8facebook5react18jsinspector_modern7tracing42RuntimeSamplingProfileTraceEventSerializer18serializeAndNotifyERKNS2_22RuntimeSamplingProfileENS0_16HighResTimeStampE, symObjAddr: 0xB94, symBinAddr: 0x9990, symSize: 0x4BC }
  - { offset: 0x56807, size: 0x8, addend: 0x0, symName: __ZN8facebook5react18jsinspector_modern7tracing42RuntimeSamplingProfileTraceEventSerializer12ProfileChunkC2EtyNS0_16HighResTimeStampE, symObjAddr: 0x1F60, symBinAddr: 0xA7FC, symSize: 0xA0 }
  - { offset: 0x56B60, size: 0x8, addend: 0x0, symName: __ZNSt3__16vectorIN8facebook5react18jsinspector_modern7tracing15ProfileTreeNodeENS_9allocatorIS5_EEE9push_backB8ne200100ERKS5_, symObjAddr: 0x1050, symBinAddr: 0x9E4C, symSize: 0x3C }
  - { offset: 0x56BE7, size: 0x8, addend: 0x0, symName: __ZN8facebook5react18jsinspector_modern7tracing15ProfileTreeNode8addChildEjNS3_8CodeTypeENS2_22RuntimeSamplingProfile20SampleCallStackFrameE, symObjAddr: 0x108C, symBinAddr: 0x9E88, symSize: 0x84 }
  - { offset: 0x56E5E, size: 0x8, addend: 0x0, symName: __ZNSt3__16vectorIN8facebook5react18jsinspector_modern7tracing15ProfileTreeNodeENS_9allocatorIS5_EEE13__vdeallocateEv, symObjAddr: 0x2960, symBinAddr: 0xB1E8, symSize: 0x78 }
  - { offset: 0x5708E, size: 0x8, addend: 0x0, symName: __ZNSt3__16vectorIN8facebook5react18jsinspector_modern7tracing15ProfileTreeNodeENS_9allocatorIS5_EEE16__destroy_vectorclB8ne200100Ev, symObjAddr: 0x2118, symBinAddr: 0xA9B4, symSize: 0x88 }
  - { offset: 0x572AC, size: 0x8, addend: 0x0, symName: __ZN8facebook5react18jsinspector_modern7tracing15ProfileTreeNode18getIfAlreadyExistsENS3_8CodeTypeERKNS2_22RuntimeSamplingProfile20SampleCallStackFrameE, symObjAddr: 0x29D8, symBinAddr: 0xB260, symSize: 0xEC }
  - { offset: 0x57798, size: 0x8, addend: 0x0, symName: __ZNSt3__1eqB8ne200100INS_17basic_string_viewIcNS_11char_traitsIcEEEES4_EENS_9enable_ifIX16is_convertible_vIDTeqclsr3stdE7declvalIRKT_EEclsr3stdE7declvalIRKT0_EEEbEEbE4typeERKNS_8optionalIS6_EERKNSF_IS9_EE, symObjAddr: 0x2BA0, symBinAddr: 0xB34C, symSize: 0x58 }
  - { offset: 0x577A3, size: 0x8, addend: 0x0, symName: __ZN8facebook5react18jsinspector_modern7tracing42RuntimeSamplingProfileTraceEventSerializer12ProfileChunkD1Ev, symObjAddr: 0x1110, symBinAddr: 0x9F0C, symSize: 0x54 }
  - { offset: 0x57B2C, size: 0x8, addend: 0x0, symName: __ZNSt3__16vectorIN8facebook5react18jsinspector_modern7tracing15ProfileTreeNodeENS_9allocatorIS5_EEE22__construct_one_at_endB8ne200100IJRKS5_EEEvDpOT_, symObjAddr: 0x21A0, symBinAddr: 0xAA3C, symSize: 0xA0 }
  - { offset: 0x57D72, size: 0x8, addend: 0x0, symName: __ZNSt3__16vectorIN8facebook5react18jsinspector_modern7tracing15ProfileTreeNodeENS_9allocatorIS5_EEE24__emplace_back_slow_pathIJRKS5_EEEPS5_DpOT_, symObjAddr: 0x2240, symBinAddr: 0xAADC, symSize: 0x188 }
  - { offset: 0x5833E, size: 0x8, addend: 0x0, symName: __ZNSt3__16vectorIN8facebook5react18jsinspector_modern7tracing15ProfileTreeNodeENS_9allocatorIS5_EEE24__emplace_back_slow_pathIJRjRNS5_8CodeTypeENS4_22RuntimeSamplingProfile20SampleCallStackFrameESA_EEEPS5_DpOT_, symObjAddr: 0x27DC, symBinAddr: 0xB064, symSize: 0x184 }
  - { offset: 0x58B56, size: 0x8, addend: 0x0, symName: __ZNSt3__123__optional_storage_baseINS_12basic_stringIcNS_11char_traitsIcEENS_9allocatorIcEEEELb0EE16__construct_fromB8ne200100IRKNS_20__optional_copy_baseIS6_Lb0EEEEEvOT_, symObjAddr: 0x17AC, symBinAddr: 0xA398, symSize: 0x5C }
  - { offset: 0x58B91, size: 0x8, addend: 0x0, symName: __ZNSt3__123__optional_storage_baseINS_12basic_stringIcNS_11char_traitsIcEENS_9allocatorIcEEEELb0EE16__construct_fromB8ne200100IRKNS_20__optional_copy_baseIS6_Lb0EEEEEvOT_, symObjAddr: 0x17AC, symBinAddr: 0xA398, symSize: 0x5C }
  - { offset: 0x58CD5, size: 0x8, addend: 0x0, symName: __ZNSt3__120__optional_copy_baseINS_12basic_stringIcNS_11char_traitsIcEENS_9allocatorIcEEEELb0EEC2B8ne200100ERKS7_.cold.1, symObjAddr: 0x2E04, symBinAddr: 0xB564, symSize: 0x14 }
  - { offset: 0x58CF1, size: 0x8, addend: 0x0, symName: __ZNSt3__120__optional_copy_baseINS_12basic_stringIcNS_11char_traitsIcEENS_9allocatorIcEEEELb0EEC2B8ne200100ERKS7_.cold.1, symObjAddr: 0x2E04, symBinAddr: 0xB564, symSize: 0x14 }
  - { offset: 0x58D07, size: 0x8, addend: 0x0, symName: __ZNSt3__120__optional_copy_baseINS_12basic_stringIcNS_11char_traitsIcEENS_9allocatorIcEEEELb0EEC2B8ne200100ERKS7_.cold.1, symObjAddr: 0x2E04, symBinAddr: 0xB564, symSize: 0x14 }
  - { offset: 0x58D1D, size: 0x8, addend: 0x0, symName: __ZNSt3__120__optional_copy_baseINS_12basic_stringIcNS_11char_traitsIcEENS_9allocatorIcEEEELb0EEC2B8ne200100ERKS7_.cold.1, symObjAddr: 0x2E04, symBinAddr: 0xB564, symSize: 0x14 }
  - { offset: 0x58D33, size: 0x8, addend: 0x0, symName: __ZNSt3__120__optional_copy_baseINS_12basic_stringIcNS_11char_traitsIcEENS_9allocatorIcEEEELb0EEC2B8ne200100ERKS7_.cold.1, symObjAddr: 0x2E04, symBinAddr: 0xB564, symSize: 0x14 }
  - { offset: 0x58D49, size: 0x8, addend: 0x0, symName: __ZNSt3__120__optional_copy_baseINS_12basic_stringIcNS_11char_traitsIcEENS_9allocatorIcEEEELb0EEC2B8ne200100ERKS7_.cold.1, symObjAddr: 0x2E04, symBinAddr: 0xB564, symSize: 0x14 }
  - { offset: 0x59657, size: 0x8, addend: 0x0, symName: __ZNSt3__16vectorIN8facebook5react18jsinspector_modern7tracing22TraceEventProfileChunk10CPUProfile4NodeENS_9allocatorIS7_EEE11__vallocateB8ne200100Em, symObjAddr: 0x1BDC, symBinAddr: 0xA478, symSize: 0x48 }
  - { offset: 0x596B1, size: 0x8, addend: 0x0, symName: __ZNSt3__135__uninitialized_allocator_copy_implB8ne200100INS_9allocatorIN8facebook5react18jsinspector_modern7tracing22TraceEventProfileChunk10CPUProfile4NodeEEEPS8_SA_SA_EET2_RT_T0_T1_SB_, symObjAddr: 0x1C24, symBinAddr: 0xA4C0, symSize: 0x84 }
  - { offset: 0x59993, size: 0x8, addend: 0x0, symName: __ZNSt3__16vectorIjNS_9allocatorIjEEE11__vallocateB8ne200100Em, symObjAddr: 0x1E78, symBinAddr: 0xA714, symSize: 0x38 }
  - { offset: 0x599ED, size: 0x8, addend: 0x0, symName: __ZNSt3__16vectorIN8facebook5react15HighResDurationENS_9allocatorIS3_EEE16__init_with_sizeB8ne200100IPS3_S8_EEvT_T0_m, symObjAddr: 0x1EB0, symBinAddr: 0xA74C, symSize: 0x78 }
  - { offset: 0x59B8F, size: 0x8, addend: 0x0, symName: __ZNSt3__16vectorIN8facebook5react15HighResDurationENS_9allocatorIS3_EEE11__vallocateB8ne200100Em, symObjAddr: 0x1F28, symBinAddr: 0xA7C4, symSize: 0x38 }
  - { offset: 0x59BE9, size: 0x8, addend: 0x0, symName: __ZN8facebook5react18jsinspector_modern7tracing42RuntimeSamplingProfileTraceEventSerializer12ProfileChunkC2EtyNS0_16HighResTimeStampE, symObjAddr: 0x1F60, symBinAddr: 0xA7FC, symSize: 0xA0 }
  - { offset: 0x59C28, size: 0x8, addend: 0x0, symName: __ZNSt3__16vectorIjNS_9allocatorIjEEE7reserveEm, symObjAddr: 0x2000, symBinAddr: 0xA89C, symSize: 0x8C }
  - { offset: 0x59E7E, size: 0x8, addend: 0x0, symName: __ZNSt3__16vectorIN8facebook5react15HighResDurationENS_9allocatorIS3_EEE7reserveEm, symObjAddr: 0x208C, symBinAddr: 0xA928, symSize: 0x8C }
  - { offset: 0x59E89, size: 0x8, addend: 0x0, symName: __ZNSt3__16vectorIN8facebook5react15HighResDurationENS_9allocatorIS3_EEE7reserveEm, symObjAddr: 0x208C, symBinAddr: 0xA928, symSize: 0x8C }
  - { offset: 0x5A0DF, size: 0x8, addend: 0x0, symName: __ZNSt3__16vectorIN8facebook5react18jsinspector_modern7tracing15ProfileTreeNodeENS_9allocatorIS5_EEE16__destroy_vectorclB8ne200100Ev, symObjAddr: 0x2118, symBinAddr: 0xA9B4, symSize: 0x88 }
  - { offset: 0x5A356, size: 0x8, addend: 0x0, symName: __ZNSt3__16vectorIN8facebook5react18jsinspector_modern7tracing15ProfileTreeNodeENS_9allocatorIS5_EEE16__init_with_sizeB8ne200100IPS5_SA_EEvT_T0_m, symObjAddr: 0x23C8, symBinAddr: 0xAC64, symSize: 0x84 }
  - { offset: 0x5A6F3, size: 0x8, addend: 0x0, symName: __ZNSt3__114__split_bufferIN8facebook5react18jsinspector_modern7tracing15ProfileTreeNodeERNS_9allocatorIS5_EEED2Ev, symObjAddr: 0x2758, symBinAddr: 0xAFE0, symSize: 0x30 }
  - { offset: 0x5A7C0, size: 0x8, addend: 0x0, symName: __ZNSt3__119__allocate_at_leastB8ne200100INS_9allocatorIN8facebook5react18jsinspector_modern7tracing15ProfileTreeNodeEEEEENS_19__allocation_resultINS_16allocator_traitsIT_E7pointerEEERSA_m, symObjAddr: 0x24AC, symBinAddr: 0xAD34, symSize: 0x48 }
  - { offset: 0x5A8C0, size: 0x8, addend: 0x0, symName: __ZNSt3__16vectorIN8facebook5react18jsinspector_modern7tracing15ProfileTreeNodeENS_9allocatorIS5_EEE11__vallocateB8ne200100Em, symObjAddr: 0x244C, symBinAddr: 0xACE8, symSize: 0x4C }
  - { offset: 0x5AA09, size: 0x8, addend: 0x0, symName: __ZNSt3__128__exception_guard_exceptionsINS_29_AllocatorDestroyRangeReverseINS_9allocatorIN8facebook5react18jsinspector_modern7tracing15ProfileTreeNodeEEEPS7_EEED2B8ne200100Ev, symObjAddr: 0x25E8, symBinAddr: 0xAE70, symSize: 0x34 }
  - { offset: 0x5AA4A, size: 0x8, addend: 0x0, symName: __ZNKSt3__129_AllocatorDestroyRangeReverseINS_9allocatorIN8facebook5react18jsinspector_modern7tracing15ProfileTreeNodeEEEPS6_EclB8ne200100Ev, symObjAddr: 0x261C, symBinAddr: 0xAEA4, symSize: 0x54 }
  - { offset: 0x5AD28, size: 0x8, addend: 0x0, symName: __ZNSt3__114__split_bufferIN8facebook5react18jsinspector_modern7tracing15ProfileTreeNodeERNS_9allocatorIS5_EEE5clearB8ne200100Ev, symObjAddr: 0x2788, symBinAddr: 0xB010, symSize: 0x54 }
  - { offset: 0x5B2D4, size: 0x8, addend: 0x0, symName: __ZNSt3__135__uninitialized_allocator_copy_implB8ne200100INS_9allocatorIN5folly7dynamicEEEPKS3_S6_PS3_EET2_RT_T0_T1_S8_, symObjAddr: 0x2D34, symBinAddr: 0xB428, symSize: 0x84 }
...
