---
triple:          'arm64-apple-darwin'
binary-path:     '/Users/uk-aplatts/Development/InjuryIQ/ios/DerivedData/Build/Intermediates.noindex/ArchiveIntermediates/InjuryIQ/IntermediateBuildFilesPath/UninstalledProducts/iphoneos/React_RCTFBReactNativeSpec.framework/React_RCTFBReactNativeSpec'
relocations:
  - { offset: 0x33, size: 0x8, addend: 0x0, symName: _React_RCTFBReactNativeSpecVersionString, symObjAddr: 0x0, symBinAddr: 0x50990, symSize: 0x0 }
  - { offset: 0x67, size: 0x8, addend: 0x0, symName: _React_RCTFBReactNativeSpecVersionNumber, symObjAddr: 0x38, symBinAddr: 0x509C8, symSize: 0x0 }
  - { offset: 0x7CC7, size: 0x8, addend: 0x0, symName: __ZN8facebook5react57FBReactNativeSpec_registerComponentDescriptorsFromCodegenENSt3__110shared_ptrIKNS0_35ComponentDescriptorProviderRegistryEEE, symObjAddr: 0x0, symBinAddr: 0x4000, symSize: 0x2A4 }
  - { offset: 0x8485, size: 0x8, addend: 0x0, symName: __ZN8facebook5react38concreteComponentDescriptorConstructorINS0_27ConcreteComponentDescriptorINS0_22ConcreteViewShadowNodeIXadL_ZNS0_34ActivityIndicatorViewComponentNameEEENS0_26ActivityIndicatorViewPropsENS0_33ActivityIndicatorViewEventEmitterENS0_9StateDataEEEEEEENSt3__110unique_ptrIKNS0_19ComponentDescriptorENS9_14default_deleteISC_EEEERKNS0_29ComponentDescriptorParametersE, symObjAddr: 0x2FC, symBinAddr: 0x42FC, symSize: 0x34 }
  - { offset: 0x85A3, size: 0x8, addend: 0x0, symName: __ZN8facebook5react38concreteComponentDescriptorConstructorINS0_27ConcreteComponentDescriptorINS0_22ConcreteViewShadowNodeIXadL_ZNS0_32AndroidDrawerLayoutComponentNameEEENS0_24AndroidDrawerLayoutPropsENS0_31AndroidDrawerLayoutEventEmitterENS0_9StateDataEEEEEEENSt3__110unique_ptrIKNS0_19ComponentDescriptorENS9_14default_deleteISC_EEEERKNS0_29ComponentDescriptorParametersE, symObjAddr: 0x31C4, symBinAddr: 0x6AF0, symSize: 0x34 }
  - { offset: 0x865C, size: 0x8, addend: 0x0, symName: __ZN8facebook5react38concreteComponentDescriptorConstructorINS0_27ConcreteComponentDescriptorINS0_22ConcreteViewShadowNodeIXadL_ZNS0_38AndroidSwipeRefreshLayoutComponentNameEEENS0_30AndroidSwipeRefreshLayoutPropsENS0_37AndroidSwipeRefreshLayoutEventEmitterENS0_9StateDataEEEEEEENSt3__110unique_ptrIKNS0_19ComponentDescriptorENS9_14default_deleteISC_EEEERKNS0_29ComponentDescriptorParametersE, symObjAddr: 0x4820, symBinAddr: 0x7F80, symSize: 0x34 }
  - { offset: 0x8715, size: 0x8, addend: 0x0, symName: __ZN8facebook5react38concreteComponentDescriptorConstructorINS0_27ConcreteComponentDescriptorINS0_22ConcreteViewShadowNodeIXadL_ZNS0_29DebuggingOverlayComponentNameEEENS0_21DebuggingOverlayPropsENS0_28DebuggingOverlayEventEmitterENS0_9StateDataEEEEEEENSt3__110unique_ptrIKNS0_19ComponentDescriptorENS9_14default_deleteISC_EEEERKNS0_29ComponentDescriptorParametersE, symObjAddr: 0x5EDC, symBinAddr: 0x9470, symSize: 0x34 }
  - { offset: 0x87CE, size: 0x8, addend: 0x0, symName: __ZN8facebook5react38concreteComponentDescriptorConstructorINS0_27ConcreteComponentDescriptorINS0_22ConcreteViewShadowNodeIXadL_ZNS0_30PullToRefreshViewComponentNameEEENS0_22PullToRefreshViewPropsENS0_29PullToRefreshViewEventEmitterENS0_9StateDataEEEEEEENSt3__110unique_ptrIKNS0_19ComponentDescriptorENS9_14default_deleteISC_EEEERKNS0_29ComponentDescriptorParametersE, symObjAddr: 0x73A4, symBinAddr: 0xA76C, symSize: 0x34 }
  - { offset: 0x8887, size: 0x8, addend: 0x0, symName: __ZN8facebook5react38concreteComponentDescriptorConstructorINS0_27ConcreteComponentDescriptorINS0_22ConcreteViewShadowNodeIXadL_ZNS0_36UnimplementedNativeViewComponentNameEEENS0_28UnimplementedNativeViewPropsENS0_35UnimplementedNativeViewEventEmitterENS0_9StateDataEEEEEEENSt3__110unique_ptrIKNS0_19ComponentDescriptorENS9_14default_deleteISC_EEEERKNS0_29ComponentDescriptorParametersE, symObjAddr: 0x8A40, symBinAddr: 0xBC3C, symSize: 0x34 }
  - { offset: 0x4861F, size: 0x8, addend: 0x0, symName: __ZNSt3__111make_uniqueB8ne200100IKN8facebook5react27ConcreteComponentDescriptorINS2_22ConcreteViewShadowNodeIXadL_ZNS2_34ActivityIndicatorViewComponentNameEEENS2_26ActivityIndicatorViewPropsENS2_33ActivityIndicatorViewEventEmitterENS2_9StateDataEEEEEJRKNS2_29ComponentDescriptorParametersEELi0EEENS_10unique_ptrIT_NS_14default_deleteISF_EEEEDpOT0_, symObjAddr: 0x330, symBinAddr: 0x4330, symSize: 0xD4 }
  - { offset: 0x48F77, size: 0x8, addend: 0x0, symName: __ZNSt3__115allocate_sharedB8ne200100IN8facebook5react22ConcreteViewShadowNodeIXadL_ZNS2_34ActivityIndicatorViewComponentNameEEENS2_26ActivityIndicatorViewPropsENS2_33ActivityIndicatorViewEventEmitterENS2_9StateDataEEENS_9allocatorIS7_EEJRKNS2_18ShadowNodeFragmentERKNS_10shared_ptrIKNS2_16ShadowNodeFamilyEEENS2_16ShadowNodeTraitsEELi0EEENSD_IT_EERKT0_DpOT1_, symObjAddr: 0x1B14, symBinAddr: 0x5A5C, symSize: 0x70 }
  - { offset: 0x492AA, size: 0x8, addend: 0x0, symName: __ZNSt3__115allocate_sharedB8ne200100IN8facebook5react22ConcreteViewShadowNodeIXadL_ZNS2_34ActivityIndicatorViewComponentNameEEENS2_26ActivityIndicatorViewPropsENS2_33ActivityIndicatorViewEventEmitterENS2_9StateDataEEENS_9allocatorIS7_EEJRKNS2_10ShadowNodeERKNS2_18ShadowNodeFragmentEELi0EEENS_10shared_ptrIT_EERKT0_DpOT1_, symObjAddr: 0x20D0, symBinAddr: 0x5E08, symSize: 0x60 }
  - { offset: 0x49C31, size: 0x8, addend: 0x0, symName: __ZNSt3__115allocate_sharedB8ne200100IN8facebook5react11EventTargetENS_9allocatorIS3_EEJRKNS_10shared_ptrIKNS2_14InstanceHandleEEERKiELi0EEENS6_IT_EERKT0_DpOT1_, symObjAddr: 0x2C74, symBinAddr: 0x6758, symSize: 0x60 }
  - { offset: 0x49EC9, size: 0x8, addend: 0x0, symName: __ZNSt3__115allocate_sharedB8ne200100IKN8facebook5react33ActivityIndicatorViewEventEmitterENS_9allocatorIS3_EEJNS_10shared_ptrINS2_11EventTargetEEERKNS_8weak_ptrIKNS2_15EventDispatcherEEEELi0EEENS7_IT_EERKT0_DpOT1_, symObjAddr: 0x280C, symBinAddr: 0x63A0, symSize: 0x60 }
  - { offset: 0x4A161, size: 0x8, addend: 0x0, symName: __ZNSt3__115allocate_sharedB8ne200100IN8facebook5react16ShadowNodeFamilyENS_9allocatorIS3_EEJRKNS2_24ShadowNodeFamilyFragmentERNS_10shared_ptrIKNS2_33ActivityIndicatorViewEventEmitterEEERKNS_8weak_ptrIKNS2_15EventDispatcherEEERKNS2_27ConcreteComponentDescriptorINS2_22ConcreteViewShadowNodeIXadL_ZNS2_34ActivityIndicatorViewComponentNameEEENS2_26ActivityIndicatorViewPropsESA_NS2_9StateDataEEEEEELi0EEENS9_IT_EERKT0_DpOT1_, symObjAddr: 0x2ED8, symBinAddr: 0x690C, symSize: 0x78 }
  - { offset: 0x4AA2C, size: 0x8, addend: 0x0, symName: __ZNSt3__112__destroy_atB8ne200100IN8facebook5react19AccessibilityActionELi0EEEvPT_, symObjAddr: 0x1794, symBinAddr: 0x573C, symSize: 0x50 }
  - { offset: 0x4B082, size: 0x8, addend: 0x0, symName: __ZNSt3__112__destroy_atB8ne200100INS_4pairIKNS_12basic_stringIcNS_11char_traitsIcEENS_9allocatorIcEEEENS_10shared_ptrIvEEEELi0EEEvPT_, symObjAddr: 0x1928, symBinAddr: 0x58D0, symSize: 0x3C }
  - { offset: 0x4BAA3, size: 0x8, addend: 0x0, symName: __ZNSt3__115allocate_sharedB8ne200100IKN8facebook5react26ActivityIndicatorViewPropsENS_9allocatorIS3_EEJELi0EEENS_10shared_ptrIT_EERKT0_DpOT1_, symObjAddr: 0x22E4, symBinAddr: 0x5FC4, symSize: 0x48 }
  - { offset: 0x4BD57, size: 0x8, addend: 0x0, symName: __ZNSt3__115allocate_sharedB8ne200100IN8facebook5react26ActivityIndicatorViewPropsENS_9allocatorIS3_EEJRKNS2_18PropsParserContextERKS3_RKNS2_8RawPropsEELi0EEENS_10shared_ptrIT_EERKT0_DpOT1_, symObjAddr: 0x2484, symBinAddr: 0x610C, symSize: 0x70 }
  - { offset: 0x4C9B7, size: 0x8, addend: 0x0, symName: __ZNSt3__120__throw_length_errorB8ne200100EPKc, symObjAddr: 0x2740, symBinAddr: 0x632C, symSize: 0x50 }
  - { offset: 0x4CE1D, size: 0x8, addend: 0x0, symName: __ZNSt3__112construct_atB8ne200100IN8facebook5react33ActivityIndicatorViewEventEmitterEJNS_10shared_ptrINS2_11EventTargetEEERKNS_8weak_ptrIKNS2_15EventDispatcherEEEEPS3_EEPT_SF_DpOT0_, symObjAddr: 0x2900, symBinAddr: 0x6494, symSize: 0x140 }
  - { offset: 0x4DCD9, size: 0x8, addend: 0x0, symName: __ZNSt3__112construct_atB8ne200100IN8facebook5react11EventTargetEJRKNS_10shared_ptrIKNS2_14InstanceHandleEEERKiEPS3_EEPT_SE_DpOT0_, symObjAddr: 0x2D84, symBinAddr: 0x6868, symSize: 0xA4 }
  - { offset: 0x4E50E, size: 0x8, addend: 0x0, symName: __ZNSt3__112construct_atB8ne200100IN8facebook5react16ShadowNodeFamilyEJRKNS2_24ShadowNodeFamilyFragmentERNS_10shared_ptrIKNS2_33ActivityIndicatorViewEventEmitterEEERKNS_8weak_ptrIKNS2_15EventDispatcherEEERKNS2_27ConcreteComponentDescriptorINS2_22ConcreteViewShadowNodeIXadL_ZNS2_34ActivityIndicatorViewComponentNameEEENS2_26ActivityIndicatorViewPropsES8_NS2_9StateDataEEEEEEPS3_EEPT_SS_DpOT0_, symObjAddr: 0x2FE0, symBinAddr: 0x6A14, symSize: 0xDC }
  - { offset: 0x4E840, size: 0x8, addend: 0x0, symName: __ZNSt3__111make_uniqueB8ne200100IKN8facebook5react27ConcreteComponentDescriptorINS2_22ConcreteViewShadowNodeIXadL_ZNS2_32AndroidDrawerLayoutComponentNameEEENS2_24AndroidDrawerLayoutPropsENS2_31AndroidDrawerLayoutEventEmitterENS2_9StateDataEEEEEJRKNS2_29ComponentDescriptorParametersEELi0EEENS_10unique_ptrIT_NS_14default_deleteISF_EEEEDpOT0_, symObjAddr: 0x31F8, symBinAddr: 0x6B24, symSize: 0xD4 }
  - { offset: 0x4EFDC, size: 0x8, addend: 0x0, symName: __ZNSt3__115allocate_sharedB8ne200100IN8facebook5react22ConcreteViewShadowNodeIXadL_ZNS2_32AndroidDrawerLayoutComponentNameEEENS2_24AndroidDrawerLayoutPropsENS2_31AndroidDrawerLayoutEventEmitterENS2_9StateDataEEENS_9allocatorIS7_EEJRKNS2_18ShadowNodeFragmentERKNS_10shared_ptrIKNS2_16ShadowNodeFamilyEEENS2_16ShadowNodeTraitsEELi0EEENSD_IT_EERKT0_DpOT1_, symObjAddr: 0x3B88, symBinAddr: 0x74B4, symSize: 0x70 }
  - { offset: 0x4F2EA, size: 0x8, addend: 0x0, symName: __ZNSt3__115allocate_sharedB8ne200100IN8facebook5react22ConcreteViewShadowNodeIXadL_ZNS2_32AndroidDrawerLayoutComponentNameEEENS2_24AndroidDrawerLayoutPropsENS2_31AndroidDrawerLayoutEventEmitterENS2_9StateDataEEENS_9allocatorIS7_EEJRKNS2_10ShadowNodeERKNS2_18ShadowNodeFragmentEELi0EEENS_10shared_ptrIT_EERKT0_DpOT1_, symObjAddr: 0x3EC0, symBinAddr: 0x7728, symSize: 0x60 }
  - { offset: 0x4F839, size: 0x8, addend: 0x0, symName: __ZNSt3__115allocate_sharedB8ne200100IKN8facebook5react31AndroidDrawerLayoutEventEmitterENS_9allocatorIS3_EEJNS_10shared_ptrINS2_11EventTargetEEERKNS_8weak_ptrIKNS2_15EventDispatcherEEEELi0EEENS7_IT_EERKT0_DpOT1_, symObjAddr: 0x4388, symBinAddr: 0x7B40, symSize: 0x60 }
  - { offset: 0x4FAD1, size: 0x8, addend: 0x0, symName: __ZNSt3__115allocate_sharedB8ne200100IN8facebook5react16ShadowNodeFamilyENS_9allocatorIS3_EEJRKNS2_24ShadowNodeFamilyFragmentERNS_10shared_ptrIKNS2_31AndroidDrawerLayoutEventEmitterEEERKNS_8weak_ptrIKNS2_15EventDispatcherEEERKNS2_27ConcreteComponentDescriptorINS2_22ConcreteViewShadowNodeIXadL_ZNS2_32AndroidDrawerLayoutComponentNameEEENS2_24AndroidDrawerLayoutPropsESA_NS2_9StateDataEEEEEELi0EEENS9_IT_EERKT0_DpOT1_, symObjAddr: 0x4628, symBinAddr: 0x7DE0, symSize: 0x78 }
  - { offset: 0x5039D, size: 0x8, addend: 0x0, symName: __ZNSt3__115allocate_sharedB8ne200100IKN8facebook5react24AndroidDrawerLayoutPropsENS_9allocatorIS3_EEJELi0EEENS_10shared_ptrIT_EERKT0_DpOT1_, symObjAddr: 0x407C, symBinAddr: 0x78E4, symSize: 0x48 }
  - { offset: 0x50651, size: 0x8, addend: 0x0, symName: __ZNSt3__115allocate_sharedB8ne200100IN8facebook5react24AndroidDrawerLayoutPropsENS_9allocatorIS3_EEJRKNS2_18PropsParserContextERKS3_RKNS2_8RawPropsEELi0EEENS_10shared_ptrIT_EERKT0_DpOT1_, symObjAddr: 0x4230, symBinAddr: 0x7A40, symSize: 0x70 }
  - { offset: 0x50D7F, size: 0x8, addend: 0x0, symName: __ZNSt3__112__destroy_atB8ne200100IN8facebook5react24AndroidDrawerLayoutPropsELi0EEEvPT_, symObjAddr: 0x419C, symBinAddr: 0x7A04, symSize: 0x3C }
  - { offset: 0x516EF, size: 0x8, addend: 0x0, symName: __ZNSt3__112construct_atB8ne200100IN8facebook5react31AndroidDrawerLayoutEventEmitterEJNS_10shared_ptrINS2_11EventTargetEEERKNS_8weak_ptrIKNS2_15EventDispatcherEEEEPS3_EEPT_SF_DpOT0_, symObjAddr: 0x447C, symBinAddr: 0x7C34, symSize: 0x140 }
  - { offset: 0x51D2D, size: 0x8, addend: 0x0, symName: __ZNSt3__112construct_atB8ne200100IN8facebook5react16ShadowNodeFamilyEJRKNS2_24ShadowNodeFamilyFragmentERNS_10shared_ptrIKNS2_31AndroidDrawerLayoutEventEmitterEEERKNS_8weak_ptrIKNS2_15EventDispatcherEEERKNS2_27ConcreteComponentDescriptorINS2_22ConcreteViewShadowNodeIXadL_ZNS2_32AndroidDrawerLayoutComponentNameEEENS2_24AndroidDrawerLayoutPropsES8_NS2_9StateDataEEEEEEPS3_EEPT_SS_DpOT0_, symObjAddr: 0x46EC, symBinAddr: 0x7EA4, symSize: 0xDC }
  - { offset: 0x52036, size: 0x8, addend: 0x0, symName: __ZNSt3__111make_uniqueB8ne200100IKN8facebook5react27ConcreteComponentDescriptorINS2_22ConcreteViewShadowNodeIXadL_ZNS2_38AndroidSwipeRefreshLayoutComponentNameEEENS2_30AndroidSwipeRefreshLayoutPropsENS2_37AndroidSwipeRefreshLayoutEventEmitterENS2_9StateDataEEEEEJRKNS2_29ComponentDescriptorParametersEELi0EEENS_10unique_ptrIT_NS_14default_deleteISF_EEEEDpOT0_, symObjAddr: 0x4854, symBinAddr: 0x7FB4, symSize: 0xD4 }
  - { offset: 0x527D2, size: 0x8, addend: 0x0, symName: __ZNSt3__115allocate_sharedB8ne200100IN8facebook5react22ConcreteViewShadowNodeIXadL_ZNS2_38AndroidSwipeRefreshLayoutComponentNameEEENS2_30AndroidSwipeRefreshLayoutPropsENS2_37AndroidSwipeRefreshLayoutEventEmitterENS2_9StateDataEEENS_9allocatorIS7_EEJRKNS2_18ShadowNodeFragmentERKNS_10shared_ptrIKNS2_16ShadowNodeFamilyEEENS2_16ShadowNodeTraitsEELi0EEENSD_IT_EERKT0_DpOT1_, symObjAddr: 0x522C, symBinAddr: 0x898C, symSize: 0x70 }
  - { offset: 0x52AE0, size: 0x8, addend: 0x0, symName: __ZNSt3__115allocate_sharedB8ne200100IN8facebook5react22ConcreteViewShadowNodeIXadL_ZNS2_38AndroidSwipeRefreshLayoutComponentNameEEENS2_30AndroidSwipeRefreshLayoutPropsENS2_37AndroidSwipeRefreshLayoutEventEmitterENS2_9StateDataEEENS_9allocatorIS7_EEJRKNS2_10ShadowNodeERKNS2_18ShadowNodeFragmentEELi0EEENS_10shared_ptrIT_EERKT0_DpOT1_, symObjAddr: 0x5564, symBinAddr: 0x8C00, symSize: 0x60 }
  - { offset: 0x5302F, size: 0x8, addend: 0x0, symName: __ZNSt3__115allocate_sharedB8ne200100IKN8facebook5react37AndroidSwipeRefreshLayoutEventEmitterENS_9allocatorIS3_EEJNS_10shared_ptrINS2_11EventTargetEEERKNS_8weak_ptrIKNS2_15EventDispatcherEEEELi0EEENS7_IT_EERKT0_DpOT1_, symObjAddr: 0x5A44, symBinAddr: 0x9030, symSize: 0x60 }
  - { offset: 0x532C7, size: 0x8, addend: 0x0, symName: __ZNSt3__115allocate_sharedB8ne200100IN8facebook5react16ShadowNodeFamilyENS_9allocatorIS3_EEJRKNS2_24ShadowNodeFamilyFragmentERNS_10shared_ptrIKNS2_37AndroidSwipeRefreshLayoutEventEmitterEEERKNS_8weak_ptrIKNS2_15EventDispatcherEEERKNS2_27ConcreteComponentDescriptorINS2_22ConcreteViewShadowNodeIXadL_ZNS2_38AndroidSwipeRefreshLayoutComponentNameEEENS2_30AndroidSwipeRefreshLayoutPropsESA_NS2_9StateDataEEEEEELi0EEENS9_IT_EERKT0_DpOT1_, symObjAddr: 0x5CE4, symBinAddr: 0x92D0, symSize: 0x78 }
  - { offset: 0x53C50, size: 0x8, addend: 0x0, symName: __ZNSt3__115allocate_sharedB8ne200100IKN8facebook5react30AndroidSwipeRefreshLayoutPropsENS_9allocatorIS3_EEJELi0EEENS_10shared_ptrIT_EERKT0_DpOT1_, symObjAddr: 0x5720, symBinAddr: 0x8DBC, symSize: 0x48 }
  - { offset: 0x53F04, size: 0x8, addend: 0x0, symName: __ZNSt3__115allocate_sharedB8ne200100IN8facebook5react30AndroidSwipeRefreshLayoutPropsENS_9allocatorIS3_EEJRKNS2_18PropsParserContextERKS3_RKNS2_8RawPropsEELi0EEENS_10shared_ptrIT_EERKT0_DpOT1_, symObjAddr: 0x58EC, symBinAddr: 0x8F30, symSize: 0x70 }
  - { offset: 0x54632, size: 0x8, addend: 0x0, symName: __ZNSt3__112__destroy_atB8ne200100IN8facebook5react30AndroidSwipeRefreshLayoutPropsELi0EEEvPT_, symObjAddr: 0x5844, symBinAddr: 0x8EE0, symSize: 0x50 }
  - { offset: 0x54FBD, size: 0x8, addend: 0x0, symName: __ZNSt3__112construct_atB8ne200100IN8facebook5react37AndroidSwipeRefreshLayoutEventEmitterEJNS_10shared_ptrINS2_11EventTargetEEERKNS_8weak_ptrIKNS2_15EventDispatcherEEEEPS3_EEPT_SF_DpOT0_, symObjAddr: 0x5B38, symBinAddr: 0x9124, symSize: 0x140 }
  - { offset: 0x555FB, size: 0x8, addend: 0x0, symName: __ZNSt3__112construct_atB8ne200100IN8facebook5react16ShadowNodeFamilyEJRKNS2_24ShadowNodeFamilyFragmentERNS_10shared_ptrIKNS2_37AndroidSwipeRefreshLayoutEventEmitterEEERKNS_8weak_ptrIKNS2_15EventDispatcherEEERKNS2_27ConcreteComponentDescriptorINS2_22ConcreteViewShadowNodeIXadL_ZNS2_38AndroidSwipeRefreshLayoutComponentNameEEENS2_30AndroidSwipeRefreshLayoutPropsES8_NS2_9StateDataEEEEEEPS3_EEPT_SS_DpOT0_, symObjAddr: 0x5DA8, symBinAddr: 0x9394, symSize: 0xDC }
  - { offset: 0x55904, size: 0x8, addend: 0x0, symName: __ZNSt3__111make_uniqueB8ne200100IKN8facebook5react27ConcreteComponentDescriptorINS2_22ConcreteViewShadowNodeIXadL_ZNS2_29DebuggingOverlayComponentNameEEENS2_21DebuggingOverlayPropsENS2_28DebuggingOverlayEventEmitterENS2_9StateDataEEEEEJRKNS2_29ComponentDescriptorParametersEELi0EEENS_10unique_ptrIT_NS_14default_deleteISF_EEEEDpOT0_, symObjAddr: 0x5F10, symBinAddr: 0x94A4, symSize: 0xD4 }
  - { offset: 0x560A0, size: 0x8, addend: 0x0, symName: __ZNSt3__115allocate_sharedB8ne200100IN8facebook5react22ConcreteViewShadowNodeIXadL_ZNS2_29DebuggingOverlayComponentNameEEENS2_21DebuggingOverlayPropsENS2_28DebuggingOverlayEventEmitterENS2_9StateDataEEENS_9allocatorIS7_EEJRKNS2_18ShadowNodeFragmentERKNS_10shared_ptrIKNS2_16ShadowNodeFamilyEEENS2_16ShadowNodeTraitsEELi0EEENSD_IT_EERKT0_DpOT1_, symObjAddr: 0x6750, symBinAddr: 0x9CE4, symSize: 0x70 }
  - { offset: 0x563AE, size: 0x8, addend: 0x0, symName: __ZNSt3__115allocate_sharedB8ne200100IN8facebook5react22ConcreteViewShadowNodeIXadL_ZNS2_29DebuggingOverlayComponentNameEEENS2_21DebuggingOverlayPropsENS2_28DebuggingOverlayEventEmitterENS2_9StateDataEEENS_9allocatorIS7_EEJRKNS2_10ShadowNodeERKNS2_18ShadowNodeFragmentEELi0EEENS_10shared_ptrIT_EERKT0_DpOT1_, symObjAddr: 0x6A88, symBinAddr: 0x9F58, symSize: 0x60 }
  - { offset: 0x568FD, size: 0x8, addend: 0x0, symName: __ZNSt3__115allocate_sharedB8ne200100IKN8facebook5react28DebuggingOverlayEventEmitterENS_9allocatorIS3_EEJNS_10shared_ptrINS2_11EventTargetEEERKNS_8weak_ptrIKNS2_15EventDispatcherEEEELi0EEENS7_IT_EERKT0_DpOT1_, symObjAddr: 0x6F0C, symBinAddr: 0xA32C, symSize: 0x60 }
  - { offset: 0x56B95, size: 0x8, addend: 0x0, symName: __ZNSt3__115allocate_sharedB8ne200100IN8facebook5react16ShadowNodeFamilyENS_9allocatorIS3_EEJRKNS2_24ShadowNodeFamilyFragmentERNS_10shared_ptrIKNS2_28DebuggingOverlayEventEmitterEEERKNS_8weak_ptrIKNS2_15EventDispatcherEEERKNS2_27ConcreteComponentDescriptorINS2_22ConcreteViewShadowNodeIXadL_ZNS2_29DebuggingOverlayComponentNameEEENS2_21DebuggingOverlayPropsESA_NS2_9StateDataEEEEEELi0EEENS9_IT_EERKT0_DpOT1_, symObjAddr: 0x71AC, symBinAddr: 0xA5CC, symSize: 0x78 }
  - { offset: 0x57461, size: 0x8, addend: 0x0, symName: __ZNSt3__115allocate_sharedB8ne200100IKN8facebook5react21DebuggingOverlayPropsENS_9allocatorIS3_EEJELi0EEENS_10shared_ptrIT_EERKT0_DpOT1_, symObjAddr: 0x6C44, symBinAddr: 0xA114, symSize: 0x48 }
  - { offset: 0x57715, size: 0x8, addend: 0x0, symName: __ZNSt3__115allocate_sharedB8ne200100IN8facebook5react21DebuggingOverlayPropsENS_9allocatorIS3_EEJRKNS2_18PropsParserContextERKS3_RKNS2_8RawPropsEELi0EEENS_10shared_ptrIT_EERKT0_DpOT1_, symObjAddr: 0x6DA8, symBinAddr: 0xA220, symSize: 0x70 }
  - { offset: 0x5865A, size: 0x8, addend: 0x0, symName: __ZNSt3__112construct_atB8ne200100IN8facebook5react28DebuggingOverlayEventEmitterEJNS_10shared_ptrINS2_11EventTargetEEERKNS_8weak_ptrIKNS2_15EventDispatcherEEEEPS3_EEPT_SF_DpOT0_, symObjAddr: 0x7000, symBinAddr: 0xA420, symSize: 0x140 }
  - { offset: 0x58C98, size: 0x8, addend: 0x0, symName: __ZNSt3__112construct_atB8ne200100IN8facebook5react16ShadowNodeFamilyEJRKNS2_24ShadowNodeFamilyFragmentERNS_10shared_ptrIKNS2_28DebuggingOverlayEventEmitterEEERKNS_8weak_ptrIKNS2_15EventDispatcherEEERKNS2_27ConcreteComponentDescriptorINS2_22ConcreteViewShadowNodeIXadL_ZNS2_29DebuggingOverlayComponentNameEEENS2_21DebuggingOverlayPropsES8_NS2_9StateDataEEEEEEPS3_EEPT_SS_DpOT0_, symObjAddr: 0x7270, symBinAddr: 0xA690, symSize: 0xDC }
  - { offset: 0x58FA1, size: 0x8, addend: 0x0, symName: __ZNSt3__111make_uniqueB8ne200100IKN8facebook5react27ConcreteComponentDescriptorINS2_22ConcreteViewShadowNodeIXadL_ZNS2_30PullToRefreshViewComponentNameEEENS2_22PullToRefreshViewPropsENS2_29PullToRefreshViewEventEmitterENS2_9StateDataEEEEEJRKNS2_29ComponentDescriptorParametersEELi0EEENS_10unique_ptrIT_NS_14default_deleteISF_EEEEDpOT0_, symObjAddr: 0x73D8, symBinAddr: 0xA7A0, symSize: 0xD4 }
  - { offset: 0x5973D, size: 0x8, addend: 0x0, symName: __ZNSt3__115allocate_sharedB8ne200100IN8facebook5react22ConcreteViewShadowNodeIXadL_ZNS2_30PullToRefreshViewComponentNameEEENS2_22PullToRefreshViewPropsENS2_29PullToRefreshViewEventEmitterENS2_9StateDataEEENS_9allocatorIS7_EEJRKNS2_18ShadowNodeFragmentERKNS_10shared_ptrIKNS2_16ShadowNodeFamilyEEENS2_16ShadowNodeTraitsEELi0EEENSD_IT_EERKT0_DpOT1_, symObjAddr: 0x7DA0, symBinAddr: 0xB168, symSize: 0x70 }
  - { offset: 0x59A4B, size: 0x8, addend: 0x0, symName: __ZNSt3__115allocate_sharedB8ne200100IN8facebook5react22ConcreteViewShadowNodeIXadL_ZNS2_30PullToRefreshViewComponentNameEEENS2_22PullToRefreshViewPropsENS2_29PullToRefreshViewEventEmitterENS2_9StateDataEEENS_9allocatorIS7_EEJRKNS2_10ShadowNodeERKNS2_18ShadowNodeFragmentEELi0EEENS_10shared_ptrIT_EERKT0_DpOT1_, symObjAddr: 0x80D8, symBinAddr: 0xB3DC, symSize: 0x60 }
  - { offset: 0x59F9A, size: 0x8, addend: 0x0, symName: __ZNSt3__115allocate_sharedB8ne200100IKN8facebook5react29PullToRefreshViewEventEmitterENS_9allocatorIS3_EEJNS_10shared_ptrINS2_11EventTargetEEERKNS_8weak_ptrIKNS2_15EventDispatcherEEEELi0EEENS7_IT_EERKT0_DpOT1_, symObjAddr: 0x85A8, symBinAddr: 0xB7FC, symSize: 0x60 }
  - { offset: 0x5A232, size: 0x8, addend: 0x0, symName: __ZNSt3__115allocate_sharedB8ne200100IN8facebook5react16ShadowNodeFamilyENS_9allocatorIS3_EEJRKNS2_24ShadowNodeFamilyFragmentERNS_10shared_ptrIKNS2_29PullToRefreshViewEventEmitterEEERKNS_8weak_ptrIKNS2_15EventDispatcherEEERKNS2_27ConcreteComponentDescriptorINS2_22ConcreteViewShadowNodeIXadL_ZNS2_30PullToRefreshViewComponentNameEEENS2_22PullToRefreshViewPropsESA_NS2_9StateDataEEEEEELi0EEENS9_IT_EERKT0_DpOT1_, symObjAddr: 0x8848, symBinAddr: 0xBA9C, symSize: 0x78 }
  - { offset: 0x5AAFE, size: 0x8, addend: 0x0, symName: __ZNSt3__115allocate_sharedB8ne200100IKN8facebook5react22PullToRefreshViewPropsENS_9allocatorIS3_EEJELi0EEENS_10shared_ptrIT_EERKT0_DpOT1_, symObjAddr: 0x8294, symBinAddr: 0xB598, symSize: 0x48 }
  - { offset: 0x5ADB2, size: 0x8, addend: 0x0, symName: __ZNSt3__115allocate_sharedB8ne200100IN8facebook5react22PullToRefreshViewPropsENS_9allocatorIS3_EEJRKNS2_18PropsParserContextERKS3_RKNS2_8RawPropsEELi0EEENS_10shared_ptrIT_EERKT0_DpOT1_, symObjAddr: 0x8450, symBinAddr: 0xB6FC, symSize: 0x70 }
  - { offset: 0x5B4E0, size: 0x8, addend: 0x0, symName: __ZNSt3__112__destroy_atB8ne200100IN8facebook5react22PullToRefreshViewPropsELi0EEEvPT_, symObjAddr: 0x83AC, symBinAddr: 0xB6B0, symSize: 0x4C }
  - { offset: 0x5BF5C, size: 0x8, addend: 0x0, symName: __ZNSt3__112construct_atB8ne200100IN8facebook5react29PullToRefreshViewEventEmitterEJNS_10shared_ptrINS2_11EventTargetEEERKNS_8weak_ptrIKNS2_15EventDispatcherEEEEPS3_EEPT_SF_DpOT0_, symObjAddr: 0x869C, symBinAddr: 0xB8F0, symSize: 0x140 }
  - { offset: 0x5C59A, size: 0x8, addend: 0x0, symName: __ZNSt3__112construct_atB8ne200100IN8facebook5react16ShadowNodeFamilyEJRKNS2_24ShadowNodeFamilyFragmentERNS_10shared_ptrIKNS2_29PullToRefreshViewEventEmitterEEERKNS_8weak_ptrIKNS2_15EventDispatcherEEERKNS2_27ConcreteComponentDescriptorINS2_22ConcreteViewShadowNodeIXadL_ZNS2_30PullToRefreshViewComponentNameEEENS2_22PullToRefreshViewPropsES8_NS2_9StateDataEEEEEEPS3_EEPT_SS_DpOT0_, symObjAddr: 0x890C, symBinAddr: 0xBB60, symSize: 0xDC }
  - { offset: 0x5C8A3, size: 0x8, addend: 0x0, symName: __ZNSt3__111make_uniqueB8ne200100IKN8facebook5react27ConcreteComponentDescriptorINS2_22ConcreteViewShadowNodeIXadL_ZNS2_36UnimplementedNativeViewComponentNameEEENS2_28UnimplementedNativeViewPropsENS2_35UnimplementedNativeViewEventEmitterENS2_9StateDataEEEEEJRKNS2_29ComponentDescriptorParametersEELi0EEENS_10unique_ptrIT_NS_14default_deleteISF_EEEEDpOT0_, symObjAddr: 0x8A74, symBinAddr: 0xBC70, symSize: 0xD4 }
  - { offset: 0x5D03F, size: 0x8, addend: 0x0, symName: __ZNSt3__115allocate_sharedB8ne200100IN8facebook5react22ConcreteViewShadowNodeIXadL_ZNS2_36UnimplementedNativeViewComponentNameEEENS2_28UnimplementedNativeViewPropsENS2_35UnimplementedNativeViewEventEmitterENS2_9StateDataEEENS_9allocatorIS7_EEJRKNS2_18ShadowNodeFragmentERKNS_10shared_ptrIKNS2_16ShadowNodeFamilyEEENS2_16ShadowNodeTraitsEELi0EEENSD_IT_EERKT0_DpOT1_, symObjAddr: 0x9378, symBinAddr: 0xC574, symSize: 0x70 }
  - { offset: 0x5D34D, size: 0x8, addend: 0x0, symName: __ZNSt3__115allocate_sharedB8ne200100IN8facebook5react22ConcreteViewShadowNodeIXadL_ZNS2_36UnimplementedNativeViewComponentNameEEENS2_28UnimplementedNativeViewPropsENS2_35UnimplementedNativeViewEventEmitterENS2_9StateDataEEENS_9allocatorIS7_EEJRKNS2_10ShadowNodeERKNS2_18ShadowNodeFragmentEELi0EEENS_10shared_ptrIT_EERKT0_DpOT1_, symObjAddr: 0x96B0, symBinAddr: 0xC7E8, symSize: 0x60 }
  - { offset: 0x5D89C, size: 0x8, addend: 0x0, symName: __ZNSt3__115allocate_sharedB8ne200100IKN8facebook5react35UnimplementedNativeViewEventEmitterENS_9allocatorIS3_EEJNS_10shared_ptrINS2_11EventTargetEEERKNS_8weak_ptrIKNS2_15EventDispatcherEEEELi0EEENS7_IT_EERKT0_DpOT1_, symObjAddr: 0x9B3C, symBinAddr: 0xCBC4, symSize: 0x60 }
  - { offset: 0x5DB34, size: 0x8, addend: 0x0, symName: __ZNSt3__115allocate_sharedB8ne200100IN8facebook5react16ShadowNodeFamilyENS_9allocatorIS3_EEJRKNS2_24ShadowNodeFamilyFragmentERNS_10shared_ptrIKNS2_35UnimplementedNativeViewEventEmitterEEERKNS_8weak_ptrIKNS2_15EventDispatcherEEERKNS2_27ConcreteComponentDescriptorINS2_22ConcreteViewShadowNodeIXadL_ZNS2_36UnimplementedNativeViewComponentNameEEENS2_28UnimplementedNativeViewPropsESA_NS2_9StateDataEEEEEELi0EEENS9_IT_EERKT0_DpOT1_, symObjAddr: 0x9DDC, symBinAddr: 0xCE64, symSize: 0x78 }
  - { offset: 0x5E400, size: 0x8, addend: 0x0, symName: __ZNSt3__115allocate_sharedB8ne200100IKN8facebook5react28UnimplementedNativeViewPropsENS_9allocatorIS3_EEJELi0EEENS_10shared_ptrIT_EERKT0_DpOT1_, symObjAddr: 0x986C, symBinAddr: 0xC9A4, symSize: 0x48 }
  - { offset: 0x5E6B4, size: 0x8, addend: 0x0, symName: __ZNSt3__115allocate_sharedB8ne200100IN8facebook5react28UnimplementedNativeViewPropsENS_9allocatorIS3_EEJRKNS2_18PropsParserContextERKS3_RKNS2_8RawPropsEELi0EEENS_10shared_ptrIT_EERKT0_DpOT1_, symObjAddr: 0x99E4, symBinAddr: 0xCAC4, symSize: 0x70 }
  - { offset: 0x5EDE2, size: 0x8, addend: 0x0, symName: __ZNSt3__112__destroy_atB8ne200100IN8facebook5react28UnimplementedNativeViewPropsELi0EEEvPT_, symObjAddr: 0x9950, symBinAddr: 0xCA88, symSize: 0x3C }
  - { offset: 0x5F762, size: 0x8, addend: 0x0, symName: __ZNSt3__112construct_atB8ne200100IN8facebook5react35UnimplementedNativeViewEventEmitterEJNS_10shared_ptrINS2_11EventTargetEEERKNS_8weak_ptrIKNS2_15EventDispatcherEEEEPS3_EEPT_SF_DpOT0_, symObjAddr: 0x9C30, symBinAddr: 0xCCB8, symSize: 0x140 }
  - { offset: 0x5FDA0, size: 0x8, addend: 0x0, symName: __ZNSt3__112construct_atB8ne200100IN8facebook5react16ShadowNodeFamilyEJRKNS2_24ShadowNodeFamilyFragmentERNS_10shared_ptrIKNS2_35UnimplementedNativeViewEventEmitterEEERKNS_8weak_ptrIKNS2_15EventDispatcherEEERKNS2_27ConcreteComponentDescriptorINS2_22ConcreteViewShadowNodeIXadL_ZNS2_36UnimplementedNativeViewComponentNameEEENS2_28UnimplementedNativeViewPropsES8_NS2_9StateDataEEEEEEPS3_EEPT_SS_DpOT0_, symObjAddr: 0x9EA0, symBinAddr: 0xCF28, symSize: 0xDC }
  - { offset: 0x64D0E, size: 0x8, addend: 0x0, symName: __ZN5folly6detail16throw_exception_INS_9TypeErrorEJPKcNS_7dynamic4TypeEEEEvDpT0_, symObjAddr: 0x25B0, symBinAddr: 0x4F4CC, symSize: 0x68 }
  - { offset: 0x65D89, size: 0x8, addend: 0x0, symName: __ZN5folly15throw_exceptionINS_9TypeErrorEEEvOT_, symObjAddr: 0x2618, symBinAddr: 0x4F534, symSize: 0x34 }
  - { offset: 0x69EC3, size: 0x8, addend: 0x0, symName: __ZN8facebook5react18ConcreteShadowNodeIXadL_ZNS0_34ActivityIndicatorViewComponentNameEEENS0_24YogaLayoutableShadowNodeENS0_26ActivityIndicatorViewPropsENS0_33ActivityIndicatorViewEventEmitterENS0_9StateDataEE18defaultSharedPropsEv, symObjAddr: 0x21EC, symBinAddr: 0x5ECC, symSize: 0x9C }
  - { offset: 0x69EE3, size: 0x8, addend: 0x0, symName: __ZZN8facebook5react18ConcreteShadowNodeIXadL_ZNS0_34ActivityIndicatorViewComponentNameEEENS0_24YogaLayoutableShadowNodeENS0_26ActivityIndicatorViewPropsENS0_33ActivityIndicatorViewEventEmitterENS0_9StateDataEE18defaultSharedPropsEvE18defaultSharedProps, symObjAddr: 0xE600, symBinAddr: 0x73390, symSize: 0x0 }
  - { offset: 0x69FD3, size: 0x8, addend: 0x0, symName: __ZN8facebook5react18ConcreteShadowNodeIXadL_ZNS0_32AndroidDrawerLayoutComponentNameEEENS0_24YogaLayoutableShadowNodeENS0_24AndroidDrawerLayoutPropsENS0_31AndroidDrawerLayoutEventEmitterENS0_9StateDataEE18defaultSharedPropsEv, symObjAddr: 0x3F84, symBinAddr: 0x77EC, symSize: 0x9C }
  - { offset: 0x69FF3, size: 0x8, addend: 0x0, symName: __ZZN8facebook5react18ConcreteShadowNodeIXadL_ZNS0_32AndroidDrawerLayoutComponentNameEEENS0_24YogaLayoutableShadowNodeENS0_24AndroidDrawerLayoutPropsENS0_31AndroidDrawerLayoutEventEmitterENS0_9StateDataEE18defaultSharedPropsEvE18defaultSharedProps, symObjAddr: 0xE618, symBinAddr: 0x733A8, symSize: 0x0 }
  - { offset: 0x6A157, size: 0x8, addend: 0x0, symName: __ZN8facebook5react18ConcreteShadowNodeIXadL_ZNS0_38AndroidSwipeRefreshLayoutComponentNameEEENS0_24YogaLayoutableShadowNodeENS0_30AndroidSwipeRefreshLayoutPropsENS0_37AndroidSwipeRefreshLayoutEventEmitterENS0_9StateDataEE18defaultSharedPropsEv, symObjAddr: 0x5628, symBinAddr: 0x8CC4, symSize: 0x9C }
  - { offset: 0x6A177, size: 0x8, addend: 0x0, symName: __ZZN8facebook5react18ConcreteShadowNodeIXadL_ZNS0_38AndroidSwipeRefreshLayoutComponentNameEEENS0_24YogaLayoutableShadowNodeENS0_30AndroidSwipeRefreshLayoutPropsENS0_37AndroidSwipeRefreshLayoutEventEmitterENS0_9StateDataEE18defaultSharedPropsEvE18defaultSharedProps, symObjAddr: 0xE630, symBinAddr: 0x733C0, symSize: 0x0 }
  - { offset: 0x6A256, size: 0x8, addend: 0x0, symName: __ZN8facebook5react18ConcreteShadowNodeIXadL_ZNS0_29DebuggingOverlayComponentNameEEENS0_24YogaLayoutableShadowNodeENS0_21DebuggingOverlayPropsENS0_28DebuggingOverlayEventEmitterENS0_9StateDataEE18defaultSharedPropsEv, symObjAddr: 0x6B4C, symBinAddr: 0xA01C, symSize: 0x9C }
  - { offset: 0x6A276, size: 0x8, addend: 0x0, symName: __ZZN8facebook5react18ConcreteShadowNodeIXadL_ZNS0_29DebuggingOverlayComponentNameEEENS0_24YogaLayoutableShadowNodeENS0_21DebuggingOverlayPropsENS0_28DebuggingOverlayEventEmitterENS0_9StateDataEE18defaultSharedPropsEvE18defaultSharedProps, symObjAddr: 0xE648, symBinAddr: 0x733D8, symSize: 0x0 }
  - { offset: 0x6A360, size: 0x8, addend: 0x0, symName: __ZN8facebook5react18ConcreteShadowNodeIXadL_ZNS0_30PullToRefreshViewComponentNameEEENS0_24YogaLayoutableShadowNodeENS0_22PullToRefreshViewPropsENS0_29PullToRefreshViewEventEmitterENS0_9StateDataEE18defaultSharedPropsEv, symObjAddr: 0x819C, symBinAddr: 0xB4A0, symSize: 0x9C }
  - { offset: 0x6A380, size: 0x8, addend: 0x0, symName: __ZZN8facebook5react18ConcreteShadowNodeIXadL_ZNS0_30PullToRefreshViewComponentNameEEENS0_24YogaLayoutableShadowNodeENS0_22PullToRefreshViewPropsENS0_29PullToRefreshViewEventEmitterENS0_9StateDataEE18defaultSharedPropsEvE18defaultSharedProps, symObjAddr: 0xE660, symBinAddr: 0x733F0, symSize: 0x0 }
  - { offset: 0x6A45F, size: 0x8, addend: 0x0, symName: __ZN8facebook5react18ConcreteShadowNodeIXadL_ZNS0_36UnimplementedNativeViewComponentNameEEENS0_24YogaLayoutableShadowNodeENS0_28UnimplementedNativeViewPropsENS0_35UnimplementedNativeViewEventEmitterENS0_9StateDataEE18defaultSharedPropsEv, symObjAddr: 0x9774, symBinAddr: 0xC8AC, symSize: 0x9C }
  - { offset: 0x6A47F, size: 0x8, addend: 0x0, symName: __ZZN8facebook5react18ConcreteShadowNodeIXadL_ZNS0_36UnimplementedNativeViewComponentNameEEENS0_24YogaLayoutableShadowNodeENS0_28UnimplementedNativeViewPropsENS0_35UnimplementedNativeViewEventEmitterENS0_9StateDataEE18defaultSharedPropsEvE18defaultSharedProps, symObjAddr: 0xE678, symBinAddr: 0x73408, symSize: 0x0 }
  - { offset: 0x6B6FF, size: 0x8, addend: 0x0, symName: __ZNSt3__110shared_ptrIKvED2B8ne200100Ev, symObjAddr: 0x2A4, symBinAddr: 0x42A4, symSize: 0x58 }
  - { offset: 0x6BCF1, size: 0x8, addend: 0x0, symName: __ZN8facebook5react14RawPropsParser7prepareINS0_26ActivityIndicatorViewPropsEEEvv, symObjAddr: 0x454, symBinAddr: 0x4454, symSize: 0x254 }
  - { offset: 0x6C62B, size: 0x8, addend: 0x0, symName: __ZN8facebook5react14RawPropsParserD1Ev, symObjAddr: 0x404, symBinAddr: 0x4404, symSize: 0x50 }
  - { offset: 0x6D013, size: 0x8, addend: 0x0, symName: __ZN8facebook5react13BaseViewPropsC2Ev, symObjAddr: 0xC64, symBinAddr: 0x4C64, symSize: 0x258 }
  - { offset: 0x6F332, size: 0x8, addend: 0x0, symName: __ZN8facebook5react13BaseViewPropsD2Ev, symObjAddr: 0xEBC, symBinAddr: 0x4EBC, symSize: 0xD0 }
  - { offset: 0x6FAD4, size: 0x8, addend: 0x0, symName: __ZNSt3__112__hash_tableINS_17__hash_value_typeINS_12basic_stringIcNS_11char_traitsIcEENS_9allocatorIcEEEENS_10shared_ptrIvEEEENS_22__unordered_map_hasherIS7_SA_NS_4hashIS7_EENS_8equal_toIS7_EELb1EEENS_21__unordered_map_equalIS7_SA_SF_SD_Lb1EEENS5_ISA_EEED2Ev, symObjAddr: 0x18B4, symBinAddr: 0x585C, symSize: 0x38 }
  - { offset: 0x6FC2D, size: 0x8, addend: 0x0, symName: __ZNSt3__16vectorIN8facebook5react8RawValueENS_9allocatorIS3_EEE16__destroy_vectorclB8ne200100Ev, symObjAddr: 0x1964, symBinAddr: 0x590C, symSize: 0x70 }
  - { offset: 0x6FF1E, size: 0x8, addend: 0x0, symName: __ZN8facebook5react27ConcreteComponentDescriptorINS0_22ConcreteViewShadowNodeIXadL_ZNS0_34ActivityIndicatorViewComponentNameEEENS0_26ActivityIndicatorViewPropsENS0_33ActivityIndicatorViewEventEmitterENS0_9StateDataEEEED1Ev, symObjAddr: 0x6A8, symBinAddr: 0x46A8, symSize: 0x4 }
  - { offset: 0x6FF40, size: 0x8, addend: 0x0, symName: __ZN8facebook5react27ConcreteComponentDescriptorINS0_22ConcreteViewShadowNodeIXadL_ZNS0_34ActivityIndicatorViewComponentNameEEENS0_26ActivityIndicatorViewPropsENS0_33ActivityIndicatorViewEventEmitterENS0_9StateDataEEEED1Ev, symObjAddr: 0x6A8, symBinAddr: 0x46A8, symSize: 0x4 }
  - { offset: 0x6FF5D, size: 0x8, addend: 0x0, symName: __ZN8facebook5react27ConcreteComponentDescriptorINS0_22ConcreteViewShadowNodeIXadL_ZNS0_34ActivityIndicatorViewComponentNameEEENS0_26ActivityIndicatorViewPropsENS0_33ActivityIndicatorViewEventEmitterENS0_9StateDataEEEED1Ev, symObjAddr: 0x6A8, symBinAddr: 0x46A8, symSize: 0x4 }
  - { offset: 0x6FF70, size: 0x8, addend: 0x0, symName: __ZN8facebook5react19ComponentDescriptorD2Ev, symObjAddr: 0x1A38, symBinAddr: 0x59E0, symSize: 0x7C }
  - { offset: 0x70430, size: 0x8, addend: 0x0, symName: __ZN8facebook5react27ConcreteComponentDescriptorINS0_22ConcreteViewShadowNodeIXadL_ZNS0_34ActivityIndicatorViewComponentNameEEENS0_26ActivityIndicatorViewPropsENS0_33ActivityIndicatorViewEventEmitterENS0_9StateDataEEEED0Ev, symObjAddr: 0x6AC, symBinAddr: 0x46AC, symSize: 0x14 }
  - { offset: 0x704A8, size: 0x8, addend: 0x0, symName: __ZNK8facebook5react27ConcreteComponentDescriptorINS0_22ConcreteViewShadowNodeIXadL_ZNS0_34ActivityIndicatorViewComponentNameEEENS0_26ActivityIndicatorViewPropsENS0_33ActivityIndicatorViewEventEmitterENS0_9StateDataEEEE18getComponentHandleEv, symObjAddr: 0x6C0, symBinAddr: 0x46C0, symSize: 0xC }
  - { offset: 0x704CF, size: 0x8, addend: 0x0, symName: __ZNK8facebook5react27ConcreteComponentDescriptorINS0_22ConcreteViewShadowNodeIXadL_ZNS0_34ActivityIndicatorViewComponentNameEEENS0_26ActivityIndicatorViewPropsENS0_33ActivityIndicatorViewEventEmitterENS0_9StateDataEEEE16getComponentNameEv, symObjAddr: 0x6CC, symBinAddr: 0x46CC, symSize: 0xC }
  - { offset: 0x704F6, size: 0x8, addend: 0x0, symName: __ZNK8facebook5react27ConcreteComponentDescriptorINS0_22ConcreteViewShadowNodeIXadL_ZNS0_34ActivityIndicatorViewComponentNameEEENS0_26ActivityIndicatorViewPropsENS0_33ActivityIndicatorViewEventEmitterENS0_9StateDataEEEE9getTraitsEv, symObjAddr: 0x6D8, symBinAddr: 0x46D8, symSize: 0x8 }
  - { offset: 0x70602, size: 0x8, addend: 0x0, symName: __ZNK8facebook5react27ConcreteComponentDescriptorINS0_22ConcreteViewShadowNodeIXadL_ZNS0_34ActivityIndicatorViewComponentNameEEENS0_26ActivityIndicatorViewPropsENS0_33ActivityIndicatorViewEventEmitterENS0_9StateDataEEEE16createShadowNodeERKNS0_18ShadowNodeFragmentERKNSt3__110shared_ptrIKNS0_16ShadowNodeFamilyEEE, symObjAddr: 0x6E0, symBinAddr: 0x46E0, symSize: 0x90 }
  - { offset: 0x708B3, size: 0x8, addend: 0x0, symName: __ZNK8facebook5react27ConcreteComponentDescriptorINS0_22ConcreteViewShadowNodeIXadL_ZNS0_34ActivityIndicatorViewComponentNameEEENS0_26ActivityIndicatorViewPropsENS0_33ActivityIndicatorViewEventEmitterENS0_9StateDataEEEE15cloneShadowNodeERKNS0_10ShadowNodeERKNS0_18ShadowNodeFragmentE, symObjAddr: 0x770, symBinAddr: 0x4770, symSize: 0x104 }
  - { offset: 0x70C1A, size: 0x8, addend: 0x0, symName: __ZNK8facebook5react27ConcreteComponentDescriptorINS0_22ConcreteViewShadowNodeIXadL_ZNS0_34ActivityIndicatorViewComponentNameEEENS0_26ActivityIndicatorViewPropsENS0_33ActivityIndicatorViewEventEmitterENS0_9StateDataEEEE11appendChildERKNSt3__110shared_ptrIKNS0_10ShadowNodeEEESE_, symObjAddr: 0x874, symBinAddr: 0x4874, symSize: 0x14 }
  - { offset: 0x70C71, size: 0x8, addend: 0x0, symName: __ZNK8facebook5react27ConcreteComponentDescriptorINS0_22ConcreteViewShadowNodeIXadL_ZNS0_34ActivityIndicatorViewComponentNameEEENS0_26ActivityIndicatorViewPropsENS0_33ActivityIndicatorViewEventEmitterENS0_9StateDataEEEE11appendChildERKNSt3__110shared_ptrIKNS0_10ShadowNodeEEESE_, symObjAddr: 0x874, symBinAddr: 0x4874, symSize: 0x14 }
  - { offset: 0x715CB, size: 0x8, addend: 0x0, symName: __ZNK8facebook5react27ConcreteComponentDescriptorINS0_22ConcreteViewShadowNodeIXadL_ZNS0_34ActivityIndicatorViewComponentNameEEENS0_26ActivityIndicatorViewPropsENS0_33ActivityIndicatorViewEventEmitterENS0_9StateDataEEEE10clonePropsERKNS0_18PropsParserContextERKNSt3__110shared_ptrIKNS0_5PropsEEENS0_8RawPropsE, symObjAddr: 0x888, symBinAddr: 0x4888, symSize: 0x21C }
  - { offset: 0x720EF, size: 0x8, addend: 0x0, symName: __ZN8facebook5react18ConcreteShadowNodeIXadL_ZNS0_34ActivityIndicatorViewComponentNameEEENS0_24YogaLayoutableShadowNodeENS0_26ActivityIndicatorViewPropsENS0_33ActivityIndicatorViewEventEmitterENS0_9StateDataEE5PropsERKNS0_18PropsParserContextERKNS0_8RawPropsERKNSt3__110shared_ptrIKNS0_5PropsEEE, symObjAddr: 0x2288, symBinAddr: 0x5F68, symSize: 0x58 }
  - { offset: 0x721E4, size: 0x8, addend: 0x0, symName: __ZNSt3__116__variant_detail6__dtorINS0_8__traitsIJN5folly7dynamicENS_4pairIPN8facebook3jsi7RuntimeENS7_5ValueEEEEEELNS0_6_TraitE1EE9__destroyB8ne200100Ev, symObjAddr: 0x19D4, symBinAddr: 0x597C, symSize: 0x54 }
  - { offset: 0x723A6, size: 0x8, addend: 0x0, symName: __ZNK8facebook5react27ConcreteComponentDescriptorINS0_22ConcreteViewShadowNodeIXadL_ZNS0_34ActivityIndicatorViewComponentNameEEENS0_26ActivityIndicatorViewPropsENS0_33ActivityIndicatorViewEventEmitterENS0_9StateDataEEEE18createInitialStateERKNSt3__110shared_ptrIKNS0_5PropsEEERKNS9_IKNS0_16ShadowNodeFamilyEEE, symObjAddr: 0xAA4, symBinAddr: 0x4AA4, symSize: 0x8 }
  - { offset: 0x723E9, size: 0x8, addend: 0x0, symName: __ZNK8facebook5react27ConcreteComponentDescriptorINS0_22ConcreteViewShadowNodeIXadL_ZNS0_34ActivityIndicatorViewComponentNameEEENS0_26ActivityIndicatorViewPropsENS0_33ActivityIndicatorViewEventEmitterENS0_9StateDataEEEE18createInitialStateERKNSt3__110shared_ptrIKNS0_5PropsEEERKNS9_IKNS0_16ShadowNodeFamilyEEE, symObjAddr: 0xAA4, symBinAddr: 0x4AA4, symSize: 0x8 }
  - { offset: 0x7240A, size: 0x8, addend: 0x0, symName: __ZNK8facebook5react27ConcreteComponentDescriptorINS0_22ConcreteViewShadowNodeIXadL_ZNS0_34ActivityIndicatorViewComponentNameEEENS0_26ActivityIndicatorViewPropsENS0_33ActivityIndicatorViewEventEmitterENS0_9StateDataEEEE18createInitialStateERKNSt3__110shared_ptrIKNS0_5PropsEEERKNS9_IKNS0_16ShadowNodeFamilyEEE, symObjAddr: 0xAA4, symBinAddr: 0x4AA4, symSize: 0x8 }
  - { offset: 0x7242C, size: 0x8, addend: 0x0, symName: __ZNK8facebook5react27ConcreteComponentDescriptorINS0_22ConcreteViewShadowNodeIXadL_ZNS0_34ActivityIndicatorViewComponentNameEEENS0_26ActivityIndicatorViewPropsENS0_33ActivityIndicatorViewEventEmitterENS0_9StateDataEEEE11createStateERKNS0_16ShadowNodeFamilyERKNSt3__110shared_ptrIKvEE, symObjAddr: 0xAAC, symBinAddr: 0x4AAC, symSize: 0x8 }
  - { offset: 0x7246F, size: 0x8, addend: 0x0, symName: __ZNK8facebook5react27ConcreteComponentDescriptorINS0_22ConcreteViewShadowNodeIXadL_ZNS0_34ActivityIndicatorViewComponentNameEEENS0_26ActivityIndicatorViewPropsENS0_33ActivityIndicatorViewEventEmitterENS0_9StateDataEEEE11createStateERKNS0_16ShadowNodeFamilyERKNSt3__110shared_ptrIKvEE, symObjAddr: 0xAAC, symBinAddr: 0x4AAC, symSize: 0x8 }
  - { offset: 0x72490, size: 0x8, addend: 0x0, symName: __ZNK8facebook5react27ConcreteComponentDescriptorINS0_22ConcreteViewShadowNodeIXadL_ZNS0_34ActivityIndicatorViewComponentNameEEENS0_26ActivityIndicatorViewPropsENS0_33ActivityIndicatorViewEventEmitterENS0_9StateDataEEEE11createStateERKNS0_16ShadowNodeFamilyERKNSt3__110shared_ptrIKvEE, symObjAddr: 0xAAC, symBinAddr: 0x4AAC, symSize: 0x8 }
  - { offset: 0x72725, size: 0x8, addend: 0x0, symName: __ZNK8facebook5react27ConcreteComponentDescriptorINS0_22ConcreteViewShadowNodeIXadL_ZNS0_34ActivityIndicatorViewComponentNameEEENS0_26ActivityIndicatorViewPropsENS0_33ActivityIndicatorViewEventEmitterENS0_9StateDataEEEE12createFamilyERKNS0_24ShadowNodeFamilyFragmentE, symObjAddr: 0xAB4, symBinAddr: 0x4AB4, symSize: 0x168 }
  - { offset: 0x72C7D, size: 0x8, addend: 0x0, symName: __ZNK8facebook5react27ConcreteComponentDescriptorINS0_22ConcreteViewShadowNodeIXadL_ZNS0_34ActivityIndicatorViewComponentNameEEENS0_26ActivityIndicatorViewPropsENS0_33ActivityIndicatorViewEventEmitterENS0_9StateDataEEEE5adoptERNS0_10ShadowNodeE, symObjAddr: 0xC1C, symBinAddr: 0x4C1C, symSize: 0x4 }
  - { offset: 0x72CB0, size: 0x8, addend: 0x0, symName: __ZN8facebook5react26ActivityIndicatorViewPropsD1Ev, symObjAddr: 0xC30, symBinAddr: 0x4C30, symSize: 0x34 }
  - { offset: 0x736ED, size: 0x8, addend: 0x0, symName: __ZN8facebook5react17YogaStylablePropsC2Ev, symObjAddr: 0x112C, symBinAddr: 0x512C, symSize: 0xF0 }
  - { offset: 0x73724, size: 0x8, addend: 0x0, symName: __ZN8facebook5react17YogaStylablePropsC2Ev, symObjAddr: 0x112C, symBinAddr: 0x512C, symSize: 0xF0 }
  - { offset: 0x745FF, size: 0x8, addend: 0x0, symName: __ZNSt3__16vectorINS_7variantIJN8facebook5react14LinearGradientENS3_14RadialGradientEEEENS_9allocatorIS6_EEE16__destroy_vectorclB8ne200100Ev, symObjAddr: 0x12F0, symBinAddr: 0x52F0, symSize: 0x70 }
  - { offset: 0x7489C, size: 0x8, addend: 0x0, symName: __ZNSt3__16vectorIN8facebook5react14FilterFunctionENS_9allocatorIS3_EEE16__destroy_vectorclB8ne200100Ev, symObjAddr: 0x1474, symBinAddr: 0x5474, symSize: 0x74 }
  - { offset: 0x74B98, size: 0x8, addend: 0x0, symName: __ZNSt3__16vectorIN8facebook5react9BoxShadowENS_9allocatorIS3_EEE16__destroy_vectorclB8ne200100Ev, symObjAddr: 0x1548, symBinAddr: 0x5548, symSize: 0x74 }
  - { offset: 0x74DC1, size: 0x8, addend: 0x0, symName: __ZN8facebook5react22CascadedRectangleEdgesINS0_11SharedColorEED2Ev, symObjAddr: 0x1614, symBinAddr: 0x55BC, symSize: 0x110 }
  - { offset: 0x75D6C, size: 0x8, addend: 0x0, symName: __ZN8facebook5react18AccessibilityPropsD2Ev, symObjAddr: 0x121C, symBinAddr: 0x521C, symSize: 0xD4 }
  - { offset: 0x7681E, size: 0x8, addend: 0x0, symName: __ZNKSt3__114default_deleteIN8facebook4yoga16SmallValueBufferILm4EE8OverflowEEclB8ne200100EPS5_, symObjAddr: 0x1870, symBinAddr: 0x5818, symSize: 0x44 }
  - { offset: 0x76A7A, size: 0x8, addend: 0x0, symName: __ZN8facebook5react13BaseViewPropsD1Ev, symObjAddr: 0xF8C, symBinAddr: 0x4F8C, symSize: 0xC }
  - { offset: 0x76AD2, size: 0x8, addend: 0x0, symName: __ZN8facebook5react13BaseViewPropsD0Ev, symObjAddr: 0xF98, symBinAddr: 0x4F98, symSize: 0x1C }
  - { offset: 0x76B2E, size: 0x8, addend: 0x0, symName: __ZN8facebook5react17YogaStylablePropsD1Ev, symObjAddr: 0xFB4, symBinAddr: 0x4FB4, symSize: 0x60 }
  - { offset: 0x76DE1, size: 0x8, addend: 0x0, symName: __ZN8facebook5react17YogaStylablePropsD0Ev, symObjAddr: 0x1014, symBinAddr: 0x5014, symSize: 0x60 }
  - { offset: 0x7709E, size: 0x8, addend: 0x0, symName: __ZN8facebook5react5PropsD1Ev, symObjAddr: 0x1074, symBinAddr: 0x5074, symSize: 0x40 }
  - { offset: 0x771FC, size: 0x8, addend: 0x0, symName: __ZN8facebook5react5PropsD0Ev, symObjAddr: 0x10B4, symBinAddr: 0x50B4, symSize: 0x40 }
  - { offset: 0x77364, size: 0x8, addend: 0x0, symName: __ZN8facebook5react26ActivityIndicatorViewPropsD0Ev, symObjAddr: 0x10F4, symBinAddr: 0x50F4, symSize: 0x38 }
  - { offset: 0x778A0, size: 0x8, addend: 0x0, symName: __ZNSt3__16vectorIN8facebook5react19AccessibilityActionENS_9allocatorIS3_EEE16__destroy_vectorclB8ne200100Ev, symObjAddr: 0x1724, symBinAddr: 0x56CC, symSize: 0x70 }
  - { offset: 0x779E2, size: 0x8, addend: 0x0, symName: __ZNSt3__16vectorINS_12basic_stringIcNS_11char_traitsIcEENS_9allocatorIcEEEENS4_IS6_EEE16__destroy_vectorclB8ne200100Ev, symObjAddr: 0x17E4, symBinAddr: 0x578C, symSize: 0x40 }
  - { offset: 0x77CFA, size: 0x8, addend: 0x0, symName: __ZNSt3__116__variant_detail6__dtorINS0_8__traitsIJN8facebook5react14LinearGradientENS4_14RadialGradientEEEELNS0_6_TraitE1EE9__destroyB8ne200100Ev, symObjAddr: 0x1360, symBinAddr: 0x5360, symSize: 0x54 }
  - { offset: 0x780A5, size: 0x8, addend: 0x0, symName: __ZNSt3__116__variant_detail12__visitation6__base12__dispatcherIJLm0EEE10__dispatchB8ne200100IOZNS0_6__dtorINS0_8__traitsIJN8facebook5react14LinearGradientENS9_14RadialGradientEEEELNS0_6_TraitE1EE9__destroyB8ne200100EvEUlRT_E_JRNS0_6__baseILSD_1EJSA_SB_EEEEEEDcSF_DpT0_, symObjAddr: 0x13B4, symBinAddr: 0x53B4, symSize: 0x28 }
  - { offset: 0x78236, size: 0x8, addend: 0x0, symName: __ZNSt3__16vectorIN8facebook5react9ColorStopENS_9allocatorIS3_EEE16__destroy_vectorclB8ne200100Ev, symObjAddr: 0x1404, symBinAddr: 0x5404, symSize: 0x70 }
  - { offset: 0x78513, size: 0x8, addend: 0x0, symName: __ZNSt3__116__variant_detail12__visitation6__base12__dispatcherIJLm1EEE10__dispatchB8ne200100IOZNS0_6__dtorINS0_8__traitsIJN8facebook5react14LinearGradientENS9_14RadialGradientEEEELNS0_6_TraitE1EE9__destroyB8ne200100EvEUlRT_E_JRNS0_6__baseILSD_1EJSA_SB_EEEEEEDcSF_DpT0_, symObjAddr: 0x13DC, symBinAddr: 0x53DC, symSize: 0x28 }
  - { offset: 0x78A98, size: 0x8, addend: 0x0, symName: __ZNSt3__116__variant_detail6__dtorINS0_8__traitsIJdN8facebook5react16DropShadowParamsEEEELNS0_6_TraitE1EE9__destroyB8ne200100Ev, symObjAddr: 0x14E8, symBinAddr: 0x54E8, symSize: 0x54 }
  - { offset: 0x78CCB, size: 0x8, addend: 0x0, symName: __ZNSt3__116__variant_detail12__visitation6__base12__dispatcherIJLm0EEE10__dispatchB8ne200100IOZNS0_6__dtorINS0_8__traitsIJdN8facebook5react16DropShadowParamsEEEELNS0_6_TraitE1EE9__destroyB8ne200100EvEUlRT_E_JRNS0_6__baseILSC_1EJdSA_EEEEEEDcSE_DpT0_, symObjAddr: 0x153C, symBinAddr: 0x553C, symSize: 0x4 }
  - { offset: 0x78DE5, size: 0x8, addend: 0x0, symName: __ZNSt3__116__variant_detail12__visitation6__base12__dispatcherIJLm1EEE10__dispatchB8ne200100IOZNS0_6__dtorINS0_8__traitsIJdN8facebook5react16DropShadowParamsEEEELNS0_6_TraitE1EE9__destroyB8ne200100EvEUlRT_E_JRNS0_6__baseILSC_1EJdSA_EEEEEEDcSE_DpT0_, symObjAddr: 0x1540, symBinAddr: 0x5540, symSize: 0x8 }
  - { offset: 0x78E1C, size: 0x8, addend: 0x0, symName: __ZNSt3__116__variant_detail12__visitation6__base12__dispatcherIJLm1EEE10__dispatchB8ne200100IOZNS0_6__dtorINS0_8__traitsIJdN8facebook5react16DropShadowParamsEEEELNS0_6_TraitE1EE9__destroyB8ne200100EvEUlRT_E_JRNS0_6__baseILSC_1EJdSA_EEEEEEDcSE_DpT0_, symObjAddr: 0x1540, symBinAddr: 0x5540, symSize: 0x8 }
  - { offset: 0x78E42, size: 0x8, addend: 0x0, symName: __ZNSt3__116__variant_detail12__visitation6__base12__dispatcherIJLm1EEE10__dispatchB8ne200100IOZNS0_6__dtorINS0_8__traitsIJdN8facebook5react16DropShadowParamsEEEELNS0_6_TraitE1EE9__destroyB8ne200100EvEUlRT_E_JRNS0_6__baseILSC_1EJdSA_EEEEEEDcSE_DpT0_, symObjAddr: 0x1540, symBinAddr: 0x5540, symSize: 0x8 }
  - { offset: 0x78E67, size: 0x8, addend: 0x0, symName: __ZNSt3__116__variant_detail12__visitation6__base12__dispatcherIJLm1EEE10__dispatchB8ne200100IOZNS0_6__dtorINS0_8__traitsIJdN8facebook5react16DropShadowParamsEEEELNS0_6_TraitE1EE9__destroyB8ne200100EvEUlRT_E_JRNS0_6__baseILSC_1EJdSA_EEEEEEDcSE_DpT0_, symObjAddr: 0x1540, symBinAddr: 0x5540, symSize: 0x8 }
  - { offset: 0x78E83, size: 0x8, addend: 0x0, symName: __ZNSt3__116__variant_detail12__visitation6__base12__dispatcherIJLm1EEE10__dispatchB8ne200100IOZNS0_6__dtorINS0_8__traitsIJdN8facebook5react16DropShadowParamsEEEELNS0_6_TraitE1EE9__destroyB8ne200100EvEUlRT_E_JRNS0_6__baseILSC_1EJdSA_EEEEEEDcSE_DpT0_, symObjAddr: 0x1540, symBinAddr: 0x5540, symSize: 0x8 }
  - { offset: 0x78E9F, size: 0x8, addend: 0x0, symName: __ZNSt3__116__variant_detail12__visitation6__base12__dispatcherIJLm1EEE10__dispatchB8ne200100IOZNS0_6__dtorINS0_8__traitsIJdN8facebook5react16DropShadowParamsEEEELNS0_6_TraitE1EE9__destroyB8ne200100EvEUlRT_E_JRNS0_6__baseILSC_1EJdSA_EEEEEEDcSE_DpT0_, symObjAddr: 0x1540, symBinAddr: 0x5540, symSize: 0x8 }
  - { offset: 0x78EBB, size: 0x8, addend: 0x0, symName: __ZNSt3__116__variant_detail12__visitation6__base12__dispatcherIJLm1EEE10__dispatchB8ne200100IOZNS0_6__dtorINS0_8__traitsIJdN8facebook5react16DropShadowParamsEEEELNS0_6_TraitE1EE9__destroyB8ne200100EvEUlRT_E_JRNS0_6__baseILSC_1EJdSA_EEEEEEDcSE_DpT0_, symObjAddr: 0x1540, symBinAddr: 0x5540, symSize: 0x8 }
  - { offset: 0x7933A, size: 0x8, addend: 0x0, symName: __ZNSt3__16vectorINS_12basic_stringIcNS_11char_traitsIcEENS_9allocatorIcEEEENS4_IS6_EEE5clearB8ne200100Ev, symObjAddr: 0x1824, symBinAddr: 0x57CC, symSize: 0x4C }
  - { offset: 0x79866, size: 0x8, addend: 0x0, symName: __ZNSt3__112__hash_tableINS_17__hash_value_typeINS_12basic_stringIcNS_11char_traitsIcEENS_9allocatorIcEEEENS_10shared_ptrIvEEEENS_22__unordered_map_hasherIS7_SA_NS_4hashIS7_EENS_8equal_toIS7_EELb1EEENS_21__unordered_map_equalIS7_SA_SF_SD_Lb1EEENS5_ISA_EEE17__deallocate_nodeEPNS_16__hash_node_baseIPNS_11__hash_nodeISA_PvEEEE, symObjAddr: 0x18EC, symBinAddr: 0x5894, symSize: 0x3C }
  - { offset: 0x79D2E, size: 0x8, addend: 0x0, symName: __ZNSt3__116__variant_detail12__visitation6__base12__dispatcherIJLm0EEE10__dispatchB8ne200100IOZNS0_6__dtorINS0_8__traitsIJN5folly7dynamicENS_4pairIPN8facebook3jsi7RuntimeENSC_5ValueEEEEEELNS0_6_TraitE1EE9__destroyB8ne200100EvEUlRT_E_JRNS0_6__baseILSI_1EJS9_SG_EEEEEEDcSK_DpT0_, symObjAddr: 0x1A28, symBinAddr: 0x59D0, symSize: 0x8 }
  - { offset: 0x79EE2, size: 0x8, addend: 0x0, symName: __ZNSt3__116__variant_detail12__visitation6__base12__dispatcherIJLm1EEE10__dispatchB8ne200100IOZNS0_6__dtorINS0_8__traitsIJN5folly7dynamicENS_4pairIPN8facebook3jsi7RuntimeENSC_5ValueEEEEEELNS0_6_TraitE1EE9__destroyB8ne200100EvEUlRT_E_JRNS0_6__baseILSI_1EJS9_SG_EEEEEEDcSK_DpT0_, symObjAddr: 0x1A30, symBinAddr: 0x59D8, symSize: 0x8 }
  - { offset: 0x79F19, size: 0x8, addend: 0x0, symName: __ZNSt3__116__variant_detail12__visitation6__base12__dispatcherIJLm1EEE10__dispatchB8ne200100IOZNS0_6__dtorINS0_8__traitsIJN5folly7dynamicENS_4pairIPN8facebook3jsi7RuntimeENSC_5ValueEEEEEELNS0_6_TraitE1EE9__destroyB8ne200100EvEUlRT_E_JRNS0_6__baseILSI_1EJS9_SG_EEEEEEDcSK_DpT0_, symObjAddr: 0x1A30, symBinAddr: 0x59D8, symSize: 0x8 }
  - { offset: 0x79F3F, size: 0x8, addend: 0x0, symName: __ZNSt3__116__variant_detail12__visitation6__base12__dispatcherIJLm1EEE10__dispatchB8ne200100IOZNS0_6__dtorINS0_8__traitsIJN5folly7dynamicENS_4pairIPN8facebook3jsi7RuntimeENSC_5ValueEEEEEELNS0_6_TraitE1EE9__destroyB8ne200100EvEUlRT_E_JRNS0_6__baseILSI_1EJS9_SG_EEEEEEDcSK_DpT0_, symObjAddr: 0x1A30, symBinAddr: 0x59D8, symSize: 0x8 }
  - { offset: 0x79F64, size: 0x8, addend: 0x0, symName: __ZNSt3__116__variant_detail12__visitation6__base12__dispatcherIJLm1EEE10__dispatchB8ne200100IOZNS0_6__dtorINS0_8__traitsIJN5folly7dynamicENS_4pairIPN8facebook3jsi7RuntimeENSC_5ValueEEEEEELNS0_6_TraitE1EE9__destroyB8ne200100EvEUlRT_E_JRNS0_6__baseILSI_1EJS9_SG_EEEEEEDcSK_DpT0_, symObjAddr: 0x1A30, symBinAddr: 0x59D8, symSize: 0x8 }
  - { offset: 0x79F80, size: 0x8, addend: 0x0, symName: __ZNSt3__116__variant_detail12__visitation6__base12__dispatcherIJLm1EEE10__dispatchB8ne200100IOZNS0_6__dtorINS0_8__traitsIJN5folly7dynamicENS_4pairIPN8facebook3jsi7RuntimeENSC_5ValueEEEEEELNS0_6_TraitE1EE9__destroyB8ne200100EvEUlRT_E_JRNS0_6__baseILSI_1EJS9_SG_EEEEEEDcSK_DpT0_, symObjAddr: 0x1A30, symBinAddr: 0x59D8, symSize: 0x8 }
  - { offset: 0x79F9C, size: 0x8, addend: 0x0, symName: __ZNSt3__116__variant_detail12__visitation6__base12__dispatcherIJLm1EEE10__dispatchB8ne200100IOZNS0_6__dtorINS0_8__traitsIJN5folly7dynamicENS_4pairIPN8facebook3jsi7RuntimeENSC_5ValueEEEEEELNS0_6_TraitE1EE9__destroyB8ne200100EvEUlRT_E_JRNS0_6__baseILSI_1EJS9_SG_EEEEEEDcSK_DpT0_, symObjAddr: 0x1A30, symBinAddr: 0x59D8, symSize: 0x8 }
  - { offset: 0x79FB8, size: 0x8, addend: 0x0, symName: __ZNSt3__116__variant_detail12__visitation6__base12__dispatcherIJLm1EEE10__dispatchB8ne200100IOZNS0_6__dtorINS0_8__traitsIJN5folly7dynamicENS_4pairIPN8facebook3jsi7RuntimeENSC_5ValueEEEEEELNS0_6_TraitE1EE9__destroyB8ne200100EvEUlRT_E_JRNS0_6__baseILSI_1EJS9_SG_EEEEEEDcSK_DpT0_, symObjAddr: 0x1A30, symBinAddr: 0x59D8, symSize: 0x8 }
  - { offset: 0x7A0A6, size: 0x8, addend: 0x0, symName: __ZN8facebook5react19ComponentDescriptorD1Ev, symObjAddr: 0x1AB4, symBinAddr: 0x4F4C4, symSize: 0x4 }
  - { offset: 0x7A0CF, size: 0x8, addend: 0x0, symName: __ZN8facebook5react19ComponentDescriptorD0Ev, symObjAddr: 0x1AB8, symBinAddr: 0x4F4C8, symSize: 0x4 }
  - { offset: 0x7A35F, size: 0x8, addend: 0x0, symName: __ZNSt3__120__shared_ptr_emplaceIN8facebook5react22ConcreteViewShadowNodeIXadL_ZNS2_34ActivityIndicatorViewComponentNameEEENS2_26ActivityIndicatorViewPropsENS2_33ActivityIndicatorViewEventEmitterENS2_9StateDataEEENS_9allocatorIS7_EEEC2B8ne200100IJRKNS2_18ShadowNodeFragmentERKNS_10shared_ptrIKNS2_16ShadowNodeFamilyEEENS2_16ShadowNodeTraitsEES9_Li0EEES9_DpOT_, symObjAddr: 0x1B84, symBinAddr: 0x5ACC, symSize: 0x68 }
  - { offset: 0x7A6DE, size: 0x8, addend: 0x0, symName: __ZN8facebook5react22ConcreteViewShadowNodeIXadL_ZNS0_34ActivityIndicatorViewComponentNameEEENS0_26ActivityIndicatorViewPropsENS0_33ActivityIndicatorViewEventEmitterENS0_9StateDataEE10initializeEv, symObjAddr: 0x1C34, symBinAddr: 0x5B7C, symSize: 0x6C }
  - { offset: 0x7A725, size: 0x8, addend: 0x0, symName: __ZN8facebook5react22ConcreteViewShadowNodeIXadL_ZNS0_34ActivityIndicatorViewComponentNameEEENS0_26ActivityIndicatorViewPropsENS0_33ActivityIndicatorViewEventEmitterENS0_9StateDataEE10initializeEv, symObjAddr: 0x1C34, symBinAddr: 0x5B7C, symSize: 0x6C }
  - { offset: 0x7A740, size: 0x8, addend: 0x0, symName: __ZN8facebook5react22ConcreteViewShadowNodeIXadL_ZNS0_34ActivityIndicatorViewComponentNameEEENS0_26ActivityIndicatorViewPropsENS0_33ActivityIndicatorViewEventEmitterENS0_9StateDataEE10initializeEv, symObjAddr: 0x1C34, symBinAddr: 0x5B7C, symSize: 0x6C }
  - { offset: 0x7A7D6, size: 0x8, addend: 0x0, symName: __ZNSt3__120__shared_ptr_emplaceIN8facebook5react22ConcreteViewShadowNodeIXadL_ZNS2_34ActivityIndicatorViewComponentNameEEENS2_26ActivityIndicatorViewPropsENS2_33ActivityIndicatorViewEventEmitterENS2_9StateDataEEENS_9allocatorIS7_EEED1Ev, symObjAddr: 0x1BEC, symBinAddr: 0x5B34, symSize: 0x14 }
  - { offset: 0x7A7F8, size: 0x8, addend: 0x0, symName: __ZNSt3__120__shared_ptr_emplaceIN8facebook5react22ConcreteViewShadowNodeIXadL_ZNS2_34ActivityIndicatorViewComponentNameEEENS2_26ActivityIndicatorViewPropsENS2_33ActivityIndicatorViewEventEmitterENS2_9StateDataEEENS_9allocatorIS7_EEED1Ev, symObjAddr: 0x1BEC, symBinAddr: 0x5B34, symSize: 0x14 }
  - { offset: 0x7A82E, size: 0x8, addend: 0x0, symName: __ZNSt3__120__shared_ptr_emplaceIN8facebook5react22ConcreteViewShadowNodeIXadL_ZNS2_34ActivityIndicatorViewComponentNameEEENS2_26ActivityIndicatorViewPropsENS2_33ActivityIndicatorViewEventEmitterENS2_9StateDataEEENS_9allocatorIS7_EEED0Ev, symObjAddr: 0x1C00, symBinAddr: 0x5B48, symSize: 0x24 }
  - { offset: 0x7A8FD, size: 0x8, addend: 0x0, symName: __ZNSt3__120__shared_ptr_emplaceIN8facebook5react22ConcreteViewShadowNodeIXadL_ZNS2_34ActivityIndicatorViewComponentNameEEENS2_26ActivityIndicatorViewPropsENS2_33ActivityIndicatorViewEventEmitterENS2_9StateDataEEENS_9allocatorIS7_EEE16__on_zero_sharedEv, symObjAddr: 0x1C24, symBinAddr: 0x5B6C, symSize: 0xC }
  - { offset: 0x7A926, size: 0x8, addend: 0x0, symName: __ZNSt3__120__shared_ptr_emplaceIN8facebook5react22ConcreteViewShadowNodeIXadL_ZNS2_34ActivityIndicatorViewComponentNameEEENS2_26ActivityIndicatorViewPropsENS2_33ActivityIndicatorViewEventEmitterENS2_9StateDataEEENS_9allocatorIS7_EEE16__on_zero_sharedEv, symObjAddr: 0x1C24, symBinAddr: 0x5B6C, symSize: 0xC }
  - { offset: 0x7A944, size: 0x8, addend: 0x0, symName: __ZNSt3__120__shared_ptr_emplaceIN8facebook5react22ConcreteViewShadowNodeIXadL_ZNS2_34ActivityIndicatorViewComponentNameEEENS2_26ActivityIndicatorViewPropsENS2_33ActivityIndicatorViewEventEmitterENS2_9StateDataEEENS_9allocatorIS7_EEE16__on_zero_sharedEv, symObjAddr: 0x1C24, symBinAddr: 0x5B6C, symSize: 0xC }
  - { offset: 0x7A962, size: 0x8, addend: 0x0, symName: __ZNSt3__120__shared_ptr_emplaceIN8facebook5react22ConcreteViewShadowNodeIXadL_ZNS2_34ActivityIndicatorViewComponentNameEEENS2_26ActivityIndicatorViewPropsENS2_33ActivityIndicatorViewEventEmitterENS2_9StateDataEEENS_9allocatorIS7_EEE16__on_zero_sharedEv, symObjAddr: 0x1C24, symBinAddr: 0x5B6C, symSize: 0xC }
  - { offset: 0x7A98E, size: 0x8, addend: 0x0, symName: __ZNSt3__120__shared_ptr_emplaceIN8facebook5react22ConcreteViewShadowNodeIXadL_ZNS2_34ActivityIndicatorViewComponentNameEEENS2_26ActivityIndicatorViewPropsENS2_33ActivityIndicatorViewEventEmitterENS2_9StateDataEEENS_9allocatorIS7_EEE21__on_zero_shared_weakEv, symObjAddr: 0x1C30, symBinAddr: 0x5B78, symSize: 0x4 }
  - { offset: 0x7A9C0, size: 0x8, addend: 0x0, symName: __ZNSt3__120__shared_ptr_emplaceIN8facebook5react22ConcreteViewShadowNodeIXadL_ZNS2_34ActivityIndicatorViewComponentNameEEENS2_26ActivityIndicatorViewPropsENS2_33ActivityIndicatorViewEventEmitterENS2_9StateDataEEENS_9allocatorIS7_EEE21__on_zero_shared_weakEv, symObjAddr: 0x1C30, symBinAddr: 0x5B78, symSize: 0x4 }
  - { offset: 0x7A9E1, size: 0x8, addend: 0x0, symName: __ZNSt3__120__shared_ptr_emplaceIN8facebook5react22ConcreteViewShadowNodeIXadL_ZNS2_34ActivityIndicatorViewComponentNameEEENS2_26ActivityIndicatorViewPropsENS2_33ActivityIndicatorViewEventEmitterENS2_9StateDataEEENS_9allocatorIS7_EEE21__on_zero_shared_weakEv, symObjAddr: 0x1C30, symBinAddr: 0x5B78, symSize: 0x4 }
  - { offset: 0x7AA03, size: 0x8, addend: 0x0, symName: __ZNSt3__120__shared_ptr_emplaceIN8facebook5react22ConcreteViewShadowNodeIXadL_ZNS2_34ActivityIndicatorViewComponentNameEEENS2_26ActivityIndicatorViewPropsENS2_33ActivityIndicatorViewEventEmitterENS2_9StateDataEEENS_9allocatorIS7_EEE21__on_zero_shared_weakEv, symObjAddr: 0x1C30, symBinAddr: 0x5B78, symSize: 0x4 }
  - { offset: 0x7AA37, size: 0x8, addend: 0x0, symName: __ZNSt3__120__shared_ptr_emplaceIN8facebook5react22ConcreteViewShadowNodeIXadL_ZNS2_34ActivityIndicatorViewComponentNameEEENS2_26ActivityIndicatorViewPropsENS2_33ActivityIndicatorViewEventEmitterENS2_9StateDataEEENS_9allocatorIS7_EEE21__on_zero_shared_weakEv, symObjAddr: 0x1C30, symBinAddr: 0x5B78, symSize: 0x4 }
  - { offset: 0x7AD4F, size: 0x8, addend: 0x0, symName: __ZN8facebook5react22ConcreteViewShadowNodeIXadL_ZNS0_34ActivityIndicatorViewComponentNameEEENS0_26ActivityIndicatorViewPropsENS0_33ActivityIndicatorViewEventEmitterENS0_9StateDataEED1Ev, symObjAddr: 0x1CA0, symBinAddr: 0x5BE8, symSize: 0x70 }
  - { offset: 0x7B0FD, size: 0x8, addend: 0x0, symName: __ZNSt3__16vectorINS_10shared_ptrIKN8facebook5react24YogaLayoutableShadowNodeEEENS_9allocatorIS6_EEE16__destroy_vectorclB8ne200100Ev, symObjAddr: 0x1DF4, symBinAddr: 0x5D3C, symSize: 0x70 }
  - { offset: 0x7B272, size: 0x8, addend: 0x0, symName: __ZN8facebook5react10ShadowNodeD2Ev, symObjAddr: 0x1EBC, symBinAddr: 0x5DAC, symSize: 0x5C }
  - { offset: 0x7B399, size: 0x8, addend: 0x0, symName: __ZN8facebook5react22ConcreteViewShadowNodeIXadL_ZNS0_34ActivityIndicatorViewComponentNameEEENS0_26ActivityIndicatorViewPropsENS0_33ActivityIndicatorViewEventEmitterENS0_9StateDataEED0Ev, symObjAddr: 0x1D10, symBinAddr: 0x5C58, symSize: 0x74 }
  - { offset: 0x7B76D, size: 0x8, addend: 0x0, symName: __ZNK8facebook5react22ConcreteViewShadowNodeIXadL_ZNS0_34ActivityIndicatorViewComponentNameEEENS0_26ActivityIndicatorViewPropsENS0_33ActivityIndicatorViewEventEmitterENS0_9StateDataEE12getTransformEv, symObjAddr: 0x1D84, symBinAddr: 0x5CCC, symSize: 0x40 }
  - { offset: 0x7B7DD, size: 0x8, addend: 0x0, symName: __ZNK8facebook5react22ConcreteViewShadowNodeIXadL_ZNS0_34ActivityIndicatorViewComponentNameEEENS0_26ActivityIndicatorViewPropsENS0_33ActivityIndicatorViewEventEmitterENS0_9StateDataEE16canBeTouchTargetEv, symObjAddr: 0x1DC4, symBinAddr: 0x5D0C, symSize: 0x18 }
  - { offset: 0x7B816, size: 0x8, addend: 0x0, symName: __ZNK8facebook5react22ConcreteViewShadowNodeIXadL_ZNS0_34ActivityIndicatorViewComponentNameEEENS0_26ActivityIndicatorViewPropsENS0_33ActivityIndicatorViewEventEmitterENS0_9StateDataEE16canBeTouchTargetEv, symObjAddr: 0x1DC4, symBinAddr: 0x5D0C, symSize: 0x18 }
  - { offset: 0x7B831, size: 0x8, addend: 0x0, symName: __ZNK8facebook5react22ConcreteViewShadowNodeIXadL_ZNS0_34ActivityIndicatorViewComponentNameEEENS0_26ActivityIndicatorViewPropsENS0_33ActivityIndicatorViewEventEmitterENS0_9StateDataEE16canBeTouchTargetEv, symObjAddr: 0x1DC4, symBinAddr: 0x5D0C, symSize: 0x18 }
  - { offset: 0x7B84E, size: 0x8, addend: 0x0, symName: __ZNK8facebook5react22ConcreteViewShadowNodeIXadL_ZNS0_34ActivityIndicatorViewComponentNameEEENS0_26ActivityIndicatorViewPropsENS0_33ActivityIndicatorViewEventEmitterENS0_9StateDataEE24canChildrenBeTouchTargetEv, symObjAddr: 0x1DDC, symBinAddr: 0x5D24, symSize: 0x18 }
  - { offset: 0x7B882, size: 0x8, addend: 0x0, symName: __ZNK8facebook5react22ConcreteViewShadowNodeIXadL_ZNS0_34ActivityIndicatorViewComponentNameEEENS0_26ActivityIndicatorViewPropsENS0_33ActivityIndicatorViewEventEmitterENS0_9StateDataEE24canChildrenBeTouchTargetEv, symObjAddr: 0x1DDC, symBinAddr: 0x5D24, symSize: 0x18 }
  - { offset: 0x7B89D, size: 0x8, addend: 0x0, symName: __ZNK8facebook5react22ConcreteViewShadowNodeIXadL_ZNS0_34ActivityIndicatorViewComponentNameEEENS0_26ActivityIndicatorViewPropsENS0_33ActivityIndicatorViewEventEmitterENS0_9StateDataEE24canChildrenBeTouchTargetEv, symObjAddr: 0x1DDC, symBinAddr: 0x5D24, symSize: 0x18 }
  - { offset: 0x7BCAB, size: 0x8, addend: 0x0, symName: __ZNSt3__120__shared_ptr_emplaceIN8facebook5react22ConcreteViewShadowNodeIXadL_ZNS2_34ActivityIndicatorViewComponentNameEEENS2_26ActivityIndicatorViewPropsENS2_33ActivityIndicatorViewEventEmitterENS2_9StateDataEEENS_9allocatorIS7_EEEC2B8ne200100IJRKNS2_10ShadowNodeERKNS2_18ShadowNodeFragmentEES9_Li0EEES9_DpOT_, symObjAddr: 0x2130, symBinAddr: 0x5E68, symSize: 0x64 }
  - { offset: 0x7BF74, size: 0x8, addend: 0x0, symName: __ZNSt3__110shared_ptrIKN8facebook5react26ActivityIndicatorViewPropsEED1B8ne200100Ev, symObjAddr: 0x22E0, symBinAddr: 0x5FC0, symSize: 0x4 }
  - { offset: 0x7BFA0, size: 0x8, addend: 0x0, symName: __ZNSt3__110shared_ptrIKN8facebook5react26ActivityIndicatorViewPropsEED1B8ne200100Ev, symObjAddr: 0x22E0, symBinAddr: 0x5FC0, symSize: 0x4 }
  - { offset: 0x7C241, size: 0x8, addend: 0x0, symName: __ZNSt3__120__shared_ptr_emplaceIKN8facebook5react26ActivityIndicatorViewPropsENS_9allocatorIS3_EEEC2B8ne200100IJES6_Li0EEES6_DpOT_, symObjAddr: 0x232C, symBinAddr: 0x600C, symSize: 0x90 }
  - { offset: 0x7C3A2, size: 0x8, addend: 0x0, symName: __ZNSt3__120__shared_ptr_emplaceIKN8facebook5react26ActivityIndicatorViewPropsENS_9allocatorIS3_EEED1Ev, symObjAddr: 0x23BC, symBinAddr: 0x609C, symSize: 0x14 }
  - { offset: 0x7C3C4, size: 0x8, addend: 0x0, symName: __ZNSt3__120__shared_ptr_emplaceIKN8facebook5react26ActivityIndicatorViewPropsENS_9allocatorIS3_EEED1Ev, symObjAddr: 0x23BC, symBinAddr: 0x609C, symSize: 0x14 }
  - { offset: 0x7C3FA, size: 0x8, addend: 0x0, symName: __ZNSt3__120__shared_ptr_emplaceIKN8facebook5react26ActivityIndicatorViewPropsENS_9allocatorIS3_EEED0Ev, symObjAddr: 0x23D0, symBinAddr: 0x60B0, symSize: 0x24 }
  - { offset: 0x7C4C9, size: 0x8, addend: 0x0, symName: __ZNSt3__120__shared_ptr_emplaceIKN8facebook5react26ActivityIndicatorViewPropsENS_9allocatorIS3_EEE16__on_zero_sharedEv, symObjAddr: 0x23F4, symBinAddr: 0x60D4, symSize: 0x34 }
  - { offset: 0x7C5F2, size: 0x8, addend: 0x0, symName: __ZNSt3__120__shared_ptr_emplaceIKN8facebook5react26ActivityIndicatorViewPropsENS_9allocatorIS3_EEE21__on_zero_shared_weakEv, symObjAddr: 0x2428, symBinAddr: 0x6108, symSize: 0x4 }
  - { offset: 0x7C624, size: 0x8, addend: 0x0, symName: __ZNSt3__120__shared_ptr_emplaceIKN8facebook5react26ActivityIndicatorViewPropsENS_9allocatorIS3_EEE21__on_zero_shared_weakEv, symObjAddr: 0x2428, symBinAddr: 0x6108, symSize: 0x4 }
  - { offset: 0x7C645, size: 0x8, addend: 0x0, symName: __ZNSt3__120__shared_ptr_emplaceIKN8facebook5react26ActivityIndicatorViewPropsENS_9allocatorIS3_EEE21__on_zero_shared_weakEv, symObjAddr: 0x2428, symBinAddr: 0x6108, symSize: 0x4 }
  - { offset: 0x7C667, size: 0x8, addend: 0x0, symName: __ZNSt3__120__shared_ptr_emplaceIKN8facebook5react26ActivityIndicatorViewPropsENS_9allocatorIS3_EEE21__on_zero_shared_weakEv, symObjAddr: 0x2428, symBinAddr: 0x6108, symSize: 0x4 }
  - { offset: 0x7C69B, size: 0x8, addend: 0x0, symName: __ZNSt3__120__shared_ptr_emplaceIKN8facebook5react26ActivityIndicatorViewPropsENS_9allocatorIS3_EEE21__on_zero_shared_weakEv, symObjAddr: 0x2428, symBinAddr: 0x6108, symSize: 0x4 }
  - { offset: 0x7C92A, size: 0x8, addend: 0x0, symName: __ZNSt3__120__shared_ptr_emplaceIN8facebook5react26ActivityIndicatorViewPropsENS_9allocatorIS3_EEEC2B8ne200100IJRKNS2_18PropsParserContextERKS3_RKNS2_8RawPropsEES5_Li0EEES5_DpOT_, symObjAddr: 0x24F4, symBinAddr: 0x617C, symSize: 0x4C }
  - { offset: 0x7CB16, size: 0x8, addend: 0x0, symName: __ZNSt3__120__shared_ptr_emplaceIN8facebook5react26ActivityIndicatorViewPropsENS_9allocatorIS3_EEED1Ev, symObjAddr: 0x2540, symBinAddr: 0x61C8, symSize: 0x14 }
  - { offset: 0x7CB38, size: 0x8, addend: 0x0, symName: __ZNSt3__120__shared_ptr_emplaceIN8facebook5react26ActivityIndicatorViewPropsENS_9allocatorIS3_EEED1Ev, symObjAddr: 0x2540, symBinAddr: 0x61C8, symSize: 0x14 }
  - { offset: 0x7CB6E, size: 0x8, addend: 0x0, symName: __ZNSt3__120__shared_ptr_emplaceIN8facebook5react26ActivityIndicatorViewPropsENS_9allocatorIS3_EEED0Ev, symObjAddr: 0x2554, symBinAddr: 0x61DC, symSize: 0x24 }
  - { offset: 0x7CC0D, size: 0x8, addend: 0x0, symName: __ZNSt3__120__shared_ptr_emplaceIN8facebook5react26ActivityIndicatorViewPropsENS_9allocatorIS3_EEE16__on_zero_sharedEv, symObjAddr: 0x2578, symBinAddr: 0x6200, symSize: 0x34 }
  - { offset: 0x7CD36, size: 0x8, addend: 0x0, symName: __ZNSt3__120__shared_ptr_emplaceIN8facebook5react26ActivityIndicatorViewPropsENS_9allocatorIS3_EEE21__on_zero_shared_weakEv, symObjAddr: 0x25AC, symBinAddr: 0x6234, symSize: 0x4 }
  - { offset: 0x7CD68, size: 0x8, addend: 0x0, symName: __ZNSt3__120__shared_ptr_emplaceIN8facebook5react26ActivityIndicatorViewPropsENS_9allocatorIS3_EEE21__on_zero_shared_weakEv, symObjAddr: 0x25AC, symBinAddr: 0x6234, symSize: 0x4 }
  - { offset: 0x7CD89, size: 0x8, addend: 0x0, symName: __ZNSt3__120__shared_ptr_emplaceIN8facebook5react26ActivityIndicatorViewPropsENS_9allocatorIS3_EEE21__on_zero_shared_weakEv, symObjAddr: 0x25AC, symBinAddr: 0x6234, symSize: 0x4 }
  - { offset: 0x7CDAB, size: 0x8, addend: 0x0, symName: __ZNSt3__120__shared_ptr_emplaceIN8facebook5react26ActivityIndicatorViewPropsENS_9allocatorIS3_EEE21__on_zero_shared_weakEv, symObjAddr: 0x25AC, symBinAddr: 0x6234, symSize: 0x4 }
  - { offset: 0x7CDDF, size: 0x8, addend: 0x0, symName: __ZNSt3__120__shared_ptr_emplaceIN8facebook5react26ActivityIndicatorViewPropsENS_9allocatorIS3_EEE21__on_zero_shared_weakEv, symObjAddr: 0x25AC, symBinAddr: 0x6234, symSize: 0x4 }
  - { offset: 0x7CE79, size: 0x8, addend: 0x0, symName: __ZNSt3__112basic_stringIcNS_11char_traitsIcEENS_9allocatorIcEEEC2B8ne200100ILi0EEEPKc, symObjAddr: 0x2688, symBinAddr: 0x6274, symSize: 0xA4 }
  - { offset: 0x7D0E0, size: 0x8, addend: 0x0, symName: __ZNSt3__112basic_stringIcNS_11char_traitsIcEENS_9allocatorIcEEE20__throw_length_errorB8ne200100Ev, symObjAddr: 0x272C, symBinAddr: 0x6318, symSize: 0x14 }
  - { offset: 0x7D0F8, size: 0x8, addend: 0x0, symName: __ZN5folly9TypeErrorC1EOS0_, symObjAddr: 0x2650, symBinAddr: 0x623C, symSize: 0x24 }
  - { offset: 0x7D153, size: 0x8, addend: 0x0, symName: __ZN5folly9TypeErrorD1Ev, symObjAddr: 0x264C, symBinAddr: 0x6238, symSize: 0x4 }
  - { offset: 0x7D175, size: 0x8, addend: 0x0, symName: __ZN5folly9TypeErrorD1Ev, symObjAddr: 0x264C, symBinAddr: 0x6238, symSize: 0x4 }
  - { offset: 0x7D1B0, size: 0x8, addend: 0x0, symName: __ZN5folly9TypeErrorD0Ev, symObjAddr: 0x2674, symBinAddr: 0x6260, symSize: 0x14 }
  - { offset: 0x7D38A, size: 0x8, addend: 0x0, symName: __ZNSt3__112basic_stringIcNS_11char_traitsIcEENS_9allocatorIcEEE20__throw_length_errorB8ne200100Ev, symObjAddr: 0x272C, symBinAddr: 0x6318, symSize: 0x14 }
  - { offset: 0x7D3A2, size: 0x8, addend: 0x0, symName: __ZNSt3__120__throw_length_errorB8ne200100EPKc, symObjAddr: 0x2740, symBinAddr: 0x632C, symSize: 0x50 }
  - { offset: 0x7D3AD, size: 0x8, addend: 0x0, symName: __ZNSt12length_errorC1B8ne200100EPKc, symObjAddr: 0x2790, symBinAddr: 0x637C, symSize: 0x24 }
  - { offset: 0x7D68C, size: 0x8, addend: 0x0, symName: __ZNSt3__120__shared_ptr_emplaceIKN8facebook5react33ActivityIndicatorViewEventEmitterENS_9allocatorIS3_EEEC2B8ne200100IJNS_10shared_ptrINS2_11EventTargetEEERKNS_8weak_ptrIKNS2_15EventDispatcherEEEES6_Li0EEES6_DpOT_, symObjAddr: 0x286C, symBinAddr: 0x6400, symSize: 0x4C }
  - { offset: 0x7D83A, size: 0x8, addend: 0x0, symName: __ZNSt3__120__shared_ptr_emplaceIKN8facebook5react33ActivityIndicatorViewEventEmitterENS_9allocatorIS3_EEED1Ev, symObjAddr: 0x28B8, symBinAddr: 0x644C, symSize: 0x14 }
  - { offset: 0x7D85C, size: 0x8, addend: 0x0, symName: __ZNSt3__120__shared_ptr_emplaceIKN8facebook5react33ActivityIndicatorViewEventEmitterENS_9allocatorIS3_EEED1Ev, symObjAddr: 0x28B8, symBinAddr: 0x644C, symSize: 0x14 }
  - { offset: 0x7D892, size: 0x8, addend: 0x0, symName: __ZNSt3__120__shared_ptr_emplaceIKN8facebook5react33ActivityIndicatorViewEventEmitterENS_9allocatorIS3_EEED0Ev, symObjAddr: 0x28CC, symBinAddr: 0x6460, symSize: 0x24 }
  - { offset: 0x7D961, size: 0x8, addend: 0x0, symName: __ZNSt3__120__shared_ptr_emplaceIKN8facebook5react33ActivityIndicatorViewEventEmitterENS_9allocatorIS3_EEE16__on_zero_sharedEv, symObjAddr: 0x28F0, symBinAddr: 0x6484, symSize: 0xC }
  - { offset: 0x7D98A, size: 0x8, addend: 0x0, symName: __ZNSt3__120__shared_ptr_emplaceIKN8facebook5react33ActivityIndicatorViewEventEmitterENS_9allocatorIS3_EEE16__on_zero_sharedEv, symObjAddr: 0x28F0, symBinAddr: 0x6484, symSize: 0xC }
  - { offset: 0x7D9A8, size: 0x8, addend: 0x0, symName: __ZNSt3__120__shared_ptr_emplaceIKN8facebook5react33ActivityIndicatorViewEventEmitterENS_9allocatorIS3_EEE16__on_zero_sharedEv, symObjAddr: 0x28F0, symBinAddr: 0x6484, symSize: 0xC }
  - { offset: 0x7D9C6, size: 0x8, addend: 0x0, symName: __ZNSt3__120__shared_ptr_emplaceIKN8facebook5react33ActivityIndicatorViewEventEmitterENS_9allocatorIS3_EEE16__on_zero_sharedEv, symObjAddr: 0x28F0, symBinAddr: 0x6484, symSize: 0xC }
  - { offset: 0x7D9F2, size: 0x8, addend: 0x0, symName: __ZNSt3__120__shared_ptr_emplaceIKN8facebook5react33ActivityIndicatorViewEventEmitterENS_9allocatorIS3_EEE21__on_zero_shared_weakEv, symObjAddr: 0x28FC, symBinAddr: 0x6490, symSize: 0x4 }
  - { offset: 0x7DA24, size: 0x8, addend: 0x0, symName: __ZNSt3__120__shared_ptr_emplaceIKN8facebook5react33ActivityIndicatorViewEventEmitterENS_9allocatorIS3_EEE21__on_zero_shared_weakEv, symObjAddr: 0x28FC, symBinAddr: 0x6490, symSize: 0x4 }
  - { offset: 0x7DA45, size: 0x8, addend: 0x0, symName: __ZNSt3__120__shared_ptr_emplaceIKN8facebook5react33ActivityIndicatorViewEventEmitterENS_9allocatorIS3_EEE21__on_zero_shared_weakEv, symObjAddr: 0x28FC, symBinAddr: 0x6490, symSize: 0x4 }
  - { offset: 0x7DA67, size: 0x8, addend: 0x0, symName: __ZNSt3__120__shared_ptr_emplaceIKN8facebook5react33ActivityIndicatorViewEventEmitterENS_9allocatorIS3_EEE21__on_zero_shared_weakEv, symObjAddr: 0x28FC, symBinAddr: 0x6490, symSize: 0x4 }
  - { offset: 0x7DA9A, size: 0x8, addend: 0x0, symName: __ZNSt3__120__shared_ptr_emplaceIKN8facebook5react33ActivityIndicatorViewEventEmitterENS_9allocatorIS3_EEE21__on_zero_shared_weakEv, symObjAddr: 0x28FC, symBinAddr: 0x6490, symSize: 0x4 }
  - { offset: 0x7DF12, size: 0x8, addend: 0x0, symName: __ZN8facebook5react12EventEmitterD2Ev, symObjAddr: 0x2BB4, symBinAddr: 0x66F0, symSize: 0x50 }
  - { offset: 0x7E08A, size: 0x8, addend: 0x0, symName: __ZN8facebook5react33ActivityIndicatorViewEventEmitterD1Ev, symObjAddr: 0x2A40, symBinAddr: 0x65D4, symSize: 0x34 }
  - { offset: 0x7E1B9, size: 0x8, addend: 0x0, symName: __ZN8facebook5react33ActivityIndicatorViewEventEmitterD0Ev, symObjAddr: 0x2A74, symBinAddr: 0x6608, symSize: 0x38 }
  - { offset: 0x7E294, size: 0x8, addend: 0x0, symName: __ZN8facebook5react20BaseViewEventEmitterD1Ev, symObjAddr: 0x2AAC, symBinAddr: 0x6640, symSize: 0x34 }
  - { offset: 0x7E349, size: 0x8, addend: 0x0, symName: __ZN8facebook5react20BaseViewEventEmitterD0Ev, symObjAddr: 0x2AE0, symBinAddr: 0x6674, symSize: 0x38 }
  - { offset: 0x7E424, size: 0x8, addend: 0x0, symName: __ZNSt3__120__shared_ptr_emplaceIN8facebook5react20BaseViewEventEmitter16LayoutEventStateENS_9allocatorIS4_EEED1Ev, symObjAddr: 0x2B18, symBinAddr: 0x66AC, symSize: 0x14 }
  - { offset: 0x7E446, size: 0x8, addend: 0x0, symName: __ZNSt3__120__shared_ptr_emplaceIN8facebook5react20BaseViewEventEmitter16LayoutEventStateENS_9allocatorIS4_EEED1Ev, symObjAddr: 0x2B18, symBinAddr: 0x66AC, symSize: 0x14 }
  - { offset: 0x7E47C, size: 0x8, addend: 0x0, symName: __ZNSt3__120__shared_ptr_emplaceIN8facebook5react20BaseViewEventEmitter16LayoutEventStateENS_9allocatorIS4_EEED0Ev, symObjAddr: 0x2B2C, symBinAddr: 0x66C0, symSize: 0x24 }
  - { offset: 0x7E599, size: 0x8, addend: 0x0, symName: __ZNSt3__120__shared_ptr_emplaceIN8facebook5react20BaseViewEventEmitter16LayoutEventStateENS_9allocatorIS4_EEE16__on_zero_sharedEv, symObjAddr: 0x2B50, symBinAddr: 0x66E4, symSize: 0x8 }
  - { offset: 0x7E5C2, size: 0x8, addend: 0x0, symName: __ZNSt3__120__shared_ptr_emplaceIN8facebook5react20BaseViewEventEmitter16LayoutEventStateENS_9allocatorIS4_EEE16__on_zero_sharedEv, symObjAddr: 0x2B50, symBinAddr: 0x66E4, symSize: 0x8 }
  - { offset: 0x7E5E0, size: 0x8, addend: 0x0, symName: __ZNSt3__120__shared_ptr_emplaceIN8facebook5react20BaseViewEventEmitter16LayoutEventStateENS_9allocatorIS4_EEE16__on_zero_sharedEv, symObjAddr: 0x2B50, symBinAddr: 0x66E4, symSize: 0x8 }
  - { offset: 0x7E6B0, size: 0x8, addend: 0x0, symName: __ZNSt3__120__shared_ptr_emplaceIN8facebook5react20BaseViewEventEmitter16LayoutEventStateENS_9allocatorIS4_EEE21__on_zero_shared_weakEv, symObjAddr: 0x2B58, symBinAddr: 0x66EC, symSize: 0x4 }
  - { offset: 0x7E6E2, size: 0x8, addend: 0x0, symName: __ZNSt3__120__shared_ptr_emplaceIN8facebook5react20BaseViewEventEmitter16LayoutEventStateENS_9allocatorIS4_EEE21__on_zero_shared_weakEv, symObjAddr: 0x2B58, symBinAddr: 0x66EC, symSize: 0x4 }
  - { offset: 0x7E703, size: 0x8, addend: 0x0, symName: __ZNSt3__120__shared_ptr_emplaceIN8facebook5react20BaseViewEventEmitter16LayoutEventStateENS_9allocatorIS4_EEE21__on_zero_shared_weakEv, symObjAddr: 0x2B58, symBinAddr: 0x66EC, symSize: 0x4 }
  - { offset: 0x7E725, size: 0x8, addend: 0x0, symName: __ZNSt3__120__shared_ptr_emplaceIN8facebook5react20BaseViewEventEmitter16LayoutEventStateENS_9allocatorIS4_EEE21__on_zero_shared_weakEv, symObjAddr: 0x2B58, symBinAddr: 0x66EC, symSize: 0x4 }
  - { offset: 0x7E759, size: 0x8, addend: 0x0, symName: __ZNSt3__120__shared_ptr_emplaceIN8facebook5react20BaseViewEventEmitter16LayoutEventStateENS_9allocatorIS4_EEE21__on_zero_shared_weakEv, symObjAddr: 0x2B58, symBinAddr: 0x66EC, symSize: 0x4 }
  - { offset: 0x7E781, size: 0x8, addend: 0x0, symName: __ZN8facebook5react12EventEmitterD1Ev, symObjAddr: 0x2C04, symBinAddr: 0x6740, symSize: 0x4 }
  - { offset: 0x7E7A4, size: 0x8, addend: 0x0, symName: __ZN8facebook5react12EventEmitterD1Ev, symObjAddr: 0x2C04, symBinAddr: 0x6740, symSize: 0x4 }
  - { offset: 0x7E7D7, size: 0x8, addend: 0x0, symName: __ZN8facebook5react12EventEmitterD0Ev, symObjAddr: 0x2C08, symBinAddr: 0x6744, symSize: 0x14 }
  - { offset: 0x7EA87, size: 0x8, addend: 0x0, symName: __ZNSt3__120__shared_ptr_emplaceIN8facebook5react11EventTargetENS_9allocatorIS3_EEEC2B8ne200100IJRKNS_10shared_ptrIKNS2_14InstanceHandleEEERKiES5_Li0EEES5_DpOT_, symObjAddr: 0x2CD4, symBinAddr: 0x67B8, symSize: 0x4C }
  - { offset: 0x7EC35, size: 0x8, addend: 0x0, symName: __ZNSt3__120__shared_ptr_emplaceIN8facebook5react11EventTargetENS_9allocatorIS3_EEED1Ev, symObjAddr: 0x2D20, symBinAddr: 0x6804, symSize: 0x14 }
  - { offset: 0x7EC57, size: 0x8, addend: 0x0, symName: __ZNSt3__120__shared_ptr_emplaceIN8facebook5react11EventTargetENS_9allocatorIS3_EEED1Ev, symObjAddr: 0x2D20, symBinAddr: 0x6804, symSize: 0x14 }
  - { offset: 0x7EC8D, size: 0x8, addend: 0x0, symName: __ZNSt3__120__shared_ptr_emplaceIN8facebook5react11EventTargetENS_9allocatorIS3_EEED0Ev, symObjAddr: 0x2D34, symBinAddr: 0x6818, symSize: 0x24 }
  - { offset: 0x7EDB4, size: 0x8, addend: 0x0, symName: __ZNSt3__120__shared_ptr_emplaceIN8facebook5react11EventTargetENS_9allocatorIS3_EEE16__on_zero_sharedEv, symObjAddr: 0x2D58, symBinAddr: 0x683C, symSize: 0x28 }
  - { offset: 0x7EEC4, size: 0x8, addend: 0x0, symName: __ZNSt3__120__shared_ptr_emplaceIN8facebook5react11EventTargetENS_9allocatorIS3_EEE21__on_zero_shared_weakEv, symObjAddr: 0x2D80, symBinAddr: 0x6864, symSize: 0x4 }
  - { offset: 0x7EEF6, size: 0x8, addend: 0x0, symName: __ZNSt3__120__shared_ptr_emplaceIN8facebook5react11EventTargetENS_9allocatorIS3_EEE21__on_zero_shared_weakEv, symObjAddr: 0x2D80, symBinAddr: 0x6864, symSize: 0x4 }
  - { offset: 0x7EF17, size: 0x8, addend: 0x0, symName: __ZNSt3__120__shared_ptr_emplaceIN8facebook5react11EventTargetENS_9allocatorIS3_EEE21__on_zero_shared_weakEv, symObjAddr: 0x2D80, symBinAddr: 0x6864, symSize: 0x4 }
  - { offset: 0x7EF39, size: 0x8, addend: 0x0, symName: __ZNSt3__120__shared_ptr_emplaceIN8facebook5react11EventTargetENS_9allocatorIS3_EEE21__on_zero_shared_weakEv, symObjAddr: 0x2D80, symBinAddr: 0x6864, symSize: 0x4 }
  - { offset: 0x7EF6C, size: 0x8, addend: 0x0, symName: __ZNSt3__120__shared_ptr_emplaceIN8facebook5react11EventTargetENS_9allocatorIS3_EEE21__on_zero_shared_weakEv, symObjAddr: 0x2D80, symBinAddr: 0x6864, symSize: 0x4 }
  - { offset: 0x7F274, size: 0x8, addend: 0x0, symName: __ZNSt3__120__shared_ptr_emplaceIN8facebook5react16ShadowNodeFamilyENS_9allocatorIS3_EEEC2B8ne200100IJRKNS2_24ShadowNodeFamilyFragmentERNS_10shared_ptrIKNS2_33ActivityIndicatorViewEventEmitterEEERKNS_8weak_ptrIKNS2_15EventDispatcherEEERKNS2_27ConcreteComponentDescriptorINS2_22ConcreteViewShadowNodeIXadL_ZNS2_34ActivityIndicatorViewComponentNameEEENS2_26ActivityIndicatorViewPropsESC_NS2_9StateDataEEEEEES5_Li0EEES5_DpOT_, symObjAddr: 0x2F50, symBinAddr: 0x6984, symSize: 0x4C }
  - { offset: 0x7F49C, size: 0x8, addend: 0x0, symName: __ZNSt3__120__shared_ptr_emplaceIN8facebook5react16ShadowNodeFamilyENS_9allocatorIS3_EEED1Ev, symObjAddr: 0x2F9C, symBinAddr: 0x69D0, symSize: 0x14 }
  - { offset: 0x7F4BE, size: 0x8, addend: 0x0, symName: __ZNSt3__120__shared_ptr_emplaceIN8facebook5react16ShadowNodeFamilyENS_9allocatorIS3_EEED1Ev, symObjAddr: 0x2F9C, symBinAddr: 0x69D0, symSize: 0x14 }
  - { offset: 0x7F4F4, size: 0x8, addend: 0x0, symName: __ZNSt3__120__shared_ptr_emplaceIN8facebook5react16ShadowNodeFamilyENS_9allocatorIS3_EEED0Ev, symObjAddr: 0x2FB0, symBinAddr: 0x69E4, symSize: 0x24 }
  - { offset: 0x7F5C3, size: 0x8, addend: 0x0, symName: __ZNSt3__120__shared_ptr_emplaceIN8facebook5react16ShadowNodeFamilyENS_9allocatorIS3_EEE16__on_zero_sharedEv, symObjAddr: 0x2FD4, symBinAddr: 0x6A08, symSize: 0x8 }
  - { offset: 0x7F5EC, size: 0x8, addend: 0x0, symName: __ZNSt3__120__shared_ptr_emplaceIN8facebook5react16ShadowNodeFamilyENS_9allocatorIS3_EEE16__on_zero_sharedEv, symObjAddr: 0x2FD4, symBinAddr: 0x6A08, symSize: 0x8 }
  - { offset: 0x7F60A, size: 0x8, addend: 0x0, symName: __ZNSt3__120__shared_ptr_emplaceIN8facebook5react16ShadowNodeFamilyENS_9allocatorIS3_EEE16__on_zero_sharedEv, symObjAddr: 0x2FD4, symBinAddr: 0x6A08, symSize: 0x8 }
  - { offset: 0x7F650, size: 0x8, addend: 0x0, symName: __ZNSt3__120__shared_ptr_emplaceIN8facebook5react16ShadowNodeFamilyENS_9allocatorIS3_EEE21__on_zero_shared_weakEv, symObjAddr: 0x2FDC, symBinAddr: 0x6A10, symSize: 0x4 }
  - { offset: 0x7F682, size: 0x8, addend: 0x0, symName: __ZNSt3__120__shared_ptr_emplaceIN8facebook5react16ShadowNodeFamilyENS_9allocatorIS3_EEE21__on_zero_shared_weakEv, symObjAddr: 0x2FDC, symBinAddr: 0x6A10, symSize: 0x4 }
  - { offset: 0x7F6A3, size: 0x8, addend: 0x0, symName: __ZNSt3__120__shared_ptr_emplaceIN8facebook5react16ShadowNodeFamilyENS_9allocatorIS3_EEE21__on_zero_shared_weakEv, symObjAddr: 0x2FDC, symBinAddr: 0x6A10, symSize: 0x4 }
  - { offset: 0x7F6C5, size: 0x8, addend: 0x0, symName: __ZNSt3__120__shared_ptr_emplaceIN8facebook5react16ShadowNodeFamilyENS_9allocatorIS3_EEE21__on_zero_shared_weakEv, symObjAddr: 0x2FDC, symBinAddr: 0x6A10, symSize: 0x4 }
  - { offset: 0x7F6F9, size: 0x8, addend: 0x0, symName: __ZNSt3__120__shared_ptr_emplaceIN8facebook5react16ShadowNodeFamilyENS_9allocatorIS3_EEE21__on_zero_shared_weakEv, symObjAddr: 0x2FDC, symBinAddr: 0x6A10, symSize: 0x4 }
  - { offset: 0x7F983, size: 0x8, addend: 0x0, symName: __ZN8facebook5react14RawPropsParser7prepareINS0_24AndroidDrawerLayoutPropsEEEvv, symObjAddr: 0x32CC, symBinAddr: 0x6BF8, symSize: 0x2C8 }
  - { offset: 0x806E1, size: 0x8, addend: 0x0, symName: __ZN8facebook5react27ConcreteComponentDescriptorINS0_22ConcreteViewShadowNodeIXadL_ZNS0_32AndroidDrawerLayoutComponentNameEEENS0_24AndroidDrawerLayoutPropsENS0_31AndroidDrawerLayoutEventEmitterENS0_9StateDataEEEED1Ev, symObjAddr: 0x3594, symBinAddr: 0x6EC0, symSize: 0x4 }
  - { offset: 0x80703, size: 0x8, addend: 0x0, symName: __ZN8facebook5react27ConcreteComponentDescriptorINS0_22ConcreteViewShadowNodeIXadL_ZNS0_32AndroidDrawerLayoutComponentNameEEENS0_24AndroidDrawerLayoutPropsENS0_31AndroidDrawerLayoutEventEmitterENS0_9StateDataEEEED1Ev, symObjAddr: 0x3594, symBinAddr: 0x6EC0, symSize: 0x4 }
  - { offset: 0x80720, size: 0x8, addend: 0x0, symName: __ZN8facebook5react27ConcreteComponentDescriptorINS0_22ConcreteViewShadowNodeIXadL_ZNS0_32AndroidDrawerLayoutComponentNameEEENS0_24AndroidDrawerLayoutPropsENS0_31AndroidDrawerLayoutEventEmitterENS0_9StateDataEEEED1Ev, symObjAddr: 0x3594, symBinAddr: 0x6EC0, symSize: 0x4 }
  - { offset: 0x8074F, size: 0x8, addend: 0x0, symName: __ZN8facebook5react27ConcreteComponentDescriptorINS0_22ConcreteViewShadowNodeIXadL_ZNS0_32AndroidDrawerLayoutComponentNameEEENS0_24AndroidDrawerLayoutPropsENS0_31AndroidDrawerLayoutEventEmitterENS0_9StateDataEEEED0Ev, symObjAddr: 0x3598, symBinAddr: 0x6EC4, symSize: 0x14 }
  - { offset: 0x807C7, size: 0x8, addend: 0x0, symName: __ZNK8facebook5react27ConcreteComponentDescriptorINS0_22ConcreteViewShadowNodeIXadL_ZNS0_32AndroidDrawerLayoutComponentNameEEENS0_24AndroidDrawerLayoutPropsENS0_31AndroidDrawerLayoutEventEmitterENS0_9StateDataEEEE18getComponentHandleEv, symObjAddr: 0x35AC, symBinAddr: 0x6ED8, symSize: 0xC }
  - { offset: 0x807EE, size: 0x8, addend: 0x0, symName: __ZNK8facebook5react27ConcreteComponentDescriptorINS0_22ConcreteViewShadowNodeIXadL_ZNS0_32AndroidDrawerLayoutComponentNameEEENS0_24AndroidDrawerLayoutPropsENS0_31AndroidDrawerLayoutEventEmitterENS0_9StateDataEEEE16getComponentNameEv, symObjAddr: 0x35B8, symBinAddr: 0x6EE4, symSize: 0xC }
  - { offset: 0x80815, size: 0x8, addend: 0x0, symName: __ZNK8facebook5react27ConcreteComponentDescriptorINS0_22ConcreteViewShadowNodeIXadL_ZNS0_32AndroidDrawerLayoutComponentNameEEENS0_24AndroidDrawerLayoutPropsENS0_31AndroidDrawerLayoutEventEmitterENS0_9StateDataEEEE9getTraitsEv, symObjAddr: 0x35C4, symBinAddr: 0x6EF0, symSize: 0x8 }
  - { offset: 0x80915, size: 0x8, addend: 0x0, symName: __ZNK8facebook5react27ConcreteComponentDescriptorINS0_22ConcreteViewShadowNodeIXadL_ZNS0_32AndroidDrawerLayoutComponentNameEEENS0_24AndroidDrawerLayoutPropsENS0_31AndroidDrawerLayoutEventEmitterENS0_9StateDataEEEE16createShadowNodeERKNS0_18ShadowNodeFragmentERKNSt3__110shared_ptrIKNS0_16ShadowNodeFamilyEEE, symObjAddr: 0x35CC, symBinAddr: 0x6EF8, symSize: 0x90 }
  - { offset: 0x80B60, size: 0x8, addend: 0x0, symName: __ZNK8facebook5react27ConcreteComponentDescriptorINS0_22ConcreteViewShadowNodeIXadL_ZNS0_32AndroidDrawerLayoutComponentNameEEENS0_24AndroidDrawerLayoutPropsENS0_31AndroidDrawerLayoutEventEmitterENS0_9StateDataEEEE15cloneShadowNodeERKNS0_10ShadowNodeERKNS0_18ShadowNodeFragmentE, symObjAddr: 0x365C, symBinAddr: 0x6F88, symSize: 0x104 }
  - { offset: 0x80E58, size: 0x8, addend: 0x0, symName: __ZNK8facebook5react27ConcreteComponentDescriptorINS0_22ConcreteViewShadowNodeIXadL_ZNS0_32AndroidDrawerLayoutComponentNameEEENS0_24AndroidDrawerLayoutPropsENS0_31AndroidDrawerLayoutEventEmitterENS0_9StateDataEEEE11appendChildERKNSt3__110shared_ptrIKNS0_10ShadowNodeEEESE_, symObjAddr: 0x3760, symBinAddr: 0x708C, symSize: 0x14 }
  - { offset: 0x80EAF, size: 0x8, addend: 0x0, symName: __ZNK8facebook5react27ConcreteComponentDescriptorINS0_22ConcreteViewShadowNodeIXadL_ZNS0_32AndroidDrawerLayoutComponentNameEEENS0_24AndroidDrawerLayoutPropsENS0_31AndroidDrawerLayoutEventEmitterENS0_9StateDataEEEE11appendChildERKNSt3__110shared_ptrIKNS0_10ShadowNodeEEESE_, symObjAddr: 0x3760, symBinAddr: 0x708C, symSize: 0x14 }
  - { offset: 0x80FD9, size: 0x8, addend: 0x0, symName: __ZNK8facebook5react27ConcreteComponentDescriptorINS0_22ConcreteViewShadowNodeIXadL_ZNS0_32AndroidDrawerLayoutComponentNameEEENS0_24AndroidDrawerLayoutPropsENS0_31AndroidDrawerLayoutEventEmitterENS0_9StateDataEEEE10clonePropsERKNS0_18PropsParserContextERKNSt3__110shared_ptrIKNS0_5PropsEEENS0_8RawPropsE, symObjAddr: 0x3774, symBinAddr: 0x70A0, symSize: 0x21C }
  - { offset: 0x81AFD, size: 0x8, addend: 0x0, symName: __ZN8facebook5react18ConcreteShadowNodeIXadL_ZNS0_32AndroidDrawerLayoutComponentNameEEENS0_24YogaLayoutableShadowNodeENS0_24AndroidDrawerLayoutPropsENS0_31AndroidDrawerLayoutEventEmitterENS0_9StateDataEE5PropsERKNS0_18PropsParserContextERKNS0_8RawPropsERKNSt3__110shared_ptrIKNS0_5PropsEEE, symObjAddr: 0x4020, symBinAddr: 0x7888, symSize: 0x58 }
  - { offset: 0x81C4D, size: 0x8, addend: 0x0, symName: __ZNK8facebook5react27ConcreteComponentDescriptorINS0_22ConcreteViewShadowNodeIXadL_ZNS0_32AndroidDrawerLayoutComponentNameEEENS0_24AndroidDrawerLayoutPropsENS0_31AndroidDrawerLayoutEventEmitterENS0_9StateDataEEEE18createInitialStateERKNSt3__110shared_ptrIKNS0_5PropsEEERKNS9_IKNS0_16ShadowNodeFamilyEEE, symObjAddr: 0x3990, symBinAddr: 0x72BC, symSize: 0x8 }
  - { offset: 0x81C90, size: 0x8, addend: 0x0, symName: __ZNK8facebook5react27ConcreteComponentDescriptorINS0_22ConcreteViewShadowNodeIXadL_ZNS0_32AndroidDrawerLayoutComponentNameEEENS0_24AndroidDrawerLayoutPropsENS0_31AndroidDrawerLayoutEventEmitterENS0_9StateDataEEEE18createInitialStateERKNSt3__110shared_ptrIKNS0_5PropsEEERKNS9_IKNS0_16ShadowNodeFamilyEEE, symObjAddr: 0x3990, symBinAddr: 0x72BC, symSize: 0x8 }
  - { offset: 0x81CB1, size: 0x8, addend: 0x0, symName: __ZNK8facebook5react27ConcreteComponentDescriptorINS0_22ConcreteViewShadowNodeIXadL_ZNS0_32AndroidDrawerLayoutComponentNameEEENS0_24AndroidDrawerLayoutPropsENS0_31AndroidDrawerLayoutEventEmitterENS0_9StateDataEEEE18createInitialStateERKNSt3__110shared_ptrIKNS0_5PropsEEERKNS9_IKNS0_16ShadowNodeFamilyEEE, symObjAddr: 0x3990, symBinAddr: 0x72BC, symSize: 0x8 }
  - { offset: 0x81CD3, size: 0x8, addend: 0x0, symName: __ZNK8facebook5react27ConcreteComponentDescriptorINS0_22ConcreteViewShadowNodeIXadL_ZNS0_32AndroidDrawerLayoutComponentNameEEENS0_24AndroidDrawerLayoutPropsENS0_31AndroidDrawerLayoutEventEmitterENS0_9StateDataEEEE11createStateERKNS0_16ShadowNodeFamilyERKNSt3__110shared_ptrIKvEE, symObjAddr: 0x3998, symBinAddr: 0x72C4, symSize: 0x8 }
  - { offset: 0x81D16, size: 0x8, addend: 0x0, symName: __ZNK8facebook5react27ConcreteComponentDescriptorINS0_22ConcreteViewShadowNodeIXadL_ZNS0_32AndroidDrawerLayoutComponentNameEEENS0_24AndroidDrawerLayoutPropsENS0_31AndroidDrawerLayoutEventEmitterENS0_9StateDataEEEE11createStateERKNS0_16ShadowNodeFamilyERKNSt3__110shared_ptrIKvEE, symObjAddr: 0x3998, symBinAddr: 0x72C4, symSize: 0x8 }
  - { offset: 0x81D37, size: 0x8, addend: 0x0, symName: __ZNK8facebook5react27ConcreteComponentDescriptorINS0_22ConcreteViewShadowNodeIXadL_ZNS0_32AndroidDrawerLayoutComponentNameEEENS0_24AndroidDrawerLayoutPropsENS0_31AndroidDrawerLayoutEventEmitterENS0_9StateDataEEEE11createStateERKNS0_16ShadowNodeFamilyERKNSt3__110shared_ptrIKvEE, symObjAddr: 0x3998, symBinAddr: 0x72C4, symSize: 0x8 }
  - { offset: 0x81DDE, size: 0x8, addend: 0x0, symName: __ZNK8facebook5react27ConcreteComponentDescriptorINS0_22ConcreteViewShadowNodeIXadL_ZNS0_32AndroidDrawerLayoutComponentNameEEENS0_24AndroidDrawerLayoutPropsENS0_31AndroidDrawerLayoutEventEmitterENS0_9StateDataEEEE12createFamilyERKNS0_24ShadowNodeFamilyFragmentE, symObjAddr: 0x39A0, symBinAddr: 0x72CC, symSize: 0x168 }
  - { offset: 0x82288, size: 0x8, addend: 0x0, symName: __ZNK8facebook5react27ConcreteComponentDescriptorINS0_22ConcreteViewShadowNodeIXadL_ZNS0_32AndroidDrawerLayoutComponentNameEEENS0_24AndroidDrawerLayoutPropsENS0_31AndroidDrawerLayoutEventEmitterENS0_9StateDataEEEE5adoptERNS0_10ShadowNodeE, symObjAddr: 0x3B08, symBinAddr: 0x7434, symSize: 0x4 }
  - { offset: 0x822BB, size: 0x8, addend: 0x0, symName: __ZN8facebook5react24AndroidDrawerLayoutPropsD1Ev, symObjAddr: 0x3B0C, symBinAddr: 0x7438, symSize: 0x3C }
  - { offset: 0x82408, size: 0x8, addend: 0x0, symName: __ZN8facebook5react24AndroidDrawerLayoutPropsD0Ev, symObjAddr: 0x3B48, symBinAddr: 0x7474, symSize: 0x40 }
  - { offset: 0x827E5, size: 0x8, addend: 0x0, symName: __ZNSt3__120__shared_ptr_emplaceIN8facebook5react22ConcreteViewShadowNodeIXadL_ZNS2_32AndroidDrawerLayoutComponentNameEEENS2_24AndroidDrawerLayoutPropsENS2_31AndroidDrawerLayoutEventEmitterENS2_9StateDataEEENS_9allocatorIS7_EEEC2B8ne200100IJRKNS2_18ShadowNodeFragmentERKNS_10shared_ptrIKNS2_16ShadowNodeFamilyEEENS2_16ShadowNodeTraitsEES9_Li0EEES9_DpOT_, symObjAddr: 0x3BF8, symBinAddr: 0x7524, symSize: 0x68 }
  - { offset: 0x82BB2, size: 0x8, addend: 0x0, symName: __ZNSt3__120__shared_ptr_emplaceIN8facebook5react22ConcreteViewShadowNodeIXadL_ZNS2_32AndroidDrawerLayoutComponentNameEEENS2_24AndroidDrawerLayoutPropsENS2_31AndroidDrawerLayoutEventEmitterENS2_9StateDataEEENS_9allocatorIS7_EEED1Ev, symObjAddr: 0x3C60, symBinAddr: 0x758C, symSize: 0x14 }
  - { offset: 0x82BD4, size: 0x8, addend: 0x0, symName: __ZNSt3__120__shared_ptr_emplaceIN8facebook5react22ConcreteViewShadowNodeIXadL_ZNS2_32AndroidDrawerLayoutComponentNameEEENS2_24AndroidDrawerLayoutPropsENS2_31AndroidDrawerLayoutEventEmitterENS2_9StateDataEEENS_9allocatorIS7_EEED1Ev, symObjAddr: 0x3C60, symBinAddr: 0x758C, symSize: 0x14 }
  - { offset: 0x82C0A, size: 0x8, addend: 0x0, symName: __ZNSt3__120__shared_ptr_emplaceIN8facebook5react22ConcreteViewShadowNodeIXadL_ZNS2_32AndroidDrawerLayoutComponentNameEEENS2_24AndroidDrawerLayoutPropsENS2_31AndroidDrawerLayoutEventEmitterENS2_9StateDataEEENS_9allocatorIS7_EEED0Ev, symObjAddr: 0x3C74, symBinAddr: 0x75A0, symSize: 0x24 }
  - { offset: 0x82CD9, size: 0x8, addend: 0x0, symName: __ZNSt3__120__shared_ptr_emplaceIN8facebook5react22ConcreteViewShadowNodeIXadL_ZNS2_32AndroidDrawerLayoutComponentNameEEENS2_24AndroidDrawerLayoutPropsENS2_31AndroidDrawerLayoutEventEmitterENS2_9StateDataEEENS_9allocatorIS7_EEE16__on_zero_sharedEv, symObjAddr: 0x3C98, symBinAddr: 0x75C4, symSize: 0xC }
  - { offset: 0x82D02, size: 0x8, addend: 0x0, symName: __ZNSt3__120__shared_ptr_emplaceIN8facebook5react22ConcreteViewShadowNodeIXadL_ZNS2_32AndroidDrawerLayoutComponentNameEEENS2_24AndroidDrawerLayoutPropsENS2_31AndroidDrawerLayoutEventEmitterENS2_9StateDataEEENS_9allocatorIS7_EEE16__on_zero_sharedEv, symObjAddr: 0x3C98, symBinAddr: 0x75C4, symSize: 0xC }
  - { offset: 0x82D20, size: 0x8, addend: 0x0, symName: __ZNSt3__120__shared_ptr_emplaceIN8facebook5react22ConcreteViewShadowNodeIXadL_ZNS2_32AndroidDrawerLayoutComponentNameEEENS2_24AndroidDrawerLayoutPropsENS2_31AndroidDrawerLayoutEventEmitterENS2_9StateDataEEENS_9allocatorIS7_EEE16__on_zero_sharedEv, symObjAddr: 0x3C98, symBinAddr: 0x75C4, symSize: 0xC }
  - { offset: 0x82D3E, size: 0x8, addend: 0x0, symName: __ZNSt3__120__shared_ptr_emplaceIN8facebook5react22ConcreteViewShadowNodeIXadL_ZNS2_32AndroidDrawerLayoutComponentNameEEENS2_24AndroidDrawerLayoutPropsENS2_31AndroidDrawerLayoutEventEmitterENS2_9StateDataEEENS_9allocatorIS7_EEE16__on_zero_sharedEv, symObjAddr: 0x3C98, symBinAddr: 0x75C4, symSize: 0xC }
  - { offset: 0x82D6A, size: 0x8, addend: 0x0, symName: __ZNSt3__120__shared_ptr_emplaceIN8facebook5react22ConcreteViewShadowNodeIXadL_ZNS2_32AndroidDrawerLayoutComponentNameEEENS2_24AndroidDrawerLayoutPropsENS2_31AndroidDrawerLayoutEventEmitterENS2_9StateDataEEENS_9allocatorIS7_EEE21__on_zero_shared_weakEv, symObjAddr: 0x3CA4, symBinAddr: 0x75D0, symSize: 0x4 }
  - { offset: 0x82D9C, size: 0x8, addend: 0x0, symName: __ZNSt3__120__shared_ptr_emplaceIN8facebook5react22ConcreteViewShadowNodeIXadL_ZNS2_32AndroidDrawerLayoutComponentNameEEENS2_24AndroidDrawerLayoutPropsENS2_31AndroidDrawerLayoutEventEmitterENS2_9StateDataEEENS_9allocatorIS7_EEE21__on_zero_shared_weakEv, symObjAddr: 0x3CA4, symBinAddr: 0x75D0, symSize: 0x4 }
  - { offset: 0x82DBD, size: 0x8, addend: 0x0, symName: __ZNSt3__120__shared_ptr_emplaceIN8facebook5react22ConcreteViewShadowNodeIXadL_ZNS2_32AndroidDrawerLayoutComponentNameEEENS2_24AndroidDrawerLayoutPropsENS2_31AndroidDrawerLayoutEventEmitterENS2_9StateDataEEENS_9allocatorIS7_EEE21__on_zero_shared_weakEv, symObjAddr: 0x3CA4, symBinAddr: 0x75D0, symSize: 0x4 }
  - { offset: 0x82DDF, size: 0x8, addend: 0x0, symName: __ZNSt3__120__shared_ptr_emplaceIN8facebook5react22ConcreteViewShadowNodeIXadL_ZNS2_32AndroidDrawerLayoutComponentNameEEENS2_24AndroidDrawerLayoutPropsENS2_31AndroidDrawerLayoutEventEmitterENS2_9StateDataEEENS_9allocatorIS7_EEE21__on_zero_shared_weakEv, symObjAddr: 0x3CA4, symBinAddr: 0x75D0, symSize: 0x4 }
  - { offset: 0x82E13, size: 0x8, addend: 0x0, symName: __ZNSt3__120__shared_ptr_emplaceIN8facebook5react22ConcreteViewShadowNodeIXadL_ZNS2_32AndroidDrawerLayoutComponentNameEEENS2_24AndroidDrawerLayoutPropsENS2_31AndroidDrawerLayoutEventEmitterENS2_9StateDataEEENS_9allocatorIS7_EEE21__on_zero_shared_weakEv, symObjAddr: 0x3CA4, symBinAddr: 0x75D0, symSize: 0x4 }
  - { offset: 0x82E8F, size: 0x8, addend: 0x0, symName: __ZN8facebook5react22ConcreteViewShadowNodeIXadL_ZNS0_32AndroidDrawerLayoutComponentNameEEENS0_24AndroidDrawerLayoutPropsENS0_31AndroidDrawerLayoutEventEmitterENS0_9StateDataEED1Ev, symObjAddr: 0x3D14, symBinAddr: 0x75D4, symSize: 0x70 }
  - { offset: 0x83259, size: 0x8, addend: 0x0, symName: __ZN8facebook5react22ConcreteViewShadowNodeIXadL_ZNS0_32AndroidDrawerLayoutComponentNameEEENS0_24AndroidDrawerLayoutPropsENS0_31AndroidDrawerLayoutEventEmitterENS0_9StateDataEED0Ev, symObjAddr: 0x3D84, symBinAddr: 0x7644, symSize: 0x74 }
  - { offset: 0x8362D, size: 0x8, addend: 0x0, symName: __ZNK8facebook5react22ConcreteViewShadowNodeIXadL_ZNS0_32AndroidDrawerLayoutComponentNameEEENS0_24AndroidDrawerLayoutPropsENS0_31AndroidDrawerLayoutEventEmitterENS0_9StateDataEE12getTransformEv, symObjAddr: 0x3DF8, symBinAddr: 0x76B8, symSize: 0x40 }
  - { offset: 0x8369D, size: 0x8, addend: 0x0, symName: __ZNK8facebook5react22ConcreteViewShadowNodeIXadL_ZNS0_32AndroidDrawerLayoutComponentNameEEENS0_24AndroidDrawerLayoutPropsENS0_31AndroidDrawerLayoutEventEmitterENS0_9StateDataEE16canBeTouchTargetEv, symObjAddr: 0x3E38, symBinAddr: 0x76F8, symSize: 0x18 }
  - { offset: 0x836D6, size: 0x8, addend: 0x0, symName: __ZNK8facebook5react22ConcreteViewShadowNodeIXadL_ZNS0_32AndroidDrawerLayoutComponentNameEEENS0_24AndroidDrawerLayoutPropsENS0_31AndroidDrawerLayoutEventEmitterENS0_9StateDataEE16canBeTouchTargetEv, symObjAddr: 0x3E38, symBinAddr: 0x76F8, symSize: 0x18 }
  - { offset: 0x836F1, size: 0x8, addend: 0x0, symName: __ZNK8facebook5react22ConcreteViewShadowNodeIXadL_ZNS0_32AndroidDrawerLayoutComponentNameEEENS0_24AndroidDrawerLayoutPropsENS0_31AndroidDrawerLayoutEventEmitterENS0_9StateDataEE16canBeTouchTargetEv, symObjAddr: 0x3E38, symBinAddr: 0x76F8, symSize: 0x18 }
  - { offset: 0x8370E, size: 0x8, addend: 0x0, symName: __ZNK8facebook5react22ConcreteViewShadowNodeIXadL_ZNS0_32AndroidDrawerLayoutComponentNameEEENS0_24AndroidDrawerLayoutPropsENS0_31AndroidDrawerLayoutEventEmitterENS0_9StateDataEE24canChildrenBeTouchTargetEv, symObjAddr: 0x3E50, symBinAddr: 0x7710, symSize: 0x18 }
  - { offset: 0x83742, size: 0x8, addend: 0x0, symName: __ZNK8facebook5react22ConcreteViewShadowNodeIXadL_ZNS0_32AndroidDrawerLayoutComponentNameEEENS0_24AndroidDrawerLayoutPropsENS0_31AndroidDrawerLayoutEventEmitterENS0_9StateDataEE24canChildrenBeTouchTargetEv, symObjAddr: 0x3E50, symBinAddr: 0x7710, symSize: 0x18 }
  - { offset: 0x8375D, size: 0x8, addend: 0x0, symName: __ZNK8facebook5react22ConcreteViewShadowNodeIXadL_ZNS0_32AndroidDrawerLayoutComponentNameEEENS0_24AndroidDrawerLayoutPropsENS0_31AndroidDrawerLayoutEventEmitterENS0_9StateDataEE24canChildrenBeTouchTargetEv, symObjAddr: 0x3E50, symBinAddr: 0x7710, symSize: 0x18 }
  - { offset: 0x837D8, size: 0x8, addend: 0x0, symName: __ZNSt3__120__shared_ptr_emplaceIN8facebook5react22ConcreteViewShadowNodeIXadL_ZNS2_32AndroidDrawerLayoutComponentNameEEENS2_24AndroidDrawerLayoutPropsENS2_31AndroidDrawerLayoutEventEmitterENS2_9StateDataEEENS_9allocatorIS7_EEEC2B8ne200100IJRKNS2_10ShadowNodeERKNS2_18ShadowNodeFragmentEES9_Li0EEES9_DpOT_, symObjAddr: 0x3F20, symBinAddr: 0x7788, symSize: 0x64 }
  - { offset: 0x83AA1, size: 0x8, addend: 0x0, symName: __ZNSt3__110shared_ptrIKN8facebook5react24AndroidDrawerLayoutPropsEED1B8ne200100Ev, symObjAddr: 0x4078, symBinAddr: 0x78E0, symSize: 0x4 }
  - { offset: 0x83ACD, size: 0x8, addend: 0x0, symName: __ZNSt3__110shared_ptrIKN8facebook5react24AndroidDrawerLayoutPropsEED1B8ne200100Ev, symObjAddr: 0x4078, symBinAddr: 0x78E0, symSize: 0x4 }
  - { offset: 0x83D6E, size: 0x8, addend: 0x0, symName: __ZNSt3__120__shared_ptr_emplaceIKN8facebook5react24AndroidDrawerLayoutPropsENS_9allocatorIS3_EEEC2B8ne200100IJES6_Li0EEES6_DpOT_, symObjAddr: 0x40C4, symBinAddr: 0x792C, symSize: 0x94 }
  - { offset: 0x84052, size: 0x8, addend: 0x0, symName: __ZNSt3__120__shared_ptr_emplaceIKN8facebook5react24AndroidDrawerLayoutPropsENS_9allocatorIS3_EEED1Ev, symObjAddr: 0x4158, symBinAddr: 0x79C0, symSize: 0x14 }
  - { offset: 0x84074, size: 0x8, addend: 0x0, symName: __ZNSt3__120__shared_ptr_emplaceIKN8facebook5react24AndroidDrawerLayoutPropsENS_9allocatorIS3_EEED1Ev, symObjAddr: 0x4158, symBinAddr: 0x79C0, symSize: 0x14 }
  - { offset: 0x840AA, size: 0x8, addend: 0x0, symName: __ZNSt3__120__shared_ptr_emplaceIKN8facebook5react24AndroidDrawerLayoutPropsENS_9allocatorIS3_EEED0Ev, symObjAddr: 0x416C, symBinAddr: 0x79D4, symSize: 0x24 }
  - { offset: 0x84179, size: 0x8, addend: 0x0, symName: __ZNSt3__120__shared_ptr_emplaceIKN8facebook5react24AndroidDrawerLayoutPropsENS_9allocatorIS3_EEE16__on_zero_sharedEv, symObjAddr: 0x4190, symBinAddr: 0x79F8, symSize: 0x8 }
  - { offset: 0x841A2, size: 0x8, addend: 0x0, symName: __ZNSt3__120__shared_ptr_emplaceIKN8facebook5react24AndroidDrawerLayoutPropsENS_9allocatorIS3_EEE16__on_zero_sharedEv, symObjAddr: 0x4190, symBinAddr: 0x79F8, symSize: 0x8 }
  - { offset: 0x841C0, size: 0x8, addend: 0x0, symName: __ZNSt3__120__shared_ptr_emplaceIKN8facebook5react24AndroidDrawerLayoutPropsENS_9allocatorIS3_EEE16__on_zero_sharedEv, symObjAddr: 0x4190, symBinAddr: 0x79F8, symSize: 0x8 }
  - { offset: 0x841FD, size: 0x8, addend: 0x0, symName: __ZNSt3__120__shared_ptr_emplaceIKN8facebook5react24AndroidDrawerLayoutPropsENS_9allocatorIS3_EEE21__on_zero_shared_weakEv, symObjAddr: 0x4198, symBinAddr: 0x7A00, symSize: 0x4 }
  - { offset: 0x8422F, size: 0x8, addend: 0x0, symName: __ZNSt3__120__shared_ptr_emplaceIKN8facebook5react24AndroidDrawerLayoutPropsENS_9allocatorIS3_EEE21__on_zero_shared_weakEv, symObjAddr: 0x4198, symBinAddr: 0x7A00, symSize: 0x4 }
  - { offset: 0x84250, size: 0x8, addend: 0x0, symName: __ZNSt3__120__shared_ptr_emplaceIKN8facebook5react24AndroidDrawerLayoutPropsENS_9allocatorIS3_EEE21__on_zero_shared_weakEv, symObjAddr: 0x4198, symBinAddr: 0x7A00, symSize: 0x4 }
  - { offset: 0x84272, size: 0x8, addend: 0x0, symName: __ZNSt3__120__shared_ptr_emplaceIKN8facebook5react24AndroidDrawerLayoutPropsENS_9allocatorIS3_EEE21__on_zero_shared_weakEv, symObjAddr: 0x4198, symBinAddr: 0x7A00, symSize: 0x4 }
  - { offset: 0x842A6, size: 0x8, addend: 0x0, symName: __ZNSt3__120__shared_ptr_emplaceIKN8facebook5react24AndroidDrawerLayoutPropsENS_9allocatorIS3_EEE21__on_zero_shared_weakEv, symObjAddr: 0x4198, symBinAddr: 0x7A00, symSize: 0x4 }
  - { offset: 0x84535, size: 0x8, addend: 0x0, symName: __ZNSt3__120__shared_ptr_emplaceIN8facebook5react24AndroidDrawerLayoutPropsENS_9allocatorIS3_EEEC2B8ne200100IJRKNS2_18PropsParserContextERKS3_RKNS2_8RawPropsEES5_Li0EEES5_DpOT_, symObjAddr: 0x42A0, symBinAddr: 0x7AB0, symSize: 0x4C }
  - { offset: 0x84721, size: 0x8, addend: 0x0, symName: __ZNSt3__120__shared_ptr_emplaceIN8facebook5react24AndroidDrawerLayoutPropsENS_9allocatorIS3_EEED1Ev, symObjAddr: 0x42EC, symBinAddr: 0x7AFC, symSize: 0x14 }
  - { offset: 0x84743, size: 0x8, addend: 0x0, symName: __ZNSt3__120__shared_ptr_emplaceIN8facebook5react24AndroidDrawerLayoutPropsENS_9allocatorIS3_EEED1Ev, symObjAddr: 0x42EC, symBinAddr: 0x7AFC, symSize: 0x14 }
  - { offset: 0x84779, size: 0x8, addend: 0x0, symName: __ZNSt3__120__shared_ptr_emplaceIN8facebook5react24AndroidDrawerLayoutPropsENS_9allocatorIS3_EEED0Ev, symObjAddr: 0x4300, symBinAddr: 0x7B10, symSize: 0x24 }
  - { offset: 0x84818, size: 0x8, addend: 0x0, symName: __ZNSt3__120__shared_ptr_emplaceIN8facebook5react24AndroidDrawerLayoutPropsENS_9allocatorIS3_EEE16__on_zero_sharedEv, symObjAddr: 0x4324, symBinAddr: 0x7B34, symSize: 0x8 }
  - { offset: 0x84841, size: 0x8, addend: 0x0, symName: __ZNSt3__120__shared_ptr_emplaceIN8facebook5react24AndroidDrawerLayoutPropsENS_9allocatorIS3_EEE16__on_zero_sharedEv, symObjAddr: 0x4324, symBinAddr: 0x7B34, symSize: 0x8 }
  - { offset: 0x8485F, size: 0x8, addend: 0x0, symName: __ZNSt3__120__shared_ptr_emplaceIN8facebook5react24AndroidDrawerLayoutPropsENS_9allocatorIS3_EEE16__on_zero_sharedEv, symObjAddr: 0x4324, symBinAddr: 0x7B34, symSize: 0x8 }
  - { offset: 0x8489C, size: 0x8, addend: 0x0, symName: __ZNSt3__120__shared_ptr_emplaceIN8facebook5react24AndroidDrawerLayoutPropsENS_9allocatorIS3_EEE21__on_zero_shared_weakEv, symObjAddr: 0x432C, symBinAddr: 0x7B3C, symSize: 0x4 }
  - { offset: 0x848CE, size: 0x8, addend: 0x0, symName: __ZNSt3__120__shared_ptr_emplaceIN8facebook5react24AndroidDrawerLayoutPropsENS_9allocatorIS3_EEE21__on_zero_shared_weakEv, symObjAddr: 0x432C, symBinAddr: 0x7B3C, symSize: 0x4 }
  - { offset: 0x848EF, size: 0x8, addend: 0x0, symName: __ZNSt3__120__shared_ptr_emplaceIN8facebook5react24AndroidDrawerLayoutPropsENS_9allocatorIS3_EEE21__on_zero_shared_weakEv, symObjAddr: 0x432C, symBinAddr: 0x7B3C, symSize: 0x4 }
  - { offset: 0x84911, size: 0x8, addend: 0x0, symName: __ZNSt3__120__shared_ptr_emplaceIN8facebook5react24AndroidDrawerLayoutPropsENS_9allocatorIS3_EEE21__on_zero_shared_weakEv, symObjAddr: 0x432C, symBinAddr: 0x7B3C, symSize: 0x4 }
  - { offset: 0x84945, size: 0x8, addend: 0x0, symName: __ZNSt3__120__shared_ptr_emplaceIN8facebook5react24AndroidDrawerLayoutPropsENS_9allocatorIS3_EEE21__on_zero_shared_weakEv, symObjAddr: 0x432C, symBinAddr: 0x7B3C, symSize: 0x4 }
  - { offset: 0x84BC3, size: 0x8, addend: 0x0, symName: __ZNSt3__120__shared_ptr_emplaceIKN8facebook5react31AndroidDrawerLayoutEventEmitterENS_9allocatorIS3_EEEC2B8ne200100IJNS_10shared_ptrINS2_11EventTargetEEERKNS_8weak_ptrIKNS2_15EventDispatcherEEEES6_Li0EEES6_DpOT_, symObjAddr: 0x43E8, symBinAddr: 0x7BA0, symSize: 0x4C }
  - { offset: 0x84D71, size: 0x8, addend: 0x0, symName: __ZNSt3__120__shared_ptr_emplaceIKN8facebook5react31AndroidDrawerLayoutEventEmitterENS_9allocatorIS3_EEED1Ev, symObjAddr: 0x4434, symBinAddr: 0x7BEC, symSize: 0x14 }
  - { offset: 0x84D93, size: 0x8, addend: 0x0, symName: __ZNSt3__120__shared_ptr_emplaceIKN8facebook5react31AndroidDrawerLayoutEventEmitterENS_9allocatorIS3_EEED1Ev, symObjAddr: 0x4434, symBinAddr: 0x7BEC, symSize: 0x14 }
  - { offset: 0x84DC9, size: 0x8, addend: 0x0, symName: __ZNSt3__120__shared_ptr_emplaceIKN8facebook5react31AndroidDrawerLayoutEventEmitterENS_9allocatorIS3_EEED0Ev, symObjAddr: 0x4448, symBinAddr: 0x7C00, symSize: 0x24 }
  - { offset: 0x84E98, size: 0x8, addend: 0x0, symName: __ZNSt3__120__shared_ptr_emplaceIKN8facebook5react31AndroidDrawerLayoutEventEmitterENS_9allocatorIS3_EEE16__on_zero_sharedEv, symObjAddr: 0x446C, symBinAddr: 0x7C24, symSize: 0xC }
  - { offset: 0x84EC1, size: 0x8, addend: 0x0, symName: __ZNSt3__120__shared_ptr_emplaceIKN8facebook5react31AndroidDrawerLayoutEventEmitterENS_9allocatorIS3_EEE16__on_zero_sharedEv, symObjAddr: 0x446C, symBinAddr: 0x7C24, symSize: 0xC }
  - { offset: 0x84EDF, size: 0x8, addend: 0x0, symName: __ZNSt3__120__shared_ptr_emplaceIKN8facebook5react31AndroidDrawerLayoutEventEmitterENS_9allocatorIS3_EEE16__on_zero_sharedEv, symObjAddr: 0x446C, symBinAddr: 0x7C24, symSize: 0xC }
  - { offset: 0x84EFD, size: 0x8, addend: 0x0, symName: __ZNSt3__120__shared_ptr_emplaceIKN8facebook5react31AndroidDrawerLayoutEventEmitterENS_9allocatorIS3_EEE16__on_zero_sharedEv, symObjAddr: 0x446C, symBinAddr: 0x7C24, symSize: 0xC }
  - { offset: 0x84F29, size: 0x8, addend: 0x0, symName: __ZNSt3__120__shared_ptr_emplaceIKN8facebook5react31AndroidDrawerLayoutEventEmitterENS_9allocatorIS3_EEE21__on_zero_shared_weakEv, symObjAddr: 0x4478, symBinAddr: 0x7C30, symSize: 0x4 }
  - { offset: 0x84F5B, size: 0x8, addend: 0x0, symName: __ZNSt3__120__shared_ptr_emplaceIKN8facebook5react31AndroidDrawerLayoutEventEmitterENS_9allocatorIS3_EEE21__on_zero_shared_weakEv, symObjAddr: 0x4478, symBinAddr: 0x7C30, symSize: 0x4 }
  - { offset: 0x84F7C, size: 0x8, addend: 0x0, symName: __ZNSt3__120__shared_ptr_emplaceIKN8facebook5react31AndroidDrawerLayoutEventEmitterENS_9allocatorIS3_EEE21__on_zero_shared_weakEv, symObjAddr: 0x4478, symBinAddr: 0x7C30, symSize: 0x4 }
  - { offset: 0x84F9E, size: 0x8, addend: 0x0, symName: __ZNSt3__120__shared_ptr_emplaceIKN8facebook5react31AndroidDrawerLayoutEventEmitterENS_9allocatorIS3_EEE21__on_zero_shared_weakEv, symObjAddr: 0x4478, symBinAddr: 0x7C30, symSize: 0x4 }
  - { offset: 0x84FD1, size: 0x8, addend: 0x0, symName: __ZNSt3__120__shared_ptr_emplaceIKN8facebook5react31AndroidDrawerLayoutEventEmitterENS_9allocatorIS3_EEE21__on_zero_shared_weakEv, symObjAddr: 0x4478, symBinAddr: 0x7C30, symSize: 0x4 }
  - { offset: 0x85067, size: 0x8, addend: 0x0, symName: __ZN8facebook5react31AndroidDrawerLayoutEventEmitterD1Ev, symObjAddr: 0x45BC, symBinAddr: 0x7D74, symSize: 0x34 }
  - { offset: 0x8513B, size: 0x8, addend: 0x0, symName: __ZN8facebook5react31AndroidDrawerLayoutEventEmitterD0Ev, symObjAddr: 0x45F0, symBinAddr: 0x7DA8, symSize: 0x38 }
  - { offset: 0x85296, size: 0x8, addend: 0x0, symName: __ZNSt3__120__shared_ptr_emplaceIN8facebook5react16ShadowNodeFamilyENS_9allocatorIS3_EEEC2B8ne200100IJRKNS2_24ShadowNodeFamilyFragmentERNS_10shared_ptrIKNS2_31AndroidDrawerLayoutEventEmitterEEERKNS_8weak_ptrIKNS2_15EventDispatcherEEERKNS2_27ConcreteComponentDescriptorINS2_22ConcreteViewShadowNodeIXadL_ZNS2_32AndroidDrawerLayoutComponentNameEEENS2_24AndroidDrawerLayoutPropsESC_NS2_9StateDataEEEEEES5_Li0EEES5_DpOT_, symObjAddr: 0x46A0, symBinAddr: 0x7E58, symSize: 0x4C }
  - { offset: 0x85671, size: 0x8, addend: 0x0, symName: __ZN8facebook5react14RawPropsParser7prepareINS0_30AndroidSwipeRefreshLayoutPropsEEEvv, symObjAddr: 0x4928, symBinAddr: 0x8088, symSize: 0x278 }
  - { offset: 0x8627D, size: 0x8, addend: 0x0, symName: __ZNSt3__16vectorIN8facebook5react11SharedColorENS_9allocatorIS3_EEE16__destroy_vectorclB8ne200100Ev, symObjAddr: 0x51BC, symBinAddr: 0x891C, symSize: 0x70 }
  - { offset: 0x8647E, size: 0x8, addend: 0x0, symName: __ZN8facebook5react27ConcreteComponentDescriptorINS0_22ConcreteViewShadowNodeIXadL_ZNS0_38AndroidSwipeRefreshLayoutComponentNameEEENS0_30AndroidSwipeRefreshLayoutPropsENS0_37AndroidSwipeRefreshLayoutEventEmitterENS0_9StateDataEEEED1Ev, symObjAddr: 0x4BA0, symBinAddr: 0x8300, symSize: 0x4 }
  - { offset: 0x864A0, size: 0x8, addend: 0x0, symName: __ZN8facebook5react27ConcreteComponentDescriptorINS0_22ConcreteViewShadowNodeIXadL_ZNS0_38AndroidSwipeRefreshLayoutComponentNameEEENS0_30AndroidSwipeRefreshLayoutPropsENS0_37AndroidSwipeRefreshLayoutEventEmitterENS0_9StateDataEEEED1Ev, symObjAddr: 0x4BA0, symBinAddr: 0x8300, symSize: 0x4 }
  - { offset: 0x864BD, size: 0x8, addend: 0x0, symName: __ZN8facebook5react27ConcreteComponentDescriptorINS0_22ConcreteViewShadowNodeIXadL_ZNS0_38AndroidSwipeRefreshLayoutComponentNameEEENS0_30AndroidSwipeRefreshLayoutPropsENS0_37AndroidSwipeRefreshLayoutEventEmitterENS0_9StateDataEEEED1Ev, symObjAddr: 0x4BA0, symBinAddr: 0x8300, symSize: 0x4 }
  - { offset: 0x864EC, size: 0x8, addend: 0x0, symName: __ZN8facebook5react27ConcreteComponentDescriptorINS0_22ConcreteViewShadowNodeIXadL_ZNS0_38AndroidSwipeRefreshLayoutComponentNameEEENS0_30AndroidSwipeRefreshLayoutPropsENS0_37AndroidSwipeRefreshLayoutEventEmitterENS0_9StateDataEEEED0Ev, symObjAddr: 0x4BA4, symBinAddr: 0x8304, symSize: 0x14 }
  - { offset: 0x86564, size: 0x8, addend: 0x0, symName: __ZNK8facebook5react27ConcreteComponentDescriptorINS0_22ConcreteViewShadowNodeIXadL_ZNS0_38AndroidSwipeRefreshLayoutComponentNameEEENS0_30AndroidSwipeRefreshLayoutPropsENS0_37AndroidSwipeRefreshLayoutEventEmitterENS0_9StateDataEEEE18getComponentHandleEv, symObjAddr: 0x4BB8, symBinAddr: 0x8318, symSize: 0xC }
  - { offset: 0x8658B, size: 0x8, addend: 0x0, symName: __ZNK8facebook5react27ConcreteComponentDescriptorINS0_22ConcreteViewShadowNodeIXadL_ZNS0_38AndroidSwipeRefreshLayoutComponentNameEEENS0_30AndroidSwipeRefreshLayoutPropsENS0_37AndroidSwipeRefreshLayoutEventEmitterENS0_9StateDataEEEE16getComponentNameEv, symObjAddr: 0x4BC4, symBinAddr: 0x8324, symSize: 0xC }
  - { offset: 0x865B2, size: 0x8, addend: 0x0, symName: __ZNK8facebook5react27ConcreteComponentDescriptorINS0_22ConcreteViewShadowNodeIXadL_ZNS0_38AndroidSwipeRefreshLayoutComponentNameEEENS0_30AndroidSwipeRefreshLayoutPropsENS0_37AndroidSwipeRefreshLayoutEventEmitterENS0_9StateDataEEEE9getTraitsEv, symObjAddr: 0x4BD0, symBinAddr: 0x8330, symSize: 0x8 }
  - { offset: 0x866B2, size: 0x8, addend: 0x0, symName: __ZNK8facebook5react27ConcreteComponentDescriptorINS0_22ConcreteViewShadowNodeIXadL_ZNS0_38AndroidSwipeRefreshLayoutComponentNameEEENS0_30AndroidSwipeRefreshLayoutPropsENS0_37AndroidSwipeRefreshLayoutEventEmitterENS0_9StateDataEEEE16createShadowNodeERKNS0_18ShadowNodeFragmentERKNSt3__110shared_ptrIKNS0_16ShadowNodeFamilyEEE, symObjAddr: 0x4BD8, symBinAddr: 0x8338, symSize: 0x90 }
  - { offset: 0x868FD, size: 0x8, addend: 0x0, symName: __ZNK8facebook5react27ConcreteComponentDescriptorINS0_22ConcreteViewShadowNodeIXadL_ZNS0_38AndroidSwipeRefreshLayoutComponentNameEEENS0_30AndroidSwipeRefreshLayoutPropsENS0_37AndroidSwipeRefreshLayoutEventEmitterENS0_9StateDataEEEE15cloneShadowNodeERKNS0_10ShadowNodeERKNS0_18ShadowNodeFragmentE, symObjAddr: 0x4C68, symBinAddr: 0x83C8, symSize: 0x104 }
  - { offset: 0x86BF5, size: 0x8, addend: 0x0, symName: __ZNK8facebook5react27ConcreteComponentDescriptorINS0_22ConcreteViewShadowNodeIXadL_ZNS0_38AndroidSwipeRefreshLayoutComponentNameEEENS0_30AndroidSwipeRefreshLayoutPropsENS0_37AndroidSwipeRefreshLayoutEventEmitterENS0_9StateDataEEEE11appendChildERKNSt3__110shared_ptrIKNS0_10ShadowNodeEEESE_, symObjAddr: 0x4D6C, symBinAddr: 0x84CC, symSize: 0x14 }
  - { offset: 0x86C4C, size: 0x8, addend: 0x0, symName: __ZNK8facebook5react27ConcreteComponentDescriptorINS0_22ConcreteViewShadowNodeIXadL_ZNS0_38AndroidSwipeRefreshLayoutComponentNameEEENS0_30AndroidSwipeRefreshLayoutPropsENS0_37AndroidSwipeRefreshLayoutEventEmitterENS0_9StateDataEEEE11appendChildERKNSt3__110shared_ptrIKNS0_10ShadowNodeEEESE_, symObjAddr: 0x4D6C, symBinAddr: 0x84CC, symSize: 0x14 }
  - { offset: 0x86D76, size: 0x8, addend: 0x0, symName: __ZNK8facebook5react27ConcreteComponentDescriptorINS0_22ConcreteViewShadowNodeIXadL_ZNS0_38AndroidSwipeRefreshLayoutComponentNameEEENS0_30AndroidSwipeRefreshLayoutPropsENS0_37AndroidSwipeRefreshLayoutEventEmitterENS0_9StateDataEEEE10clonePropsERKNS0_18PropsParserContextERKNSt3__110shared_ptrIKNS0_5PropsEEENS0_8RawPropsE, symObjAddr: 0x4D80, symBinAddr: 0x84E0, symSize: 0x21C }
  - { offset: 0x8789A, size: 0x8, addend: 0x0, symName: __ZN8facebook5react18ConcreteShadowNodeIXadL_ZNS0_38AndroidSwipeRefreshLayoutComponentNameEEENS0_24YogaLayoutableShadowNodeENS0_30AndroidSwipeRefreshLayoutPropsENS0_37AndroidSwipeRefreshLayoutEventEmitterENS0_9StateDataEE5PropsERKNS0_18PropsParserContextERKNS0_8RawPropsERKNSt3__110shared_ptrIKNS0_5PropsEEE, symObjAddr: 0x56C4, symBinAddr: 0x8D60, symSize: 0x58 }
  - { offset: 0x879EA, size: 0x8, addend: 0x0, symName: __ZNK8facebook5react27ConcreteComponentDescriptorINS0_22ConcreteViewShadowNodeIXadL_ZNS0_38AndroidSwipeRefreshLayoutComponentNameEEENS0_30AndroidSwipeRefreshLayoutPropsENS0_37AndroidSwipeRefreshLayoutEventEmitterENS0_9StateDataEEEE18createInitialStateERKNSt3__110shared_ptrIKNS0_5PropsEEERKNS9_IKNS0_16ShadowNodeFamilyEEE, symObjAddr: 0x4F9C, symBinAddr: 0x86FC, symSize: 0x8 }
  - { offset: 0x87A2D, size: 0x8, addend: 0x0, symName: __ZNK8facebook5react27ConcreteComponentDescriptorINS0_22ConcreteViewShadowNodeIXadL_ZNS0_38AndroidSwipeRefreshLayoutComponentNameEEENS0_30AndroidSwipeRefreshLayoutPropsENS0_37AndroidSwipeRefreshLayoutEventEmitterENS0_9StateDataEEEE18createInitialStateERKNSt3__110shared_ptrIKNS0_5PropsEEERKNS9_IKNS0_16ShadowNodeFamilyEEE, symObjAddr: 0x4F9C, symBinAddr: 0x86FC, symSize: 0x8 }
  - { offset: 0x87A4E, size: 0x8, addend: 0x0, symName: __ZNK8facebook5react27ConcreteComponentDescriptorINS0_22ConcreteViewShadowNodeIXadL_ZNS0_38AndroidSwipeRefreshLayoutComponentNameEEENS0_30AndroidSwipeRefreshLayoutPropsENS0_37AndroidSwipeRefreshLayoutEventEmitterENS0_9StateDataEEEE18createInitialStateERKNSt3__110shared_ptrIKNS0_5PropsEEERKNS9_IKNS0_16ShadowNodeFamilyEEE, symObjAddr: 0x4F9C, symBinAddr: 0x86FC, symSize: 0x8 }
  - { offset: 0x87A70, size: 0x8, addend: 0x0, symName: __ZNK8facebook5react27ConcreteComponentDescriptorINS0_22ConcreteViewShadowNodeIXadL_ZNS0_38AndroidSwipeRefreshLayoutComponentNameEEENS0_30AndroidSwipeRefreshLayoutPropsENS0_37AndroidSwipeRefreshLayoutEventEmitterENS0_9StateDataEEEE11createStateERKNS0_16ShadowNodeFamilyERKNSt3__110shared_ptrIKvEE, symObjAddr: 0x4FA4, symBinAddr: 0x8704, symSize: 0x8 }
  - { offset: 0x87AB3, size: 0x8, addend: 0x0, symName: __ZNK8facebook5react27ConcreteComponentDescriptorINS0_22ConcreteViewShadowNodeIXadL_ZNS0_38AndroidSwipeRefreshLayoutComponentNameEEENS0_30AndroidSwipeRefreshLayoutPropsENS0_37AndroidSwipeRefreshLayoutEventEmitterENS0_9StateDataEEEE11createStateERKNS0_16ShadowNodeFamilyERKNSt3__110shared_ptrIKvEE, symObjAddr: 0x4FA4, symBinAddr: 0x8704, symSize: 0x8 }
  - { offset: 0x87AD4, size: 0x8, addend: 0x0, symName: __ZNK8facebook5react27ConcreteComponentDescriptorINS0_22ConcreteViewShadowNodeIXadL_ZNS0_38AndroidSwipeRefreshLayoutComponentNameEEENS0_30AndroidSwipeRefreshLayoutPropsENS0_37AndroidSwipeRefreshLayoutEventEmitterENS0_9StateDataEEEE11createStateERKNS0_16ShadowNodeFamilyERKNSt3__110shared_ptrIKvEE, symObjAddr: 0x4FA4, symBinAddr: 0x8704, symSize: 0x8 }
  - { offset: 0x87B7B, size: 0x8, addend: 0x0, symName: __ZNK8facebook5react27ConcreteComponentDescriptorINS0_22ConcreteViewShadowNodeIXadL_ZNS0_38AndroidSwipeRefreshLayoutComponentNameEEENS0_30AndroidSwipeRefreshLayoutPropsENS0_37AndroidSwipeRefreshLayoutEventEmitterENS0_9StateDataEEEE12createFamilyERKNS0_24ShadowNodeFamilyFragmentE, symObjAddr: 0x4FAC, symBinAddr: 0x870C, symSize: 0x168 }
  - { offset: 0x88025, size: 0x8, addend: 0x0, symName: __ZNK8facebook5react27ConcreteComponentDescriptorINS0_22ConcreteViewShadowNodeIXadL_ZNS0_38AndroidSwipeRefreshLayoutComponentNameEEENS0_30AndroidSwipeRefreshLayoutPropsENS0_37AndroidSwipeRefreshLayoutEventEmitterENS0_9StateDataEEEE5adoptERNS0_10ShadowNodeE, symObjAddr: 0x5114, symBinAddr: 0x8874, symSize: 0x4 }
  - { offset: 0x88058, size: 0x8, addend: 0x0, symName: __ZN8facebook5react30AndroidSwipeRefreshLayoutPropsD1Ev, symObjAddr: 0x5118, symBinAddr: 0x8878, symSize: 0x50 }
  - { offset: 0x881C3, size: 0x8, addend: 0x0, symName: __ZN8facebook5react30AndroidSwipeRefreshLayoutPropsD0Ev, symObjAddr: 0x5168, symBinAddr: 0x88C8, symSize: 0x54 }
  - { offset: 0x886C1, size: 0x8, addend: 0x0, symName: __ZNSt3__120__shared_ptr_emplaceIN8facebook5react22ConcreteViewShadowNodeIXadL_ZNS2_38AndroidSwipeRefreshLayoutComponentNameEEENS2_30AndroidSwipeRefreshLayoutPropsENS2_37AndroidSwipeRefreshLayoutEventEmitterENS2_9StateDataEEENS_9allocatorIS7_EEEC2B8ne200100IJRKNS2_18ShadowNodeFragmentERKNS_10shared_ptrIKNS2_16ShadowNodeFamilyEEENS2_16ShadowNodeTraitsEES9_Li0EEES9_DpOT_, symObjAddr: 0x529C, symBinAddr: 0x89FC, symSize: 0x68 }
  - { offset: 0x88A8E, size: 0x8, addend: 0x0, symName: __ZNSt3__120__shared_ptr_emplaceIN8facebook5react22ConcreteViewShadowNodeIXadL_ZNS2_38AndroidSwipeRefreshLayoutComponentNameEEENS2_30AndroidSwipeRefreshLayoutPropsENS2_37AndroidSwipeRefreshLayoutEventEmitterENS2_9StateDataEEENS_9allocatorIS7_EEED1Ev, symObjAddr: 0x5304, symBinAddr: 0x8A64, symSize: 0x14 }
  - { offset: 0x88AB0, size: 0x8, addend: 0x0, symName: __ZNSt3__120__shared_ptr_emplaceIN8facebook5react22ConcreteViewShadowNodeIXadL_ZNS2_38AndroidSwipeRefreshLayoutComponentNameEEENS2_30AndroidSwipeRefreshLayoutPropsENS2_37AndroidSwipeRefreshLayoutEventEmitterENS2_9StateDataEEENS_9allocatorIS7_EEED1Ev, symObjAddr: 0x5304, symBinAddr: 0x8A64, symSize: 0x14 }
  - { offset: 0x88AE6, size: 0x8, addend: 0x0, symName: __ZNSt3__120__shared_ptr_emplaceIN8facebook5react22ConcreteViewShadowNodeIXadL_ZNS2_38AndroidSwipeRefreshLayoutComponentNameEEENS2_30AndroidSwipeRefreshLayoutPropsENS2_37AndroidSwipeRefreshLayoutEventEmitterENS2_9StateDataEEENS_9allocatorIS7_EEED0Ev, symObjAddr: 0x5318, symBinAddr: 0x8A78, symSize: 0x24 }
  - { offset: 0x88BB5, size: 0x8, addend: 0x0, symName: __ZNSt3__120__shared_ptr_emplaceIN8facebook5react22ConcreteViewShadowNodeIXadL_ZNS2_38AndroidSwipeRefreshLayoutComponentNameEEENS2_30AndroidSwipeRefreshLayoutPropsENS2_37AndroidSwipeRefreshLayoutEventEmitterENS2_9StateDataEEENS_9allocatorIS7_EEE16__on_zero_sharedEv, symObjAddr: 0x533C, symBinAddr: 0x8A9C, symSize: 0xC }
  - { offset: 0x88BDE, size: 0x8, addend: 0x0, symName: __ZNSt3__120__shared_ptr_emplaceIN8facebook5react22ConcreteViewShadowNodeIXadL_ZNS2_38AndroidSwipeRefreshLayoutComponentNameEEENS2_30AndroidSwipeRefreshLayoutPropsENS2_37AndroidSwipeRefreshLayoutEventEmitterENS2_9StateDataEEENS_9allocatorIS7_EEE16__on_zero_sharedEv, symObjAddr: 0x533C, symBinAddr: 0x8A9C, symSize: 0xC }
  - { offset: 0x88BFC, size: 0x8, addend: 0x0, symName: __ZNSt3__120__shared_ptr_emplaceIN8facebook5react22ConcreteViewShadowNodeIXadL_ZNS2_38AndroidSwipeRefreshLayoutComponentNameEEENS2_30AndroidSwipeRefreshLayoutPropsENS2_37AndroidSwipeRefreshLayoutEventEmitterENS2_9StateDataEEENS_9allocatorIS7_EEE16__on_zero_sharedEv, symObjAddr: 0x533C, symBinAddr: 0x8A9C, symSize: 0xC }
  - { offset: 0x88C1A, size: 0x8, addend: 0x0, symName: __ZNSt3__120__shared_ptr_emplaceIN8facebook5react22ConcreteViewShadowNodeIXadL_ZNS2_38AndroidSwipeRefreshLayoutComponentNameEEENS2_30AndroidSwipeRefreshLayoutPropsENS2_37AndroidSwipeRefreshLayoutEventEmitterENS2_9StateDataEEENS_9allocatorIS7_EEE16__on_zero_sharedEv, symObjAddr: 0x533C, symBinAddr: 0x8A9C, symSize: 0xC }
  - { offset: 0x88C46, size: 0x8, addend: 0x0, symName: __ZNSt3__120__shared_ptr_emplaceIN8facebook5react22ConcreteViewShadowNodeIXadL_ZNS2_38AndroidSwipeRefreshLayoutComponentNameEEENS2_30AndroidSwipeRefreshLayoutPropsENS2_37AndroidSwipeRefreshLayoutEventEmitterENS2_9StateDataEEENS_9allocatorIS7_EEE21__on_zero_shared_weakEv, symObjAddr: 0x5348, symBinAddr: 0x8AA8, symSize: 0x4 }
  - { offset: 0x88C78, size: 0x8, addend: 0x0, symName: __ZNSt3__120__shared_ptr_emplaceIN8facebook5react22ConcreteViewShadowNodeIXadL_ZNS2_38AndroidSwipeRefreshLayoutComponentNameEEENS2_30AndroidSwipeRefreshLayoutPropsENS2_37AndroidSwipeRefreshLayoutEventEmitterENS2_9StateDataEEENS_9allocatorIS7_EEE21__on_zero_shared_weakEv, symObjAddr: 0x5348, symBinAddr: 0x8AA8, symSize: 0x4 }
  - { offset: 0x88C99, size: 0x8, addend: 0x0, symName: __ZNSt3__120__shared_ptr_emplaceIN8facebook5react22ConcreteViewShadowNodeIXadL_ZNS2_38AndroidSwipeRefreshLayoutComponentNameEEENS2_30AndroidSwipeRefreshLayoutPropsENS2_37AndroidSwipeRefreshLayoutEventEmitterENS2_9StateDataEEENS_9allocatorIS7_EEE21__on_zero_shared_weakEv, symObjAddr: 0x5348, symBinAddr: 0x8AA8, symSize: 0x4 }
  - { offset: 0x88CBB, size: 0x8, addend: 0x0, symName: __ZNSt3__120__shared_ptr_emplaceIN8facebook5react22ConcreteViewShadowNodeIXadL_ZNS2_38AndroidSwipeRefreshLayoutComponentNameEEENS2_30AndroidSwipeRefreshLayoutPropsENS2_37AndroidSwipeRefreshLayoutEventEmitterENS2_9StateDataEEENS_9allocatorIS7_EEE21__on_zero_shared_weakEv, symObjAddr: 0x5348, symBinAddr: 0x8AA8, symSize: 0x4 }
  - { offset: 0x88CEF, size: 0x8, addend: 0x0, symName: __ZNSt3__120__shared_ptr_emplaceIN8facebook5react22ConcreteViewShadowNodeIXadL_ZNS2_38AndroidSwipeRefreshLayoutComponentNameEEENS2_30AndroidSwipeRefreshLayoutPropsENS2_37AndroidSwipeRefreshLayoutEventEmitterENS2_9StateDataEEENS_9allocatorIS7_EEE21__on_zero_shared_weakEv, symObjAddr: 0x5348, symBinAddr: 0x8AA8, symSize: 0x4 }
  - { offset: 0x88D6B, size: 0x8, addend: 0x0, symName: __ZN8facebook5react22ConcreteViewShadowNodeIXadL_ZNS0_38AndroidSwipeRefreshLayoutComponentNameEEENS0_30AndroidSwipeRefreshLayoutPropsENS0_37AndroidSwipeRefreshLayoutEventEmitterENS0_9StateDataEED1Ev, symObjAddr: 0x53B8, symBinAddr: 0x8AAC, symSize: 0x70 }
  - { offset: 0x89135, size: 0x8, addend: 0x0, symName: __ZN8facebook5react22ConcreteViewShadowNodeIXadL_ZNS0_38AndroidSwipeRefreshLayoutComponentNameEEENS0_30AndroidSwipeRefreshLayoutPropsENS0_37AndroidSwipeRefreshLayoutEventEmitterENS0_9StateDataEED0Ev, symObjAddr: 0x5428, symBinAddr: 0x8B1C, symSize: 0x74 }
  - { offset: 0x89509, size: 0x8, addend: 0x0, symName: __ZNK8facebook5react22ConcreteViewShadowNodeIXadL_ZNS0_38AndroidSwipeRefreshLayoutComponentNameEEENS0_30AndroidSwipeRefreshLayoutPropsENS0_37AndroidSwipeRefreshLayoutEventEmitterENS0_9StateDataEE12getTransformEv, symObjAddr: 0x549C, symBinAddr: 0x8B90, symSize: 0x40 }
  - { offset: 0x89579, size: 0x8, addend: 0x0, symName: __ZNK8facebook5react22ConcreteViewShadowNodeIXadL_ZNS0_38AndroidSwipeRefreshLayoutComponentNameEEENS0_30AndroidSwipeRefreshLayoutPropsENS0_37AndroidSwipeRefreshLayoutEventEmitterENS0_9StateDataEE16canBeTouchTargetEv, symObjAddr: 0x54DC, symBinAddr: 0x8BD0, symSize: 0x18 }
  - { offset: 0x895B2, size: 0x8, addend: 0x0, symName: __ZNK8facebook5react22ConcreteViewShadowNodeIXadL_ZNS0_38AndroidSwipeRefreshLayoutComponentNameEEENS0_30AndroidSwipeRefreshLayoutPropsENS0_37AndroidSwipeRefreshLayoutEventEmitterENS0_9StateDataEE16canBeTouchTargetEv, symObjAddr: 0x54DC, symBinAddr: 0x8BD0, symSize: 0x18 }
  - { offset: 0x895CD, size: 0x8, addend: 0x0, symName: __ZNK8facebook5react22ConcreteViewShadowNodeIXadL_ZNS0_38AndroidSwipeRefreshLayoutComponentNameEEENS0_30AndroidSwipeRefreshLayoutPropsENS0_37AndroidSwipeRefreshLayoutEventEmitterENS0_9StateDataEE16canBeTouchTargetEv, symObjAddr: 0x54DC, symBinAddr: 0x8BD0, symSize: 0x18 }
  - { offset: 0x895EA, size: 0x8, addend: 0x0, symName: __ZNK8facebook5react22ConcreteViewShadowNodeIXadL_ZNS0_38AndroidSwipeRefreshLayoutComponentNameEEENS0_30AndroidSwipeRefreshLayoutPropsENS0_37AndroidSwipeRefreshLayoutEventEmitterENS0_9StateDataEE24canChildrenBeTouchTargetEv, symObjAddr: 0x54F4, symBinAddr: 0x8BE8, symSize: 0x18 }
  - { offset: 0x8961E, size: 0x8, addend: 0x0, symName: __ZNK8facebook5react22ConcreteViewShadowNodeIXadL_ZNS0_38AndroidSwipeRefreshLayoutComponentNameEEENS0_30AndroidSwipeRefreshLayoutPropsENS0_37AndroidSwipeRefreshLayoutEventEmitterENS0_9StateDataEE24canChildrenBeTouchTargetEv, symObjAddr: 0x54F4, symBinAddr: 0x8BE8, symSize: 0x18 }
  - { offset: 0x89639, size: 0x8, addend: 0x0, symName: __ZNK8facebook5react22ConcreteViewShadowNodeIXadL_ZNS0_38AndroidSwipeRefreshLayoutComponentNameEEENS0_30AndroidSwipeRefreshLayoutPropsENS0_37AndroidSwipeRefreshLayoutEventEmitterENS0_9StateDataEE24canChildrenBeTouchTargetEv, symObjAddr: 0x54F4, symBinAddr: 0x8BE8, symSize: 0x18 }
  - { offset: 0x896B4, size: 0x8, addend: 0x0, symName: __ZNSt3__120__shared_ptr_emplaceIN8facebook5react22ConcreteViewShadowNodeIXadL_ZNS2_38AndroidSwipeRefreshLayoutComponentNameEEENS2_30AndroidSwipeRefreshLayoutPropsENS2_37AndroidSwipeRefreshLayoutEventEmitterENS2_9StateDataEEENS_9allocatorIS7_EEEC2B8ne200100IJRKNS2_10ShadowNodeERKNS2_18ShadowNodeFragmentEES9_Li0EEES9_DpOT_, symObjAddr: 0x55C4, symBinAddr: 0x8C60, symSize: 0x64 }
  - { offset: 0x8997D, size: 0x8, addend: 0x0, symName: __ZNSt3__110shared_ptrIKN8facebook5react30AndroidSwipeRefreshLayoutPropsEED1B8ne200100Ev, symObjAddr: 0x571C, symBinAddr: 0x8DB8, symSize: 0x4 }
  - { offset: 0x899A9, size: 0x8, addend: 0x0, symName: __ZNSt3__110shared_ptrIKN8facebook5react30AndroidSwipeRefreshLayoutPropsEED1B8ne200100Ev, symObjAddr: 0x571C, symBinAddr: 0x8DB8, symSize: 0x4 }
  - { offset: 0x89C4A, size: 0x8, addend: 0x0, symName: __ZNSt3__120__shared_ptr_emplaceIKN8facebook5react30AndroidSwipeRefreshLayoutPropsENS_9allocatorIS3_EEEC2B8ne200100IJES6_Li0EEES6_DpOT_, symObjAddr: 0x5768, symBinAddr: 0x8E04, symSize: 0x98 }
  - { offset: 0x89E73, size: 0x8, addend: 0x0, symName: __ZNSt3__120__shared_ptr_emplaceIKN8facebook5react30AndroidSwipeRefreshLayoutPropsENS_9allocatorIS3_EEED1Ev, symObjAddr: 0x5800, symBinAddr: 0x8E9C, symSize: 0x14 }
  - { offset: 0x89E95, size: 0x8, addend: 0x0, symName: __ZNSt3__120__shared_ptr_emplaceIKN8facebook5react30AndroidSwipeRefreshLayoutPropsENS_9allocatorIS3_EEED1Ev, symObjAddr: 0x5800, symBinAddr: 0x8E9C, symSize: 0x14 }
  - { offset: 0x89ECB, size: 0x8, addend: 0x0, symName: __ZNSt3__120__shared_ptr_emplaceIKN8facebook5react30AndroidSwipeRefreshLayoutPropsENS_9allocatorIS3_EEED0Ev, symObjAddr: 0x5814, symBinAddr: 0x8EB0, symSize: 0x24 }
  - { offset: 0x89F9A, size: 0x8, addend: 0x0, symName: __ZNSt3__120__shared_ptr_emplaceIKN8facebook5react30AndroidSwipeRefreshLayoutPropsENS_9allocatorIS3_EEE16__on_zero_sharedEv, symObjAddr: 0x5838, symBinAddr: 0x8ED4, symSize: 0x8 }
  - { offset: 0x89FC3, size: 0x8, addend: 0x0, symName: __ZNSt3__120__shared_ptr_emplaceIKN8facebook5react30AndroidSwipeRefreshLayoutPropsENS_9allocatorIS3_EEE16__on_zero_sharedEv, symObjAddr: 0x5838, symBinAddr: 0x8ED4, symSize: 0x8 }
  - { offset: 0x89FE1, size: 0x8, addend: 0x0, symName: __ZNSt3__120__shared_ptr_emplaceIKN8facebook5react30AndroidSwipeRefreshLayoutPropsENS_9allocatorIS3_EEE16__on_zero_sharedEv, symObjAddr: 0x5838, symBinAddr: 0x8ED4, symSize: 0x8 }
  - { offset: 0x8A01E, size: 0x8, addend: 0x0, symName: __ZNSt3__120__shared_ptr_emplaceIKN8facebook5react30AndroidSwipeRefreshLayoutPropsENS_9allocatorIS3_EEE21__on_zero_shared_weakEv, symObjAddr: 0x5840, symBinAddr: 0x8EDC, symSize: 0x4 }
  - { offset: 0x8A050, size: 0x8, addend: 0x0, symName: __ZNSt3__120__shared_ptr_emplaceIKN8facebook5react30AndroidSwipeRefreshLayoutPropsENS_9allocatorIS3_EEE21__on_zero_shared_weakEv, symObjAddr: 0x5840, symBinAddr: 0x8EDC, symSize: 0x4 }
  - { offset: 0x8A071, size: 0x8, addend: 0x0, symName: __ZNSt3__120__shared_ptr_emplaceIKN8facebook5react30AndroidSwipeRefreshLayoutPropsENS_9allocatorIS3_EEE21__on_zero_shared_weakEv, symObjAddr: 0x5840, symBinAddr: 0x8EDC, symSize: 0x4 }
  - { offset: 0x8A093, size: 0x8, addend: 0x0, symName: __ZNSt3__120__shared_ptr_emplaceIKN8facebook5react30AndroidSwipeRefreshLayoutPropsENS_9allocatorIS3_EEE21__on_zero_shared_weakEv, symObjAddr: 0x5840, symBinAddr: 0x8EDC, symSize: 0x4 }
  - { offset: 0x8A0C7, size: 0x8, addend: 0x0, symName: __ZNSt3__120__shared_ptr_emplaceIKN8facebook5react30AndroidSwipeRefreshLayoutPropsENS_9allocatorIS3_EEE21__on_zero_shared_weakEv, symObjAddr: 0x5840, symBinAddr: 0x8EDC, symSize: 0x4 }
  - { offset: 0x8A356, size: 0x8, addend: 0x0, symName: __ZNSt3__120__shared_ptr_emplaceIN8facebook5react30AndroidSwipeRefreshLayoutPropsENS_9allocatorIS3_EEEC2B8ne200100IJRKNS2_18PropsParserContextERKS3_RKNS2_8RawPropsEES5_Li0EEES5_DpOT_, symObjAddr: 0x595C, symBinAddr: 0x8FA0, symSize: 0x4C }
  - { offset: 0x8A542, size: 0x8, addend: 0x0, symName: __ZNSt3__120__shared_ptr_emplaceIN8facebook5react30AndroidSwipeRefreshLayoutPropsENS_9allocatorIS3_EEED1Ev, symObjAddr: 0x59A8, symBinAddr: 0x8FEC, symSize: 0x14 }
  - { offset: 0x8A564, size: 0x8, addend: 0x0, symName: __ZNSt3__120__shared_ptr_emplaceIN8facebook5react30AndroidSwipeRefreshLayoutPropsENS_9allocatorIS3_EEED1Ev, symObjAddr: 0x59A8, symBinAddr: 0x8FEC, symSize: 0x14 }
  - { offset: 0x8A59A, size: 0x8, addend: 0x0, symName: __ZNSt3__120__shared_ptr_emplaceIN8facebook5react30AndroidSwipeRefreshLayoutPropsENS_9allocatorIS3_EEED0Ev, symObjAddr: 0x59BC, symBinAddr: 0x9000, symSize: 0x24 }
  - { offset: 0x8A639, size: 0x8, addend: 0x0, symName: __ZNSt3__120__shared_ptr_emplaceIN8facebook5react30AndroidSwipeRefreshLayoutPropsENS_9allocatorIS3_EEE16__on_zero_sharedEv, symObjAddr: 0x59E0, symBinAddr: 0x9024, symSize: 0x8 }
  - { offset: 0x8A662, size: 0x8, addend: 0x0, symName: __ZNSt3__120__shared_ptr_emplaceIN8facebook5react30AndroidSwipeRefreshLayoutPropsENS_9allocatorIS3_EEE16__on_zero_sharedEv, symObjAddr: 0x59E0, symBinAddr: 0x9024, symSize: 0x8 }
  - { offset: 0x8A680, size: 0x8, addend: 0x0, symName: __ZNSt3__120__shared_ptr_emplaceIN8facebook5react30AndroidSwipeRefreshLayoutPropsENS_9allocatorIS3_EEE16__on_zero_sharedEv, symObjAddr: 0x59E0, symBinAddr: 0x9024, symSize: 0x8 }
  - { offset: 0x8A6BD, size: 0x8, addend: 0x0, symName: __ZNSt3__120__shared_ptr_emplaceIN8facebook5react30AndroidSwipeRefreshLayoutPropsENS_9allocatorIS3_EEE21__on_zero_shared_weakEv, symObjAddr: 0x59E8, symBinAddr: 0x902C, symSize: 0x4 }
  - { offset: 0x8A6EF, size: 0x8, addend: 0x0, symName: __ZNSt3__120__shared_ptr_emplaceIN8facebook5react30AndroidSwipeRefreshLayoutPropsENS_9allocatorIS3_EEE21__on_zero_shared_weakEv, symObjAddr: 0x59E8, symBinAddr: 0x902C, symSize: 0x4 }
  - { offset: 0x8A710, size: 0x8, addend: 0x0, symName: __ZNSt3__120__shared_ptr_emplaceIN8facebook5react30AndroidSwipeRefreshLayoutPropsENS_9allocatorIS3_EEE21__on_zero_shared_weakEv, symObjAddr: 0x59E8, symBinAddr: 0x902C, symSize: 0x4 }
  - { offset: 0x8A732, size: 0x8, addend: 0x0, symName: __ZNSt3__120__shared_ptr_emplaceIN8facebook5react30AndroidSwipeRefreshLayoutPropsENS_9allocatorIS3_EEE21__on_zero_shared_weakEv, symObjAddr: 0x59E8, symBinAddr: 0x902C, symSize: 0x4 }
  - { offset: 0x8A766, size: 0x8, addend: 0x0, symName: __ZNSt3__120__shared_ptr_emplaceIN8facebook5react30AndroidSwipeRefreshLayoutPropsENS_9allocatorIS3_EEE21__on_zero_shared_weakEv, symObjAddr: 0x59E8, symBinAddr: 0x902C, symSize: 0x4 }
  - { offset: 0x8A9E4, size: 0x8, addend: 0x0, symName: __ZNSt3__120__shared_ptr_emplaceIKN8facebook5react37AndroidSwipeRefreshLayoutEventEmitterENS_9allocatorIS3_EEEC2B8ne200100IJNS_10shared_ptrINS2_11EventTargetEEERKNS_8weak_ptrIKNS2_15EventDispatcherEEEES6_Li0EEES6_DpOT_, symObjAddr: 0x5AA4, symBinAddr: 0x9090, symSize: 0x4C }
  - { offset: 0x8AB92, size: 0x8, addend: 0x0, symName: __ZNSt3__120__shared_ptr_emplaceIKN8facebook5react37AndroidSwipeRefreshLayoutEventEmitterENS_9allocatorIS3_EEED1Ev, symObjAddr: 0x5AF0, symBinAddr: 0x90DC, symSize: 0x14 }
  - { offset: 0x8ABB4, size: 0x8, addend: 0x0, symName: __ZNSt3__120__shared_ptr_emplaceIKN8facebook5react37AndroidSwipeRefreshLayoutEventEmitterENS_9allocatorIS3_EEED1Ev, symObjAddr: 0x5AF0, symBinAddr: 0x90DC, symSize: 0x14 }
  - { offset: 0x8ABEA, size: 0x8, addend: 0x0, symName: __ZNSt3__120__shared_ptr_emplaceIKN8facebook5react37AndroidSwipeRefreshLayoutEventEmitterENS_9allocatorIS3_EEED0Ev, symObjAddr: 0x5B04, symBinAddr: 0x90F0, symSize: 0x24 }
  - { offset: 0x8ACB9, size: 0x8, addend: 0x0, symName: __ZNSt3__120__shared_ptr_emplaceIKN8facebook5react37AndroidSwipeRefreshLayoutEventEmitterENS_9allocatorIS3_EEE16__on_zero_sharedEv, symObjAddr: 0x5B28, symBinAddr: 0x9114, symSize: 0xC }
  - { offset: 0x8ACE2, size: 0x8, addend: 0x0, symName: __ZNSt3__120__shared_ptr_emplaceIKN8facebook5react37AndroidSwipeRefreshLayoutEventEmitterENS_9allocatorIS3_EEE16__on_zero_sharedEv, symObjAddr: 0x5B28, symBinAddr: 0x9114, symSize: 0xC }
  - { offset: 0x8AD00, size: 0x8, addend: 0x0, symName: __ZNSt3__120__shared_ptr_emplaceIKN8facebook5react37AndroidSwipeRefreshLayoutEventEmitterENS_9allocatorIS3_EEE16__on_zero_sharedEv, symObjAddr: 0x5B28, symBinAddr: 0x9114, symSize: 0xC }
  - { offset: 0x8AD1E, size: 0x8, addend: 0x0, symName: __ZNSt3__120__shared_ptr_emplaceIKN8facebook5react37AndroidSwipeRefreshLayoutEventEmitterENS_9allocatorIS3_EEE16__on_zero_sharedEv, symObjAddr: 0x5B28, symBinAddr: 0x9114, symSize: 0xC }
  - { offset: 0x8AD4A, size: 0x8, addend: 0x0, symName: __ZNSt3__120__shared_ptr_emplaceIKN8facebook5react37AndroidSwipeRefreshLayoutEventEmitterENS_9allocatorIS3_EEE21__on_zero_shared_weakEv, symObjAddr: 0x5B34, symBinAddr: 0x9120, symSize: 0x4 }
  - { offset: 0x8AD7C, size: 0x8, addend: 0x0, symName: __ZNSt3__120__shared_ptr_emplaceIKN8facebook5react37AndroidSwipeRefreshLayoutEventEmitterENS_9allocatorIS3_EEE21__on_zero_shared_weakEv, symObjAddr: 0x5B34, symBinAddr: 0x9120, symSize: 0x4 }
  - { offset: 0x8AD9D, size: 0x8, addend: 0x0, symName: __ZNSt3__120__shared_ptr_emplaceIKN8facebook5react37AndroidSwipeRefreshLayoutEventEmitterENS_9allocatorIS3_EEE21__on_zero_shared_weakEv, symObjAddr: 0x5B34, symBinAddr: 0x9120, symSize: 0x4 }
  - { offset: 0x8ADBF, size: 0x8, addend: 0x0, symName: __ZNSt3__120__shared_ptr_emplaceIKN8facebook5react37AndroidSwipeRefreshLayoutEventEmitterENS_9allocatorIS3_EEE21__on_zero_shared_weakEv, symObjAddr: 0x5B34, symBinAddr: 0x9120, symSize: 0x4 }
  - { offset: 0x8ADF2, size: 0x8, addend: 0x0, symName: __ZNSt3__120__shared_ptr_emplaceIKN8facebook5react37AndroidSwipeRefreshLayoutEventEmitterENS_9allocatorIS3_EEE21__on_zero_shared_weakEv, symObjAddr: 0x5B34, symBinAddr: 0x9120, symSize: 0x4 }
  - { offset: 0x8AE88, size: 0x8, addend: 0x0, symName: __ZN8facebook5react37AndroidSwipeRefreshLayoutEventEmitterD1Ev, symObjAddr: 0x5C78, symBinAddr: 0x9264, symSize: 0x34 }
  - { offset: 0x8AF5C, size: 0x8, addend: 0x0, symName: __ZN8facebook5react37AndroidSwipeRefreshLayoutEventEmitterD0Ev, symObjAddr: 0x5CAC, symBinAddr: 0x9298, symSize: 0x38 }
  - { offset: 0x8B0B7, size: 0x8, addend: 0x0, symName: __ZNSt3__120__shared_ptr_emplaceIN8facebook5react16ShadowNodeFamilyENS_9allocatorIS3_EEEC2B8ne200100IJRKNS2_24ShadowNodeFamilyFragmentERNS_10shared_ptrIKNS2_37AndroidSwipeRefreshLayoutEventEmitterEEERKNS_8weak_ptrIKNS2_15EventDispatcherEEERKNS2_27ConcreteComponentDescriptorINS2_22ConcreteViewShadowNodeIXadL_ZNS2_38AndroidSwipeRefreshLayoutComponentNameEEENS2_30AndroidSwipeRefreshLayoutPropsESC_NS2_9StateDataEEEEEES5_Li0EEES5_DpOT_, symObjAddr: 0x5D5C, symBinAddr: 0x9348, symSize: 0x4C }
  - { offset: 0x8B492, size: 0x8, addend: 0x0, symName: __ZN8facebook5react14RawPropsParser7prepareINS0_21DebuggingOverlayPropsEEEvv, symObjAddr: 0x5FE4, symBinAddr: 0x9578, symSize: 0x1C4 }
  - { offset: 0x8BBF5, size: 0x8, addend: 0x0, symName: __ZN8facebook5react27ConcreteComponentDescriptorINS0_22ConcreteViewShadowNodeIXadL_ZNS0_29DebuggingOverlayComponentNameEEENS0_21DebuggingOverlayPropsENS0_28DebuggingOverlayEventEmitterENS0_9StateDataEEEED1Ev, symObjAddr: 0x61A8, symBinAddr: 0x973C, symSize: 0x4 }
  - { offset: 0x8BC17, size: 0x8, addend: 0x0, symName: __ZN8facebook5react27ConcreteComponentDescriptorINS0_22ConcreteViewShadowNodeIXadL_ZNS0_29DebuggingOverlayComponentNameEEENS0_21DebuggingOverlayPropsENS0_28DebuggingOverlayEventEmitterENS0_9StateDataEEEED1Ev, symObjAddr: 0x61A8, symBinAddr: 0x973C, symSize: 0x4 }
  - { offset: 0x8BC34, size: 0x8, addend: 0x0, symName: __ZN8facebook5react27ConcreteComponentDescriptorINS0_22ConcreteViewShadowNodeIXadL_ZNS0_29DebuggingOverlayComponentNameEEENS0_21DebuggingOverlayPropsENS0_28DebuggingOverlayEventEmitterENS0_9StateDataEEEED1Ev, symObjAddr: 0x61A8, symBinAddr: 0x973C, symSize: 0x4 }
  - { offset: 0x8BC63, size: 0x8, addend: 0x0, symName: __ZN8facebook5react27ConcreteComponentDescriptorINS0_22ConcreteViewShadowNodeIXadL_ZNS0_29DebuggingOverlayComponentNameEEENS0_21DebuggingOverlayPropsENS0_28DebuggingOverlayEventEmitterENS0_9StateDataEEEED0Ev, symObjAddr: 0x61AC, symBinAddr: 0x9740, symSize: 0x14 }
  - { offset: 0x8BCDB, size: 0x8, addend: 0x0, symName: __ZNK8facebook5react27ConcreteComponentDescriptorINS0_22ConcreteViewShadowNodeIXadL_ZNS0_29DebuggingOverlayComponentNameEEENS0_21DebuggingOverlayPropsENS0_28DebuggingOverlayEventEmitterENS0_9StateDataEEEE18getComponentHandleEv, symObjAddr: 0x61C0, symBinAddr: 0x9754, symSize: 0xC }
  - { offset: 0x8BD02, size: 0x8, addend: 0x0, symName: __ZNK8facebook5react27ConcreteComponentDescriptorINS0_22ConcreteViewShadowNodeIXadL_ZNS0_29DebuggingOverlayComponentNameEEENS0_21DebuggingOverlayPropsENS0_28DebuggingOverlayEventEmitterENS0_9StateDataEEEE16getComponentNameEv, symObjAddr: 0x61CC, symBinAddr: 0x9760, symSize: 0xC }
  - { offset: 0x8BD29, size: 0x8, addend: 0x0, symName: __ZNK8facebook5react27ConcreteComponentDescriptorINS0_22ConcreteViewShadowNodeIXadL_ZNS0_29DebuggingOverlayComponentNameEEENS0_21DebuggingOverlayPropsENS0_28DebuggingOverlayEventEmitterENS0_9StateDataEEEE9getTraitsEv, symObjAddr: 0x61D8, symBinAddr: 0x976C, symSize: 0x8 }
  - { offset: 0x8BE29, size: 0x8, addend: 0x0, symName: __ZNK8facebook5react27ConcreteComponentDescriptorINS0_22ConcreteViewShadowNodeIXadL_ZNS0_29DebuggingOverlayComponentNameEEENS0_21DebuggingOverlayPropsENS0_28DebuggingOverlayEventEmitterENS0_9StateDataEEEE16createShadowNodeERKNS0_18ShadowNodeFragmentERKNSt3__110shared_ptrIKNS0_16ShadowNodeFamilyEEE, symObjAddr: 0x61E0, symBinAddr: 0x9774, symSize: 0x90 }
  - { offset: 0x8C074, size: 0x8, addend: 0x0, symName: __ZNK8facebook5react27ConcreteComponentDescriptorINS0_22ConcreteViewShadowNodeIXadL_ZNS0_29DebuggingOverlayComponentNameEEENS0_21DebuggingOverlayPropsENS0_28DebuggingOverlayEventEmitterENS0_9StateDataEEEE15cloneShadowNodeERKNS0_10ShadowNodeERKNS0_18ShadowNodeFragmentE, symObjAddr: 0x6270, symBinAddr: 0x9804, symSize: 0x104 }
  - { offset: 0x8C36C, size: 0x8, addend: 0x0, symName: __ZNK8facebook5react27ConcreteComponentDescriptorINS0_22ConcreteViewShadowNodeIXadL_ZNS0_29DebuggingOverlayComponentNameEEENS0_21DebuggingOverlayPropsENS0_28DebuggingOverlayEventEmitterENS0_9StateDataEEEE11appendChildERKNSt3__110shared_ptrIKNS0_10ShadowNodeEEESE_, symObjAddr: 0x6374, symBinAddr: 0x9908, symSize: 0x14 }
  - { offset: 0x8C3C3, size: 0x8, addend: 0x0, symName: __ZNK8facebook5react27ConcreteComponentDescriptorINS0_22ConcreteViewShadowNodeIXadL_ZNS0_29DebuggingOverlayComponentNameEEENS0_21DebuggingOverlayPropsENS0_28DebuggingOverlayEventEmitterENS0_9StateDataEEEE11appendChildERKNSt3__110shared_ptrIKNS0_10ShadowNodeEEESE_, symObjAddr: 0x6374, symBinAddr: 0x9908, symSize: 0x14 }
  - { offset: 0x8C4ED, size: 0x8, addend: 0x0, symName: __ZNK8facebook5react27ConcreteComponentDescriptorINS0_22ConcreteViewShadowNodeIXadL_ZNS0_29DebuggingOverlayComponentNameEEENS0_21DebuggingOverlayPropsENS0_28DebuggingOverlayEventEmitterENS0_9StateDataEEEE10clonePropsERKNS0_18PropsParserContextERKNSt3__110shared_ptrIKNS0_5PropsEEENS0_8RawPropsE, symObjAddr: 0x6388, symBinAddr: 0x991C, symSize: 0x21C }
  - { offset: 0x8D011, size: 0x8, addend: 0x0, symName: __ZN8facebook5react18ConcreteShadowNodeIXadL_ZNS0_29DebuggingOverlayComponentNameEEENS0_24YogaLayoutableShadowNodeENS0_21DebuggingOverlayPropsENS0_28DebuggingOverlayEventEmitterENS0_9StateDataEE5PropsERKNS0_18PropsParserContextERKNS0_8RawPropsERKNSt3__110shared_ptrIKNS0_5PropsEEE, symObjAddr: 0x6BE8, symBinAddr: 0xA0B8, symSize: 0x58 }
  - { offset: 0x8D161, size: 0x8, addend: 0x0, symName: __ZNK8facebook5react27ConcreteComponentDescriptorINS0_22ConcreteViewShadowNodeIXadL_ZNS0_29DebuggingOverlayComponentNameEEENS0_21DebuggingOverlayPropsENS0_28DebuggingOverlayEventEmitterENS0_9StateDataEEEE18createInitialStateERKNSt3__110shared_ptrIKNS0_5PropsEEERKNS9_IKNS0_16ShadowNodeFamilyEEE, symObjAddr: 0x65A4, symBinAddr: 0x9B38, symSize: 0x8 }
  - { offset: 0x8D1A4, size: 0x8, addend: 0x0, symName: __ZNK8facebook5react27ConcreteComponentDescriptorINS0_22ConcreteViewShadowNodeIXadL_ZNS0_29DebuggingOverlayComponentNameEEENS0_21DebuggingOverlayPropsENS0_28DebuggingOverlayEventEmitterENS0_9StateDataEEEE18createInitialStateERKNSt3__110shared_ptrIKNS0_5PropsEEERKNS9_IKNS0_16ShadowNodeFamilyEEE, symObjAddr: 0x65A4, symBinAddr: 0x9B38, symSize: 0x8 }
  - { offset: 0x8D1C5, size: 0x8, addend: 0x0, symName: __ZNK8facebook5react27ConcreteComponentDescriptorINS0_22ConcreteViewShadowNodeIXadL_ZNS0_29DebuggingOverlayComponentNameEEENS0_21DebuggingOverlayPropsENS0_28DebuggingOverlayEventEmitterENS0_9StateDataEEEE18createInitialStateERKNSt3__110shared_ptrIKNS0_5PropsEEERKNS9_IKNS0_16ShadowNodeFamilyEEE, symObjAddr: 0x65A4, symBinAddr: 0x9B38, symSize: 0x8 }
  - { offset: 0x8D1E7, size: 0x8, addend: 0x0, symName: __ZNK8facebook5react27ConcreteComponentDescriptorINS0_22ConcreteViewShadowNodeIXadL_ZNS0_29DebuggingOverlayComponentNameEEENS0_21DebuggingOverlayPropsENS0_28DebuggingOverlayEventEmitterENS0_9StateDataEEEE11createStateERKNS0_16ShadowNodeFamilyERKNSt3__110shared_ptrIKvEE, symObjAddr: 0x65AC, symBinAddr: 0x9B40, symSize: 0x8 }
  - { offset: 0x8D22A, size: 0x8, addend: 0x0, symName: __ZNK8facebook5react27ConcreteComponentDescriptorINS0_22ConcreteViewShadowNodeIXadL_ZNS0_29DebuggingOverlayComponentNameEEENS0_21DebuggingOverlayPropsENS0_28DebuggingOverlayEventEmitterENS0_9StateDataEEEE11createStateERKNS0_16ShadowNodeFamilyERKNSt3__110shared_ptrIKvEE, symObjAddr: 0x65AC, symBinAddr: 0x9B40, symSize: 0x8 }
  - { offset: 0x8D24B, size: 0x8, addend: 0x0, symName: __ZNK8facebook5react27ConcreteComponentDescriptorINS0_22ConcreteViewShadowNodeIXadL_ZNS0_29DebuggingOverlayComponentNameEEENS0_21DebuggingOverlayPropsENS0_28DebuggingOverlayEventEmitterENS0_9StateDataEEEE11createStateERKNS0_16ShadowNodeFamilyERKNSt3__110shared_ptrIKvEE, symObjAddr: 0x65AC, symBinAddr: 0x9B40, symSize: 0x8 }
  - { offset: 0x8D2F2, size: 0x8, addend: 0x0, symName: __ZNK8facebook5react27ConcreteComponentDescriptorINS0_22ConcreteViewShadowNodeIXadL_ZNS0_29DebuggingOverlayComponentNameEEENS0_21DebuggingOverlayPropsENS0_28DebuggingOverlayEventEmitterENS0_9StateDataEEEE12createFamilyERKNS0_24ShadowNodeFamilyFragmentE, symObjAddr: 0x65B4, symBinAddr: 0x9B48, symSize: 0x168 }
  - { offset: 0x8D79C, size: 0x8, addend: 0x0, symName: __ZNK8facebook5react27ConcreteComponentDescriptorINS0_22ConcreteViewShadowNodeIXadL_ZNS0_29DebuggingOverlayComponentNameEEENS0_21DebuggingOverlayPropsENS0_28DebuggingOverlayEventEmitterENS0_9StateDataEEEE5adoptERNS0_10ShadowNodeE, symObjAddr: 0x671C, symBinAddr: 0x9CB0, symSize: 0x4 }
  - { offset: 0x8D7CF, size: 0x8, addend: 0x0, symName: __ZN8facebook5react21DebuggingOverlayPropsD1Ev, symObjAddr: 0x6720, symBinAddr: 0x9CB4, symSize: 0x10 }
  - { offset: 0x8D7F1, size: 0x8, addend: 0x0, symName: __ZN8facebook5react21DebuggingOverlayPropsD1Ev, symObjAddr: 0x6720, symBinAddr: 0x9CB4, symSize: 0x10 }
  - { offset: 0x8D82B, size: 0x8, addend: 0x0, symName: __ZN8facebook5react21DebuggingOverlayPropsD0Ev, symObjAddr: 0x6730, symBinAddr: 0x9CC4, symSize: 0x20 }
  - { offset: 0x8DB14, size: 0x8, addend: 0x0, symName: __ZNSt3__120__shared_ptr_emplaceIN8facebook5react22ConcreteViewShadowNodeIXadL_ZNS2_29DebuggingOverlayComponentNameEEENS2_21DebuggingOverlayPropsENS2_28DebuggingOverlayEventEmitterENS2_9StateDataEEENS_9allocatorIS7_EEEC2B8ne200100IJRKNS2_18ShadowNodeFragmentERKNS_10shared_ptrIKNS2_16ShadowNodeFamilyEEENS2_16ShadowNodeTraitsEES9_Li0EEES9_DpOT_, symObjAddr: 0x67C0, symBinAddr: 0x9D54, symSize: 0x68 }
  - { offset: 0x8DEE1, size: 0x8, addend: 0x0, symName: __ZNSt3__120__shared_ptr_emplaceIN8facebook5react22ConcreteViewShadowNodeIXadL_ZNS2_29DebuggingOverlayComponentNameEEENS2_21DebuggingOverlayPropsENS2_28DebuggingOverlayEventEmitterENS2_9StateDataEEENS_9allocatorIS7_EEED1Ev, symObjAddr: 0x6828, symBinAddr: 0x9DBC, symSize: 0x14 }
  - { offset: 0x8DF03, size: 0x8, addend: 0x0, symName: __ZNSt3__120__shared_ptr_emplaceIN8facebook5react22ConcreteViewShadowNodeIXadL_ZNS2_29DebuggingOverlayComponentNameEEENS2_21DebuggingOverlayPropsENS2_28DebuggingOverlayEventEmitterENS2_9StateDataEEENS_9allocatorIS7_EEED1Ev, symObjAddr: 0x6828, symBinAddr: 0x9DBC, symSize: 0x14 }
  - { offset: 0x8DF39, size: 0x8, addend: 0x0, symName: __ZNSt3__120__shared_ptr_emplaceIN8facebook5react22ConcreteViewShadowNodeIXadL_ZNS2_29DebuggingOverlayComponentNameEEENS2_21DebuggingOverlayPropsENS2_28DebuggingOverlayEventEmitterENS2_9StateDataEEENS_9allocatorIS7_EEED0Ev, symObjAddr: 0x683C, symBinAddr: 0x9DD0, symSize: 0x24 }
  - { offset: 0x8E008, size: 0x8, addend: 0x0, symName: __ZNSt3__120__shared_ptr_emplaceIN8facebook5react22ConcreteViewShadowNodeIXadL_ZNS2_29DebuggingOverlayComponentNameEEENS2_21DebuggingOverlayPropsENS2_28DebuggingOverlayEventEmitterENS2_9StateDataEEENS_9allocatorIS7_EEE16__on_zero_sharedEv, symObjAddr: 0x6860, symBinAddr: 0x9DF4, symSize: 0xC }
  - { offset: 0x8E031, size: 0x8, addend: 0x0, symName: __ZNSt3__120__shared_ptr_emplaceIN8facebook5react22ConcreteViewShadowNodeIXadL_ZNS2_29DebuggingOverlayComponentNameEEENS2_21DebuggingOverlayPropsENS2_28DebuggingOverlayEventEmitterENS2_9StateDataEEENS_9allocatorIS7_EEE16__on_zero_sharedEv, symObjAddr: 0x6860, symBinAddr: 0x9DF4, symSize: 0xC }
  - { offset: 0x8E04F, size: 0x8, addend: 0x0, symName: __ZNSt3__120__shared_ptr_emplaceIN8facebook5react22ConcreteViewShadowNodeIXadL_ZNS2_29DebuggingOverlayComponentNameEEENS2_21DebuggingOverlayPropsENS2_28DebuggingOverlayEventEmitterENS2_9StateDataEEENS_9allocatorIS7_EEE16__on_zero_sharedEv, symObjAddr: 0x6860, symBinAddr: 0x9DF4, symSize: 0xC }
  - { offset: 0x8E06D, size: 0x8, addend: 0x0, symName: __ZNSt3__120__shared_ptr_emplaceIN8facebook5react22ConcreteViewShadowNodeIXadL_ZNS2_29DebuggingOverlayComponentNameEEENS2_21DebuggingOverlayPropsENS2_28DebuggingOverlayEventEmitterENS2_9StateDataEEENS_9allocatorIS7_EEE16__on_zero_sharedEv, symObjAddr: 0x6860, symBinAddr: 0x9DF4, symSize: 0xC }
  - { offset: 0x8E099, size: 0x8, addend: 0x0, symName: __ZNSt3__120__shared_ptr_emplaceIN8facebook5react22ConcreteViewShadowNodeIXadL_ZNS2_29DebuggingOverlayComponentNameEEENS2_21DebuggingOverlayPropsENS2_28DebuggingOverlayEventEmitterENS2_9StateDataEEENS_9allocatorIS7_EEE21__on_zero_shared_weakEv, symObjAddr: 0x686C, symBinAddr: 0x9E00, symSize: 0x4 }
  - { offset: 0x8E0CB, size: 0x8, addend: 0x0, symName: __ZNSt3__120__shared_ptr_emplaceIN8facebook5react22ConcreteViewShadowNodeIXadL_ZNS2_29DebuggingOverlayComponentNameEEENS2_21DebuggingOverlayPropsENS2_28DebuggingOverlayEventEmitterENS2_9StateDataEEENS_9allocatorIS7_EEE21__on_zero_shared_weakEv, symObjAddr: 0x686C, symBinAddr: 0x9E00, symSize: 0x4 }
  - { offset: 0x8E0EC, size: 0x8, addend: 0x0, symName: __ZNSt3__120__shared_ptr_emplaceIN8facebook5react22ConcreteViewShadowNodeIXadL_ZNS2_29DebuggingOverlayComponentNameEEENS2_21DebuggingOverlayPropsENS2_28DebuggingOverlayEventEmitterENS2_9StateDataEEENS_9allocatorIS7_EEE21__on_zero_shared_weakEv, symObjAddr: 0x686C, symBinAddr: 0x9E00, symSize: 0x4 }
  - { offset: 0x8E10E, size: 0x8, addend: 0x0, symName: __ZNSt3__120__shared_ptr_emplaceIN8facebook5react22ConcreteViewShadowNodeIXadL_ZNS2_29DebuggingOverlayComponentNameEEENS2_21DebuggingOverlayPropsENS2_28DebuggingOverlayEventEmitterENS2_9StateDataEEENS_9allocatorIS7_EEE21__on_zero_shared_weakEv, symObjAddr: 0x686C, symBinAddr: 0x9E00, symSize: 0x4 }
  - { offset: 0x8E142, size: 0x8, addend: 0x0, symName: __ZNSt3__120__shared_ptr_emplaceIN8facebook5react22ConcreteViewShadowNodeIXadL_ZNS2_29DebuggingOverlayComponentNameEEENS2_21DebuggingOverlayPropsENS2_28DebuggingOverlayEventEmitterENS2_9StateDataEEENS_9allocatorIS7_EEE21__on_zero_shared_weakEv, symObjAddr: 0x686C, symBinAddr: 0x9E00, symSize: 0x4 }
  - { offset: 0x8E1BE, size: 0x8, addend: 0x0, symName: __ZN8facebook5react22ConcreteViewShadowNodeIXadL_ZNS0_29DebuggingOverlayComponentNameEEENS0_21DebuggingOverlayPropsENS0_28DebuggingOverlayEventEmitterENS0_9StateDataEED1Ev, symObjAddr: 0x68DC, symBinAddr: 0x9E04, symSize: 0x70 }
  - { offset: 0x8E588, size: 0x8, addend: 0x0, symName: __ZN8facebook5react22ConcreteViewShadowNodeIXadL_ZNS0_29DebuggingOverlayComponentNameEEENS0_21DebuggingOverlayPropsENS0_28DebuggingOverlayEventEmitterENS0_9StateDataEED0Ev, symObjAddr: 0x694C, symBinAddr: 0x9E74, symSize: 0x74 }
  - { offset: 0x8E95C, size: 0x8, addend: 0x0, symName: __ZNK8facebook5react22ConcreteViewShadowNodeIXadL_ZNS0_29DebuggingOverlayComponentNameEEENS0_21DebuggingOverlayPropsENS0_28DebuggingOverlayEventEmitterENS0_9StateDataEE12getTransformEv, symObjAddr: 0x69C0, symBinAddr: 0x9EE8, symSize: 0x40 }
  - { offset: 0x8E9CC, size: 0x8, addend: 0x0, symName: __ZNK8facebook5react22ConcreteViewShadowNodeIXadL_ZNS0_29DebuggingOverlayComponentNameEEENS0_21DebuggingOverlayPropsENS0_28DebuggingOverlayEventEmitterENS0_9StateDataEE16canBeTouchTargetEv, symObjAddr: 0x6A00, symBinAddr: 0x9F28, symSize: 0x18 }
  - { offset: 0x8EA05, size: 0x8, addend: 0x0, symName: __ZNK8facebook5react22ConcreteViewShadowNodeIXadL_ZNS0_29DebuggingOverlayComponentNameEEENS0_21DebuggingOverlayPropsENS0_28DebuggingOverlayEventEmitterENS0_9StateDataEE16canBeTouchTargetEv, symObjAddr: 0x6A00, symBinAddr: 0x9F28, symSize: 0x18 }
  - { offset: 0x8EA20, size: 0x8, addend: 0x0, symName: __ZNK8facebook5react22ConcreteViewShadowNodeIXadL_ZNS0_29DebuggingOverlayComponentNameEEENS0_21DebuggingOverlayPropsENS0_28DebuggingOverlayEventEmitterENS0_9StateDataEE16canBeTouchTargetEv, symObjAddr: 0x6A00, symBinAddr: 0x9F28, symSize: 0x18 }
  - { offset: 0x8EA3D, size: 0x8, addend: 0x0, symName: __ZNK8facebook5react22ConcreteViewShadowNodeIXadL_ZNS0_29DebuggingOverlayComponentNameEEENS0_21DebuggingOverlayPropsENS0_28DebuggingOverlayEventEmitterENS0_9StateDataEE24canChildrenBeTouchTargetEv, symObjAddr: 0x6A18, symBinAddr: 0x9F40, symSize: 0x18 }
  - { offset: 0x8EA71, size: 0x8, addend: 0x0, symName: __ZNK8facebook5react22ConcreteViewShadowNodeIXadL_ZNS0_29DebuggingOverlayComponentNameEEENS0_21DebuggingOverlayPropsENS0_28DebuggingOverlayEventEmitterENS0_9StateDataEE24canChildrenBeTouchTargetEv, symObjAddr: 0x6A18, symBinAddr: 0x9F40, symSize: 0x18 }
  - { offset: 0x8EA8C, size: 0x8, addend: 0x0, symName: __ZNK8facebook5react22ConcreteViewShadowNodeIXadL_ZNS0_29DebuggingOverlayComponentNameEEENS0_21DebuggingOverlayPropsENS0_28DebuggingOverlayEventEmitterENS0_9StateDataEE24canChildrenBeTouchTargetEv, symObjAddr: 0x6A18, symBinAddr: 0x9F40, symSize: 0x18 }
  - { offset: 0x8EB07, size: 0x8, addend: 0x0, symName: __ZNSt3__120__shared_ptr_emplaceIN8facebook5react22ConcreteViewShadowNodeIXadL_ZNS2_29DebuggingOverlayComponentNameEEENS2_21DebuggingOverlayPropsENS2_28DebuggingOverlayEventEmitterENS2_9StateDataEEENS_9allocatorIS7_EEEC2B8ne200100IJRKNS2_10ShadowNodeERKNS2_18ShadowNodeFragmentEES9_Li0EEES9_DpOT_, symObjAddr: 0x6AE8, symBinAddr: 0x9FB8, symSize: 0x64 }
  - { offset: 0x8EDD0, size: 0x8, addend: 0x0, symName: __ZNSt3__110shared_ptrIKN8facebook5react21DebuggingOverlayPropsEED1B8ne200100Ev, symObjAddr: 0x6C40, symBinAddr: 0xA110, symSize: 0x4 }
  - { offset: 0x8EDFC, size: 0x8, addend: 0x0, symName: __ZNSt3__110shared_ptrIKN8facebook5react21DebuggingOverlayPropsEED1B8ne200100Ev, symObjAddr: 0x6C40, symBinAddr: 0xA110, symSize: 0x4 }
  - { offset: 0x8F09D, size: 0x8, addend: 0x0, symName: __ZNSt3__120__shared_ptr_emplaceIKN8facebook5react21DebuggingOverlayPropsENS_9allocatorIS3_EEEC2B8ne200100IJES6_Li0EEES6_DpOT_, symObjAddr: 0x6C8C, symBinAddr: 0xA15C, symSize: 0x74 }
  - { offset: 0x8F1FE, size: 0x8, addend: 0x0, symName: __ZNSt3__120__shared_ptr_emplaceIKN8facebook5react21DebuggingOverlayPropsENS_9allocatorIS3_EEED1Ev, symObjAddr: 0x6D00, symBinAddr: 0xA1D0, symSize: 0x14 }
  - { offset: 0x8F220, size: 0x8, addend: 0x0, symName: __ZNSt3__120__shared_ptr_emplaceIKN8facebook5react21DebuggingOverlayPropsENS_9allocatorIS3_EEED1Ev, symObjAddr: 0x6D00, symBinAddr: 0xA1D0, symSize: 0x14 }
  - { offset: 0x8F256, size: 0x8, addend: 0x0, symName: __ZNSt3__120__shared_ptr_emplaceIKN8facebook5react21DebuggingOverlayPropsENS_9allocatorIS3_EEED0Ev, symObjAddr: 0x6D14, symBinAddr: 0xA1E4, symSize: 0x24 }
  - { offset: 0x8F325, size: 0x8, addend: 0x0, symName: __ZNSt3__120__shared_ptr_emplaceIKN8facebook5react21DebuggingOverlayPropsENS_9allocatorIS3_EEE16__on_zero_sharedEv, symObjAddr: 0x6D38, symBinAddr: 0xA208, symSize: 0x14 }
  - { offset: 0x8F34E, size: 0x8, addend: 0x0, symName: __ZNSt3__120__shared_ptr_emplaceIKN8facebook5react21DebuggingOverlayPropsENS_9allocatorIS3_EEE16__on_zero_sharedEv, symObjAddr: 0x6D38, symBinAddr: 0xA208, symSize: 0x14 }
  - { offset: 0x8F3D8, size: 0x8, addend: 0x0, symName: __ZNSt3__120__shared_ptr_emplaceIKN8facebook5react21DebuggingOverlayPropsENS_9allocatorIS3_EEE21__on_zero_shared_weakEv, symObjAddr: 0x6D4C, symBinAddr: 0xA21C, symSize: 0x4 }
  - { offset: 0x8F40A, size: 0x8, addend: 0x0, symName: __ZNSt3__120__shared_ptr_emplaceIKN8facebook5react21DebuggingOverlayPropsENS_9allocatorIS3_EEE21__on_zero_shared_weakEv, symObjAddr: 0x6D4C, symBinAddr: 0xA21C, symSize: 0x4 }
  - { offset: 0x8F42B, size: 0x8, addend: 0x0, symName: __ZNSt3__120__shared_ptr_emplaceIKN8facebook5react21DebuggingOverlayPropsENS_9allocatorIS3_EEE21__on_zero_shared_weakEv, symObjAddr: 0x6D4C, symBinAddr: 0xA21C, symSize: 0x4 }
  - { offset: 0x8F44D, size: 0x8, addend: 0x0, symName: __ZNSt3__120__shared_ptr_emplaceIKN8facebook5react21DebuggingOverlayPropsENS_9allocatorIS3_EEE21__on_zero_shared_weakEv, symObjAddr: 0x6D4C, symBinAddr: 0xA21C, symSize: 0x4 }
  - { offset: 0x8F481, size: 0x8, addend: 0x0, symName: __ZNSt3__120__shared_ptr_emplaceIKN8facebook5react21DebuggingOverlayPropsENS_9allocatorIS3_EEE21__on_zero_shared_weakEv, symObjAddr: 0x6D4C, symBinAddr: 0xA21C, symSize: 0x4 }
  - { offset: 0x8F710, size: 0x8, addend: 0x0, symName: __ZNSt3__120__shared_ptr_emplaceIN8facebook5react21DebuggingOverlayPropsENS_9allocatorIS3_EEEC2B8ne200100IJRKNS2_18PropsParserContextERKS3_RKNS2_8RawPropsEES5_Li0EEES5_DpOT_, symObjAddr: 0x6E18, symBinAddr: 0xA290, symSize: 0x4C }
  - { offset: 0x8F8FC, size: 0x8, addend: 0x0, symName: __ZNSt3__120__shared_ptr_emplaceIN8facebook5react21DebuggingOverlayPropsENS_9allocatorIS3_EEED1Ev, symObjAddr: 0x6E64, symBinAddr: 0xA2DC, symSize: 0x14 }
  - { offset: 0x8F91E, size: 0x8, addend: 0x0, symName: __ZNSt3__120__shared_ptr_emplaceIN8facebook5react21DebuggingOverlayPropsENS_9allocatorIS3_EEED1Ev, symObjAddr: 0x6E64, symBinAddr: 0xA2DC, symSize: 0x14 }
  - { offset: 0x8F954, size: 0x8, addend: 0x0, symName: __ZNSt3__120__shared_ptr_emplaceIN8facebook5react21DebuggingOverlayPropsENS_9allocatorIS3_EEED0Ev, symObjAddr: 0x6E78, symBinAddr: 0xA2F0, symSize: 0x24 }
  - { offset: 0x8F9F3, size: 0x8, addend: 0x0, symName: __ZNSt3__120__shared_ptr_emplaceIN8facebook5react21DebuggingOverlayPropsENS_9allocatorIS3_EEE16__on_zero_sharedEv, symObjAddr: 0x6E9C, symBinAddr: 0xA314, symSize: 0x14 }
  - { offset: 0x8FA1C, size: 0x8, addend: 0x0, symName: __ZNSt3__120__shared_ptr_emplaceIN8facebook5react21DebuggingOverlayPropsENS_9allocatorIS3_EEE16__on_zero_sharedEv, symObjAddr: 0x6E9C, symBinAddr: 0xA314, symSize: 0x14 }
  - { offset: 0x8FAA6, size: 0x8, addend: 0x0, symName: __ZNSt3__120__shared_ptr_emplaceIN8facebook5react21DebuggingOverlayPropsENS_9allocatorIS3_EEE21__on_zero_shared_weakEv, symObjAddr: 0x6EB0, symBinAddr: 0xA328, symSize: 0x4 }
  - { offset: 0x8FAD8, size: 0x8, addend: 0x0, symName: __ZNSt3__120__shared_ptr_emplaceIN8facebook5react21DebuggingOverlayPropsENS_9allocatorIS3_EEE21__on_zero_shared_weakEv, symObjAddr: 0x6EB0, symBinAddr: 0xA328, symSize: 0x4 }
  - { offset: 0x8FAF9, size: 0x8, addend: 0x0, symName: __ZNSt3__120__shared_ptr_emplaceIN8facebook5react21DebuggingOverlayPropsENS_9allocatorIS3_EEE21__on_zero_shared_weakEv, symObjAddr: 0x6EB0, symBinAddr: 0xA328, symSize: 0x4 }
  - { offset: 0x8FB1B, size: 0x8, addend: 0x0, symName: __ZNSt3__120__shared_ptr_emplaceIN8facebook5react21DebuggingOverlayPropsENS_9allocatorIS3_EEE21__on_zero_shared_weakEv, symObjAddr: 0x6EB0, symBinAddr: 0xA328, symSize: 0x4 }
  - { offset: 0x8FB4F, size: 0x8, addend: 0x0, symName: __ZNSt3__120__shared_ptr_emplaceIN8facebook5react21DebuggingOverlayPropsENS_9allocatorIS3_EEE21__on_zero_shared_weakEv, symObjAddr: 0x6EB0, symBinAddr: 0xA328, symSize: 0x4 }
  - { offset: 0x8FDCD, size: 0x8, addend: 0x0, symName: __ZNSt3__120__shared_ptr_emplaceIKN8facebook5react28DebuggingOverlayEventEmitterENS_9allocatorIS3_EEEC2B8ne200100IJNS_10shared_ptrINS2_11EventTargetEEERKNS_8weak_ptrIKNS2_15EventDispatcherEEEES6_Li0EEES6_DpOT_, symObjAddr: 0x6F6C, symBinAddr: 0xA38C, symSize: 0x4C }
  - { offset: 0x8FF7B, size: 0x8, addend: 0x0, symName: __ZNSt3__120__shared_ptr_emplaceIKN8facebook5react28DebuggingOverlayEventEmitterENS_9allocatorIS3_EEED1Ev, symObjAddr: 0x6FB8, symBinAddr: 0xA3D8, symSize: 0x14 }
  - { offset: 0x8FF9D, size: 0x8, addend: 0x0, symName: __ZNSt3__120__shared_ptr_emplaceIKN8facebook5react28DebuggingOverlayEventEmitterENS_9allocatorIS3_EEED1Ev, symObjAddr: 0x6FB8, symBinAddr: 0xA3D8, symSize: 0x14 }
  - { offset: 0x8FFD3, size: 0x8, addend: 0x0, symName: __ZNSt3__120__shared_ptr_emplaceIKN8facebook5react28DebuggingOverlayEventEmitterENS_9allocatorIS3_EEED0Ev, symObjAddr: 0x6FCC, symBinAddr: 0xA3EC, symSize: 0x24 }
  - { offset: 0x900A2, size: 0x8, addend: 0x0, symName: __ZNSt3__120__shared_ptr_emplaceIKN8facebook5react28DebuggingOverlayEventEmitterENS_9allocatorIS3_EEE16__on_zero_sharedEv, symObjAddr: 0x6FF0, symBinAddr: 0xA410, symSize: 0xC }
  - { offset: 0x900CB, size: 0x8, addend: 0x0, symName: __ZNSt3__120__shared_ptr_emplaceIKN8facebook5react28DebuggingOverlayEventEmitterENS_9allocatorIS3_EEE16__on_zero_sharedEv, symObjAddr: 0x6FF0, symBinAddr: 0xA410, symSize: 0xC }
  - { offset: 0x900E9, size: 0x8, addend: 0x0, symName: __ZNSt3__120__shared_ptr_emplaceIKN8facebook5react28DebuggingOverlayEventEmitterENS_9allocatorIS3_EEE16__on_zero_sharedEv, symObjAddr: 0x6FF0, symBinAddr: 0xA410, symSize: 0xC }
  - { offset: 0x90107, size: 0x8, addend: 0x0, symName: __ZNSt3__120__shared_ptr_emplaceIKN8facebook5react28DebuggingOverlayEventEmitterENS_9allocatorIS3_EEE16__on_zero_sharedEv, symObjAddr: 0x6FF0, symBinAddr: 0xA410, symSize: 0xC }
  - { offset: 0x90133, size: 0x8, addend: 0x0, symName: __ZNSt3__120__shared_ptr_emplaceIKN8facebook5react28DebuggingOverlayEventEmitterENS_9allocatorIS3_EEE21__on_zero_shared_weakEv, symObjAddr: 0x6FFC, symBinAddr: 0xA41C, symSize: 0x4 }
  - { offset: 0x90165, size: 0x8, addend: 0x0, symName: __ZNSt3__120__shared_ptr_emplaceIKN8facebook5react28DebuggingOverlayEventEmitterENS_9allocatorIS3_EEE21__on_zero_shared_weakEv, symObjAddr: 0x6FFC, symBinAddr: 0xA41C, symSize: 0x4 }
  - { offset: 0x90186, size: 0x8, addend: 0x0, symName: __ZNSt3__120__shared_ptr_emplaceIKN8facebook5react28DebuggingOverlayEventEmitterENS_9allocatorIS3_EEE21__on_zero_shared_weakEv, symObjAddr: 0x6FFC, symBinAddr: 0xA41C, symSize: 0x4 }
  - { offset: 0x901A8, size: 0x8, addend: 0x0, symName: __ZNSt3__120__shared_ptr_emplaceIKN8facebook5react28DebuggingOverlayEventEmitterENS_9allocatorIS3_EEE21__on_zero_shared_weakEv, symObjAddr: 0x6FFC, symBinAddr: 0xA41C, symSize: 0x4 }
  - { offset: 0x901DB, size: 0x8, addend: 0x0, symName: __ZNSt3__120__shared_ptr_emplaceIKN8facebook5react28DebuggingOverlayEventEmitterENS_9allocatorIS3_EEE21__on_zero_shared_weakEv, symObjAddr: 0x6FFC, symBinAddr: 0xA41C, symSize: 0x4 }
  - { offset: 0x90271, size: 0x8, addend: 0x0, symName: __ZN8facebook5react28DebuggingOverlayEventEmitterD1Ev, symObjAddr: 0x7140, symBinAddr: 0xA560, symSize: 0x34 }
  - { offset: 0x90345, size: 0x8, addend: 0x0, symName: __ZN8facebook5react28DebuggingOverlayEventEmitterD0Ev, symObjAddr: 0x7174, symBinAddr: 0xA594, symSize: 0x38 }
  - { offset: 0x904A0, size: 0x8, addend: 0x0, symName: __ZNSt3__120__shared_ptr_emplaceIN8facebook5react16ShadowNodeFamilyENS_9allocatorIS3_EEEC2B8ne200100IJRKNS2_24ShadowNodeFamilyFragmentERNS_10shared_ptrIKNS2_28DebuggingOverlayEventEmitterEEERKNS_8weak_ptrIKNS2_15EventDispatcherEEERKNS2_27ConcreteComponentDescriptorINS2_22ConcreteViewShadowNodeIXadL_ZNS2_29DebuggingOverlayComponentNameEEENS2_21DebuggingOverlayPropsESC_NS2_9StateDataEEEEEES5_Li0EEES5_DpOT_, symObjAddr: 0x7224, symBinAddr: 0xA644, symSize: 0x4C }
  - { offset: 0x9087B, size: 0x8, addend: 0x0, symName: __ZN8facebook5react14RawPropsParser7prepareINS0_22PullToRefreshViewPropsEEEvv, symObjAddr: 0x74AC, symBinAddr: 0xA874, symSize: 0x2E0 }
  - { offset: 0x91742, size: 0x8, addend: 0x0, symName: __ZN8facebook5react27ConcreteComponentDescriptorINS0_22ConcreteViewShadowNodeIXadL_ZNS0_30PullToRefreshViewComponentNameEEENS0_22PullToRefreshViewPropsENS0_29PullToRefreshViewEventEmitterENS0_9StateDataEEEED1Ev, symObjAddr: 0x778C, symBinAddr: 0xAB54, symSize: 0x4 }
  - { offset: 0x91764, size: 0x8, addend: 0x0, symName: __ZN8facebook5react27ConcreteComponentDescriptorINS0_22ConcreteViewShadowNodeIXadL_ZNS0_30PullToRefreshViewComponentNameEEENS0_22PullToRefreshViewPropsENS0_29PullToRefreshViewEventEmitterENS0_9StateDataEEEED1Ev, symObjAddr: 0x778C, symBinAddr: 0xAB54, symSize: 0x4 }
  - { offset: 0x91781, size: 0x8, addend: 0x0, symName: __ZN8facebook5react27ConcreteComponentDescriptorINS0_22ConcreteViewShadowNodeIXadL_ZNS0_30PullToRefreshViewComponentNameEEENS0_22PullToRefreshViewPropsENS0_29PullToRefreshViewEventEmitterENS0_9StateDataEEEED1Ev, symObjAddr: 0x778C, symBinAddr: 0xAB54, symSize: 0x4 }
  - { offset: 0x917B0, size: 0x8, addend: 0x0, symName: __ZN8facebook5react27ConcreteComponentDescriptorINS0_22ConcreteViewShadowNodeIXadL_ZNS0_30PullToRefreshViewComponentNameEEENS0_22PullToRefreshViewPropsENS0_29PullToRefreshViewEventEmitterENS0_9StateDataEEEED0Ev, symObjAddr: 0x7790, symBinAddr: 0xAB58, symSize: 0x14 }
  - { offset: 0x91828, size: 0x8, addend: 0x0, symName: __ZNK8facebook5react27ConcreteComponentDescriptorINS0_22ConcreteViewShadowNodeIXadL_ZNS0_30PullToRefreshViewComponentNameEEENS0_22PullToRefreshViewPropsENS0_29PullToRefreshViewEventEmitterENS0_9StateDataEEEE18getComponentHandleEv, symObjAddr: 0x77A4, symBinAddr: 0xAB6C, symSize: 0xC }
  - { offset: 0x9184F, size: 0x8, addend: 0x0, symName: __ZNK8facebook5react27ConcreteComponentDescriptorINS0_22ConcreteViewShadowNodeIXadL_ZNS0_30PullToRefreshViewComponentNameEEENS0_22PullToRefreshViewPropsENS0_29PullToRefreshViewEventEmitterENS0_9StateDataEEEE16getComponentNameEv, symObjAddr: 0x77B0, symBinAddr: 0xAB78, symSize: 0xC }
  - { offset: 0x91876, size: 0x8, addend: 0x0, symName: __ZNK8facebook5react27ConcreteComponentDescriptorINS0_22ConcreteViewShadowNodeIXadL_ZNS0_30PullToRefreshViewComponentNameEEENS0_22PullToRefreshViewPropsENS0_29PullToRefreshViewEventEmitterENS0_9StateDataEEEE9getTraitsEv, symObjAddr: 0x77BC, symBinAddr: 0xAB84, symSize: 0x8 }
  - { offset: 0x91976, size: 0x8, addend: 0x0, symName: __ZNK8facebook5react27ConcreteComponentDescriptorINS0_22ConcreteViewShadowNodeIXadL_ZNS0_30PullToRefreshViewComponentNameEEENS0_22PullToRefreshViewPropsENS0_29PullToRefreshViewEventEmitterENS0_9StateDataEEEE16createShadowNodeERKNS0_18ShadowNodeFragmentERKNSt3__110shared_ptrIKNS0_16ShadowNodeFamilyEEE, symObjAddr: 0x77C4, symBinAddr: 0xAB8C, symSize: 0x90 }
  - { offset: 0x91BC1, size: 0x8, addend: 0x0, symName: __ZNK8facebook5react27ConcreteComponentDescriptorINS0_22ConcreteViewShadowNodeIXadL_ZNS0_30PullToRefreshViewComponentNameEEENS0_22PullToRefreshViewPropsENS0_29PullToRefreshViewEventEmitterENS0_9StateDataEEEE15cloneShadowNodeERKNS0_10ShadowNodeERKNS0_18ShadowNodeFragmentE, symObjAddr: 0x7854, symBinAddr: 0xAC1C, symSize: 0x104 }
  - { offset: 0x91EB9, size: 0x8, addend: 0x0, symName: __ZNK8facebook5react27ConcreteComponentDescriptorINS0_22ConcreteViewShadowNodeIXadL_ZNS0_30PullToRefreshViewComponentNameEEENS0_22PullToRefreshViewPropsENS0_29PullToRefreshViewEventEmitterENS0_9StateDataEEEE11appendChildERKNSt3__110shared_ptrIKNS0_10ShadowNodeEEESE_, symObjAddr: 0x7958, symBinAddr: 0xAD20, symSize: 0x14 }
  - { offset: 0x91F10, size: 0x8, addend: 0x0, symName: __ZNK8facebook5react27ConcreteComponentDescriptorINS0_22ConcreteViewShadowNodeIXadL_ZNS0_30PullToRefreshViewComponentNameEEENS0_22PullToRefreshViewPropsENS0_29PullToRefreshViewEventEmitterENS0_9StateDataEEEE11appendChildERKNSt3__110shared_ptrIKNS0_10ShadowNodeEEESE_, symObjAddr: 0x7958, symBinAddr: 0xAD20, symSize: 0x14 }
  - { offset: 0x9203A, size: 0x8, addend: 0x0, symName: __ZNK8facebook5react27ConcreteComponentDescriptorINS0_22ConcreteViewShadowNodeIXadL_ZNS0_30PullToRefreshViewComponentNameEEENS0_22PullToRefreshViewPropsENS0_29PullToRefreshViewEventEmitterENS0_9StateDataEEEE10clonePropsERKNS0_18PropsParserContextERKNSt3__110shared_ptrIKNS0_5PropsEEENS0_8RawPropsE, symObjAddr: 0x796C, symBinAddr: 0xAD34, symSize: 0x21C }
  - { offset: 0x92B5E, size: 0x8, addend: 0x0, symName: __ZN8facebook5react18ConcreteShadowNodeIXadL_ZNS0_30PullToRefreshViewComponentNameEEENS0_24YogaLayoutableShadowNodeENS0_22PullToRefreshViewPropsENS0_29PullToRefreshViewEventEmitterENS0_9StateDataEE5PropsERKNS0_18PropsParserContextERKNS0_8RawPropsERKNSt3__110shared_ptrIKNS0_5PropsEEE, symObjAddr: 0x8238, symBinAddr: 0xB53C, symSize: 0x58 }
  - { offset: 0x92CAE, size: 0x8, addend: 0x0, symName: __ZNK8facebook5react27ConcreteComponentDescriptorINS0_22ConcreteViewShadowNodeIXadL_ZNS0_30PullToRefreshViewComponentNameEEENS0_22PullToRefreshViewPropsENS0_29PullToRefreshViewEventEmitterENS0_9StateDataEEEE18createInitialStateERKNSt3__110shared_ptrIKNS0_5PropsEEERKNS9_IKNS0_16ShadowNodeFamilyEEE, symObjAddr: 0x7B88, symBinAddr: 0xAF50, symSize: 0x8 }
  - { offset: 0x92CF1, size: 0x8, addend: 0x0, symName: __ZNK8facebook5react27ConcreteComponentDescriptorINS0_22ConcreteViewShadowNodeIXadL_ZNS0_30PullToRefreshViewComponentNameEEENS0_22PullToRefreshViewPropsENS0_29PullToRefreshViewEventEmitterENS0_9StateDataEEEE18createInitialStateERKNSt3__110shared_ptrIKNS0_5PropsEEERKNS9_IKNS0_16ShadowNodeFamilyEEE, symObjAddr: 0x7B88, symBinAddr: 0xAF50, symSize: 0x8 }
  - { offset: 0x92D12, size: 0x8, addend: 0x0, symName: __ZNK8facebook5react27ConcreteComponentDescriptorINS0_22ConcreteViewShadowNodeIXadL_ZNS0_30PullToRefreshViewComponentNameEEENS0_22PullToRefreshViewPropsENS0_29PullToRefreshViewEventEmitterENS0_9StateDataEEEE18createInitialStateERKNSt3__110shared_ptrIKNS0_5PropsEEERKNS9_IKNS0_16ShadowNodeFamilyEEE, symObjAddr: 0x7B88, symBinAddr: 0xAF50, symSize: 0x8 }
  - { offset: 0x92D34, size: 0x8, addend: 0x0, symName: __ZNK8facebook5react27ConcreteComponentDescriptorINS0_22ConcreteViewShadowNodeIXadL_ZNS0_30PullToRefreshViewComponentNameEEENS0_22PullToRefreshViewPropsENS0_29PullToRefreshViewEventEmitterENS0_9StateDataEEEE11createStateERKNS0_16ShadowNodeFamilyERKNSt3__110shared_ptrIKvEE, symObjAddr: 0x7B90, symBinAddr: 0xAF58, symSize: 0x8 }
  - { offset: 0x92D77, size: 0x8, addend: 0x0, symName: __ZNK8facebook5react27ConcreteComponentDescriptorINS0_22ConcreteViewShadowNodeIXadL_ZNS0_30PullToRefreshViewComponentNameEEENS0_22PullToRefreshViewPropsENS0_29PullToRefreshViewEventEmitterENS0_9StateDataEEEE11createStateERKNS0_16ShadowNodeFamilyERKNSt3__110shared_ptrIKvEE, symObjAddr: 0x7B90, symBinAddr: 0xAF58, symSize: 0x8 }
  - { offset: 0x92D98, size: 0x8, addend: 0x0, symName: __ZNK8facebook5react27ConcreteComponentDescriptorINS0_22ConcreteViewShadowNodeIXadL_ZNS0_30PullToRefreshViewComponentNameEEENS0_22PullToRefreshViewPropsENS0_29PullToRefreshViewEventEmitterENS0_9StateDataEEEE11createStateERKNS0_16ShadowNodeFamilyERKNSt3__110shared_ptrIKvEE, symObjAddr: 0x7B90, symBinAddr: 0xAF58, symSize: 0x8 }
  - { offset: 0x92E3F, size: 0x8, addend: 0x0, symName: __ZNK8facebook5react27ConcreteComponentDescriptorINS0_22ConcreteViewShadowNodeIXadL_ZNS0_30PullToRefreshViewComponentNameEEENS0_22PullToRefreshViewPropsENS0_29PullToRefreshViewEventEmitterENS0_9StateDataEEEE12createFamilyERKNS0_24ShadowNodeFamilyFragmentE, symObjAddr: 0x7B98, symBinAddr: 0xAF60, symSize: 0x168 }
  - { offset: 0x932E9, size: 0x8, addend: 0x0, symName: __ZNK8facebook5react27ConcreteComponentDescriptorINS0_22ConcreteViewShadowNodeIXadL_ZNS0_30PullToRefreshViewComponentNameEEENS0_22PullToRefreshViewPropsENS0_29PullToRefreshViewEventEmitterENS0_9StateDataEEEE5adoptERNS0_10ShadowNodeE, symObjAddr: 0x7D00, symBinAddr: 0xB0C8, symSize: 0x4 }
  - { offset: 0x9331C, size: 0x8, addend: 0x0, symName: __ZN8facebook5react22PullToRefreshViewPropsD1Ev, symObjAddr: 0x7D04, symBinAddr: 0xB0CC, symSize: 0x4C }
  - { offset: 0x93575, size: 0x8, addend: 0x0, symName: __ZN8facebook5react22PullToRefreshViewPropsD0Ev, symObjAddr: 0x7D50, symBinAddr: 0xB118, symSize: 0x50 }
  - { offset: 0x93A60, size: 0x8, addend: 0x0, symName: __ZNSt3__120__shared_ptr_emplaceIN8facebook5react22ConcreteViewShadowNodeIXadL_ZNS2_30PullToRefreshViewComponentNameEEENS2_22PullToRefreshViewPropsENS2_29PullToRefreshViewEventEmitterENS2_9StateDataEEENS_9allocatorIS7_EEEC2B8ne200100IJRKNS2_18ShadowNodeFragmentERKNS_10shared_ptrIKNS2_16ShadowNodeFamilyEEENS2_16ShadowNodeTraitsEES9_Li0EEES9_DpOT_, symObjAddr: 0x7E10, symBinAddr: 0xB1D8, symSize: 0x68 }
  - { offset: 0x93E2D, size: 0x8, addend: 0x0, symName: __ZNSt3__120__shared_ptr_emplaceIN8facebook5react22ConcreteViewShadowNodeIXadL_ZNS2_30PullToRefreshViewComponentNameEEENS2_22PullToRefreshViewPropsENS2_29PullToRefreshViewEventEmitterENS2_9StateDataEEENS_9allocatorIS7_EEED1Ev, symObjAddr: 0x7E78, symBinAddr: 0xB240, symSize: 0x14 }
  - { offset: 0x93E4F, size: 0x8, addend: 0x0, symName: __ZNSt3__120__shared_ptr_emplaceIN8facebook5react22ConcreteViewShadowNodeIXadL_ZNS2_30PullToRefreshViewComponentNameEEENS2_22PullToRefreshViewPropsENS2_29PullToRefreshViewEventEmitterENS2_9StateDataEEENS_9allocatorIS7_EEED1Ev, symObjAddr: 0x7E78, symBinAddr: 0xB240, symSize: 0x14 }
  - { offset: 0x93E85, size: 0x8, addend: 0x0, symName: __ZNSt3__120__shared_ptr_emplaceIN8facebook5react22ConcreteViewShadowNodeIXadL_ZNS2_30PullToRefreshViewComponentNameEEENS2_22PullToRefreshViewPropsENS2_29PullToRefreshViewEventEmitterENS2_9StateDataEEENS_9allocatorIS7_EEED0Ev, symObjAddr: 0x7E8C, symBinAddr: 0xB254, symSize: 0x24 }
  - { offset: 0x93F54, size: 0x8, addend: 0x0, symName: __ZNSt3__120__shared_ptr_emplaceIN8facebook5react22ConcreteViewShadowNodeIXadL_ZNS2_30PullToRefreshViewComponentNameEEENS2_22PullToRefreshViewPropsENS2_29PullToRefreshViewEventEmitterENS2_9StateDataEEENS_9allocatorIS7_EEE16__on_zero_sharedEv, symObjAddr: 0x7EB0, symBinAddr: 0xB278, symSize: 0xC }
  - { offset: 0x93F7D, size: 0x8, addend: 0x0, symName: __ZNSt3__120__shared_ptr_emplaceIN8facebook5react22ConcreteViewShadowNodeIXadL_ZNS2_30PullToRefreshViewComponentNameEEENS2_22PullToRefreshViewPropsENS2_29PullToRefreshViewEventEmitterENS2_9StateDataEEENS_9allocatorIS7_EEE16__on_zero_sharedEv, symObjAddr: 0x7EB0, symBinAddr: 0xB278, symSize: 0xC }
  - { offset: 0x93F9B, size: 0x8, addend: 0x0, symName: __ZNSt3__120__shared_ptr_emplaceIN8facebook5react22ConcreteViewShadowNodeIXadL_ZNS2_30PullToRefreshViewComponentNameEEENS2_22PullToRefreshViewPropsENS2_29PullToRefreshViewEventEmitterENS2_9StateDataEEENS_9allocatorIS7_EEE16__on_zero_sharedEv, symObjAddr: 0x7EB0, symBinAddr: 0xB278, symSize: 0xC }
  - { offset: 0x93FB9, size: 0x8, addend: 0x0, symName: __ZNSt3__120__shared_ptr_emplaceIN8facebook5react22ConcreteViewShadowNodeIXadL_ZNS2_30PullToRefreshViewComponentNameEEENS2_22PullToRefreshViewPropsENS2_29PullToRefreshViewEventEmitterENS2_9StateDataEEENS_9allocatorIS7_EEE16__on_zero_sharedEv, symObjAddr: 0x7EB0, symBinAddr: 0xB278, symSize: 0xC }
  - { offset: 0x93FE5, size: 0x8, addend: 0x0, symName: __ZNSt3__120__shared_ptr_emplaceIN8facebook5react22ConcreteViewShadowNodeIXadL_ZNS2_30PullToRefreshViewComponentNameEEENS2_22PullToRefreshViewPropsENS2_29PullToRefreshViewEventEmitterENS2_9StateDataEEENS_9allocatorIS7_EEE21__on_zero_shared_weakEv, symObjAddr: 0x7EBC, symBinAddr: 0xB284, symSize: 0x4 }
  - { offset: 0x94017, size: 0x8, addend: 0x0, symName: __ZNSt3__120__shared_ptr_emplaceIN8facebook5react22ConcreteViewShadowNodeIXadL_ZNS2_30PullToRefreshViewComponentNameEEENS2_22PullToRefreshViewPropsENS2_29PullToRefreshViewEventEmitterENS2_9StateDataEEENS_9allocatorIS7_EEE21__on_zero_shared_weakEv, symObjAddr: 0x7EBC, symBinAddr: 0xB284, symSize: 0x4 }
  - { offset: 0x94038, size: 0x8, addend: 0x0, symName: __ZNSt3__120__shared_ptr_emplaceIN8facebook5react22ConcreteViewShadowNodeIXadL_ZNS2_30PullToRefreshViewComponentNameEEENS2_22PullToRefreshViewPropsENS2_29PullToRefreshViewEventEmitterENS2_9StateDataEEENS_9allocatorIS7_EEE21__on_zero_shared_weakEv, symObjAddr: 0x7EBC, symBinAddr: 0xB284, symSize: 0x4 }
  - { offset: 0x9405A, size: 0x8, addend: 0x0, symName: __ZNSt3__120__shared_ptr_emplaceIN8facebook5react22ConcreteViewShadowNodeIXadL_ZNS2_30PullToRefreshViewComponentNameEEENS2_22PullToRefreshViewPropsENS2_29PullToRefreshViewEventEmitterENS2_9StateDataEEENS_9allocatorIS7_EEE21__on_zero_shared_weakEv, symObjAddr: 0x7EBC, symBinAddr: 0xB284, symSize: 0x4 }
  - { offset: 0x9408E, size: 0x8, addend: 0x0, symName: __ZNSt3__120__shared_ptr_emplaceIN8facebook5react22ConcreteViewShadowNodeIXadL_ZNS2_30PullToRefreshViewComponentNameEEENS2_22PullToRefreshViewPropsENS2_29PullToRefreshViewEventEmitterENS2_9StateDataEEENS_9allocatorIS7_EEE21__on_zero_shared_weakEv, symObjAddr: 0x7EBC, symBinAddr: 0xB284, symSize: 0x4 }
  - { offset: 0x9410A, size: 0x8, addend: 0x0, symName: __ZN8facebook5react22ConcreteViewShadowNodeIXadL_ZNS0_30PullToRefreshViewComponentNameEEENS0_22PullToRefreshViewPropsENS0_29PullToRefreshViewEventEmitterENS0_9StateDataEED1Ev, symObjAddr: 0x7F2C, symBinAddr: 0xB288, symSize: 0x70 }
  - { offset: 0x944D4, size: 0x8, addend: 0x0, symName: __ZN8facebook5react22ConcreteViewShadowNodeIXadL_ZNS0_30PullToRefreshViewComponentNameEEENS0_22PullToRefreshViewPropsENS0_29PullToRefreshViewEventEmitterENS0_9StateDataEED0Ev, symObjAddr: 0x7F9C, symBinAddr: 0xB2F8, symSize: 0x74 }
  - { offset: 0x948A8, size: 0x8, addend: 0x0, symName: __ZNK8facebook5react22ConcreteViewShadowNodeIXadL_ZNS0_30PullToRefreshViewComponentNameEEENS0_22PullToRefreshViewPropsENS0_29PullToRefreshViewEventEmitterENS0_9StateDataEE12getTransformEv, symObjAddr: 0x8010, symBinAddr: 0xB36C, symSize: 0x40 }
  - { offset: 0x94918, size: 0x8, addend: 0x0, symName: __ZNK8facebook5react22ConcreteViewShadowNodeIXadL_ZNS0_30PullToRefreshViewComponentNameEEENS0_22PullToRefreshViewPropsENS0_29PullToRefreshViewEventEmitterENS0_9StateDataEE16canBeTouchTargetEv, symObjAddr: 0x8050, symBinAddr: 0xB3AC, symSize: 0x18 }
  - { offset: 0x94951, size: 0x8, addend: 0x0, symName: __ZNK8facebook5react22ConcreteViewShadowNodeIXadL_ZNS0_30PullToRefreshViewComponentNameEEENS0_22PullToRefreshViewPropsENS0_29PullToRefreshViewEventEmitterENS0_9StateDataEE16canBeTouchTargetEv, symObjAddr: 0x8050, symBinAddr: 0xB3AC, symSize: 0x18 }
  - { offset: 0x9496C, size: 0x8, addend: 0x0, symName: __ZNK8facebook5react22ConcreteViewShadowNodeIXadL_ZNS0_30PullToRefreshViewComponentNameEEENS0_22PullToRefreshViewPropsENS0_29PullToRefreshViewEventEmitterENS0_9StateDataEE16canBeTouchTargetEv, symObjAddr: 0x8050, symBinAddr: 0xB3AC, symSize: 0x18 }
  - { offset: 0x94989, size: 0x8, addend: 0x0, symName: __ZNK8facebook5react22ConcreteViewShadowNodeIXadL_ZNS0_30PullToRefreshViewComponentNameEEENS0_22PullToRefreshViewPropsENS0_29PullToRefreshViewEventEmitterENS0_9StateDataEE24canChildrenBeTouchTargetEv, symObjAddr: 0x8068, symBinAddr: 0xB3C4, symSize: 0x18 }
  - { offset: 0x949BD, size: 0x8, addend: 0x0, symName: __ZNK8facebook5react22ConcreteViewShadowNodeIXadL_ZNS0_30PullToRefreshViewComponentNameEEENS0_22PullToRefreshViewPropsENS0_29PullToRefreshViewEventEmitterENS0_9StateDataEE24canChildrenBeTouchTargetEv, symObjAddr: 0x8068, symBinAddr: 0xB3C4, symSize: 0x18 }
  - { offset: 0x949D8, size: 0x8, addend: 0x0, symName: __ZNK8facebook5react22ConcreteViewShadowNodeIXadL_ZNS0_30PullToRefreshViewComponentNameEEENS0_22PullToRefreshViewPropsENS0_29PullToRefreshViewEventEmitterENS0_9StateDataEE24canChildrenBeTouchTargetEv, symObjAddr: 0x8068, symBinAddr: 0xB3C4, symSize: 0x18 }
  - { offset: 0x94A53, size: 0x8, addend: 0x0, symName: __ZNSt3__120__shared_ptr_emplaceIN8facebook5react22ConcreteViewShadowNodeIXadL_ZNS2_30PullToRefreshViewComponentNameEEENS2_22PullToRefreshViewPropsENS2_29PullToRefreshViewEventEmitterENS2_9StateDataEEENS_9allocatorIS7_EEEC2B8ne200100IJRKNS2_10ShadowNodeERKNS2_18ShadowNodeFragmentEES9_Li0EEES9_DpOT_, symObjAddr: 0x8138, symBinAddr: 0xB43C, symSize: 0x64 }
  - { offset: 0x94D1C, size: 0x8, addend: 0x0, symName: __ZNSt3__110shared_ptrIKN8facebook5react22PullToRefreshViewPropsEED1B8ne200100Ev, symObjAddr: 0x8290, symBinAddr: 0xB594, symSize: 0x4 }
  - { offset: 0x94D48, size: 0x8, addend: 0x0, symName: __ZNSt3__110shared_ptrIKN8facebook5react22PullToRefreshViewPropsEED1B8ne200100Ev, symObjAddr: 0x8290, symBinAddr: 0xB594, symSize: 0x4 }
  - { offset: 0x94FE9, size: 0x8, addend: 0x0, symName: __ZNSt3__120__shared_ptr_emplaceIKN8facebook5react22PullToRefreshViewPropsENS_9allocatorIS3_EEEC2B8ne200100IJES6_Li0EEES6_DpOT_, symObjAddr: 0x82DC, symBinAddr: 0xB5E0, symSize: 0x8C }
  - { offset: 0x95213, size: 0x8, addend: 0x0, symName: __ZNSt3__120__shared_ptr_emplaceIKN8facebook5react22PullToRefreshViewPropsENS_9allocatorIS3_EEED1Ev, symObjAddr: 0x8368, symBinAddr: 0xB66C, symSize: 0x14 }
  - { offset: 0x95235, size: 0x8, addend: 0x0, symName: __ZNSt3__120__shared_ptr_emplaceIKN8facebook5react22PullToRefreshViewPropsENS_9allocatorIS3_EEED1Ev, symObjAddr: 0x8368, symBinAddr: 0xB66C, symSize: 0x14 }
  - { offset: 0x9526B, size: 0x8, addend: 0x0, symName: __ZNSt3__120__shared_ptr_emplaceIKN8facebook5react22PullToRefreshViewPropsENS_9allocatorIS3_EEED0Ev, symObjAddr: 0x837C, symBinAddr: 0xB680, symSize: 0x24 }
  - { offset: 0x9533A, size: 0x8, addend: 0x0, symName: __ZNSt3__120__shared_ptr_emplaceIKN8facebook5react22PullToRefreshViewPropsENS_9allocatorIS3_EEE16__on_zero_sharedEv, symObjAddr: 0x83A0, symBinAddr: 0xB6A4, symSize: 0x8 }
  - { offset: 0x95363, size: 0x8, addend: 0x0, symName: __ZNSt3__120__shared_ptr_emplaceIKN8facebook5react22PullToRefreshViewPropsENS_9allocatorIS3_EEE16__on_zero_sharedEv, symObjAddr: 0x83A0, symBinAddr: 0xB6A4, symSize: 0x8 }
  - { offset: 0x95381, size: 0x8, addend: 0x0, symName: __ZNSt3__120__shared_ptr_emplaceIKN8facebook5react22PullToRefreshViewPropsENS_9allocatorIS3_EEE16__on_zero_sharedEv, symObjAddr: 0x83A0, symBinAddr: 0xB6A4, symSize: 0x8 }
  - { offset: 0x953BE, size: 0x8, addend: 0x0, symName: __ZNSt3__120__shared_ptr_emplaceIKN8facebook5react22PullToRefreshViewPropsENS_9allocatorIS3_EEE21__on_zero_shared_weakEv, symObjAddr: 0x83A8, symBinAddr: 0xB6AC, symSize: 0x4 }
  - { offset: 0x953F0, size: 0x8, addend: 0x0, symName: __ZNSt3__120__shared_ptr_emplaceIKN8facebook5react22PullToRefreshViewPropsENS_9allocatorIS3_EEE21__on_zero_shared_weakEv, symObjAddr: 0x83A8, symBinAddr: 0xB6AC, symSize: 0x4 }
  - { offset: 0x95411, size: 0x8, addend: 0x0, symName: __ZNSt3__120__shared_ptr_emplaceIKN8facebook5react22PullToRefreshViewPropsENS_9allocatorIS3_EEE21__on_zero_shared_weakEv, symObjAddr: 0x83A8, symBinAddr: 0xB6AC, symSize: 0x4 }
  - { offset: 0x95433, size: 0x8, addend: 0x0, symName: __ZNSt3__120__shared_ptr_emplaceIKN8facebook5react22PullToRefreshViewPropsENS_9allocatorIS3_EEE21__on_zero_shared_weakEv, symObjAddr: 0x83A8, symBinAddr: 0xB6AC, symSize: 0x4 }
  - { offset: 0x95467, size: 0x8, addend: 0x0, symName: __ZNSt3__120__shared_ptr_emplaceIKN8facebook5react22PullToRefreshViewPropsENS_9allocatorIS3_EEE21__on_zero_shared_weakEv, symObjAddr: 0x83A8, symBinAddr: 0xB6AC, symSize: 0x4 }
  - { offset: 0x956F6, size: 0x8, addend: 0x0, symName: __ZNSt3__120__shared_ptr_emplaceIN8facebook5react22PullToRefreshViewPropsENS_9allocatorIS3_EEEC2B8ne200100IJRKNS2_18PropsParserContextERKS3_RKNS2_8RawPropsEES5_Li0EEES5_DpOT_, symObjAddr: 0x84C0, symBinAddr: 0xB76C, symSize: 0x4C }
  - { offset: 0x958E2, size: 0x8, addend: 0x0, symName: __ZNSt3__120__shared_ptr_emplaceIN8facebook5react22PullToRefreshViewPropsENS_9allocatorIS3_EEED1Ev, symObjAddr: 0x850C, symBinAddr: 0xB7B8, symSize: 0x14 }
  - { offset: 0x95904, size: 0x8, addend: 0x0, symName: __ZNSt3__120__shared_ptr_emplaceIN8facebook5react22PullToRefreshViewPropsENS_9allocatorIS3_EEED1Ev, symObjAddr: 0x850C, symBinAddr: 0xB7B8, symSize: 0x14 }
  - { offset: 0x9593A, size: 0x8, addend: 0x0, symName: __ZNSt3__120__shared_ptr_emplaceIN8facebook5react22PullToRefreshViewPropsENS_9allocatorIS3_EEED0Ev, symObjAddr: 0x8520, symBinAddr: 0xB7CC, symSize: 0x24 }
  - { offset: 0x959D9, size: 0x8, addend: 0x0, symName: __ZNSt3__120__shared_ptr_emplaceIN8facebook5react22PullToRefreshViewPropsENS_9allocatorIS3_EEE16__on_zero_sharedEv, symObjAddr: 0x8544, symBinAddr: 0xB7F0, symSize: 0x8 }
  - { offset: 0x95A02, size: 0x8, addend: 0x0, symName: __ZNSt3__120__shared_ptr_emplaceIN8facebook5react22PullToRefreshViewPropsENS_9allocatorIS3_EEE16__on_zero_sharedEv, symObjAddr: 0x8544, symBinAddr: 0xB7F0, symSize: 0x8 }
  - { offset: 0x95A20, size: 0x8, addend: 0x0, symName: __ZNSt3__120__shared_ptr_emplaceIN8facebook5react22PullToRefreshViewPropsENS_9allocatorIS3_EEE16__on_zero_sharedEv, symObjAddr: 0x8544, symBinAddr: 0xB7F0, symSize: 0x8 }
  - { offset: 0x95A5D, size: 0x8, addend: 0x0, symName: __ZNSt3__120__shared_ptr_emplaceIN8facebook5react22PullToRefreshViewPropsENS_9allocatorIS3_EEE21__on_zero_shared_weakEv, symObjAddr: 0x854C, symBinAddr: 0xB7F8, symSize: 0x4 }
  - { offset: 0x95A8F, size: 0x8, addend: 0x0, symName: __ZNSt3__120__shared_ptr_emplaceIN8facebook5react22PullToRefreshViewPropsENS_9allocatorIS3_EEE21__on_zero_shared_weakEv, symObjAddr: 0x854C, symBinAddr: 0xB7F8, symSize: 0x4 }
  - { offset: 0x95AB0, size: 0x8, addend: 0x0, symName: __ZNSt3__120__shared_ptr_emplaceIN8facebook5react22PullToRefreshViewPropsENS_9allocatorIS3_EEE21__on_zero_shared_weakEv, symObjAddr: 0x854C, symBinAddr: 0xB7F8, symSize: 0x4 }
  - { offset: 0x95AD2, size: 0x8, addend: 0x0, symName: __ZNSt3__120__shared_ptr_emplaceIN8facebook5react22PullToRefreshViewPropsENS_9allocatorIS3_EEE21__on_zero_shared_weakEv, symObjAddr: 0x854C, symBinAddr: 0xB7F8, symSize: 0x4 }
  - { offset: 0x95B06, size: 0x8, addend: 0x0, symName: __ZNSt3__120__shared_ptr_emplaceIN8facebook5react22PullToRefreshViewPropsENS_9allocatorIS3_EEE21__on_zero_shared_weakEv, symObjAddr: 0x854C, symBinAddr: 0xB7F8, symSize: 0x4 }
  - { offset: 0x95D84, size: 0x8, addend: 0x0, symName: __ZNSt3__120__shared_ptr_emplaceIKN8facebook5react29PullToRefreshViewEventEmitterENS_9allocatorIS3_EEEC2B8ne200100IJNS_10shared_ptrINS2_11EventTargetEEERKNS_8weak_ptrIKNS2_15EventDispatcherEEEES6_Li0EEES6_DpOT_, symObjAddr: 0x8608, symBinAddr: 0xB85C, symSize: 0x4C }
  - { offset: 0x95F32, size: 0x8, addend: 0x0, symName: __ZNSt3__120__shared_ptr_emplaceIKN8facebook5react29PullToRefreshViewEventEmitterENS_9allocatorIS3_EEED1Ev, symObjAddr: 0x8654, symBinAddr: 0xB8A8, symSize: 0x14 }
  - { offset: 0x95F54, size: 0x8, addend: 0x0, symName: __ZNSt3__120__shared_ptr_emplaceIKN8facebook5react29PullToRefreshViewEventEmitterENS_9allocatorIS3_EEED1Ev, symObjAddr: 0x8654, symBinAddr: 0xB8A8, symSize: 0x14 }
  - { offset: 0x95F8A, size: 0x8, addend: 0x0, symName: __ZNSt3__120__shared_ptr_emplaceIKN8facebook5react29PullToRefreshViewEventEmitterENS_9allocatorIS3_EEED0Ev, symObjAddr: 0x8668, symBinAddr: 0xB8BC, symSize: 0x24 }
  - { offset: 0x96059, size: 0x8, addend: 0x0, symName: __ZNSt3__120__shared_ptr_emplaceIKN8facebook5react29PullToRefreshViewEventEmitterENS_9allocatorIS3_EEE16__on_zero_sharedEv, symObjAddr: 0x868C, symBinAddr: 0xB8E0, symSize: 0xC }
  - { offset: 0x96082, size: 0x8, addend: 0x0, symName: __ZNSt3__120__shared_ptr_emplaceIKN8facebook5react29PullToRefreshViewEventEmitterENS_9allocatorIS3_EEE16__on_zero_sharedEv, symObjAddr: 0x868C, symBinAddr: 0xB8E0, symSize: 0xC }
  - { offset: 0x960A0, size: 0x8, addend: 0x0, symName: __ZNSt3__120__shared_ptr_emplaceIKN8facebook5react29PullToRefreshViewEventEmitterENS_9allocatorIS3_EEE16__on_zero_sharedEv, symObjAddr: 0x868C, symBinAddr: 0xB8E0, symSize: 0xC }
  - { offset: 0x960BE, size: 0x8, addend: 0x0, symName: __ZNSt3__120__shared_ptr_emplaceIKN8facebook5react29PullToRefreshViewEventEmitterENS_9allocatorIS3_EEE16__on_zero_sharedEv, symObjAddr: 0x868C, symBinAddr: 0xB8E0, symSize: 0xC }
  - { offset: 0x960EA, size: 0x8, addend: 0x0, symName: __ZNSt3__120__shared_ptr_emplaceIKN8facebook5react29PullToRefreshViewEventEmitterENS_9allocatorIS3_EEE21__on_zero_shared_weakEv, symObjAddr: 0x8698, symBinAddr: 0xB8EC, symSize: 0x4 }
  - { offset: 0x9611C, size: 0x8, addend: 0x0, symName: __ZNSt3__120__shared_ptr_emplaceIKN8facebook5react29PullToRefreshViewEventEmitterENS_9allocatorIS3_EEE21__on_zero_shared_weakEv, symObjAddr: 0x8698, symBinAddr: 0xB8EC, symSize: 0x4 }
  - { offset: 0x9613D, size: 0x8, addend: 0x0, symName: __ZNSt3__120__shared_ptr_emplaceIKN8facebook5react29PullToRefreshViewEventEmitterENS_9allocatorIS3_EEE21__on_zero_shared_weakEv, symObjAddr: 0x8698, symBinAddr: 0xB8EC, symSize: 0x4 }
  - { offset: 0x9615F, size: 0x8, addend: 0x0, symName: __ZNSt3__120__shared_ptr_emplaceIKN8facebook5react29PullToRefreshViewEventEmitterENS_9allocatorIS3_EEE21__on_zero_shared_weakEv, symObjAddr: 0x8698, symBinAddr: 0xB8EC, symSize: 0x4 }
  - { offset: 0x96192, size: 0x8, addend: 0x0, symName: __ZNSt3__120__shared_ptr_emplaceIKN8facebook5react29PullToRefreshViewEventEmitterENS_9allocatorIS3_EEE21__on_zero_shared_weakEv, symObjAddr: 0x8698, symBinAddr: 0xB8EC, symSize: 0x4 }
  - { offset: 0x96228, size: 0x8, addend: 0x0, symName: __ZN8facebook5react29PullToRefreshViewEventEmitterD1Ev, symObjAddr: 0x87DC, symBinAddr: 0xBA30, symSize: 0x34 }
  - { offset: 0x962FC, size: 0x8, addend: 0x0, symName: __ZN8facebook5react29PullToRefreshViewEventEmitterD0Ev, symObjAddr: 0x8810, symBinAddr: 0xBA64, symSize: 0x38 }
  - { offset: 0x96457, size: 0x8, addend: 0x0, symName: __ZNSt3__120__shared_ptr_emplaceIN8facebook5react16ShadowNodeFamilyENS_9allocatorIS3_EEEC2B8ne200100IJRKNS2_24ShadowNodeFamilyFragmentERNS_10shared_ptrIKNS2_29PullToRefreshViewEventEmitterEEERKNS_8weak_ptrIKNS2_15EventDispatcherEEERKNS2_27ConcreteComponentDescriptorINS2_22ConcreteViewShadowNodeIXadL_ZNS2_30PullToRefreshViewComponentNameEEENS2_22PullToRefreshViewPropsESC_NS2_9StateDataEEEEEES5_Li0EEES5_DpOT_, symObjAddr: 0x88C0, symBinAddr: 0xBB14, symSize: 0x4C }
  - { offset: 0x96832, size: 0x8, addend: 0x0, symName: __ZN8facebook5react14RawPropsParser7prepareINS0_28UnimplementedNativeViewPropsEEEvv, symObjAddr: 0x8B48, symBinAddr: 0xBD44, symSize: 0x1D0 }
  - { offset: 0x97119, size: 0x8, addend: 0x0, symName: __ZN8facebook5react28UnimplementedNativeViewPropsC1Ev, symObjAddr: 0x9290, symBinAddr: 0xC48C, symSize: 0x6C }
  - { offset: 0x971B6, size: 0x8, addend: 0x0, symName: __ZN8facebook5react27ConcreteComponentDescriptorINS0_22ConcreteViewShadowNodeIXadL_ZNS0_36UnimplementedNativeViewComponentNameEEENS0_28UnimplementedNativeViewPropsENS0_35UnimplementedNativeViewEventEmitterENS0_9StateDataEEEED1Ev, symObjAddr: 0x8D18, symBinAddr: 0xBF14, symSize: 0x4 }
  - { offset: 0x971D8, size: 0x8, addend: 0x0, symName: __ZN8facebook5react27ConcreteComponentDescriptorINS0_22ConcreteViewShadowNodeIXadL_ZNS0_36UnimplementedNativeViewComponentNameEEENS0_28UnimplementedNativeViewPropsENS0_35UnimplementedNativeViewEventEmitterENS0_9StateDataEEEED1Ev, symObjAddr: 0x8D18, symBinAddr: 0xBF14, symSize: 0x4 }
  - { offset: 0x971F5, size: 0x8, addend: 0x0, symName: __ZN8facebook5react27ConcreteComponentDescriptorINS0_22ConcreteViewShadowNodeIXadL_ZNS0_36UnimplementedNativeViewComponentNameEEENS0_28UnimplementedNativeViewPropsENS0_35UnimplementedNativeViewEventEmitterENS0_9StateDataEEEED1Ev, symObjAddr: 0x8D18, symBinAddr: 0xBF14, symSize: 0x4 }
  - { offset: 0x97224, size: 0x8, addend: 0x0, symName: __ZN8facebook5react27ConcreteComponentDescriptorINS0_22ConcreteViewShadowNodeIXadL_ZNS0_36UnimplementedNativeViewComponentNameEEENS0_28UnimplementedNativeViewPropsENS0_35UnimplementedNativeViewEventEmitterENS0_9StateDataEEEED0Ev, symObjAddr: 0x8D1C, symBinAddr: 0xBF18, symSize: 0x14 }
  - { offset: 0x9729C, size: 0x8, addend: 0x0, symName: __ZNK8facebook5react27ConcreteComponentDescriptorINS0_22ConcreteViewShadowNodeIXadL_ZNS0_36UnimplementedNativeViewComponentNameEEENS0_28UnimplementedNativeViewPropsENS0_35UnimplementedNativeViewEventEmitterENS0_9StateDataEEEE18getComponentHandleEv, symObjAddr: 0x8D30, symBinAddr: 0xBF2C, symSize: 0xC }
  - { offset: 0x972C3, size: 0x8, addend: 0x0, symName: __ZNK8facebook5react27ConcreteComponentDescriptorINS0_22ConcreteViewShadowNodeIXadL_ZNS0_36UnimplementedNativeViewComponentNameEEENS0_28UnimplementedNativeViewPropsENS0_35UnimplementedNativeViewEventEmitterENS0_9StateDataEEEE16getComponentNameEv, symObjAddr: 0x8D3C, symBinAddr: 0xBF38, symSize: 0xC }
  - { offset: 0x972EA, size: 0x8, addend: 0x0, symName: __ZNK8facebook5react27ConcreteComponentDescriptorINS0_22ConcreteViewShadowNodeIXadL_ZNS0_36UnimplementedNativeViewComponentNameEEENS0_28UnimplementedNativeViewPropsENS0_35UnimplementedNativeViewEventEmitterENS0_9StateDataEEEE9getTraitsEv, symObjAddr: 0x8D48, symBinAddr: 0xBF44, symSize: 0x8 }
  - { offset: 0x973EA, size: 0x8, addend: 0x0, symName: __ZNK8facebook5react27ConcreteComponentDescriptorINS0_22ConcreteViewShadowNodeIXadL_ZNS0_36UnimplementedNativeViewComponentNameEEENS0_28UnimplementedNativeViewPropsENS0_35UnimplementedNativeViewEventEmitterENS0_9StateDataEEEE16createShadowNodeERKNS0_18ShadowNodeFragmentERKNSt3__110shared_ptrIKNS0_16ShadowNodeFamilyEEE, symObjAddr: 0x8D50, symBinAddr: 0xBF4C, symSize: 0x90 }
  - { offset: 0x97635, size: 0x8, addend: 0x0, symName: __ZNK8facebook5react27ConcreteComponentDescriptorINS0_22ConcreteViewShadowNodeIXadL_ZNS0_36UnimplementedNativeViewComponentNameEEENS0_28UnimplementedNativeViewPropsENS0_35UnimplementedNativeViewEventEmitterENS0_9StateDataEEEE15cloneShadowNodeERKNS0_10ShadowNodeERKNS0_18ShadowNodeFragmentE, symObjAddr: 0x8DE0, symBinAddr: 0xBFDC, symSize: 0x104 }
  - { offset: 0x9792D, size: 0x8, addend: 0x0, symName: __ZNK8facebook5react27ConcreteComponentDescriptorINS0_22ConcreteViewShadowNodeIXadL_ZNS0_36UnimplementedNativeViewComponentNameEEENS0_28UnimplementedNativeViewPropsENS0_35UnimplementedNativeViewEventEmitterENS0_9StateDataEEEE11appendChildERKNSt3__110shared_ptrIKNS0_10ShadowNodeEEESE_, symObjAddr: 0x8EE4, symBinAddr: 0xC0E0, symSize: 0x14 }
  - { offset: 0x97984, size: 0x8, addend: 0x0, symName: __ZNK8facebook5react27ConcreteComponentDescriptorINS0_22ConcreteViewShadowNodeIXadL_ZNS0_36UnimplementedNativeViewComponentNameEEENS0_28UnimplementedNativeViewPropsENS0_35UnimplementedNativeViewEventEmitterENS0_9StateDataEEEE11appendChildERKNSt3__110shared_ptrIKNS0_10ShadowNodeEEESE_, symObjAddr: 0x8EE4, symBinAddr: 0xC0E0, symSize: 0x14 }
  - { offset: 0x97AAE, size: 0x8, addend: 0x0, symName: __ZNK8facebook5react27ConcreteComponentDescriptorINS0_22ConcreteViewShadowNodeIXadL_ZNS0_36UnimplementedNativeViewComponentNameEEENS0_28UnimplementedNativeViewPropsENS0_35UnimplementedNativeViewEventEmitterENS0_9StateDataEEEE10clonePropsERKNS0_18PropsParserContextERKNSt3__110shared_ptrIKNS0_5PropsEEENS0_8RawPropsE, symObjAddr: 0x8EF8, symBinAddr: 0xC0F4, symSize: 0x21C }
  - { offset: 0x985D2, size: 0x8, addend: 0x0, symName: __ZN8facebook5react18ConcreteShadowNodeIXadL_ZNS0_36UnimplementedNativeViewComponentNameEEENS0_24YogaLayoutableShadowNodeENS0_28UnimplementedNativeViewPropsENS0_35UnimplementedNativeViewEventEmitterENS0_9StateDataEE5PropsERKNS0_18PropsParserContextERKNS0_8RawPropsERKNSt3__110shared_ptrIKNS0_5PropsEEE, symObjAddr: 0x9810, symBinAddr: 0xC948, symSize: 0x58 }
  - { offset: 0x98722, size: 0x8, addend: 0x0, symName: __ZNK8facebook5react27ConcreteComponentDescriptorINS0_22ConcreteViewShadowNodeIXadL_ZNS0_36UnimplementedNativeViewComponentNameEEENS0_28UnimplementedNativeViewPropsENS0_35UnimplementedNativeViewEventEmitterENS0_9StateDataEEEE18createInitialStateERKNSt3__110shared_ptrIKNS0_5PropsEEERKNS9_IKNS0_16ShadowNodeFamilyEEE, symObjAddr: 0x9114, symBinAddr: 0xC310, symSize: 0x8 }
  - { offset: 0x98765, size: 0x8, addend: 0x0, symName: __ZNK8facebook5react27ConcreteComponentDescriptorINS0_22ConcreteViewShadowNodeIXadL_ZNS0_36UnimplementedNativeViewComponentNameEEENS0_28UnimplementedNativeViewPropsENS0_35UnimplementedNativeViewEventEmitterENS0_9StateDataEEEE18createInitialStateERKNSt3__110shared_ptrIKNS0_5PropsEEERKNS9_IKNS0_16ShadowNodeFamilyEEE, symObjAddr: 0x9114, symBinAddr: 0xC310, symSize: 0x8 }
  - { offset: 0x98786, size: 0x8, addend: 0x0, symName: __ZNK8facebook5react27ConcreteComponentDescriptorINS0_22ConcreteViewShadowNodeIXadL_ZNS0_36UnimplementedNativeViewComponentNameEEENS0_28UnimplementedNativeViewPropsENS0_35UnimplementedNativeViewEventEmitterENS0_9StateDataEEEE18createInitialStateERKNSt3__110shared_ptrIKNS0_5PropsEEERKNS9_IKNS0_16ShadowNodeFamilyEEE, symObjAddr: 0x9114, symBinAddr: 0xC310, symSize: 0x8 }
  - { offset: 0x987A8, size: 0x8, addend: 0x0, symName: __ZNK8facebook5react27ConcreteComponentDescriptorINS0_22ConcreteViewShadowNodeIXadL_ZNS0_36UnimplementedNativeViewComponentNameEEENS0_28UnimplementedNativeViewPropsENS0_35UnimplementedNativeViewEventEmitterENS0_9StateDataEEEE11createStateERKNS0_16ShadowNodeFamilyERKNSt3__110shared_ptrIKvEE, symObjAddr: 0x911C, symBinAddr: 0xC318, symSize: 0x8 }
  - { offset: 0x987EB, size: 0x8, addend: 0x0, symName: __ZNK8facebook5react27ConcreteComponentDescriptorINS0_22ConcreteViewShadowNodeIXadL_ZNS0_36UnimplementedNativeViewComponentNameEEENS0_28UnimplementedNativeViewPropsENS0_35UnimplementedNativeViewEventEmitterENS0_9StateDataEEEE11createStateERKNS0_16ShadowNodeFamilyERKNSt3__110shared_ptrIKvEE, symObjAddr: 0x911C, symBinAddr: 0xC318, symSize: 0x8 }
  - { offset: 0x9880C, size: 0x8, addend: 0x0, symName: __ZNK8facebook5react27ConcreteComponentDescriptorINS0_22ConcreteViewShadowNodeIXadL_ZNS0_36UnimplementedNativeViewComponentNameEEENS0_28UnimplementedNativeViewPropsENS0_35UnimplementedNativeViewEventEmitterENS0_9StateDataEEEE11createStateERKNS0_16ShadowNodeFamilyERKNSt3__110shared_ptrIKvEE, symObjAddr: 0x911C, symBinAddr: 0xC318, symSize: 0x8 }
  - { offset: 0x988B3, size: 0x8, addend: 0x0, symName: __ZNK8facebook5react27ConcreteComponentDescriptorINS0_22ConcreteViewShadowNodeIXadL_ZNS0_36UnimplementedNativeViewComponentNameEEENS0_28UnimplementedNativeViewPropsENS0_35UnimplementedNativeViewEventEmitterENS0_9StateDataEEEE12createFamilyERKNS0_24ShadowNodeFamilyFragmentE, symObjAddr: 0x9124, symBinAddr: 0xC320, symSize: 0x168 }
  - { offset: 0x98D5D, size: 0x8, addend: 0x0, symName: __ZNK8facebook5react27ConcreteComponentDescriptorINS0_22ConcreteViewShadowNodeIXadL_ZNS0_36UnimplementedNativeViewComponentNameEEENS0_28UnimplementedNativeViewPropsENS0_35UnimplementedNativeViewEventEmitterENS0_9StateDataEEEE5adoptERNS0_10ShadowNodeE, symObjAddr: 0x928C, symBinAddr: 0xC488, symSize: 0x4 }
  - { offset: 0x98D90, size: 0x8, addend: 0x0, symName: __ZN8facebook5react28UnimplementedNativeViewPropsD1Ev, symObjAddr: 0x92FC, symBinAddr: 0xC4F8, symSize: 0x3C }
  - { offset: 0x98EED, size: 0x8, addend: 0x0, symName: __ZN8facebook5react28UnimplementedNativeViewPropsD0Ev, symObjAddr: 0x9338, symBinAddr: 0xC534, symSize: 0x40 }
  - { offset: 0x992DC, size: 0x8, addend: 0x0, symName: __ZNSt3__120__shared_ptr_emplaceIN8facebook5react22ConcreteViewShadowNodeIXadL_ZNS2_36UnimplementedNativeViewComponentNameEEENS2_28UnimplementedNativeViewPropsENS2_35UnimplementedNativeViewEventEmitterENS2_9StateDataEEENS_9allocatorIS7_EEEC2B8ne200100IJRKNS2_18ShadowNodeFragmentERKNS_10shared_ptrIKNS2_16ShadowNodeFamilyEEENS2_16ShadowNodeTraitsEES9_Li0EEES9_DpOT_, symObjAddr: 0x93E8, symBinAddr: 0xC5E4, symSize: 0x68 }
  - { offset: 0x996A9, size: 0x8, addend: 0x0, symName: __ZNSt3__120__shared_ptr_emplaceIN8facebook5react22ConcreteViewShadowNodeIXadL_ZNS2_36UnimplementedNativeViewComponentNameEEENS2_28UnimplementedNativeViewPropsENS2_35UnimplementedNativeViewEventEmitterENS2_9StateDataEEENS_9allocatorIS7_EEED1Ev, symObjAddr: 0x9450, symBinAddr: 0xC64C, symSize: 0x14 }
  - { offset: 0x996CB, size: 0x8, addend: 0x0, symName: __ZNSt3__120__shared_ptr_emplaceIN8facebook5react22ConcreteViewShadowNodeIXadL_ZNS2_36UnimplementedNativeViewComponentNameEEENS2_28UnimplementedNativeViewPropsENS2_35UnimplementedNativeViewEventEmitterENS2_9StateDataEEENS_9allocatorIS7_EEED1Ev, symObjAddr: 0x9450, symBinAddr: 0xC64C, symSize: 0x14 }
  - { offset: 0x99701, size: 0x8, addend: 0x0, symName: __ZNSt3__120__shared_ptr_emplaceIN8facebook5react22ConcreteViewShadowNodeIXadL_ZNS2_36UnimplementedNativeViewComponentNameEEENS2_28UnimplementedNativeViewPropsENS2_35UnimplementedNativeViewEventEmitterENS2_9StateDataEEENS_9allocatorIS7_EEED0Ev, symObjAddr: 0x9464, symBinAddr: 0xC660, symSize: 0x24 }
  - { offset: 0x997D0, size: 0x8, addend: 0x0, symName: __ZNSt3__120__shared_ptr_emplaceIN8facebook5react22ConcreteViewShadowNodeIXadL_ZNS2_36UnimplementedNativeViewComponentNameEEENS2_28UnimplementedNativeViewPropsENS2_35UnimplementedNativeViewEventEmitterENS2_9StateDataEEENS_9allocatorIS7_EEE16__on_zero_sharedEv, symObjAddr: 0x9488, symBinAddr: 0xC684, symSize: 0xC }
  - { offset: 0x997F9, size: 0x8, addend: 0x0, symName: __ZNSt3__120__shared_ptr_emplaceIN8facebook5react22ConcreteViewShadowNodeIXadL_ZNS2_36UnimplementedNativeViewComponentNameEEENS2_28UnimplementedNativeViewPropsENS2_35UnimplementedNativeViewEventEmitterENS2_9StateDataEEENS_9allocatorIS7_EEE16__on_zero_sharedEv, symObjAddr: 0x9488, symBinAddr: 0xC684, symSize: 0xC }
  - { offset: 0x99817, size: 0x8, addend: 0x0, symName: __ZNSt3__120__shared_ptr_emplaceIN8facebook5react22ConcreteViewShadowNodeIXadL_ZNS2_36UnimplementedNativeViewComponentNameEEENS2_28UnimplementedNativeViewPropsENS2_35UnimplementedNativeViewEventEmitterENS2_9StateDataEEENS_9allocatorIS7_EEE16__on_zero_sharedEv, symObjAddr: 0x9488, symBinAddr: 0xC684, symSize: 0xC }
  - { offset: 0x99835, size: 0x8, addend: 0x0, symName: __ZNSt3__120__shared_ptr_emplaceIN8facebook5react22ConcreteViewShadowNodeIXadL_ZNS2_36UnimplementedNativeViewComponentNameEEENS2_28UnimplementedNativeViewPropsENS2_35UnimplementedNativeViewEventEmitterENS2_9StateDataEEENS_9allocatorIS7_EEE16__on_zero_sharedEv, symObjAddr: 0x9488, symBinAddr: 0xC684, symSize: 0xC }
  - { offset: 0x99861, size: 0x8, addend: 0x0, symName: __ZNSt3__120__shared_ptr_emplaceIN8facebook5react22ConcreteViewShadowNodeIXadL_ZNS2_36UnimplementedNativeViewComponentNameEEENS2_28UnimplementedNativeViewPropsENS2_35UnimplementedNativeViewEventEmitterENS2_9StateDataEEENS_9allocatorIS7_EEE21__on_zero_shared_weakEv, symObjAddr: 0x9494, symBinAddr: 0xC690, symSize: 0x4 }
  - { offset: 0x99893, size: 0x8, addend: 0x0, symName: __ZNSt3__120__shared_ptr_emplaceIN8facebook5react22ConcreteViewShadowNodeIXadL_ZNS2_36UnimplementedNativeViewComponentNameEEENS2_28UnimplementedNativeViewPropsENS2_35UnimplementedNativeViewEventEmitterENS2_9StateDataEEENS_9allocatorIS7_EEE21__on_zero_shared_weakEv, symObjAddr: 0x9494, symBinAddr: 0xC690, symSize: 0x4 }
  - { offset: 0x998B4, size: 0x8, addend: 0x0, symName: __ZNSt3__120__shared_ptr_emplaceIN8facebook5react22ConcreteViewShadowNodeIXadL_ZNS2_36UnimplementedNativeViewComponentNameEEENS2_28UnimplementedNativeViewPropsENS2_35UnimplementedNativeViewEventEmitterENS2_9StateDataEEENS_9allocatorIS7_EEE21__on_zero_shared_weakEv, symObjAddr: 0x9494, symBinAddr: 0xC690, symSize: 0x4 }
  - { offset: 0x998D6, size: 0x8, addend: 0x0, symName: __ZNSt3__120__shared_ptr_emplaceIN8facebook5react22ConcreteViewShadowNodeIXadL_ZNS2_36UnimplementedNativeViewComponentNameEEENS2_28UnimplementedNativeViewPropsENS2_35UnimplementedNativeViewEventEmitterENS2_9StateDataEEENS_9allocatorIS7_EEE21__on_zero_shared_weakEv, symObjAddr: 0x9494, symBinAddr: 0xC690, symSize: 0x4 }
  - { offset: 0x9990A, size: 0x8, addend: 0x0, symName: __ZNSt3__120__shared_ptr_emplaceIN8facebook5react22ConcreteViewShadowNodeIXadL_ZNS2_36UnimplementedNativeViewComponentNameEEENS2_28UnimplementedNativeViewPropsENS2_35UnimplementedNativeViewEventEmitterENS2_9StateDataEEENS_9allocatorIS7_EEE21__on_zero_shared_weakEv, symObjAddr: 0x9494, symBinAddr: 0xC690, symSize: 0x4 }
  - { offset: 0x99986, size: 0x8, addend: 0x0, symName: __ZN8facebook5react22ConcreteViewShadowNodeIXadL_ZNS0_36UnimplementedNativeViewComponentNameEEENS0_28UnimplementedNativeViewPropsENS0_35UnimplementedNativeViewEventEmitterENS0_9StateDataEED1Ev, symObjAddr: 0x9504, symBinAddr: 0xC694, symSize: 0x70 }
  - { offset: 0x99D50, size: 0x8, addend: 0x0, symName: __ZN8facebook5react22ConcreteViewShadowNodeIXadL_ZNS0_36UnimplementedNativeViewComponentNameEEENS0_28UnimplementedNativeViewPropsENS0_35UnimplementedNativeViewEventEmitterENS0_9StateDataEED0Ev, symObjAddr: 0x9574, symBinAddr: 0xC704, symSize: 0x74 }
  - { offset: 0x9A124, size: 0x8, addend: 0x0, symName: __ZNK8facebook5react22ConcreteViewShadowNodeIXadL_ZNS0_36UnimplementedNativeViewComponentNameEEENS0_28UnimplementedNativeViewPropsENS0_35UnimplementedNativeViewEventEmitterENS0_9StateDataEE12getTransformEv, symObjAddr: 0x95E8, symBinAddr: 0xC778, symSize: 0x40 }
  - { offset: 0x9A194, size: 0x8, addend: 0x0, symName: __ZNK8facebook5react22ConcreteViewShadowNodeIXadL_ZNS0_36UnimplementedNativeViewComponentNameEEENS0_28UnimplementedNativeViewPropsENS0_35UnimplementedNativeViewEventEmitterENS0_9StateDataEE16canBeTouchTargetEv, symObjAddr: 0x9628, symBinAddr: 0xC7B8, symSize: 0x18 }
  - { offset: 0x9A1CD, size: 0x8, addend: 0x0, symName: __ZNK8facebook5react22ConcreteViewShadowNodeIXadL_ZNS0_36UnimplementedNativeViewComponentNameEEENS0_28UnimplementedNativeViewPropsENS0_35UnimplementedNativeViewEventEmitterENS0_9StateDataEE16canBeTouchTargetEv, symObjAddr: 0x9628, symBinAddr: 0xC7B8, symSize: 0x18 }
  - { offset: 0x9A1E8, size: 0x8, addend: 0x0, symName: __ZNK8facebook5react22ConcreteViewShadowNodeIXadL_ZNS0_36UnimplementedNativeViewComponentNameEEENS0_28UnimplementedNativeViewPropsENS0_35UnimplementedNativeViewEventEmitterENS0_9StateDataEE16canBeTouchTargetEv, symObjAddr: 0x9628, symBinAddr: 0xC7B8, symSize: 0x18 }
  - { offset: 0x9A205, size: 0x8, addend: 0x0, symName: __ZNK8facebook5react22ConcreteViewShadowNodeIXadL_ZNS0_36UnimplementedNativeViewComponentNameEEENS0_28UnimplementedNativeViewPropsENS0_35UnimplementedNativeViewEventEmitterENS0_9StateDataEE24canChildrenBeTouchTargetEv, symObjAddr: 0x9640, symBinAddr: 0xC7D0, symSize: 0x18 }
  - { offset: 0x9A239, size: 0x8, addend: 0x0, symName: __ZNK8facebook5react22ConcreteViewShadowNodeIXadL_ZNS0_36UnimplementedNativeViewComponentNameEEENS0_28UnimplementedNativeViewPropsENS0_35UnimplementedNativeViewEventEmitterENS0_9StateDataEE24canChildrenBeTouchTargetEv, symObjAddr: 0x9640, symBinAddr: 0xC7D0, symSize: 0x18 }
  - { offset: 0x9A254, size: 0x8, addend: 0x0, symName: __ZNK8facebook5react22ConcreteViewShadowNodeIXadL_ZNS0_36UnimplementedNativeViewComponentNameEEENS0_28UnimplementedNativeViewPropsENS0_35UnimplementedNativeViewEventEmitterENS0_9StateDataEE24canChildrenBeTouchTargetEv, symObjAddr: 0x9640, symBinAddr: 0xC7D0, symSize: 0x18 }
  - { offset: 0x9A2CF, size: 0x8, addend: 0x0, symName: __ZNSt3__120__shared_ptr_emplaceIN8facebook5react22ConcreteViewShadowNodeIXadL_ZNS2_36UnimplementedNativeViewComponentNameEEENS2_28UnimplementedNativeViewPropsENS2_35UnimplementedNativeViewEventEmitterENS2_9StateDataEEENS_9allocatorIS7_EEEC2B8ne200100IJRKNS2_10ShadowNodeERKNS2_18ShadowNodeFragmentEES9_Li0EEES9_DpOT_, symObjAddr: 0x9710, symBinAddr: 0xC848, symSize: 0x64 }
  - { offset: 0x9A598, size: 0x8, addend: 0x0, symName: __ZNSt3__110shared_ptrIKN8facebook5react28UnimplementedNativeViewPropsEED1B8ne200100Ev, symObjAddr: 0x9868, symBinAddr: 0xC9A0, symSize: 0x4 }
  - { offset: 0x9A5C4, size: 0x8, addend: 0x0, symName: __ZNSt3__110shared_ptrIKN8facebook5react28UnimplementedNativeViewPropsEED1B8ne200100Ev, symObjAddr: 0x9868, symBinAddr: 0xC9A0, symSize: 0x4 }
  - { offset: 0x9A865, size: 0x8, addend: 0x0, symName: __ZNSt3__120__shared_ptr_emplaceIKN8facebook5react28UnimplementedNativeViewPropsENS_9allocatorIS3_EEEC2B8ne200100IJES6_Li0EEES6_DpOT_, symObjAddr: 0x98B4, symBinAddr: 0xC9EC, symSize: 0x58 }
  - { offset: 0x9A9B8, size: 0x8, addend: 0x0, symName: __ZNSt3__120__shared_ptr_emplaceIKN8facebook5react28UnimplementedNativeViewPropsENS_9allocatorIS3_EEED1Ev, symObjAddr: 0x990C, symBinAddr: 0xCA44, symSize: 0x14 }
  - { offset: 0x9A9DA, size: 0x8, addend: 0x0, symName: __ZNSt3__120__shared_ptr_emplaceIKN8facebook5react28UnimplementedNativeViewPropsENS_9allocatorIS3_EEED1Ev, symObjAddr: 0x990C, symBinAddr: 0xCA44, symSize: 0x14 }
  - { offset: 0x9AA10, size: 0x8, addend: 0x0, symName: __ZNSt3__120__shared_ptr_emplaceIKN8facebook5react28UnimplementedNativeViewPropsENS_9allocatorIS3_EEED0Ev, symObjAddr: 0x9920, symBinAddr: 0xCA58, symSize: 0x24 }
  - { offset: 0x9AADF, size: 0x8, addend: 0x0, symName: __ZNSt3__120__shared_ptr_emplaceIKN8facebook5react28UnimplementedNativeViewPropsENS_9allocatorIS3_EEE16__on_zero_sharedEv, symObjAddr: 0x9944, symBinAddr: 0xCA7C, symSize: 0x8 }
  - { offset: 0x9AB08, size: 0x8, addend: 0x0, symName: __ZNSt3__120__shared_ptr_emplaceIKN8facebook5react28UnimplementedNativeViewPropsENS_9allocatorIS3_EEE16__on_zero_sharedEv, symObjAddr: 0x9944, symBinAddr: 0xCA7C, symSize: 0x8 }
  - { offset: 0x9AB26, size: 0x8, addend: 0x0, symName: __ZNSt3__120__shared_ptr_emplaceIKN8facebook5react28UnimplementedNativeViewPropsENS_9allocatorIS3_EEE16__on_zero_sharedEv, symObjAddr: 0x9944, symBinAddr: 0xCA7C, symSize: 0x8 }
  - { offset: 0x9AB63, size: 0x8, addend: 0x0, symName: __ZNSt3__120__shared_ptr_emplaceIKN8facebook5react28UnimplementedNativeViewPropsENS_9allocatorIS3_EEE21__on_zero_shared_weakEv, symObjAddr: 0x994C, symBinAddr: 0xCA84, symSize: 0x4 }
  - { offset: 0x9AB95, size: 0x8, addend: 0x0, symName: __ZNSt3__120__shared_ptr_emplaceIKN8facebook5react28UnimplementedNativeViewPropsENS_9allocatorIS3_EEE21__on_zero_shared_weakEv, symObjAddr: 0x994C, symBinAddr: 0xCA84, symSize: 0x4 }
  - { offset: 0x9ABB6, size: 0x8, addend: 0x0, symName: __ZNSt3__120__shared_ptr_emplaceIKN8facebook5react28UnimplementedNativeViewPropsENS_9allocatorIS3_EEE21__on_zero_shared_weakEv, symObjAddr: 0x994C, symBinAddr: 0xCA84, symSize: 0x4 }
  - { offset: 0x9ABD8, size: 0x8, addend: 0x0, symName: __ZNSt3__120__shared_ptr_emplaceIKN8facebook5react28UnimplementedNativeViewPropsENS_9allocatorIS3_EEE21__on_zero_shared_weakEv, symObjAddr: 0x994C, symBinAddr: 0xCA84, symSize: 0x4 }
  - { offset: 0x9AC0C, size: 0x8, addend: 0x0, symName: __ZNSt3__120__shared_ptr_emplaceIKN8facebook5react28UnimplementedNativeViewPropsENS_9allocatorIS3_EEE21__on_zero_shared_weakEv, symObjAddr: 0x994C, symBinAddr: 0xCA84, symSize: 0x4 }
  - { offset: 0x9AE9B, size: 0x8, addend: 0x0, symName: __ZNSt3__120__shared_ptr_emplaceIN8facebook5react28UnimplementedNativeViewPropsENS_9allocatorIS3_EEEC2B8ne200100IJRKNS2_18PropsParserContextERKS3_RKNS2_8RawPropsEES5_Li0EEES5_DpOT_, symObjAddr: 0x9A54, symBinAddr: 0xCB34, symSize: 0x4C }
  - { offset: 0x9B087, size: 0x8, addend: 0x0, symName: __ZNSt3__120__shared_ptr_emplaceIN8facebook5react28UnimplementedNativeViewPropsENS_9allocatorIS3_EEED1Ev, symObjAddr: 0x9AA0, symBinAddr: 0xCB80, symSize: 0x14 }
  - { offset: 0x9B0A9, size: 0x8, addend: 0x0, symName: __ZNSt3__120__shared_ptr_emplaceIN8facebook5react28UnimplementedNativeViewPropsENS_9allocatorIS3_EEED1Ev, symObjAddr: 0x9AA0, symBinAddr: 0xCB80, symSize: 0x14 }
  - { offset: 0x9B0DF, size: 0x8, addend: 0x0, symName: __ZNSt3__120__shared_ptr_emplaceIN8facebook5react28UnimplementedNativeViewPropsENS_9allocatorIS3_EEED0Ev, symObjAddr: 0x9AB4, symBinAddr: 0xCB94, symSize: 0x24 }
  - { offset: 0x9B17E, size: 0x8, addend: 0x0, symName: __ZNSt3__120__shared_ptr_emplaceIN8facebook5react28UnimplementedNativeViewPropsENS_9allocatorIS3_EEE16__on_zero_sharedEv, symObjAddr: 0x9AD8, symBinAddr: 0xCBB8, symSize: 0x8 }
  - { offset: 0x9B1A7, size: 0x8, addend: 0x0, symName: __ZNSt3__120__shared_ptr_emplaceIN8facebook5react28UnimplementedNativeViewPropsENS_9allocatorIS3_EEE16__on_zero_sharedEv, symObjAddr: 0x9AD8, symBinAddr: 0xCBB8, symSize: 0x8 }
  - { offset: 0x9B1C5, size: 0x8, addend: 0x0, symName: __ZNSt3__120__shared_ptr_emplaceIN8facebook5react28UnimplementedNativeViewPropsENS_9allocatorIS3_EEE16__on_zero_sharedEv, symObjAddr: 0x9AD8, symBinAddr: 0xCBB8, symSize: 0x8 }
  - { offset: 0x9B202, size: 0x8, addend: 0x0, symName: __ZNSt3__120__shared_ptr_emplaceIN8facebook5react28UnimplementedNativeViewPropsENS_9allocatorIS3_EEE21__on_zero_shared_weakEv, symObjAddr: 0x9AE0, symBinAddr: 0xCBC0, symSize: 0x4 }
  - { offset: 0x9B234, size: 0x8, addend: 0x0, symName: __ZNSt3__120__shared_ptr_emplaceIN8facebook5react28UnimplementedNativeViewPropsENS_9allocatorIS3_EEE21__on_zero_shared_weakEv, symObjAddr: 0x9AE0, symBinAddr: 0xCBC0, symSize: 0x4 }
  - { offset: 0x9B255, size: 0x8, addend: 0x0, symName: __ZNSt3__120__shared_ptr_emplaceIN8facebook5react28UnimplementedNativeViewPropsENS_9allocatorIS3_EEE21__on_zero_shared_weakEv, symObjAddr: 0x9AE0, symBinAddr: 0xCBC0, symSize: 0x4 }
  - { offset: 0x9B277, size: 0x8, addend: 0x0, symName: __ZNSt3__120__shared_ptr_emplaceIN8facebook5react28UnimplementedNativeViewPropsENS_9allocatorIS3_EEE21__on_zero_shared_weakEv, symObjAddr: 0x9AE0, symBinAddr: 0xCBC0, symSize: 0x4 }
  - { offset: 0x9B2AB, size: 0x8, addend: 0x0, symName: __ZNSt3__120__shared_ptr_emplaceIN8facebook5react28UnimplementedNativeViewPropsENS_9allocatorIS3_EEE21__on_zero_shared_weakEv, symObjAddr: 0x9AE0, symBinAddr: 0xCBC0, symSize: 0x4 }
  - { offset: 0x9B529, size: 0x8, addend: 0x0, symName: __ZNSt3__120__shared_ptr_emplaceIKN8facebook5react35UnimplementedNativeViewEventEmitterENS_9allocatorIS3_EEEC2B8ne200100IJNS_10shared_ptrINS2_11EventTargetEEERKNS_8weak_ptrIKNS2_15EventDispatcherEEEES6_Li0EEES6_DpOT_, symObjAddr: 0x9B9C, symBinAddr: 0xCC24, symSize: 0x4C }
  - { offset: 0x9B6D7, size: 0x8, addend: 0x0, symName: __ZNSt3__120__shared_ptr_emplaceIKN8facebook5react35UnimplementedNativeViewEventEmitterENS_9allocatorIS3_EEED1Ev, symObjAddr: 0x9BE8, symBinAddr: 0xCC70, symSize: 0x14 }
  - { offset: 0x9B6F9, size: 0x8, addend: 0x0, symName: __ZNSt3__120__shared_ptr_emplaceIKN8facebook5react35UnimplementedNativeViewEventEmitterENS_9allocatorIS3_EEED1Ev, symObjAddr: 0x9BE8, symBinAddr: 0xCC70, symSize: 0x14 }
  - { offset: 0x9B72F, size: 0x8, addend: 0x0, symName: __ZNSt3__120__shared_ptr_emplaceIKN8facebook5react35UnimplementedNativeViewEventEmitterENS_9allocatorIS3_EEED0Ev, symObjAddr: 0x9BFC, symBinAddr: 0xCC84, symSize: 0x24 }
  - { offset: 0x9B7FE, size: 0x8, addend: 0x0, symName: __ZNSt3__120__shared_ptr_emplaceIKN8facebook5react35UnimplementedNativeViewEventEmitterENS_9allocatorIS3_EEE16__on_zero_sharedEv, symObjAddr: 0x9C20, symBinAddr: 0xCCA8, symSize: 0xC }
  - { offset: 0x9B827, size: 0x8, addend: 0x0, symName: __ZNSt3__120__shared_ptr_emplaceIKN8facebook5react35UnimplementedNativeViewEventEmitterENS_9allocatorIS3_EEE16__on_zero_sharedEv, symObjAddr: 0x9C20, symBinAddr: 0xCCA8, symSize: 0xC }
  - { offset: 0x9B845, size: 0x8, addend: 0x0, symName: __ZNSt3__120__shared_ptr_emplaceIKN8facebook5react35UnimplementedNativeViewEventEmitterENS_9allocatorIS3_EEE16__on_zero_sharedEv, symObjAddr: 0x9C20, symBinAddr: 0xCCA8, symSize: 0xC }
  - { offset: 0x9B863, size: 0x8, addend: 0x0, symName: __ZNSt3__120__shared_ptr_emplaceIKN8facebook5react35UnimplementedNativeViewEventEmitterENS_9allocatorIS3_EEE16__on_zero_sharedEv, symObjAddr: 0x9C20, symBinAddr: 0xCCA8, symSize: 0xC }
  - { offset: 0x9B88F, size: 0x8, addend: 0x0, symName: __ZNSt3__120__shared_ptr_emplaceIKN8facebook5react35UnimplementedNativeViewEventEmitterENS_9allocatorIS3_EEE21__on_zero_shared_weakEv, symObjAddr: 0x9C2C, symBinAddr: 0xCCB4, symSize: 0x4 }
  - { offset: 0x9B8C1, size: 0x8, addend: 0x0, symName: __ZNSt3__120__shared_ptr_emplaceIKN8facebook5react35UnimplementedNativeViewEventEmitterENS_9allocatorIS3_EEE21__on_zero_shared_weakEv, symObjAddr: 0x9C2C, symBinAddr: 0xCCB4, symSize: 0x4 }
  - { offset: 0x9B8E2, size: 0x8, addend: 0x0, symName: __ZNSt3__120__shared_ptr_emplaceIKN8facebook5react35UnimplementedNativeViewEventEmitterENS_9allocatorIS3_EEE21__on_zero_shared_weakEv, symObjAddr: 0x9C2C, symBinAddr: 0xCCB4, symSize: 0x4 }
  - { offset: 0x9B904, size: 0x8, addend: 0x0, symName: __ZNSt3__120__shared_ptr_emplaceIKN8facebook5react35UnimplementedNativeViewEventEmitterENS_9allocatorIS3_EEE21__on_zero_shared_weakEv, symObjAddr: 0x9C2C, symBinAddr: 0xCCB4, symSize: 0x4 }
  - { offset: 0x9B937, size: 0x8, addend: 0x0, symName: __ZNSt3__120__shared_ptr_emplaceIKN8facebook5react35UnimplementedNativeViewEventEmitterENS_9allocatorIS3_EEE21__on_zero_shared_weakEv, symObjAddr: 0x9C2C, symBinAddr: 0xCCB4, symSize: 0x4 }
  - { offset: 0x9B9CD, size: 0x8, addend: 0x0, symName: __ZN8facebook5react35UnimplementedNativeViewEventEmitterD1Ev, symObjAddr: 0x9D70, symBinAddr: 0xCDF8, symSize: 0x34 }
  - { offset: 0x9BAA1, size: 0x8, addend: 0x0, symName: __ZN8facebook5react35UnimplementedNativeViewEventEmitterD0Ev, symObjAddr: 0x9DA4, symBinAddr: 0xCE2C, symSize: 0x38 }
  - { offset: 0x9BBFC, size: 0x8, addend: 0x0, symName: __ZNSt3__120__shared_ptr_emplaceIN8facebook5react16ShadowNodeFamilyENS_9allocatorIS3_EEEC2B8ne200100IJRKNS2_24ShadowNodeFamilyFragmentERNS_10shared_ptrIKNS2_35UnimplementedNativeViewEventEmitterEEERKNS_8weak_ptrIKNS2_15EventDispatcherEEERKNS2_27ConcreteComponentDescriptorINS2_22ConcreteViewShadowNodeIXadL_ZNS2_36UnimplementedNativeViewComponentNameEEENS2_28UnimplementedNativeViewPropsESC_NS2_9StateDataEEEEEES5_Li0EEES5_DpOT_, symObjAddr: 0x9E54, symBinAddr: 0xCEDC, symSize: 0x4C }
  - { offset: 0x9E5FE, size: 0x8, addend: 0x0, symName: __ZNK8facebook5react23VirtualViewEventEmitter12onModeChangeENS1_12OnModeChangeE, symObjAddr: 0x0, symBinAddr: 0xD004, symSize: 0x140 }
  - { offset: 0xAD837, size: 0x8, addend: 0x0, symName: __ZNK8facebook5react23VirtualViewEventEmitter12onModeChangeENS1_12OnModeChangeE, symObjAddr: 0x0, symBinAddr: 0xD004, symSize: 0x140 }
  - { offset: 0xADDD0, size: 0x8, addend: 0x0, symName: __ZNK8facebook5react31AndroidDrawerLayoutEventEmitter13onDrawerSlideENS1_13OnDrawerSlideE, symObjAddr: 0x140, symBinAddr: 0xD144, symSize: 0x11C }
  - { offset: 0xAE2E1, size: 0x8, addend: 0x0, symName: __ZNK8facebook5react31AndroidDrawerLayoutEventEmitter20onDrawerStateChangedENS1_20OnDrawerStateChangedE, symObjAddr: 0x25C, symBinAddr: 0xD260, symSize: 0x114 }
  - { offset: 0xAE7F8, size: 0x8, addend: 0x0, symName: __ZNK8facebook5react31AndroidDrawerLayoutEventEmitter12onDrawerOpenENS1_12OnDrawerOpenE, symObjAddr: 0x370, symBinAddr: 0xD374, symSize: 0x10C }
  - { offset: 0xAECCB, size: 0x8, addend: 0x0, symName: __ZNK8facebook5react31AndroidDrawerLayoutEventEmitter13onDrawerCloseENS1_13OnDrawerCloseE, symObjAddr: 0x47C, symBinAddr: 0xD480, symSize: 0x10C }
  - { offset: 0xAF1A3, size: 0x8, addend: 0x0, symName: __ZNK8facebook5react37AndroidSwipeRefreshLayoutEventEmitter9onRefreshENS1_9OnRefreshE, symObjAddr: 0x588, symBinAddr: 0xD58C, symSize: 0x10C }
  - { offset: 0xAF681, size: 0x8, addend: 0x0, symName: __ZNK8facebook5react25AndroidSwitchEventEmitter8onChangeENS1_8OnChangeE, symObjAddr: 0x694, symBinAddr: 0xD698, symSize: 0x110 }
  - { offset: 0xAFB7D, size: 0x8, addend: 0x0, symName: __ZNK8facebook5react29PullToRefreshViewEventEmitter9onRefreshENS1_9OnRefreshE, symObjAddr: 0x7A4, symBinAddr: 0xD7A8, symSize: 0x10C }
  - { offset: 0xB0050, size: 0x8, addend: 0x0, symName: __ZNK8facebook5react25ModalHostViewEventEmitter14onRequestCloseENS1_14OnRequestCloseE, symObjAddr: 0x8B0, symBinAddr: 0xD8B4, symSize: 0x10C }
  - { offset: 0xB0523, size: 0x8, addend: 0x0, symName: __ZNK8facebook5react25ModalHostViewEventEmitter6onShowENS1_6OnShowE, symObjAddr: 0x9BC, symBinAddr: 0xD9C0, symSize: 0x10C }
  - { offset: 0xB09F6, size: 0x8, addend: 0x0, symName: __ZNK8facebook5react25ModalHostViewEventEmitter9onDismissENS1_9OnDismissE, symObjAddr: 0xAC8, symBinAddr: 0xDACC, symSize: 0x10C }
  - { offset: 0xB0EC9, size: 0x8, addend: 0x0, symName: __ZNK8facebook5react25ModalHostViewEventEmitter19onOrientationChangeENS1_19OnOrientationChangeE, symObjAddr: 0xBD4, symBinAddr: 0xDBD8, symSize: 0x114 }
  - { offset: 0xB13EB, size: 0x8, addend: 0x0, symName: __ZNK8facebook5react18SwitchEventEmitter8onChangeENS1_8OnChangeE, symObjAddr: 0xCE8, symBinAddr: 0xDCEC, symSize: 0x110 }
  - { offset: 0xB3660, size: 0x8, addend: 0x0, symName: '__ZNSt3__110__function6__funcIZNK8facebook5react23VirtualViewEventEmitter12onModeChangeENS4_12OnModeChangeEE3$_0NS_9allocatorIS6_EEFNS2_3jsi5ValueERNS9_7RuntimeEEED1Ev', symObjAddr: 0xF24, symBinAddr: 0xDDFC, symSize: 0x4 }
  - { offset: 0xB368C, size: 0x8, addend: 0x0, symName: '__ZNSt3__110__function6__funcIZNK8facebook5react23VirtualViewEventEmitter12onModeChangeENS4_12OnModeChangeEE3$_0NS_9allocatorIS6_EEFNS2_3jsi5ValueERNS9_7RuntimeEEED0Ev', symObjAddr: 0xF28, symBinAddr: 0xDE00, symSize: 0x4 }
  - { offset: 0xB3780, size: 0x8, addend: 0x0, symName: '__ZNKSt3__110__function6__funcIZNK8facebook5react23VirtualViewEventEmitter12onModeChangeENS4_12OnModeChangeEE3$_0NS_9allocatorIS6_EEFNS2_3jsi5ValueERNS9_7RuntimeEEE7__cloneEv', symObjAddr: 0xF2C, symBinAddr: 0xDE04, symSize: 0x58 }
  - { offset: 0xB3993, size: 0x8, addend: 0x0, symName: '__ZNKSt3__110__function6__funcIZNK8facebook5react23VirtualViewEventEmitter12onModeChangeENS4_12OnModeChangeEE3$_0NS_9allocatorIS6_EEFNS2_3jsi5ValueERNS9_7RuntimeEEE7__cloneEPNS0_6__baseISD_EE', symObjAddr: 0xF84, symBinAddr: 0xDE5C, symSize: 0x38 }
  - { offset: 0xB39C9, size: 0x8, addend: 0x0, symName: '__ZNKSt3__110__function6__funcIZNK8facebook5react23VirtualViewEventEmitter12onModeChangeENS4_12OnModeChangeEE3$_0NS_9allocatorIS6_EEFNS2_3jsi5ValueERNS9_7RuntimeEEE7__cloneEPNS0_6__baseISD_EE', symObjAddr: 0xF84, symBinAddr: 0xDE5C, symSize: 0x38 }
  - { offset: 0xB39F7, size: 0x8, addend: 0x0, symName: '__ZNKSt3__110__function6__funcIZNK8facebook5react23VirtualViewEventEmitter12onModeChangeENS4_12OnModeChangeEE3$_0NS_9allocatorIS6_EEFNS2_3jsi5ValueERNS9_7RuntimeEEE7__cloneEPNS0_6__baseISD_EE', symObjAddr: 0xF84, symBinAddr: 0xDE5C, symSize: 0x38 }
  - { offset: 0xB3A86, size: 0x8, addend: 0x0, symName: '__ZNSt3__110__function6__funcIZNK8facebook5react23VirtualViewEventEmitter12onModeChangeENS4_12OnModeChangeEE3$_0NS_9allocatorIS6_EEFNS2_3jsi5ValueERNS9_7RuntimeEEE7destroyEv', symObjAddr: 0xFBC, symBinAddr: 0xDE94, symSize: 0x4 }
  - { offset: 0xB3ADB, size: 0x8, addend: 0x0, symName: '__ZNSt3__110__function6__funcIZNK8facebook5react23VirtualViewEventEmitter12onModeChangeENS4_12OnModeChangeEE3$_0NS_9allocatorIS6_EEFNS2_3jsi5ValueERNS9_7RuntimeEEE18destroy_deallocateEv', symObjAddr: 0xFC0, symBinAddr: 0xDE98, symSize: 0x4 }
  - { offset: 0xB3B0F, size: 0x8, addend: 0x0, symName: '__ZNSt3__110__function6__funcIZNK8facebook5react23VirtualViewEventEmitter12onModeChangeENS4_12OnModeChangeEE3$_0NS_9allocatorIS6_EEFNS2_3jsi5ValueERNS9_7RuntimeEEE18destroy_deallocateEv', symObjAddr: 0xFC0, symBinAddr: 0xDE98, symSize: 0x4 }
  - { offset: 0xB3B31, size: 0x8, addend: 0x0, symName: '__ZNSt3__110__function6__funcIZNK8facebook5react23VirtualViewEventEmitter12onModeChangeENS4_12OnModeChangeEE3$_0NS_9allocatorIS6_EEFNS2_3jsi5ValueERNS9_7RuntimeEEE18destroy_deallocateEv', symObjAddr: 0xFC0, symBinAddr: 0xDE98, symSize: 0x4 }
  - { offset: 0xB3B64, size: 0x8, addend: 0x0, symName: '__ZNSt3__110__function6__funcIZNK8facebook5react23VirtualViewEventEmitter12onModeChangeENS4_12OnModeChangeEE3$_0NS_9allocatorIS6_EEFNS2_3jsi5ValueERNS9_7RuntimeEEE18destroy_deallocateEv', symObjAddr: 0xFC0, symBinAddr: 0xDE98, symSize: 0x4 }
  - { offset: 0xB3DBC, size: 0x8, addend: 0x0, symName: '__ZNSt3__110__function6__funcIZNK8facebook5react23VirtualViewEventEmitter12onModeChangeENS4_12OnModeChangeEE3$_0NS_9allocatorIS6_EEFNS2_3jsi5ValueERNS9_7RuntimeEEEclESC_', symObjAddr: 0xFC4, symBinAddr: 0xDE9C, symSize: 0x208 }
  - { offset: 0xB4417, size: 0x8, addend: 0x0, symName: __ZNK8facebook3jsi6Object11setPropertyIRKiEEvRNS0_7RuntimeEPKcOT_, symObjAddr: 0x1214, symBinAddr: 0xE0EC, symSize: 0xA4 }
  - { offset: 0xB45F1, size: 0x8, addend: 0x0, symName: __ZNK8facebook3jsi6Object11setPropertyIRKdEEvRNS0_7RuntimeEPKcOT_, symObjAddr: 0x12B8, symBinAddr: 0xE190, symSize: 0xA4 }
  - { offset: 0xB47C5, size: 0x8, addend: 0x0, symName: __ZNK8facebook3jsi6Object11setPropertyIRS1_EEvRNS0_7RuntimeEPKcOT_, symObjAddr: 0x135C, symBinAddr: 0xE234, symSize: 0xA4 }
  - { offset: 0xB4999, size: 0x8, addend: 0x0, symName: '__ZNKSt3__110__function6__funcIZNK8facebook5react23VirtualViewEventEmitter12onModeChangeENS4_12OnModeChangeEE3$_0NS_9allocatorIS6_EEFNS2_3jsi5ValueERNS9_7RuntimeEEE6targetERKSt9type_info', symObjAddr: 0x11CC, symBinAddr: 0xE0A4, symSize: 0x3C }
  - { offset: 0xB49E6, size: 0x8, addend: 0x0, symName: __ZNKSt9type_infoeqB8ne200100ERKS_, symObjAddr: 0x1564, symBinAddr: 0xE43C, symSize: 0x4C }
  - { offset: 0xB4A87, size: 0x8, addend: 0x0, symName: '__ZNKSt3__110__function6__funcIZNK8facebook5react23VirtualViewEventEmitter12onModeChangeENS4_12OnModeChangeEE3$_0NS_9allocatorIS6_EEFNS2_3jsi5ValueERNS9_7RuntimeEEE11target_typeEv', symObjAddr: 0x1208, symBinAddr: 0xE0E0, symSize: 0xC }
  - { offset: 0xB4B3B, size: 0x8, addend: 0x0, symName: __ZNK8facebook3jsi6Object11setPropertyIRKiEEvRNS0_7RuntimeERKNS0_6StringEOT_, symObjAddr: 0x1400, symBinAddr: 0xE2D8, symSize: 0x6C }
  - { offset: 0xB4C85, size: 0x8, addend: 0x0, symName: __ZNK8facebook3jsi6Object11setPropertyIRKdEEvRNS0_7RuntimeERKNS0_6StringEOT_, symObjAddr: 0x146C, symBinAddr: 0xE344, symSize: 0x68 }
  - { offset: 0xB4DD1, size: 0x8, addend: 0x0, symName: __ZNK8facebook3jsi6Object11setPropertyIRS1_EEvRNS0_7RuntimeERKNS0_6StringEOT_, symObjAddr: 0x14D4, symBinAddr: 0xE3AC, symSize: 0x90 }
  - { offset: 0xB5103, size: 0x8, addend: 0x0, symName: '__ZNSt3__110__function6__funcIZNK8facebook5react31AndroidDrawerLayoutEventEmitter13onDrawerSlideENS4_13OnDrawerSlideEE3$_0NS_9allocatorIS6_EEFNS2_3jsi5ValueERNS9_7RuntimeEEED1Ev', symObjAddr: 0x15B0, symBinAddr: 0xE488, symSize: 0x4 }
  - { offset: 0xB512F, size: 0x8, addend: 0x0, symName: '__ZNSt3__110__function6__funcIZNK8facebook5react31AndroidDrawerLayoutEventEmitter13onDrawerSlideENS4_13OnDrawerSlideEE3$_0NS_9allocatorIS6_EEFNS2_3jsi5ValueERNS9_7RuntimeEEED0Ev', symObjAddr: 0x15B4, symBinAddr: 0xE48C, symSize: 0x4 }
  - { offset: 0xB524A, size: 0x8, addend: 0x0, symName: '__ZNKSt3__110__function6__funcIZNK8facebook5react31AndroidDrawerLayoutEventEmitter13onDrawerSlideENS4_13OnDrawerSlideEE3$_0NS_9allocatorIS6_EEFNS2_3jsi5ValueERNS9_7RuntimeEEE7__cloneEv', symObjAddr: 0x15B8, symBinAddr: 0xE490, symSize: 0x34 }
  - { offset: 0xB544B, size: 0x8, addend: 0x0, symName: '__ZNKSt3__110__function6__funcIZNK8facebook5react31AndroidDrawerLayoutEventEmitter13onDrawerSlideENS4_13OnDrawerSlideEE3$_0NS_9allocatorIS6_EEFNS2_3jsi5ValueERNS9_7RuntimeEEE7__cloneEPNS0_6__baseISD_EE', symObjAddr: 0x15EC, symBinAddr: 0xE4C4, symSize: 0x14 }
  - { offset: 0xB5481, size: 0x8, addend: 0x0, symName: '__ZNKSt3__110__function6__funcIZNK8facebook5react31AndroidDrawerLayoutEventEmitter13onDrawerSlideENS4_13OnDrawerSlideEE3$_0NS_9allocatorIS6_EEFNS2_3jsi5ValueERNS9_7RuntimeEEE7__cloneEPNS0_6__baseISD_EE', symObjAddr: 0x15EC, symBinAddr: 0xE4C4, symSize: 0x14 }
  - { offset: 0xB54AF, size: 0x8, addend: 0x0, symName: '__ZNKSt3__110__function6__funcIZNK8facebook5react31AndroidDrawerLayoutEventEmitter13onDrawerSlideENS4_13OnDrawerSlideEE3$_0NS_9allocatorIS6_EEFNS2_3jsi5ValueERNS9_7RuntimeEEE7__cloneEPNS0_6__baseISD_EE', symObjAddr: 0x15EC, symBinAddr: 0xE4C4, symSize: 0x14 }
  - { offset: 0xB54DD, size: 0x8, addend: 0x0, symName: '__ZNKSt3__110__function6__funcIZNK8facebook5react31AndroidDrawerLayoutEventEmitter13onDrawerSlideENS4_13OnDrawerSlideEE3$_0NS_9allocatorIS6_EEFNS2_3jsi5ValueERNS9_7RuntimeEEE7__cloneEPNS0_6__baseISD_EE', symObjAddr: 0x15EC, symBinAddr: 0xE4C4, symSize: 0x14 }
  - { offset: 0xB54F2, size: 0x8, addend: 0x0, symName: '__ZNKSt3__110__function6__funcIZNK8facebook5react31AndroidDrawerLayoutEventEmitter13onDrawerSlideENS4_13OnDrawerSlideEE3$_0NS_9allocatorIS6_EEFNS2_3jsi5ValueERNS9_7RuntimeEEE7__cloneEPNS0_6__baseISD_EE', symObjAddr: 0x15EC, symBinAddr: 0xE4C4, symSize: 0x14 }
  - { offset: 0xB5507, size: 0x8, addend: 0x0, symName: '__ZNSt3__110__function6__funcIZNK8facebook5react31AndroidDrawerLayoutEventEmitter13onDrawerSlideENS4_13OnDrawerSlideEE3$_0NS_9allocatorIS6_EEFNS2_3jsi5ValueERNS9_7RuntimeEEE7destroyEv', symObjAddr: 0x1600, symBinAddr: 0xE4D8, symSize: 0x4 }
  - { offset: 0xB555C, size: 0x8, addend: 0x0, symName: '__ZNSt3__110__function6__funcIZNK8facebook5react31AndroidDrawerLayoutEventEmitter13onDrawerSlideENS4_13OnDrawerSlideEE3$_0NS_9allocatorIS6_EEFNS2_3jsi5ValueERNS9_7RuntimeEEE18destroy_deallocateEv', symObjAddr: 0x1604, symBinAddr: 0xE4DC, symSize: 0x4 }
  - { offset: 0xB5590, size: 0x8, addend: 0x0, symName: '__ZNSt3__110__function6__funcIZNK8facebook5react31AndroidDrawerLayoutEventEmitter13onDrawerSlideENS4_13OnDrawerSlideEE3$_0NS_9allocatorIS6_EEFNS2_3jsi5ValueERNS9_7RuntimeEEE18destroy_deallocateEv', symObjAddr: 0x1604, symBinAddr: 0xE4DC, symSize: 0x4 }
  - { offset: 0xB55B2, size: 0x8, addend: 0x0, symName: '__ZNSt3__110__function6__funcIZNK8facebook5react31AndroidDrawerLayoutEventEmitter13onDrawerSlideENS4_13OnDrawerSlideEE3$_0NS_9allocatorIS6_EEFNS2_3jsi5ValueERNS9_7RuntimeEEE18destroy_deallocateEv', symObjAddr: 0x1604, symBinAddr: 0xE4DC, symSize: 0x4 }
  - { offset: 0xB55E4, size: 0x8, addend: 0x0, symName: '__ZNSt3__110__function6__funcIZNK8facebook5react31AndroidDrawerLayoutEventEmitter13onDrawerSlideENS4_13OnDrawerSlideEE3$_0NS_9allocatorIS6_EEFNS2_3jsi5ValueERNS9_7RuntimeEEE18destroy_deallocateEv', symObjAddr: 0x1604, symBinAddr: 0xE4DC, symSize: 0x4 }
  - { offset: 0xB56A0, size: 0x8, addend: 0x0, symName: '__ZNSt3__110__function6__funcIZNK8facebook5react31AndroidDrawerLayoutEventEmitter13onDrawerSlideENS4_13OnDrawerSlideEE3$_0NS_9allocatorIS6_EEFNS2_3jsi5ValueERNS9_7RuntimeEEEclESC_', symObjAddr: 0x1608, symBinAddr: 0xE4E0, symSize: 0x90 }
  - { offset: 0xB5905, size: 0x8, addend: 0x0, symName: '__ZNKSt3__110__function6__funcIZNK8facebook5react31AndroidDrawerLayoutEventEmitter13onDrawerSlideENS4_13OnDrawerSlideEE3$_0NS_9allocatorIS6_EEFNS2_3jsi5ValueERNS9_7RuntimeEEE6targetERKSt9type_info', symObjAddr: 0x1698, symBinAddr: 0xE570, symSize: 0x3C }
  - { offset: 0xB5952, size: 0x8, addend: 0x0, symName: '__ZNKSt3__110__function6__funcIZNK8facebook5react31AndroidDrawerLayoutEventEmitter13onDrawerSlideENS4_13OnDrawerSlideEE3$_0NS_9allocatorIS6_EEFNS2_3jsi5ValueERNS9_7RuntimeEEE11target_typeEv', symObjAddr: 0x16D4, symBinAddr: 0xE5AC, symSize: 0xC }
  - { offset: 0xB5975, size: 0x8, addend: 0x0, symName: '__ZNSt3__110__function6__funcIZNK8facebook5react31AndroidDrawerLayoutEventEmitter20onDrawerStateChangedENS4_20OnDrawerStateChangedEE3$_0NS_9allocatorIS6_EEFNS2_3jsi5ValueERNS9_7RuntimeEEED1Ev', symObjAddr: 0x16E0, symBinAddr: 0xE5B8, symSize: 0x4 }
  - { offset: 0xB59A1, size: 0x8, addend: 0x0, symName: '__ZNSt3__110__function6__funcIZNK8facebook5react31AndroidDrawerLayoutEventEmitter20onDrawerStateChangedENS4_20OnDrawerStateChangedEE3$_0NS_9allocatorIS6_EEFNS2_3jsi5ValueERNS9_7RuntimeEEED0Ev', symObjAddr: 0x16E4, symBinAddr: 0xE5BC, symSize: 0x4 }
  - { offset: 0xB5ABC, size: 0x8, addend: 0x0, symName: '__ZNKSt3__110__function6__funcIZNK8facebook5react31AndroidDrawerLayoutEventEmitter20onDrawerStateChangedENS4_20OnDrawerStateChangedEE3$_0NS_9allocatorIS6_EEFNS2_3jsi5ValueERNS9_7RuntimeEEE7__cloneEv', symObjAddr: 0x16E8, symBinAddr: 0xE5C0, symSize: 0x38 }
  - { offset: 0xB5CCF, size: 0x8, addend: 0x0, symName: '__ZNKSt3__110__function6__funcIZNK8facebook5react31AndroidDrawerLayoutEventEmitter20onDrawerStateChangedENS4_20OnDrawerStateChangedEE3$_0NS_9allocatorIS6_EEFNS2_3jsi5ValueERNS9_7RuntimeEEE7__cloneEPNS0_6__baseISD_EE', symObjAddr: 0x1720, symBinAddr: 0xE5F8, symSize: 0x18 }
  - { offset: 0xB5D05, size: 0x8, addend: 0x0, symName: '__ZNKSt3__110__function6__funcIZNK8facebook5react31AndroidDrawerLayoutEventEmitter20onDrawerStateChangedENS4_20OnDrawerStateChangedEE3$_0NS_9allocatorIS6_EEFNS2_3jsi5ValueERNS9_7RuntimeEEE7__cloneEPNS0_6__baseISD_EE', symObjAddr: 0x1720, symBinAddr: 0xE5F8, symSize: 0x18 }
  - { offset: 0xB5D33, size: 0x8, addend: 0x0, symName: '__ZNKSt3__110__function6__funcIZNK8facebook5react31AndroidDrawerLayoutEventEmitter20onDrawerStateChangedENS4_20OnDrawerStateChangedEE3$_0NS_9allocatorIS6_EEFNS2_3jsi5ValueERNS9_7RuntimeEEE7__cloneEPNS0_6__baseISD_EE', symObjAddr: 0x1720, symBinAddr: 0xE5F8, symSize: 0x18 }
  - { offset: 0xB5DC2, size: 0x8, addend: 0x0, symName: '__ZNSt3__110__function6__funcIZNK8facebook5react31AndroidDrawerLayoutEventEmitter20onDrawerStateChangedENS4_20OnDrawerStateChangedEE3$_0NS_9allocatorIS6_EEFNS2_3jsi5ValueERNS9_7RuntimeEEE7destroyEv', symObjAddr: 0x1738, symBinAddr: 0xE610, symSize: 0x4 }
  - { offset: 0xB5E17, size: 0x8, addend: 0x0, symName: '__ZNSt3__110__function6__funcIZNK8facebook5react31AndroidDrawerLayoutEventEmitter20onDrawerStateChangedENS4_20OnDrawerStateChangedEE3$_0NS_9allocatorIS6_EEFNS2_3jsi5ValueERNS9_7RuntimeEEE18destroy_deallocateEv', symObjAddr: 0x173C, symBinAddr: 0xE614, symSize: 0x4 }
  - { offset: 0xB5E4B, size: 0x8, addend: 0x0, symName: '__ZNSt3__110__function6__funcIZNK8facebook5react31AndroidDrawerLayoutEventEmitter20onDrawerStateChangedENS4_20OnDrawerStateChangedEE3$_0NS_9allocatorIS6_EEFNS2_3jsi5ValueERNS9_7RuntimeEEE18destroy_deallocateEv', symObjAddr: 0x173C, symBinAddr: 0xE614, symSize: 0x4 }
  - { offset: 0xB5E6D, size: 0x8, addend: 0x0, symName: '__ZNSt3__110__function6__funcIZNK8facebook5react31AndroidDrawerLayoutEventEmitter20onDrawerStateChangedENS4_20OnDrawerStateChangedEE3$_0NS_9allocatorIS6_EEFNS2_3jsi5ValueERNS9_7RuntimeEEE18destroy_deallocateEv', symObjAddr: 0x173C, symBinAddr: 0xE614, symSize: 0x4 }
  - { offset: 0xB5E9F, size: 0x8, addend: 0x0, symName: '__ZNSt3__110__function6__funcIZNK8facebook5react31AndroidDrawerLayoutEventEmitter20onDrawerStateChangedENS4_20OnDrawerStateChangedEE3$_0NS_9allocatorIS6_EEFNS2_3jsi5ValueERNS9_7RuntimeEEE18destroy_deallocateEv', symObjAddr: 0x173C, symBinAddr: 0xE614, symSize: 0x4 }
  - { offset: 0xB5F5B, size: 0x8, addend: 0x0, symName: '__ZNSt3__110__function6__funcIZNK8facebook5react31AndroidDrawerLayoutEventEmitter20onDrawerStateChangedENS4_20OnDrawerStateChangedEE3$_0NS_9allocatorIS6_EEFNS2_3jsi5ValueERNS9_7RuntimeEEEclESC_', symObjAddr: 0x1740, symBinAddr: 0xE618, symSize: 0x90 }
  - { offset: 0xB61C0, size: 0x8, addend: 0x0, symName: '__ZNKSt3__110__function6__funcIZNK8facebook5react31AndroidDrawerLayoutEventEmitter20onDrawerStateChangedENS4_20OnDrawerStateChangedEE3$_0NS_9allocatorIS6_EEFNS2_3jsi5ValueERNS9_7RuntimeEEE6targetERKSt9type_info', symObjAddr: 0x17D0, symBinAddr: 0xE6A8, symSize: 0x3C }
  - { offset: 0xB620D, size: 0x8, addend: 0x0, symName: '__ZNKSt3__110__function6__funcIZNK8facebook5react31AndroidDrawerLayoutEventEmitter20onDrawerStateChangedENS4_20OnDrawerStateChangedEE3$_0NS_9allocatorIS6_EEFNS2_3jsi5ValueERNS9_7RuntimeEEE11target_typeEv', symObjAddr: 0x180C, symBinAddr: 0xE6E4, symSize: 0xC }
  - { offset: 0xB6230, size: 0x8, addend: 0x0, symName: '__ZNSt3__110__function6__funcIZNK8facebook5react31AndroidDrawerLayoutEventEmitter12onDrawerOpenENS4_12OnDrawerOpenEE3$_0NS_9allocatorIS6_EEFNS2_3jsi5ValueERNS9_7RuntimeEEED1Ev', symObjAddr: 0x1818, symBinAddr: 0xE6F0, symSize: 0x4 }
  - { offset: 0xB625C, size: 0x8, addend: 0x0, symName: '__ZNSt3__110__function6__funcIZNK8facebook5react31AndroidDrawerLayoutEventEmitter12onDrawerOpenENS4_12OnDrawerOpenEE3$_0NS_9allocatorIS6_EEFNS2_3jsi5ValueERNS9_7RuntimeEEED0Ev', symObjAddr: 0x181C, symBinAddr: 0xE6F4, symSize: 0x4 }
  - { offset: 0xB6317, size: 0x8, addend: 0x0, symName: '__ZNKSt3__110__function6__funcIZNK8facebook5react31AndroidDrawerLayoutEventEmitter12onDrawerOpenENS4_12OnDrawerOpenEE3$_0NS_9allocatorIS6_EEFNS2_3jsi5ValueERNS9_7RuntimeEEE7__cloneEv', symObjAddr: 0x1820, symBinAddr: 0xE6F8, symSize: 0x24 }
  - { offset: 0xB6465, size: 0x8, addend: 0x0, symName: '__ZNKSt3__110__function6__funcIZNK8facebook5react31AndroidDrawerLayoutEventEmitter12onDrawerOpenENS4_12OnDrawerOpenEE3$_0NS_9allocatorIS6_EEFNS2_3jsi5ValueERNS9_7RuntimeEEE7__cloneEPNS0_6__baseISD_EE', symObjAddr: 0x1844, symBinAddr: 0xE71C, symSize: 0x10 }
  - { offset: 0xB6499, size: 0x8, addend: 0x0, symName: '__ZNKSt3__110__function6__funcIZNK8facebook5react31AndroidDrawerLayoutEventEmitter12onDrawerOpenENS4_12OnDrawerOpenEE3$_0NS_9allocatorIS6_EEFNS2_3jsi5ValueERNS9_7RuntimeEEE7__cloneEPNS0_6__baseISD_EE', symObjAddr: 0x1844, symBinAddr: 0xE71C, symSize: 0x10 }
  - { offset: 0xB64B5, size: 0x8, addend: 0x0, symName: '__ZNKSt3__110__function6__funcIZNK8facebook5react31AndroidDrawerLayoutEventEmitter12onDrawerOpenENS4_12OnDrawerOpenEE3$_0NS_9allocatorIS6_EEFNS2_3jsi5ValueERNS9_7RuntimeEEE7__cloneEPNS0_6__baseISD_EE', symObjAddr: 0x1844, symBinAddr: 0xE71C, symSize: 0x10 }
  - { offset: 0xB64D1, size: 0x8, addend: 0x0, symName: '__ZNSt3__110__function6__funcIZNK8facebook5react31AndroidDrawerLayoutEventEmitter12onDrawerOpenENS4_12OnDrawerOpenEE3$_0NS_9allocatorIS6_EEFNS2_3jsi5ValueERNS9_7RuntimeEEE7destroyEv', symObjAddr: 0x1854, symBinAddr: 0xE72C, symSize: 0x4 }
  - { offset: 0xB6526, size: 0x8, addend: 0x0, symName: '__ZNSt3__110__function6__funcIZNK8facebook5react31AndroidDrawerLayoutEventEmitter12onDrawerOpenENS4_12OnDrawerOpenEE3$_0NS_9allocatorIS6_EEFNS2_3jsi5ValueERNS9_7RuntimeEEE18destroy_deallocateEv', symObjAddr: 0x1858, symBinAddr: 0xE730, symSize: 0x4 }
  - { offset: 0xB655A, size: 0x8, addend: 0x0, symName: '__ZNSt3__110__function6__funcIZNK8facebook5react31AndroidDrawerLayoutEventEmitter12onDrawerOpenENS4_12OnDrawerOpenEE3$_0NS_9allocatorIS6_EEFNS2_3jsi5ValueERNS9_7RuntimeEEE18destroy_deallocateEv', symObjAddr: 0x1858, symBinAddr: 0xE730, symSize: 0x4 }
  - { offset: 0xB657C, size: 0x8, addend: 0x0, symName: '__ZNSt3__110__function6__funcIZNK8facebook5react31AndroidDrawerLayoutEventEmitter12onDrawerOpenENS4_12OnDrawerOpenEE3$_0NS_9allocatorIS6_EEFNS2_3jsi5ValueERNS9_7RuntimeEEE18destroy_deallocateEv', symObjAddr: 0x1858, symBinAddr: 0xE730, symSize: 0x4 }
  - { offset: 0xB65AE, size: 0x8, addend: 0x0, symName: '__ZNSt3__110__function6__funcIZNK8facebook5react31AndroidDrawerLayoutEventEmitter12onDrawerOpenENS4_12OnDrawerOpenEE3$_0NS_9allocatorIS6_EEFNS2_3jsi5ValueERNS9_7RuntimeEEE18destroy_deallocateEv', symObjAddr: 0x1858, symBinAddr: 0xE730, symSize: 0x4 }
  - { offset: 0xB666A, size: 0x8, addend: 0x0, symName: '__ZNSt3__110__function6__funcIZNK8facebook5react31AndroidDrawerLayoutEventEmitter12onDrawerOpenENS4_12OnDrawerOpenEE3$_0NS_9allocatorIS6_EEFNS2_3jsi5ValueERNS9_7RuntimeEEEclESC_', symObjAddr: 0x185C, symBinAddr: 0xE734, symSize: 0x38 }
  - { offset: 0xB67BC, size: 0x8, addend: 0x0, symName: '__ZNKSt3__110__function6__funcIZNK8facebook5react31AndroidDrawerLayoutEventEmitter12onDrawerOpenENS4_12OnDrawerOpenEE3$_0NS_9allocatorIS6_EEFNS2_3jsi5ValueERNS9_7RuntimeEEE6targetERKSt9type_info', symObjAddr: 0x1894, symBinAddr: 0xE76C, symSize: 0x3C }
  - { offset: 0xB6809, size: 0x8, addend: 0x0, symName: '__ZNKSt3__110__function6__funcIZNK8facebook5react31AndroidDrawerLayoutEventEmitter12onDrawerOpenENS4_12OnDrawerOpenEE3$_0NS_9allocatorIS6_EEFNS2_3jsi5ValueERNS9_7RuntimeEEE11target_typeEv', symObjAddr: 0x18D0, symBinAddr: 0xE7A8, symSize: 0xC }
  - { offset: 0xB682C, size: 0x8, addend: 0x0, symName: '__ZNSt3__110__function6__funcIZNK8facebook5react31AndroidDrawerLayoutEventEmitter13onDrawerCloseENS4_13OnDrawerCloseEE3$_0NS_9allocatorIS6_EEFNS2_3jsi5ValueERNS9_7RuntimeEEED1Ev', symObjAddr: 0x18DC, symBinAddr: 0xE7B4, symSize: 0x4 }
  - { offset: 0xB6858, size: 0x8, addend: 0x0, symName: '__ZNSt3__110__function6__funcIZNK8facebook5react31AndroidDrawerLayoutEventEmitter13onDrawerCloseENS4_13OnDrawerCloseEE3$_0NS_9allocatorIS6_EEFNS2_3jsi5ValueERNS9_7RuntimeEEED0Ev', symObjAddr: 0x18E0, symBinAddr: 0xE7B8, symSize: 0x4 }
  - { offset: 0xB6913, size: 0x8, addend: 0x0, symName: '__ZNKSt3__110__function6__funcIZNK8facebook5react31AndroidDrawerLayoutEventEmitter13onDrawerCloseENS4_13OnDrawerCloseEE3$_0NS_9allocatorIS6_EEFNS2_3jsi5ValueERNS9_7RuntimeEEE7__cloneEv', symObjAddr: 0x18E4, symBinAddr: 0xE7BC, symSize: 0x24 }
  - { offset: 0xB6A61, size: 0x8, addend: 0x0, symName: '__ZNKSt3__110__function6__funcIZNK8facebook5react31AndroidDrawerLayoutEventEmitter13onDrawerCloseENS4_13OnDrawerCloseEE3$_0NS_9allocatorIS6_EEFNS2_3jsi5ValueERNS9_7RuntimeEEE7__cloneEPNS0_6__baseISD_EE', symObjAddr: 0x1908, symBinAddr: 0xE7E0, symSize: 0x10 }
  - { offset: 0xB6A95, size: 0x8, addend: 0x0, symName: '__ZNKSt3__110__function6__funcIZNK8facebook5react31AndroidDrawerLayoutEventEmitter13onDrawerCloseENS4_13OnDrawerCloseEE3$_0NS_9allocatorIS6_EEFNS2_3jsi5ValueERNS9_7RuntimeEEE7__cloneEPNS0_6__baseISD_EE', symObjAddr: 0x1908, symBinAddr: 0xE7E0, symSize: 0x10 }
  - { offset: 0xB6AB1, size: 0x8, addend: 0x0, symName: '__ZNKSt3__110__function6__funcIZNK8facebook5react31AndroidDrawerLayoutEventEmitter13onDrawerCloseENS4_13OnDrawerCloseEE3$_0NS_9allocatorIS6_EEFNS2_3jsi5ValueERNS9_7RuntimeEEE7__cloneEPNS0_6__baseISD_EE', symObjAddr: 0x1908, symBinAddr: 0xE7E0, symSize: 0x10 }
  - { offset: 0xB6ACD, size: 0x8, addend: 0x0, symName: '__ZNSt3__110__function6__funcIZNK8facebook5react31AndroidDrawerLayoutEventEmitter13onDrawerCloseENS4_13OnDrawerCloseEE3$_0NS_9allocatorIS6_EEFNS2_3jsi5ValueERNS9_7RuntimeEEE7destroyEv', symObjAddr: 0x1918, symBinAddr: 0xE7F0, symSize: 0x4 }
  - { offset: 0xB6B22, size: 0x8, addend: 0x0, symName: '__ZNSt3__110__function6__funcIZNK8facebook5react31AndroidDrawerLayoutEventEmitter13onDrawerCloseENS4_13OnDrawerCloseEE3$_0NS_9allocatorIS6_EEFNS2_3jsi5ValueERNS9_7RuntimeEEE18destroy_deallocateEv', symObjAddr: 0x191C, symBinAddr: 0xE7F4, symSize: 0x4 }
  - { offset: 0xB6B56, size: 0x8, addend: 0x0, symName: '__ZNSt3__110__function6__funcIZNK8facebook5react31AndroidDrawerLayoutEventEmitter13onDrawerCloseENS4_13OnDrawerCloseEE3$_0NS_9allocatorIS6_EEFNS2_3jsi5ValueERNS9_7RuntimeEEE18destroy_deallocateEv', symObjAddr: 0x191C, symBinAddr: 0xE7F4, symSize: 0x4 }
  - { offset: 0xB6B78, size: 0x8, addend: 0x0, symName: '__ZNSt3__110__function6__funcIZNK8facebook5react31AndroidDrawerLayoutEventEmitter13onDrawerCloseENS4_13OnDrawerCloseEE3$_0NS_9allocatorIS6_EEFNS2_3jsi5ValueERNS9_7RuntimeEEE18destroy_deallocateEv', symObjAddr: 0x191C, symBinAddr: 0xE7F4, symSize: 0x4 }
  - { offset: 0xB6BAA, size: 0x8, addend: 0x0, symName: '__ZNSt3__110__function6__funcIZNK8facebook5react31AndroidDrawerLayoutEventEmitter13onDrawerCloseENS4_13OnDrawerCloseEE3$_0NS_9allocatorIS6_EEFNS2_3jsi5ValueERNS9_7RuntimeEEE18destroy_deallocateEv', symObjAddr: 0x191C, symBinAddr: 0xE7F4, symSize: 0x4 }
  - { offset: 0xB6C66, size: 0x8, addend: 0x0, symName: '__ZNSt3__110__function6__funcIZNK8facebook5react31AndroidDrawerLayoutEventEmitter13onDrawerCloseENS4_13OnDrawerCloseEE3$_0NS_9allocatorIS6_EEFNS2_3jsi5ValueERNS9_7RuntimeEEEclESC_', symObjAddr: 0x1920, symBinAddr: 0xE7F8, symSize: 0x38 }
  - { offset: 0xB6DB8, size: 0x8, addend: 0x0, symName: '__ZNKSt3__110__function6__funcIZNK8facebook5react31AndroidDrawerLayoutEventEmitter13onDrawerCloseENS4_13OnDrawerCloseEE3$_0NS_9allocatorIS6_EEFNS2_3jsi5ValueERNS9_7RuntimeEEE6targetERKSt9type_info', symObjAddr: 0x1958, symBinAddr: 0xE830, symSize: 0x3C }
  - { offset: 0xB6E05, size: 0x8, addend: 0x0, symName: '__ZNKSt3__110__function6__funcIZNK8facebook5react31AndroidDrawerLayoutEventEmitter13onDrawerCloseENS4_13OnDrawerCloseEE3$_0NS_9allocatorIS6_EEFNS2_3jsi5ValueERNS9_7RuntimeEEE11target_typeEv', symObjAddr: 0x1994, symBinAddr: 0xE86C, symSize: 0xC }
  - { offset: 0xB6E28, size: 0x8, addend: 0x0, symName: '__ZNSt3__110__function6__funcIZNK8facebook5react37AndroidSwipeRefreshLayoutEventEmitter9onRefreshENS4_9OnRefreshEE3$_0NS_9allocatorIS6_EEFNS2_3jsi5ValueERNS9_7RuntimeEEED1Ev', symObjAddr: 0x19A0, symBinAddr: 0xE878, symSize: 0x4 }
  - { offset: 0xB6E54, size: 0x8, addend: 0x0, symName: '__ZNSt3__110__function6__funcIZNK8facebook5react37AndroidSwipeRefreshLayoutEventEmitter9onRefreshENS4_9OnRefreshEE3$_0NS_9allocatorIS6_EEFNS2_3jsi5ValueERNS9_7RuntimeEEED0Ev', symObjAddr: 0x19A4, symBinAddr: 0xE87C, symSize: 0x4 }
  - { offset: 0xB6F0F, size: 0x8, addend: 0x0, symName: '__ZNKSt3__110__function6__funcIZNK8facebook5react37AndroidSwipeRefreshLayoutEventEmitter9onRefreshENS4_9OnRefreshEE3$_0NS_9allocatorIS6_EEFNS2_3jsi5ValueERNS9_7RuntimeEEE7__cloneEv', symObjAddr: 0x19A8, symBinAddr: 0xE880, symSize: 0x24 }
  - { offset: 0xB705D, size: 0x8, addend: 0x0, symName: '__ZNKSt3__110__function6__funcIZNK8facebook5react37AndroidSwipeRefreshLayoutEventEmitter9onRefreshENS4_9OnRefreshEE3$_0NS_9allocatorIS6_EEFNS2_3jsi5ValueERNS9_7RuntimeEEE7__cloneEPNS0_6__baseISD_EE', symObjAddr: 0x19CC, symBinAddr: 0xE8A4, symSize: 0x10 }
  - { offset: 0xB7091, size: 0x8, addend: 0x0, symName: '__ZNKSt3__110__function6__funcIZNK8facebook5react37AndroidSwipeRefreshLayoutEventEmitter9onRefreshENS4_9OnRefreshEE3$_0NS_9allocatorIS6_EEFNS2_3jsi5ValueERNS9_7RuntimeEEE7__cloneEPNS0_6__baseISD_EE', symObjAddr: 0x19CC, symBinAddr: 0xE8A4, symSize: 0x10 }
  - { offset: 0xB70AD, size: 0x8, addend: 0x0, symName: '__ZNKSt3__110__function6__funcIZNK8facebook5react37AndroidSwipeRefreshLayoutEventEmitter9onRefreshENS4_9OnRefreshEE3$_0NS_9allocatorIS6_EEFNS2_3jsi5ValueERNS9_7RuntimeEEE7__cloneEPNS0_6__baseISD_EE', symObjAddr: 0x19CC, symBinAddr: 0xE8A4, symSize: 0x10 }
  - { offset: 0xB70C9, size: 0x8, addend: 0x0, symName: '__ZNSt3__110__function6__funcIZNK8facebook5react37AndroidSwipeRefreshLayoutEventEmitter9onRefreshENS4_9OnRefreshEE3$_0NS_9allocatorIS6_EEFNS2_3jsi5ValueERNS9_7RuntimeEEE7destroyEv', symObjAddr: 0x19DC, symBinAddr: 0xE8B4, symSize: 0x4 }
  - { offset: 0xB711E, size: 0x8, addend: 0x0, symName: '__ZNSt3__110__function6__funcIZNK8facebook5react37AndroidSwipeRefreshLayoutEventEmitter9onRefreshENS4_9OnRefreshEE3$_0NS_9allocatorIS6_EEFNS2_3jsi5ValueERNS9_7RuntimeEEE18destroy_deallocateEv', symObjAddr: 0x19E0, symBinAddr: 0xE8B8, symSize: 0x4 }
  - { offset: 0xB7152, size: 0x8, addend: 0x0, symName: '__ZNSt3__110__function6__funcIZNK8facebook5react37AndroidSwipeRefreshLayoutEventEmitter9onRefreshENS4_9OnRefreshEE3$_0NS_9allocatorIS6_EEFNS2_3jsi5ValueERNS9_7RuntimeEEE18destroy_deallocateEv', symObjAddr: 0x19E0, symBinAddr: 0xE8B8, symSize: 0x4 }
  - { offset: 0xB7174, size: 0x8, addend: 0x0, symName: '__ZNSt3__110__function6__funcIZNK8facebook5react37AndroidSwipeRefreshLayoutEventEmitter9onRefreshENS4_9OnRefreshEE3$_0NS_9allocatorIS6_EEFNS2_3jsi5ValueERNS9_7RuntimeEEE18destroy_deallocateEv', symObjAddr: 0x19E0, symBinAddr: 0xE8B8, symSize: 0x4 }
  - { offset: 0xB71A6, size: 0x8, addend: 0x0, symName: '__ZNSt3__110__function6__funcIZNK8facebook5react37AndroidSwipeRefreshLayoutEventEmitter9onRefreshENS4_9OnRefreshEE3$_0NS_9allocatorIS6_EEFNS2_3jsi5ValueERNS9_7RuntimeEEE18destroy_deallocateEv', symObjAddr: 0x19E0, symBinAddr: 0xE8B8, symSize: 0x4 }
  - { offset: 0xB7262, size: 0x8, addend: 0x0, symName: '__ZNSt3__110__function6__funcIZNK8facebook5react37AndroidSwipeRefreshLayoutEventEmitter9onRefreshENS4_9OnRefreshEE3$_0NS_9allocatorIS6_EEFNS2_3jsi5ValueERNS9_7RuntimeEEEclESC_', symObjAddr: 0x19E4, symBinAddr: 0xE8BC, symSize: 0x38 }
  - { offset: 0xB73B4, size: 0x8, addend: 0x0, symName: '__ZNKSt3__110__function6__funcIZNK8facebook5react37AndroidSwipeRefreshLayoutEventEmitter9onRefreshENS4_9OnRefreshEE3$_0NS_9allocatorIS6_EEFNS2_3jsi5ValueERNS9_7RuntimeEEE6targetERKSt9type_info', symObjAddr: 0x1A1C, symBinAddr: 0xE8F4, symSize: 0x3C }
  - { offset: 0xB7401, size: 0x8, addend: 0x0, symName: '__ZNKSt3__110__function6__funcIZNK8facebook5react37AndroidSwipeRefreshLayoutEventEmitter9onRefreshENS4_9OnRefreshEE3$_0NS_9allocatorIS6_EEFNS2_3jsi5ValueERNS9_7RuntimeEEE11target_typeEv', symObjAddr: 0x1A58, symBinAddr: 0xE930, symSize: 0xC }
  - { offset: 0xB7424, size: 0x8, addend: 0x0, symName: '__ZNSt3__110__function6__funcIZNK8facebook5react25AndroidSwitchEventEmitter8onChangeENS4_8OnChangeEE3$_0NS_9allocatorIS6_EEFNS2_3jsi5ValueERNS9_7RuntimeEEED1Ev', symObjAddr: 0x1A64, symBinAddr: 0xE93C, symSize: 0x4 }
  - { offset: 0xB7450, size: 0x8, addend: 0x0, symName: '__ZNSt3__110__function6__funcIZNK8facebook5react25AndroidSwitchEventEmitter8onChangeENS4_8OnChangeEE3$_0NS_9allocatorIS6_EEFNS2_3jsi5ValueERNS9_7RuntimeEEED0Ev', symObjAddr: 0x1A68, symBinAddr: 0xE940, symSize: 0x4 }
  - { offset: 0xB756B, size: 0x8, addend: 0x0, symName: '__ZNKSt3__110__function6__funcIZNK8facebook5react25AndroidSwitchEventEmitter8onChangeENS4_8OnChangeEE3$_0NS_9allocatorIS6_EEFNS2_3jsi5ValueERNS9_7RuntimeEEE7__cloneEv', symObjAddr: 0x1A6C, symBinAddr: 0xE944, symSize: 0x34 }
  - { offset: 0xB776C, size: 0x8, addend: 0x0, symName: '__ZNKSt3__110__function6__funcIZNK8facebook5react25AndroidSwitchEventEmitter8onChangeENS4_8OnChangeEE3$_0NS_9allocatorIS6_EEFNS2_3jsi5ValueERNS9_7RuntimeEEE7__cloneEPNS0_6__baseISD_EE', symObjAddr: 0x1AA0, symBinAddr: 0xE978, symSize: 0x18 }
  - { offset: 0xB77A2, size: 0x8, addend: 0x0, symName: '__ZNKSt3__110__function6__funcIZNK8facebook5react25AndroidSwitchEventEmitter8onChangeENS4_8OnChangeEE3$_0NS_9allocatorIS6_EEFNS2_3jsi5ValueERNS9_7RuntimeEEE7__cloneEPNS0_6__baseISD_EE', symObjAddr: 0x1AA0, symBinAddr: 0xE978, symSize: 0x18 }
  - { offset: 0xB77D0, size: 0x8, addend: 0x0, symName: '__ZNKSt3__110__function6__funcIZNK8facebook5react25AndroidSwitchEventEmitter8onChangeENS4_8OnChangeEE3$_0NS_9allocatorIS6_EEFNS2_3jsi5ValueERNS9_7RuntimeEEE7__cloneEPNS0_6__baseISD_EE', symObjAddr: 0x1AA0, symBinAddr: 0xE978, symSize: 0x18 }
  - { offset: 0xB785F, size: 0x8, addend: 0x0, symName: '__ZNSt3__110__function6__funcIZNK8facebook5react25AndroidSwitchEventEmitter8onChangeENS4_8OnChangeEE3$_0NS_9allocatorIS6_EEFNS2_3jsi5ValueERNS9_7RuntimeEEE7destroyEv', symObjAddr: 0x1AB8, symBinAddr: 0xE990, symSize: 0x4 }
  - { offset: 0xB78B4, size: 0x8, addend: 0x0, symName: '__ZNSt3__110__function6__funcIZNK8facebook5react25AndroidSwitchEventEmitter8onChangeENS4_8OnChangeEE3$_0NS_9allocatorIS6_EEFNS2_3jsi5ValueERNS9_7RuntimeEEE18destroy_deallocateEv', symObjAddr: 0x1ABC, symBinAddr: 0xE994, symSize: 0x4 }
  - { offset: 0xB78E8, size: 0x8, addend: 0x0, symName: '__ZNSt3__110__function6__funcIZNK8facebook5react25AndroidSwitchEventEmitter8onChangeENS4_8OnChangeEE3$_0NS_9allocatorIS6_EEFNS2_3jsi5ValueERNS9_7RuntimeEEE18destroy_deallocateEv', symObjAddr: 0x1ABC, symBinAddr: 0xE994, symSize: 0x4 }
  - { offset: 0xB790A, size: 0x8, addend: 0x0, symName: '__ZNSt3__110__function6__funcIZNK8facebook5react25AndroidSwitchEventEmitter8onChangeENS4_8OnChangeEE3$_0NS_9allocatorIS6_EEFNS2_3jsi5ValueERNS9_7RuntimeEEE18destroy_deallocateEv', symObjAddr: 0x1ABC, symBinAddr: 0xE994, symSize: 0x4 }
  - { offset: 0xB793C, size: 0x8, addend: 0x0, symName: '__ZNSt3__110__function6__funcIZNK8facebook5react25AndroidSwitchEventEmitter8onChangeENS4_8OnChangeEE3$_0NS_9allocatorIS6_EEFNS2_3jsi5ValueERNS9_7RuntimeEEE18destroy_deallocateEv', symObjAddr: 0x1ABC, symBinAddr: 0xE994, symSize: 0x4 }
  - { offset: 0xB79F8, size: 0x8, addend: 0x0, symName: '__ZNSt3__110__function6__funcIZNK8facebook5react25AndroidSwitchEventEmitter8onChangeENS4_8OnChangeEE3$_0NS_9allocatorIS6_EEFNS2_3jsi5ValueERNS9_7RuntimeEEEclESC_', symObjAddr: 0x1AC0, symBinAddr: 0xE998, symSize: 0xA8 }
  - { offset: 0xB7C83, size: 0x8, addend: 0x0, symName: __ZNK8facebook3jsi6Object11setPropertyIRKbEEvRNS0_7RuntimeEPKcOT_, symObjAddr: 0x1BB0, symBinAddr: 0xEA88, symSize: 0xA4 }
  - { offset: 0xB7E57, size: 0x8, addend: 0x0, symName: '__ZNKSt3__110__function6__funcIZNK8facebook5react25AndroidSwitchEventEmitter8onChangeENS4_8OnChangeEE3$_0NS_9allocatorIS6_EEFNS2_3jsi5ValueERNS9_7RuntimeEEE6targetERKSt9type_info', symObjAddr: 0x1B68, symBinAddr: 0xEA40, symSize: 0x3C }
  - { offset: 0xB7EA4, size: 0x8, addend: 0x0, symName: '__ZNKSt3__110__function6__funcIZNK8facebook5react25AndroidSwitchEventEmitter8onChangeENS4_8OnChangeEE3$_0NS_9allocatorIS6_EEFNS2_3jsi5ValueERNS9_7RuntimeEEE11target_typeEv', symObjAddr: 0x1BA4, symBinAddr: 0xEA7C, symSize: 0xC }
  - { offset: 0xB7EC7, size: 0x8, addend: 0x0, symName: __ZNK8facebook3jsi6Object11setPropertyIRKbEEvRNS0_7RuntimeERKNS0_6StringEOT_, symObjAddr: 0x1C54, symBinAddr: 0xEB2C, symSize: 0x68 }
  - { offset: 0xB803D, size: 0x8, addend: 0x0, symName: '__ZNSt3__110__function6__funcIZNK8facebook5react29PullToRefreshViewEventEmitter9onRefreshENS4_9OnRefreshEE3$_0NS_9allocatorIS6_EEFNS2_3jsi5ValueERNS9_7RuntimeEEED1Ev', symObjAddr: 0x1CBC, symBinAddr: 0xEB94, symSize: 0x4 }
  - { offset: 0xB8069, size: 0x8, addend: 0x0, symName: '__ZNSt3__110__function6__funcIZNK8facebook5react29PullToRefreshViewEventEmitter9onRefreshENS4_9OnRefreshEE3$_0NS_9allocatorIS6_EEFNS2_3jsi5ValueERNS9_7RuntimeEEED0Ev', symObjAddr: 0x1CC0, symBinAddr: 0xEB98, symSize: 0x4 }
  - { offset: 0xB8124, size: 0x8, addend: 0x0, symName: '__ZNKSt3__110__function6__funcIZNK8facebook5react29PullToRefreshViewEventEmitter9onRefreshENS4_9OnRefreshEE3$_0NS_9allocatorIS6_EEFNS2_3jsi5ValueERNS9_7RuntimeEEE7__cloneEv', symObjAddr: 0x1CC4, symBinAddr: 0xEB9C, symSize: 0x24 }
  - { offset: 0xB8272, size: 0x8, addend: 0x0, symName: '__ZNKSt3__110__function6__funcIZNK8facebook5react29PullToRefreshViewEventEmitter9onRefreshENS4_9OnRefreshEE3$_0NS_9allocatorIS6_EEFNS2_3jsi5ValueERNS9_7RuntimeEEE7__cloneEPNS0_6__baseISD_EE', symObjAddr: 0x1CE8, symBinAddr: 0xEBC0, symSize: 0x10 }
  - { offset: 0xB82A6, size: 0x8, addend: 0x0, symName: '__ZNKSt3__110__function6__funcIZNK8facebook5react29PullToRefreshViewEventEmitter9onRefreshENS4_9OnRefreshEE3$_0NS_9allocatorIS6_EEFNS2_3jsi5ValueERNS9_7RuntimeEEE7__cloneEPNS0_6__baseISD_EE', symObjAddr: 0x1CE8, symBinAddr: 0xEBC0, symSize: 0x10 }
  - { offset: 0xB82C2, size: 0x8, addend: 0x0, symName: '__ZNKSt3__110__function6__funcIZNK8facebook5react29PullToRefreshViewEventEmitter9onRefreshENS4_9OnRefreshEE3$_0NS_9allocatorIS6_EEFNS2_3jsi5ValueERNS9_7RuntimeEEE7__cloneEPNS0_6__baseISD_EE', symObjAddr: 0x1CE8, symBinAddr: 0xEBC0, symSize: 0x10 }
  - { offset: 0xB82DE, size: 0x8, addend: 0x0, symName: '__ZNSt3__110__function6__funcIZNK8facebook5react29PullToRefreshViewEventEmitter9onRefreshENS4_9OnRefreshEE3$_0NS_9allocatorIS6_EEFNS2_3jsi5ValueERNS9_7RuntimeEEE7destroyEv', symObjAddr: 0x1CF8, symBinAddr: 0xEBD0, symSize: 0x4 }
  - { offset: 0xB8333, size: 0x8, addend: 0x0, symName: '__ZNSt3__110__function6__funcIZNK8facebook5react29PullToRefreshViewEventEmitter9onRefreshENS4_9OnRefreshEE3$_0NS_9allocatorIS6_EEFNS2_3jsi5ValueERNS9_7RuntimeEEE18destroy_deallocateEv', symObjAddr: 0x1CFC, symBinAddr: 0xEBD4, symSize: 0x4 }
  - { offset: 0xB8367, size: 0x8, addend: 0x0, symName: '__ZNSt3__110__function6__funcIZNK8facebook5react29PullToRefreshViewEventEmitter9onRefreshENS4_9OnRefreshEE3$_0NS_9allocatorIS6_EEFNS2_3jsi5ValueERNS9_7RuntimeEEE18destroy_deallocateEv', symObjAddr: 0x1CFC, symBinAddr: 0xEBD4, symSize: 0x4 }
  - { offset: 0xB8389, size: 0x8, addend: 0x0, symName: '__ZNSt3__110__function6__funcIZNK8facebook5react29PullToRefreshViewEventEmitter9onRefreshENS4_9OnRefreshEE3$_0NS_9allocatorIS6_EEFNS2_3jsi5ValueERNS9_7RuntimeEEE18destroy_deallocateEv', symObjAddr: 0x1CFC, symBinAddr: 0xEBD4, symSize: 0x4 }
  - { offset: 0xB83BB, size: 0x8, addend: 0x0, symName: '__ZNSt3__110__function6__funcIZNK8facebook5react29PullToRefreshViewEventEmitter9onRefreshENS4_9OnRefreshEE3$_0NS_9allocatorIS6_EEFNS2_3jsi5ValueERNS9_7RuntimeEEE18destroy_deallocateEv', symObjAddr: 0x1CFC, symBinAddr: 0xEBD4, symSize: 0x4 }
  - { offset: 0xB8477, size: 0x8, addend: 0x0, symName: '__ZNSt3__110__function6__funcIZNK8facebook5react29PullToRefreshViewEventEmitter9onRefreshENS4_9OnRefreshEE3$_0NS_9allocatorIS6_EEFNS2_3jsi5ValueERNS9_7RuntimeEEEclESC_', symObjAddr: 0x1D00, symBinAddr: 0xEBD8, symSize: 0x38 }
  - { offset: 0xB85C9, size: 0x8, addend: 0x0, symName: '__ZNKSt3__110__function6__funcIZNK8facebook5react29PullToRefreshViewEventEmitter9onRefreshENS4_9OnRefreshEE3$_0NS_9allocatorIS6_EEFNS2_3jsi5ValueERNS9_7RuntimeEEE6targetERKSt9type_info', symObjAddr: 0x1D38, symBinAddr: 0xEC10, symSize: 0x3C }
  - { offset: 0xB8616, size: 0x8, addend: 0x0, symName: '__ZNKSt3__110__function6__funcIZNK8facebook5react29PullToRefreshViewEventEmitter9onRefreshENS4_9OnRefreshEE3$_0NS_9allocatorIS6_EEFNS2_3jsi5ValueERNS9_7RuntimeEEE11target_typeEv', symObjAddr: 0x1D74, symBinAddr: 0xEC4C, symSize: 0xC }
  - { offset: 0xB8639, size: 0x8, addend: 0x0, symName: '__ZNSt3__110__function6__funcIZNK8facebook5react25ModalHostViewEventEmitter14onRequestCloseENS4_14OnRequestCloseEE3$_0NS_9allocatorIS6_EEFNS2_3jsi5ValueERNS9_7RuntimeEEED1Ev', symObjAddr: 0x1D80, symBinAddr: 0xEC58, symSize: 0x4 }
  - { offset: 0xB8665, size: 0x8, addend: 0x0, symName: '__ZNSt3__110__function6__funcIZNK8facebook5react25ModalHostViewEventEmitter14onRequestCloseENS4_14OnRequestCloseEE3$_0NS_9allocatorIS6_EEFNS2_3jsi5ValueERNS9_7RuntimeEEED0Ev', symObjAddr: 0x1D84, symBinAddr: 0xEC5C, symSize: 0x4 }
  - { offset: 0xB8720, size: 0x8, addend: 0x0, symName: '__ZNKSt3__110__function6__funcIZNK8facebook5react25ModalHostViewEventEmitter14onRequestCloseENS4_14OnRequestCloseEE3$_0NS_9allocatorIS6_EEFNS2_3jsi5ValueERNS9_7RuntimeEEE7__cloneEv', symObjAddr: 0x1D88, symBinAddr: 0xEC60, symSize: 0x24 }
  - { offset: 0xB886E, size: 0x8, addend: 0x0, symName: '__ZNKSt3__110__function6__funcIZNK8facebook5react25ModalHostViewEventEmitter14onRequestCloseENS4_14OnRequestCloseEE3$_0NS_9allocatorIS6_EEFNS2_3jsi5ValueERNS9_7RuntimeEEE7__cloneEPNS0_6__baseISD_EE', symObjAddr: 0x1DAC, symBinAddr: 0xEC84, symSize: 0x10 }
  - { offset: 0xB88A2, size: 0x8, addend: 0x0, symName: '__ZNKSt3__110__function6__funcIZNK8facebook5react25ModalHostViewEventEmitter14onRequestCloseENS4_14OnRequestCloseEE3$_0NS_9allocatorIS6_EEFNS2_3jsi5ValueERNS9_7RuntimeEEE7__cloneEPNS0_6__baseISD_EE', symObjAddr: 0x1DAC, symBinAddr: 0xEC84, symSize: 0x10 }
  - { offset: 0xB88BE, size: 0x8, addend: 0x0, symName: '__ZNKSt3__110__function6__funcIZNK8facebook5react25ModalHostViewEventEmitter14onRequestCloseENS4_14OnRequestCloseEE3$_0NS_9allocatorIS6_EEFNS2_3jsi5ValueERNS9_7RuntimeEEE7__cloneEPNS0_6__baseISD_EE', symObjAddr: 0x1DAC, symBinAddr: 0xEC84, symSize: 0x10 }
  - { offset: 0xB88DA, size: 0x8, addend: 0x0, symName: '__ZNSt3__110__function6__funcIZNK8facebook5react25ModalHostViewEventEmitter14onRequestCloseENS4_14OnRequestCloseEE3$_0NS_9allocatorIS6_EEFNS2_3jsi5ValueERNS9_7RuntimeEEE7destroyEv', symObjAddr: 0x1DBC, symBinAddr: 0xEC94, symSize: 0x4 }
  - { offset: 0xB892F, size: 0x8, addend: 0x0, symName: '__ZNSt3__110__function6__funcIZNK8facebook5react25ModalHostViewEventEmitter14onRequestCloseENS4_14OnRequestCloseEE3$_0NS_9allocatorIS6_EEFNS2_3jsi5ValueERNS9_7RuntimeEEE18destroy_deallocateEv', symObjAddr: 0x1DC0, symBinAddr: 0xEC98, symSize: 0x4 }
  - { offset: 0xB8963, size: 0x8, addend: 0x0, symName: '__ZNSt3__110__function6__funcIZNK8facebook5react25ModalHostViewEventEmitter14onRequestCloseENS4_14OnRequestCloseEE3$_0NS_9allocatorIS6_EEFNS2_3jsi5ValueERNS9_7RuntimeEEE18destroy_deallocateEv', symObjAddr: 0x1DC0, symBinAddr: 0xEC98, symSize: 0x4 }
  - { offset: 0xB8985, size: 0x8, addend: 0x0, symName: '__ZNSt3__110__function6__funcIZNK8facebook5react25ModalHostViewEventEmitter14onRequestCloseENS4_14OnRequestCloseEE3$_0NS_9allocatorIS6_EEFNS2_3jsi5ValueERNS9_7RuntimeEEE18destroy_deallocateEv', symObjAddr: 0x1DC0, symBinAddr: 0xEC98, symSize: 0x4 }
  - { offset: 0xB89B7, size: 0x8, addend: 0x0, symName: '__ZNSt3__110__function6__funcIZNK8facebook5react25ModalHostViewEventEmitter14onRequestCloseENS4_14OnRequestCloseEE3$_0NS_9allocatorIS6_EEFNS2_3jsi5ValueERNS9_7RuntimeEEE18destroy_deallocateEv', symObjAddr: 0x1DC0, symBinAddr: 0xEC98, symSize: 0x4 }
  - { offset: 0xB8A73, size: 0x8, addend: 0x0, symName: '__ZNSt3__110__function6__funcIZNK8facebook5react25ModalHostViewEventEmitter14onRequestCloseENS4_14OnRequestCloseEE3$_0NS_9allocatorIS6_EEFNS2_3jsi5ValueERNS9_7RuntimeEEEclESC_', symObjAddr: 0x1DC4, symBinAddr: 0xEC9C, symSize: 0x38 }
  - { offset: 0xB8BC5, size: 0x8, addend: 0x0, symName: '__ZNKSt3__110__function6__funcIZNK8facebook5react25ModalHostViewEventEmitter14onRequestCloseENS4_14OnRequestCloseEE3$_0NS_9allocatorIS6_EEFNS2_3jsi5ValueERNS9_7RuntimeEEE6targetERKSt9type_info', symObjAddr: 0x1DFC, symBinAddr: 0xECD4, symSize: 0x3C }
  - { offset: 0xB8C12, size: 0x8, addend: 0x0, symName: '__ZNKSt3__110__function6__funcIZNK8facebook5react25ModalHostViewEventEmitter14onRequestCloseENS4_14OnRequestCloseEE3$_0NS_9allocatorIS6_EEFNS2_3jsi5ValueERNS9_7RuntimeEEE11target_typeEv', symObjAddr: 0x1E38, symBinAddr: 0xED10, symSize: 0xC }
  - { offset: 0xB8C35, size: 0x8, addend: 0x0, symName: '__ZNSt3__110__function6__funcIZNK8facebook5react25ModalHostViewEventEmitter6onShowENS4_6OnShowEE3$_0NS_9allocatorIS6_EEFNS2_3jsi5ValueERNS9_7RuntimeEEED1Ev', symObjAddr: 0x1E44, symBinAddr: 0xED1C, symSize: 0x4 }
  - { offset: 0xB8C61, size: 0x8, addend: 0x0, symName: '__ZNSt3__110__function6__funcIZNK8facebook5react25ModalHostViewEventEmitter6onShowENS4_6OnShowEE3$_0NS_9allocatorIS6_EEFNS2_3jsi5ValueERNS9_7RuntimeEEED0Ev', symObjAddr: 0x1E48, symBinAddr: 0xED20, symSize: 0x4 }
  - { offset: 0xB8D1C, size: 0x8, addend: 0x0, symName: '__ZNKSt3__110__function6__funcIZNK8facebook5react25ModalHostViewEventEmitter6onShowENS4_6OnShowEE3$_0NS_9allocatorIS6_EEFNS2_3jsi5ValueERNS9_7RuntimeEEE7__cloneEv', symObjAddr: 0x1E4C, symBinAddr: 0xED24, symSize: 0x24 }
  - { offset: 0xB8E6A, size: 0x8, addend: 0x0, symName: '__ZNKSt3__110__function6__funcIZNK8facebook5react25ModalHostViewEventEmitter6onShowENS4_6OnShowEE3$_0NS_9allocatorIS6_EEFNS2_3jsi5ValueERNS9_7RuntimeEEE7__cloneEPNS0_6__baseISD_EE', symObjAddr: 0x1E70, symBinAddr: 0xED48, symSize: 0x10 }
  - { offset: 0xB8E9E, size: 0x8, addend: 0x0, symName: '__ZNKSt3__110__function6__funcIZNK8facebook5react25ModalHostViewEventEmitter6onShowENS4_6OnShowEE3$_0NS_9allocatorIS6_EEFNS2_3jsi5ValueERNS9_7RuntimeEEE7__cloneEPNS0_6__baseISD_EE', symObjAddr: 0x1E70, symBinAddr: 0xED48, symSize: 0x10 }
  - { offset: 0xB8EBA, size: 0x8, addend: 0x0, symName: '__ZNKSt3__110__function6__funcIZNK8facebook5react25ModalHostViewEventEmitter6onShowENS4_6OnShowEE3$_0NS_9allocatorIS6_EEFNS2_3jsi5ValueERNS9_7RuntimeEEE7__cloneEPNS0_6__baseISD_EE', symObjAddr: 0x1E70, symBinAddr: 0xED48, symSize: 0x10 }
  - { offset: 0xB8ED6, size: 0x8, addend: 0x0, symName: '__ZNSt3__110__function6__funcIZNK8facebook5react25ModalHostViewEventEmitter6onShowENS4_6OnShowEE3$_0NS_9allocatorIS6_EEFNS2_3jsi5ValueERNS9_7RuntimeEEE7destroyEv', symObjAddr: 0x1E80, symBinAddr: 0xED58, symSize: 0x4 }
  - { offset: 0xB8F2B, size: 0x8, addend: 0x0, symName: '__ZNSt3__110__function6__funcIZNK8facebook5react25ModalHostViewEventEmitter6onShowENS4_6OnShowEE3$_0NS_9allocatorIS6_EEFNS2_3jsi5ValueERNS9_7RuntimeEEE18destroy_deallocateEv', symObjAddr: 0x1E84, symBinAddr: 0xED5C, symSize: 0x4 }
  - { offset: 0xB8F5F, size: 0x8, addend: 0x0, symName: '__ZNSt3__110__function6__funcIZNK8facebook5react25ModalHostViewEventEmitter6onShowENS4_6OnShowEE3$_0NS_9allocatorIS6_EEFNS2_3jsi5ValueERNS9_7RuntimeEEE18destroy_deallocateEv', symObjAddr: 0x1E84, symBinAddr: 0xED5C, symSize: 0x4 }
  - { offset: 0xB8F81, size: 0x8, addend: 0x0, symName: '__ZNSt3__110__function6__funcIZNK8facebook5react25ModalHostViewEventEmitter6onShowENS4_6OnShowEE3$_0NS_9allocatorIS6_EEFNS2_3jsi5ValueERNS9_7RuntimeEEE18destroy_deallocateEv', symObjAddr: 0x1E84, symBinAddr: 0xED5C, symSize: 0x4 }
  - { offset: 0xB8FB3, size: 0x8, addend: 0x0, symName: '__ZNSt3__110__function6__funcIZNK8facebook5react25ModalHostViewEventEmitter6onShowENS4_6OnShowEE3$_0NS_9allocatorIS6_EEFNS2_3jsi5ValueERNS9_7RuntimeEEE18destroy_deallocateEv', symObjAddr: 0x1E84, symBinAddr: 0xED5C, symSize: 0x4 }
  - { offset: 0xB906F, size: 0x8, addend: 0x0, symName: '__ZNSt3__110__function6__funcIZNK8facebook5react25ModalHostViewEventEmitter6onShowENS4_6OnShowEE3$_0NS_9allocatorIS6_EEFNS2_3jsi5ValueERNS9_7RuntimeEEEclESC_', symObjAddr: 0x1E88, symBinAddr: 0xED60, symSize: 0x38 }
  - { offset: 0xB91C1, size: 0x8, addend: 0x0, symName: '__ZNKSt3__110__function6__funcIZNK8facebook5react25ModalHostViewEventEmitter6onShowENS4_6OnShowEE3$_0NS_9allocatorIS6_EEFNS2_3jsi5ValueERNS9_7RuntimeEEE6targetERKSt9type_info', symObjAddr: 0x1EC0, symBinAddr: 0xED98, symSize: 0x3C }
  - { offset: 0xB920E, size: 0x8, addend: 0x0, symName: '__ZNKSt3__110__function6__funcIZNK8facebook5react25ModalHostViewEventEmitter6onShowENS4_6OnShowEE3$_0NS_9allocatorIS6_EEFNS2_3jsi5ValueERNS9_7RuntimeEEE11target_typeEv', symObjAddr: 0x1EFC, symBinAddr: 0xEDD4, symSize: 0xC }
  - { offset: 0xB9231, size: 0x8, addend: 0x0, symName: '__ZNSt3__110__function6__funcIZNK8facebook5react25ModalHostViewEventEmitter9onDismissENS4_9OnDismissEE3$_0NS_9allocatorIS6_EEFNS2_3jsi5ValueERNS9_7RuntimeEEED1Ev', symObjAddr: 0x1F08, symBinAddr: 0xEDE0, symSize: 0x4 }
  - { offset: 0xB925D, size: 0x8, addend: 0x0, symName: '__ZNSt3__110__function6__funcIZNK8facebook5react25ModalHostViewEventEmitter9onDismissENS4_9OnDismissEE3$_0NS_9allocatorIS6_EEFNS2_3jsi5ValueERNS9_7RuntimeEEED0Ev', symObjAddr: 0x1F0C, symBinAddr: 0xEDE4, symSize: 0x4 }
  - { offset: 0xB9318, size: 0x8, addend: 0x0, symName: '__ZNKSt3__110__function6__funcIZNK8facebook5react25ModalHostViewEventEmitter9onDismissENS4_9OnDismissEE3$_0NS_9allocatorIS6_EEFNS2_3jsi5ValueERNS9_7RuntimeEEE7__cloneEv', symObjAddr: 0x1F10, symBinAddr: 0xEDE8, symSize: 0x24 }
  - { offset: 0xB9466, size: 0x8, addend: 0x0, symName: '__ZNKSt3__110__function6__funcIZNK8facebook5react25ModalHostViewEventEmitter9onDismissENS4_9OnDismissEE3$_0NS_9allocatorIS6_EEFNS2_3jsi5ValueERNS9_7RuntimeEEE7__cloneEPNS0_6__baseISD_EE', symObjAddr: 0x1F34, symBinAddr: 0xEE0C, symSize: 0x10 }
  - { offset: 0xB949A, size: 0x8, addend: 0x0, symName: '__ZNKSt3__110__function6__funcIZNK8facebook5react25ModalHostViewEventEmitter9onDismissENS4_9OnDismissEE3$_0NS_9allocatorIS6_EEFNS2_3jsi5ValueERNS9_7RuntimeEEE7__cloneEPNS0_6__baseISD_EE', symObjAddr: 0x1F34, symBinAddr: 0xEE0C, symSize: 0x10 }
  - { offset: 0xB94B6, size: 0x8, addend: 0x0, symName: '__ZNKSt3__110__function6__funcIZNK8facebook5react25ModalHostViewEventEmitter9onDismissENS4_9OnDismissEE3$_0NS_9allocatorIS6_EEFNS2_3jsi5ValueERNS9_7RuntimeEEE7__cloneEPNS0_6__baseISD_EE', symObjAddr: 0x1F34, symBinAddr: 0xEE0C, symSize: 0x10 }
  - { offset: 0xB94D2, size: 0x8, addend: 0x0, symName: '__ZNSt3__110__function6__funcIZNK8facebook5react25ModalHostViewEventEmitter9onDismissENS4_9OnDismissEE3$_0NS_9allocatorIS6_EEFNS2_3jsi5ValueERNS9_7RuntimeEEE7destroyEv', symObjAddr: 0x1F44, symBinAddr: 0xEE1C, symSize: 0x4 }
  - { offset: 0xB9527, size: 0x8, addend: 0x0, symName: '__ZNSt3__110__function6__funcIZNK8facebook5react25ModalHostViewEventEmitter9onDismissENS4_9OnDismissEE3$_0NS_9allocatorIS6_EEFNS2_3jsi5ValueERNS9_7RuntimeEEE18destroy_deallocateEv', symObjAddr: 0x1F48, symBinAddr: 0xEE20, symSize: 0x4 }
  - { offset: 0xB955B, size: 0x8, addend: 0x0, symName: '__ZNSt3__110__function6__funcIZNK8facebook5react25ModalHostViewEventEmitter9onDismissENS4_9OnDismissEE3$_0NS_9allocatorIS6_EEFNS2_3jsi5ValueERNS9_7RuntimeEEE18destroy_deallocateEv', symObjAddr: 0x1F48, symBinAddr: 0xEE20, symSize: 0x4 }
  - { offset: 0xB957D, size: 0x8, addend: 0x0, symName: '__ZNSt3__110__function6__funcIZNK8facebook5react25ModalHostViewEventEmitter9onDismissENS4_9OnDismissEE3$_0NS_9allocatorIS6_EEFNS2_3jsi5ValueERNS9_7RuntimeEEE18destroy_deallocateEv', symObjAddr: 0x1F48, symBinAddr: 0xEE20, symSize: 0x4 }
  - { offset: 0xB95AF, size: 0x8, addend: 0x0, symName: '__ZNSt3__110__function6__funcIZNK8facebook5react25ModalHostViewEventEmitter9onDismissENS4_9OnDismissEE3$_0NS_9allocatorIS6_EEFNS2_3jsi5ValueERNS9_7RuntimeEEE18destroy_deallocateEv', symObjAddr: 0x1F48, symBinAddr: 0xEE20, symSize: 0x4 }
  - { offset: 0xB966B, size: 0x8, addend: 0x0, symName: '__ZNSt3__110__function6__funcIZNK8facebook5react25ModalHostViewEventEmitter9onDismissENS4_9OnDismissEE3$_0NS_9allocatorIS6_EEFNS2_3jsi5ValueERNS9_7RuntimeEEEclESC_', symObjAddr: 0x1F4C, symBinAddr: 0xEE24, symSize: 0x38 }
  - { offset: 0xB97BD, size: 0x8, addend: 0x0, symName: '__ZNKSt3__110__function6__funcIZNK8facebook5react25ModalHostViewEventEmitter9onDismissENS4_9OnDismissEE3$_0NS_9allocatorIS6_EEFNS2_3jsi5ValueERNS9_7RuntimeEEE6targetERKSt9type_info', symObjAddr: 0x1F84, symBinAddr: 0xEE5C, symSize: 0x3C }
  - { offset: 0xB980A, size: 0x8, addend: 0x0, symName: '__ZNKSt3__110__function6__funcIZNK8facebook5react25ModalHostViewEventEmitter9onDismissENS4_9OnDismissEE3$_0NS_9allocatorIS6_EEFNS2_3jsi5ValueERNS9_7RuntimeEEE11target_typeEv', symObjAddr: 0x1FC0, symBinAddr: 0xEE98, symSize: 0xC }
  - { offset: 0xB982D, size: 0x8, addend: 0x0, symName: '__ZNSt3__110__function6__funcIZNK8facebook5react25ModalHostViewEventEmitter19onOrientationChangeENS4_19OnOrientationChangeEE3$_0NS_9allocatorIS6_EEFNS2_3jsi5ValueERNS9_7RuntimeEEED1Ev', symObjAddr: 0x1FCC, symBinAddr: 0xEEA4, symSize: 0x4 }
  - { offset: 0xB9859, size: 0x8, addend: 0x0, symName: '__ZNSt3__110__function6__funcIZNK8facebook5react25ModalHostViewEventEmitter19onOrientationChangeENS4_19OnOrientationChangeEE3$_0NS_9allocatorIS6_EEFNS2_3jsi5ValueERNS9_7RuntimeEEED0Ev', symObjAddr: 0x1FD0, symBinAddr: 0xEEA8, symSize: 0x4 }
  - { offset: 0xB9974, size: 0x8, addend: 0x0, symName: '__ZNKSt3__110__function6__funcIZNK8facebook5react25ModalHostViewEventEmitter19onOrientationChangeENS4_19OnOrientationChangeEE3$_0NS_9allocatorIS6_EEFNS2_3jsi5ValueERNS9_7RuntimeEEE7__cloneEv', symObjAddr: 0x1FD4, symBinAddr: 0xEEAC, symSize: 0x38 }
  - { offset: 0xB9B87, size: 0x8, addend: 0x0, symName: '__ZNKSt3__110__function6__funcIZNK8facebook5react25ModalHostViewEventEmitter19onOrientationChangeENS4_19OnOrientationChangeEE3$_0NS_9allocatorIS6_EEFNS2_3jsi5ValueERNS9_7RuntimeEEE7__cloneEPNS0_6__baseISD_EE', symObjAddr: 0x200C, symBinAddr: 0xEEE4, symSize: 0x18 }
  - { offset: 0xB9BBD, size: 0x8, addend: 0x0, symName: '__ZNKSt3__110__function6__funcIZNK8facebook5react25ModalHostViewEventEmitter19onOrientationChangeENS4_19OnOrientationChangeEE3$_0NS_9allocatorIS6_EEFNS2_3jsi5ValueERNS9_7RuntimeEEE7__cloneEPNS0_6__baseISD_EE', symObjAddr: 0x200C, symBinAddr: 0xEEE4, symSize: 0x18 }
  - { offset: 0xB9BEB, size: 0x8, addend: 0x0, symName: '__ZNKSt3__110__function6__funcIZNK8facebook5react25ModalHostViewEventEmitter19onOrientationChangeENS4_19OnOrientationChangeEE3$_0NS_9allocatorIS6_EEFNS2_3jsi5ValueERNS9_7RuntimeEEE7__cloneEPNS0_6__baseISD_EE', symObjAddr: 0x200C, symBinAddr: 0xEEE4, symSize: 0x18 }
  - { offset: 0xB9C7A, size: 0x8, addend: 0x0, symName: '__ZNSt3__110__function6__funcIZNK8facebook5react25ModalHostViewEventEmitter19onOrientationChangeENS4_19OnOrientationChangeEE3$_0NS_9allocatorIS6_EEFNS2_3jsi5ValueERNS9_7RuntimeEEE7destroyEv', symObjAddr: 0x2024, symBinAddr: 0xEEFC, symSize: 0x4 }
  - { offset: 0xB9CCF, size: 0x8, addend: 0x0, symName: '__ZNSt3__110__function6__funcIZNK8facebook5react25ModalHostViewEventEmitter19onOrientationChangeENS4_19OnOrientationChangeEE3$_0NS_9allocatorIS6_EEFNS2_3jsi5ValueERNS9_7RuntimeEEE18destroy_deallocateEv', symObjAddr: 0x2028, symBinAddr: 0xEF00, symSize: 0x4 }
  - { offset: 0xB9D03, size: 0x8, addend: 0x0, symName: '__ZNSt3__110__function6__funcIZNK8facebook5react25ModalHostViewEventEmitter19onOrientationChangeENS4_19OnOrientationChangeEE3$_0NS_9allocatorIS6_EEFNS2_3jsi5ValueERNS9_7RuntimeEEE18destroy_deallocateEv', symObjAddr: 0x2028, symBinAddr: 0xEF00, symSize: 0x4 }
  - { offset: 0xB9D25, size: 0x8, addend: 0x0, symName: '__ZNSt3__110__function6__funcIZNK8facebook5react25ModalHostViewEventEmitter19onOrientationChangeENS4_19OnOrientationChangeEE3$_0NS_9allocatorIS6_EEFNS2_3jsi5ValueERNS9_7RuntimeEEE18destroy_deallocateEv', symObjAddr: 0x2028, symBinAddr: 0xEF00, symSize: 0x4 }
  - { offset: 0xB9D57, size: 0x8, addend: 0x0, symName: '__ZNSt3__110__function6__funcIZNK8facebook5react25ModalHostViewEventEmitter19onOrientationChangeENS4_19OnOrientationChangeEE3$_0NS_9allocatorIS6_EEFNS2_3jsi5ValueERNS9_7RuntimeEEE18destroy_deallocateEv', symObjAddr: 0x2028, symBinAddr: 0xEF00, symSize: 0x4 }
  - { offset: 0xB9E26, size: 0x8, addend: 0x0, symName: '__ZNSt3__110__function6__funcIZNK8facebook5react25ModalHostViewEventEmitter19onOrientationChangeENS4_19OnOrientationChangeEE3$_0NS_9allocatorIS6_EEFNS2_3jsi5ValueERNS9_7RuntimeEEEclESC_', symObjAddr: 0x202C, symBinAddr: 0xEF04, symSize: 0xB0 }
  - { offset: 0xBA0CB, size: 0x8, addend: 0x0, symName: __ZNK8facebook3jsi6Object11setPropertyIPKcEEvRNS0_7RuntimeES4_OT_, symObjAddr: 0x2124, symBinAddr: 0xEFFC, symSize: 0xA4 }
  - { offset: 0xBA29F, size: 0x8, addend: 0x0, symName: '__ZNKSt3__110__function6__funcIZNK8facebook5react25ModalHostViewEventEmitter19onOrientationChangeENS4_19OnOrientationChangeEE3$_0NS_9allocatorIS6_EEFNS2_3jsi5ValueERNS9_7RuntimeEEE6targetERKSt9type_info', symObjAddr: 0x20DC, symBinAddr: 0xEFB4, symSize: 0x3C }
  - { offset: 0xBA2EC, size: 0x8, addend: 0x0, symName: '__ZNKSt3__110__function6__funcIZNK8facebook5react25ModalHostViewEventEmitter19onOrientationChangeENS4_19OnOrientationChangeEE3$_0NS_9allocatorIS6_EEFNS2_3jsi5ValueERNS9_7RuntimeEEE11target_typeEv', symObjAddr: 0x2118, symBinAddr: 0xEFF0, symSize: 0xC }
  - { offset: 0xBA30F, size: 0x8, addend: 0x0, symName: __ZNK8facebook3jsi6Object11setPropertyIPKcEEvRNS0_7RuntimeERKNS0_6StringEOT_, symObjAddr: 0x21C8, symBinAddr: 0xF0A0, symSize: 0xA0 }
  - { offset: 0xBA4EF, size: 0x8, addend: 0x0, symName: '__ZNSt3__110__function6__funcIZNK8facebook5react18SwitchEventEmitter8onChangeENS4_8OnChangeEE3$_0NS_9allocatorIS6_EEFNS2_3jsi5ValueERNS9_7RuntimeEEED1Ev', symObjAddr: 0x2268, symBinAddr: 0xF140, symSize: 0x4 }
  - { offset: 0xBA51B, size: 0x8, addend: 0x0, symName: '__ZNSt3__110__function6__funcIZNK8facebook5react18SwitchEventEmitter8onChangeENS4_8OnChangeEE3$_0NS_9allocatorIS6_EEFNS2_3jsi5ValueERNS9_7RuntimeEEED0Ev', symObjAddr: 0x226C, symBinAddr: 0xF144, symSize: 0x4 }
  - { offset: 0xBA636, size: 0x8, addend: 0x0, symName: '__ZNKSt3__110__function6__funcIZNK8facebook5react18SwitchEventEmitter8onChangeENS4_8OnChangeEE3$_0NS_9allocatorIS6_EEFNS2_3jsi5ValueERNS9_7RuntimeEEE7__cloneEv', symObjAddr: 0x2270, symBinAddr: 0xF148, symSize: 0x34 }
  - { offset: 0xBA837, size: 0x8, addend: 0x0, symName: '__ZNKSt3__110__function6__funcIZNK8facebook5react18SwitchEventEmitter8onChangeENS4_8OnChangeEE3$_0NS_9allocatorIS6_EEFNS2_3jsi5ValueERNS9_7RuntimeEEE7__cloneEPNS0_6__baseISD_EE', symObjAddr: 0x22A4, symBinAddr: 0xF17C, symSize: 0x18 }
  - { offset: 0xBA86D, size: 0x8, addend: 0x0, symName: '__ZNKSt3__110__function6__funcIZNK8facebook5react18SwitchEventEmitter8onChangeENS4_8OnChangeEE3$_0NS_9allocatorIS6_EEFNS2_3jsi5ValueERNS9_7RuntimeEEE7__cloneEPNS0_6__baseISD_EE', symObjAddr: 0x22A4, symBinAddr: 0xF17C, symSize: 0x18 }
  - { offset: 0xBA89B, size: 0x8, addend: 0x0, symName: '__ZNKSt3__110__function6__funcIZNK8facebook5react18SwitchEventEmitter8onChangeENS4_8OnChangeEE3$_0NS_9allocatorIS6_EEFNS2_3jsi5ValueERNS9_7RuntimeEEE7__cloneEPNS0_6__baseISD_EE', symObjAddr: 0x22A4, symBinAddr: 0xF17C, symSize: 0x18 }
  - { offset: 0xBA92A, size: 0x8, addend: 0x0, symName: '__ZNSt3__110__function6__funcIZNK8facebook5react18SwitchEventEmitter8onChangeENS4_8OnChangeEE3$_0NS_9allocatorIS6_EEFNS2_3jsi5ValueERNS9_7RuntimeEEE7destroyEv', symObjAddr: 0x22BC, symBinAddr: 0xF194, symSize: 0x4 }
  - { offset: 0xBA97F, size: 0x8, addend: 0x0, symName: '__ZNSt3__110__function6__funcIZNK8facebook5react18SwitchEventEmitter8onChangeENS4_8OnChangeEE3$_0NS_9allocatorIS6_EEFNS2_3jsi5ValueERNS9_7RuntimeEEE18destroy_deallocateEv', symObjAddr: 0x22C0, symBinAddr: 0xF198, symSize: 0x4 }
  - { offset: 0xBA9B3, size: 0x8, addend: 0x0, symName: '__ZNSt3__110__function6__funcIZNK8facebook5react18SwitchEventEmitter8onChangeENS4_8OnChangeEE3$_0NS_9allocatorIS6_EEFNS2_3jsi5ValueERNS9_7RuntimeEEE18destroy_deallocateEv', symObjAddr: 0x22C0, symBinAddr: 0xF198, symSize: 0x4 }
  - { offset: 0xBA9D5, size: 0x8, addend: 0x0, symName: '__ZNSt3__110__function6__funcIZNK8facebook5react18SwitchEventEmitter8onChangeENS4_8OnChangeEE3$_0NS_9allocatorIS6_EEFNS2_3jsi5ValueERNS9_7RuntimeEEE18destroy_deallocateEv', symObjAddr: 0x22C0, symBinAddr: 0xF198, symSize: 0x4 }
  - { offset: 0xBAA07, size: 0x8, addend: 0x0, symName: '__ZNSt3__110__function6__funcIZNK8facebook5react18SwitchEventEmitter8onChangeENS4_8OnChangeEE3$_0NS_9allocatorIS6_EEFNS2_3jsi5ValueERNS9_7RuntimeEEE18destroy_deallocateEv', symObjAddr: 0x22C0, symBinAddr: 0xF198, symSize: 0x4 }
  - { offset: 0xBAAC3, size: 0x8, addend: 0x0, symName: '__ZNSt3__110__function6__funcIZNK8facebook5react18SwitchEventEmitter8onChangeENS4_8OnChangeEE3$_0NS_9allocatorIS6_EEFNS2_3jsi5ValueERNS9_7RuntimeEEEclESC_', symObjAddr: 0x22C4, symBinAddr: 0xF19C, symSize: 0xA8 }
  - { offset: 0xBAD48, size: 0x8, addend: 0x0, symName: '__ZNKSt3__110__function6__funcIZNK8facebook5react18SwitchEventEmitter8onChangeENS4_8OnChangeEE3$_0NS_9allocatorIS6_EEFNS2_3jsi5ValueERNS9_7RuntimeEEE6targetERKSt9type_info', symObjAddr: 0x236C, symBinAddr: 0xF244, symSize: 0x3C }
  - { offset: 0xBAD95, size: 0x8, addend: 0x0, symName: '__ZNKSt3__110__function6__funcIZNK8facebook5react18SwitchEventEmitter8onChangeENS4_8OnChangeEE3$_0NS_9allocatorIS6_EEFNS2_3jsi5ValueERNS9_7RuntimeEEE11target_typeEv', symObjAddr: 0x23A8, symBinAddr: 0xF280, symSize: 0xC }
  - { offset: 0xBD1AD, size: 0x8, addend: 0x0, symName: __ZNSt3__119piecewise_constructE, symObjAddr: 0x208D9, symBinAddr: 0x53EA7, symSize: 0x0 }
  - { offset: 0xD2444, size: 0x8, addend: 0x0, symName: __ZNSt3__119__allocate_at_leastB8ne200100INS_9allocatorIN8facebook3jsi10PropNameIDEEEEENS_19__allocation_resultINS_16allocator_traitsIT_E7pointerEEERS8_m, symObjAddr: 0x147EC, symBinAddr: 0x2326C, symSize: 0x34 }
  - { offset: 0xD24EE, size: 0x8, addend: 0x0, symName: __ZNSt3__114__split_bufferIN8facebook3jsi10PropNameIDERNS_9allocatorIS3_EEED2Ev, symObjAddr: 0x14820, symBinAddr: 0x232A0, symSize: 0x58 }
  - { offset: 0xD3841, size: 0x8, addend: 0x0, symName: __ZSt28__throw_bad_array_new_lengthB8ne200100v, symObjAddr: 0x11E70, symBinAddr: 0x20FD0, symSize: 0x28 }
  - { offset: 0xD594B, size: 0x8, addend: 0x0, symName: __ZN8facebook5reactL67__hostFunction_NativeAccessibilityInfoSpecJSI_isReduceMotionEnabledERNS_3jsi7RuntimeERNS0_11TurboModuleEPKNS1_5ValueEm, symObjAddr: 0x430, symBinAddr: 0xF6BC, symSize: 0xA8 }
  - { offset: 0xD5BEC, size: 0x8, addend: 0x0, symName: __ZN8facebook5reactL67__hostFunction_NativeAccessibilityInfoSpecJSI_isInvertColorsEnabledERNS_3jsi7RuntimeERNS0_11TurboModuleEPKNS1_5ValueEm, symObjAddr: 0x4D8, symBinAddr: 0xF764, symSize: 0xA8 }
  - { offset: 0xD5E8D, size: 0x8, addend: 0x0, symName: __ZN8facebook5reactL71__hostFunction_NativeAccessibilityInfoSpecJSI_isHighTextContrastEnabledERNS_3jsi7RuntimeERNS0_11TurboModuleEPKNS1_5ValueEm, symObjAddr: 0x580, symBinAddr: 0xF80C, symSize: 0xA8 }
  - { offset: 0xD612E, size: 0x8, addend: 0x0, symName: __ZN8facebook5reactL71__hostFunction_NativeAccessibilityInfoSpecJSI_isTouchExplorationEnabledERNS_3jsi7RuntimeERNS0_11TurboModuleEPKNS1_5ValueEm, symObjAddr: 0x628, symBinAddr: 0xF8B4, symSize: 0xA8 }
  - { offset: 0xD63CF, size: 0x8, addend: 0x0, symName: __ZN8facebook5reactL75__hostFunction_NativeAccessibilityInfoSpecJSI_isAccessibilityServiceEnabledERNS_3jsi7RuntimeERNS0_11TurboModuleEPKNS1_5ValueEm, symObjAddr: 0x6D0, symBinAddr: 0xF95C, symSize: 0xA8 }
  - { offset: 0xD6670, size: 0x8, addend: 0x0, symName: __ZN8facebook5reactL67__hostFunction_NativeAccessibilityInfoSpecJSI_setAccessibilityFocusERNS_3jsi7RuntimeERNS0_11TurboModuleEPKNS1_5ValueEm, symObjAddr: 0x778, symBinAddr: 0xFA04, symSize: 0xA8 }
  - { offset: 0xD6911, size: 0x8, addend: 0x0, symName: __ZN8facebook5reactL70__hostFunction_NativeAccessibilityInfoSpecJSI_announceForAccessibilityERNS_3jsi7RuntimeERNS0_11TurboModuleEPKNS1_5ValueEm, symObjAddr: 0x820, symBinAddr: 0xFAAC, symSize: 0xA8 }
  - { offset: 0xD6BB2, size: 0x8, addend: 0x0, symName: __ZN8facebook5reactL73__hostFunction_NativeAccessibilityInfoSpecJSI_getRecommendedTimeoutMillisERNS_3jsi7RuntimeERNS0_11TurboModuleEPKNS1_5ValueEm, symObjAddr: 0x8C8, symBinAddr: 0xFB54, symSize: 0xA8 }
  - { offset: 0xD6E53, size: 0x8, addend: 0x0, symName: __ZN8facebook5reactL64__hostFunction_NativeAccessibilityInfoSpecJSI_isGrayscaleEnabledERNS_3jsi7RuntimeERNS0_11TurboModuleEPKNS1_5ValueEm, symObjAddr: 0x970, symBinAddr: 0xFBFC, symSize: 0xA8 }
  - { offset: 0xD70F3, size: 0x8, addend: 0x0, symName: __ZN8facebook5react14managedPointerIN2JS26NativeAccessibilityManager55SpecSetAccessibilityContentSizeMultipliersJSMultipliersEU8__strongP11objc_objectEEP17RCTManagedPointerT0_, symObjAddr: 0xB54, symBinAddr: 0xFDE0, symSize: 0x120 }
  - { offset: 0xD73A9, size: 0x8, addend: 0x0, symName: __ZN8facebook5react14managedPointerIN2JS26NativeAccessibilityManager46SpecAnnounceForAccessibilityWithOptionsOptionsEU8__strongP11objc_objectEEP17RCTManagedPointerT0_, symObjAddr: 0xC90, symBinAddr: 0xFF1C, symSize: 0x120 }
  - { offset: 0xD769C, size: 0x8, addend: 0x0, symName: __ZN8facebook5reactL72__hostFunction_NativeAccessibilityManagerSpecJSI_getCurrentBoldTextStateERNS_3jsi7RuntimeERNS0_11TurboModuleEPKNS1_5ValueEm, symObjAddr: 0x12A8, symBinAddr: 0x10534, symSize: 0xA8 }
  - { offset: 0xD793D, size: 0x8, addend: 0x0, symName: __ZN8facebook5reactL73__hostFunction_NativeAccessibilityManagerSpecJSI_getCurrentGrayscaleStateERNS_3jsi7RuntimeERNS0_11TurboModuleEPKNS1_5ValueEm, symObjAddr: 0x1350, symBinAddr: 0x105DC, symSize: 0xA8 }
  - { offset: 0xD7BDE, size: 0x8, addend: 0x0, symName: __ZN8facebook5reactL76__hostFunction_NativeAccessibilityManagerSpecJSI_getCurrentInvertColorsStateERNS_3jsi7RuntimeERNS0_11TurboModuleEPKNS1_5ValueEm, symObjAddr: 0x13F8, symBinAddr: 0x10684, symSize: 0xA8 }
  - { offset: 0xD7E7F, size: 0x8, addend: 0x0, symName: __ZN8facebook5reactL76__hostFunction_NativeAccessibilityManagerSpecJSI_getCurrentReduceMotionStateERNS_3jsi7RuntimeERNS0_11TurboModuleEPKNS1_5ValueEm, symObjAddr: 0x14A0, symBinAddr: 0x1072C, symSize: 0xA8 }
  - { offset: 0xD8120, size: 0x8, addend: 0x0, symName: __ZN8facebook5reactL82__hostFunction_NativeAccessibilityManagerSpecJSI_getCurrentDarkerSystemColorsStateERNS_3jsi7RuntimeERNS0_11TurboModuleEPKNS1_5ValueEm, symObjAddr: 0x1548, symBinAddr: 0x107D4, symSize: 0xA8 }
  - { offset: 0xD83C1, size: 0x8, addend: 0x0, symName: __ZN8facebook5reactL91__hostFunction_NativeAccessibilityManagerSpecJSI_getCurrentPrefersCrossFadeTransitionsStateERNS_3jsi7RuntimeERNS0_11TurboModuleEPKNS1_5ValueEm, symObjAddr: 0x15F0, symBinAddr: 0x1087C, symSize: 0xA8 }
  - { offset: 0xD8662, size: 0x8, addend: 0x0, symName: __ZN8facebook5reactL82__hostFunction_NativeAccessibilityManagerSpecJSI_getCurrentReduceTransparencyStateERNS_3jsi7RuntimeERNS0_11TurboModuleEPKNS1_5ValueEm, symObjAddr: 0x1698, symBinAddr: 0x10924, symSize: 0xA8 }
  - { offset: 0xD8903, size: 0x8, addend: 0x0, symName: __ZN8facebook5reactL73__hostFunction_NativeAccessibilityManagerSpecJSI_getCurrentVoiceOverStateERNS_3jsi7RuntimeERNS0_11TurboModuleEPKNS1_5ValueEm, symObjAddr: 0x1740, symBinAddr: 0x109CC, symSize: 0xA8 }
  - { offset: 0xD8BA4, size: 0x8, addend: 0x0, symName: __ZN8facebook5reactL87__hostFunction_NativeAccessibilityManagerSpecJSI_setAccessibilityContentSizeMultipliersERNS_3jsi7RuntimeERNS0_11TurboModuleEPKNS1_5ValueEm, symObjAddr: 0x17E8, symBinAddr: 0x10A74, symSize: 0xA8 }
  - { offset: 0xD8E45, size: 0x8, addend: 0x0, symName: __ZN8facebook5reactL70__hostFunction_NativeAccessibilityManagerSpecJSI_setAccessibilityFocusERNS_3jsi7RuntimeERNS0_11TurboModuleEPKNS1_5ValueEm, symObjAddr: 0x1890, symBinAddr: 0x10B1C, symSize: 0xA8 }
  - { offset: 0xD90E6, size: 0x8, addend: 0x0, symName: __ZN8facebook5reactL73__hostFunction_NativeAccessibilityManagerSpecJSI_announceForAccessibilityERNS_3jsi7RuntimeERNS0_11TurboModuleEPKNS1_5ValueEm, symObjAddr: 0x1938, symBinAddr: 0x10BC4, symSize: 0xA8 }
  - { offset: 0xD9387, size: 0x8, addend: 0x0, symName: __ZN8facebook5reactL84__hostFunction_NativeAccessibilityManagerSpecJSI_announceForAccessibilityWithOptionsERNS_3jsi7RuntimeERNS0_11TurboModuleEPKNS1_5ValueEm, symObjAddr: 0x19E0, symBinAddr: 0x10C6C, symSize: 0xA8 }
  - { offset: 0xD9627, size: 0x8, addend: 0x0, symName: __ZN8facebook5react14managedPointerIN2JS24NativeActionSheetManager37SpecShowActionSheetWithOptionsOptionsEU8__strongP11objc_objectEEP17RCTManagedPointerT0_, symObjAddr: 0x1B30, symBinAddr: 0x10DBC, symSize: 0x120 }
  - { offset: 0xD98DD, size: 0x8, addend: 0x0, symName: __ZN8facebook5react14managedPointerIN2JS24NativeActionSheetManager42SpecShowShareActionSheetWithOptionsOptionsEU8__strongP11objc_objectEEP17RCTManagedPointerT0_, symObjAddr: 0x1C6C, symBinAddr: 0x10EF8, symSize: 0x120 }
  - { offset: 0xD9BD0, size: 0x8, addend: 0x0, symName: __ZN8facebook5reactL73__hostFunction_NativeActionSheetManagerSpecJSI_showActionSheetWithOptionsERNS_3jsi7RuntimeERNS0_11TurboModuleEPKNS1_5ValueEm, symObjAddr: 0x1F44, symBinAddr: 0x111D0, symSize: 0xA8 }
  - { offset: 0xD9E71, size: 0x8, addend: 0x0, symName: __ZN8facebook5reactL78__hostFunction_NativeActionSheetManagerSpecJSI_showShareActionSheetWithOptionsERNS_3jsi7RuntimeERNS0_11TurboModuleEPKNS1_5ValueEm, symObjAddr: 0x1FEC, symBinAddr: 0x11278, symSize: 0xA8 }
  - { offset: 0xDA112, size: 0x8, addend: 0x0, symName: __ZN8facebook5reactL65__hostFunction_NativeActionSheetManagerSpecJSI_dismissActionSheetERNS_3jsi7RuntimeERNS0_11TurboModuleEPKNS1_5ValueEm, symObjAddr: 0x2094, symBinAddr: 0x11320, symSize: 0xA8 }
  - { offset: 0xDA3B2, size: 0x8, addend: 0x0, symName: __ZN8facebook5react14managedPointerIN2JS18NativeAlertManager4ArgsEU8__strongP11objc_objectEEP17RCTManagedPointerT0_, symObjAddr: 0x21E4, symBinAddr: 0x11470, symSize: 0x120 }
  - { offset: 0xDA6A7, size: 0x8, addend: 0x0, symName: __ZN8facebook5reactL54__hostFunction_NativeAlertManagerSpecJSI_alertWithArgsERNS_3jsi7RuntimeERNS0_11TurboModuleEPKNS1_5ValueEm, symObjAddr: 0x23E0, symBinAddr: 0x1166C, symSize: 0xA8 }
  - { offset: 0xDA953, size: 0x8, addend: 0x0, symName: __ZN8facebook5react14managedPointerIN2JS20NativeAnimatedModule12EventMappingEU8__strongP11objc_objectEEP17RCTManagedPointerT0_, symObjAddr: 0x2530, symBinAddr: 0x117BC, symSize: 0x120 }
  - { offset: 0xDAC54, size: 0x8, addend: 0x0, symName: __ZN8facebook5reactL62__hostFunction_NativeAnimatedModuleSpecJSI_startOperationBatchERNS_3jsi7RuntimeERNS0_11TurboModuleEPKNS1_5ValueEm, symObjAddr: 0x2F74, symBinAddr: 0x12200, symSize: 0xA8 }
  - { offset: 0xDAF01, size: 0x8, addend: 0x0, symName: __ZN8facebook5reactL63__hostFunction_NativeAnimatedModuleSpecJSI_finishOperationBatchERNS_3jsi7RuntimeERNS0_11TurboModuleEPKNS1_5ValueEm, symObjAddr: 0x301C, symBinAddr: 0x122A8, symSize: 0xA8 }
  - { offset: 0xDB1AE, size: 0x8, addend: 0x0, symName: __ZN8facebook5reactL61__hostFunction_NativeAnimatedModuleSpecJSI_createAnimatedNodeERNS_3jsi7RuntimeERNS0_11TurboModuleEPKNS1_5ValueEm, symObjAddr: 0x30C4, symBinAddr: 0x12350, symSize: 0xA8 }
  - { offset: 0xDB45B, size: 0x8, addend: 0x0, symName: __ZN8facebook5reactL67__hostFunction_NativeAnimatedModuleSpecJSI_updateAnimatedNodeConfigERNS_3jsi7RuntimeERNS0_11TurboModuleEPKNS1_5ValueEm, symObjAddr: 0x316C, symBinAddr: 0x123F8, symSize: 0xA8 }
  - { offset: 0xDB708, size: 0x8, addend: 0x0, symName: __ZN8facebook5reactL51__hostFunction_NativeAnimatedModuleSpecJSI_getValueERNS_3jsi7RuntimeERNS0_11TurboModuleEPKNS1_5ValueEm, symObjAddr: 0x3214, symBinAddr: 0x124A0, symSize: 0xA8 }
  - { offset: 0xDB9B5, size: 0x8, addend: 0x0, symName: __ZN8facebook5reactL76__hostFunction_NativeAnimatedModuleSpecJSI_startListeningToAnimatedNodeValueERNS_3jsi7RuntimeERNS0_11TurboModuleEPKNS1_5ValueEm, symObjAddr: 0x32BC, symBinAddr: 0x12548, symSize: 0xA8 }
  - { offset: 0xDBC62, size: 0x8, addend: 0x0, symName: __ZN8facebook5reactL75__hostFunction_NativeAnimatedModuleSpecJSI_stopListeningToAnimatedNodeValueERNS_3jsi7RuntimeERNS0_11TurboModuleEPKNS1_5ValueEm, symObjAddr: 0x3364, symBinAddr: 0x125F0, symSize: 0xA8 }
  - { offset: 0xDBF0F, size: 0x8, addend: 0x0, symName: __ZN8facebook5reactL63__hostFunction_NativeAnimatedModuleSpecJSI_connectAnimatedNodesERNS_3jsi7RuntimeERNS0_11TurboModuleEPKNS1_5ValueEm, symObjAddr: 0x340C, symBinAddr: 0x12698, symSize: 0xA8 }
  - { offset: 0xDC1BC, size: 0x8, addend: 0x0, symName: __ZN8facebook5reactL66__hostFunction_NativeAnimatedModuleSpecJSI_disconnectAnimatedNodesERNS_3jsi7RuntimeERNS0_11TurboModuleEPKNS1_5ValueEm, symObjAddr: 0x34B4, symBinAddr: 0x12740, symSize: 0xA8 }
  - { offset: 0xDC469, size: 0x8, addend: 0x0, symName: __ZN8facebook5reactL61__hostFunction_NativeAnimatedModuleSpecJSI_startAnimatingNodeERNS_3jsi7RuntimeERNS0_11TurboModuleEPKNS1_5ValueEm, symObjAddr: 0x355C, symBinAddr: 0x127E8, symSize: 0xA8 }
  - { offset: 0xDC716, size: 0x8, addend: 0x0, symName: __ZN8facebook5reactL56__hostFunction_NativeAnimatedModuleSpecJSI_stopAnimationERNS_3jsi7RuntimeERNS0_11TurboModuleEPKNS1_5ValueEm, symObjAddr: 0x3604, symBinAddr: 0x12890, symSize: 0xA8 }
  - { offset: 0xDC9C3, size: 0x8, addend: 0x0, symName: __ZN8facebook5reactL63__hostFunction_NativeAnimatedModuleSpecJSI_setAnimatedNodeValueERNS_3jsi7RuntimeERNS0_11TurboModuleEPKNS1_5ValueEm, symObjAddr: 0x36AC, symBinAddr: 0x12938, symSize: 0xA8 }
  - { offset: 0xDCC70, size: 0x8, addend: 0x0, symName: __ZN8facebook5reactL64__hostFunction_NativeAnimatedModuleSpecJSI_setAnimatedNodeOffsetERNS_3jsi7RuntimeERNS0_11TurboModuleEPKNS1_5ValueEm, symObjAddr: 0x3754, symBinAddr: 0x129E0, symSize: 0xA8 }
  - { offset: 0xDCF1D, size: 0x8, addend: 0x0, symName: __ZN8facebook5reactL68__hostFunction_NativeAnimatedModuleSpecJSI_flattenAnimatedNodeOffsetERNS_3jsi7RuntimeERNS0_11TurboModuleEPKNS1_5ValueEm, symObjAddr: 0x37FC, symBinAddr: 0x12A88, symSize: 0xA8 }
  - { offset: 0xDD1CA, size: 0x8, addend: 0x0, symName: __ZN8facebook5reactL68__hostFunction_NativeAnimatedModuleSpecJSI_extractAnimatedNodeOffsetERNS_3jsi7RuntimeERNS0_11TurboModuleEPKNS1_5ValueEm, symObjAddr: 0x38A4, symBinAddr: 0x12B30, symSize: 0xA8 }
  - { offset: 0xDD477, size: 0x8, addend: 0x0, symName: __ZN8facebook5reactL68__hostFunction_NativeAnimatedModuleSpecJSI_connectAnimatedNodeToViewERNS_3jsi7RuntimeERNS0_11TurboModuleEPKNS1_5ValueEm, symObjAddr: 0x394C, symBinAddr: 0x12BD8, symSize: 0xA8 }
  - { offset: 0xDD724, size: 0x8, addend: 0x0, symName: __ZN8facebook5reactL73__hostFunction_NativeAnimatedModuleSpecJSI_disconnectAnimatedNodeFromViewERNS_3jsi7RuntimeERNS0_11TurboModuleEPKNS1_5ValueEm, symObjAddr: 0x39F4, symBinAddr: 0x12C80, symSize: 0xA8 }
  - { offset: 0xDD9D1, size: 0x8, addend: 0x0, symName: __ZN8facebook5reactL63__hostFunction_NativeAnimatedModuleSpecJSI_restoreDefaultValuesERNS_3jsi7RuntimeERNS0_11TurboModuleEPKNS1_5ValueEm, symObjAddr: 0x3A9C, symBinAddr: 0x12D28, symSize: 0xA8 }
  - { offset: 0xDDC7E, size: 0x8, addend: 0x0, symName: __ZN8facebook5reactL59__hostFunction_NativeAnimatedModuleSpecJSI_dropAnimatedNodeERNS_3jsi7RuntimeERNS0_11TurboModuleEPKNS1_5ValueEm, symObjAddr: 0x3B44, symBinAddr: 0x12DD0, symSize: 0xA8 }
  - { offset: 0xDDF2B, size: 0x8, addend: 0x0, symName: __ZN8facebook5reactL65__hostFunction_NativeAnimatedModuleSpecJSI_addAnimatedEventToViewERNS_3jsi7RuntimeERNS0_11TurboModuleEPKNS1_5ValueEm, symObjAddr: 0x3BEC, symBinAddr: 0x12E78, symSize: 0xA8 }
  - { offset: 0xDE1D8, size: 0x8, addend: 0x0, symName: __ZN8facebook5reactL70__hostFunction_NativeAnimatedModuleSpecJSI_removeAnimatedEventFromViewERNS_3jsi7RuntimeERNS0_11TurboModuleEPKNS1_5ValueEm, symObjAddr: 0x3C94, symBinAddr: 0x12F20, symSize: 0xA8 }
  - { offset: 0xDE485, size: 0x8, addend: 0x0, symName: __ZN8facebook5reactL54__hostFunction_NativeAnimatedModuleSpecJSI_addListenerERNS_3jsi7RuntimeERNS0_11TurboModuleEPKNS1_5ValueEm, symObjAddr: 0x3D3C, symBinAddr: 0x12FC8, symSize: 0xA8 }
  - { offset: 0xDE732, size: 0x8, addend: 0x0, symName: __ZN8facebook5reactL58__hostFunction_NativeAnimatedModuleSpecJSI_removeListenersERNS_3jsi7RuntimeERNS0_11TurboModuleEPKNS1_5ValueEm, symObjAddr: 0x3DE4, symBinAddr: 0x13070, symSize: 0xA8 }
  - { offset: 0xDE9DF, size: 0x8, addend: 0x0, symName: __ZN8facebook5reactL75__hostFunction_NativeAnimatedModuleSpecJSI_queueAndExecuteBatchedOperationsERNS_3jsi7RuntimeERNS0_11TurboModuleEPKNS1_5ValueEm, symObjAddr: 0x3E8C, symBinAddr: 0x13118, symSize: 0xA8 }
  - { offset: 0xDEC8B, size: 0x8, addend: 0x0, symName: __ZN8facebook5react14managedPointerIN2JS25NativeAnimatedTurboModule12EventMappingEU8__strongP11objc_objectEEP17RCTManagedPointerT0_, symObjAddr: 0x3FDC, symBinAddr: 0x13268, symSize: 0x120 }
  - { offset: 0xDEF81, size: 0x8, addend: 0x0, symName: __ZN8facebook5reactL67__hostFunction_NativeAnimatedTurboModuleSpecJSI_startOperationBatchERNS_3jsi7RuntimeERNS0_11TurboModuleEPKNS1_5ValueEm, symObjAddr: 0x4A20, symBinAddr: 0x13CAC, symSize: 0xA8 }
  - { offset: 0xDF22E, size: 0x8, addend: 0x0, symName: __ZN8facebook5reactL68__hostFunction_NativeAnimatedTurboModuleSpecJSI_finishOperationBatchERNS_3jsi7RuntimeERNS0_11TurboModuleEPKNS1_5ValueEm, symObjAddr: 0x4AC8, symBinAddr: 0x13D54, symSize: 0xA8 }
  - { offset: 0xDF4DB, size: 0x8, addend: 0x0, symName: __ZN8facebook5reactL66__hostFunction_NativeAnimatedTurboModuleSpecJSI_createAnimatedNodeERNS_3jsi7RuntimeERNS0_11TurboModuleEPKNS1_5ValueEm, symObjAddr: 0x4B70, symBinAddr: 0x13DFC, symSize: 0xA8 }
  - { offset: 0xDF788, size: 0x8, addend: 0x0, symName: __ZN8facebook5reactL72__hostFunction_NativeAnimatedTurboModuleSpecJSI_updateAnimatedNodeConfigERNS_3jsi7RuntimeERNS0_11TurboModuleEPKNS1_5ValueEm, symObjAddr: 0x4C18, symBinAddr: 0x13EA4, symSize: 0xA8 }
  - { offset: 0xDFA35, size: 0x8, addend: 0x0, symName: __ZN8facebook5reactL56__hostFunction_NativeAnimatedTurboModuleSpecJSI_getValueERNS_3jsi7RuntimeERNS0_11TurboModuleEPKNS1_5ValueEm, symObjAddr: 0x4CC0, symBinAddr: 0x13F4C, symSize: 0xA8 }
  - { offset: 0xDFCE2, size: 0x8, addend: 0x0, symName: __ZN8facebook5reactL81__hostFunction_NativeAnimatedTurboModuleSpecJSI_startListeningToAnimatedNodeValueERNS_3jsi7RuntimeERNS0_11TurboModuleEPKNS1_5ValueEm, symObjAddr: 0x4D68, symBinAddr: 0x13FF4, symSize: 0xA8 }
  - { offset: 0xDFF8F, size: 0x8, addend: 0x0, symName: __ZN8facebook5reactL80__hostFunction_NativeAnimatedTurboModuleSpecJSI_stopListeningToAnimatedNodeValueERNS_3jsi7RuntimeERNS0_11TurboModuleEPKNS1_5ValueEm, symObjAddr: 0x4E10, symBinAddr: 0x1409C, symSize: 0xA8 }
  - { offset: 0xE023C, size: 0x8, addend: 0x0, symName: __ZN8facebook5reactL68__hostFunction_NativeAnimatedTurboModuleSpecJSI_connectAnimatedNodesERNS_3jsi7RuntimeERNS0_11TurboModuleEPKNS1_5ValueEm, symObjAddr: 0x4EB8, symBinAddr: 0x14144, symSize: 0xA8 }
  - { offset: 0xE04E9, size: 0x8, addend: 0x0, symName: __ZN8facebook5reactL71__hostFunction_NativeAnimatedTurboModuleSpecJSI_disconnectAnimatedNodesERNS_3jsi7RuntimeERNS0_11TurboModuleEPKNS1_5ValueEm, symObjAddr: 0x4F60, symBinAddr: 0x141EC, symSize: 0xA8 }
  - { offset: 0xE0796, size: 0x8, addend: 0x0, symName: __ZN8facebook5reactL66__hostFunction_NativeAnimatedTurboModuleSpecJSI_startAnimatingNodeERNS_3jsi7RuntimeERNS0_11TurboModuleEPKNS1_5ValueEm, symObjAddr: 0x5008, symBinAddr: 0x14294, symSize: 0xA8 }
  - { offset: 0xE0A43, size: 0x8, addend: 0x0, symName: __ZN8facebook5reactL61__hostFunction_NativeAnimatedTurboModuleSpecJSI_stopAnimationERNS_3jsi7RuntimeERNS0_11TurboModuleEPKNS1_5ValueEm, symObjAddr: 0x50B0, symBinAddr: 0x1433C, symSize: 0xA8 }
  - { offset: 0xE0CF0, size: 0x8, addend: 0x0, symName: __ZN8facebook5reactL68__hostFunction_NativeAnimatedTurboModuleSpecJSI_setAnimatedNodeValueERNS_3jsi7RuntimeERNS0_11TurboModuleEPKNS1_5ValueEm, symObjAddr: 0x5158, symBinAddr: 0x143E4, symSize: 0xA8 }
  - { offset: 0xE0F9D, size: 0x8, addend: 0x0, symName: __ZN8facebook5reactL69__hostFunction_NativeAnimatedTurboModuleSpecJSI_setAnimatedNodeOffsetERNS_3jsi7RuntimeERNS0_11TurboModuleEPKNS1_5ValueEm, symObjAddr: 0x5200, symBinAddr: 0x1448C, symSize: 0xA8 }
  - { offset: 0xE124A, size: 0x8, addend: 0x0, symName: __ZN8facebook5reactL73__hostFunction_NativeAnimatedTurboModuleSpecJSI_flattenAnimatedNodeOffsetERNS_3jsi7RuntimeERNS0_11TurboModuleEPKNS1_5ValueEm, symObjAddr: 0x52A8, symBinAddr: 0x14534, symSize: 0xA8 }
  - { offset: 0xE14F7, size: 0x8, addend: 0x0, symName: __ZN8facebook5reactL73__hostFunction_NativeAnimatedTurboModuleSpecJSI_extractAnimatedNodeOffsetERNS_3jsi7RuntimeERNS0_11TurboModuleEPKNS1_5ValueEm, symObjAddr: 0x5350, symBinAddr: 0x145DC, symSize: 0xA8 }
  - { offset: 0xE17A4, size: 0x8, addend: 0x0, symName: __ZN8facebook5reactL73__hostFunction_NativeAnimatedTurboModuleSpecJSI_connectAnimatedNodeToViewERNS_3jsi7RuntimeERNS0_11TurboModuleEPKNS1_5ValueEm, symObjAddr: 0x53F8, symBinAddr: 0x14684, symSize: 0xA8 }
  - { offset: 0xE1A51, size: 0x8, addend: 0x0, symName: __ZN8facebook5reactL78__hostFunction_NativeAnimatedTurboModuleSpecJSI_disconnectAnimatedNodeFromViewERNS_3jsi7RuntimeERNS0_11TurboModuleEPKNS1_5ValueEm, symObjAddr: 0x54A0, symBinAddr: 0x1472C, symSize: 0xA8 }
  - { offset: 0xE1CFE, size: 0x8, addend: 0x0, symName: __ZN8facebook5reactL68__hostFunction_NativeAnimatedTurboModuleSpecJSI_restoreDefaultValuesERNS_3jsi7RuntimeERNS0_11TurboModuleEPKNS1_5ValueEm, symObjAddr: 0x5548, symBinAddr: 0x147D4, symSize: 0xA8 }
  - { offset: 0xE1FAB, size: 0x8, addend: 0x0, symName: __ZN8facebook5reactL64__hostFunction_NativeAnimatedTurboModuleSpecJSI_dropAnimatedNodeERNS_3jsi7RuntimeERNS0_11TurboModuleEPKNS1_5ValueEm, symObjAddr: 0x55F0, symBinAddr: 0x1487C, symSize: 0xA8 }
  - { offset: 0xE2258, size: 0x8, addend: 0x0, symName: __ZN8facebook5reactL70__hostFunction_NativeAnimatedTurboModuleSpecJSI_addAnimatedEventToViewERNS_3jsi7RuntimeERNS0_11TurboModuleEPKNS1_5ValueEm, symObjAddr: 0x5698, symBinAddr: 0x14924, symSize: 0xA8 }
  - { offset: 0xE2505, size: 0x8, addend: 0x0, symName: __ZN8facebook5reactL75__hostFunction_NativeAnimatedTurboModuleSpecJSI_removeAnimatedEventFromViewERNS_3jsi7RuntimeERNS0_11TurboModuleEPKNS1_5ValueEm, symObjAddr: 0x5740, symBinAddr: 0x149CC, symSize: 0xA8 }
  - { offset: 0xE27B2, size: 0x8, addend: 0x0, symName: __ZN8facebook5reactL59__hostFunction_NativeAnimatedTurboModuleSpecJSI_addListenerERNS_3jsi7RuntimeERNS0_11TurboModuleEPKNS1_5ValueEm, symObjAddr: 0x57E8, symBinAddr: 0x14A74, symSize: 0xA8 }
  - { offset: 0xE2A5F, size: 0x8, addend: 0x0, symName: __ZN8facebook5reactL63__hostFunction_NativeAnimatedTurboModuleSpecJSI_removeListenersERNS_3jsi7RuntimeERNS0_11TurboModuleEPKNS1_5ValueEm, symObjAddr: 0x5890, symBinAddr: 0x14B1C, symSize: 0xA8 }
  - { offset: 0xE2D0C, size: 0x8, addend: 0x0, symName: __ZN8facebook5reactL80__hostFunction_NativeAnimatedTurboModuleSpecJSI_queueAndExecuteBatchedOperationsERNS_3jsi7RuntimeERNS0_11TurboModuleEPKNS1_5ValueEm, symObjAddr: 0x5938, symBinAddr: 0x14BC4, symSize: 0xA8 }
  - { offset: 0xE2FF7, size: 0x8, addend: 0x0, symName: __ZN8facebook5reactL55__hostFunction_NativeAppStateSpecJSI_getCurrentAppStateERNS_3jsi7RuntimeERNS0_11TurboModuleEPKNS1_5ValueEm, symObjAddr: 0x5C44, symBinAddr: 0x14ED0, symSize: 0xA8 }
  - { offset: 0xE32A4, size: 0x8, addend: 0x0, symName: __ZN8facebook5reactL48__hostFunction_NativeAppStateSpecJSI_addListenerERNS_3jsi7RuntimeERNS0_11TurboModuleEPKNS1_5ValueEm, symObjAddr: 0x5CEC, symBinAddr: 0x14F78, symSize: 0xA8 }
  - { offset: 0xE3551, size: 0x8, addend: 0x0, symName: __ZN8facebook5reactL52__hostFunction_NativeAppStateSpecJSI_removeListenersERNS_3jsi7RuntimeERNS0_11TurboModuleEPKNS1_5ValueEm, symObjAddr: 0x5D94, symBinAddr: 0x15020, symSize: 0xA8 }
  - { offset: 0xE37FE, size: 0x8, addend: 0x0, symName: __ZN8facebook5reactL49__hostFunction_NativeAppStateSpecJSI_getConstantsERNS_3jsi7RuntimeERNS0_11TurboModuleEPKNS1_5ValueEm, symObjAddr: 0x5E3C, symBinAddr: 0x150C8, symSize: 0xA8 }
  - { offset: 0xE3AE9, size: 0x8, addend: 0x0, symName: __ZN8facebook5reactL53__hostFunction_NativeAppearanceSpecJSI_getColorSchemeERNS_3jsi7RuntimeERNS0_11TurboModuleEPKNS1_5ValueEm, symObjAddr: 0x6148, symBinAddr: 0x153D4, symSize: 0xA8 }
  - { offset: 0xE3D96, size: 0x8, addend: 0x0, symName: __ZN8facebook5reactL53__hostFunction_NativeAppearanceSpecJSI_setColorSchemeERNS_3jsi7RuntimeERNS0_11TurboModuleEPKNS1_5ValueEm, symObjAddr: 0x61F0, symBinAddr: 0x1547C, symSize: 0xA8 }
  - { offset: 0xE4043, size: 0x8, addend: 0x0, symName: __ZN8facebook5reactL50__hostFunction_NativeAppearanceSpecJSI_addListenerERNS_3jsi7RuntimeERNS0_11TurboModuleEPKNS1_5ValueEm, symObjAddr: 0x6298, symBinAddr: 0x15524, symSize: 0xA8 }
  - { offset: 0xE42F0, size: 0x8, addend: 0x0, symName: __ZN8facebook5reactL54__hostFunction_NativeAppearanceSpecJSI_removeListenersERNS_3jsi7RuntimeERNS0_11TurboModuleEPKNS1_5ValueEm, symObjAddr: 0x6340, symBinAddr: 0x155CC, symSize: 0xA8 }
  - { offset: 0xE45DB, size: 0x8, addend: 0x0, symName: __ZN8facebook5reactL59__hostFunction_NativeBlobModuleSpecJSI_addNetworkingHandlerERNS_3jsi7RuntimeERNS0_11TurboModuleEPKNS1_5ValueEm, symObjAddr: 0x675C, symBinAddr: 0x159E8, symSize: 0xA8 }
  - { offset: 0xE4888, size: 0x8, addend: 0x0, symName: __ZN8facebook5reactL58__hostFunction_NativeBlobModuleSpecJSI_addWebSocketHandlerERNS_3jsi7RuntimeERNS0_11TurboModuleEPKNS1_5ValueEm, symObjAddr: 0x6804, symBinAddr: 0x15A90, symSize: 0xA8 }
  - { offset: 0xE4B35, size: 0x8, addend: 0x0, symName: __ZN8facebook5reactL61__hostFunction_NativeBlobModuleSpecJSI_removeWebSocketHandlerERNS_3jsi7RuntimeERNS0_11TurboModuleEPKNS1_5ValueEm, symObjAddr: 0x68AC, symBinAddr: 0x15B38, symSize: 0xA8 }
  - { offset: 0xE4DE2, size: 0x8, addend: 0x0, symName: __ZN8facebook5reactL53__hostFunction_NativeBlobModuleSpecJSI_sendOverSocketERNS_3jsi7RuntimeERNS0_11TurboModuleEPKNS1_5ValueEm, symObjAddr: 0x6954, symBinAddr: 0x15BE0, symSize: 0xA8 }
  - { offset: 0xE508F, size: 0x8, addend: 0x0, symName: __ZN8facebook5reactL54__hostFunction_NativeBlobModuleSpecJSI_createFromPartsERNS_3jsi7RuntimeERNS0_11TurboModuleEPKNS1_5ValueEm, symObjAddr: 0x69FC, symBinAddr: 0x15C88, symSize: 0xA8 }
  - { offset: 0xE533C, size: 0x8, addend: 0x0, symName: __ZN8facebook5reactL46__hostFunction_NativeBlobModuleSpecJSI_releaseERNS_3jsi7RuntimeERNS0_11TurboModuleEPKNS1_5ValueEm, symObjAddr: 0x6AA4, symBinAddr: 0x15D30, symSize: 0xA8 }
  - { offset: 0xE55E9, size: 0x8, addend: 0x0, symName: __ZN8facebook5reactL51__hostFunction_NativeBlobModuleSpecJSI_getConstantsERNS_3jsi7RuntimeERNS0_11TurboModuleEPKNS1_5ValueEm, symObjAddr: 0x6B4C, symBinAddr: 0x15DD8, symSize: 0xA8 }
  - { offset: 0xE58D4, size: 0x8, addend: 0x0, symName: __ZN8facebook5reactL47__hostFunction_NativeClipboardSpecJSI_getStringERNS_3jsi7RuntimeERNS0_11TurboModuleEPKNS1_5ValueEm, symObjAddr: 0x6DA0, symBinAddr: 0x1602C, symSize: 0xA8 }
  - { offset: 0xE5B81, size: 0x8, addend: 0x0, symName: __ZN8facebook5reactL47__hostFunction_NativeClipboardSpecJSI_setStringERNS_3jsi7RuntimeERNS0_11TurboModuleEPKNS1_5ValueEm, symObjAddr: 0x6E48, symBinAddr: 0x160D4, symSize: 0xA8 }
  - { offset: 0xE5E6C, size: 0x8, addend: 0x0, symName: __ZN8facebook5reactL54__hostFunction_NativeDevLoadingViewSpecJSI_showMessageERNS_3jsi7RuntimeERNS0_11TurboModuleEPKNS1_5ValueEm, symObjAddr: 0x709C, symBinAddr: 0x16328, symSize: 0xA8 }
  - { offset: 0xE6119, size: 0x8, addend: 0x0, symName: __ZN8facebook5reactL47__hostFunction_NativeDevLoadingViewSpecJSI_hideERNS_3jsi7RuntimeERNS0_11TurboModuleEPKNS1_5ValueEm, symObjAddr: 0x7144, symBinAddr: 0x163D0, symSize: 0xA8 }
  - { offset: 0xE6404, size: 0x8, addend: 0x0, symName: __ZN8facebook5reactL40__hostFunction_NativeDevMenuSpecJSI_showERNS_3jsi7RuntimeERNS0_11TurboModuleEPKNS1_5ValueEm, symObjAddr: 0x744C, symBinAddr: 0x166D8, symSize: 0xA8 }
  - { offset: 0xE66B1, size: 0x8, addend: 0x0, symName: __ZN8facebook5reactL42__hostFunction_NativeDevMenuSpecJSI_reloadERNS_3jsi7RuntimeERNS0_11TurboModuleEPKNS1_5ValueEm, symObjAddr: 0x74F4, symBinAddr: 0x16780, symSize: 0xA8 }
  - { offset: 0xE695E, size: 0x8, addend: 0x0, symName: __ZN8facebook5reactL55__hostFunction_NativeDevMenuSpecJSI_setProfilingEnabledERNS_3jsi7RuntimeERNS0_11TurboModuleEPKNS1_5ValueEm, symObjAddr: 0x759C, symBinAddr: 0x16828, symSize: 0xA8 }
  - { offset: 0xE6C0B, size: 0x8, addend: 0x0, symName: __ZN8facebook5reactL56__hostFunction_NativeDevMenuSpecJSI_setHotLoadingEnabledERNS_3jsi7RuntimeERNS0_11TurboModuleEPKNS1_5ValueEm, symObjAddr: 0x7644, symBinAddr: 0x168D0, symSize: 0xA8 }
  - { offset: 0xE6EF6, size: 0x8, addend: 0x0, symName: __ZN8facebook5reactL46__hostFunction_NativeDevSettingsSpecJSI_reloadERNS_3jsi7RuntimeERNS0_11TurboModuleEPKNS1_5ValueEm, symObjAddr: 0x7BC8, symBinAddr: 0x16E54, symSize: 0xA8 }
  - { offset: 0xE71A3, size: 0x8, addend: 0x0, symName: __ZN8facebook5reactL56__hostFunction_NativeDevSettingsSpecJSI_reloadWithReasonERNS_3jsi7RuntimeERNS0_11TurboModuleEPKNS1_5ValueEm, symObjAddr: 0x7C70, symBinAddr: 0x16EFC, symSize: 0xA8 }
  - { offset: 0xE7450, size: 0x8, addend: 0x0, symName: __ZN8facebook5reactL53__hostFunction_NativeDevSettingsSpecJSI_onFastRefreshERNS_3jsi7RuntimeERNS0_11TurboModuleEPKNS1_5ValueEm, symObjAddr: 0x7D18, symBinAddr: 0x16FA4, symSize: 0xA8 }
  - { offset: 0xE76FD, size: 0x8, addend: 0x0, symName: __ZN8facebook5reactL60__hostFunction_NativeDevSettingsSpecJSI_setHotLoadingEnabledERNS_3jsi7RuntimeERNS0_11TurboModuleEPKNS1_5ValueEm, symObjAddr: 0x7DC0, symBinAddr: 0x1704C, symSize: 0xA8 }
  - { offset: 0xE79AA, size: 0x8, addend: 0x0, symName: __ZN8facebook5reactL59__hostFunction_NativeDevSettingsSpecJSI_setProfilingEnabledERNS_3jsi7RuntimeERNS0_11TurboModuleEPKNS1_5ValueEm, symObjAddr: 0x7E68, symBinAddr: 0x170F4, symSize: 0xA8 }
  - { offset: 0xE7C57, size: 0x8, addend: 0x0, symName: __ZN8facebook5reactL62__hostFunction_NativeDevSettingsSpecJSI_toggleElementInspectorERNS_3jsi7RuntimeERNS0_11TurboModuleEPKNS1_5ValueEm, symObjAddr: 0x7F10, symBinAddr: 0x1719C, symSize: 0xA8 }
  - { offset: 0xE7F04, size: 0x8, addend: 0x0, symName: __ZN8facebook5reactL51__hostFunction_NativeDevSettingsSpecJSI_addMenuItemERNS_3jsi7RuntimeERNS0_11TurboModuleEPKNS1_5ValueEm, symObjAddr: 0x7FB8, symBinAddr: 0x17244, symSize: 0xA8 }
  - { offset: 0xE81B1, size: 0x8, addend: 0x0, symName: __ZN8facebook5reactL52__hostFunction_NativeDevSettingsSpecJSI_openDebuggerERNS_3jsi7RuntimeERNS0_11TurboModuleEPKNS1_5ValueEm, symObjAddr: 0x8060, symBinAddr: 0x172EC, symSize: 0xA8 }
  - { offset: 0xE845E, size: 0x8, addend: 0x0, symName: __ZN8facebook5reactL51__hostFunction_NativeDevSettingsSpecJSI_addListenerERNS_3jsi7RuntimeERNS0_11TurboModuleEPKNS1_5ValueEm, symObjAddr: 0x8108, symBinAddr: 0x17394, symSize: 0xA8 }
  - { offset: 0xE870B, size: 0x8, addend: 0x0, symName: __ZN8facebook5reactL55__hostFunction_NativeDevSettingsSpecJSI_removeListenersERNS_3jsi7RuntimeERNS0_11TurboModuleEPKNS1_5ValueEm, symObjAddr: 0x81B0, symBinAddr: 0x1743C, symSize: 0xA8 }
  - { offset: 0xE89B8, size: 0x8, addend: 0x0, symName: __ZN8facebook5reactL70__hostFunction_NativeDevSettingsSpecJSI_setIsShakeToShowDevMenuEnabledERNS_3jsi7RuntimeERNS0_11TurboModuleEPKNS1_5ValueEm, symObjAddr: 0x8258, symBinAddr: 0x174E4, symSize: 0xA8 }
  - { offset: 0xE8CA3, size: 0x8, addend: 0x0, symName: __ZN8facebook5reactL76__hostFunction_NativeDeviceEventManagerSpecJSI_invokeDefaultBackPressHandlerERNS_3jsi7RuntimeERNS0_11TurboModuleEPKNS1_5ValueEm, symObjAddr: 0x8444, symBinAddr: 0x176D0, symSize: 0xA8 }
  - { offset: 0xE8F8E, size: 0x8, addend: 0x0, symName: __ZN8facebook5reactL51__hostFunction_NativeDeviceInfoSpecJSI_getConstantsERNS_3jsi7RuntimeERNS0_11TurboModuleEPKNS1_5ValueEm, symObjAddr: 0x8630, symBinAddr: 0x178BC, symSize: 0xA8 }
  - { offset: 0xE923A, size: 0x8, addend: 0x0, symName: __ZN8facebook5react14managedPointerIN2JS23NativeExceptionsManager10StackFrameEU8__strongP11objc_objectEEP17RCTManagedPointerT0_, symObjAddr: 0x8780, symBinAddr: 0x17A0C, symSize: 0x120 }
  - { offset: 0xE94F1, size: 0x8, addend: 0x0, symName: __ZN8facebook5react14managedPointerIN2JS23NativeExceptionsManager13ExceptionDataEU8__strongP11objc_objectEEP17RCTManagedPointerT0_, symObjAddr: 0x88BC, symBinAddr: 0x17B48, symSize: 0x120 }
  - { offset: 0xE97F2, size: 0x8, addend: 0x0, symName: __ZN8facebook5reactL66__hostFunction_NativeExceptionsManagerSpecJSI_reportFatalExceptionERNS_3jsi7RuntimeERNS0_11TurboModuleEPKNS1_5ValueEm, symObjAddr: 0x8BD4, symBinAddr: 0x17E60, symSize: 0xA8 }
  - { offset: 0xE9A9F, size: 0x8, addend: 0x0, symName: __ZN8facebook5reactL65__hostFunction_NativeExceptionsManagerSpecJSI_reportSoftExceptionERNS_3jsi7RuntimeERNS0_11TurboModuleEPKNS1_5ValueEm, symObjAddr: 0x8C7C, symBinAddr: 0x17F08, symSize: 0xA8 }
  - { offset: 0xE9D4C, size: 0x8, addend: 0x0, symName: __ZN8facebook5reactL61__hostFunction_NativeExceptionsManagerSpecJSI_reportExceptionERNS_3jsi7RuntimeERNS0_11TurboModuleEPKNS1_5ValueEm, symObjAddr: 0x8D24, symBinAddr: 0x17FB0, symSize: 0xA8 }
  - { offset: 0xE9FF9, size: 0x8, addend: 0x0, symName: __ZN8facebook5reactL59__hostFunction_NativeExceptionsManagerSpecJSI_dismissRedboxERNS_3jsi7RuntimeERNS0_11TurboModuleEPKNS1_5ValueEm, symObjAddr: 0x8DCC, symBinAddr: 0x18058, symSize: 0xA8 }
  - { offset: 0xEA2E4, size: 0x8, addend: 0x0, symName: __ZN8facebook5reactL58__hostFunction_NativeFileReaderModuleSpecJSI_readAsDataURLERNS_3jsi7RuntimeERNS0_11TurboModuleEPKNS1_5ValueEm, symObjAddr: 0x9024, symBinAddr: 0x182B0, symSize: 0xA8 }
  - { offset: 0xEA591, size: 0x8, addend: 0x0, symName: __ZN8facebook5reactL55__hostFunction_NativeFileReaderModuleSpecJSI_readAsTextERNS_3jsi7RuntimeERNS0_11TurboModuleEPKNS1_5ValueEm, symObjAddr: 0x90CC, symBinAddr: 0x18358, symSize: 0xA8 }
  - { offset: 0xEA83D, size: 0x8, addend: 0x0, symName: __ZN8facebook5react14managedPointerIN2JS21NativeFrameRateLogger27SpecSetGlobalOptionsOptionsEU8__strongP11objc_objectEEP17RCTManagedPointerT0_, symObjAddr: 0x921C, symBinAddr: 0x184A8, symSize: 0x120 }
  - { offset: 0xEAB33, size: 0x8, addend: 0x0, symName: __ZN8facebook5reactL60__hostFunction_NativeFrameRateLoggerSpecJSI_setGlobalOptionsERNS_3jsi7RuntimeERNS0_11TurboModuleEPKNS1_5ValueEm, symObjAddr: 0x9530, symBinAddr: 0x187BC, symSize: 0xA8 }
  - { offset: 0xEADE0, size: 0x8, addend: 0x0, symName: __ZN8facebook5reactL54__hostFunction_NativeFrameRateLoggerSpecJSI_setContextERNS_3jsi7RuntimeERNS0_11TurboModuleEPKNS1_5ValueEm, symObjAddr: 0x95D8, symBinAddr: 0x18864, symSize: 0xA8 }
  - { offset: 0xEB08D, size: 0x8, addend: 0x0, symName: __ZN8facebook5reactL55__hostFunction_NativeFrameRateLoggerSpecJSI_beginScrollERNS_3jsi7RuntimeERNS0_11TurboModuleEPKNS1_5ValueEm, symObjAddr: 0x9680, symBinAddr: 0x1890C, symSize: 0xA8 }
  - { offset: 0xEB33A, size: 0x8, addend: 0x0, symName: __ZN8facebook5reactL53__hostFunction_NativeFrameRateLoggerSpecJSI_endScrollERNS_3jsi7RuntimeERNS0_11TurboModuleEPKNS1_5ValueEm, symObjAddr: 0x9728, symBinAddr: 0x189B4, symSize: 0xA8 }
  - { offset: 0xEB625, size: 0x8, addend: 0x0, symName: __ZN8facebook5reactL68__hostFunction_NativeHeadlessJsTaskSupportSpecJSI_notifyTaskFinishedERNS_3jsi7RuntimeERNS0_11TurboModuleEPKNS1_5ValueEm, symObjAddr: 0x9980, symBinAddr: 0x18C0C, symSize: 0xA8 }
  - { offset: 0xEB8D2, size: 0x8, addend: 0x0, symName: __ZN8facebook5reactL65__hostFunction_NativeHeadlessJsTaskSupportSpecJSI_notifyTaskRetryERNS_3jsi7RuntimeERNS0_11TurboModuleEPKNS1_5ValueEm, symObjAddr: 0x9A28, symBinAddr: 0x18CB4, symSize: 0xA8 }
  - { offset: 0xEBBBD, size: 0x8, addend: 0x0, symName: __ZN8facebook5reactL48__hostFunction_NativeI18nManagerSpecJSI_allowRTLERNS_3jsi7RuntimeERNS0_11TurboModuleEPKNS1_5ValueEm, symObjAddr: 0x9D34, symBinAddr: 0x18FC0, symSize: 0xA8 }
  - { offset: 0xEBE6A, size: 0x8, addend: 0x0, symName: __ZN8facebook5reactL48__hostFunction_NativeI18nManagerSpecJSI_forceRTLERNS_3jsi7RuntimeERNS0_11TurboModuleEPKNS1_5ValueEm, symObjAddr: 0x9DDC, symBinAddr: 0x19068, symSize: 0xA8 }
  - { offset: 0xEC117, size: 0x8, addend: 0x0, symName: __ZN8facebook5reactL61__hostFunction_NativeI18nManagerSpecJSI_swapLeftAndRightInRTLERNS_3jsi7RuntimeERNS0_11TurboModuleEPKNS1_5ValueEm, symObjAddr: 0x9E84, symBinAddr: 0x19110, symSize: 0xA8 }
  - { offset: 0xEC3C4, size: 0x8, addend: 0x0, symName: __ZN8facebook5reactL52__hostFunction_NativeI18nManagerSpecJSI_getConstantsERNS_3jsi7RuntimeERNS0_11TurboModuleEPKNS1_5ValueEm, symObjAddr: 0x9F2C, symBinAddr: 0x191B8, symSize: 0xA8 }
  - { offset: 0xEC670, size: 0x8, addend: 0x0, symName: __ZN8facebook5react14managedPointerIN2JS17NativeImageEditor13OptionsOffsetEU8__strongP11objc_objectEEP17RCTManagedPointerT0_, symObjAddr: 0xA07C, symBinAddr: 0x19308, symSize: 0x120 }
  - { offset: 0xEC927, size: 0x8, addend: 0x0, symName: __ZN8facebook5react14managedPointerIN2JS17NativeImageEditor11OptionsSizeEU8__strongP11objc_objectEEP17RCTManagedPointerT0_, symObjAddr: 0xA1B8, symBinAddr: 0x19444, symSize: 0x120 }
  - { offset: 0xECBDE, size: 0x8, addend: 0x0, symName: __ZN8facebook5react14managedPointerIN2JS17NativeImageEditor18OptionsDisplaySizeEU8__strongP11objc_objectEEP17RCTManagedPointerT0_, symObjAddr: 0xA2F4, symBinAddr: 0x19580, symSize: 0x120 }
  - { offset: 0xECE95, size: 0x8, addend: 0x0, symName: __ZN8facebook5react14managedPointerIN2JS17NativeImageEditor7OptionsEU8__strongP11objc_objectEEP17RCTManagedPointerT0_, symObjAddr: 0xA430, symBinAddr: 0x196BC, symSize: 0x120 }
  - { offset: 0xED18B, size: 0x8, addend: 0x0, symName: __ZN8facebook5reactL49__hostFunction_NativeImageEditorSpecJSI_cropImageERNS_3jsi7RuntimeERNS0_11TurboModuleEPKNS1_5ValueEm, symObjAddr: 0xA62C, symBinAddr: 0x198B8, symSize: 0xA8 }
  - { offset: 0xED476, size: 0x8, addend: 0x0, symName: __ZN8facebook5reactL50__hostFunction_NativeImageLoaderIOSSpecJSI_getSizeERNS_3jsi7RuntimeERNS0_11TurboModuleEPKNS1_5ValueEm, symObjAddr: 0xA998, symBinAddr: 0x19C24, symSize: 0xA8 }
  - { offset: 0xED723, size: 0x8, addend: 0x0, symName: __ZN8facebook5reactL61__hostFunction_NativeImageLoaderIOSSpecJSI_getSizeWithHeadersERNS_3jsi7RuntimeERNS0_11TurboModuleEPKNS1_5ValueEm, symObjAddr: 0xAA40, symBinAddr: 0x19CCC, symSize: 0xA8 }
  - { offset: 0xED9D0, size: 0x8, addend: 0x0, symName: __ZN8facebook5reactL56__hostFunction_NativeImageLoaderIOSSpecJSI_prefetchImageERNS_3jsi7RuntimeERNS0_11TurboModuleEPKNS1_5ValueEm, symObjAddr: 0xAAE8, symBinAddr: 0x19D74, symSize: 0xA8 }
  - { offset: 0xEDC7D, size: 0x8, addend: 0x0, symName: __ZN8facebook5reactL68__hostFunction_NativeImageLoaderIOSSpecJSI_prefetchImageWithMetadataERNS_3jsi7RuntimeERNS0_11TurboModuleEPKNS1_5ValueEm, symObjAddr: 0xAB90, symBinAddr: 0x19E1C, symSize: 0xA8 }
  - { offset: 0xEDF2A, size: 0x8, addend: 0x0, symName: __ZN8facebook5reactL53__hostFunction_NativeImageLoaderIOSSpecJSI_queryCacheERNS_3jsi7RuntimeERNS0_11TurboModuleEPKNS1_5ValueEm, symObjAddr: 0xAC38, symBinAddr: 0x19EC4, symSize: 0xA8 }
  - { offset: 0xEE215, size: 0x8, addend: 0x0, symName: __ZN8facebook5reactL57__hostFunction_NativeImageStoreIOSSpecJSI_getBase64ForTagERNS_3jsi7RuntimeERNS0_11TurboModuleEPKNS1_5ValueEm, symObjAddr: 0xAF48, symBinAddr: 0x1A1D4, symSize: 0xA8 }
  - { offset: 0xEE4C2, size: 0x8, addend: 0x0, symName: __ZN8facebook5reactL56__hostFunction_NativeImageStoreIOSSpecJSI_hasImageForTagERNS_3jsi7RuntimeERNS0_11TurboModuleEPKNS1_5ValueEm, symObjAddr: 0xAFF0, symBinAddr: 0x1A27C, symSize: 0xA8 }
  - { offset: 0xEE76F, size: 0x8, addend: 0x0, symName: __ZN8facebook5reactL59__hostFunction_NativeImageStoreIOSSpecJSI_removeImageForTagERNS_3jsi7RuntimeERNS0_11TurboModuleEPKNS1_5ValueEm, symObjAddr: 0xB098, symBinAddr: 0x1A324, symSize: 0xA8 }
  - { offset: 0xEEA1C, size: 0x8, addend: 0x0, symName: __ZN8facebook5reactL60__hostFunction_NativeImageStoreIOSSpecJSI_addImageFromBase64ERNS_3jsi7RuntimeERNS0_11TurboModuleEPKNS1_5ValueEm, symObjAddr: 0xB140, symBinAddr: 0x1A3CC, symSize: 0xA8 }
  - { offset: 0xEED07, size: 0x8, addend: 0x0, symName: __ZN8facebook5reactL58__hostFunction_NativeJSCHeapCaptureSpecJSI_captureCompleteERNS_3jsi7RuntimeERNS0_11TurboModuleEPKNS1_5ValueEm, symObjAddr: 0xB330, symBinAddr: 0x1A5BC, symSize: 0xA8 }
  - { offset: 0xEEFF2, size: 0x8, addend: 0x0, symName: __ZN8facebook5reactL56__hostFunction_NativeKeyboardObserverSpecJSI_addListenerERNS_3jsi7RuntimeERNS0_11TurboModuleEPKNS1_5ValueEm, symObjAddr: 0xB588, symBinAddr: 0x1A814, symSize: 0xA8 }
  - { offset: 0xEF29F, size: 0x8, addend: 0x0, symName: __ZN8facebook5reactL60__hostFunction_NativeKeyboardObserverSpecJSI_removeListenersERNS_3jsi7RuntimeERNS0_11TurboModuleEPKNS1_5ValueEm, symObjAddr: 0xB630, symBinAddr: 0x1A8BC, symSize: 0xA8 }
  - { offset: 0xEF58A, size: 0x8, addend: 0x0, symName: __ZN8facebook5reactL56__hostFunction_NativeLinkingManagerSpecJSI_getInitialURLERNS_3jsi7RuntimeERNS0_11TurboModuleEPKNS1_5ValueEm, symObjAddr: 0xB9F0, symBinAddr: 0x1AC7C, symSize: 0xA8 }
  - { offset: 0xEF837, size: 0x8, addend: 0x0, symName: __ZN8facebook5reactL53__hostFunction_NativeLinkingManagerSpecJSI_canOpenURLERNS_3jsi7RuntimeERNS0_11TurboModuleEPKNS1_5ValueEm, symObjAddr: 0xBA98, symBinAddr: 0x1AD24, symSize: 0xA8 }
  - { offset: 0xEFAE4, size: 0x8, addend: 0x0, symName: __ZN8facebook5reactL50__hostFunction_NativeLinkingManagerSpecJSI_openURLERNS_3jsi7RuntimeERNS0_11TurboModuleEPKNS1_5ValueEm, symObjAddr: 0xBB40, symBinAddr: 0x1ADCC, symSize: 0xA8 }
  - { offset: 0xEFD91, size: 0x8, addend: 0x0, symName: __ZN8facebook5reactL55__hostFunction_NativeLinkingManagerSpecJSI_openSettingsERNS_3jsi7RuntimeERNS0_11TurboModuleEPKNS1_5ValueEm, symObjAddr: 0xBBE8, symBinAddr: 0x1AE74, symSize: 0xA8 }
  - { offset: 0xF003E, size: 0x8, addend: 0x0, symName: __ZN8facebook5reactL54__hostFunction_NativeLinkingManagerSpecJSI_addListenerERNS_3jsi7RuntimeERNS0_11TurboModuleEPKNS1_5ValueEm, symObjAddr: 0xBC90, symBinAddr: 0x1AF1C, symSize: 0xA8 }
  - { offset: 0xF02EB, size: 0x8, addend: 0x0, symName: __ZN8facebook5reactL58__hostFunction_NativeLinkingManagerSpecJSI_removeListenersERNS_3jsi7RuntimeERNS0_11TurboModuleEPKNS1_5ValueEm, symObjAddr: 0xBD38, symBinAddr: 0x1AFC4, symSize: 0xA8 }
  - { offset: 0xF05D6, size: 0x8, addend: 0x0, symName: __ZN8facebook5reactL39__hostFunction_NativeLogBoxSpecJSI_showERNS_3jsi7RuntimeERNS0_11TurboModuleEPKNS1_5ValueEm, symObjAddr: 0xBF88, symBinAddr: 0x1B214, symSize: 0xA8 }
  - { offset: 0xF0883, size: 0x8, addend: 0x0, symName: __ZN8facebook5reactL39__hostFunction_NativeLogBoxSpecJSI_hideERNS_3jsi7RuntimeERNS0_11TurboModuleEPKNS1_5ValueEm, symObjAddr: 0xC030, symBinAddr: 0x1B2BC, symSize: 0xA8 }
  - { offset: 0xF0B6E, size: 0x8, addend: 0x0, symName: __ZN8facebook5reactL52__hostFunction_NativeModalManagerSpecJSI_addListenerERNS_3jsi7RuntimeERNS0_11TurboModuleEPKNS1_5ValueEm, symObjAddr: 0xC288, symBinAddr: 0x1B514, symSize: 0xA8 }
  - { offset: 0xF0E1B, size: 0x8, addend: 0x0, symName: __ZN8facebook5reactL56__hostFunction_NativeModalManagerSpecJSI_removeListenersERNS_3jsi7RuntimeERNS0_11TurboModuleEPKNS1_5ValueEm, symObjAddr: 0xC330, symBinAddr: 0x1B5BC, symSize: 0xA8 }
  - { offset: 0xF10C7, size: 0x8, addend: 0x0, symName: __ZN8facebook5react14managedPointerIN2JS19NativeNetworkingIOS20SpecSendRequestQueryEU8__strongP11objc_objectEEP17RCTManagedPointerT0_, symObjAddr: 0xC480, symBinAddr: 0x1B70C, symSize: 0x120 }
  - { offset: 0xF13BD, size: 0x8, addend: 0x0, symName: __ZN8facebook5reactL53__hostFunction_NativeNetworkingIOSSpecJSI_sendRequestERNS_3jsi7RuntimeERNS0_11TurboModuleEPKNS1_5ValueEm, symObjAddr: 0xC7F8, symBinAddr: 0x1BA84, symSize: 0xA8 }
  - { offset: 0xF166A, size: 0x8, addend: 0x0, symName: __ZN8facebook5reactL54__hostFunction_NativeNetworkingIOSSpecJSI_abortRequestERNS_3jsi7RuntimeERNS0_11TurboModuleEPKNS1_5ValueEm, symObjAddr: 0xC8A0, symBinAddr: 0x1BB2C, symSize: 0xA8 }
  - { offset: 0xF1917, size: 0x8, addend: 0x0, symName: __ZN8facebook5reactL54__hostFunction_NativeNetworkingIOSSpecJSI_clearCookiesERNS_3jsi7RuntimeERNS0_11TurboModuleEPKNS1_5ValueEm, symObjAddr: 0xC948, symBinAddr: 0x1BBD4, symSize: 0xA8 }
  - { offset: 0xF1BC4, size: 0x8, addend: 0x0, symName: __ZN8facebook5reactL53__hostFunction_NativeNetworkingIOSSpecJSI_addListenerERNS_3jsi7RuntimeERNS0_11TurboModuleEPKNS1_5ValueEm, symObjAddr: 0xC9F0, symBinAddr: 0x1BC7C, symSize: 0xA8 }
  - { offset: 0xF1E71, size: 0x8, addend: 0x0, symName: __ZN8facebook5reactL57__hostFunction_NativeNetworkingIOSSpecJSI_removeListenersERNS_3jsi7RuntimeERNS0_11TurboModuleEPKNS1_5ValueEm, symObjAddr: 0xCA98, symBinAddr: 0x1BD24, symSize: 0xA8 }
  - { offset: 0xF215C, size: 0x8, addend: 0x0, symName: __ZN8facebook5reactL61__hostFunction_NativePlatformConstantsIOSSpecJSI_getConstantsERNS_3jsi7RuntimeERNS0_11TurboModuleEPKNS1_5ValueEm, symObjAddr: 0xCC84, symBinAddr: 0x1BF10, symSize: 0xA8 }
  - { offset: 0xF2408, size: 0x8, addend: 0x0, symName: __ZN8facebook5react14managedPointerIN2JS32NativePushNotificationManagerIOS32SpecRequestPermissionsPermissionEU8__strongP11objc_objectEEP17RCTManagedPointerT0_, symObjAddr: 0xCDD4, symBinAddr: 0x1C060, symSize: 0x120 }
  - { offset: 0xF26BF, size: 0x8, addend: 0x0, symName: __ZN8facebook5react14managedPointerIN2JS32NativePushNotificationManagerIOS12NotificationEU8__strongP11objc_objectEEP17RCTManagedPointerT0_, symObjAddr: 0xCF10, symBinAddr: 0x1C19C, symSize: 0x120 }
  - { offset: 0xF29B5, size: 0x8, addend: 0x0, symName: __ZN8facebook5reactL81__hostFunction_NativePushNotificationManagerIOSSpecJSI_onFinishRemoteNotificationERNS_3jsi7RuntimeERNS0_11TurboModuleEPKNS1_5ValueEm, symObjAddr: 0xD75C, symBinAddr: 0x1C9E8, symSize: 0xA8 }
  - { offset: 0xF2C62, size: 0x8, addend: 0x0, symName: __ZN8facebook5reactL84__hostFunction_NativePushNotificationManagerIOSSpecJSI_setApplicationIconBadgeNumberERNS_3jsi7RuntimeERNS0_11TurboModuleEPKNS1_5ValueEm, symObjAddr: 0xD804, symBinAddr: 0x1CA90, symSize: 0xA8 }
  - { offset: 0xF2F0F, size: 0x8, addend: 0x0, symName: __ZN8facebook5reactL84__hostFunction_NativePushNotificationManagerIOSSpecJSI_getApplicationIconBadgeNumberERNS_3jsi7RuntimeERNS0_11TurboModuleEPKNS1_5ValueEm, symObjAddr: 0xD8AC, symBinAddr: 0x1CB38, symSize: 0xA8 }
  - { offset: 0xF31BC, size: 0x8, addend: 0x0, symName: __ZN8facebook5reactL73__hostFunction_NativePushNotificationManagerIOSSpecJSI_requestPermissionsERNS_3jsi7RuntimeERNS0_11TurboModuleEPKNS1_5ValueEm, symObjAddr: 0xD954, symBinAddr: 0x1CBE0, symSize: 0xA8 }
  - { offset: 0xF3469, size: 0x8, addend: 0x0, symName: __ZN8facebook5reactL73__hostFunction_NativePushNotificationManagerIOSSpecJSI_abandonPermissionsERNS_3jsi7RuntimeERNS0_11TurboModuleEPKNS1_5ValueEm, symObjAddr: 0xD9FC, symBinAddr: 0x1CC88, symSize: 0xA8 }
  - { offset: 0xF3716, size: 0x8, addend: 0x0, symName: __ZN8facebook5reactL71__hostFunction_NativePushNotificationManagerIOSSpecJSI_checkPermissionsERNS_3jsi7RuntimeERNS0_11TurboModuleEPKNS1_5ValueEm, symObjAddr: 0xDAA4, symBinAddr: 0x1CD30, symSize: 0xA8 }
  - { offset: 0xF39C3, size: 0x8, addend: 0x0, symName: __ZN8facebook5reactL79__hostFunction_NativePushNotificationManagerIOSSpecJSI_presentLocalNotificationERNS_3jsi7RuntimeERNS0_11TurboModuleEPKNS1_5ValueEm, symObjAddr: 0xDB4C, symBinAddr: 0x1CDD8, symSize: 0xA8 }
  - { offset: 0xF3C70, size: 0x8, addend: 0x0, symName: __ZN8facebook5reactL80__hostFunction_NativePushNotificationManagerIOSSpecJSI_scheduleLocalNotificationERNS_3jsi7RuntimeERNS0_11TurboModuleEPKNS1_5ValueEm, symObjAddr: 0xDBF4, symBinAddr: 0x1CE80, symSize: 0xA8 }
  - { offset: 0xF3F1D, size: 0x8, addend: 0x0, symName: __ZN8facebook5reactL82__hostFunction_NativePushNotificationManagerIOSSpecJSI_cancelAllLocalNotificationsERNS_3jsi7RuntimeERNS0_11TurboModuleEPKNS1_5ValueEm, symObjAddr: 0xDC9C, symBinAddr: 0x1CF28, symSize: 0xA8 }
  - { offset: 0xF41CA, size: 0x8, addend: 0x0, symName: __ZN8facebook5reactL79__hostFunction_NativePushNotificationManagerIOSSpecJSI_cancelLocalNotificationsERNS_3jsi7RuntimeERNS0_11TurboModuleEPKNS1_5ValueEm, symObjAddr: 0xDD44, symBinAddr: 0x1CFD0, symSize: 0xA8 }
  - { offset: 0xF4477, size: 0x8, addend: 0x0, symName: __ZN8facebook5reactL77__hostFunction_NativePushNotificationManagerIOSSpecJSI_getInitialNotificationERNS_3jsi7RuntimeERNS0_11TurboModuleEPKNS1_5ValueEm, symObjAddr: 0xDDEC, symBinAddr: 0x1D078, symSize: 0xA8 }
  - { offset: 0xF4724, size: 0x8, addend: 0x0, symName: __ZN8facebook5reactL85__hostFunction_NativePushNotificationManagerIOSSpecJSI_getScheduledLocalNotificationsERNS_3jsi7RuntimeERNS0_11TurboModuleEPKNS1_5ValueEm, symObjAddr: 0xDE94, symBinAddr: 0x1D120, symSize: 0xA8 }
  - { offset: 0xF49D1, size: 0x8, addend: 0x0, symName: __ZN8facebook5reactL86__hostFunction_NativePushNotificationManagerIOSSpecJSI_removeAllDeliveredNotificationsERNS_3jsi7RuntimeERNS0_11TurboModuleEPKNS1_5ValueEm, symObjAddr: 0xDF3C, symBinAddr: 0x1D1C8, symSize: 0xA8 }
  - { offset: 0xF4C7E, size: 0x8, addend: 0x0, symName: __ZN8facebook5reactL83__hostFunction_NativePushNotificationManagerIOSSpecJSI_removeDeliveredNotificationsERNS_3jsi7RuntimeERNS0_11TurboModuleEPKNS1_5ValueEm, symObjAddr: 0xDFE4, symBinAddr: 0x1D270, symSize: 0xA8 }
  - { offset: 0xF4F2B, size: 0x8, addend: 0x0, symName: __ZN8facebook5reactL80__hostFunction_NativePushNotificationManagerIOSSpecJSI_getDeliveredNotificationsERNS_3jsi7RuntimeERNS0_11TurboModuleEPKNS1_5ValueEm, symObjAddr: 0xE08C, symBinAddr: 0x1D318, symSize: 0xA8 }
  - { offset: 0xF51D8, size: 0x8, addend: 0x0, symName: __ZN8facebook5reactL77__hostFunction_NativePushNotificationManagerIOSSpecJSI_getAuthorizationStatusERNS_3jsi7RuntimeERNS0_11TurboModuleEPKNS1_5ValueEm, symObjAddr: 0xE134, symBinAddr: 0x1D3C0, symSize: 0xA8 }
  - { offset: 0xF5485, size: 0x8, addend: 0x0, symName: __ZN8facebook5reactL66__hostFunction_NativePushNotificationManagerIOSSpecJSI_addListenerERNS_3jsi7RuntimeERNS0_11TurboModuleEPKNS1_5ValueEm, symObjAddr: 0xE1DC, symBinAddr: 0x1D468, symSize: 0xA8 }
  - { offset: 0xF5732, size: 0x8, addend: 0x0, symName: __ZN8facebook5reactL70__hostFunction_NativePushNotificationManagerIOSSpecJSI_removeListenersERNS_3jsi7RuntimeERNS0_11TurboModuleEPKNS1_5ValueEm, symObjAddr: 0xE284, symBinAddr: 0x1D510, symSize: 0xA8 }
  - { offset: 0xF59DE, size: 0x8, addend: 0x0, symName: __ZN8facebook5react14managedPointerIN2JS40NativeReactDevToolsRuntimeSettingsModule29PartialReloadAndProfileConfigEU8__strongP11objc_objectEEP17RCTManagedPointerT0_, symObjAddr: 0xE3D4, symBinAddr: 0x1D660, symSize: 0x120 }
  - { offset: 0xF5CD4, size: 0x8, addend: 0x0, symName: __ZN8facebook5reactL88__hostFunction_NativeReactDevToolsRuntimeSettingsModuleSpecJSI_setReloadAndProfileConfigERNS_3jsi7RuntimeERNS0_11TurboModuleEPKNS1_5ValueEm, symObjAddr: 0xE634, symBinAddr: 0x1D8C0, symSize: 0xA8 }
  - { offset: 0xF5F81, size: 0x8, addend: 0x0, symName: __ZN8facebook5reactL88__hostFunction_NativeReactDevToolsRuntimeSettingsModuleSpecJSI_getReloadAndProfileConfigERNS_3jsi7RuntimeERNS0_11TurboModuleEPKNS1_5ValueEm, symObjAddr: 0xE6DC, symBinAddr: 0x1D968, symSize: 0xA8 }
  - { offset: 0xF626C, size: 0x8, addend: 0x0, symName: __ZN8facebook5reactL78__hostFunction_NativeReactDevToolsSettingsManagerSpecJSI_setGlobalHookSettingsERNS_3jsi7RuntimeERNS0_11TurboModuleEPKNS1_5ValueEm, symObjAddr: 0xE930, symBinAddr: 0x1DBBC, symSize: 0xA8 }
  - { offset: 0xF6519, size: 0x8, addend: 0x0, symName: __ZN8facebook5reactL78__hostFunction_NativeReactDevToolsSettingsManagerSpecJSI_getGlobalHookSettingsERNS_3jsi7RuntimeERNS0_11TurboModuleEPKNS1_5ValueEm, symObjAddr: 0xE9D8, symBinAddr: 0x1DC64, symSize: 0xA8 }
  - { offset: 0xF6804, size: 0x8, addend: 0x0, symName: __ZN8facebook5reactL47__hostFunction_NativeRedBoxSpecJSI_setExtraDataERNS_3jsi7RuntimeERNS0_11TurboModuleEPKNS1_5ValueEm, symObjAddr: 0xEC2C, symBinAddr: 0x1DEB8, symSize: 0xA8 }
  - { offset: 0xF6AB1, size: 0x8, addend: 0x0, symName: __ZN8facebook5reactL42__hostFunction_NativeRedBoxSpecJSI_dismissERNS_3jsi7RuntimeERNS0_11TurboModuleEPKNS1_5ValueEm, symObjAddr: 0xECD4, symBinAddr: 0x1DF60, symSize: 0xA8 }
  - { offset: 0xF6D9C, size: 0x8, addend: 0x0, symName: __ZN8facebook5reactL55__hostFunction_NativeSegmentFetcherSpecJSI_fetchSegmentERNS_3jsi7RuntimeERNS0_11TurboModuleEPKNS1_5ValueEm, symObjAddr: 0xEF2C, symBinAddr: 0x1E1B8, symSize: 0xA8 }
  - { offset: 0xF7049, size: 0x8, addend: 0x0, symName: __ZN8facebook5reactL53__hostFunction_NativeSegmentFetcherSpecJSI_getSegmentERNS_3jsi7RuntimeERNS0_11TurboModuleEPKNS1_5ValueEm, symObjAddr: 0xEFD4, symBinAddr: 0x1E260, symSize: 0xA8 }
  - { offset: 0xF7334, size: 0x8, addend: 0x0, symName: __ZN8facebook5reactL53__hostFunction_NativeSettingsManagerSpecJSI_setValuesERNS_3jsi7RuntimeERNS0_11TurboModuleEPKNS1_5ValueEm, symObjAddr: 0xF284, symBinAddr: 0x1E510, symSize: 0xA8 }
  - { offset: 0xF75E1, size: 0x8, addend: 0x0, symName: __ZN8facebook5reactL56__hostFunction_NativeSettingsManagerSpecJSI_deleteValuesERNS_3jsi7RuntimeERNS0_11TurboModuleEPKNS1_5ValueEm, symObjAddr: 0xF32C, symBinAddr: 0x1E5B8, symSize: 0xA8 }
  - { offset: 0xF788E, size: 0x8, addend: 0x0, symName: __ZN8facebook5reactL56__hostFunction_NativeSettingsManagerSpecJSI_getConstantsERNS_3jsi7RuntimeERNS0_11TurboModuleEPKNS1_5ValueEm, symObjAddr: 0xF3D4, symBinAddr: 0x1E660, symSize: 0xA8 }
  - { offset: 0xF7B3A, size: 0x8, addend: 0x0, symName: __ZN8facebook5react14managedPointerIN2JS17NativeShareModule16SpecShareContentEU8__strongP11objc_objectEEP17RCTManagedPointerT0_, symObjAddr: 0xF524, symBinAddr: 0x1E7B0, symSize: 0x120 }
  - { offset: 0xF7E30, size: 0x8, addend: 0x0, symName: __ZN8facebook5reactL45__hostFunction_NativeShareModuleSpecJSI_shareERNS_3jsi7RuntimeERNS0_11TurboModuleEPKNS1_5ValueEm, symObjAddr: 0xF720, symBinAddr: 0x1E9AC, symSize: 0xA8 }
  - { offset: 0xF811B, size: 0x8, addend: 0x0, symName: __ZN8facebook5reactL55__hostFunction_NativeSoundManagerSpecJSI_playTouchSoundERNS_3jsi7RuntimeERNS0_11TurboModuleEPKNS1_5ValueEm, symObjAddr: 0xF90C, symBinAddr: 0x1EB98, symSize: 0xA8 }
  - { offset: 0xF8406, size: 0x8, addend: 0x0, symName: __ZN8facebook5reactL51__hostFunction_NativeSourceCodeSpecJSI_getConstantsERNS_3jsi7RuntimeERNS0_11TurboModuleEPKNS1_5ValueEm, symObjAddr: 0xFAF8, symBinAddr: 0x1ED84, symSize: 0xA8 }
  - { offset: 0xF86F1, size: 0x8, addend: 0x0, symName: __ZN8facebook5reactL57__hostFunction_NativeStatusBarManagerIOSSpecJSI_getHeightERNS_3jsi7RuntimeERNS0_11TurboModuleEPKNS1_5ValueEm, symObjAddr: 0xFF18, symBinAddr: 0x1F1A4, symSize: 0xA8 }
  - { offset: 0xF899E, size: 0x8, addend: 0x0, symName: __ZN8facebook5reactL82__hostFunction_NativeStatusBarManagerIOSSpecJSI_setNetworkActivityIndicatorVisibleERNS_3jsi7RuntimeERNS0_11TurboModuleEPKNS1_5ValueEm, symObjAddr: 0xFFC0, symBinAddr: 0x1F24C, symSize: 0xA8 }
  - { offset: 0xF8C4B, size: 0x8, addend: 0x0, symName: __ZN8facebook5reactL59__hostFunction_NativeStatusBarManagerIOSSpecJSI_addListenerERNS_3jsi7RuntimeERNS0_11TurboModuleEPKNS1_5ValueEm, symObjAddr: 0x10068, symBinAddr: 0x1F2F4, symSize: 0xA8 }
  - { offset: 0xF8EF8, size: 0x8, addend: 0x0, symName: __ZN8facebook5reactL63__hostFunction_NativeStatusBarManagerIOSSpecJSI_removeListenersERNS_3jsi7RuntimeERNS0_11TurboModuleEPKNS1_5ValueEm, symObjAddr: 0x10110, symBinAddr: 0x1F39C, symSize: 0xA8 }
  - { offset: 0xF91A5, size: 0x8, addend: 0x0, symName: __ZN8facebook5reactL56__hostFunction_NativeStatusBarManagerIOSSpecJSI_setStyleERNS_3jsi7RuntimeERNS0_11TurboModuleEPKNS1_5ValueEm, symObjAddr: 0x101B8, symBinAddr: 0x1F444, symSize: 0xA8 }
  - { offset: 0xF9452, size: 0x8, addend: 0x0, symName: __ZN8facebook5reactL57__hostFunction_NativeStatusBarManagerIOSSpecJSI_setHiddenERNS_3jsi7RuntimeERNS0_11TurboModuleEPKNS1_5ValueEm, symObjAddr: 0x10260, symBinAddr: 0x1F4EC, symSize: 0xA8 }
  - { offset: 0xF96FF, size: 0x8, addend: 0x0, symName: __ZN8facebook5reactL60__hostFunction_NativeStatusBarManagerIOSSpecJSI_getConstantsERNS_3jsi7RuntimeERNS0_11TurboModuleEPKNS1_5ValueEm, symObjAddr: 0x10308, symBinAddr: 0x1F594, symSize: 0xA8 }
  - { offset: 0xF99EA, size: 0x8, addend: 0x0, symName: __ZN8facebook5reactL46__hostFunction_NativeTimingSpecJSI_createTimerERNS_3jsi7RuntimeERNS0_11TurboModuleEPKNS1_5ValueEm, symObjAddr: 0x105BC, symBinAddr: 0x1F848, symSize: 0xA8 }
  - { offset: 0xF9C97, size: 0x8, addend: 0x0, symName: __ZN8facebook5reactL46__hostFunction_NativeTimingSpecJSI_deleteTimerERNS_3jsi7RuntimeERNS0_11TurboModuleEPKNS1_5ValueEm, symObjAddr: 0x10664, symBinAddr: 0x1F8F0, symSize: 0xA8 }
  - { offset: 0xF9F44, size: 0x8, addend: 0x0, symName: __ZN8facebook5reactL52__hostFunction_NativeTimingSpecJSI_setSendIdleEventsERNS_3jsi7RuntimeERNS0_11TurboModuleEPKNS1_5ValueEm, symObjAddr: 0x1070C, symBinAddr: 0x1F998, symSize: 0xA8 }
  - { offset: 0xFA22F, size: 0x8, addend: 0x0, symName: __ZN8facebook5reactL45__hostFunction_NativeVibrationSpecJSI_vibrateERNS_3jsi7RuntimeERNS0_11TurboModuleEPKNS1_5ValueEm, symObjAddr: 0x109BC, symBinAddr: 0x1FC48, symSize: 0xA8 }
  - { offset: 0xFA4DC, size: 0x8, addend: 0x0, symName: __ZN8facebook5reactL54__hostFunction_NativeVibrationSpecJSI_vibrateByPatternERNS_3jsi7RuntimeERNS0_11TurboModuleEPKNS1_5ValueEm, symObjAddr: 0x10A64, symBinAddr: 0x1FCF0, symSize: 0xA8 }
  - { offset: 0xFA789, size: 0x8, addend: 0x0, symName: __ZN8facebook5reactL44__hostFunction_NativeVibrationSpecJSI_cancelERNS_3jsi7RuntimeERNS0_11TurboModuleEPKNS1_5ValueEm, symObjAddr: 0x10B0C, symBinAddr: 0x1FD98, symSize: 0xA8 }
  - { offset: 0xFAA35, size: 0x8, addend: 0x0, symName: __ZN8facebook5react14managedPointerIN2JS21NativeWebSocketModule18SpecConnectOptionsEU8__strongP11objc_objectEEP17RCTManagedPointerT0_, symObjAddr: 0x10C5C, symBinAddr: 0x1FEE8, symSize: 0x120 }
  - { offset: 0xFAD2B, size: 0x8, addend: 0x0, symName: __ZN8facebook5reactL51__hostFunction_NativeWebSocketModuleSpecJSI_connectERNS_3jsi7RuntimeERNS0_11TurboModuleEPKNS1_5ValueEm, symObjAddr: 0x1108C, symBinAddr: 0x20318, symSize: 0xA8 }
  - { offset: 0xFAFD8, size: 0x8, addend: 0x0, symName: __ZN8facebook5reactL48__hostFunction_NativeWebSocketModuleSpecJSI_sendERNS_3jsi7RuntimeERNS0_11TurboModuleEPKNS1_5ValueEm, symObjAddr: 0x11134, symBinAddr: 0x203C0, symSize: 0xA8 }
  - { offset: 0xFB285, size: 0x8, addend: 0x0, symName: __ZN8facebook5reactL54__hostFunction_NativeWebSocketModuleSpecJSI_sendBinaryERNS_3jsi7RuntimeERNS0_11TurboModuleEPKNS1_5ValueEm, symObjAddr: 0x111DC, symBinAddr: 0x20468, symSize: 0xA8 }
  - { offset: 0xFB532, size: 0x8, addend: 0x0, symName: __ZN8facebook5reactL48__hostFunction_NativeWebSocketModuleSpecJSI_pingERNS_3jsi7RuntimeERNS0_11TurboModuleEPKNS1_5ValueEm, symObjAddr: 0x11284, symBinAddr: 0x20510, symSize: 0xA8 }
  - { offset: 0xFB7DF, size: 0x8, addend: 0x0, symName: __ZN8facebook5reactL49__hostFunction_NativeWebSocketModuleSpecJSI_closeERNS_3jsi7RuntimeERNS0_11TurboModuleEPKNS1_5ValueEm, symObjAddr: 0x1132C, symBinAddr: 0x205B8, symSize: 0xA8 }
  - { offset: 0xFBA8C, size: 0x8, addend: 0x0, symName: __ZN8facebook5reactL55__hostFunction_NativeWebSocketModuleSpecJSI_addListenerERNS_3jsi7RuntimeERNS0_11TurboModuleEPKNS1_5ValueEm, symObjAddr: 0x113D4, symBinAddr: 0x20660, symSize: 0xA8 }
  - { offset: 0xFBD39, size: 0x8, addend: 0x0, symName: __ZN8facebook5reactL59__hostFunction_NativeWebSocketModuleSpecJSI_removeListenersERNS_3jsi7RuntimeERNS0_11TurboModuleEPKNS1_5ValueEm, symObjAddr: 0x1147C, symBinAddr: 0x20708, symSize: 0xA8 }
  - { offset: 0xFCEF0, size: 0x8, addend: 0x0, symName: __ZN8facebook5react11TurboModule6createERNS_3jsi7RuntimeERKNS2_10PropNameIDE, symObjAddr: 0x11714, symBinAddr: 0x209A0, symSize: 0x240 }
  - { offset: 0xFE038, size: 0x8, addend: 0x0, symName: '-[NativeAccessibilityInfoSpecBase setEventEmitterCallback:]', symObjAddr: 0x0, symBinAddr: 0xF28C, symSize: 0x50 }
  - { offset: 0xFE09B, size: 0x8, addend: 0x0, symName: __ZNSt3__110__function12__value_funcIFvRKNS_12basic_stringIcNS_11char_traitsIcEENS_9allocatorIcEEEEP11objc_objectEEaSB8ne200100EOSD_, symObjAddr: 0x121E8, symBinAddr: 0x21180, symSize: 0x8C }
  - { offset: 0xFE190, size: 0x8, addend: 0x0, symName: '-[NativeAccessibilityInfoSpecBase .cxx_destruct]', symObjAddr: 0x50, symBinAddr: 0xF2DC, symSize: 0x30 }
  - { offset: 0xFE2B6, size: 0x8, addend: 0x0, symName: '-[NativeAccessibilityInfoSpecBase .cxx_construct]', symObjAddr: 0x80, symBinAddr: 0xF30C, symSize: 0x8 }
  - { offset: 0xFE2ED, size: 0x8, addend: 0x0, symName: '-[NativeAccessibilityInfoSpecBase .cxx_construct]', symObjAddr: 0x80, symBinAddr: 0xF30C, symSize: 0x8 }
  - { offset: 0xFE30A, size: 0x8, addend: 0x0, symName: '-[NativeAccessibilityInfoSpecBase .cxx_construct]', symObjAddr: 0x80, symBinAddr: 0xF30C, symSize: 0x8 }
  - { offset: 0xFE328, size: 0x8, addend: 0x0, symName: '-[NativeAccessibilityInfoSpecBase .cxx_construct]', symObjAddr: 0x80, symBinAddr: 0xF30C, symSize: 0x8 }
  - { offset: 0xFE346, size: 0x8, addend: 0x0, symName: '-[NativeAccessibilityInfoSpecBase .cxx_construct]', symObjAddr: 0x80, symBinAddr: 0xF30C, symSize: 0x8 }
  - { offset: 0xFE851, size: 0x8, addend: 0x0, symName: __ZN8facebook5react30NativeAccessibilityInfoSpecJSIC2ERKNS0_15ObjCTurboModule10InitParamsE, symObjAddr: 0x88, symBinAddr: 0xF314, symSize: 0x3A8 }
  - { offset: 0xFF8DE, size: 0x8, addend: 0x0, symName: __ZNSt3__112__hash_tableINS_17__hash_value_typeINS_12basic_stringIcNS_11char_traitsIcEENS_9allocatorIcEEEEN8facebook5react11TurboModule14MethodMetadataEEENS_22__unordered_map_hasherIS7_SC_NS_4hashIS7_EENS_8equal_toIS7_EELb1EEENS_21__unordered_map_equalIS7_SC_SH_SF_Lb1EEENS5_ISC_EEE25__emplace_unique_key_argsIS7_JRKNS_21piecewise_construct_tENS_5tupleIJOS7_EEENSR_IJEEEEEENS_4pairINS_15__hash_iteratorIPNS_11__hash_nodeISC_PvEEEEbEERKT_DpOT0_, symObjAddr: 0x12274, symBinAddr: 0x2120C, symSize: 0x26C }
  - { offset: 0xFFFFB, size: 0x8, addend: 0x0, symName: __ZN8facebook5react15ObjCTurboModuleD2Ev, symObjAddr: 0xA18, symBinAddr: 0xFCA4, symSize: 0x94 }
  - { offset: 0x100430, size: 0x8, addend: 0x0, symName: __ZNSt3__110unique_ptrIN8facebook3jsi10WeakObjectENS_14default_deleteIS3_EEE5resetB8ne200100EPS3_, symObjAddr: 0x11FC4, symBinAddr: 0x210BC, symSize: 0x48 }
  - { offset: 0x1005D4, size: 0x8, addend: 0x0, symName: __ZNSt3__112__hash_tableINS_17__hash_value_typeINS_12basic_stringIcNS_11char_traitsIcEENS_9allocatorIcEEEEN8facebook5react11TurboModule14MethodMetadataEEENS_22__unordered_map_hasherIS7_SC_NS_4hashIS7_EENS_8equal_toIS7_EELb1EEENS_21__unordered_map_equalIS7_SC_SH_SF_Lb1EEENS5_ISC_EEED2Ev, symObjAddr: 0x12114, symBinAddr: 0x21104, symSize: 0x38 }
  - { offset: 0x100788, size: 0x8, addend: 0x0, symName: __ZN8facebook5react30NativeAccessibilityInfoSpecJSIC1ERKNS0_15ObjCTurboModule10InitParamsE, symObjAddr: 0xAAC, symBinAddr: 0xFD38, symSize: 0x4 }
  - { offset: 0x1007C4, size: 0x8, addend: 0x0, symName: __ZN8facebook5react30NativeAccessibilityInfoSpecJSIC1ERKNS0_15ObjCTurboModule10InitParamsE, symObjAddr: 0xAAC, symBinAddr: 0xFD38, symSize: 0x4 }
  - { offset: 0x1007DE, size: 0x8, addend: 0x0, symName: '-[NativeAccessibilityManagerSpecBase setEventEmitterCallback:]', symObjAddr: 0xAB0, symBinAddr: 0xFD3C, symSize: 0x50 }
  - { offset: 0x100841, size: 0x8, addend: 0x0, symName: '-[NativeAccessibilityManagerSpecBase .cxx_destruct]', symObjAddr: 0xB00, symBinAddr: 0xFD8C, symSize: 0x30 }
  - { offset: 0x1008FF, size: 0x8, addend: 0x0, symName: '-[NativeAccessibilityManagerSpecBase .cxx_construct]', symObjAddr: 0xB30, symBinAddr: 0xFDBC, symSize: 0x8 }
  - { offset: 0x100936, size: 0x8, addend: 0x0, symName: '-[NativeAccessibilityManagerSpecBase .cxx_construct]', symObjAddr: 0xB30, symBinAddr: 0xFDBC, symSize: 0x8 }
  - { offset: 0x100953, size: 0x8, addend: 0x0, symName: '-[NativeAccessibilityManagerSpecBase .cxx_construct]', symObjAddr: 0xB30, symBinAddr: 0xFDBC, symSize: 0x8 }
  - { offset: 0x100971, size: 0x8, addend: 0x0, symName: '-[NativeAccessibilityManagerSpecBase .cxx_construct]', symObjAddr: 0xB30, symBinAddr: 0xFDBC, symSize: 0x8 }
  - { offset: 0x10098F, size: 0x8, addend: 0x0, symName: '-[NativeAccessibilityManagerSpecBase .cxx_construct]', symObjAddr: 0xB30, symBinAddr: 0xFDBC, symSize: 0x8 }
  - { offset: 0x1009AF, size: 0x8, addend: 0x0, symName: '+[RCTCxxConvert(NativeAccessibilityManager_SpecSetAccessibilityContentSizeMultipliersJSMultipliers) JS_NativeAccessibilityManager_SpecSetAccessibilityContentSizeMultipliersJSMultipliers:]', symObjAddr: 0xB38, symBinAddr: 0xFDC4, symSize: 0x1C }
  - { offset: 0x10181F, size: 0x8, addend: 0x0, symName: __ZNSt3__110shared_ptrIvEC2B8ne200100IN2JS26NativeAccessibilityManager55SpecSetAccessibilityContentSizeMultipliersJSMultipliersELi0EEEPT_, symObjAddr: 0x12C74, symBinAddr: 0x21C0C, symSize: 0x6C }
  - { offset: 0x1019E9, size: 0x8, addend: 0x0, symName: '+[RCTCxxConvert(NativeAccessibilityManager_SpecAnnounceForAccessibilityWithOptionsOptions) JS_NativeAccessibilityManager_SpecAnnounceForAccessibilityWithOptionsOptions:]', symObjAddr: 0xC74, symBinAddr: 0xFF00, symSize: 0x1C }
  - { offset: 0x101AD8, size: 0x8, addend: 0x0, symName: __ZNSt3__110shared_ptrIvEC2B8ne200100IN2JS26NativeAccessibilityManager46SpecAnnounceForAccessibilityWithOptionsOptionsELi0EEEPT_, symObjAddr: 0x12E4C, symBinAddr: 0x21D40, symSize: 0x6C }
  - { offset: 0x101C55, size: 0x8, addend: 0x0, symName: __ZN8facebook5react33NativeAccessibilityManagerSpecJSIC2ERKNS0_15ObjCTurboModule10InitParamsE, symObjAddr: 0xDB0, symBinAddr: 0x1003C, symSize: 0x4F8 }
  - { offset: 0x102FE0, size: 0x8, addend: 0x0, symName: __ZN8facebook5react33NativeAccessibilityManagerSpecJSIC1ERKNS0_15ObjCTurboModule10InitParamsE, symObjAddr: 0x1A88, symBinAddr: 0x10D14, symSize: 0x4 }
  - { offset: 0x10301C, size: 0x8, addend: 0x0, symName: __ZN8facebook5react33NativeAccessibilityManagerSpecJSIC1ERKNS0_15ObjCTurboModule10InitParamsE, symObjAddr: 0x1A88, symBinAddr: 0x10D14, symSize: 0x4 }
  - { offset: 0x103036, size: 0x8, addend: 0x0, symName: '-[NativeActionSheetManagerSpecBase setEventEmitterCallback:]', symObjAddr: 0x1A8C, symBinAddr: 0x10D18, symSize: 0x50 }
  - { offset: 0x103099, size: 0x8, addend: 0x0, symName: '-[NativeActionSheetManagerSpecBase .cxx_destruct]', symObjAddr: 0x1ADC, symBinAddr: 0x10D68, symSize: 0x30 }
  - { offset: 0x103157, size: 0x8, addend: 0x0, symName: '-[NativeActionSheetManagerSpecBase .cxx_construct]', symObjAddr: 0x1B0C, symBinAddr: 0x10D98, symSize: 0x8 }
  - { offset: 0x10318E, size: 0x8, addend: 0x0, symName: '-[NativeActionSheetManagerSpecBase .cxx_construct]', symObjAddr: 0x1B0C, symBinAddr: 0x10D98, symSize: 0x8 }
  - { offset: 0x1031AB, size: 0x8, addend: 0x0, symName: '-[NativeActionSheetManagerSpecBase .cxx_construct]', symObjAddr: 0x1B0C, symBinAddr: 0x10D98, symSize: 0x8 }
  - { offset: 0x1031C9, size: 0x8, addend: 0x0, symName: '-[NativeActionSheetManagerSpecBase .cxx_construct]', symObjAddr: 0x1B0C, symBinAddr: 0x10D98, symSize: 0x8 }
  - { offset: 0x1031E7, size: 0x8, addend: 0x0, symName: '-[NativeActionSheetManagerSpecBase .cxx_construct]', symObjAddr: 0x1B0C, symBinAddr: 0x10D98, symSize: 0x8 }
  - { offset: 0x103207, size: 0x8, addend: 0x0, symName: '+[RCTCxxConvert(NativeActionSheetManager_SpecShowActionSheetWithOptionsOptions) JS_NativeActionSheetManager_SpecShowActionSheetWithOptionsOptions:]', symObjAddr: 0x1B14, symBinAddr: 0x10DA0, symSize: 0x1C }
  - { offset: 0x103C8C, size: 0x8, addend: 0x0, symName: __ZNSt3__110shared_ptrIvEC2B8ne200100IN2JS24NativeActionSheetManager37SpecShowActionSheetWithOptionsOptionsELi0EEEPT_, symObjAddr: 0x12F80, symBinAddr: 0x21E38, symSize: 0x6C }
  - { offset: 0x103E03, size: 0x8, addend: 0x0, symName: '+[RCTCxxConvert(NativeActionSheetManager_SpecShowShareActionSheetWithOptionsOptions) JS_NativeActionSheetManager_SpecShowShareActionSheetWithOptionsOptions:]', symObjAddr: 0x1C50, symBinAddr: 0x10EDC, symSize: 0x1C }
  - { offset: 0x103EF2, size: 0x8, addend: 0x0, symName: __ZNSt3__110shared_ptrIvEC2B8ne200100IN2JS24NativeActionSheetManager42SpecShowShareActionSheetWithOptionsOptionsELi0EEEPT_, symObjAddr: 0x130B4, symBinAddr: 0x21F30, symSize: 0x6C }
  - { offset: 0x10406F, size: 0x8, addend: 0x0, symName: __ZN8facebook5react31NativeActionSheetManagerSpecJSIC2ERKNS0_15ObjCTurboModule10InitParamsE, symObjAddr: 0x1D8C, symBinAddr: 0x11018, symSize: 0x1B8 }
  - { offset: 0x10460E, size: 0x8, addend: 0x0, symName: __ZN8facebook5react31NativeActionSheetManagerSpecJSIC1ERKNS0_15ObjCTurboModule10InitParamsE, symObjAddr: 0x213C, symBinAddr: 0x113C8, symSize: 0x4 }
  - { offset: 0x10464A, size: 0x8, addend: 0x0, symName: __ZN8facebook5react31NativeActionSheetManagerSpecJSIC1ERKNS0_15ObjCTurboModule10InitParamsE, symObjAddr: 0x213C, symBinAddr: 0x113C8, symSize: 0x4 }
  - { offset: 0x104664, size: 0x8, addend: 0x0, symName: '-[NativeAlertManagerSpecBase setEventEmitterCallback:]', symObjAddr: 0x2140, symBinAddr: 0x113CC, symSize: 0x50 }
  - { offset: 0x1046CB, size: 0x8, addend: 0x0, symName: '-[NativeAlertManagerSpecBase .cxx_destruct]', symObjAddr: 0x2190, symBinAddr: 0x1141C, symSize: 0x30 }
  - { offset: 0x10478B, size: 0x8, addend: 0x0, symName: '-[NativeAlertManagerSpecBase .cxx_construct]', symObjAddr: 0x21C0, symBinAddr: 0x1144C, symSize: 0x8 }
  - { offset: 0x1047C3, size: 0x8, addend: 0x0, symName: '-[NativeAlertManagerSpecBase .cxx_construct]', symObjAddr: 0x21C0, symBinAddr: 0x1144C, symSize: 0x8 }
  - { offset: 0x1047E1, size: 0x8, addend: 0x0, symName: '-[NativeAlertManagerSpecBase .cxx_construct]', symObjAddr: 0x21C0, symBinAddr: 0x1144C, symSize: 0x8 }
  - { offset: 0x1047FF, size: 0x8, addend: 0x0, symName: '-[NativeAlertManagerSpecBase .cxx_construct]', symObjAddr: 0x21C0, symBinAddr: 0x1144C, symSize: 0x8 }
  - { offset: 0x10481D, size: 0x8, addend: 0x0, symName: '-[NativeAlertManagerSpecBase .cxx_construct]', symObjAddr: 0x21C0, symBinAddr: 0x1144C, symSize: 0x8 }
  - { offset: 0x10483D, size: 0x8, addend: 0x0, symName: '+[RCTCxxConvert(NativeAlertManager_Args) JS_NativeAlertManager_Args:]', symObjAddr: 0x21C8, symBinAddr: 0x11454, symSize: 0x1C }
  - { offset: 0x104AAF, size: 0x8, addend: 0x0, symName: __ZNSt3__110shared_ptrIvEC2B8ne200100IN2JS18NativeAlertManager4ArgsELi0EEEPT_, symObjAddr: 0x131E8, symBinAddr: 0x22028, symSize: 0x6C }
  - { offset: 0x104C2C, size: 0x8, addend: 0x0, symName: __ZN8facebook5react25NativeAlertManagerSpecJSIC2ERKNS0_15ObjCTurboModule10InitParamsE, symObjAddr: 0x2304, symBinAddr: 0x11590, symSize: 0xDC }
  - { offset: 0x104F12, size: 0x8, addend: 0x0, symName: __ZN8facebook5react25NativeAlertManagerSpecJSIC1ERKNS0_15ObjCTurboModule10InitParamsE, symObjAddr: 0x2488, symBinAddr: 0x11714, symSize: 0x4 }
  - { offset: 0x104F50, size: 0x8, addend: 0x0, symName: __ZN8facebook5react25NativeAlertManagerSpecJSIC1ERKNS0_15ObjCTurboModule10InitParamsE, symObjAddr: 0x2488, symBinAddr: 0x11714, symSize: 0x4 }
  - { offset: 0x104F6A, size: 0x8, addend: 0x0, symName: '-[NativeAnimatedModuleSpecBase setEventEmitterCallback:]', symObjAddr: 0x248C, symBinAddr: 0x11718, symSize: 0x50 }
  - { offset: 0x104FD1, size: 0x8, addend: 0x0, symName: '-[NativeAnimatedModuleSpecBase .cxx_destruct]', symObjAddr: 0x24DC, symBinAddr: 0x11768, symSize: 0x30 }
  - { offset: 0x105091, size: 0x8, addend: 0x0, symName: '-[NativeAnimatedModuleSpecBase .cxx_construct]', symObjAddr: 0x250C, symBinAddr: 0x11798, symSize: 0x8 }
  - { offset: 0x1050C9, size: 0x8, addend: 0x0, symName: '-[NativeAnimatedModuleSpecBase .cxx_construct]', symObjAddr: 0x250C, symBinAddr: 0x11798, symSize: 0x8 }
  - { offset: 0x1050E7, size: 0x8, addend: 0x0, symName: '-[NativeAnimatedModuleSpecBase .cxx_construct]', symObjAddr: 0x250C, symBinAddr: 0x11798, symSize: 0x8 }
  - { offset: 0x105105, size: 0x8, addend: 0x0, symName: '-[NativeAnimatedModuleSpecBase .cxx_construct]', symObjAddr: 0x250C, symBinAddr: 0x11798, symSize: 0x8 }
  - { offset: 0x105123, size: 0x8, addend: 0x0, symName: '-[NativeAnimatedModuleSpecBase .cxx_construct]', symObjAddr: 0x250C, symBinAddr: 0x11798, symSize: 0x8 }
  - { offset: 0x105143, size: 0x8, addend: 0x0, symName: '+[RCTCxxConvert(NativeAnimatedModule_EventMapping) JS_NativeAnimatedModule_EventMapping:]', symObjAddr: 0x2514, symBinAddr: 0x117A0, symSize: 0x1C }
  - { offset: 0x105239, size: 0x8, addend: 0x0, symName: __ZNSt3__110shared_ptrIvEC2B8ne200100IN2JS20NativeAnimatedModule12EventMappingELi0EEEPT_, symObjAddr: 0x1331C, symBinAddr: 0x22120, symSize: 0x6C }
  - { offset: 0x1053B6, size: 0x8, addend: 0x0, symName: __ZN8facebook5react27NativeAnimatedModuleSpecJSIC2ERKNS0_15ObjCTurboModule10InitParamsE, symObjAddr: 0x2650, symBinAddr: 0x118DC, symSize: 0x924 }
  - { offset: 0x107A1C, size: 0x8, addend: 0x0, symName: __ZN8facebook5react27NativeAnimatedModuleSpecJSIC1ERKNS0_15ObjCTurboModule10InitParamsE, symObjAddr: 0x3F34, symBinAddr: 0x131C0, symSize: 0x4 }
  - { offset: 0x107A5A, size: 0x8, addend: 0x0, symName: __ZN8facebook5react27NativeAnimatedModuleSpecJSIC1ERKNS0_15ObjCTurboModule10InitParamsE, symObjAddr: 0x3F34, symBinAddr: 0x131C0, symSize: 0x4 }
  - { offset: 0x107A74, size: 0x8, addend: 0x0, symName: '-[NativeAnimatedTurboModuleSpecBase setEventEmitterCallback:]', symObjAddr: 0x3F38, symBinAddr: 0x131C4, symSize: 0x50 }
  - { offset: 0x107ADB, size: 0x8, addend: 0x0, symName: '-[NativeAnimatedTurboModuleSpecBase .cxx_destruct]', symObjAddr: 0x3F88, symBinAddr: 0x13214, symSize: 0x30 }
  - { offset: 0x107B9B, size: 0x8, addend: 0x0, symName: '-[NativeAnimatedTurboModuleSpecBase .cxx_construct]', symObjAddr: 0x3FB8, symBinAddr: 0x13244, symSize: 0x8 }
  - { offset: 0x107BD3, size: 0x8, addend: 0x0, symName: '-[NativeAnimatedTurboModuleSpecBase .cxx_construct]', symObjAddr: 0x3FB8, symBinAddr: 0x13244, symSize: 0x8 }
  - { offset: 0x107BF1, size: 0x8, addend: 0x0, symName: '-[NativeAnimatedTurboModuleSpecBase .cxx_construct]', symObjAddr: 0x3FB8, symBinAddr: 0x13244, symSize: 0x8 }
  - { offset: 0x107C0F, size: 0x8, addend: 0x0, symName: '-[NativeAnimatedTurboModuleSpecBase .cxx_construct]', symObjAddr: 0x3FB8, symBinAddr: 0x13244, symSize: 0x8 }
  - { offset: 0x107C2D, size: 0x8, addend: 0x0, symName: '-[NativeAnimatedTurboModuleSpecBase .cxx_construct]', symObjAddr: 0x3FB8, symBinAddr: 0x13244, symSize: 0x8 }
  - { offset: 0x107C4D, size: 0x8, addend: 0x0, symName: '+[RCTCxxConvert(NativeAnimatedTurboModule_EventMapping) JS_NativeAnimatedTurboModule_EventMapping:]', symObjAddr: 0x3FC0, symBinAddr: 0x1324C, symSize: 0x1C }
  - { offset: 0x107D43, size: 0x8, addend: 0x0, symName: __ZNSt3__110shared_ptrIvEC2B8ne200100IN2JS25NativeAnimatedTurboModule12EventMappingELi0EEEPT_, symObjAddr: 0x13450, symBinAddr: 0x22218, symSize: 0x6C }
  - { offset: 0x107EC0, size: 0x8, addend: 0x0, symName: __ZN8facebook5react32NativeAnimatedTurboModuleSpecJSIC2ERKNS0_15ObjCTurboModule10InitParamsE, symObjAddr: 0x40FC, symBinAddr: 0x13388, symSize: 0x924 }
  - { offset: 0x10A526, size: 0x8, addend: 0x0, symName: __ZN8facebook5react32NativeAnimatedTurboModuleSpecJSIC1ERKNS0_15ObjCTurboModule10InitParamsE, symObjAddr: 0x59E0, symBinAddr: 0x14C6C, symSize: 0x4 }
  - { offset: 0x10A564, size: 0x8, addend: 0x0, symName: __ZN8facebook5react32NativeAnimatedTurboModuleSpecJSIC1ERKNS0_15ObjCTurboModule10InitParamsE, symObjAddr: 0x59E0, symBinAddr: 0x14C6C, symSize: 0x4 }
  - { offset: 0x10A57E, size: 0x8, addend: 0x0, symName: '-[NativeAppStateSpecBase setEventEmitterCallback:]', symObjAddr: 0x59E4, symBinAddr: 0x14C70, symSize: 0x50 }
  - { offset: 0x10A5E5, size: 0x8, addend: 0x0, symName: '-[NativeAppStateSpecBase .cxx_destruct]', symObjAddr: 0x5A34, symBinAddr: 0x14CC0, symSize: 0x30 }
  - { offset: 0x10A6A5, size: 0x8, addend: 0x0, symName: '-[NativeAppStateSpecBase .cxx_construct]', symObjAddr: 0x5A64, symBinAddr: 0x14CF0, symSize: 0x8 }
  - { offset: 0x10A6DD, size: 0x8, addend: 0x0, symName: '-[NativeAppStateSpecBase .cxx_construct]', symObjAddr: 0x5A64, symBinAddr: 0x14CF0, symSize: 0x8 }
  - { offset: 0x10A6FB, size: 0x8, addend: 0x0, symName: '-[NativeAppStateSpecBase .cxx_construct]', symObjAddr: 0x5A64, symBinAddr: 0x14CF0, symSize: 0x8 }
  - { offset: 0x10A719, size: 0x8, addend: 0x0, symName: '-[NativeAppStateSpecBase .cxx_construct]', symObjAddr: 0x5A64, symBinAddr: 0x14CF0, symSize: 0x8 }
  - { offset: 0x10A737, size: 0x8, addend: 0x0, symName: '-[NativeAppStateSpecBase .cxx_construct]', symObjAddr: 0x5A64, symBinAddr: 0x14CF0, symSize: 0x8 }
  - { offset: 0x10A75D, size: 0x8, addend: 0x0, symName: __ZN8facebook5react21NativeAppStateSpecJSIC2ERKNS0_15ObjCTurboModule10InitParamsE, symObjAddr: 0x5A6C, symBinAddr: 0x14CF8, symSize: 0x1D8 }
  - { offset: 0x10AE97, size: 0x8, addend: 0x0, symName: __ZN8facebook5react21NativeAppStateSpecJSIC1ERKNS0_15ObjCTurboModule10InitParamsE, symObjAddr: 0x5EE4, symBinAddr: 0x15170, symSize: 0x4 }
  - { offset: 0x10AED5, size: 0x8, addend: 0x0, symName: __ZN8facebook5react21NativeAppStateSpecJSIC1ERKNS0_15ObjCTurboModule10InitParamsE, symObjAddr: 0x5EE4, symBinAddr: 0x15170, symSize: 0x4 }
  - { offset: 0x10AEEF, size: 0x8, addend: 0x0, symName: '-[NativeAppearanceSpecBase setEventEmitterCallback:]', symObjAddr: 0x5EE8, symBinAddr: 0x15174, symSize: 0x50 }
  - { offset: 0x10AF56, size: 0x8, addend: 0x0, symName: '-[NativeAppearanceSpecBase .cxx_destruct]', symObjAddr: 0x5F38, symBinAddr: 0x151C4, symSize: 0x30 }
  - { offset: 0x10B016, size: 0x8, addend: 0x0, symName: '-[NativeAppearanceSpecBase .cxx_construct]', symObjAddr: 0x5F68, symBinAddr: 0x151F4, symSize: 0x8 }
  - { offset: 0x10B04E, size: 0x8, addend: 0x0, symName: '-[NativeAppearanceSpecBase .cxx_construct]', symObjAddr: 0x5F68, symBinAddr: 0x151F4, symSize: 0x8 }
  - { offset: 0x10B06C, size: 0x8, addend: 0x0, symName: '-[NativeAppearanceSpecBase .cxx_construct]', symObjAddr: 0x5F68, symBinAddr: 0x151F4, symSize: 0x8 }
  - { offset: 0x10B08A, size: 0x8, addend: 0x0, symName: '-[NativeAppearanceSpecBase .cxx_construct]', symObjAddr: 0x5F68, symBinAddr: 0x151F4, symSize: 0x8 }
  - { offset: 0x10B0A8, size: 0x8, addend: 0x0, symName: '-[NativeAppearanceSpecBase .cxx_construct]', symObjAddr: 0x5F68, symBinAddr: 0x151F4, symSize: 0x8 }
  - { offset: 0x10B0CE, size: 0x8, addend: 0x0, symName: __ZN8facebook5react23NativeAppearanceSpecJSIC2ERKNS0_15ObjCTurboModule10InitParamsE, symObjAddr: 0x5F70, symBinAddr: 0x151FC, symSize: 0x1D8 }
  - { offset: 0x10B808, size: 0x8, addend: 0x0, symName: __ZN8facebook5react23NativeAppearanceSpecJSIC1ERKNS0_15ObjCTurboModule10InitParamsE, symObjAddr: 0x63E8, symBinAddr: 0x15674, symSize: 0x4 }
  - { offset: 0x10B846, size: 0x8, addend: 0x0, symName: __ZN8facebook5react23NativeAppearanceSpecJSIC1ERKNS0_15ObjCTurboModule10InitParamsE, symObjAddr: 0x63E8, symBinAddr: 0x15674, symSize: 0x4 }
  - { offset: 0x10B860, size: 0x8, addend: 0x0, symName: '-[NativeBlobModuleSpecBase setEventEmitterCallback:]', symObjAddr: 0x63EC, symBinAddr: 0x15678, symSize: 0x50 }
  - { offset: 0x10B8C7, size: 0x8, addend: 0x0, symName: '-[NativeBlobModuleSpecBase .cxx_destruct]', symObjAddr: 0x643C, symBinAddr: 0x156C8, symSize: 0x30 }
  - { offset: 0x10B987, size: 0x8, addend: 0x0, symName: '-[NativeBlobModuleSpecBase .cxx_construct]', symObjAddr: 0x646C, symBinAddr: 0x156F8, symSize: 0x8 }
  - { offset: 0x10B9BF, size: 0x8, addend: 0x0, symName: '-[NativeBlobModuleSpecBase .cxx_construct]', symObjAddr: 0x646C, symBinAddr: 0x156F8, symSize: 0x8 }
  - { offset: 0x10B9DD, size: 0x8, addend: 0x0, symName: '-[NativeBlobModuleSpecBase .cxx_construct]', symObjAddr: 0x646C, symBinAddr: 0x156F8, symSize: 0x8 }
  - { offset: 0x10B9FB, size: 0x8, addend: 0x0, symName: '-[NativeBlobModuleSpecBase .cxx_construct]', symObjAddr: 0x646C, symBinAddr: 0x156F8, symSize: 0x8 }
  - { offset: 0x10BA19, size: 0x8, addend: 0x0, symName: '-[NativeBlobModuleSpecBase .cxx_construct]', symObjAddr: 0x646C, symBinAddr: 0x156F8, symSize: 0x8 }
  - { offset: 0x10BA3F, size: 0x8, addend: 0x0, symName: __ZN8facebook5react23NativeBlobModuleSpecJSIC2ERKNS0_15ObjCTurboModule10InitParamsE, symObjAddr: 0x6474, symBinAddr: 0x15700, symSize: 0x2E8 }
  - { offset: 0x10C626, size: 0x8, addend: 0x0, symName: __ZN8facebook5react23NativeBlobModuleSpecJSIC1ERKNS0_15ObjCTurboModule10InitParamsE, symObjAddr: 0x6BF4, symBinAddr: 0x15E80, symSize: 0x4 }
  - { offset: 0x10C664, size: 0x8, addend: 0x0, symName: __ZN8facebook5react23NativeBlobModuleSpecJSIC1ERKNS0_15ObjCTurboModule10InitParamsE, symObjAddr: 0x6BF4, symBinAddr: 0x15E80, symSize: 0x4 }
  - { offset: 0x10C67E, size: 0x8, addend: 0x0, symName: '-[NativeClipboardSpecBase setEventEmitterCallback:]', symObjAddr: 0x6BF8, symBinAddr: 0x15E84, symSize: 0x50 }
  - { offset: 0x10C6E5, size: 0x8, addend: 0x0, symName: '-[NativeClipboardSpecBase .cxx_destruct]', symObjAddr: 0x6C48, symBinAddr: 0x15ED4, symSize: 0x30 }
  - { offset: 0x10C7A5, size: 0x8, addend: 0x0, symName: '-[NativeClipboardSpecBase .cxx_construct]', symObjAddr: 0x6C78, symBinAddr: 0x15F04, symSize: 0x8 }
  - { offset: 0x10C7DD, size: 0x8, addend: 0x0, symName: '-[NativeClipboardSpecBase .cxx_construct]', symObjAddr: 0x6C78, symBinAddr: 0x15F04, symSize: 0x8 }
  - { offset: 0x10C7FB, size: 0x8, addend: 0x0, symName: '-[NativeClipboardSpecBase .cxx_construct]', symObjAddr: 0x6C78, symBinAddr: 0x15F04, symSize: 0x8 }
  - { offset: 0x10C819, size: 0x8, addend: 0x0, symName: '-[NativeClipboardSpecBase .cxx_construct]', symObjAddr: 0x6C78, symBinAddr: 0x15F04, symSize: 0x8 }
  - { offset: 0x10C837, size: 0x8, addend: 0x0, symName: '-[NativeClipboardSpecBase .cxx_construct]', symObjAddr: 0x6C78, symBinAddr: 0x15F04, symSize: 0x8 }
  - { offset: 0x10C85D, size: 0x8, addend: 0x0, symName: __ZN8facebook5react22NativeClipboardSpecJSIC2ERKNS0_15ObjCTurboModule10InitParamsE, symObjAddr: 0x6C80, symBinAddr: 0x15F0C, symSize: 0x120 }
  - { offset: 0x10CC79, size: 0x8, addend: 0x0, symName: __ZN8facebook5react22NativeClipboardSpecJSIC1ERKNS0_15ObjCTurboModule10InitParamsE, symObjAddr: 0x6EF0, symBinAddr: 0x1617C, symSize: 0x4 }
  - { offset: 0x10CCB7, size: 0x8, addend: 0x0, symName: __ZN8facebook5react22NativeClipboardSpecJSIC1ERKNS0_15ObjCTurboModule10InitParamsE, symObjAddr: 0x6EF0, symBinAddr: 0x1617C, symSize: 0x4 }
  - { offset: 0x10CCD1, size: 0x8, addend: 0x0, symName: '-[NativeDevLoadingViewSpecBase setEventEmitterCallback:]', symObjAddr: 0x6EF4, symBinAddr: 0x16180, symSize: 0x50 }
  - { offset: 0x10CD38, size: 0x8, addend: 0x0, symName: '-[NativeDevLoadingViewSpecBase .cxx_destruct]', symObjAddr: 0x6F44, symBinAddr: 0x161D0, symSize: 0x30 }
  - { offset: 0x10CDF8, size: 0x8, addend: 0x0, symName: '-[NativeDevLoadingViewSpecBase .cxx_construct]', symObjAddr: 0x6F74, symBinAddr: 0x16200, symSize: 0x8 }
  - { offset: 0x10CE30, size: 0x8, addend: 0x0, symName: '-[NativeDevLoadingViewSpecBase .cxx_construct]', symObjAddr: 0x6F74, symBinAddr: 0x16200, symSize: 0x8 }
  - { offset: 0x10CE4E, size: 0x8, addend: 0x0, symName: '-[NativeDevLoadingViewSpecBase .cxx_construct]', symObjAddr: 0x6F74, symBinAddr: 0x16200, symSize: 0x8 }
  - { offset: 0x10CE6C, size: 0x8, addend: 0x0, symName: '-[NativeDevLoadingViewSpecBase .cxx_construct]', symObjAddr: 0x6F74, symBinAddr: 0x16200, symSize: 0x8 }
  - { offset: 0x10CE8A, size: 0x8, addend: 0x0, symName: '-[NativeDevLoadingViewSpecBase .cxx_construct]', symObjAddr: 0x6F74, symBinAddr: 0x16200, symSize: 0x8 }
  - { offset: 0x10CEB0, size: 0x8, addend: 0x0, symName: __ZN8facebook5react27NativeDevLoadingViewSpecJSIC2ERKNS0_15ObjCTurboModule10InitParamsE, symObjAddr: 0x6F7C, symBinAddr: 0x16208, symSize: 0x120 }
  - { offset: 0x10D2CC, size: 0x8, addend: 0x0, symName: __ZN8facebook5react27NativeDevLoadingViewSpecJSIC1ERKNS0_15ObjCTurboModule10InitParamsE, symObjAddr: 0x71EC, symBinAddr: 0x16478, symSize: 0x4 }
  - { offset: 0x10D30A, size: 0x8, addend: 0x0, symName: __ZN8facebook5react27NativeDevLoadingViewSpecJSIC1ERKNS0_15ObjCTurboModule10InitParamsE, symObjAddr: 0x71EC, symBinAddr: 0x16478, symSize: 0x4 }
  - { offset: 0x10D324, size: 0x8, addend: 0x0, symName: '-[NativeDevMenuSpecBase setEventEmitterCallback:]', symObjAddr: 0x71F0, symBinAddr: 0x1647C, symSize: 0x50 }
  - { offset: 0x10D38B, size: 0x8, addend: 0x0, symName: '-[NativeDevMenuSpecBase .cxx_destruct]', symObjAddr: 0x7240, symBinAddr: 0x164CC, symSize: 0x30 }
  - { offset: 0x10D44B, size: 0x8, addend: 0x0, symName: '-[NativeDevMenuSpecBase .cxx_construct]', symObjAddr: 0x7270, symBinAddr: 0x164FC, symSize: 0x8 }
  - { offset: 0x10D483, size: 0x8, addend: 0x0, symName: '-[NativeDevMenuSpecBase .cxx_construct]', symObjAddr: 0x7270, symBinAddr: 0x164FC, symSize: 0x8 }
  - { offset: 0x10D4A1, size: 0x8, addend: 0x0, symName: '-[NativeDevMenuSpecBase .cxx_construct]', symObjAddr: 0x7270, symBinAddr: 0x164FC, symSize: 0x8 }
  - { offset: 0x10D4BF, size: 0x8, addend: 0x0, symName: '-[NativeDevMenuSpecBase .cxx_construct]', symObjAddr: 0x7270, symBinAddr: 0x164FC, symSize: 0x8 }
  - { offset: 0x10D4DD, size: 0x8, addend: 0x0, symName: '-[NativeDevMenuSpecBase .cxx_construct]', symObjAddr: 0x7270, symBinAddr: 0x164FC, symSize: 0x8 }
  - { offset: 0x10D503, size: 0x8, addend: 0x0, symName: __ZN8facebook5react20NativeDevMenuSpecJSIC2ERKNS0_15ObjCTurboModule10InitParamsE, symObjAddr: 0x7278, symBinAddr: 0x16504, symSize: 0x1D4 }
  - { offset: 0x10DC3D, size: 0x8, addend: 0x0, symName: __ZN8facebook5react20NativeDevMenuSpecJSIC1ERKNS0_15ObjCTurboModule10InitParamsE, symObjAddr: 0x76EC, symBinAddr: 0x16978, symSize: 0x4 }
  - { offset: 0x10DC7B, size: 0x8, addend: 0x0, symName: __ZN8facebook5react20NativeDevMenuSpecJSIC1ERKNS0_15ObjCTurboModule10InitParamsE, symObjAddr: 0x76EC, symBinAddr: 0x16978, symSize: 0x4 }
  - { offset: 0x10DC95, size: 0x8, addend: 0x0, symName: '-[NativeDevSettingsSpecBase setEventEmitterCallback:]', symObjAddr: 0x76F0, symBinAddr: 0x1697C, symSize: 0x50 }
  - { offset: 0x10DCFC, size: 0x8, addend: 0x0, symName: '-[NativeDevSettingsSpecBase .cxx_destruct]', symObjAddr: 0x7740, symBinAddr: 0x169CC, symSize: 0x30 }
  - { offset: 0x10DDBC, size: 0x8, addend: 0x0, symName: '-[NativeDevSettingsSpecBase .cxx_construct]', symObjAddr: 0x7770, symBinAddr: 0x169FC, symSize: 0x8 }
  - { offset: 0x10DDF4, size: 0x8, addend: 0x0, symName: '-[NativeDevSettingsSpecBase .cxx_construct]', symObjAddr: 0x7770, symBinAddr: 0x169FC, symSize: 0x8 }
  - { offset: 0x10DE12, size: 0x8, addend: 0x0, symName: '-[NativeDevSettingsSpecBase .cxx_construct]', symObjAddr: 0x7770, symBinAddr: 0x169FC, symSize: 0x8 }
  - { offset: 0x10DE30, size: 0x8, addend: 0x0, symName: '-[NativeDevSettingsSpecBase .cxx_construct]', symObjAddr: 0x7770, symBinAddr: 0x169FC, symSize: 0x8 }
  - { offset: 0x10DE4E, size: 0x8, addend: 0x0, symName: '-[NativeDevSettingsSpecBase .cxx_construct]', symObjAddr: 0x7770, symBinAddr: 0x169FC, symSize: 0x8 }
  - { offset: 0x10DE74, size: 0x8, addend: 0x0, symName: __ZN8facebook5react24NativeDevSettingsSpecJSIC2ERKNS0_15ObjCTurboModule10InitParamsE, symObjAddr: 0x7778, symBinAddr: 0x16A04, symSize: 0x450 }
  - { offset: 0x10F097, size: 0x8, addend: 0x0, symName: __ZN8facebook5react24NativeDevSettingsSpecJSIC1ERKNS0_15ObjCTurboModule10InitParamsE, symObjAddr: 0x8300, symBinAddr: 0x1758C, symSize: 0x4 }
  - { offset: 0x10F0D5, size: 0x8, addend: 0x0, symName: __ZN8facebook5react24NativeDevSettingsSpecJSIC1ERKNS0_15ObjCTurboModule10InitParamsE, symObjAddr: 0x8300, symBinAddr: 0x1758C, symSize: 0x4 }
  - { offset: 0x10F0EF, size: 0x8, addend: 0x0, symName: '-[NativeDeviceEventManagerSpecBase setEventEmitterCallback:]', symObjAddr: 0x8304, symBinAddr: 0x17590, symSize: 0x50 }
  - { offset: 0x10F156, size: 0x8, addend: 0x0, symName: '-[NativeDeviceEventManagerSpecBase .cxx_destruct]', symObjAddr: 0x8354, symBinAddr: 0x175E0, symSize: 0x30 }
  - { offset: 0x10F216, size: 0x8, addend: 0x0, symName: '-[NativeDeviceEventManagerSpecBase .cxx_construct]', symObjAddr: 0x8384, symBinAddr: 0x17610, symSize: 0x8 }
  - { offset: 0x10F24E, size: 0x8, addend: 0x0, symName: '-[NativeDeviceEventManagerSpecBase .cxx_construct]', symObjAddr: 0x8384, symBinAddr: 0x17610, symSize: 0x8 }
  - { offset: 0x10F26C, size: 0x8, addend: 0x0, symName: '-[NativeDeviceEventManagerSpecBase .cxx_construct]', symObjAddr: 0x8384, symBinAddr: 0x17610, symSize: 0x8 }
  - { offset: 0x10F28A, size: 0x8, addend: 0x0, symName: '-[NativeDeviceEventManagerSpecBase .cxx_construct]', symObjAddr: 0x8384, symBinAddr: 0x17610, symSize: 0x8 }
  - { offset: 0x10F2A8, size: 0x8, addend: 0x0, symName: '-[NativeDeviceEventManagerSpecBase .cxx_construct]', symObjAddr: 0x8384, symBinAddr: 0x17610, symSize: 0x8 }
  - { offset: 0x10F2CE, size: 0x8, addend: 0x0, symName: __ZN8facebook5react31NativeDeviceEventManagerSpecJSIC2ERKNS0_15ObjCTurboModule10InitParamsE, symObjAddr: 0x838C, symBinAddr: 0x17618, symSize: 0xB8 }
  - { offset: 0x10F5B4, size: 0x8, addend: 0x0, symName: __ZN8facebook5react31NativeDeviceEventManagerSpecJSIC1ERKNS0_15ObjCTurboModule10InitParamsE, symObjAddr: 0x84EC, symBinAddr: 0x17778, symSize: 0x4 }
  - { offset: 0x10F5F2, size: 0x8, addend: 0x0, symName: __ZN8facebook5react31NativeDeviceEventManagerSpecJSIC1ERKNS0_15ObjCTurboModule10InitParamsE, symObjAddr: 0x84EC, symBinAddr: 0x17778, symSize: 0x4 }
  - { offset: 0x10F60C, size: 0x8, addend: 0x0, symName: '-[NativeDeviceInfoSpecBase setEventEmitterCallback:]', symObjAddr: 0x84F0, symBinAddr: 0x1777C, symSize: 0x50 }
  - { offset: 0x10F673, size: 0x8, addend: 0x0, symName: '-[NativeDeviceInfoSpecBase .cxx_destruct]', symObjAddr: 0x8540, symBinAddr: 0x177CC, symSize: 0x30 }
  - { offset: 0x10F733, size: 0x8, addend: 0x0, symName: '-[NativeDeviceInfoSpecBase .cxx_construct]', symObjAddr: 0x8570, symBinAddr: 0x177FC, symSize: 0x8 }
  - { offset: 0x10F76B, size: 0x8, addend: 0x0, symName: '-[NativeDeviceInfoSpecBase .cxx_construct]', symObjAddr: 0x8570, symBinAddr: 0x177FC, symSize: 0x8 }
  - { offset: 0x10F789, size: 0x8, addend: 0x0, symName: '-[NativeDeviceInfoSpecBase .cxx_construct]', symObjAddr: 0x8570, symBinAddr: 0x177FC, symSize: 0x8 }
  - { offset: 0x10F7A7, size: 0x8, addend: 0x0, symName: '-[NativeDeviceInfoSpecBase .cxx_construct]', symObjAddr: 0x8570, symBinAddr: 0x177FC, symSize: 0x8 }
  - { offset: 0x10F7C5, size: 0x8, addend: 0x0, symName: '-[NativeDeviceInfoSpecBase .cxx_construct]', symObjAddr: 0x8570, symBinAddr: 0x177FC, symSize: 0x8 }
  - { offset: 0x10F7EB, size: 0x8, addend: 0x0, symName: __ZN8facebook5react23NativeDeviceInfoSpecJSIC2ERKNS0_15ObjCTurboModule10InitParamsE, symObjAddr: 0x8578, symBinAddr: 0x17804, symSize: 0xB8 }
  - { offset: 0x10FAD1, size: 0x8, addend: 0x0, symName: __ZN8facebook5react23NativeDeviceInfoSpecJSIC1ERKNS0_15ObjCTurboModule10InitParamsE, symObjAddr: 0x86D8, symBinAddr: 0x17964, symSize: 0x4 }
  - { offset: 0x10FB0F, size: 0x8, addend: 0x0, symName: __ZN8facebook5react23NativeDeviceInfoSpecJSIC1ERKNS0_15ObjCTurboModule10InitParamsE, symObjAddr: 0x86D8, symBinAddr: 0x17964, symSize: 0x4 }
  - { offset: 0x10FB29, size: 0x8, addend: 0x0, symName: '-[NativeExceptionsManagerSpecBase setEventEmitterCallback:]', symObjAddr: 0x86DC, symBinAddr: 0x17968, symSize: 0x50 }
  - { offset: 0x10FB90, size: 0x8, addend: 0x0, symName: '-[NativeExceptionsManagerSpecBase .cxx_destruct]', symObjAddr: 0x872C, symBinAddr: 0x179B8, symSize: 0x30 }
  - { offset: 0x10FC50, size: 0x8, addend: 0x0, symName: '-[NativeExceptionsManagerSpecBase .cxx_construct]', symObjAddr: 0x875C, symBinAddr: 0x179E8, symSize: 0x8 }
  - { offset: 0x10FC88, size: 0x8, addend: 0x0, symName: '-[NativeExceptionsManagerSpecBase .cxx_construct]', symObjAddr: 0x875C, symBinAddr: 0x179E8, symSize: 0x8 }
  - { offset: 0x10FCA6, size: 0x8, addend: 0x0, symName: '-[NativeExceptionsManagerSpecBase .cxx_construct]', symObjAddr: 0x875C, symBinAddr: 0x179E8, symSize: 0x8 }
  - { offset: 0x10FCC4, size: 0x8, addend: 0x0, symName: '-[NativeExceptionsManagerSpecBase .cxx_construct]', symObjAddr: 0x875C, symBinAddr: 0x179E8, symSize: 0x8 }
  - { offset: 0x10FCE2, size: 0x8, addend: 0x0, symName: '-[NativeExceptionsManagerSpecBase .cxx_construct]', symObjAddr: 0x875C, symBinAddr: 0x179E8, symSize: 0x8 }
  - { offset: 0x10FD02, size: 0x8, addend: 0x0, symName: '+[RCTCxxConvert(NativeExceptionsManager_StackFrame) JS_NativeExceptionsManager_StackFrame:]', symObjAddr: 0x8764, symBinAddr: 0x179F0, symSize: 0x1C }
  - { offset: 0x10FDF8, size: 0x8, addend: 0x0, symName: __ZNSt3__110shared_ptrIvEC2B8ne200100IN2JS23NativeExceptionsManager10StackFrameELi0EEEPT_, symObjAddr: 0x13584, symBinAddr: 0x22310, symSize: 0x6C }
  - { offset: 0x10FF6F, size: 0x8, addend: 0x0, symName: '+[RCTCxxConvert(NativeExceptionsManager_ExceptionData) JS_NativeExceptionsManager_ExceptionData:]', symObjAddr: 0x88A0, symBinAddr: 0x17B2C, symSize: 0x1C }
  - { offset: 0x1100F1, size: 0x8, addend: 0x0, symName: __ZNSt3__110shared_ptrIvEC2B8ne200100IN2JS23NativeExceptionsManager13ExceptionDataELi0EEEPT_, symObjAddr: 0x136B8, symBinAddr: 0x22408, symSize: 0x6C }
  - { offset: 0x11026E, size: 0x8, addend: 0x0, symName: __ZN8facebook5react30NativeExceptionsManagerSpecJSIC2ERKNS0_15ObjCTurboModule10InitParamsE, symObjAddr: 0x89DC, symBinAddr: 0x17C68, symSize: 0x1F8 }
  - { offset: 0x1109A8, size: 0x8, addend: 0x0, symName: __ZN8facebook5react30NativeExceptionsManagerSpecJSIC1ERKNS0_15ObjCTurboModule10InitParamsE, symObjAddr: 0x8E74, symBinAddr: 0x18100, symSize: 0x4 }
  - { offset: 0x1109E6, size: 0x8, addend: 0x0, symName: __ZN8facebook5react30NativeExceptionsManagerSpecJSIC1ERKNS0_15ObjCTurboModule10InitParamsE, symObjAddr: 0x8E74, symBinAddr: 0x18100, symSize: 0x4 }
  - { offset: 0x110A00, size: 0x8, addend: 0x0, symName: '-[NativeFileReaderModuleSpecBase setEventEmitterCallback:]', symObjAddr: 0x8E78, symBinAddr: 0x18104, symSize: 0x50 }
  - { offset: 0x110A67, size: 0x8, addend: 0x0, symName: '-[NativeFileReaderModuleSpecBase .cxx_destruct]', symObjAddr: 0x8EC8, symBinAddr: 0x18154, symSize: 0x30 }
  - { offset: 0x110B27, size: 0x8, addend: 0x0, symName: '-[NativeFileReaderModuleSpecBase .cxx_construct]', symObjAddr: 0x8EF8, symBinAddr: 0x18184, symSize: 0x8 }
  - { offset: 0x110B5F, size: 0x8, addend: 0x0, symName: '-[NativeFileReaderModuleSpecBase .cxx_construct]', symObjAddr: 0x8EF8, symBinAddr: 0x18184, symSize: 0x8 }
  - { offset: 0x110B7D, size: 0x8, addend: 0x0, symName: '-[NativeFileReaderModuleSpecBase .cxx_construct]', symObjAddr: 0x8EF8, symBinAddr: 0x18184, symSize: 0x8 }
  - { offset: 0x110B9B, size: 0x8, addend: 0x0, symName: '-[NativeFileReaderModuleSpecBase .cxx_construct]', symObjAddr: 0x8EF8, symBinAddr: 0x18184, symSize: 0x8 }
  - { offset: 0x110BB9, size: 0x8, addend: 0x0, symName: '-[NativeFileReaderModuleSpecBase .cxx_construct]', symObjAddr: 0x8EF8, symBinAddr: 0x18184, symSize: 0x8 }
  - { offset: 0x110BDF, size: 0x8, addend: 0x0, symName: __ZN8facebook5react29NativeFileReaderModuleSpecJSIC2ERKNS0_15ObjCTurboModule10InitParamsE, symObjAddr: 0x8F00, symBinAddr: 0x1818C, symSize: 0x124 }
  - { offset: 0x110FFB, size: 0x8, addend: 0x0, symName: __ZN8facebook5react29NativeFileReaderModuleSpecJSIC1ERKNS0_15ObjCTurboModule10InitParamsE, symObjAddr: 0x9174, symBinAddr: 0x18400, symSize: 0x4 }
  - { offset: 0x111039, size: 0x8, addend: 0x0, symName: __ZN8facebook5react29NativeFileReaderModuleSpecJSIC1ERKNS0_15ObjCTurboModule10InitParamsE, symObjAddr: 0x9174, symBinAddr: 0x18400, symSize: 0x4 }
  - { offset: 0x111053, size: 0x8, addend: 0x0, symName: '-[NativeFrameRateLoggerSpecBase setEventEmitterCallback:]', symObjAddr: 0x9178, symBinAddr: 0x18404, symSize: 0x50 }
  - { offset: 0x1110BA, size: 0x8, addend: 0x0, symName: '-[NativeFrameRateLoggerSpecBase .cxx_destruct]', symObjAddr: 0x91C8, symBinAddr: 0x18454, symSize: 0x30 }
  - { offset: 0x11117A, size: 0x8, addend: 0x0, symName: '-[NativeFrameRateLoggerSpecBase .cxx_construct]', symObjAddr: 0x91F8, symBinAddr: 0x18484, symSize: 0x8 }
  - { offset: 0x1111B2, size: 0x8, addend: 0x0, symName: '-[NativeFrameRateLoggerSpecBase .cxx_construct]', symObjAddr: 0x91F8, symBinAddr: 0x18484, symSize: 0x8 }
  - { offset: 0x1111D0, size: 0x8, addend: 0x0, symName: '-[NativeFrameRateLoggerSpecBase .cxx_construct]', symObjAddr: 0x91F8, symBinAddr: 0x18484, symSize: 0x8 }
  - { offset: 0x1111EE, size: 0x8, addend: 0x0, symName: '-[NativeFrameRateLoggerSpecBase .cxx_construct]', symObjAddr: 0x91F8, symBinAddr: 0x18484, symSize: 0x8 }
  - { offset: 0x11120C, size: 0x8, addend: 0x0, symName: '-[NativeFrameRateLoggerSpecBase .cxx_construct]', symObjAddr: 0x91F8, symBinAddr: 0x18484, symSize: 0x8 }
  - { offset: 0x11122C, size: 0x8, addend: 0x0, symName: '+[RCTCxxConvert(NativeFrameRateLogger_SpecSetGlobalOptionsOptions) JS_NativeFrameRateLogger_SpecSetGlobalOptionsOptions:]', symObjAddr: 0x9200, symBinAddr: 0x1848C, symSize: 0x1C }
  - { offset: 0x111322, size: 0x8, addend: 0x0, symName: __ZNSt3__110shared_ptrIvEC2B8ne200100IN2JS21NativeFrameRateLogger27SpecSetGlobalOptionsOptionsELi0EEEPT_, symObjAddr: 0x137EC, symBinAddr: 0x22500, symSize: 0x6C }
  - { offset: 0x11149F, size: 0x8, addend: 0x0, symName: __ZN8facebook5react28NativeFrameRateLoggerSpecJSIC2ERKNS0_15ObjCTurboModule10InitParamsE, symObjAddr: 0x933C, symBinAddr: 0x185C8, symSize: 0x1F4 }
  - { offset: 0x111BD9, size: 0x8, addend: 0x0, symName: __ZN8facebook5react28NativeFrameRateLoggerSpecJSIC1ERKNS0_15ObjCTurboModule10InitParamsE, symObjAddr: 0x97D0, symBinAddr: 0x18A5C, symSize: 0x4 }
  - { offset: 0x111C17, size: 0x8, addend: 0x0, symName: __ZN8facebook5react28NativeFrameRateLoggerSpecJSIC1ERKNS0_15ObjCTurboModule10InitParamsE, symObjAddr: 0x97D0, symBinAddr: 0x18A5C, symSize: 0x4 }
  - { offset: 0x111C31, size: 0x8, addend: 0x0, symName: '-[NativeHeadlessJsTaskSupportSpecBase setEventEmitterCallback:]', symObjAddr: 0x97D4, symBinAddr: 0x18A60, symSize: 0x50 }
  - { offset: 0x111C98, size: 0x8, addend: 0x0, symName: '-[NativeHeadlessJsTaskSupportSpecBase .cxx_destruct]', symObjAddr: 0x9824, symBinAddr: 0x18AB0, symSize: 0x30 }
  - { offset: 0x111D58, size: 0x8, addend: 0x0, symName: '-[NativeHeadlessJsTaskSupportSpecBase .cxx_construct]', symObjAddr: 0x9854, symBinAddr: 0x18AE0, symSize: 0x8 }
  - { offset: 0x111D90, size: 0x8, addend: 0x0, symName: '-[NativeHeadlessJsTaskSupportSpecBase .cxx_construct]', symObjAddr: 0x9854, symBinAddr: 0x18AE0, symSize: 0x8 }
  - { offset: 0x111DAE, size: 0x8, addend: 0x0, symName: '-[NativeHeadlessJsTaskSupportSpecBase .cxx_construct]', symObjAddr: 0x9854, symBinAddr: 0x18AE0, symSize: 0x8 }
  - { offset: 0x111DCC, size: 0x8, addend: 0x0, symName: '-[NativeHeadlessJsTaskSupportSpecBase .cxx_construct]', symObjAddr: 0x9854, symBinAddr: 0x18AE0, symSize: 0x8 }
  - { offset: 0x111DEA, size: 0x8, addend: 0x0, symName: '-[NativeHeadlessJsTaskSupportSpecBase .cxx_construct]', symObjAddr: 0x9854, symBinAddr: 0x18AE0, symSize: 0x8 }
  - { offset: 0x111E10, size: 0x8, addend: 0x0, symName: __ZN8facebook5react34NativeHeadlessJsTaskSupportSpecJSIC2ERKNS0_15ObjCTurboModule10InitParamsE, symObjAddr: 0x985C, symBinAddr: 0x18AE8, symSize: 0x124 }
  - { offset: 0x11222C, size: 0x8, addend: 0x0, symName: __ZN8facebook5react34NativeHeadlessJsTaskSupportSpecJSIC1ERKNS0_15ObjCTurboModule10InitParamsE, symObjAddr: 0x9AD0, symBinAddr: 0x18D5C, symSize: 0x4 }
  - { offset: 0x11226A, size: 0x8, addend: 0x0, symName: __ZN8facebook5react34NativeHeadlessJsTaskSupportSpecJSIC1ERKNS0_15ObjCTurboModule10InitParamsE, symObjAddr: 0x9AD0, symBinAddr: 0x18D5C, symSize: 0x4 }
  - { offset: 0x112284, size: 0x8, addend: 0x0, symName: '-[NativeI18nManagerSpecBase setEventEmitterCallback:]', symObjAddr: 0x9AD4, symBinAddr: 0x18D60, symSize: 0x50 }
  - { offset: 0x1122EB, size: 0x8, addend: 0x0, symName: '-[NativeI18nManagerSpecBase .cxx_destruct]', symObjAddr: 0x9B24, symBinAddr: 0x18DB0, symSize: 0x30 }
  - { offset: 0x1123AB, size: 0x8, addend: 0x0, symName: '-[NativeI18nManagerSpecBase .cxx_construct]', symObjAddr: 0x9B54, symBinAddr: 0x18DE0, symSize: 0x8 }
  - { offset: 0x1123E3, size: 0x8, addend: 0x0, symName: '-[NativeI18nManagerSpecBase .cxx_construct]', symObjAddr: 0x9B54, symBinAddr: 0x18DE0, symSize: 0x8 }
  - { offset: 0x112401, size: 0x8, addend: 0x0, symName: '-[NativeI18nManagerSpecBase .cxx_construct]', symObjAddr: 0x9B54, symBinAddr: 0x18DE0, symSize: 0x8 }
  - { offset: 0x11241F, size: 0x8, addend: 0x0, symName: '-[NativeI18nManagerSpecBase .cxx_construct]', symObjAddr: 0x9B54, symBinAddr: 0x18DE0, symSize: 0x8 }
  - { offset: 0x11243D, size: 0x8, addend: 0x0, symName: '-[NativeI18nManagerSpecBase .cxx_construct]', symObjAddr: 0x9B54, symBinAddr: 0x18DE0, symSize: 0x8 }
  - { offset: 0x112463, size: 0x8, addend: 0x0, symName: __ZN8facebook5react24NativeI18nManagerSpecJSIC2ERKNS0_15ObjCTurboModule10InitParamsE, symObjAddr: 0x9B5C, symBinAddr: 0x18DE8, symSize: 0x1D8 }
  - { offset: 0x112B9D, size: 0x8, addend: 0x0, symName: __ZN8facebook5react24NativeI18nManagerSpecJSIC1ERKNS0_15ObjCTurboModule10InitParamsE, symObjAddr: 0x9FD4, symBinAddr: 0x19260, symSize: 0x4 }
  - { offset: 0x112BDB, size: 0x8, addend: 0x0, symName: __ZN8facebook5react24NativeI18nManagerSpecJSIC1ERKNS0_15ObjCTurboModule10InitParamsE, symObjAddr: 0x9FD4, symBinAddr: 0x19260, symSize: 0x4 }
  - { offset: 0x112BF5, size: 0x8, addend: 0x0, symName: '-[NativeImageEditorSpecBase setEventEmitterCallback:]', symObjAddr: 0x9FD8, symBinAddr: 0x19264, symSize: 0x50 }
  - { offset: 0x112C5C, size: 0x8, addend: 0x0, symName: '-[NativeImageEditorSpecBase .cxx_destruct]', symObjAddr: 0xA028, symBinAddr: 0x192B4, symSize: 0x30 }
  - { offset: 0x112D1C, size: 0x8, addend: 0x0, symName: '-[NativeImageEditorSpecBase .cxx_construct]', symObjAddr: 0xA058, symBinAddr: 0x192E4, symSize: 0x8 }
  - { offset: 0x112D54, size: 0x8, addend: 0x0, symName: '-[NativeImageEditorSpecBase .cxx_construct]', symObjAddr: 0xA058, symBinAddr: 0x192E4, symSize: 0x8 }
  - { offset: 0x112D72, size: 0x8, addend: 0x0, symName: '-[NativeImageEditorSpecBase .cxx_construct]', symObjAddr: 0xA058, symBinAddr: 0x192E4, symSize: 0x8 }
  - { offset: 0x112D90, size: 0x8, addend: 0x0, symName: '-[NativeImageEditorSpecBase .cxx_construct]', symObjAddr: 0xA058, symBinAddr: 0x192E4, symSize: 0x8 }
  - { offset: 0x112DAE, size: 0x8, addend: 0x0, symName: '-[NativeImageEditorSpecBase .cxx_construct]', symObjAddr: 0xA058, symBinAddr: 0x192E4, symSize: 0x8 }
  - { offset: 0x112DCE, size: 0x8, addend: 0x0, symName: '+[RCTCxxConvert(NativeImageEditor_OptionsOffset) JS_NativeImageEditor_OptionsOffset:]', symObjAddr: 0xA060, symBinAddr: 0x192EC, symSize: 0x1C }
  - { offset: 0x112EC4, size: 0x8, addend: 0x0, symName: __ZNSt3__110shared_ptrIvEC2B8ne200100IN2JS17NativeImageEditor13OptionsOffsetELi0EEEPT_, symObjAddr: 0x13920, symBinAddr: 0x225F8, symSize: 0x6C }
  - { offset: 0x11303B, size: 0x8, addend: 0x0, symName: '+[RCTCxxConvert(NativeImageEditor_OptionsSize) JS_NativeImageEditor_OptionsSize:]', symObjAddr: 0xA19C, symBinAddr: 0x19428, symSize: 0x1C }
  - { offset: 0x113131, size: 0x8, addend: 0x0, symName: __ZNSt3__110shared_ptrIvEC2B8ne200100IN2JS17NativeImageEditor11OptionsSizeELi0EEEPT_, symObjAddr: 0x13A54, symBinAddr: 0x226F0, symSize: 0x6C }
  - { offset: 0x1132A8, size: 0x8, addend: 0x0, symName: '+[RCTCxxConvert(NativeImageEditor_OptionsDisplaySize) JS_NativeImageEditor_OptionsDisplaySize:]', symObjAddr: 0xA2D8, symBinAddr: 0x19564, symSize: 0x1C }
  - { offset: 0x11339E, size: 0x8, addend: 0x0, symName: __ZNSt3__110shared_ptrIvEC2B8ne200100IN2JS17NativeImageEditor18OptionsDisplaySizeELi0EEEPT_, symObjAddr: 0x13B88, symBinAddr: 0x227E8, symSize: 0x6C }
  - { offset: 0x113515, size: 0x8, addend: 0x0, symName: '+[RCTCxxConvert(NativeImageEditor_Options) JS_NativeImageEditor_Options:]', symObjAddr: 0xA414, symBinAddr: 0x196A0, symSize: 0x1C }
  - { offset: 0x1136F9, size: 0x8, addend: 0x0, symName: __ZNSt3__110shared_ptrIvEC2B8ne200100IN2JS17NativeImageEditor7OptionsELi0EEEPT_, symObjAddr: 0x13CBC, symBinAddr: 0x228E0, symSize: 0x6C }
  - { offset: 0x113876, size: 0x8, addend: 0x0, symName: __ZN8facebook5react24NativeImageEditorSpecJSIC2ERKNS0_15ObjCTurboModule10InitParamsE, symObjAddr: 0xA550, symBinAddr: 0x197DC, symSize: 0xDC }
  - { offset: 0x113B5C, size: 0x8, addend: 0x0, symName: __ZN8facebook5react24NativeImageEditorSpecJSIC1ERKNS0_15ObjCTurboModule10InitParamsE, symObjAddr: 0xA6D4, symBinAddr: 0x19960, symSize: 0x4 }
  - { offset: 0x113B9A, size: 0x8, addend: 0x0, symName: __ZN8facebook5react24NativeImageEditorSpecJSIC1ERKNS0_15ObjCTurboModule10InitParamsE, symObjAddr: 0xA6D4, symBinAddr: 0x19960, symSize: 0x4 }
  - { offset: 0x113BB4, size: 0x8, addend: 0x0, symName: '-[NativeImageLoaderIOSSpecBase setEventEmitterCallback:]', symObjAddr: 0xA6D8, symBinAddr: 0x19964, symSize: 0x50 }
  - { offset: 0x113C1B, size: 0x8, addend: 0x0, symName: '-[NativeImageLoaderIOSSpecBase .cxx_destruct]', symObjAddr: 0xA728, symBinAddr: 0x199B4, symSize: 0x30 }
  - { offset: 0x113CDB, size: 0x8, addend: 0x0, symName: '-[NativeImageLoaderIOSSpecBase .cxx_construct]', symObjAddr: 0xA758, symBinAddr: 0x199E4, symSize: 0x8 }
  - { offset: 0x113D13, size: 0x8, addend: 0x0, symName: '-[NativeImageLoaderIOSSpecBase .cxx_construct]', symObjAddr: 0xA758, symBinAddr: 0x199E4, symSize: 0x8 }
  - { offset: 0x113D31, size: 0x8, addend: 0x0, symName: '-[NativeImageLoaderIOSSpecBase .cxx_construct]', symObjAddr: 0xA758, symBinAddr: 0x199E4, symSize: 0x8 }
  - { offset: 0x113D4F, size: 0x8, addend: 0x0, symName: '-[NativeImageLoaderIOSSpecBase .cxx_construct]', symObjAddr: 0xA758, symBinAddr: 0x199E4, symSize: 0x8 }
  - { offset: 0x113D6D, size: 0x8, addend: 0x0, symName: '-[NativeImageLoaderIOSSpecBase .cxx_construct]', symObjAddr: 0xA758, symBinAddr: 0x199E4, symSize: 0x8 }
  - { offset: 0x113D93, size: 0x8, addend: 0x0, symName: __ZN8facebook5react27NativeImageLoaderIOSSpecJSIC2ERKNS0_15ObjCTurboModule10InitParamsE, symObjAddr: 0xA760, symBinAddr: 0x199EC, symSize: 0x238 }
  - { offset: 0x11465C, size: 0x8, addend: 0x0, symName: __ZN8facebook5react27NativeImageLoaderIOSSpecJSIC1ERKNS0_15ObjCTurboModule10InitParamsE, symObjAddr: 0xACE0, symBinAddr: 0x19F6C, symSize: 0x4 }
  - { offset: 0x11469A, size: 0x8, addend: 0x0, symName: __ZN8facebook5react27NativeImageLoaderIOSSpecJSIC1ERKNS0_15ObjCTurboModule10InitParamsE, symObjAddr: 0xACE0, symBinAddr: 0x19F6C, symSize: 0x4 }
  - { offset: 0x1146B4, size: 0x8, addend: 0x0, symName: '-[NativeImageStoreIOSSpecBase setEventEmitterCallback:]', symObjAddr: 0xACE4, symBinAddr: 0x19F70, symSize: 0x50 }
  - { offset: 0x11471B, size: 0x8, addend: 0x0, symName: '-[NativeImageStoreIOSSpecBase .cxx_destruct]', symObjAddr: 0xAD34, symBinAddr: 0x19FC0, symSize: 0x30 }
  - { offset: 0x1147DB, size: 0x8, addend: 0x0, symName: '-[NativeImageStoreIOSSpecBase .cxx_construct]', symObjAddr: 0xAD64, symBinAddr: 0x19FF0, symSize: 0x8 }
  - { offset: 0x114813, size: 0x8, addend: 0x0, symName: '-[NativeImageStoreIOSSpecBase .cxx_construct]', symObjAddr: 0xAD64, symBinAddr: 0x19FF0, symSize: 0x8 }
  - { offset: 0x114831, size: 0x8, addend: 0x0, symName: '-[NativeImageStoreIOSSpecBase .cxx_construct]', symObjAddr: 0xAD64, symBinAddr: 0x19FF0, symSize: 0x8 }
  - { offset: 0x11484F, size: 0x8, addend: 0x0, symName: '-[NativeImageStoreIOSSpecBase .cxx_construct]', symObjAddr: 0xAD64, symBinAddr: 0x19FF0, symSize: 0x8 }
  - { offset: 0x11486D, size: 0x8, addend: 0x0, symName: '-[NativeImageStoreIOSSpecBase .cxx_construct]', symObjAddr: 0xAD64, symBinAddr: 0x19FF0, symSize: 0x8 }
  - { offset: 0x114893, size: 0x8, addend: 0x0, symName: __ZN8facebook5react26NativeImageStoreIOSSpecJSIC2ERKNS0_15ObjCTurboModule10InitParamsE, symObjAddr: 0xAD6C, symBinAddr: 0x19FF8, symSize: 0x1DC }
  - { offset: 0x114FCD, size: 0x8, addend: 0x0, symName: __ZN8facebook5react26NativeImageStoreIOSSpecJSIC1ERKNS0_15ObjCTurboModule10InitParamsE, symObjAddr: 0xB1E8, symBinAddr: 0x1A474, symSize: 0x4 }
  - { offset: 0x11500B, size: 0x8, addend: 0x0, symName: __ZN8facebook5react26NativeImageStoreIOSSpecJSIC1ERKNS0_15ObjCTurboModule10InitParamsE, symObjAddr: 0xB1E8, symBinAddr: 0x1A474, symSize: 0x4 }
  - { offset: 0x115025, size: 0x8, addend: 0x0, symName: '-[NativeJSCHeapCaptureSpecBase setEventEmitterCallback:]', symObjAddr: 0xB1EC, symBinAddr: 0x1A478, symSize: 0x50 }
  - { offset: 0x11508C, size: 0x8, addend: 0x0, symName: '-[NativeJSCHeapCaptureSpecBase .cxx_destruct]', symObjAddr: 0xB23C, symBinAddr: 0x1A4C8, symSize: 0x30 }
  - { offset: 0x11514C, size: 0x8, addend: 0x0, symName: '-[NativeJSCHeapCaptureSpecBase .cxx_construct]', symObjAddr: 0xB26C, symBinAddr: 0x1A4F8, symSize: 0x8 }
  - { offset: 0x115184, size: 0x8, addend: 0x0, symName: '-[NativeJSCHeapCaptureSpecBase .cxx_construct]', symObjAddr: 0xB26C, symBinAddr: 0x1A4F8, symSize: 0x8 }
  - { offset: 0x1151A2, size: 0x8, addend: 0x0, symName: '-[NativeJSCHeapCaptureSpecBase .cxx_construct]', symObjAddr: 0xB26C, symBinAddr: 0x1A4F8, symSize: 0x8 }
  - { offset: 0x1151C0, size: 0x8, addend: 0x0, symName: '-[NativeJSCHeapCaptureSpecBase .cxx_construct]', symObjAddr: 0xB26C, symBinAddr: 0x1A4F8, symSize: 0x8 }
  - { offset: 0x1151DE, size: 0x8, addend: 0x0, symName: '-[NativeJSCHeapCaptureSpecBase .cxx_construct]', symObjAddr: 0xB26C, symBinAddr: 0x1A4F8, symSize: 0x8 }
  - { offset: 0x115204, size: 0x8, addend: 0x0, symName: __ZN8facebook5react27NativeJSCHeapCaptureSpecJSIC2ERKNS0_15ObjCTurboModule10InitParamsE, symObjAddr: 0xB274, symBinAddr: 0x1A500, symSize: 0xBC }
  - { offset: 0x1154EA, size: 0x8, addend: 0x0, symName: __ZN8facebook5react27NativeJSCHeapCaptureSpecJSIC1ERKNS0_15ObjCTurboModule10InitParamsE, symObjAddr: 0xB3D8, symBinAddr: 0x1A664, symSize: 0x4 }
  - { offset: 0x115528, size: 0x8, addend: 0x0, symName: __ZN8facebook5react27NativeJSCHeapCaptureSpecJSIC1ERKNS0_15ObjCTurboModule10InitParamsE, symObjAddr: 0xB3D8, symBinAddr: 0x1A664, symSize: 0x4 }
  - { offset: 0x115542, size: 0x8, addend: 0x0, symName: '-[NativeKeyboardObserverSpecBase setEventEmitterCallback:]', symObjAddr: 0xB3DC, symBinAddr: 0x1A668, symSize: 0x50 }
  - { offset: 0x1155A9, size: 0x8, addend: 0x0, symName: '-[NativeKeyboardObserverSpecBase .cxx_destruct]', symObjAddr: 0xB42C, symBinAddr: 0x1A6B8, symSize: 0x30 }
  - { offset: 0x115669, size: 0x8, addend: 0x0, symName: '-[NativeKeyboardObserverSpecBase .cxx_construct]', symObjAddr: 0xB45C, symBinAddr: 0x1A6E8, symSize: 0x8 }
  - { offset: 0x1156A1, size: 0x8, addend: 0x0, symName: '-[NativeKeyboardObserverSpecBase .cxx_construct]', symObjAddr: 0xB45C, symBinAddr: 0x1A6E8, symSize: 0x8 }
  - { offset: 0x1156BF, size: 0x8, addend: 0x0, symName: '-[NativeKeyboardObserverSpecBase .cxx_construct]', symObjAddr: 0xB45C, symBinAddr: 0x1A6E8, symSize: 0x8 }
  - { offset: 0x1156DD, size: 0x8, addend: 0x0, symName: '-[NativeKeyboardObserverSpecBase .cxx_construct]', symObjAddr: 0xB45C, symBinAddr: 0x1A6E8, symSize: 0x8 }
  - { offset: 0x1156FB, size: 0x8, addend: 0x0, symName: '-[NativeKeyboardObserverSpecBase .cxx_construct]', symObjAddr: 0xB45C, symBinAddr: 0x1A6E8, symSize: 0x8 }
  - { offset: 0x115721, size: 0x8, addend: 0x0, symName: __ZN8facebook5react29NativeKeyboardObserverSpecJSIC2ERKNS0_15ObjCTurboModule10InitParamsE, symObjAddr: 0xB464, symBinAddr: 0x1A6F0, symSize: 0x124 }
  - { offset: 0x115B3D, size: 0x8, addend: 0x0, symName: __ZN8facebook5react29NativeKeyboardObserverSpecJSIC1ERKNS0_15ObjCTurboModule10InitParamsE, symObjAddr: 0xB6D8, symBinAddr: 0x1A964, symSize: 0x4 }
  - { offset: 0x115B7B, size: 0x8, addend: 0x0, symName: __ZN8facebook5react29NativeKeyboardObserverSpecJSIC1ERKNS0_15ObjCTurboModule10InitParamsE, symObjAddr: 0xB6D8, symBinAddr: 0x1A964, symSize: 0x4 }
  - { offset: 0x115B95, size: 0x8, addend: 0x0, symName: '-[NativeLinkingManagerSpecBase setEventEmitterCallback:]', symObjAddr: 0xB6DC, symBinAddr: 0x1A968, symSize: 0x50 }
  - { offset: 0x115BFC, size: 0x8, addend: 0x0, symName: '-[NativeLinkingManagerSpecBase .cxx_destruct]', symObjAddr: 0xB72C, symBinAddr: 0x1A9B8, symSize: 0x30 }
  - { offset: 0x115CBC, size: 0x8, addend: 0x0, symName: '-[NativeLinkingManagerSpecBase .cxx_construct]', symObjAddr: 0xB75C, symBinAddr: 0x1A9E8, symSize: 0x8 }
  - { offset: 0x115CF4, size: 0x8, addend: 0x0, symName: '-[NativeLinkingManagerSpecBase .cxx_construct]', symObjAddr: 0xB75C, symBinAddr: 0x1A9E8, symSize: 0x8 }
  - { offset: 0x115D12, size: 0x8, addend: 0x0, symName: '-[NativeLinkingManagerSpecBase .cxx_construct]', symObjAddr: 0xB75C, symBinAddr: 0x1A9E8, symSize: 0x8 }
  - { offset: 0x115D30, size: 0x8, addend: 0x0, symName: '-[NativeLinkingManagerSpecBase .cxx_construct]', symObjAddr: 0xB75C, symBinAddr: 0x1A9E8, symSize: 0x8 }
  - { offset: 0x115D4E, size: 0x8, addend: 0x0, symName: '-[NativeLinkingManagerSpecBase .cxx_construct]', symObjAddr: 0xB75C, symBinAddr: 0x1A9E8, symSize: 0x8 }
  - { offset: 0x115D74, size: 0x8, addend: 0x0, symName: __ZN8facebook5react27NativeLinkingManagerSpecJSIC2ERKNS0_15ObjCTurboModule10InitParamsE, symObjAddr: 0xB764, symBinAddr: 0x1A9F0, symSize: 0x28C }
  - { offset: 0x1167CC, size: 0x8, addend: 0x0, symName: __ZN8facebook5react27NativeLinkingManagerSpecJSIC1ERKNS0_15ObjCTurboModule10InitParamsE, symObjAddr: 0xBDE0, symBinAddr: 0x1B06C, symSize: 0x4 }
  - { offset: 0x11680A, size: 0x8, addend: 0x0, symName: __ZN8facebook5react27NativeLinkingManagerSpecJSIC1ERKNS0_15ObjCTurboModule10InitParamsE, symObjAddr: 0xBDE0, symBinAddr: 0x1B06C, symSize: 0x4 }
  - { offset: 0x116824, size: 0x8, addend: 0x0, symName: '-[NativeLogBoxSpecBase setEventEmitterCallback:]', symObjAddr: 0xBDE4, symBinAddr: 0x1B070, symSize: 0x50 }
  - { offset: 0x11688B, size: 0x8, addend: 0x0, symName: '-[NativeLogBoxSpecBase .cxx_destruct]', symObjAddr: 0xBE34, symBinAddr: 0x1B0C0, symSize: 0x30 }
  - { offset: 0x11694B, size: 0x8, addend: 0x0, symName: '-[NativeLogBoxSpecBase .cxx_construct]', symObjAddr: 0xBE64, symBinAddr: 0x1B0F0, symSize: 0x8 }
  - { offset: 0x116983, size: 0x8, addend: 0x0, symName: '-[NativeLogBoxSpecBase .cxx_construct]', symObjAddr: 0xBE64, symBinAddr: 0x1B0F0, symSize: 0x8 }
  - { offset: 0x1169A1, size: 0x8, addend: 0x0, symName: '-[NativeLogBoxSpecBase .cxx_construct]', symObjAddr: 0xBE64, symBinAddr: 0x1B0F0, symSize: 0x8 }
  - { offset: 0x1169BF, size: 0x8, addend: 0x0, symName: '-[NativeLogBoxSpecBase .cxx_construct]', symObjAddr: 0xBE64, symBinAddr: 0x1B0F0, symSize: 0x8 }
  - { offset: 0x1169DD, size: 0x8, addend: 0x0, symName: '-[NativeLogBoxSpecBase .cxx_construct]', symObjAddr: 0xBE64, symBinAddr: 0x1B0F0, symSize: 0x8 }
  - { offset: 0x116A03, size: 0x8, addend: 0x0, symName: __ZN8facebook5react19NativeLogBoxSpecJSIC2ERKNS0_15ObjCTurboModule10InitParamsE, symObjAddr: 0xBE6C, symBinAddr: 0x1B0F8, symSize: 0x11C }
  - { offset: 0x116E1F, size: 0x8, addend: 0x0, symName: __ZN8facebook5react19NativeLogBoxSpecJSIC1ERKNS0_15ObjCTurboModule10InitParamsE, symObjAddr: 0xC0D8, symBinAddr: 0x1B364, symSize: 0x4 }
  - { offset: 0x116E5D, size: 0x8, addend: 0x0, symName: __ZN8facebook5react19NativeLogBoxSpecJSIC1ERKNS0_15ObjCTurboModule10InitParamsE, symObjAddr: 0xC0D8, symBinAddr: 0x1B364, symSize: 0x4 }
  - { offset: 0x116E77, size: 0x8, addend: 0x0, symName: '-[NativeModalManagerSpecBase setEventEmitterCallback:]', symObjAddr: 0xC0DC, symBinAddr: 0x1B368, symSize: 0x50 }
  - { offset: 0x116EDE, size: 0x8, addend: 0x0, symName: '-[NativeModalManagerSpecBase .cxx_destruct]', symObjAddr: 0xC12C, symBinAddr: 0x1B3B8, symSize: 0x30 }
  - { offset: 0x116F9E, size: 0x8, addend: 0x0, symName: '-[NativeModalManagerSpecBase .cxx_construct]', symObjAddr: 0xC15C, symBinAddr: 0x1B3E8, symSize: 0x8 }
  - { offset: 0x116FD6, size: 0x8, addend: 0x0, symName: '-[NativeModalManagerSpecBase .cxx_construct]', symObjAddr: 0xC15C, symBinAddr: 0x1B3E8, symSize: 0x8 }
  - { offset: 0x116FF4, size: 0x8, addend: 0x0, symName: '-[NativeModalManagerSpecBase .cxx_construct]', symObjAddr: 0xC15C, symBinAddr: 0x1B3E8, symSize: 0x8 }
  - { offset: 0x117012, size: 0x8, addend: 0x0, symName: '-[NativeModalManagerSpecBase .cxx_construct]', symObjAddr: 0xC15C, symBinAddr: 0x1B3E8, symSize: 0x8 }
  - { offset: 0x117030, size: 0x8, addend: 0x0, symName: '-[NativeModalManagerSpecBase .cxx_construct]', symObjAddr: 0xC15C, symBinAddr: 0x1B3E8, symSize: 0x8 }
  - { offset: 0x117056, size: 0x8, addend: 0x0, symName: __ZN8facebook5react25NativeModalManagerSpecJSIC2ERKNS0_15ObjCTurboModule10InitParamsE, symObjAddr: 0xC164, symBinAddr: 0x1B3F0, symSize: 0x124 }
  - { offset: 0x117472, size: 0x8, addend: 0x0, symName: __ZN8facebook5react25NativeModalManagerSpecJSIC1ERKNS0_15ObjCTurboModule10InitParamsE, symObjAddr: 0xC3D8, symBinAddr: 0x1B664, symSize: 0x4 }
  - { offset: 0x1174B0, size: 0x8, addend: 0x0, symName: __ZN8facebook5react25NativeModalManagerSpecJSIC1ERKNS0_15ObjCTurboModule10InitParamsE, symObjAddr: 0xC3D8, symBinAddr: 0x1B664, symSize: 0x4 }
  - { offset: 0x1174CA, size: 0x8, addend: 0x0, symName: '-[NativeNetworkingIOSSpecBase setEventEmitterCallback:]', symObjAddr: 0xC3DC, symBinAddr: 0x1B668, symSize: 0x50 }
  - { offset: 0x117531, size: 0x8, addend: 0x0, symName: '-[NativeNetworkingIOSSpecBase .cxx_destruct]', symObjAddr: 0xC42C, symBinAddr: 0x1B6B8, symSize: 0x30 }
  - { offset: 0x1175F1, size: 0x8, addend: 0x0, symName: '-[NativeNetworkingIOSSpecBase .cxx_construct]', symObjAddr: 0xC45C, symBinAddr: 0x1B6E8, symSize: 0x8 }
  - { offset: 0x117629, size: 0x8, addend: 0x0, symName: '-[NativeNetworkingIOSSpecBase .cxx_construct]', symObjAddr: 0xC45C, symBinAddr: 0x1B6E8, symSize: 0x8 }
  - { offset: 0x117647, size: 0x8, addend: 0x0, symName: '-[NativeNetworkingIOSSpecBase .cxx_construct]', symObjAddr: 0xC45C, symBinAddr: 0x1B6E8, symSize: 0x8 }
  - { offset: 0x117665, size: 0x8, addend: 0x0, symName: '-[NativeNetworkingIOSSpecBase .cxx_construct]', symObjAddr: 0xC45C, symBinAddr: 0x1B6E8, symSize: 0x8 }
  - { offset: 0x117683, size: 0x8, addend: 0x0, symName: '-[NativeNetworkingIOSSpecBase .cxx_construct]', symObjAddr: 0xC45C, symBinAddr: 0x1B6E8, symSize: 0x8 }
  - { offset: 0x1176A3, size: 0x8, addend: 0x0, symName: '+[RCTCxxConvert(NativeNetworkingIOS_SpecSendRequestQuery) JS_NativeNetworkingIOS_SpecSendRequestQuery:]', symObjAddr: 0xC464, symBinAddr: 0x1B6F0, symSize: 0x1C }
  - { offset: 0x117799, size: 0x8, addend: 0x0, symName: __ZNSt3__110shared_ptrIvEC2B8ne200100IN2JS19NativeNetworkingIOS20SpecSendRequestQueryELi0EEEPT_, symObjAddr: 0x13DF0, symBinAddr: 0x229D8, symSize: 0x6C }
  - { offset: 0x117916, size: 0x8, addend: 0x0, symName: __ZN8facebook5react26NativeNetworkingIOSSpecJSIC2ERKNS0_15ObjCTurboModule10InitParamsE, symObjAddr: 0xC5A0, symBinAddr: 0x1B82C, symSize: 0x258 }
  - { offset: 0x1181DF, size: 0x8, addend: 0x0, symName: __ZN8facebook5react26NativeNetworkingIOSSpecJSIC1ERKNS0_15ObjCTurboModule10InitParamsE, symObjAddr: 0xCB40, symBinAddr: 0x1BDCC, symSize: 0x4 }
  - { offset: 0x11821D, size: 0x8, addend: 0x0, symName: __ZN8facebook5react26NativeNetworkingIOSSpecJSIC1ERKNS0_15ObjCTurboModule10InitParamsE, symObjAddr: 0xCB40, symBinAddr: 0x1BDCC, symSize: 0x4 }
  - { offset: 0x118237, size: 0x8, addend: 0x0, symName: '-[NativePlatformConstantsIOSSpecBase setEventEmitterCallback:]', symObjAddr: 0xCB44, symBinAddr: 0x1BDD0, symSize: 0x50 }
  - { offset: 0x11829E, size: 0x8, addend: 0x0, symName: '-[NativePlatformConstantsIOSSpecBase .cxx_destruct]', symObjAddr: 0xCB94, symBinAddr: 0x1BE20, symSize: 0x30 }
  - { offset: 0x11835E, size: 0x8, addend: 0x0, symName: '-[NativePlatformConstantsIOSSpecBase .cxx_construct]', symObjAddr: 0xCBC4, symBinAddr: 0x1BE50, symSize: 0x8 }
  - { offset: 0x118396, size: 0x8, addend: 0x0, symName: '-[NativePlatformConstantsIOSSpecBase .cxx_construct]', symObjAddr: 0xCBC4, symBinAddr: 0x1BE50, symSize: 0x8 }
  - { offset: 0x1183B4, size: 0x8, addend: 0x0, symName: '-[NativePlatformConstantsIOSSpecBase .cxx_construct]', symObjAddr: 0xCBC4, symBinAddr: 0x1BE50, symSize: 0x8 }
  - { offset: 0x1183D2, size: 0x8, addend: 0x0, symName: '-[NativePlatformConstantsIOSSpecBase .cxx_construct]', symObjAddr: 0xCBC4, symBinAddr: 0x1BE50, symSize: 0x8 }
  - { offset: 0x1183F0, size: 0x8, addend: 0x0, symName: '-[NativePlatformConstantsIOSSpecBase .cxx_construct]', symObjAddr: 0xCBC4, symBinAddr: 0x1BE50, symSize: 0x8 }
  - { offset: 0x118416, size: 0x8, addend: 0x0, symName: __ZN8facebook5react33NativePlatformConstantsIOSSpecJSIC2ERKNS0_15ObjCTurboModule10InitParamsE, symObjAddr: 0xCBCC, symBinAddr: 0x1BE58, symSize: 0xB8 }
  - { offset: 0x1186FC, size: 0x8, addend: 0x0, symName: __ZN8facebook5react33NativePlatformConstantsIOSSpecJSIC1ERKNS0_15ObjCTurboModule10InitParamsE, symObjAddr: 0xCD2C, symBinAddr: 0x1BFB8, symSize: 0x4 }
  - { offset: 0x11873A, size: 0x8, addend: 0x0, symName: __ZN8facebook5react33NativePlatformConstantsIOSSpecJSIC1ERKNS0_15ObjCTurboModule10InitParamsE, symObjAddr: 0xCD2C, symBinAddr: 0x1BFB8, symSize: 0x4 }
  - { offset: 0x118754, size: 0x8, addend: 0x0, symName: '-[NativePushNotificationManagerIOSSpecBase setEventEmitterCallback:]', symObjAddr: 0xCD30, symBinAddr: 0x1BFBC, symSize: 0x50 }
  - { offset: 0x1187BB, size: 0x8, addend: 0x0, symName: '-[NativePushNotificationManagerIOSSpecBase .cxx_destruct]', symObjAddr: 0xCD80, symBinAddr: 0x1C00C, symSize: 0x30 }
  - { offset: 0x11887B, size: 0x8, addend: 0x0, symName: '-[NativePushNotificationManagerIOSSpecBase .cxx_construct]', symObjAddr: 0xCDB0, symBinAddr: 0x1C03C, symSize: 0x8 }
  - { offset: 0x1188B3, size: 0x8, addend: 0x0, symName: '-[NativePushNotificationManagerIOSSpecBase .cxx_construct]', symObjAddr: 0xCDB0, symBinAddr: 0x1C03C, symSize: 0x8 }
  - { offset: 0x1188D1, size: 0x8, addend: 0x0, symName: '-[NativePushNotificationManagerIOSSpecBase .cxx_construct]', symObjAddr: 0xCDB0, symBinAddr: 0x1C03C, symSize: 0x8 }
  - { offset: 0x1188EF, size: 0x8, addend: 0x0, symName: '-[NativePushNotificationManagerIOSSpecBase .cxx_construct]', symObjAddr: 0xCDB0, symBinAddr: 0x1C03C, symSize: 0x8 }
  - { offset: 0x11890D, size: 0x8, addend: 0x0, symName: '-[NativePushNotificationManagerIOSSpecBase .cxx_construct]', symObjAddr: 0xCDB0, symBinAddr: 0x1C03C, symSize: 0x8 }
  - { offset: 0x11892D, size: 0x8, addend: 0x0, symName: '+[RCTCxxConvert(NativePushNotificationManagerIOS_SpecRequestPermissionsPermission) JS_NativePushNotificationManagerIOS_SpecRequestPermissionsPermission:]', symObjAddr: 0xCDB8, symBinAddr: 0x1C044, symSize: 0x1C }
  - { offset: 0x118A23, size: 0x8, addend: 0x0, symName: __ZNSt3__110shared_ptrIvEC2B8ne200100IN2JS32NativePushNotificationManagerIOS32SpecRequestPermissionsPermissionELi0EEEPT_, symObjAddr: 0x13F24, symBinAddr: 0x22AD0, symSize: 0x6C }
  - { offset: 0x118B9A, size: 0x8, addend: 0x0, symName: '+[RCTCxxConvert(NativePushNotificationManagerIOS_Notification) JS_NativePushNotificationManagerIOS_Notification:]', symObjAddr: 0xCEF4, symBinAddr: 0x1C180, symSize: 0x1C }
  - { offset: 0x118C90, size: 0x8, addend: 0x0, symName: __ZNSt3__110shared_ptrIvEC2B8ne200100IN2JS32NativePushNotificationManagerIOS12NotificationELi0EEEPT_, symObjAddr: 0x14058, symBinAddr: 0x22BC8, symSize: 0x6C }
  - { offset: 0x118E0D, size: 0x8, addend: 0x0, symName: __ZN8facebook5react39NativePushNotificationManagerIOSSpecJSIC2ERKNS0_15ObjCTurboModule10InitParamsE, symObjAddr: 0xD030, symBinAddr: 0x1C2BC, symSize: 0x72C }
  - { offset: 0x11AB19, size: 0x8, addend: 0x0, symName: __ZN8facebook5react39NativePushNotificationManagerIOSSpecJSIC1ERKNS0_15ObjCTurboModule10InitParamsE, symObjAddr: 0xE32C, symBinAddr: 0x1D5B8, symSize: 0x4 }
  - { offset: 0x11AB57, size: 0x8, addend: 0x0, symName: __ZN8facebook5react39NativePushNotificationManagerIOSSpecJSIC1ERKNS0_15ObjCTurboModule10InitParamsE, symObjAddr: 0xE32C, symBinAddr: 0x1D5B8, symSize: 0x4 }
  - { offset: 0x11AB71, size: 0x8, addend: 0x0, symName: '-[NativeReactDevToolsRuntimeSettingsModuleSpecBase setEventEmitterCallback:]', symObjAddr: 0xE330, symBinAddr: 0x1D5BC, symSize: 0x50 }
  - { offset: 0x11ABD8, size: 0x8, addend: 0x0, symName: '-[NativeReactDevToolsRuntimeSettingsModuleSpecBase .cxx_destruct]', symObjAddr: 0xE380, symBinAddr: 0x1D60C, symSize: 0x30 }
  - { offset: 0x11AC98, size: 0x8, addend: 0x0, symName: '-[NativeReactDevToolsRuntimeSettingsModuleSpecBase .cxx_construct]', symObjAddr: 0xE3B0, symBinAddr: 0x1D63C, symSize: 0x8 }
  - { offset: 0x11ACD0, size: 0x8, addend: 0x0, symName: '-[NativeReactDevToolsRuntimeSettingsModuleSpecBase .cxx_construct]', symObjAddr: 0xE3B0, symBinAddr: 0x1D63C, symSize: 0x8 }
  - { offset: 0x11ACEE, size: 0x8, addend: 0x0, symName: '-[NativeReactDevToolsRuntimeSettingsModuleSpecBase .cxx_construct]', symObjAddr: 0xE3B0, symBinAddr: 0x1D63C, symSize: 0x8 }
  - { offset: 0x11AD0C, size: 0x8, addend: 0x0, symName: '-[NativeReactDevToolsRuntimeSettingsModuleSpecBase .cxx_construct]', symObjAddr: 0xE3B0, symBinAddr: 0x1D63C, symSize: 0x8 }
  - { offset: 0x11AD2A, size: 0x8, addend: 0x0, symName: '-[NativeReactDevToolsRuntimeSettingsModuleSpecBase .cxx_construct]', symObjAddr: 0xE3B0, symBinAddr: 0x1D63C, symSize: 0x8 }
  - { offset: 0x11AD4A, size: 0x8, addend: 0x0, symName: '+[RCTCxxConvert(NativeReactDevToolsRuntimeSettingsModule_PartialReloadAndProfileConfig) JS_NativeReactDevToolsRuntimeSettingsModule_PartialReloadAndProfileConfig:]', symObjAddr: 0xE3B8, symBinAddr: 0x1D644, symSize: 0x1C }
  - { offset: 0x11AE40, size: 0x8, addend: 0x0, symName: __ZNSt3__110shared_ptrIvEC2B8ne200100IN2JS40NativeReactDevToolsRuntimeSettingsModule29PartialReloadAndProfileConfigELi0EEEPT_, symObjAddr: 0x1418C, symBinAddr: 0x22CC0, symSize: 0x6C }
  - { offset: 0x11AFBD, size: 0x8, addend: 0x0, symName: __ZN8facebook5react47NativeReactDevToolsRuntimeSettingsModuleSpecJSIC2ERKNS0_15ObjCTurboModule10InitParamsE, symObjAddr: 0xE4F4, symBinAddr: 0x1D780, symSize: 0x140 }
  - { offset: 0x11B3D9, size: 0x8, addend: 0x0, symName: __ZN8facebook5react47NativeReactDevToolsRuntimeSettingsModuleSpecJSIC1ERKNS0_15ObjCTurboModule10InitParamsE, symObjAddr: 0xE784, symBinAddr: 0x1DA10, symSize: 0x4 }
  - { offset: 0x11B417, size: 0x8, addend: 0x0, symName: __ZN8facebook5react47NativeReactDevToolsRuntimeSettingsModuleSpecJSIC1ERKNS0_15ObjCTurboModule10InitParamsE, symObjAddr: 0xE784, symBinAddr: 0x1DA10, symSize: 0x4 }
  - { offset: 0x11B431, size: 0x8, addend: 0x0, symName: '-[NativeReactDevToolsSettingsManagerSpecBase setEventEmitterCallback:]', symObjAddr: 0xE788, symBinAddr: 0x1DA14, symSize: 0x50 }
  - { offset: 0x11B498, size: 0x8, addend: 0x0, symName: '-[NativeReactDevToolsSettingsManagerSpecBase .cxx_destruct]', symObjAddr: 0xE7D8, symBinAddr: 0x1DA64, symSize: 0x30 }
  - { offset: 0x11B558, size: 0x8, addend: 0x0, symName: '-[NativeReactDevToolsSettingsManagerSpecBase .cxx_construct]', symObjAddr: 0xE808, symBinAddr: 0x1DA94, symSize: 0x8 }
  - { offset: 0x11B590, size: 0x8, addend: 0x0, symName: '-[NativeReactDevToolsSettingsManagerSpecBase .cxx_construct]', symObjAddr: 0xE808, symBinAddr: 0x1DA94, symSize: 0x8 }
  - { offset: 0x11B5AE, size: 0x8, addend: 0x0, symName: '-[NativeReactDevToolsSettingsManagerSpecBase .cxx_construct]', symObjAddr: 0xE808, symBinAddr: 0x1DA94, symSize: 0x8 }
  - { offset: 0x11B5CC, size: 0x8, addend: 0x0, symName: '-[NativeReactDevToolsSettingsManagerSpecBase .cxx_construct]', symObjAddr: 0xE808, symBinAddr: 0x1DA94, symSize: 0x8 }
  - { offset: 0x11B5EA, size: 0x8, addend: 0x0, symName: '-[NativeReactDevToolsSettingsManagerSpecBase .cxx_construct]', symObjAddr: 0xE808, symBinAddr: 0x1DA94, symSize: 0x8 }
  - { offset: 0x11B610, size: 0x8, addend: 0x0, symName: __ZN8facebook5react41NativeReactDevToolsSettingsManagerSpecJSIC2ERKNS0_15ObjCTurboModule10InitParamsE, symObjAddr: 0xE810, symBinAddr: 0x1DA9C, symSize: 0x120 }
  - { offset: 0x11BA2C, size: 0x8, addend: 0x0, symName: __ZN8facebook5react41NativeReactDevToolsSettingsManagerSpecJSIC1ERKNS0_15ObjCTurboModule10InitParamsE, symObjAddr: 0xEA80, symBinAddr: 0x1DD0C, symSize: 0x4 }
  - { offset: 0x11BA6A, size: 0x8, addend: 0x0, symName: __ZN8facebook5react41NativeReactDevToolsSettingsManagerSpecJSIC1ERKNS0_15ObjCTurboModule10InitParamsE, symObjAddr: 0xEA80, symBinAddr: 0x1DD0C, symSize: 0x4 }
  - { offset: 0x11BA84, size: 0x8, addend: 0x0, symName: '-[NativeRedBoxSpecBase setEventEmitterCallback:]', symObjAddr: 0xEA84, symBinAddr: 0x1DD10, symSize: 0x50 }
  - { offset: 0x11BAEB, size: 0x8, addend: 0x0, symName: '-[NativeRedBoxSpecBase .cxx_destruct]', symObjAddr: 0xEAD4, symBinAddr: 0x1DD60, symSize: 0x30 }
  - { offset: 0x11BBAB, size: 0x8, addend: 0x0, symName: '-[NativeRedBoxSpecBase .cxx_construct]', symObjAddr: 0xEB04, symBinAddr: 0x1DD90, symSize: 0x8 }
  - { offset: 0x11BBE3, size: 0x8, addend: 0x0, symName: '-[NativeRedBoxSpecBase .cxx_construct]', symObjAddr: 0xEB04, symBinAddr: 0x1DD90, symSize: 0x8 }
  - { offset: 0x11BC01, size: 0x8, addend: 0x0, symName: '-[NativeRedBoxSpecBase .cxx_construct]', symObjAddr: 0xEB04, symBinAddr: 0x1DD90, symSize: 0x8 }
  - { offset: 0x11BC1F, size: 0x8, addend: 0x0, symName: '-[NativeRedBoxSpecBase .cxx_construct]', symObjAddr: 0xEB04, symBinAddr: 0x1DD90, symSize: 0x8 }
  - { offset: 0x11BC3D, size: 0x8, addend: 0x0, symName: '-[NativeRedBoxSpecBase .cxx_construct]', symObjAddr: 0xEB04, symBinAddr: 0x1DD90, symSize: 0x8 }
  - { offset: 0x11BC63, size: 0x8, addend: 0x0, symName: __ZN8facebook5react19NativeRedBoxSpecJSIC2ERKNS0_15ObjCTurboModule10InitParamsE, symObjAddr: 0xEB0C, symBinAddr: 0x1DD98, symSize: 0x120 }
  - { offset: 0x11C07F, size: 0x8, addend: 0x0, symName: __ZN8facebook5react19NativeRedBoxSpecJSIC1ERKNS0_15ObjCTurboModule10InitParamsE, symObjAddr: 0xED7C, symBinAddr: 0x1E008, symSize: 0x4 }
  - { offset: 0x11C0BD, size: 0x8, addend: 0x0, symName: __ZN8facebook5react19NativeRedBoxSpecJSIC1ERKNS0_15ObjCTurboModule10InitParamsE, symObjAddr: 0xED7C, symBinAddr: 0x1E008, symSize: 0x4 }
  - { offset: 0x11C0D7, size: 0x8, addend: 0x0, symName: '-[NativeSegmentFetcherSpecBase setEventEmitterCallback:]', symObjAddr: 0xED80, symBinAddr: 0x1E00C, symSize: 0x50 }
  - { offset: 0x11C13E, size: 0x8, addend: 0x0, symName: '-[NativeSegmentFetcherSpecBase .cxx_destruct]', symObjAddr: 0xEDD0, symBinAddr: 0x1E05C, symSize: 0x30 }
  - { offset: 0x11C1FE, size: 0x8, addend: 0x0, symName: '-[NativeSegmentFetcherSpecBase .cxx_construct]', symObjAddr: 0xEE00, symBinAddr: 0x1E08C, symSize: 0x8 }
  - { offset: 0x11C236, size: 0x8, addend: 0x0, symName: '-[NativeSegmentFetcherSpecBase .cxx_construct]', symObjAddr: 0xEE00, symBinAddr: 0x1E08C, symSize: 0x8 }
  - { offset: 0x11C254, size: 0x8, addend: 0x0, symName: '-[NativeSegmentFetcherSpecBase .cxx_construct]', symObjAddr: 0xEE00, symBinAddr: 0x1E08C, symSize: 0x8 }
  - { offset: 0x11C272, size: 0x8, addend: 0x0, symName: '-[NativeSegmentFetcherSpecBase .cxx_construct]', symObjAddr: 0xEE00, symBinAddr: 0x1E08C, symSize: 0x8 }
  - { offset: 0x11C290, size: 0x8, addend: 0x0, symName: '-[NativeSegmentFetcherSpecBase .cxx_construct]', symObjAddr: 0xEE00, symBinAddr: 0x1E08C, symSize: 0x8 }
  - { offset: 0x11C2B6, size: 0x8, addend: 0x0, symName: __ZN8facebook5react27NativeSegmentFetcherSpecJSIC2ERKNS0_15ObjCTurboModule10InitParamsE, symObjAddr: 0xEE08, symBinAddr: 0x1E094, symSize: 0x124 }
  - { offset: 0x11C6D2, size: 0x8, addend: 0x0, symName: __ZN8facebook5react27NativeSegmentFetcherSpecJSIC1ERKNS0_15ObjCTurboModule10InitParamsE, symObjAddr: 0xF07C, symBinAddr: 0x1E308, symSize: 0x4 }
  - { offset: 0x11C710, size: 0x8, addend: 0x0, symName: __ZN8facebook5react27NativeSegmentFetcherSpecJSIC1ERKNS0_15ObjCTurboModule10InitParamsE, symObjAddr: 0xF07C, symBinAddr: 0x1E308, symSize: 0x4 }
  - { offset: 0x11C72A, size: 0x8, addend: 0x0, symName: '-[NativeSettingsManagerSpecBase setEventEmitterCallback:]', symObjAddr: 0xF080, symBinAddr: 0x1E30C, symSize: 0x50 }
  - { offset: 0x11C791, size: 0x8, addend: 0x0, symName: '-[NativeSettingsManagerSpecBase .cxx_destruct]', symObjAddr: 0xF0D0, symBinAddr: 0x1E35C, symSize: 0x30 }
  - { offset: 0x11C851, size: 0x8, addend: 0x0, symName: '-[NativeSettingsManagerSpecBase .cxx_construct]', symObjAddr: 0xF100, symBinAddr: 0x1E38C, symSize: 0x8 }
  - { offset: 0x11C889, size: 0x8, addend: 0x0, symName: '-[NativeSettingsManagerSpecBase .cxx_construct]', symObjAddr: 0xF100, symBinAddr: 0x1E38C, symSize: 0x8 }
  - { offset: 0x11C8A7, size: 0x8, addend: 0x0, symName: '-[NativeSettingsManagerSpecBase .cxx_construct]', symObjAddr: 0xF100, symBinAddr: 0x1E38C, symSize: 0x8 }
  - { offset: 0x11C8C5, size: 0x8, addend: 0x0, symName: '-[NativeSettingsManagerSpecBase .cxx_construct]', symObjAddr: 0xF100, symBinAddr: 0x1E38C, symSize: 0x8 }
  - { offset: 0x11C8E3, size: 0x8, addend: 0x0, symName: '-[NativeSettingsManagerSpecBase .cxx_construct]', symObjAddr: 0xF100, symBinAddr: 0x1E38C, symSize: 0x8 }
  - { offset: 0x11C909, size: 0x8, addend: 0x0, symName: __ZN8facebook5react28NativeSettingsManagerSpecJSIC2ERKNS0_15ObjCTurboModule10InitParamsE, symObjAddr: 0xF108, symBinAddr: 0x1E394, symSize: 0x17C }
  - { offset: 0x11CEB4, size: 0x8, addend: 0x0, symName: __ZN8facebook5react28NativeSettingsManagerSpecJSIC1ERKNS0_15ObjCTurboModule10InitParamsE, symObjAddr: 0xF47C, symBinAddr: 0x1E708, symSize: 0x4 }
  - { offset: 0x11CEF2, size: 0x8, addend: 0x0, symName: __ZN8facebook5react28NativeSettingsManagerSpecJSIC1ERKNS0_15ObjCTurboModule10InitParamsE, symObjAddr: 0xF47C, symBinAddr: 0x1E708, symSize: 0x4 }
  - { offset: 0x11CF0C, size: 0x8, addend: 0x0, symName: '-[NativeShareModuleSpecBase setEventEmitterCallback:]', symObjAddr: 0xF480, symBinAddr: 0x1E70C, symSize: 0x50 }
  - { offset: 0x11CF73, size: 0x8, addend: 0x0, symName: '-[NativeShareModuleSpecBase .cxx_destruct]', symObjAddr: 0xF4D0, symBinAddr: 0x1E75C, symSize: 0x30 }
  - { offset: 0x11D033, size: 0x8, addend: 0x0, symName: '-[NativeShareModuleSpecBase .cxx_construct]', symObjAddr: 0xF500, symBinAddr: 0x1E78C, symSize: 0x8 }
  - { offset: 0x11D06B, size: 0x8, addend: 0x0, symName: '-[NativeShareModuleSpecBase .cxx_construct]', symObjAddr: 0xF500, symBinAddr: 0x1E78C, symSize: 0x8 }
  - { offset: 0x11D089, size: 0x8, addend: 0x0, symName: '-[NativeShareModuleSpecBase .cxx_construct]', symObjAddr: 0xF500, symBinAddr: 0x1E78C, symSize: 0x8 }
  - { offset: 0x11D0A7, size: 0x8, addend: 0x0, symName: '-[NativeShareModuleSpecBase .cxx_construct]', symObjAddr: 0xF500, symBinAddr: 0x1E78C, symSize: 0x8 }
  - { offset: 0x11D0C5, size: 0x8, addend: 0x0, symName: '-[NativeShareModuleSpecBase .cxx_construct]', symObjAddr: 0xF500, symBinAddr: 0x1E78C, symSize: 0x8 }
  - { offset: 0x11D0E5, size: 0x8, addend: 0x0, symName: '+[RCTCxxConvert(NativeShareModule_SpecShareContent) JS_NativeShareModule_SpecShareContent:]', symObjAddr: 0xF508, symBinAddr: 0x1E794, symSize: 0x1C }
  - { offset: 0x11D1DB, size: 0x8, addend: 0x0, symName: __ZNSt3__110shared_ptrIvEC2B8ne200100IN2JS17NativeShareModule16SpecShareContentELi0EEEPT_, symObjAddr: 0x142C0, symBinAddr: 0x22DB8, symSize: 0x6C }
  - { offset: 0x11D358, size: 0x8, addend: 0x0, symName: __ZN8facebook5react24NativeShareModuleSpecJSIC2ERKNS0_15ObjCTurboModule10InitParamsE, symObjAddr: 0xF644, symBinAddr: 0x1E8D0, symSize: 0xDC }
  - { offset: 0x11D63E, size: 0x8, addend: 0x0, symName: __ZN8facebook5react24NativeShareModuleSpecJSIC1ERKNS0_15ObjCTurboModule10InitParamsE, symObjAddr: 0xF7C8, symBinAddr: 0x1EA54, symSize: 0x4 }
  - { offset: 0x11D67C, size: 0x8, addend: 0x0, symName: __ZN8facebook5react24NativeShareModuleSpecJSIC1ERKNS0_15ObjCTurboModule10InitParamsE, symObjAddr: 0xF7C8, symBinAddr: 0x1EA54, symSize: 0x4 }
  - { offset: 0x11D696, size: 0x8, addend: 0x0, symName: '-[NativeSoundManagerSpecBase setEventEmitterCallback:]', symObjAddr: 0xF7CC, symBinAddr: 0x1EA58, symSize: 0x50 }
  - { offset: 0x11D6FD, size: 0x8, addend: 0x0, symName: '-[NativeSoundManagerSpecBase .cxx_destruct]', symObjAddr: 0xF81C, symBinAddr: 0x1EAA8, symSize: 0x30 }
  - { offset: 0x11D7BD, size: 0x8, addend: 0x0, symName: '-[NativeSoundManagerSpecBase .cxx_construct]', symObjAddr: 0xF84C, symBinAddr: 0x1EAD8, symSize: 0x8 }
  - { offset: 0x11D7F5, size: 0x8, addend: 0x0, symName: '-[NativeSoundManagerSpecBase .cxx_construct]', symObjAddr: 0xF84C, symBinAddr: 0x1EAD8, symSize: 0x8 }
  - { offset: 0x11D813, size: 0x8, addend: 0x0, symName: '-[NativeSoundManagerSpecBase .cxx_construct]', symObjAddr: 0xF84C, symBinAddr: 0x1EAD8, symSize: 0x8 }
  - { offset: 0x11D831, size: 0x8, addend: 0x0, symName: '-[NativeSoundManagerSpecBase .cxx_construct]', symObjAddr: 0xF84C, symBinAddr: 0x1EAD8, symSize: 0x8 }
  - { offset: 0x11D84F, size: 0x8, addend: 0x0, symName: '-[NativeSoundManagerSpecBase .cxx_construct]', symObjAddr: 0xF84C, symBinAddr: 0x1EAD8, symSize: 0x8 }
  - { offset: 0x11D875, size: 0x8, addend: 0x0, symName: __ZN8facebook5react25NativeSoundManagerSpecJSIC2ERKNS0_15ObjCTurboModule10InitParamsE, symObjAddr: 0xF854, symBinAddr: 0x1EAE0, symSize: 0xB8 }
  - { offset: 0x11DB5B, size: 0x8, addend: 0x0, symName: __ZN8facebook5react25NativeSoundManagerSpecJSIC1ERKNS0_15ObjCTurboModule10InitParamsE, symObjAddr: 0xF9B4, symBinAddr: 0x1EC40, symSize: 0x4 }
  - { offset: 0x11DB99, size: 0x8, addend: 0x0, symName: __ZN8facebook5react25NativeSoundManagerSpecJSIC1ERKNS0_15ObjCTurboModule10InitParamsE, symObjAddr: 0xF9B4, symBinAddr: 0x1EC40, symSize: 0x4 }
  - { offset: 0x11DBB3, size: 0x8, addend: 0x0, symName: '-[NativeSourceCodeSpecBase setEventEmitterCallback:]', symObjAddr: 0xF9B8, symBinAddr: 0x1EC44, symSize: 0x50 }
  - { offset: 0x11DC1A, size: 0x8, addend: 0x0, symName: '-[NativeSourceCodeSpecBase .cxx_destruct]', symObjAddr: 0xFA08, symBinAddr: 0x1EC94, symSize: 0x30 }
  - { offset: 0x11DCDA, size: 0x8, addend: 0x0, symName: '-[NativeSourceCodeSpecBase .cxx_construct]', symObjAddr: 0xFA38, symBinAddr: 0x1ECC4, symSize: 0x8 }
  - { offset: 0x11DD12, size: 0x8, addend: 0x0, symName: '-[NativeSourceCodeSpecBase .cxx_construct]', symObjAddr: 0xFA38, symBinAddr: 0x1ECC4, symSize: 0x8 }
  - { offset: 0x11DD30, size: 0x8, addend: 0x0, symName: '-[NativeSourceCodeSpecBase .cxx_construct]', symObjAddr: 0xFA38, symBinAddr: 0x1ECC4, symSize: 0x8 }
  - { offset: 0x11DD4E, size: 0x8, addend: 0x0, symName: '-[NativeSourceCodeSpecBase .cxx_construct]', symObjAddr: 0xFA38, symBinAddr: 0x1ECC4, symSize: 0x8 }
  - { offset: 0x11DD6C, size: 0x8, addend: 0x0, symName: '-[NativeSourceCodeSpecBase .cxx_construct]', symObjAddr: 0xFA38, symBinAddr: 0x1ECC4, symSize: 0x8 }
  - { offset: 0x11DD92, size: 0x8, addend: 0x0, symName: __ZN8facebook5react23NativeSourceCodeSpecJSIC2ERKNS0_15ObjCTurboModule10InitParamsE, symObjAddr: 0xFA40, symBinAddr: 0x1ECCC, symSize: 0xB8 }
  - { offset: 0x11E078, size: 0x8, addend: 0x0, symName: __ZN8facebook5react23NativeSourceCodeSpecJSIC1ERKNS0_15ObjCTurboModule10InitParamsE, symObjAddr: 0xFBA0, symBinAddr: 0x1EE2C, symSize: 0x4 }
  - { offset: 0x11E0B6, size: 0x8, addend: 0x0, symName: __ZN8facebook5react23NativeSourceCodeSpecJSIC1ERKNS0_15ObjCTurboModule10InitParamsE, symObjAddr: 0xFBA0, symBinAddr: 0x1EE2C, symSize: 0x4 }
  - { offset: 0x11E0D0, size: 0x8, addend: 0x0, symName: '-[NativeStatusBarManagerIOSSpecBase setEventEmitterCallback:]', symObjAddr: 0xFBA4, symBinAddr: 0x1EE30, symSize: 0x50 }
  - { offset: 0x11E137, size: 0x8, addend: 0x0, symName: '-[NativeStatusBarManagerIOSSpecBase .cxx_destruct]', symObjAddr: 0xFBF4, symBinAddr: 0x1EE80, symSize: 0x30 }
  - { offset: 0x11E1F7, size: 0x8, addend: 0x0, symName: '-[NativeStatusBarManagerIOSSpecBase .cxx_construct]', symObjAddr: 0xFC24, symBinAddr: 0x1EEB0, symSize: 0x8 }
  - { offset: 0x11E22F, size: 0x8, addend: 0x0, symName: '-[NativeStatusBarManagerIOSSpecBase .cxx_construct]', symObjAddr: 0xFC24, symBinAddr: 0x1EEB0, symSize: 0x8 }
  - { offset: 0x11E24D, size: 0x8, addend: 0x0, symName: '-[NativeStatusBarManagerIOSSpecBase .cxx_construct]', symObjAddr: 0xFC24, symBinAddr: 0x1EEB0, symSize: 0x8 }
  - { offset: 0x11E26B, size: 0x8, addend: 0x0, symName: '-[NativeStatusBarManagerIOSSpecBase .cxx_construct]', symObjAddr: 0xFC24, symBinAddr: 0x1EEB0, symSize: 0x8 }
  - { offset: 0x11E289, size: 0x8, addend: 0x0, symName: '-[NativeStatusBarManagerIOSSpecBase .cxx_construct]', symObjAddr: 0xFC24, symBinAddr: 0x1EEB0, symSize: 0x8 }
  - { offset: 0x11E2AF, size: 0x8, addend: 0x0, symName: __ZN8facebook5react32NativeStatusBarManagerIOSSpecJSIC2ERKNS0_15ObjCTurboModule10InitParamsE, symObjAddr: 0xFC2C, symBinAddr: 0x1EEB8, symSize: 0x2EC }
  - { offset: 0x11EE96, size: 0x8, addend: 0x0, symName: __ZN8facebook5react32NativeStatusBarManagerIOSSpecJSIC1ERKNS0_15ObjCTurboModule10InitParamsE, symObjAddr: 0x103B0, symBinAddr: 0x1F63C, symSize: 0x4 }
  - { offset: 0x11EED4, size: 0x8, addend: 0x0, symName: __ZN8facebook5react32NativeStatusBarManagerIOSSpecJSIC1ERKNS0_15ObjCTurboModule10InitParamsE, symObjAddr: 0x103B0, symBinAddr: 0x1F63C, symSize: 0x4 }
  - { offset: 0x11EEEE, size: 0x8, addend: 0x0, symName: '-[NativeTimingSpecBase setEventEmitterCallback:]', symObjAddr: 0x103B4, symBinAddr: 0x1F640, symSize: 0x50 }
  - { offset: 0x11EF55, size: 0x8, addend: 0x0, symName: '-[NativeTimingSpecBase .cxx_destruct]', symObjAddr: 0x10404, symBinAddr: 0x1F690, symSize: 0x30 }
  - { offset: 0x11F015, size: 0x8, addend: 0x0, symName: '-[NativeTimingSpecBase .cxx_construct]', symObjAddr: 0x10434, symBinAddr: 0x1F6C0, symSize: 0x8 }
  - { offset: 0x11F04D, size: 0x8, addend: 0x0, symName: '-[NativeTimingSpecBase .cxx_construct]', symObjAddr: 0x10434, symBinAddr: 0x1F6C0, symSize: 0x8 }
  - { offset: 0x11F06B, size: 0x8, addend: 0x0, symName: '-[NativeTimingSpecBase .cxx_construct]', symObjAddr: 0x10434, symBinAddr: 0x1F6C0, symSize: 0x8 }
  - { offset: 0x11F089, size: 0x8, addend: 0x0, symName: '-[NativeTimingSpecBase .cxx_construct]', symObjAddr: 0x10434, symBinAddr: 0x1F6C0, symSize: 0x8 }
  - { offset: 0x11F0A7, size: 0x8, addend: 0x0, symName: '-[NativeTimingSpecBase .cxx_construct]', symObjAddr: 0x10434, symBinAddr: 0x1F6C0, symSize: 0x8 }
  - { offset: 0x11F0CD, size: 0x8, addend: 0x0, symName: __ZN8facebook5react19NativeTimingSpecJSIC2ERKNS0_15ObjCTurboModule10InitParamsE, symObjAddr: 0x1043C, symBinAddr: 0x1F6C8, symSize: 0x180 }
  - { offset: 0x11F678, size: 0x8, addend: 0x0, symName: __ZN8facebook5react19NativeTimingSpecJSIC1ERKNS0_15ObjCTurboModule10InitParamsE, symObjAddr: 0x107B4, symBinAddr: 0x1FA40, symSize: 0x4 }
  - { offset: 0x11F6B6, size: 0x8, addend: 0x0, symName: __ZN8facebook5react19NativeTimingSpecJSIC1ERKNS0_15ObjCTurboModule10InitParamsE, symObjAddr: 0x107B4, symBinAddr: 0x1FA40, symSize: 0x4 }
  - { offset: 0x11F6D0, size: 0x8, addend: 0x0, symName: '-[NativeVibrationSpecBase setEventEmitterCallback:]', symObjAddr: 0x107B8, symBinAddr: 0x1FA44, symSize: 0x50 }
  - { offset: 0x11F737, size: 0x8, addend: 0x0, symName: '-[NativeVibrationSpecBase .cxx_destruct]', symObjAddr: 0x10808, symBinAddr: 0x1FA94, symSize: 0x30 }
  - { offset: 0x11F7F7, size: 0x8, addend: 0x0, symName: '-[NativeVibrationSpecBase .cxx_construct]', symObjAddr: 0x10838, symBinAddr: 0x1FAC4, symSize: 0x8 }
  - { offset: 0x11F82F, size: 0x8, addend: 0x0, symName: '-[NativeVibrationSpecBase .cxx_construct]', symObjAddr: 0x10838, symBinAddr: 0x1FAC4, symSize: 0x8 }
  - { offset: 0x11F84D, size: 0x8, addend: 0x0, symName: '-[NativeVibrationSpecBase .cxx_construct]', symObjAddr: 0x10838, symBinAddr: 0x1FAC4, symSize: 0x8 }
  - { offset: 0x11F86B, size: 0x8, addend: 0x0, symName: '-[NativeVibrationSpecBase .cxx_construct]', symObjAddr: 0x10838, symBinAddr: 0x1FAC4, symSize: 0x8 }
  - { offset: 0x11F889, size: 0x8, addend: 0x0, symName: '-[NativeVibrationSpecBase .cxx_construct]', symObjAddr: 0x10838, symBinAddr: 0x1FAC4, symSize: 0x8 }
  - { offset: 0x11F8AF, size: 0x8, addend: 0x0, symName: __ZN8facebook5react22NativeVibrationSpecJSIC2ERKNS0_15ObjCTurboModule10InitParamsE, symObjAddr: 0x10840, symBinAddr: 0x1FACC, symSize: 0x17C }
  - { offset: 0x11FE5A, size: 0x8, addend: 0x0, symName: __ZN8facebook5react22NativeVibrationSpecJSIC1ERKNS0_15ObjCTurboModule10InitParamsE, symObjAddr: 0x10BB4, symBinAddr: 0x1FE40, symSize: 0x4 }
  - { offset: 0x11FE98, size: 0x8, addend: 0x0, symName: __ZN8facebook5react22NativeVibrationSpecJSIC1ERKNS0_15ObjCTurboModule10InitParamsE, symObjAddr: 0x10BB4, symBinAddr: 0x1FE40, symSize: 0x4 }
  - { offset: 0x11FEB2, size: 0x8, addend: 0x0, symName: '-[NativeWebSocketModuleSpecBase setEventEmitterCallback:]', symObjAddr: 0x10BB8, symBinAddr: 0x1FE44, symSize: 0x50 }
  - { offset: 0x11FF19, size: 0x8, addend: 0x0, symName: '-[NativeWebSocketModuleSpecBase .cxx_destruct]', symObjAddr: 0x10C08, symBinAddr: 0x1FE94, symSize: 0x30 }
  - { offset: 0x11FFD9, size: 0x8, addend: 0x0, symName: '-[NativeWebSocketModuleSpecBase .cxx_construct]', symObjAddr: 0x10C38, symBinAddr: 0x1FEC4, symSize: 0x8 }
  - { offset: 0x120011, size: 0x8, addend: 0x0, symName: '-[NativeWebSocketModuleSpecBase .cxx_construct]', symObjAddr: 0x10C38, symBinAddr: 0x1FEC4, symSize: 0x8 }
  - { offset: 0x12002F, size: 0x8, addend: 0x0, symName: '-[NativeWebSocketModuleSpecBase .cxx_construct]', symObjAddr: 0x10C38, symBinAddr: 0x1FEC4, symSize: 0x8 }
  - { offset: 0x12004D, size: 0x8, addend: 0x0, symName: '-[NativeWebSocketModuleSpecBase .cxx_construct]', symObjAddr: 0x10C38, symBinAddr: 0x1FEC4, symSize: 0x8 }
  - { offset: 0x12006B, size: 0x8, addend: 0x0, symName: '-[NativeWebSocketModuleSpecBase .cxx_construct]', symObjAddr: 0x10C38, symBinAddr: 0x1FEC4, symSize: 0x8 }
  - { offset: 0x12008B, size: 0x8, addend: 0x0, symName: '+[RCTCxxConvert(NativeWebSocketModule_SpecConnectOptions) JS_NativeWebSocketModule_SpecConnectOptions:]', symObjAddr: 0x10C40, symBinAddr: 0x1FECC, symSize: 0x1C }
  - { offset: 0x120181, size: 0x8, addend: 0x0, symName: __ZNSt3__110shared_ptrIvEC2B8ne200100IN2JS21NativeWebSocketModule18SpecConnectOptionsELi0EEEPT_, symObjAddr: 0x143F4, symBinAddr: 0x22EB0, symSize: 0x6C }
  - { offset: 0x1202FE, size: 0x8, addend: 0x0, symName: __ZN8facebook5react28NativeWebSocketModuleSpecJSIC2ERKNS0_15ObjCTurboModule10InitParamsE, symObjAddr: 0x10D7C, symBinAddr: 0x20008, symSize: 0x310 }
  - { offset: 0x120EE5, size: 0x8, addend: 0x0, symName: __ZN8facebook5react28NativeWebSocketModuleSpecJSIC1ERKNS0_15ObjCTurboModule10InitParamsE, symObjAddr: 0x11524, symBinAddr: 0x207B0, symSize: 0x4 }
  - { offset: 0x120F23, size: 0x8, addend: 0x0, symName: __ZN8facebook5react28NativeWebSocketModuleSpecJSIC1ERKNS0_15ObjCTurboModule10InitParamsE, symObjAddr: 0x11524, symBinAddr: 0x207B0, symSize: 0x4 }
  - { offset: 0x120F5F, size: 0x8, addend: 0x0, symName: __ZN8facebook5react30NativeAccessibilityInfoSpecJSID1Ev, symObjAddr: 0x11528, symBinAddr: 0x207B4, symSize: 0x4 }
  - { offset: 0x120F81, size: 0x8, addend: 0x0, symName: __ZN8facebook5react30NativeAccessibilityInfoSpecJSID1Ev, symObjAddr: 0x11528, symBinAddr: 0x207B4, symSize: 0x4 }
  - { offset: 0x120F9E, size: 0x8, addend: 0x0, symName: __ZN8facebook5react30NativeAccessibilityInfoSpecJSID1Ev, symObjAddr: 0x11528, symBinAddr: 0x207B4, symSize: 0x4 }
  - { offset: 0x120FCD, size: 0x8, addend: 0x0, symName: __ZN8facebook5react30NativeAccessibilityInfoSpecJSID0Ev, symObjAddr: 0x1152C, symBinAddr: 0x207B8, symSize: 0x14 }
  - { offset: 0x1210ED, size: 0x8, addend: 0x0, symName: __ZN8facebook5react11TurboModule3getERNS_3jsi7RuntimeERKNS2_10PropNameIDE, symObjAddr: 0x11540, symBinAddr: 0x207CC, symSize: 0xF0 }
  - { offset: 0x1212B9, size: 0x8, addend: 0x0, symName: __ZNK8facebook3jsi6Object11setPropertyIRNS0_5ValueEEEvRNS0_7RuntimeERKNS0_10PropNameIDEOT_, symObjAddr: 0x14528, symBinAddr: 0x22FA8, symSize: 0x78 }
  - { offset: 0x12150C, size: 0x8, addend: 0x0, symName: __ZN8facebook5react11TurboModule16getPropertyNamesERNS_3jsi7RuntimeE, symObjAddr: 0x11630, symBinAddr: 0x208BC, symSize: 0xE4 }
  - { offset: 0x121813, size: 0x8, addend: 0x0, symName: __ZNSt3__16vectorIN8facebook3jsi10PropNameIDENS_9allocatorIS3_EEE7reserveEm, symObjAddr: 0x145A0, symBinAddr: 0x23020, symSize: 0x8C }
  - { offset: 0x1219AB, size: 0x8, addend: 0x0, symName: __ZNSt3__16vectorIN8facebook3jsi10PropNameIDENS_9allocatorIS3_EEE9push_backB8ne200100EOS3_, symObjAddr: 0x1462C, symBinAddr: 0x230AC, symSize: 0xF0 }
  - { offset: 0x121D5B, size: 0x8, addend: 0x0, symName: __ZNSt3__16vectorIN8facebook3jsi10PropNameIDENS_9allocatorIS3_EEE16__destroy_vectorclB8ne200100Ev, symObjAddr: 0x14878, symBinAddr: 0x232F8, symSize: 0x78 }
  - { offset: 0x1224F8, size: 0x8, addend: 0x0, symName: __ZNSt3__112__hash_tableINS_17__hash_value_typeINS_12basic_stringIcNS_11char_traitsIcEENS_9allocatorIcEEEEN8facebook5react11TurboModule14MethodMetadataEEENS_22__unordered_map_hasherIS7_SC_NS_4hashIS7_EENS_8equal_toIS7_EELb1EEENS_21__unordered_map_equalIS7_SC_SH_SF_Lb1EEENS5_ISC_EEE4findIS7_EENS_15__hash_iteratorIPNS_11__hash_nodeISC_PvEEEERKT_, symObjAddr: 0x148F0, symBinAddr: 0x23370, symSize: 0xF8 }
  - { offset: 0x1226EE, size: 0x8, addend: 0x0, symName: __ZNSt3__110__function12__value_funcIFN8facebook3jsi5ValueERNS3_7RuntimeERKS4_PS7_mEEC2B8ne200100EOSB_, symObjAddr: 0x149E8, symBinAddr: 0x23468, symSize: 0x64 }
  - { offset: 0x1228A7, size: 0x8, addend: 0x0, symName: __ZN8facebook5react33NativeAccessibilityManagerSpecJSID1Ev, symObjAddr: 0x11954, symBinAddr: 0x20BE0, symSize: 0x4 }
  - { offset: 0x1228C9, size: 0x8, addend: 0x0, symName: __ZN8facebook5react33NativeAccessibilityManagerSpecJSID1Ev, symObjAddr: 0x11954, symBinAddr: 0x20BE0, symSize: 0x4 }
  - { offset: 0x1228E6, size: 0x8, addend: 0x0, symName: __ZN8facebook5react33NativeAccessibilityManagerSpecJSID1Ev, symObjAddr: 0x11954, symBinAddr: 0x20BE0, symSize: 0x4 }
  - { offset: 0x122915, size: 0x8, addend: 0x0, symName: __ZN8facebook5react33NativeAccessibilityManagerSpecJSID0Ev, symObjAddr: 0x11958, symBinAddr: 0x20BE4, symSize: 0x14 }
  - { offset: 0x1229AF, size: 0x8, addend: 0x0, symName: __ZN8facebook5react31NativeActionSheetManagerSpecJSID1Ev, symObjAddr: 0x1196C, symBinAddr: 0x20BF8, symSize: 0x4 }
  - { offset: 0x1229D1, size: 0x8, addend: 0x0, symName: __ZN8facebook5react31NativeActionSheetManagerSpecJSID1Ev, symObjAddr: 0x1196C, symBinAddr: 0x20BF8, symSize: 0x4 }
  - { offset: 0x1229EE, size: 0x8, addend: 0x0, symName: __ZN8facebook5react31NativeActionSheetManagerSpecJSID1Ev, symObjAddr: 0x1196C, symBinAddr: 0x20BF8, symSize: 0x4 }
  - { offset: 0x122A1D, size: 0x8, addend: 0x0, symName: __ZN8facebook5react31NativeActionSheetManagerSpecJSID0Ev, symObjAddr: 0x11970, symBinAddr: 0x20BFC, symSize: 0x14 }
  - { offset: 0x122AB8, size: 0x8, addend: 0x0, symName: __ZN8facebook5react25NativeAlertManagerSpecJSID1Ev, symObjAddr: 0x11984, symBinAddr: 0x20C10, symSize: 0x4 }
  - { offset: 0x122ADA, size: 0x8, addend: 0x0, symName: __ZN8facebook5react25NativeAlertManagerSpecJSID1Ev, symObjAddr: 0x11984, symBinAddr: 0x20C10, symSize: 0x4 }
  - { offset: 0x122AF8, size: 0x8, addend: 0x0, symName: __ZN8facebook5react25NativeAlertManagerSpecJSID1Ev, symObjAddr: 0x11984, symBinAddr: 0x20C10, symSize: 0x4 }
  - { offset: 0x122B28, size: 0x8, addend: 0x0, symName: __ZN8facebook5react25NativeAlertManagerSpecJSID0Ev, symObjAddr: 0x11988, symBinAddr: 0x20C14, symSize: 0x14 }
  - { offset: 0x122BC6, size: 0x8, addend: 0x0, symName: __ZN8facebook5react27NativeAnimatedModuleSpecJSID1Ev, symObjAddr: 0x1199C, symBinAddr: 0x20C28, symSize: 0x4 }
  - { offset: 0x122BE8, size: 0x8, addend: 0x0, symName: __ZN8facebook5react27NativeAnimatedModuleSpecJSID1Ev, symObjAddr: 0x1199C, symBinAddr: 0x20C28, symSize: 0x4 }
  - { offset: 0x122C06, size: 0x8, addend: 0x0, symName: __ZN8facebook5react27NativeAnimatedModuleSpecJSID1Ev, symObjAddr: 0x1199C, symBinAddr: 0x20C28, symSize: 0x4 }
  - { offset: 0x122C36, size: 0x8, addend: 0x0, symName: __ZN8facebook5react27NativeAnimatedModuleSpecJSID0Ev, symObjAddr: 0x119A0, symBinAddr: 0x20C2C, symSize: 0x14 }
  - { offset: 0x122CD4, size: 0x8, addend: 0x0, symName: __ZN8facebook5react32NativeAnimatedTurboModuleSpecJSID1Ev, symObjAddr: 0x119B4, symBinAddr: 0x20C40, symSize: 0x4 }
  - { offset: 0x122CF6, size: 0x8, addend: 0x0, symName: __ZN8facebook5react32NativeAnimatedTurboModuleSpecJSID1Ev, symObjAddr: 0x119B4, symBinAddr: 0x20C40, symSize: 0x4 }
  - { offset: 0x122D14, size: 0x8, addend: 0x0, symName: __ZN8facebook5react32NativeAnimatedTurboModuleSpecJSID1Ev, symObjAddr: 0x119B4, symBinAddr: 0x20C40, symSize: 0x4 }
  - { offset: 0x122D44, size: 0x8, addend: 0x0, symName: __ZN8facebook5react32NativeAnimatedTurboModuleSpecJSID0Ev, symObjAddr: 0x119B8, symBinAddr: 0x20C44, symSize: 0x14 }
  - { offset: 0x122DE2, size: 0x8, addend: 0x0, symName: __ZN8facebook5react21NativeAppStateSpecJSID1Ev, symObjAddr: 0x119CC, symBinAddr: 0x20C58, symSize: 0x4 }
  - { offset: 0x122E04, size: 0x8, addend: 0x0, symName: __ZN8facebook5react21NativeAppStateSpecJSID1Ev, symObjAddr: 0x119CC, symBinAddr: 0x20C58, symSize: 0x4 }
  - { offset: 0x122E22, size: 0x8, addend: 0x0, symName: __ZN8facebook5react21NativeAppStateSpecJSID1Ev, symObjAddr: 0x119CC, symBinAddr: 0x20C58, symSize: 0x4 }
  - { offset: 0x122E52, size: 0x8, addend: 0x0, symName: __ZN8facebook5react21NativeAppStateSpecJSID0Ev, symObjAddr: 0x119D0, symBinAddr: 0x20C5C, symSize: 0x14 }
  - { offset: 0x122EF0, size: 0x8, addend: 0x0, symName: __ZN8facebook5react23NativeAppearanceSpecJSID1Ev, symObjAddr: 0x119E4, symBinAddr: 0x20C70, symSize: 0x4 }
  - { offset: 0x122F12, size: 0x8, addend: 0x0, symName: __ZN8facebook5react23NativeAppearanceSpecJSID1Ev, symObjAddr: 0x119E4, symBinAddr: 0x20C70, symSize: 0x4 }
  - { offset: 0x122F30, size: 0x8, addend: 0x0, symName: __ZN8facebook5react23NativeAppearanceSpecJSID1Ev, symObjAddr: 0x119E4, symBinAddr: 0x20C70, symSize: 0x4 }
  - { offset: 0x122F60, size: 0x8, addend: 0x0, symName: __ZN8facebook5react23NativeAppearanceSpecJSID0Ev, symObjAddr: 0x119E8, symBinAddr: 0x20C74, symSize: 0x14 }
  - { offset: 0x122FFE, size: 0x8, addend: 0x0, symName: __ZN8facebook5react23NativeBlobModuleSpecJSID1Ev, symObjAddr: 0x119FC, symBinAddr: 0x20C88, symSize: 0x4 }
  - { offset: 0x123020, size: 0x8, addend: 0x0, symName: __ZN8facebook5react23NativeBlobModuleSpecJSID1Ev, symObjAddr: 0x119FC, symBinAddr: 0x20C88, symSize: 0x4 }
  - { offset: 0x12303E, size: 0x8, addend: 0x0, symName: __ZN8facebook5react23NativeBlobModuleSpecJSID1Ev, symObjAddr: 0x119FC, symBinAddr: 0x20C88, symSize: 0x4 }
  - { offset: 0x12306E, size: 0x8, addend: 0x0, symName: __ZN8facebook5react23NativeBlobModuleSpecJSID0Ev, symObjAddr: 0x11A00, symBinAddr: 0x20C8C, symSize: 0x14 }
  - { offset: 0x12310C, size: 0x8, addend: 0x0, symName: __ZN8facebook5react22NativeClipboardSpecJSID1Ev, symObjAddr: 0x11A14, symBinAddr: 0x20CA0, symSize: 0x4 }
  - { offset: 0x12312E, size: 0x8, addend: 0x0, symName: __ZN8facebook5react22NativeClipboardSpecJSID1Ev, symObjAddr: 0x11A14, symBinAddr: 0x20CA0, symSize: 0x4 }
  - { offset: 0x12314C, size: 0x8, addend: 0x0, symName: __ZN8facebook5react22NativeClipboardSpecJSID1Ev, symObjAddr: 0x11A14, symBinAddr: 0x20CA0, symSize: 0x4 }
  - { offset: 0x12317C, size: 0x8, addend: 0x0, symName: __ZN8facebook5react22NativeClipboardSpecJSID0Ev, symObjAddr: 0x11A18, symBinAddr: 0x20CA4, symSize: 0x14 }
  - { offset: 0x12321A, size: 0x8, addend: 0x0, symName: __ZN8facebook5react27NativeDevLoadingViewSpecJSID1Ev, symObjAddr: 0x11A2C, symBinAddr: 0x20CB8, symSize: 0x4 }
  - { offset: 0x12323C, size: 0x8, addend: 0x0, symName: __ZN8facebook5react27NativeDevLoadingViewSpecJSID1Ev, symObjAddr: 0x11A2C, symBinAddr: 0x20CB8, symSize: 0x4 }
  - { offset: 0x12325A, size: 0x8, addend: 0x0, symName: __ZN8facebook5react27NativeDevLoadingViewSpecJSID1Ev, symObjAddr: 0x11A2C, symBinAddr: 0x20CB8, symSize: 0x4 }
  - { offset: 0x12328A, size: 0x8, addend: 0x0, symName: __ZN8facebook5react27NativeDevLoadingViewSpecJSID0Ev, symObjAddr: 0x11A30, symBinAddr: 0x20CBC, symSize: 0x14 }
  - { offset: 0x123328, size: 0x8, addend: 0x0, symName: __ZN8facebook5react20NativeDevMenuSpecJSID1Ev, symObjAddr: 0x11A44, symBinAddr: 0x20CD0, symSize: 0x4 }
  - { offset: 0x12334A, size: 0x8, addend: 0x0, symName: __ZN8facebook5react20NativeDevMenuSpecJSID1Ev, symObjAddr: 0x11A44, symBinAddr: 0x20CD0, symSize: 0x4 }
  - { offset: 0x123368, size: 0x8, addend: 0x0, symName: __ZN8facebook5react20NativeDevMenuSpecJSID1Ev, symObjAddr: 0x11A44, symBinAddr: 0x20CD0, symSize: 0x4 }
  - { offset: 0x123398, size: 0x8, addend: 0x0, symName: __ZN8facebook5react20NativeDevMenuSpecJSID0Ev, symObjAddr: 0x11A48, symBinAddr: 0x20CD4, symSize: 0x14 }
  - { offset: 0x123436, size: 0x8, addend: 0x0, symName: __ZN8facebook5react24NativeDevSettingsSpecJSID1Ev, symObjAddr: 0x11A5C, symBinAddr: 0x20CE8, symSize: 0x4 }
  - { offset: 0x123458, size: 0x8, addend: 0x0, symName: __ZN8facebook5react24NativeDevSettingsSpecJSID1Ev, symObjAddr: 0x11A5C, symBinAddr: 0x20CE8, symSize: 0x4 }
  - { offset: 0x123476, size: 0x8, addend: 0x0, symName: __ZN8facebook5react24NativeDevSettingsSpecJSID1Ev, symObjAddr: 0x11A5C, symBinAddr: 0x20CE8, symSize: 0x4 }
  - { offset: 0x1234A6, size: 0x8, addend: 0x0, symName: __ZN8facebook5react24NativeDevSettingsSpecJSID0Ev, symObjAddr: 0x11A60, symBinAddr: 0x20CEC, symSize: 0x14 }
  - { offset: 0x123544, size: 0x8, addend: 0x0, symName: __ZN8facebook5react31NativeDeviceEventManagerSpecJSID1Ev, symObjAddr: 0x11A74, symBinAddr: 0x20D00, symSize: 0x4 }
  - { offset: 0x123566, size: 0x8, addend: 0x0, symName: __ZN8facebook5react31NativeDeviceEventManagerSpecJSID1Ev, symObjAddr: 0x11A74, symBinAddr: 0x20D00, symSize: 0x4 }
  - { offset: 0x123584, size: 0x8, addend: 0x0, symName: __ZN8facebook5react31NativeDeviceEventManagerSpecJSID1Ev, symObjAddr: 0x11A74, symBinAddr: 0x20D00, symSize: 0x4 }
  - { offset: 0x1235B4, size: 0x8, addend: 0x0, symName: __ZN8facebook5react31NativeDeviceEventManagerSpecJSID0Ev, symObjAddr: 0x11A78, symBinAddr: 0x20D04, symSize: 0x14 }
  - { offset: 0x123652, size: 0x8, addend: 0x0, symName: __ZN8facebook5react23NativeDeviceInfoSpecJSID1Ev, symObjAddr: 0x11A8C, symBinAddr: 0x20D18, symSize: 0x4 }
  - { offset: 0x123674, size: 0x8, addend: 0x0, symName: __ZN8facebook5react23NativeDeviceInfoSpecJSID1Ev, symObjAddr: 0x11A8C, symBinAddr: 0x20D18, symSize: 0x4 }
  - { offset: 0x123692, size: 0x8, addend: 0x0, symName: __ZN8facebook5react23NativeDeviceInfoSpecJSID1Ev, symObjAddr: 0x11A8C, symBinAddr: 0x20D18, symSize: 0x4 }
  - { offset: 0x1236C2, size: 0x8, addend: 0x0, symName: __ZN8facebook5react23NativeDeviceInfoSpecJSID0Ev, symObjAddr: 0x11A90, symBinAddr: 0x20D1C, symSize: 0x14 }
  - { offset: 0x123760, size: 0x8, addend: 0x0, symName: __ZN8facebook5react30NativeExceptionsManagerSpecJSID1Ev, symObjAddr: 0x11AA4, symBinAddr: 0x20D30, symSize: 0x4 }
  - { offset: 0x123782, size: 0x8, addend: 0x0, symName: __ZN8facebook5react30NativeExceptionsManagerSpecJSID1Ev, symObjAddr: 0x11AA4, symBinAddr: 0x20D30, symSize: 0x4 }
  - { offset: 0x1237A0, size: 0x8, addend: 0x0, symName: __ZN8facebook5react30NativeExceptionsManagerSpecJSID1Ev, symObjAddr: 0x11AA4, symBinAddr: 0x20D30, symSize: 0x4 }
  - { offset: 0x1237D0, size: 0x8, addend: 0x0, symName: __ZN8facebook5react30NativeExceptionsManagerSpecJSID0Ev, symObjAddr: 0x11AA8, symBinAddr: 0x20D34, symSize: 0x14 }
  - { offset: 0x12386E, size: 0x8, addend: 0x0, symName: __ZN8facebook5react29NativeFileReaderModuleSpecJSID1Ev, symObjAddr: 0x11ABC, symBinAddr: 0x20D48, symSize: 0x4 }
  - { offset: 0x123890, size: 0x8, addend: 0x0, symName: __ZN8facebook5react29NativeFileReaderModuleSpecJSID1Ev, symObjAddr: 0x11ABC, symBinAddr: 0x20D48, symSize: 0x4 }
  - { offset: 0x1238AE, size: 0x8, addend: 0x0, symName: __ZN8facebook5react29NativeFileReaderModuleSpecJSID1Ev, symObjAddr: 0x11ABC, symBinAddr: 0x20D48, symSize: 0x4 }
  - { offset: 0x1238DE, size: 0x8, addend: 0x0, symName: __ZN8facebook5react29NativeFileReaderModuleSpecJSID0Ev, symObjAddr: 0x11AC0, symBinAddr: 0x20D4C, symSize: 0x14 }
  - { offset: 0x12397C, size: 0x8, addend: 0x0, symName: __ZN8facebook5react28NativeFrameRateLoggerSpecJSID1Ev, symObjAddr: 0x11AD4, symBinAddr: 0x20D60, symSize: 0x4 }
  - { offset: 0x12399E, size: 0x8, addend: 0x0, symName: __ZN8facebook5react28NativeFrameRateLoggerSpecJSID1Ev, symObjAddr: 0x11AD4, symBinAddr: 0x20D60, symSize: 0x4 }
  - { offset: 0x1239BC, size: 0x8, addend: 0x0, symName: __ZN8facebook5react28NativeFrameRateLoggerSpecJSID1Ev, symObjAddr: 0x11AD4, symBinAddr: 0x20D60, symSize: 0x4 }
  - { offset: 0x1239EC, size: 0x8, addend: 0x0, symName: __ZN8facebook5react28NativeFrameRateLoggerSpecJSID0Ev, symObjAddr: 0x11AD8, symBinAddr: 0x20D64, symSize: 0x14 }
  - { offset: 0x123A8A, size: 0x8, addend: 0x0, symName: __ZN8facebook5react34NativeHeadlessJsTaskSupportSpecJSID1Ev, symObjAddr: 0x11AEC, symBinAddr: 0x20D78, symSize: 0x4 }
  - { offset: 0x123AAC, size: 0x8, addend: 0x0, symName: __ZN8facebook5react34NativeHeadlessJsTaskSupportSpecJSID1Ev, symObjAddr: 0x11AEC, symBinAddr: 0x20D78, symSize: 0x4 }
  - { offset: 0x123ACA, size: 0x8, addend: 0x0, symName: __ZN8facebook5react34NativeHeadlessJsTaskSupportSpecJSID1Ev, symObjAddr: 0x11AEC, symBinAddr: 0x20D78, symSize: 0x4 }
  - { offset: 0x123AFA, size: 0x8, addend: 0x0, symName: __ZN8facebook5react34NativeHeadlessJsTaskSupportSpecJSID0Ev, symObjAddr: 0x11AF0, symBinAddr: 0x20D7C, symSize: 0x14 }
  - { offset: 0x123B98, size: 0x8, addend: 0x0, symName: __ZN8facebook5react24NativeI18nManagerSpecJSID1Ev, symObjAddr: 0x11B04, symBinAddr: 0x20D90, symSize: 0x4 }
  - { offset: 0x123BBA, size: 0x8, addend: 0x0, symName: __ZN8facebook5react24NativeI18nManagerSpecJSID1Ev, symObjAddr: 0x11B04, symBinAddr: 0x20D90, symSize: 0x4 }
  - { offset: 0x123BD8, size: 0x8, addend: 0x0, symName: __ZN8facebook5react24NativeI18nManagerSpecJSID1Ev, symObjAddr: 0x11B04, symBinAddr: 0x20D90, symSize: 0x4 }
  - { offset: 0x123C08, size: 0x8, addend: 0x0, symName: __ZN8facebook5react24NativeI18nManagerSpecJSID0Ev, symObjAddr: 0x11B08, symBinAddr: 0x20D94, symSize: 0x14 }
  - { offset: 0x123CA6, size: 0x8, addend: 0x0, symName: __ZN8facebook5react24NativeImageEditorSpecJSID1Ev, symObjAddr: 0x11B1C, symBinAddr: 0x20DA8, symSize: 0x4 }
  - { offset: 0x123CC8, size: 0x8, addend: 0x0, symName: __ZN8facebook5react24NativeImageEditorSpecJSID1Ev, symObjAddr: 0x11B1C, symBinAddr: 0x20DA8, symSize: 0x4 }
  - { offset: 0x123CE6, size: 0x8, addend: 0x0, symName: __ZN8facebook5react24NativeImageEditorSpecJSID1Ev, symObjAddr: 0x11B1C, symBinAddr: 0x20DA8, symSize: 0x4 }
  - { offset: 0x123D16, size: 0x8, addend: 0x0, symName: __ZN8facebook5react24NativeImageEditorSpecJSID0Ev, symObjAddr: 0x11B20, symBinAddr: 0x20DAC, symSize: 0x14 }
  - { offset: 0x123DB4, size: 0x8, addend: 0x0, symName: __ZN8facebook5react27NativeImageLoaderIOSSpecJSID1Ev, symObjAddr: 0x11B34, symBinAddr: 0x20DC0, symSize: 0x4 }
  - { offset: 0x123DD6, size: 0x8, addend: 0x0, symName: __ZN8facebook5react27NativeImageLoaderIOSSpecJSID1Ev, symObjAddr: 0x11B34, symBinAddr: 0x20DC0, symSize: 0x4 }
  - { offset: 0x123DF4, size: 0x8, addend: 0x0, symName: __ZN8facebook5react27NativeImageLoaderIOSSpecJSID1Ev, symObjAddr: 0x11B34, symBinAddr: 0x20DC0, symSize: 0x4 }
  - { offset: 0x123E24, size: 0x8, addend: 0x0, symName: __ZN8facebook5react27NativeImageLoaderIOSSpecJSID0Ev, symObjAddr: 0x11B38, symBinAddr: 0x20DC4, symSize: 0x14 }
  - { offset: 0x123EC2, size: 0x8, addend: 0x0, symName: __ZN8facebook5react26NativeImageStoreIOSSpecJSID1Ev, symObjAddr: 0x11B4C, symBinAddr: 0x20DD8, symSize: 0x4 }
  - { offset: 0x123EE4, size: 0x8, addend: 0x0, symName: __ZN8facebook5react26NativeImageStoreIOSSpecJSID1Ev, symObjAddr: 0x11B4C, symBinAddr: 0x20DD8, symSize: 0x4 }
  - { offset: 0x123F02, size: 0x8, addend: 0x0, symName: __ZN8facebook5react26NativeImageStoreIOSSpecJSID1Ev, symObjAddr: 0x11B4C, symBinAddr: 0x20DD8, symSize: 0x4 }
  - { offset: 0x123F32, size: 0x8, addend: 0x0, symName: __ZN8facebook5react26NativeImageStoreIOSSpecJSID0Ev, symObjAddr: 0x11B50, symBinAddr: 0x20DDC, symSize: 0x14 }
  - { offset: 0x123FD0, size: 0x8, addend: 0x0, symName: __ZN8facebook5react27NativeJSCHeapCaptureSpecJSID1Ev, symObjAddr: 0x11B64, symBinAddr: 0x20DF0, symSize: 0x4 }
  - { offset: 0x123FF2, size: 0x8, addend: 0x0, symName: __ZN8facebook5react27NativeJSCHeapCaptureSpecJSID1Ev, symObjAddr: 0x11B64, symBinAddr: 0x20DF0, symSize: 0x4 }
  - { offset: 0x124010, size: 0x8, addend: 0x0, symName: __ZN8facebook5react27NativeJSCHeapCaptureSpecJSID1Ev, symObjAddr: 0x11B64, symBinAddr: 0x20DF0, symSize: 0x4 }
  - { offset: 0x124040, size: 0x8, addend: 0x0, symName: __ZN8facebook5react27NativeJSCHeapCaptureSpecJSID0Ev, symObjAddr: 0x11B68, symBinAddr: 0x20DF4, symSize: 0x14 }
  - { offset: 0x1240DE, size: 0x8, addend: 0x0, symName: __ZN8facebook5react29NativeKeyboardObserverSpecJSID1Ev, symObjAddr: 0x11B7C, symBinAddr: 0x20E08, symSize: 0x4 }
  - { offset: 0x124100, size: 0x8, addend: 0x0, symName: __ZN8facebook5react29NativeKeyboardObserverSpecJSID1Ev, symObjAddr: 0x11B7C, symBinAddr: 0x20E08, symSize: 0x4 }
  - { offset: 0x12411E, size: 0x8, addend: 0x0, symName: __ZN8facebook5react29NativeKeyboardObserverSpecJSID1Ev, symObjAddr: 0x11B7C, symBinAddr: 0x20E08, symSize: 0x4 }
  - { offset: 0x12414E, size: 0x8, addend: 0x0, symName: __ZN8facebook5react29NativeKeyboardObserverSpecJSID0Ev, symObjAddr: 0x11B80, symBinAddr: 0x20E0C, symSize: 0x14 }
  - { offset: 0x1241EC, size: 0x8, addend: 0x0, symName: __ZN8facebook5react27NativeLinkingManagerSpecJSID1Ev, symObjAddr: 0x11B94, symBinAddr: 0x20E20, symSize: 0x4 }
  - { offset: 0x12420E, size: 0x8, addend: 0x0, symName: __ZN8facebook5react27NativeLinkingManagerSpecJSID1Ev, symObjAddr: 0x11B94, symBinAddr: 0x20E20, symSize: 0x4 }
  - { offset: 0x12422C, size: 0x8, addend: 0x0, symName: __ZN8facebook5react27NativeLinkingManagerSpecJSID1Ev, symObjAddr: 0x11B94, symBinAddr: 0x20E20, symSize: 0x4 }
  - { offset: 0x12425C, size: 0x8, addend: 0x0, symName: __ZN8facebook5react27NativeLinkingManagerSpecJSID0Ev, symObjAddr: 0x11B98, symBinAddr: 0x20E24, symSize: 0x14 }
  - { offset: 0x1242FA, size: 0x8, addend: 0x0, symName: __ZN8facebook5react19NativeLogBoxSpecJSID1Ev, symObjAddr: 0x11BAC, symBinAddr: 0x20E38, symSize: 0x4 }
  - { offset: 0x12431C, size: 0x8, addend: 0x0, symName: __ZN8facebook5react19NativeLogBoxSpecJSID1Ev, symObjAddr: 0x11BAC, symBinAddr: 0x20E38, symSize: 0x4 }
  - { offset: 0x12433A, size: 0x8, addend: 0x0, symName: __ZN8facebook5react19NativeLogBoxSpecJSID1Ev, symObjAddr: 0x11BAC, symBinAddr: 0x20E38, symSize: 0x4 }
  - { offset: 0x12436A, size: 0x8, addend: 0x0, symName: __ZN8facebook5react19NativeLogBoxSpecJSID0Ev, symObjAddr: 0x11BB0, symBinAddr: 0x20E3C, symSize: 0x14 }
  - { offset: 0x124408, size: 0x8, addend: 0x0, symName: __ZN8facebook5react25NativeModalManagerSpecJSID1Ev, symObjAddr: 0x11BC4, symBinAddr: 0x20E50, symSize: 0x4 }
  - { offset: 0x12442A, size: 0x8, addend: 0x0, symName: __ZN8facebook5react25NativeModalManagerSpecJSID1Ev, symObjAddr: 0x11BC4, symBinAddr: 0x20E50, symSize: 0x4 }
  - { offset: 0x124448, size: 0x8, addend: 0x0, symName: __ZN8facebook5react25NativeModalManagerSpecJSID1Ev, symObjAddr: 0x11BC4, symBinAddr: 0x20E50, symSize: 0x4 }
  - { offset: 0x124478, size: 0x8, addend: 0x0, symName: __ZN8facebook5react25NativeModalManagerSpecJSID0Ev, symObjAddr: 0x11BC8, symBinAddr: 0x20E54, symSize: 0x14 }
  - { offset: 0x124516, size: 0x8, addend: 0x0, symName: __ZN8facebook5react26NativeNetworkingIOSSpecJSID1Ev, symObjAddr: 0x11BDC, symBinAddr: 0x20E68, symSize: 0x4 }
  - { offset: 0x124538, size: 0x8, addend: 0x0, symName: __ZN8facebook5react26NativeNetworkingIOSSpecJSID1Ev, symObjAddr: 0x11BDC, symBinAddr: 0x20E68, symSize: 0x4 }
  - { offset: 0x124556, size: 0x8, addend: 0x0, symName: __ZN8facebook5react26NativeNetworkingIOSSpecJSID1Ev, symObjAddr: 0x11BDC, symBinAddr: 0x20E68, symSize: 0x4 }
  - { offset: 0x124586, size: 0x8, addend: 0x0, symName: __ZN8facebook5react26NativeNetworkingIOSSpecJSID0Ev, symObjAddr: 0x11BE0, symBinAddr: 0x20E6C, symSize: 0x14 }
  - { offset: 0x124624, size: 0x8, addend: 0x0, symName: __ZN8facebook5react33NativePlatformConstantsIOSSpecJSID1Ev, symObjAddr: 0x11BF4, symBinAddr: 0x20E80, symSize: 0x4 }
  - { offset: 0x124646, size: 0x8, addend: 0x0, symName: __ZN8facebook5react33NativePlatformConstantsIOSSpecJSID1Ev, symObjAddr: 0x11BF4, symBinAddr: 0x20E80, symSize: 0x4 }
  - { offset: 0x124664, size: 0x8, addend: 0x0, symName: __ZN8facebook5react33NativePlatformConstantsIOSSpecJSID1Ev, symObjAddr: 0x11BF4, symBinAddr: 0x20E80, symSize: 0x4 }
  - { offset: 0x124694, size: 0x8, addend: 0x0, symName: __ZN8facebook5react33NativePlatformConstantsIOSSpecJSID0Ev, symObjAddr: 0x11BF8, symBinAddr: 0x20E84, symSize: 0x14 }
  - { offset: 0x124732, size: 0x8, addend: 0x0, symName: __ZN8facebook5react39NativePushNotificationManagerIOSSpecJSID1Ev, symObjAddr: 0x11C0C, symBinAddr: 0x20E98, symSize: 0x4 }
  - { offset: 0x124754, size: 0x8, addend: 0x0, symName: __ZN8facebook5react39NativePushNotificationManagerIOSSpecJSID1Ev, symObjAddr: 0x11C0C, symBinAddr: 0x20E98, symSize: 0x4 }
  - { offset: 0x124772, size: 0x8, addend: 0x0, symName: __ZN8facebook5react39NativePushNotificationManagerIOSSpecJSID1Ev, symObjAddr: 0x11C0C, symBinAddr: 0x20E98, symSize: 0x4 }
  - { offset: 0x1247A2, size: 0x8, addend: 0x0, symName: __ZN8facebook5react39NativePushNotificationManagerIOSSpecJSID0Ev, symObjAddr: 0x11C10, symBinAddr: 0x20E9C, symSize: 0x14 }
  - { offset: 0x124840, size: 0x8, addend: 0x0, symName: __ZN8facebook5react47NativeReactDevToolsRuntimeSettingsModuleSpecJSID1Ev, symObjAddr: 0x11C24, symBinAddr: 0x20EB0, symSize: 0x4 }
  - { offset: 0x124862, size: 0x8, addend: 0x0, symName: __ZN8facebook5react47NativeReactDevToolsRuntimeSettingsModuleSpecJSID1Ev, symObjAddr: 0x11C24, symBinAddr: 0x20EB0, symSize: 0x4 }
  - { offset: 0x124880, size: 0x8, addend: 0x0, symName: __ZN8facebook5react47NativeReactDevToolsRuntimeSettingsModuleSpecJSID1Ev, symObjAddr: 0x11C24, symBinAddr: 0x20EB0, symSize: 0x4 }
  - { offset: 0x1248B0, size: 0x8, addend: 0x0, symName: __ZN8facebook5react47NativeReactDevToolsRuntimeSettingsModuleSpecJSID0Ev, symObjAddr: 0x11C28, symBinAddr: 0x20EB4, symSize: 0x14 }
  - { offset: 0x12494E, size: 0x8, addend: 0x0, symName: __ZN8facebook5react41NativeReactDevToolsSettingsManagerSpecJSID1Ev, symObjAddr: 0x11C3C, symBinAddr: 0x20EC8, symSize: 0x4 }
  - { offset: 0x124970, size: 0x8, addend: 0x0, symName: __ZN8facebook5react41NativeReactDevToolsSettingsManagerSpecJSID1Ev, symObjAddr: 0x11C3C, symBinAddr: 0x20EC8, symSize: 0x4 }
  - { offset: 0x12498E, size: 0x8, addend: 0x0, symName: __ZN8facebook5react41NativeReactDevToolsSettingsManagerSpecJSID1Ev, symObjAddr: 0x11C3C, symBinAddr: 0x20EC8, symSize: 0x4 }
  - { offset: 0x1249BE, size: 0x8, addend: 0x0, symName: __ZN8facebook5react41NativeReactDevToolsSettingsManagerSpecJSID0Ev, symObjAddr: 0x11C40, symBinAddr: 0x20ECC, symSize: 0x14 }
  - { offset: 0x124A5C, size: 0x8, addend: 0x0, symName: __ZN8facebook5react19NativeRedBoxSpecJSID1Ev, symObjAddr: 0x11C54, symBinAddr: 0x20EE0, symSize: 0x4 }
  - { offset: 0x124A7E, size: 0x8, addend: 0x0, symName: __ZN8facebook5react19NativeRedBoxSpecJSID1Ev, symObjAddr: 0x11C54, symBinAddr: 0x20EE0, symSize: 0x4 }
  - { offset: 0x124A9C, size: 0x8, addend: 0x0, symName: __ZN8facebook5react19NativeRedBoxSpecJSID1Ev, symObjAddr: 0x11C54, symBinAddr: 0x20EE0, symSize: 0x4 }
  - { offset: 0x124ACC, size: 0x8, addend: 0x0, symName: __ZN8facebook5react19NativeRedBoxSpecJSID0Ev, symObjAddr: 0x11C58, symBinAddr: 0x20EE4, symSize: 0x14 }
  - { offset: 0x124B6A, size: 0x8, addend: 0x0, symName: __ZN8facebook5react27NativeSegmentFetcherSpecJSID1Ev, symObjAddr: 0x11C6C, symBinAddr: 0x20EF8, symSize: 0x4 }
  - { offset: 0x124B8C, size: 0x8, addend: 0x0, symName: __ZN8facebook5react27NativeSegmentFetcherSpecJSID1Ev, symObjAddr: 0x11C6C, symBinAddr: 0x20EF8, symSize: 0x4 }
  - { offset: 0x124BAA, size: 0x8, addend: 0x0, symName: __ZN8facebook5react27NativeSegmentFetcherSpecJSID1Ev, symObjAddr: 0x11C6C, symBinAddr: 0x20EF8, symSize: 0x4 }
  - { offset: 0x124BDA, size: 0x8, addend: 0x0, symName: __ZN8facebook5react27NativeSegmentFetcherSpecJSID0Ev, symObjAddr: 0x11C70, symBinAddr: 0x20EFC, symSize: 0x14 }
  - { offset: 0x124C78, size: 0x8, addend: 0x0, symName: __ZN8facebook5react28NativeSettingsManagerSpecJSID1Ev, symObjAddr: 0x11C84, symBinAddr: 0x20F10, symSize: 0x4 }
  - { offset: 0x124C9A, size: 0x8, addend: 0x0, symName: __ZN8facebook5react28NativeSettingsManagerSpecJSID1Ev, symObjAddr: 0x11C84, symBinAddr: 0x20F10, symSize: 0x4 }
  - { offset: 0x124CB8, size: 0x8, addend: 0x0, symName: __ZN8facebook5react28NativeSettingsManagerSpecJSID1Ev, symObjAddr: 0x11C84, symBinAddr: 0x20F10, symSize: 0x4 }
  - { offset: 0x124CE8, size: 0x8, addend: 0x0, symName: __ZN8facebook5react28NativeSettingsManagerSpecJSID0Ev, symObjAddr: 0x11C88, symBinAddr: 0x20F14, symSize: 0x14 }
  - { offset: 0x124D86, size: 0x8, addend: 0x0, symName: __ZN8facebook5react24NativeShareModuleSpecJSID1Ev, symObjAddr: 0x11C9C, symBinAddr: 0x20F28, symSize: 0x4 }
  - { offset: 0x124DA8, size: 0x8, addend: 0x0, symName: __ZN8facebook5react24NativeShareModuleSpecJSID1Ev, symObjAddr: 0x11C9C, symBinAddr: 0x20F28, symSize: 0x4 }
  - { offset: 0x124DC6, size: 0x8, addend: 0x0, symName: __ZN8facebook5react24NativeShareModuleSpecJSID1Ev, symObjAddr: 0x11C9C, symBinAddr: 0x20F28, symSize: 0x4 }
  - { offset: 0x124DF6, size: 0x8, addend: 0x0, symName: __ZN8facebook5react24NativeShareModuleSpecJSID0Ev, symObjAddr: 0x11CA0, symBinAddr: 0x20F2C, symSize: 0x14 }
  - { offset: 0x124E94, size: 0x8, addend: 0x0, symName: __ZN8facebook5react25NativeSoundManagerSpecJSID1Ev, symObjAddr: 0x11CB4, symBinAddr: 0x20F40, symSize: 0x4 }
  - { offset: 0x124EB6, size: 0x8, addend: 0x0, symName: __ZN8facebook5react25NativeSoundManagerSpecJSID1Ev, symObjAddr: 0x11CB4, symBinAddr: 0x20F40, symSize: 0x4 }
  - { offset: 0x124ED4, size: 0x8, addend: 0x0, symName: __ZN8facebook5react25NativeSoundManagerSpecJSID1Ev, symObjAddr: 0x11CB4, symBinAddr: 0x20F40, symSize: 0x4 }
  - { offset: 0x124F04, size: 0x8, addend: 0x0, symName: __ZN8facebook5react25NativeSoundManagerSpecJSID0Ev, symObjAddr: 0x11CB8, symBinAddr: 0x20F44, symSize: 0x14 }
  - { offset: 0x124FA2, size: 0x8, addend: 0x0, symName: __ZN8facebook5react23NativeSourceCodeSpecJSID1Ev, symObjAddr: 0x11CCC, symBinAddr: 0x20F58, symSize: 0x4 }
  - { offset: 0x124FC4, size: 0x8, addend: 0x0, symName: __ZN8facebook5react23NativeSourceCodeSpecJSID1Ev, symObjAddr: 0x11CCC, symBinAddr: 0x20F58, symSize: 0x4 }
  - { offset: 0x124FE2, size: 0x8, addend: 0x0, symName: __ZN8facebook5react23NativeSourceCodeSpecJSID1Ev, symObjAddr: 0x11CCC, symBinAddr: 0x20F58, symSize: 0x4 }
  - { offset: 0x125012, size: 0x8, addend: 0x0, symName: __ZN8facebook5react23NativeSourceCodeSpecJSID0Ev, symObjAddr: 0x11CD0, symBinAddr: 0x20F5C, symSize: 0x14 }
  - { offset: 0x1250B0, size: 0x8, addend: 0x0, symName: __ZN8facebook5react32NativeStatusBarManagerIOSSpecJSID1Ev, symObjAddr: 0x11CE4, symBinAddr: 0x20F70, symSize: 0x4 }
  - { offset: 0x1250D2, size: 0x8, addend: 0x0, symName: __ZN8facebook5react32NativeStatusBarManagerIOSSpecJSID1Ev, symObjAddr: 0x11CE4, symBinAddr: 0x20F70, symSize: 0x4 }
  - { offset: 0x1250F0, size: 0x8, addend: 0x0, symName: __ZN8facebook5react32NativeStatusBarManagerIOSSpecJSID1Ev, symObjAddr: 0x11CE4, symBinAddr: 0x20F70, symSize: 0x4 }
  - { offset: 0x125120, size: 0x8, addend: 0x0, symName: __ZN8facebook5react32NativeStatusBarManagerIOSSpecJSID0Ev, symObjAddr: 0x11CE8, symBinAddr: 0x20F74, symSize: 0x14 }
  - { offset: 0x1251BE, size: 0x8, addend: 0x0, symName: __ZN8facebook5react19NativeTimingSpecJSID1Ev, symObjAddr: 0x11CFC, symBinAddr: 0x20F88, symSize: 0x4 }
  - { offset: 0x1251E0, size: 0x8, addend: 0x0, symName: __ZN8facebook5react19NativeTimingSpecJSID1Ev, symObjAddr: 0x11CFC, symBinAddr: 0x20F88, symSize: 0x4 }
  - { offset: 0x1251FE, size: 0x8, addend: 0x0, symName: __ZN8facebook5react19NativeTimingSpecJSID1Ev, symObjAddr: 0x11CFC, symBinAddr: 0x20F88, symSize: 0x4 }
  - { offset: 0x12522E, size: 0x8, addend: 0x0, symName: __ZN8facebook5react19NativeTimingSpecJSID0Ev, symObjAddr: 0x11D00, symBinAddr: 0x20F8C, symSize: 0x14 }
  - { offset: 0x1252CC, size: 0x8, addend: 0x0, symName: __ZN8facebook5react22NativeVibrationSpecJSID1Ev, symObjAddr: 0x11D14, symBinAddr: 0x20FA0, symSize: 0x4 }
  - { offset: 0x1252EE, size: 0x8, addend: 0x0, symName: __ZN8facebook5react22NativeVibrationSpecJSID1Ev, symObjAddr: 0x11D14, symBinAddr: 0x20FA0, symSize: 0x4 }
  - { offset: 0x12530C, size: 0x8, addend: 0x0, symName: __ZN8facebook5react22NativeVibrationSpecJSID1Ev, symObjAddr: 0x11D14, symBinAddr: 0x20FA0, symSize: 0x4 }
  - { offset: 0x12533C, size: 0x8, addend: 0x0, symName: __ZN8facebook5react22NativeVibrationSpecJSID0Ev, symObjAddr: 0x11D18, symBinAddr: 0x20FA4, symSize: 0x14 }
  - { offset: 0x1253DA, size: 0x8, addend: 0x0, symName: __ZN8facebook5react28NativeWebSocketModuleSpecJSID1Ev, symObjAddr: 0x11D2C, symBinAddr: 0x20FB8, symSize: 0x4 }
  - { offset: 0x1253FC, size: 0x8, addend: 0x0, symName: __ZN8facebook5react28NativeWebSocketModuleSpecJSID1Ev, symObjAddr: 0x11D2C, symBinAddr: 0x20FB8, symSize: 0x4 }
  - { offset: 0x12541A, size: 0x8, addend: 0x0, symName: __ZN8facebook5react28NativeWebSocketModuleSpecJSID1Ev, symObjAddr: 0x11D2C, symBinAddr: 0x20FB8, symSize: 0x4 }
  - { offset: 0x12544A, size: 0x8, addend: 0x0, symName: __ZN8facebook5react28NativeWebSocketModuleSpecJSID0Ev, symObjAddr: 0x11D30, symBinAddr: 0x20FBC, symSize: 0x14 }
  - { offset: 0x1256B6, size: 0x8, addend: 0x0, symName: __ZN8facebook5react11TurboModuleD1Ev, symObjAddr: 0x11F00, symBinAddr: 0x20FF8, symSize: 0x60 }
  - { offset: 0x12592A, size: 0x8, addend: 0x0, symName: __ZN8facebook5react11TurboModuleD0Ev, symObjAddr: 0x11F60, symBinAddr: 0x21058, symSize: 0x64 }
  - { offset: 0x12600E, size: 0x8, addend: 0x0, symName: __ZNSt3__112__hash_tableINS_17__hash_value_typeINS_12basic_stringIcNS_11char_traitsIcEENS_9allocatorIcEEEEN8facebook5react11TurboModule14MethodMetadataEEENS_22__unordered_map_hasherIS7_SC_NS_4hashIS7_EENS_8equal_toIS7_EELb1EEENS_21__unordered_map_equalIS7_SC_SH_SF_Lb1EEENS5_ISC_EEE17__deallocate_nodeEPNS_16__hash_node_baseIPNS_11__hash_nodeISC_PvEEEE, symObjAddr: 0x1214C, symBinAddr: 0x2113C, symSize: 0x44 }
  - { offset: 0x1268DD, size: 0x8, addend: 0x0, symName: __ZNKSt3__113__string_hashIcNS_9allocatorIcEEEclB8ne200100ERKNS_12basic_stringIcNS_11char_traitsIcEES2_EE, symObjAddr: 0x124E0, symBinAddr: 0x21478, symSize: 0x3C }
  - { offset: 0x1269AF, size: 0x8, addend: 0x0, symName: __ZNKSt3__18equal_toINS_12basic_stringIcNS_11char_traitsIcEENS_9allocatorIcEEEEEclB8ne200100ERKS6_S9_, symObjAddr: 0x12988, symBinAddr: 0x21920, symSize: 0x70 }
  - { offset: 0x1269FA, size: 0x8, addend: 0x0, symName: __ZNKSt3__18equal_toINS_12basic_stringIcNS_11char_traitsIcEENS_9allocatorIcEEEEEclB8ne200100ERKS6_S9_, symObjAddr: 0x12988, symBinAddr: 0x21920, symSize: 0x70 }
  - { offset: 0x126A2D, size: 0x8, addend: 0x0, symName: __ZNKSt3__18equal_toINS_12basic_stringIcNS_11char_traitsIcEENS_9allocatorIcEEEEEclB8ne200100ERKS6_S9_, symObjAddr: 0x12988, symBinAddr: 0x21920, symSize: 0x70 }
  - { offset: 0x126A49, size: 0x8, addend: 0x0, symName: __ZNKSt3__18equal_toINS_12basic_stringIcNS_11char_traitsIcEENS_9allocatorIcEEEEEclB8ne200100ERKS6_S9_, symObjAddr: 0x12988, symBinAddr: 0x21920, symSize: 0x70 }
  - { offset: 0x126B4D, size: 0x8, addend: 0x0, symName: __ZNSt3__112__hash_tableINS_17__hash_value_typeINS_12basic_stringIcNS_11char_traitsIcEENS_9allocatorIcEEEEN8facebook5react11TurboModule14MethodMetadataEEENS_22__unordered_map_hasherIS7_SC_NS_4hashIS7_EENS_8equal_toIS7_EELb1EEENS_21__unordered_map_equalIS7_SC_SH_SF_Lb1EEENS5_ISC_EEE8__rehashILb1EEEvm, symObjAddr: 0x129F8, symBinAddr: 0x21990, symSize: 0xDC }
  - { offset: 0x126C46, size: 0x8, addend: 0x0, symName: __ZNSt3__122__hash_node_destructorINS_9allocatorINS_11__hash_nodeINS_17__hash_value_typeINS_12basic_stringIcNS_11char_traitsIcEENS1_IcEEEEN8facebook5react11TurboModule14MethodMetadataEEEPvEEEEEclB8ne200100EPSF_, symObjAddr: 0x12C24, symBinAddr: 0x21BBC, symSize: 0x50 }
  - { offset: 0x126EAB, size: 0x8, addend: 0x0, symName: __ZNKSt3__121__murmur2_or_cityhashImLm64EEclB8ne200100EPKvm, symObjAddr: 0x1251C, symBinAddr: 0x214B4, symSize: 0x208 }
  - { offset: 0x127529, size: 0x8, addend: 0x0, symName: __ZNSt3__121__murmur2_or_cityhashImLm64EE18__hash_len_0_to_16B8ne200100EPKcm, symObjAddr: 0x12724, symBinAddr: 0x216BC, symSize: 0xF8 }
  - { offset: 0x12773A, size: 0x8, addend: 0x0, symName: __ZNSt3__121__murmur2_or_cityhashImLm64EE19__hash_len_33_to_64B8ne200100EPKcm, symObjAddr: 0x128C8, symBinAddr: 0x21860, symSize: 0xC0 }
  - { offset: 0x1279A6, size: 0x8, addend: 0x0, symName: __ZNSt3__121__murmur2_or_cityhashImLm64EE19__hash_len_17_to_32B8ne200100EPKcm, symObjAddr: 0x1281C, symBinAddr: 0x217B4, symSize: 0xAC }
  - { offset: 0x127B72, size: 0x8, addend: 0x0, symName: __ZNSt3__112__hash_tableINS_17__hash_value_typeINS_12basic_stringIcNS_11char_traitsIcEENS_9allocatorIcEEEEN8facebook5react11TurboModule14MethodMetadataEEENS_22__unordered_map_hasherIS7_SC_NS_4hashIS7_EENS_8equal_toIS7_EELb1EEENS_21__unordered_map_equalIS7_SC_SH_SF_Lb1EEENS5_ISC_EEE11__do_rehashILb1EEEvm, symObjAddr: 0x12AD4, symBinAddr: 0x21A6C, symSize: 0x150 }
  - { offset: 0x127F88, size: 0x8, addend: 0x0, symName: __ZNSt3__122__hash_node_destructorINS_9allocatorINS_11__hash_nodeINS_17__hash_value_typeINS_12basic_stringIcNS_11char_traitsIcEENS1_IcEEEEN8facebook5react11TurboModule14MethodMetadataEEEPvEEEEEclB8ne200100EPSF_, symObjAddr: 0x12C24, symBinAddr: 0x21BBC, symSize: 0x50 }
  - { offset: 0x1281BF, size: 0x8, addend: 0x0, symName: __ZNSt3__110unique_ptrIN2JS26NativeAccessibilityManager55SpecSetAccessibilityContentSizeMultipliersJSMultipliersENS_14default_deleteIS3_EEE5resetB8ne200100EPS3_, symObjAddr: 0x12DB8, symBinAddr: 0x21D04, symSize: 0x3C }
  - { offset: 0x12827C, size: 0x8, addend: 0x0, symName: __ZNSt3__120__shared_ptr_pointerIPN2JS26NativeAccessibilityManager55SpecSetAccessibilityContentSizeMultipliersJSMultipliersENS_10shared_ptrIvE27__shared_ptr_default_deleteIvS3_EENS_9allocatorIS3_EEED1Ev, symObjAddr: 0x12CE0, symBinAddr: 0x21C78, symSize: 0x4 }
  - { offset: 0x12829E, size: 0x8, addend: 0x0, symName: __ZNSt3__120__shared_ptr_pointerIPN2JS26NativeAccessibilityManager55SpecSetAccessibilityContentSizeMultipliersJSMultipliersENS_10shared_ptrIvE27__shared_ptr_default_deleteIvS3_EENS_9allocatorIS3_EEED1Ev, symObjAddr: 0x12CE0, symBinAddr: 0x21C78, symSize: 0x4 }
  - { offset: 0x1282D4, size: 0x8, addend: 0x0, symName: __ZNSt3__120__shared_ptr_pointerIPN2JS26NativeAccessibilityManager55SpecSetAccessibilityContentSizeMultipliersJSMultipliersENS_10shared_ptrIvE27__shared_ptr_default_deleteIvS3_EENS_9allocatorIS3_EEED0Ev, symObjAddr: 0x12CE4, symBinAddr: 0x21C7C, symSize: 0x14 }
  - { offset: 0x128396, size: 0x8, addend: 0x0, symName: __ZNSt3__120__shared_ptr_pointerIPN2JS26NativeAccessibilityManager55SpecSetAccessibilityContentSizeMultipliersJSMultipliersENS_10shared_ptrIvE27__shared_ptr_default_deleteIvS3_EENS_9allocatorIS3_EEE16__on_zero_sharedEv, symObjAddr: 0x12CF8, symBinAddr: 0x21C90, symSize: 0x38 }
  - { offset: 0x128414, size: 0x8, addend: 0x0, symName: __ZNKSt3__120__shared_ptr_pointerIPN2JS26NativeAccessibilityManager55SpecSetAccessibilityContentSizeMultipliersJSMultipliersENS_10shared_ptrIvE27__shared_ptr_default_deleteIvS3_EENS_9allocatorIS3_EEE13__get_deleterERKSt9type_info, symObjAddr: 0x12D30, symBinAddr: 0x21CC8, symSize: 0x38 }
  - { offset: 0x12850A, size: 0x8, addend: 0x0, symName: __ZNSt3__120__shared_ptr_pointerIPN2JS26NativeAccessibilityManager55SpecSetAccessibilityContentSizeMultipliersJSMultipliersENS_10shared_ptrIvE27__shared_ptr_default_deleteIvS3_EENS_9allocatorIS3_EEE21__on_zero_shared_weakEv, symObjAddr: 0x12D68, symBinAddr: 0x21D00, symSize: 0x4 }
  - { offset: 0x12853C, size: 0x8, addend: 0x0, symName: __ZNSt3__120__shared_ptr_pointerIPN2JS26NativeAccessibilityManager55SpecSetAccessibilityContentSizeMultipliersJSMultipliersENS_10shared_ptrIvE27__shared_ptr_default_deleteIvS3_EENS_9allocatorIS3_EEE21__on_zero_shared_weakEv, symObjAddr: 0x12D68, symBinAddr: 0x21D00, symSize: 0x4 }
  - { offset: 0x12855D, size: 0x8, addend: 0x0, symName: __ZNSt3__120__shared_ptr_pointerIPN2JS26NativeAccessibilityManager55SpecSetAccessibilityContentSizeMultipliersJSMultipliersENS_10shared_ptrIvE27__shared_ptr_default_deleteIvS3_EENS_9allocatorIS3_EEE21__on_zero_shared_weakEv, symObjAddr: 0x12D68, symBinAddr: 0x21D00, symSize: 0x4 }
  - { offset: 0x128590, size: 0x8, addend: 0x0, symName: __ZNSt3__120__shared_ptr_pointerIPN2JS26NativeAccessibilityManager55SpecSetAccessibilityContentSizeMultipliersJSMultipliersENS_10shared_ptrIvE27__shared_ptr_default_deleteIvS3_EENS_9allocatorIS3_EEE21__on_zero_shared_weakEv, symObjAddr: 0x12D68, symBinAddr: 0x21D00, symSize: 0x4 }
  - { offset: 0x1287F5, size: 0x8, addend: 0x0, symName: __ZNSt3__120__shared_ptr_pointerIPN2JS26NativeAccessibilityManager46SpecAnnounceForAccessibilityWithOptionsOptionsENS_10shared_ptrIvE27__shared_ptr_default_deleteIvS3_EENS_9allocatorIS3_EEED1Ev, symObjAddr: 0x12EB8, symBinAddr: 0x21DAC, symSize: 0x4 }
  - { offset: 0x128817, size: 0x8, addend: 0x0, symName: __ZNSt3__120__shared_ptr_pointerIPN2JS26NativeAccessibilityManager46SpecAnnounceForAccessibilityWithOptionsOptionsENS_10shared_ptrIvE27__shared_ptr_default_deleteIvS3_EENS_9allocatorIS3_EEED1Ev, symObjAddr: 0x12EB8, symBinAddr: 0x21DAC, symSize: 0x4 }
  - { offset: 0x12884D, size: 0x8, addend: 0x0, symName: __ZNSt3__120__shared_ptr_pointerIPN2JS26NativeAccessibilityManager46SpecAnnounceForAccessibilityWithOptionsOptionsENS_10shared_ptrIvE27__shared_ptr_default_deleteIvS3_EENS_9allocatorIS3_EEED0Ev, symObjAddr: 0x12EBC, symBinAddr: 0x21DB0, symSize: 0x14 }
  - { offset: 0x12890F, size: 0x8, addend: 0x0, symName: __ZNSt3__120__shared_ptr_pointerIPN2JS26NativeAccessibilityManager46SpecAnnounceForAccessibilityWithOptionsOptionsENS_10shared_ptrIvE27__shared_ptr_default_deleteIvS3_EENS_9allocatorIS3_EEE16__on_zero_sharedEv, symObjAddr: 0x12ED0, symBinAddr: 0x21DC4, symSize: 0x38 }
  - { offset: 0x12898D, size: 0x8, addend: 0x0, symName: __ZNKSt3__120__shared_ptr_pointerIPN2JS26NativeAccessibilityManager46SpecAnnounceForAccessibilityWithOptionsOptionsENS_10shared_ptrIvE27__shared_ptr_default_deleteIvS3_EENS_9allocatorIS3_EEE13__get_deleterERKSt9type_info, symObjAddr: 0x12F08, symBinAddr: 0x21DFC, symSize: 0x38 }
  - { offset: 0x128A1C, size: 0x8, addend: 0x0, symName: __ZNSt3__120__shared_ptr_pointerIPN2JS26NativeAccessibilityManager46SpecAnnounceForAccessibilityWithOptionsOptionsENS_10shared_ptrIvE27__shared_ptr_default_deleteIvS3_EENS_9allocatorIS3_EEE21__on_zero_shared_weakEv, symObjAddr: 0x12F40, symBinAddr: 0x21E34, symSize: 0x4 }
  - { offset: 0x128A4E, size: 0x8, addend: 0x0, symName: __ZNSt3__120__shared_ptr_pointerIPN2JS26NativeAccessibilityManager46SpecAnnounceForAccessibilityWithOptionsOptionsENS_10shared_ptrIvE27__shared_ptr_default_deleteIvS3_EENS_9allocatorIS3_EEE21__on_zero_shared_weakEv, symObjAddr: 0x12F40, symBinAddr: 0x21E34, symSize: 0x4 }
  - { offset: 0x128A6F, size: 0x8, addend: 0x0, symName: __ZNSt3__120__shared_ptr_pointerIPN2JS26NativeAccessibilityManager46SpecAnnounceForAccessibilityWithOptionsOptionsENS_10shared_ptrIvE27__shared_ptr_default_deleteIvS3_EENS_9allocatorIS3_EEE21__on_zero_shared_weakEv, symObjAddr: 0x12F40, symBinAddr: 0x21E34, symSize: 0x4 }
  - { offset: 0x128AA2, size: 0x8, addend: 0x0, symName: __ZNSt3__120__shared_ptr_pointerIPN2JS26NativeAccessibilityManager46SpecAnnounceForAccessibilityWithOptionsOptionsENS_10shared_ptrIvE27__shared_ptr_default_deleteIvS3_EENS_9allocatorIS3_EEE21__on_zero_shared_weakEv, symObjAddr: 0x12F40, symBinAddr: 0x21E34, symSize: 0x4 }
  - { offset: 0x128CBF, size: 0x8, addend: 0x0, symName: __ZNSt3__120__shared_ptr_pointerIPN2JS24NativeActionSheetManager37SpecShowActionSheetWithOptionsOptionsENS_10shared_ptrIvE27__shared_ptr_default_deleteIvS3_EENS_9allocatorIS3_EEED1Ev, symObjAddr: 0x12FEC, symBinAddr: 0x21EA4, symSize: 0x4 }
  - { offset: 0x128CE1, size: 0x8, addend: 0x0, symName: __ZNSt3__120__shared_ptr_pointerIPN2JS24NativeActionSheetManager37SpecShowActionSheetWithOptionsOptionsENS_10shared_ptrIvE27__shared_ptr_default_deleteIvS3_EENS_9allocatorIS3_EEED1Ev, symObjAddr: 0x12FEC, symBinAddr: 0x21EA4, symSize: 0x4 }
  - { offset: 0x128D17, size: 0x8, addend: 0x0, symName: __ZNSt3__120__shared_ptr_pointerIPN2JS24NativeActionSheetManager37SpecShowActionSheetWithOptionsOptionsENS_10shared_ptrIvE27__shared_ptr_default_deleteIvS3_EENS_9allocatorIS3_EEED0Ev, symObjAddr: 0x12FF0, symBinAddr: 0x21EA8, symSize: 0x14 }
  - { offset: 0x128DD9, size: 0x8, addend: 0x0, symName: __ZNSt3__120__shared_ptr_pointerIPN2JS24NativeActionSheetManager37SpecShowActionSheetWithOptionsOptionsENS_10shared_ptrIvE27__shared_ptr_default_deleteIvS3_EENS_9allocatorIS3_EEE16__on_zero_sharedEv, symObjAddr: 0x13004, symBinAddr: 0x21EBC, symSize: 0x38 }
  - { offset: 0x128E57, size: 0x8, addend: 0x0, symName: __ZNKSt3__120__shared_ptr_pointerIPN2JS24NativeActionSheetManager37SpecShowActionSheetWithOptionsOptionsENS_10shared_ptrIvE27__shared_ptr_default_deleteIvS3_EENS_9allocatorIS3_EEE13__get_deleterERKSt9type_info, symObjAddr: 0x1303C, symBinAddr: 0x21EF4, symSize: 0x38 }
  - { offset: 0x128EE6, size: 0x8, addend: 0x0, symName: __ZNSt3__120__shared_ptr_pointerIPN2JS24NativeActionSheetManager37SpecShowActionSheetWithOptionsOptionsENS_10shared_ptrIvE27__shared_ptr_default_deleteIvS3_EENS_9allocatorIS3_EEE21__on_zero_shared_weakEv, symObjAddr: 0x13074, symBinAddr: 0x21F2C, symSize: 0x4 }
  - { offset: 0x128F18, size: 0x8, addend: 0x0, symName: __ZNSt3__120__shared_ptr_pointerIPN2JS24NativeActionSheetManager37SpecShowActionSheetWithOptionsOptionsENS_10shared_ptrIvE27__shared_ptr_default_deleteIvS3_EENS_9allocatorIS3_EEE21__on_zero_shared_weakEv, symObjAddr: 0x13074, symBinAddr: 0x21F2C, symSize: 0x4 }
  - { offset: 0x128F39, size: 0x8, addend: 0x0, symName: __ZNSt3__120__shared_ptr_pointerIPN2JS24NativeActionSheetManager37SpecShowActionSheetWithOptionsOptionsENS_10shared_ptrIvE27__shared_ptr_default_deleteIvS3_EENS_9allocatorIS3_EEE21__on_zero_shared_weakEv, symObjAddr: 0x13074, symBinAddr: 0x21F2C, symSize: 0x4 }
  - { offset: 0x128F6C, size: 0x8, addend: 0x0, symName: __ZNSt3__120__shared_ptr_pointerIPN2JS24NativeActionSheetManager37SpecShowActionSheetWithOptionsOptionsENS_10shared_ptrIvE27__shared_ptr_default_deleteIvS3_EENS_9allocatorIS3_EEE21__on_zero_shared_weakEv, symObjAddr: 0x13074, symBinAddr: 0x21F2C, symSize: 0x4 }
  - { offset: 0x129189, size: 0x8, addend: 0x0, symName: __ZNSt3__120__shared_ptr_pointerIPN2JS24NativeActionSheetManager42SpecShowShareActionSheetWithOptionsOptionsENS_10shared_ptrIvE27__shared_ptr_default_deleteIvS3_EENS_9allocatorIS3_EEED1Ev, symObjAddr: 0x13120, symBinAddr: 0x21F9C, symSize: 0x4 }
  - { offset: 0x1291AB, size: 0x8, addend: 0x0, symName: __ZNSt3__120__shared_ptr_pointerIPN2JS24NativeActionSheetManager42SpecShowShareActionSheetWithOptionsOptionsENS_10shared_ptrIvE27__shared_ptr_default_deleteIvS3_EENS_9allocatorIS3_EEED1Ev, symObjAddr: 0x13120, symBinAddr: 0x21F9C, symSize: 0x4 }
  - { offset: 0x1291E1, size: 0x8, addend: 0x0, symName: __ZNSt3__120__shared_ptr_pointerIPN2JS24NativeActionSheetManager42SpecShowShareActionSheetWithOptionsOptionsENS_10shared_ptrIvE27__shared_ptr_default_deleteIvS3_EENS_9allocatorIS3_EEED0Ev, symObjAddr: 0x13124, symBinAddr: 0x21FA0, symSize: 0x14 }
  - { offset: 0x1292A3, size: 0x8, addend: 0x0, symName: __ZNSt3__120__shared_ptr_pointerIPN2JS24NativeActionSheetManager42SpecShowShareActionSheetWithOptionsOptionsENS_10shared_ptrIvE27__shared_ptr_default_deleteIvS3_EENS_9allocatorIS3_EEE16__on_zero_sharedEv, symObjAddr: 0x13138, symBinAddr: 0x21FB4, symSize: 0x38 }
  - { offset: 0x129321, size: 0x8, addend: 0x0, symName: __ZNKSt3__120__shared_ptr_pointerIPN2JS24NativeActionSheetManager42SpecShowShareActionSheetWithOptionsOptionsENS_10shared_ptrIvE27__shared_ptr_default_deleteIvS3_EENS_9allocatorIS3_EEE13__get_deleterERKSt9type_info, symObjAddr: 0x13170, symBinAddr: 0x21FEC, symSize: 0x38 }
  - { offset: 0x1293B0, size: 0x8, addend: 0x0, symName: __ZNSt3__120__shared_ptr_pointerIPN2JS24NativeActionSheetManager42SpecShowShareActionSheetWithOptionsOptionsENS_10shared_ptrIvE27__shared_ptr_default_deleteIvS3_EENS_9allocatorIS3_EEE21__on_zero_shared_weakEv, symObjAddr: 0x131A8, symBinAddr: 0x22024, symSize: 0x4 }
  - { offset: 0x1293E2, size: 0x8, addend: 0x0, symName: __ZNSt3__120__shared_ptr_pointerIPN2JS24NativeActionSheetManager42SpecShowShareActionSheetWithOptionsOptionsENS_10shared_ptrIvE27__shared_ptr_default_deleteIvS3_EENS_9allocatorIS3_EEE21__on_zero_shared_weakEv, symObjAddr: 0x131A8, symBinAddr: 0x22024, symSize: 0x4 }
  - { offset: 0x129403, size: 0x8, addend: 0x0, symName: __ZNSt3__120__shared_ptr_pointerIPN2JS24NativeActionSheetManager42SpecShowShareActionSheetWithOptionsOptionsENS_10shared_ptrIvE27__shared_ptr_default_deleteIvS3_EENS_9allocatorIS3_EEE21__on_zero_shared_weakEv, symObjAddr: 0x131A8, symBinAddr: 0x22024, symSize: 0x4 }
  - { offset: 0x129436, size: 0x8, addend: 0x0, symName: __ZNSt3__120__shared_ptr_pointerIPN2JS24NativeActionSheetManager42SpecShowShareActionSheetWithOptionsOptionsENS_10shared_ptrIvE27__shared_ptr_default_deleteIvS3_EENS_9allocatorIS3_EEE21__on_zero_shared_weakEv, symObjAddr: 0x131A8, symBinAddr: 0x22024, symSize: 0x4 }
  - { offset: 0x129653, size: 0x8, addend: 0x0, symName: __ZNSt3__120__shared_ptr_pointerIPN2JS18NativeAlertManager4ArgsENS_10shared_ptrIvE27__shared_ptr_default_deleteIvS3_EENS_9allocatorIS3_EEED1Ev, symObjAddr: 0x13254, symBinAddr: 0x22094, symSize: 0x4 }
  - { offset: 0x129675, size: 0x8, addend: 0x0, symName: __ZNSt3__120__shared_ptr_pointerIPN2JS18NativeAlertManager4ArgsENS_10shared_ptrIvE27__shared_ptr_default_deleteIvS3_EENS_9allocatorIS3_EEED1Ev, symObjAddr: 0x13254, symBinAddr: 0x22094, symSize: 0x4 }
  - { offset: 0x1296AB, size: 0x8, addend: 0x0, symName: __ZNSt3__120__shared_ptr_pointerIPN2JS18NativeAlertManager4ArgsENS_10shared_ptrIvE27__shared_ptr_default_deleteIvS3_EENS_9allocatorIS3_EEED0Ev, symObjAddr: 0x13258, symBinAddr: 0x22098, symSize: 0x14 }
  - { offset: 0x12976D, size: 0x8, addend: 0x0, symName: __ZNSt3__120__shared_ptr_pointerIPN2JS18NativeAlertManager4ArgsENS_10shared_ptrIvE27__shared_ptr_default_deleteIvS3_EENS_9allocatorIS3_EEE16__on_zero_sharedEv, symObjAddr: 0x1326C, symBinAddr: 0x220AC, symSize: 0x38 }
  - { offset: 0x1297EB, size: 0x8, addend: 0x0, symName: __ZNKSt3__120__shared_ptr_pointerIPN2JS18NativeAlertManager4ArgsENS_10shared_ptrIvE27__shared_ptr_default_deleteIvS3_EENS_9allocatorIS3_EEE13__get_deleterERKSt9type_info, symObjAddr: 0x132A4, symBinAddr: 0x220E4, symSize: 0x38 }
  - { offset: 0x12987A, size: 0x8, addend: 0x0, symName: __ZNSt3__120__shared_ptr_pointerIPN2JS18NativeAlertManager4ArgsENS_10shared_ptrIvE27__shared_ptr_default_deleteIvS3_EENS_9allocatorIS3_EEE21__on_zero_shared_weakEv, symObjAddr: 0x132DC, symBinAddr: 0x2211C, symSize: 0x4 }
  - { offset: 0x1298AC, size: 0x8, addend: 0x0, symName: __ZNSt3__120__shared_ptr_pointerIPN2JS18NativeAlertManager4ArgsENS_10shared_ptrIvE27__shared_ptr_default_deleteIvS3_EENS_9allocatorIS3_EEE21__on_zero_shared_weakEv, symObjAddr: 0x132DC, symBinAddr: 0x2211C, symSize: 0x4 }
  - { offset: 0x1298CD, size: 0x8, addend: 0x0, symName: __ZNSt3__120__shared_ptr_pointerIPN2JS18NativeAlertManager4ArgsENS_10shared_ptrIvE27__shared_ptr_default_deleteIvS3_EENS_9allocatorIS3_EEE21__on_zero_shared_weakEv, symObjAddr: 0x132DC, symBinAddr: 0x2211C, symSize: 0x4 }
  - { offset: 0x129900, size: 0x8, addend: 0x0, symName: __ZNSt3__120__shared_ptr_pointerIPN2JS18NativeAlertManager4ArgsENS_10shared_ptrIvE27__shared_ptr_default_deleteIvS3_EENS_9allocatorIS3_EEE21__on_zero_shared_weakEv, symObjAddr: 0x132DC, symBinAddr: 0x2211C, symSize: 0x4 }
  - { offset: 0x129B1E, size: 0x8, addend: 0x0, symName: __ZNSt3__120__shared_ptr_pointerIPN2JS20NativeAnimatedModule12EventMappingENS_10shared_ptrIvE27__shared_ptr_default_deleteIvS3_EENS_9allocatorIS3_EEED1Ev, symObjAddr: 0x13388, symBinAddr: 0x2218C, symSize: 0x4 }
  - { offset: 0x129B40, size: 0x8, addend: 0x0, symName: __ZNSt3__120__shared_ptr_pointerIPN2JS20NativeAnimatedModule12EventMappingENS_10shared_ptrIvE27__shared_ptr_default_deleteIvS3_EENS_9allocatorIS3_EEED1Ev, symObjAddr: 0x13388, symBinAddr: 0x2218C, symSize: 0x4 }
  - { offset: 0x129B76, size: 0x8, addend: 0x0, symName: __ZNSt3__120__shared_ptr_pointerIPN2JS20NativeAnimatedModule12EventMappingENS_10shared_ptrIvE27__shared_ptr_default_deleteIvS3_EENS_9allocatorIS3_EEED0Ev, symObjAddr: 0x1338C, symBinAddr: 0x22190, symSize: 0x14 }
  - { offset: 0x129C3A, size: 0x8, addend: 0x0, symName: __ZNSt3__120__shared_ptr_pointerIPN2JS20NativeAnimatedModule12EventMappingENS_10shared_ptrIvE27__shared_ptr_default_deleteIvS3_EENS_9allocatorIS3_EEE16__on_zero_sharedEv, symObjAddr: 0x133A0, symBinAddr: 0x221A4, symSize: 0x38 }
  - { offset: 0x129CB9, size: 0x8, addend: 0x0, symName: __ZNKSt3__120__shared_ptr_pointerIPN2JS20NativeAnimatedModule12EventMappingENS_10shared_ptrIvE27__shared_ptr_default_deleteIvS3_EENS_9allocatorIS3_EEE13__get_deleterERKSt9type_info, symObjAddr: 0x133D8, symBinAddr: 0x221DC, symSize: 0x38 }
  - { offset: 0x129D48, size: 0x8, addend: 0x0, symName: __ZNSt3__120__shared_ptr_pointerIPN2JS20NativeAnimatedModule12EventMappingENS_10shared_ptrIvE27__shared_ptr_default_deleteIvS3_EENS_9allocatorIS3_EEE21__on_zero_shared_weakEv, symObjAddr: 0x13410, symBinAddr: 0x22214, symSize: 0x4 }
  - { offset: 0x129D7A, size: 0x8, addend: 0x0, symName: __ZNSt3__120__shared_ptr_pointerIPN2JS20NativeAnimatedModule12EventMappingENS_10shared_ptrIvE27__shared_ptr_default_deleteIvS3_EENS_9allocatorIS3_EEE21__on_zero_shared_weakEv, symObjAddr: 0x13410, symBinAddr: 0x22214, symSize: 0x4 }
  - { offset: 0x129D9B, size: 0x8, addend: 0x0, symName: __ZNSt3__120__shared_ptr_pointerIPN2JS20NativeAnimatedModule12EventMappingENS_10shared_ptrIvE27__shared_ptr_default_deleteIvS3_EENS_9allocatorIS3_EEE21__on_zero_shared_weakEv, symObjAddr: 0x13410, symBinAddr: 0x22214, symSize: 0x4 }
  - { offset: 0x129DCE, size: 0x8, addend: 0x0, symName: __ZNSt3__120__shared_ptr_pointerIPN2JS20NativeAnimatedModule12EventMappingENS_10shared_ptrIvE27__shared_ptr_default_deleteIvS3_EENS_9allocatorIS3_EEE21__on_zero_shared_weakEv, symObjAddr: 0x13410, symBinAddr: 0x22214, symSize: 0x4 }
  - { offset: 0x129FEC, size: 0x8, addend: 0x0, symName: __ZNSt3__120__shared_ptr_pointerIPN2JS25NativeAnimatedTurboModule12EventMappingENS_10shared_ptrIvE27__shared_ptr_default_deleteIvS3_EENS_9allocatorIS3_EEED1Ev, symObjAddr: 0x134BC, symBinAddr: 0x22284, symSize: 0x4 }
  - { offset: 0x12A00E, size: 0x8, addend: 0x0, symName: __ZNSt3__120__shared_ptr_pointerIPN2JS25NativeAnimatedTurboModule12EventMappingENS_10shared_ptrIvE27__shared_ptr_default_deleteIvS3_EENS_9allocatorIS3_EEED1Ev, symObjAddr: 0x134BC, symBinAddr: 0x22284, symSize: 0x4 }
  - { offset: 0x12A044, size: 0x8, addend: 0x0, symName: __ZNSt3__120__shared_ptr_pointerIPN2JS25NativeAnimatedTurboModule12EventMappingENS_10shared_ptrIvE27__shared_ptr_default_deleteIvS3_EENS_9allocatorIS3_EEED0Ev, symObjAddr: 0x134C0, symBinAddr: 0x22288, symSize: 0x14 }
  - { offset: 0x12A108, size: 0x8, addend: 0x0, symName: __ZNSt3__120__shared_ptr_pointerIPN2JS25NativeAnimatedTurboModule12EventMappingENS_10shared_ptrIvE27__shared_ptr_default_deleteIvS3_EENS_9allocatorIS3_EEE16__on_zero_sharedEv, symObjAddr: 0x134D4, symBinAddr: 0x2229C, symSize: 0x38 }
  - { offset: 0x12A187, size: 0x8, addend: 0x0, symName: __ZNKSt3__120__shared_ptr_pointerIPN2JS25NativeAnimatedTurboModule12EventMappingENS_10shared_ptrIvE27__shared_ptr_default_deleteIvS3_EENS_9allocatorIS3_EEE13__get_deleterERKSt9type_info, symObjAddr: 0x1350C, symBinAddr: 0x222D4, symSize: 0x38 }
  - { offset: 0x12A216, size: 0x8, addend: 0x0, symName: __ZNSt3__120__shared_ptr_pointerIPN2JS25NativeAnimatedTurboModule12EventMappingENS_10shared_ptrIvE27__shared_ptr_default_deleteIvS3_EENS_9allocatorIS3_EEE21__on_zero_shared_weakEv, symObjAddr: 0x13544, symBinAddr: 0x2230C, symSize: 0x4 }
  - { offset: 0x12A248, size: 0x8, addend: 0x0, symName: __ZNSt3__120__shared_ptr_pointerIPN2JS25NativeAnimatedTurboModule12EventMappingENS_10shared_ptrIvE27__shared_ptr_default_deleteIvS3_EENS_9allocatorIS3_EEE21__on_zero_shared_weakEv, symObjAddr: 0x13544, symBinAddr: 0x2230C, symSize: 0x4 }
  - { offset: 0x12A269, size: 0x8, addend: 0x0, symName: __ZNSt3__120__shared_ptr_pointerIPN2JS25NativeAnimatedTurboModule12EventMappingENS_10shared_ptrIvE27__shared_ptr_default_deleteIvS3_EENS_9allocatorIS3_EEE21__on_zero_shared_weakEv, symObjAddr: 0x13544, symBinAddr: 0x2230C, symSize: 0x4 }
  - { offset: 0x12A29C, size: 0x8, addend: 0x0, symName: __ZNSt3__120__shared_ptr_pointerIPN2JS25NativeAnimatedTurboModule12EventMappingENS_10shared_ptrIvE27__shared_ptr_default_deleteIvS3_EENS_9allocatorIS3_EEE21__on_zero_shared_weakEv, symObjAddr: 0x13544, symBinAddr: 0x2230C, symSize: 0x4 }
  - { offset: 0x12A4BA, size: 0x8, addend: 0x0, symName: __ZNSt3__120__shared_ptr_pointerIPN2JS23NativeExceptionsManager10StackFrameENS_10shared_ptrIvE27__shared_ptr_default_deleteIvS3_EENS_9allocatorIS3_EEED1Ev, symObjAddr: 0x135F0, symBinAddr: 0x2237C, symSize: 0x4 }
  - { offset: 0x12A4DC, size: 0x8, addend: 0x0, symName: __ZNSt3__120__shared_ptr_pointerIPN2JS23NativeExceptionsManager10StackFrameENS_10shared_ptrIvE27__shared_ptr_default_deleteIvS3_EENS_9allocatorIS3_EEED1Ev, symObjAddr: 0x135F0, symBinAddr: 0x2237C, symSize: 0x4 }
  - { offset: 0x12A512, size: 0x8, addend: 0x0, symName: __ZNSt3__120__shared_ptr_pointerIPN2JS23NativeExceptionsManager10StackFrameENS_10shared_ptrIvE27__shared_ptr_default_deleteIvS3_EENS_9allocatorIS3_EEED0Ev, symObjAddr: 0x135F4, symBinAddr: 0x22380, symSize: 0x14 }
  - { offset: 0x12A5D6, size: 0x8, addend: 0x0, symName: __ZNSt3__120__shared_ptr_pointerIPN2JS23NativeExceptionsManager10StackFrameENS_10shared_ptrIvE27__shared_ptr_default_deleteIvS3_EENS_9allocatorIS3_EEE16__on_zero_sharedEv, symObjAddr: 0x13608, symBinAddr: 0x22394, symSize: 0x38 }
  - { offset: 0x12A655, size: 0x8, addend: 0x0, symName: __ZNKSt3__120__shared_ptr_pointerIPN2JS23NativeExceptionsManager10StackFrameENS_10shared_ptrIvE27__shared_ptr_default_deleteIvS3_EENS_9allocatorIS3_EEE13__get_deleterERKSt9type_info, symObjAddr: 0x13640, symBinAddr: 0x223CC, symSize: 0x38 }
  - { offset: 0x12A6E4, size: 0x8, addend: 0x0, symName: __ZNSt3__120__shared_ptr_pointerIPN2JS23NativeExceptionsManager10StackFrameENS_10shared_ptrIvE27__shared_ptr_default_deleteIvS3_EENS_9allocatorIS3_EEE21__on_zero_shared_weakEv, symObjAddr: 0x13678, symBinAddr: 0x22404, symSize: 0x4 }
  - { offset: 0x12A716, size: 0x8, addend: 0x0, symName: __ZNSt3__120__shared_ptr_pointerIPN2JS23NativeExceptionsManager10StackFrameENS_10shared_ptrIvE27__shared_ptr_default_deleteIvS3_EENS_9allocatorIS3_EEE21__on_zero_shared_weakEv, symObjAddr: 0x13678, symBinAddr: 0x22404, symSize: 0x4 }
  - { offset: 0x12A737, size: 0x8, addend: 0x0, symName: __ZNSt3__120__shared_ptr_pointerIPN2JS23NativeExceptionsManager10StackFrameENS_10shared_ptrIvE27__shared_ptr_default_deleteIvS3_EENS_9allocatorIS3_EEE21__on_zero_shared_weakEv, symObjAddr: 0x13678, symBinAddr: 0x22404, symSize: 0x4 }
  - { offset: 0x12A76A, size: 0x8, addend: 0x0, symName: __ZNSt3__120__shared_ptr_pointerIPN2JS23NativeExceptionsManager10StackFrameENS_10shared_ptrIvE27__shared_ptr_default_deleteIvS3_EENS_9allocatorIS3_EEE21__on_zero_shared_weakEv, symObjAddr: 0x13678, symBinAddr: 0x22404, symSize: 0x4 }
  - { offset: 0x12A988, size: 0x8, addend: 0x0, symName: __ZNSt3__120__shared_ptr_pointerIPN2JS23NativeExceptionsManager13ExceptionDataENS_10shared_ptrIvE27__shared_ptr_default_deleteIvS3_EENS_9allocatorIS3_EEED1Ev, symObjAddr: 0x13724, symBinAddr: 0x22474, symSize: 0x4 }
  - { offset: 0x12A9AA, size: 0x8, addend: 0x0, symName: __ZNSt3__120__shared_ptr_pointerIPN2JS23NativeExceptionsManager13ExceptionDataENS_10shared_ptrIvE27__shared_ptr_default_deleteIvS3_EENS_9allocatorIS3_EEED1Ev, symObjAddr: 0x13724, symBinAddr: 0x22474, symSize: 0x4 }
  - { offset: 0x12A9E0, size: 0x8, addend: 0x0, symName: __ZNSt3__120__shared_ptr_pointerIPN2JS23NativeExceptionsManager13ExceptionDataENS_10shared_ptrIvE27__shared_ptr_default_deleteIvS3_EENS_9allocatorIS3_EEED0Ev, symObjAddr: 0x13728, symBinAddr: 0x22478, symSize: 0x14 }
  - { offset: 0x12AAA4, size: 0x8, addend: 0x0, symName: __ZNSt3__120__shared_ptr_pointerIPN2JS23NativeExceptionsManager13ExceptionDataENS_10shared_ptrIvE27__shared_ptr_default_deleteIvS3_EENS_9allocatorIS3_EEE16__on_zero_sharedEv, symObjAddr: 0x1373C, symBinAddr: 0x2248C, symSize: 0x38 }
  - { offset: 0x12AB23, size: 0x8, addend: 0x0, symName: __ZNKSt3__120__shared_ptr_pointerIPN2JS23NativeExceptionsManager13ExceptionDataENS_10shared_ptrIvE27__shared_ptr_default_deleteIvS3_EENS_9allocatorIS3_EEE13__get_deleterERKSt9type_info, symObjAddr: 0x13774, symBinAddr: 0x224C4, symSize: 0x38 }
  - { offset: 0x12ABB2, size: 0x8, addend: 0x0, symName: __ZNSt3__120__shared_ptr_pointerIPN2JS23NativeExceptionsManager13ExceptionDataENS_10shared_ptrIvE27__shared_ptr_default_deleteIvS3_EENS_9allocatorIS3_EEE21__on_zero_shared_weakEv, symObjAddr: 0x137AC, symBinAddr: 0x224FC, symSize: 0x4 }
  - { offset: 0x12ABE4, size: 0x8, addend: 0x0, symName: __ZNSt3__120__shared_ptr_pointerIPN2JS23NativeExceptionsManager13ExceptionDataENS_10shared_ptrIvE27__shared_ptr_default_deleteIvS3_EENS_9allocatorIS3_EEE21__on_zero_shared_weakEv, symObjAddr: 0x137AC, symBinAddr: 0x224FC, symSize: 0x4 }
  - { offset: 0x12AC05, size: 0x8, addend: 0x0, symName: __ZNSt3__120__shared_ptr_pointerIPN2JS23NativeExceptionsManager13ExceptionDataENS_10shared_ptrIvE27__shared_ptr_default_deleteIvS3_EENS_9allocatorIS3_EEE21__on_zero_shared_weakEv, symObjAddr: 0x137AC, symBinAddr: 0x224FC, symSize: 0x4 }
  - { offset: 0x12AC38, size: 0x8, addend: 0x0, symName: __ZNSt3__120__shared_ptr_pointerIPN2JS23NativeExceptionsManager13ExceptionDataENS_10shared_ptrIvE27__shared_ptr_default_deleteIvS3_EENS_9allocatorIS3_EEE21__on_zero_shared_weakEv, symObjAddr: 0x137AC, symBinAddr: 0x224FC, symSize: 0x4 }
  - { offset: 0x12AE56, size: 0x8, addend: 0x0, symName: __ZNSt3__120__shared_ptr_pointerIPN2JS21NativeFrameRateLogger27SpecSetGlobalOptionsOptionsENS_10shared_ptrIvE27__shared_ptr_default_deleteIvS3_EENS_9allocatorIS3_EEED1Ev, symObjAddr: 0x13858, symBinAddr: 0x2256C, symSize: 0x4 }
  - { offset: 0x12AE78, size: 0x8, addend: 0x0, symName: __ZNSt3__120__shared_ptr_pointerIPN2JS21NativeFrameRateLogger27SpecSetGlobalOptionsOptionsENS_10shared_ptrIvE27__shared_ptr_default_deleteIvS3_EENS_9allocatorIS3_EEED1Ev, symObjAddr: 0x13858, symBinAddr: 0x2256C, symSize: 0x4 }
  - { offset: 0x12AEAE, size: 0x8, addend: 0x0, symName: __ZNSt3__120__shared_ptr_pointerIPN2JS21NativeFrameRateLogger27SpecSetGlobalOptionsOptionsENS_10shared_ptrIvE27__shared_ptr_default_deleteIvS3_EENS_9allocatorIS3_EEED0Ev, symObjAddr: 0x1385C, symBinAddr: 0x22570, symSize: 0x14 }
  - { offset: 0x12AF72, size: 0x8, addend: 0x0, symName: __ZNSt3__120__shared_ptr_pointerIPN2JS21NativeFrameRateLogger27SpecSetGlobalOptionsOptionsENS_10shared_ptrIvE27__shared_ptr_default_deleteIvS3_EENS_9allocatorIS3_EEE16__on_zero_sharedEv, symObjAddr: 0x13870, symBinAddr: 0x22584, symSize: 0x38 }
  - { offset: 0x12AFF1, size: 0x8, addend: 0x0, symName: __ZNKSt3__120__shared_ptr_pointerIPN2JS21NativeFrameRateLogger27SpecSetGlobalOptionsOptionsENS_10shared_ptrIvE27__shared_ptr_default_deleteIvS3_EENS_9allocatorIS3_EEE13__get_deleterERKSt9type_info, symObjAddr: 0x138A8, symBinAddr: 0x225BC, symSize: 0x38 }
  - { offset: 0x12B080, size: 0x8, addend: 0x0, symName: __ZNSt3__120__shared_ptr_pointerIPN2JS21NativeFrameRateLogger27SpecSetGlobalOptionsOptionsENS_10shared_ptrIvE27__shared_ptr_default_deleteIvS3_EENS_9allocatorIS3_EEE21__on_zero_shared_weakEv, symObjAddr: 0x138E0, symBinAddr: 0x225F4, symSize: 0x4 }
  - { offset: 0x12B0B2, size: 0x8, addend: 0x0, symName: __ZNSt3__120__shared_ptr_pointerIPN2JS21NativeFrameRateLogger27SpecSetGlobalOptionsOptionsENS_10shared_ptrIvE27__shared_ptr_default_deleteIvS3_EENS_9allocatorIS3_EEE21__on_zero_shared_weakEv, symObjAddr: 0x138E0, symBinAddr: 0x225F4, symSize: 0x4 }
  - { offset: 0x12B0D3, size: 0x8, addend: 0x0, symName: __ZNSt3__120__shared_ptr_pointerIPN2JS21NativeFrameRateLogger27SpecSetGlobalOptionsOptionsENS_10shared_ptrIvE27__shared_ptr_default_deleteIvS3_EENS_9allocatorIS3_EEE21__on_zero_shared_weakEv, symObjAddr: 0x138E0, symBinAddr: 0x225F4, symSize: 0x4 }
  - { offset: 0x12B106, size: 0x8, addend: 0x0, symName: __ZNSt3__120__shared_ptr_pointerIPN2JS21NativeFrameRateLogger27SpecSetGlobalOptionsOptionsENS_10shared_ptrIvE27__shared_ptr_default_deleteIvS3_EENS_9allocatorIS3_EEE21__on_zero_shared_weakEv, symObjAddr: 0x138E0, symBinAddr: 0x225F4, symSize: 0x4 }
  - { offset: 0x12B324, size: 0x8, addend: 0x0, symName: __ZNSt3__120__shared_ptr_pointerIPN2JS17NativeImageEditor13OptionsOffsetENS_10shared_ptrIvE27__shared_ptr_default_deleteIvS3_EENS_9allocatorIS3_EEED1Ev, symObjAddr: 0x1398C, symBinAddr: 0x22664, symSize: 0x4 }
  - { offset: 0x12B346, size: 0x8, addend: 0x0, symName: __ZNSt3__120__shared_ptr_pointerIPN2JS17NativeImageEditor13OptionsOffsetENS_10shared_ptrIvE27__shared_ptr_default_deleteIvS3_EENS_9allocatorIS3_EEED1Ev, symObjAddr: 0x1398C, symBinAddr: 0x22664, symSize: 0x4 }
  - { offset: 0x12B37C, size: 0x8, addend: 0x0, symName: __ZNSt3__120__shared_ptr_pointerIPN2JS17NativeImageEditor13OptionsOffsetENS_10shared_ptrIvE27__shared_ptr_default_deleteIvS3_EENS_9allocatorIS3_EEED0Ev, symObjAddr: 0x13990, symBinAddr: 0x22668, symSize: 0x14 }
  - { offset: 0x12B440, size: 0x8, addend: 0x0, symName: __ZNSt3__120__shared_ptr_pointerIPN2JS17NativeImageEditor13OptionsOffsetENS_10shared_ptrIvE27__shared_ptr_default_deleteIvS3_EENS_9allocatorIS3_EEE16__on_zero_sharedEv, symObjAddr: 0x139A4, symBinAddr: 0x2267C, symSize: 0x38 }
  - { offset: 0x12B4BF, size: 0x8, addend: 0x0, symName: __ZNKSt3__120__shared_ptr_pointerIPN2JS17NativeImageEditor13OptionsOffsetENS_10shared_ptrIvE27__shared_ptr_default_deleteIvS3_EENS_9allocatorIS3_EEE13__get_deleterERKSt9type_info, symObjAddr: 0x139DC, symBinAddr: 0x226B4, symSize: 0x38 }
  - { offset: 0x12B54E, size: 0x8, addend: 0x0, symName: __ZNSt3__120__shared_ptr_pointerIPN2JS17NativeImageEditor13OptionsOffsetENS_10shared_ptrIvE27__shared_ptr_default_deleteIvS3_EENS_9allocatorIS3_EEE21__on_zero_shared_weakEv, symObjAddr: 0x13A14, symBinAddr: 0x226EC, symSize: 0x4 }
  - { offset: 0x12B580, size: 0x8, addend: 0x0, symName: __ZNSt3__120__shared_ptr_pointerIPN2JS17NativeImageEditor13OptionsOffsetENS_10shared_ptrIvE27__shared_ptr_default_deleteIvS3_EENS_9allocatorIS3_EEE21__on_zero_shared_weakEv, symObjAddr: 0x13A14, symBinAddr: 0x226EC, symSize: 0x4 }
  - { offset: 0x12B5A1, size: 0x8, addend: 0x0, symName: __ZNSt3__120__shared_ptr_pointerIPN2JS17NativeImageEditor13OptionsOffsetENS_10shared_ptrIvE27__shared_ptr_default_deleteIvS3_EENS_9allocatorIS3_EEE21__on_zero_shared_weakEv, symObjAddr: 0x13A14, symBinAddr: 0x226EC, symSize: 0x4 }
  - { offset: 0x12B5D4, size: 0x8, addend: 0x0, symName: __ZNSt3__120__shared_ptr_pointerIPN2JS17NativeImageEditor13OptionsOffsetENS_10shared_ptrIvE27__shared_ptr_default_deleteIvS3_EENS_9allocatorIS3_EEE21__on_zero_shared_weakEv, symObjAddr: 0x13A14, symBinAddr: 0x226EC, symSize: 0x4 }
  - { offset: 0x12B7F2, size: 0x8, addend: 0x0, symName: __ZNSt3__120__shared_ptr_pointerIPN2JS17NativeImageEditor11OptionsSizeENS_10shared_ptrIvE27__shared_ptr_default_deleteIvS3_EENS_9allocatorIS3_EEED1Ev, symObjAddr: 0x13AC0, symBinAddr: 0x2275C, symSize: 0x4 }
  - { offset: 0x12B814, size: 0x8, addend: 0x0, symName: __ZNSt3__120__shared_ptr_pointerIPN2JS17NativeImageEditor11OptionsSizeENS_10shared_ptrIvE27__shared_ptr_default_deleteIvS3_EENS_9allocatorIS3_EEED1Ev, symObjAddr: 0x13AC0, symBinAddr: 0x2275C, symSize: 0x4 }
  - { offset: 0x12B84A, size: 0x8, addend: 0x0, symName: __ZNSt3__120__shared_ptr_pointerIPN2JS17NativeImageEditor11OptionsSizeENS_10shared_ptrIvE27__shared_ptr_default_deleteIvS3_EENS_9allocatorIS3_EEED0Ev, symObjAddr: 0x13AC4, symBinAddr: 0x22760, symSize: 0x14 }
  - { offset: 0x12B90E, size: 0x8, addend: 0x0, symName: __ZNSt3__120__shared_ptr_pointerIPN2JS17NativeImageEditor11OptionsSizeENS_10shared_ptrIvE27__shared_ptr_default_deleteIvS3_EENS_9allocatorIS3_EEE16__on_zero_sharedEv, symObjAddr: 0x13AD8, symBinAddr: 0x22774, symSize: 0x38 }
  - { offset: 0x12B98D, size: 0x8, addend: 0x0, symName: __ZNKSt3__120__shared_ptr_pointerIPN2JS17NativeImageEditor11OptionsSizeENS_10shared_ptrIvE27__shared_ptr_default_deleteIvS3_EENS_9allocatorIS3_EEE13__get_deleterERKSt9type_info, symObjAddr: 0x13B10, symBinAddr: 0x227AC, symSize: 0x38 }
  - { offset: 0x12BA1C, size: 0x8, addend: 0x0, symName: __ZNSt3__120__shared_ptr_pointerIPN2JS17NativeImageEditor11OptionsSizeENS_10shared_ptrIvE27__shared_ptr_default_deleteIvS3_EENS_9allocatorIS3_EEE21__on_zero_shared_weakEv, symObjAddr: 0x13B48, symBinAddr: 0x227E4, symSize: 0x4 }
  - { offset: 0x12BA4E, size: 0x8, addend: 0x0, symName: __ZNSt3__120__shared_ptr_pointerIPN2JS17NativeImageEditor11OptionsSizeENS_10shared_ptrIvE27__shared_ptr_default_deleteIvS3_EENS_9allocatorIS3_EEE21__on_zero_shared_weakEv, symObjAddr: 0x13B48, symBinAddr: 0x227E4, symSize: 0x4 }
  - { offset: 0x12BA6F, size: 0x8, addend: 0x0, symName: __ZNSt3__120__shared_ptr_pointerIPN2JS17NativeImageEditor11OptionsSizeENS_10shared_ptrIvE27__shared_ptr_default_deleteIvS3_EENS_9allocatorIS3_EEE21__on_zero_shared_weakEv, symObjAddr: 0x13B48, symBinAddr: 0x227E4, symSize: 0x4 }
  - { offset: 0x12BAA2, size: 0x8, addend: 0x0, symName: __ZNSt3__120__shared_ptr_pointerIPN2JS17NativeImageEditor11OptionsSizeENS_10shared_ptrIvE27__shared_ptr_default_deleteIvS3_EENS_9allocatorIS3_EEE21__on_zero_shared_weakEv, symObjAddr: 0x13B48, symBinAddr: 0x227E4, symSize: 0x4 }
  - { offset: 0x12BCC0, size: 0x8, addend: 0x0, symName: __ZNSt3__120__shared_ptr_pointerIPN2JS17NativeImageEditor18OptionsDisplaySizeENS_10shared_ptrIvE27__shared_ptr_default_deleteIvS3_EENS_9allocatorIS3_EEED1Ev, symObjAddr: 0x13BF4, symBinAddr: 0x22854, symSize: 0x4 }
  - { offset: 0x12BCE2, size: 0x8, addend: 0x0, symName: __ZNSt3__120__shared_ptr_pointerIPN2JS17NativeImageEditor18OptionsDisplaySizeENS_10shared_ptrIvE27__shared_ptr_default_deleteIvS3_EENS_9allocatorIS3_EEED1Ev, symObjAddr: 0x13BF4, symBinAddr: 0x22854, symSize: 0x4 }
  - { offset: 0x12BD18, size: 0x8, addend: 0x0, symName: __ZNSt3__120__shared_ptr_pointerIPN2JS17NativeImageEditor18OptionsDisplaySizeENS_10shared_ptrIvE27__shared_ptr_default_deleteIvS3_EENS_9allocatorIS3_EEED0Ev, symObjAddr: 0x13BF8, symBinAddr: 0x22858, symSize: 0x14 }
  - { offset: 0x12BDDC, size: 0x8, addend: 0x0, symName: __ZNSt3__120__shared_ptr_pointerIPN2JS17NativeImageEditor18OptionsDisplaySizeENS_10shared_ptrIvE27__shared_ptr_default_deleteIvS3_EENS_9allocatorIS3_EEE16__on_zero_sharedEv, symObjAddr: 0x13C0C, symBinAddr: 0x2286C, symSize: 0x38 }
  - { offset: 0x12BE5B, size: 0x8, addend: 0x0, symName: __ZNKSt3__120__shared_ptr_pointerIPN2JS17NativeImageEditor18OptionsDisplaySizeENS_10shared_ptrIvE27__shared_ptr_default_deleteIvS3_EENS_9allocatorIS3_EEE13__get_deleterERKSt9type_info, symObjAddr: 0x13C44, symBinAddr: 0x228A4, symSize: 0x38 }
  - { offset: 0x12BEEA, size: 0x8, addend: 0x0, symName: __ZNSt3__120__shared_ptr_pointerIPN2JS17NativeImageEditor18OptionsDisplaySizeENS_10shared_ptrIvE27__shared_ptr_default_deleteIvS3_EENS_9allocatorIS3_EEE21__on_zero_shared_weakEv, symObjAddr: 0x13C7C, symBinAddr: 0x228DC, symSize: 0x4 }
  - { offset: 0x12BF1C, size: 0x8, addend: 0x0, symName: __ZNSt3__120__shared_ptr_pointerIPN2JS17NativeImageEditor18OptionsDisplaySizeENS_10shared_ptrIvE27__shared_ptr_default_deleteIvS3_EENS_9allocatorIS3_EEE21__on_zero_shared_weakEv, symObjAddr: 0x13C7C, symBinAddr: 0x228DC, symSize: 0x4 }
  - { offset: 0x12BF3D, size: 0x8, addend: 0x0, symName: __ZNSt3__120__shared_ptr_pointerIPN2JS17NativeImageEditor18OptionsDisplaySizeENS_10shared_ptrIvE27__shared_ptr_default_deleteIvS3_EENS_9allocatorIS3_EEE21__on_zero_shared_weakEv, symObjAddr: 0x13C7C, symBinAddr: 0x228DC, symSize: 0x4 }
  - { offset: 0x12BF70, size: 0x8, addend: 0x0, symName: __ZNSt3__120__shared_ptr_pointerIPN2JS17NativeImageEditor18OptionsDisplaySizeENS_10shared_ptrIvE27__shared_ptr_default_deleteIvS3_EENS_9allocatorIS3_EEE21__on_zero_shared_weakEv, symObjAddr: 0x13C7C, symBinAddr: 0x228DC, symSize: 0x4 }
  - { offset: 0x12C18E, size: 0x8, addend: 0x0, symName: __ZNSt3__120__shared_ptr_pointerIPN2JS17NativeImageEditor7OptionsENS_10shared_ptrIvE27__shared_ptr_default_deleteIvS3_EENS_9allocatorIS3_EEED1Ev, symObjAddr: 0x13D28, symBinAddr: 0x2294C, symSize: 0x4 }
  - { offset: 0x12C1B0, size: 0x8, addend: 0x0, symName: __ZNSt3__120__shared_ptr_pointerIPN2JS17NativeImageEditor7OptionsENS_10shared_ptrIvE27__shared_ptr_default_deleteIvS3_EENS_9allocatorIS3_EEED1Ev, symObjAddr: 0x13D28, symBinAddr: 0x2294C, symSize: 0x4 }
  - { offset: 0x12C1E6, size: 0x8, addend: 0x0, symName: __ZNSt3__120__shared_ptr_pointerIPN2JS17NativeImageEditor7OptionsENS_10shared_ptrIvE27__shared_ptr_default_deleteIvS3_EENS_9allocatorIS3_EEED0Ev, symObjAddr: 0x13D2C, symBinAddr: 0x22950, symSize: 0x14 }
  - { offset: 0x12C2AA, size: 0x8, addend: 0x0, symName: __ZNSt3__120__shared_ptr_pointerIPN2JS17NativeImageEditor7OptionsENS_10shared_ptrIvE27__shared_ptr_default_deleteIvS3_EENS_9allocatorIS3_EEE16__on_zero_sharedEv, symObjAddr: 0x13D40, symBinAddr: 0x22964, symSize: 0x38 }
  - { offset: 0x12C329, size: 0x8, addend: 0x0, symName: __ZNKSt3__120__shared_ptr_pointerIPN2JS17NativeImageEditor7OptionsENS_10shared_ptrIvE27__shared_ptr_default_deleteIvS3_EENS_9allocatorIS3_EEE13__get_deleterERKSt9type_info, symObjAddr: 0x13D78, symBinAddr: 0x2299C, symSize: 0x38 }
  - { offset: 0x12C3B8, size: 0x8, addend: 0x0, symName: __ZNSt3__120__shared_ptr_pointerIPN2JS17NativeImageEditor7OptionsENS_10shared_ptrIvE27__shared_ptr_default_deleteIvS3_EENS_9allocatorIS3_EEE21__on_zero_shared_weakEv, symObjAddr: 0x13DB0, symBinAddr: 0x229D4, symSize: 0x4 }
  - { offset: 0x12C3EA, size: 0x8, addend: 0x0, symName: __ZNSt3__120__shared_ptr_pointerIPN2JS17NativeImageEditor7OptionsENS_10shared_ptrIvE27__shared_ptr_default_deleteIvS3_EENS_9allocatorIS3_EEE21__on_zero_shared_weakEv, symObjAddr: 0x13DB0, symBinAddr: 0x229D4, symSize: 0x4 }
  - { offset: 0x12C40B, size: 0x8, addend: 0x0, symName: __ZNSt3__120__shared_ptr_pointerIPN2JS17NativeImageEditor7OptionsENS_10shared_ptrIvE27__shared_ptr_default_deleteIvS3_EENS_9allocatorIS3_EEE21__on_zero_shared_weakEv, symObjAddr: 0x13DB0, symBinAddr: 0x229D4, symSize: 0x4 }
  - { offset: 0x12C43E, size: 0x8, addend: 0x0, symName: __ZNSt3__120__shared_ptr_pointerIPN2JS17NativeImageEditor7OptionsENS_10shared_ptrIvE27__shared_ptr_default_deleteIvS3_EENS_9allocatorIS3_EEE21__on_zero_shared_weakEv, symObjAddr: 0x13DB0, symBinAddr: 0x229D4, symSize: 0x4 }
  - { offset: 0x12C65C, size: 0x8, addend: 0x0, symName: __ZNSt3__120__shared_ptr_pointerIPN2JS19NativeNetworkingIOS20SpecSendRequestQueryENS_10shared_ptrIvE27__shared_ptr_default_deleteIvS3_EENS_9allocatorIS3_EEED1Ev, symObjAddr: 0x13E5C, symBinAddr: 0x22A44, symSize: 0x4 }
  - { offset: 0x12C67E, size: 0x8, addend: 0x0, symName: __ZNSt3__120__shared_ptr_pointerIPN2JS19NativeNetworkingIOS20SpecSendRequestQueryENS_10shared_ptrIvE27__shared_ptr_default_deleteIvS3_EENS_9allocatorIS3_EEED1Ev, symObjAddr: 0x13E5C, symBinAddr: 0x22A44, symSize: 0x4 }
  - { offset: 0x12C6B4, size: 0x8, addend: 0x0, symName: __ZNSt3__120__shared_ptr_pointerIPN2JS19NativeNetworkingIOS20SpecSendRequestQueryENS_10shared_ptrIvE27__shared_ptr_default_deleteIvS3_EENS_9allocatorIS3_EEED0Ev, symObjAddr: 0x13E60, symBinAddr: 0x22A48, symSize: 0x14 }
  - { offset: 0x12C778, size: 0x8, addend: 0x0, symName: __ZNSt3__120__shared_ptr_pointerIPN2JS19NativeNetworkingIOS20SpecSendRequestQueryENS_10shared_ptrIvE27__shared_ptr_default_deleteIvS3_EENS_9allocatorIS3_EEE16__on_zero_sharedEv, symObjAddr: 0x13E74, symBinAddr: 0x22A5C, symSize: 0x38 }
  - { offset: 0x12C7F7, size: 0x8, addend: 0x0, symName: __ZNKSt3__120__shared_ptr_pointerIPN2JS19NativeNetworkingIOS20SpecSendRequestQueryENS_10shared_ptrIvE27__shared_ptr_default_deleteIvS3_EENS_9allocatorIS3_EEE13__get_deleterERKSt9type_info, symObjAddr: 0x13EAC, symBinAddr: 0x22A94, symSize: 0x38 }
  - { offset: 0x12C886, size: 0x8, addend: 0x0, symName: __ZNSt3__120__shared_ptr_pointerIPN2JS19NativeNetworkingIOS20SpecSendRequestQueryENS_10shared_ptrIvE27__shared_ptr_default_deleteIvS3_EENS_9allocatorIS3_EEE21__on_zero_shared_weakEv, symObjAddr: 0x13EE4, symBinAddr: 0x22ACC, symSize: 0x4 }
  - { offset: 0x12C8B8, size: 0x8, addend: 0x0, symName: __ZNSt3__120__shared_ptr_pointerIPN2JS19NativeNetworkingIOS20SpecSendRequestQueryENS_10shared_ptrIvE27__shared_ptr_default_deleteIvS3_EENS_9allocatorIS3_EEE21__on_zero_shared_weakEv, symObjAddr: 0x13EE4, symBinAddr: 0x22ACC, symSize: 0x4 }
  - { offset: 0x12C8D9, size: 0x8, addend: 0x0, symName: __ZNSt3__120__shared_ptr_pointerIPN2JS19NativeNetworkingIOS20SpecSendRequestQueryENS_10shared_ptrIvE27__shared_ptr_default_deleteIvS3_EENS_9allocatorIS3_EEE21__on_zero_shared_weakEv, symObjAddr: 0x13EE4, symBinAddr: 0x22ACC, symSize: 0x4 }
  - { offset: 0x12C90C, size: 0x8, addend: 0x0, symName: __ZNSt3__120__shared_ptr_pointerIPN2JS19NativeNetworkingIOS20SpecSendRequestQueryENS_10shared_ptrIvE27__shared_ptr_default_deleteIvS3_EENS_9allocatorIS3_EEE21__on_zero_shared_weakEv, symObjAddr: 0x13EE4, symBinAddr: 0x22ACC, symSize: 0x4 }
  - { offset: 0x12CB2A, size: 0x8, addend: 0x0, symName: __ZNSt3__120__shared_ptr_pointerIPN2JS32NativePushNotificationManagerIOS32SpecRequestPermissionsPermissionENS_10shared_ptrIvE27__shared_ptr_default_deleteIvS3_EENS_9allocatorIS3_EEED1Ev, symObjAddr: 0x13F90, symBinAddr: 0x22B3C, symSize: 0x4 }
  - { offset: 0x12CB4C, size: 0x8, addend: 0x0, symName: __ZNSt3__120__shared_ptr_pointerIPN2JS32NativePushNotificationManagerIOS32SpecRequestPermissionsPermissionENS_10shared_ptrIvE27__shared_ptr_default_deleteIvS3_EENS_9allocatorIS3_EEED1Ev, symObjAddr: 0x13F90, symBinAddr: 0x22B3C, symSize: 0x4 }
  - { offset: 0x12CB82, size: 0x8, addend: 0x0, symName: __ZNSt3__120__shared_ptr_pointerIPN2JS32NativePushNotificationManagerIOS32SpecRequestPermissionsPermissionENS_10shared_ptrIvE27__shared_ptr_default_deleteIvS3_EENS_9allocatorIS3_EEED0Ev, symObjAddr: 0x13F94, symBinAddr: 0x22B40, symSize: 0x14 }
  - { offset: 0x12CC46, size: 0x8, addend: 0x0, symName: __ZNSt3__120__shared_ptr_pointerIPN2JS32NativePushNotificationManagerIOS32SpecRequestPermissionsPermissionENS_10shared_ptrIvE27__shared_ptr_default_deleteIvS3_EENS_9allocatorIS3_EEE16__on_zero_sharedEv, symObjAddr: 0x13FA8, symBinAddr: 0x22B54, symSize: 0x38 }
  - { offset: 0x12CCC5, size: 0x8, addend: 0x0, symName: __ZNKSt3__120__shared_ptr_pointerIPN2JS32NativePushNotificationManagerIOS32SpecRequestPermissionsPermissionENS_10shared_ptrIvE27__shared_ptr_default_deleteIvS3_EENS_9allocatorIS3_EEE13__get_deleterERKSt9type_info, symObjAddr: 0x13FE0, symBinAddr: 0x22B8C, symSize: 0x38 }
  - { offset: 0x12CD54, size: 0x8, addend: 0x0, symName: __ZNSt3__120__shared_ptr_pointerIPN2JS32NativePushNotificationManagerIOS32SpecRequestPermissionsPermissionENS_10shared_ptrIvE27__shared_ptr_default_deleteIvS3_EENS_9allocatorIS3_EEE21__on_zero_shared_weakEv, symObjAddr: 0x14018, symBinAddr: 0x22BC4, symSize: 0x4 }
  - { offset: 0x12CD86, size: 0x8, addend: 0x0, symName: __ZNSt3__120__shared_ptr_pointerIPN2JS32NativePushNotificationManagerIOS32SpecRequestPermissionsPermissionENS_10shared_ptrIvE27__shared_ptr_default_deleteIvS3_EENS_9allocatorIS3_EEE21__on_zero_shared_weakEv, symObjAddr: 0x14018, symBinAddr: 0x22BC4, symSize: 0x4 }
  - { offset: 0x12CDA7, size: 0x8, addend: 0x0, symName: __ZNSt3__120__shared_ptr_pointerIPN2JS32NativePushNotificationManagerIOS32SpecRequestPermissionsPermissionENS_10shared_ptrIvE27__shared_ptr_default_deleteIvS3_EENS_9allocatorIS3_EEE21__on_zero_shared_weakEv, symObjAddr: 0x14018, symBinAddr: 0x22BC4, symSize: 0x4 }
  - { offset: 0x12CDDA, size: 0x8, addend: 0x0, symName: __ZNSt3__120__shared_ptr_pointerIPN2JS32NativePushNotificationManagerIOS32SpecRequestPermissionsPermissionENS_10shared_ptrIvE27__shared_ptr_default_deleteIvS3_EENS_9allocatorIS3_EEE21__on_zero_shared_weakEv, symObjAddr: 0x14018, symBinAddr: 0x22BC4, symSize: 0x4 }
  - { offset: 0x12CFF8, size: 0x8, addend: 0x0, symName: __ZNSt3__120__shared_ptr_pointerIPN2JS32NativePushNotificationManagerIOS12NotificationENS_10shared_ptrIvE27__shared_ptr_default_deleteIvS3_EENS_9allocatorIS3_EEED1Ev, symObjAddr: 0x140C4, symBinAddr: 0x22C34, symSize: 0x4 }
  - { offset: 0x12D01A, size: 0x8, addend: 0x0, symName: __ZNSt3__120__shared_ptr_pointerIPN2JS32NativePushNotificationManagerIOS12NotificationENS_10shared_ptrIvE27__shared_ptr_default_deleteIvS3_EENS_9allocatorIS3_EEED1Ev, symObjAddr: 0x140C4, symBinAddr: 0x22C34, symSize: 0x4 }
  - { offset: 0x12D050, size: 0x8, addend: 0x0, symName: __ZNSt3__120__shared_ptr_pointerIPN2JS32NativePushNotificationManagerIOS12NotificationENS_10shared_ptrIvE27__shared_ptr_default_deleteIvS3_EENS_9allocatorIS3_EEED0Ev, symObjAddr: 0x140C8, symBinAddr: 0x22C38, symSize: 0x14 }
  - { offset: 0x12D114, size: 0x8, addend: 0x0, symName: __ZNSt3__120__shared_ptr_pointerIPN2JS32NativePushNotificationManagerIOS12NotificationENS_10shared_ptrIvE27__shared_ptr_default_deleteIvS3_EENS_9allocatorIS3_EEE16__on_zero_sharedEv, symObjAddr: 0x140DC, symBinAddr: 0x22C4C, symSize: 0x38 }
  - { offset: 0x12D193, size: 0x8, addend: 0x0, symName: __ZNKSt3__120__shared_ptr_pointerIPN2JS32NativePushNotificationManagerIOS12NotificationENS_10shared_ptrIvE27__shared_ptr_default_deleteIvS3_EENS_9allocatorIS3_EEE13__get_deleterERKSt9type_info, symObjAddr: 0x14114, symBinAddr: 0x22C84, symSize: 0x38 }
  - { offset: 0x12D222, size: 0x8, addend: 0x0, symName: __ZNSt3__120__shared_ptr_pointerIPN2JS32NativePushNotificationManagerIOS12NotificationENS_10shared_ptrIvE27__shared_ptr_default_deleteIvS3_EENS_9allocatorIS3_EEE21__on_zero_shared_weakEv, symObjAddr: 0x1414C, symBinAddr: 0x22CBC, symSize: 0x4 }
  - { offset: 0x12D254, size: 0x8, addend: 0x0, symName: __ZNSt3__120__shared_ptr_pointerIPN2JS32NativePushNotificationManagerIOS12NotificationENS_10shared_ptrIvE27__shared_ptr_default_deleteIvS3_EENS_9allocatorIS3_EEE21__on_zero_shared_weakEv, symObjAddr: 0x1414C, symBinAddr: 0x22CBC, symSize: 0x4 }
  - { offset: 0x12D275, size: 0x8, addend: 0x0, symName: __ZNSt3__120__shared_ptr_pointerIPN2JS32NativePushNotificationManagerIOS12NotificationENS_10shared_ptrIvE27__shared_ptr_default_deleteIvS3_EENS_9allocatorIS3_EEE21__on_zero_shared_weakEv, symObjAddr: 0x1414C, symBinAddr: 0x22CBC, symSize: 0x4 }
  - { offset: 0x12D2A8, size: 0x8, addend: 0x0, symName: __ZNSt3__120__shared_ptr_pointerIPN2JS32NativePushNotificationManagerIOS12NotificationENS_10shared_ptrIvE27__shared_ptr_default_deleteIvS3_EENS_9allocatorIS3_EEE21__on_zero_shared_weakEv, symObjAddr: 0x1414C, symBinAddr: 0x22CBC, symSize: 0x4 }
  - { offset: 0x12D4C6, size: 0x8, addend: 0x0, symName: __ZNSt3__120__shared_ptr_pointerIPN2JS40NativeReactDevToolsRuntimeSettingsModule29PartialReloadAndProfileConfigENS_10shared_ptrIvE27__shared_ptr_default_deleteIvS3_EENS_9allocatorIS3_EEED1Ev, symObjAddr: 0x141F8, symBinAddr: 0x22D2C, symSize: 0x4 }
  - { offset: 0x12D4E8, size: 0x8, addend: 0x0, symName: __ZNSt3__120__shared_ptr_pointerIPN2JS40NativeReactDevToolsRuntimeSettingsModule29PartialReloadAndProfileConfigENS_10shared_ptrIvE27__shared_ptr_default_deleteIvS3_EENS_9allocatorIS3_EEED1Ev, symObjAddr: 0x141F8, symBinAddr: 0x22D2C, symSize: 0x4 }
  - { offset: 0x12D51E, size: 0x8, addend: 0x0, symName: __ZNSt3__120__shared_ptr_pointerIPN2JS40NativeReactDevToolsRuntimeSettingsModule29PartialReloadAndProfileConfigENS_10shared_ptrIvE27__shared_ptr_default_deleteIvS3_EENS_9allocatorIS3_EEED0Ev, symObjAddr: 0x141FC, symBinAddr: 0x22D30, symSize: 0x14 }
  - { offset: 0x12D5E2, size: 0x8, addend: 0x0, symName: __ZNSt3__120__shared_ptr_pointerIPN2JS40NativeReactDevToolsRuntimeSettingsModule29PartialReloadAndProfileConfigENS_10shared_ptrIvE27__shared_ptr_default_deleteIvS3_EENS_9allocatorIS3_EEE16__on_zero_sharedEv, symObjAddr: 0x14210, symBinAddr: 0x22D44, symSize: 0x38 }
