---
triple:          'arm64-apple-darwin'
binary-path:     '/Users/uk-aplatts/Development/InjuryIQ/ios/DerivedData/Build/Intermediates.noindex/ArchiveIntermediates/InjuryIQ/IntermediateBuildFilesPath/UninstalledProducts/iphoneos/React_FabricImage.framework/React_FabricImage'
relocations:
  - { offset: 0x33, size: 0x8, addend: 0x0, symName: _React_FabricImageVersionString, symObjAddr: 0x0, symBinAddr: 0x16540, symSize: 0x0 }
  - { offset: 0x67, size: 0x8, addend: 0x0, symName: _React_FabricImageVersionNumber, symObjAddr: 0x30, symBinAddr: 0x16570, symSize: 0x0 }
  - { offset: 0x2BF, size: 0x8, addend: 0x0, symName: __ZN8facebook5react15ImageManagerKeyE, symObjAddr: 0x57C8, symBinAddr: 0x16598, symSize: 0x0 }
  - { offset: 0x6899, size: 0x8, addend: 0x0, symName: __ZN8facebook5react16getManagerByNameINS0_12ImageManagerEEENSt3__110shared_ptrIT_EERNS4_IKNS0_16ContextContainerEEEPKc, symObjAddr: 0x130, symBinAddr: 0x4130, symSize: 0xFC }
  - { offset: 0x3F56B, size: 0x8, addend: 0x0, symName: __ZNSt3__115allocate_sharedB8ne200100IN8facebook5react12ImageManagerENS_9allocatorIS3_EEJRNS_10shared_ptrIKNS2_16ContextContainerEEEELi0EEENS6_IT_EERKT0_DpOT1_, symObjAddr: 0x2884, symBinAddr: 0x6774, symSize: 0x58 }
  - { offset: 0x3FA31, size: 0x8, addend: 0x0, symName: __ZNSt3__115allocate_sharedB8ne200100IN8facebook5react15ImageShadowNodeENS_9allocatorIS3_EEJRKNS2_18ShadowNodeFragmentERKNS_10shared_ptrIKNS2_16ShadowNodeFamilyEEENS2_16ShadowNodeTraitsEELi0EEENS9_IT_EERKT0_DpOT1_, symObjAddr: 0x2970, symBinAddr: 0x6860, symSize: 0x70 }
  - { offset: 0x3FD3F, size: 0x8, addend: 0x0, symName: __ZNSt3__115allocate_sharedB8ne200100IN8facebook5react15ImageShadowNodeENS_9allocatorIS3_EEJRKNS2_10ShadowNodeERKNS2_18ShadowNodeFragmentEELi0EEENS_10shared_ptrIT_EERKT0_DpOT1_, symObjAddr: 0x2FBC, symBinAddr: 0x6C9C, symSize: 0x60 }
  - { offset: 0x40688, size: 0x8, addend: 0x0, symName: __ZNSt3__115allocate_sharedB8ne200100IN8facebook5react13ConcreteStateINS2_10ImageStateEEENS_9allocatorIS5_EEJNS_10shared_ptrIKS4_EERKNS8_IKNS2_16ShadowNodeFamilyEEEELi0EEENS8_IT_EERKT0_DpOT1_, symObjAddr: 0x3A24, symBinAddr: 0x7560, symSize: 0x60 }
  - { offset: 0x40B91, size: 0x8, addend: 0x0, symName: __ZNSt3__115allocate_sharedB8ne200100IKN8facebook5react13ConcreteStateINS2_10ImageStateEEENS_9allocatorIS5_EEJNS_10shared_ptrIKS4_EERKNS2_5StateEELi0EEENS9_IT_EERKT0_DpOT1_, symObjAddr: 0x47D0, symBinAddr: 0x8154, symSize: 0x60 }
  - { offset: 0x4150C, size: 0x8, addend: 0x0, symName: __ZNSt3__115allocate_sharedB8ne200100IN8facebook5react11EventTargetENS_9allocatorIS3_EEJRKNS_10shared_ptrIKNS2_14InstanceHandleEEERKiELi0EEENS6_IT_EERKT0_DpOT1_, symObjAddr: 0x4E4C, symBinAddr: 0x8720, symSize: 0x60 }
  - { offset: 0x417A4, size: 0x8, addend: 0x0, symName: __ZNSt3__115allocate_sharedB8ne200100IKN8facebook5react17ImageEventEmitterENS_9allocatorIS3_EEJNS_10shared_ptrINS2_11EventTargetEEERKNS_8weak_ptrIKNS2_15EventDispatcherEEEELi0EEENS7_IT_EERKT0_DpOT1_, symObjAddr: 0x49E4, symBinAddr: 0x8368, symSize: 0x60 }
  - { offset: 0x41A3C, size: 0x8, addend: 0x0, symName: __ZNSt3__115allocate_sharedB8ne200100IN8facebook5react16ShadowNodeFamilyENS_9allocatorIS3_EEJRKNS2_24ShadowNodeFamilyFragmentERNS_10shared_ptrIKNS2_17ImageEventEmitterEEERKNS_8weak_ptrIKNS2_15EventDispatcherEEERKNS2_27ConcreteComponentDescriptorINS2_15ImageShadowNodeEEEELi0EEENS9_IT_EERKT0_DpOT1_, symObjAddr: 0x50B0, symBinAddr: 0x88D4, symSize: 0x78 }
  - { offset: 0x42274, size: 0x8, addend: 0x0, symName: __ZNSt3__112__destroy_atB8ne200100IN8facebook5react19AccessibilityActionELi0EEEvPT_, symObjAddr: 0x1A94, symBinAddr: 0x59DC, symSize: 0x50 }
  - { offset: 0x42833, size: 0x8, addend: 0x0, symName: __ZNSt3__112__destroy_atB8ne200100INS_4pairINS_12basic_stringIcNS_11char_traitsIcEENS_9allocatorIcEEEES7_EELi0EEEvPT_, symObjAddr: 0x1C7C, symBinAddr: 0x5B6C, symSize: 0x44 }
  - { offset: 0x42B15, size: 0x8, addend: 0x0, symName: __ZNSt3__112__destroy_atB8ne200100IN8facebook5react11ImageSourceELi0EEEvPT_, symObjAddr: 0x1D30, symBinAddr: 0x5C20, symSize: 0x74 }
  - { offset: 0x43155, size: 0x8, addend: 0x0, symName: __ZNSt3__112__destroy_atB8ne200100INS_4pairIKNS_12basic_stringIcNS_11char_traitsIcEENS_9allocatorIcEEEENS_10shared_ptrIvEEEELi0EEEvPT_, symObjAddr: 0x1F2C, symBinAddr: 0x5E1C, symSize: 0x3C }
  - { offset: 0x43856, size: 0x8, addend: 0x0, symName: __ZNSt3__120__throw_length_errorB8ne200100EPKc, symObjAddr: 0x27E8, symBinAddr: 0x66D8, symSize: 0x50 }
  - { offset: 0x441FD, size: 0x8, addend: 0x0, symName: __ZNSt3__112__destroy_atB8ne200100IN8facebook5react15ImageShadowNodeELi0EEEvPT_, symObjAddr: 0x2EEC, symBinAddr: 0x6C24, symSize: 0x78 }
  - { offset: 0x4483E, size: 0x8, addend: 0x0, symName: __ZNSt3__115allocate_sharedB8ne200100IKN8facebook5react10ImagePropsENS_9allocatorIS3_EEJELi0EEENS_10shared_ptrIT_EERKT0_DpOT1_, symObjAddr: 0x31EC, symBinAddr: 0x6E74, symSize: 0x48 }
  - { offset: 0x44AF1, size: 0x8, addend: 0x0, symName: __ZNSt3__115allocate_sharedB8ne200100IN8facebook5react10ImagePropsENS_9allocatorIS3_EEJRKNS2_18PropsParserContextERKS3_RKNS2_8RawPropsEELi0EEENS_10shared_ptrIT_EERKT0_DpOT1_, symObjAddr: 0x3414, symBinAddr: 0x7044, symSize: 0x70 }
  - { offset: 0x451EC, size: 0x8, addend: 0x0, symName: __ZNSt3__112construct_atB8ne200100IN8facebook5react10ImagePropsEJEPS3_EEPT_S6_DpOT0_, symObjAddr: 0x32CC, symBinAddr: 0x6F54, symSize: 0xF0 }
  - { offset: 0x45838, size: 0x8, addend: 0x0, symName: __ZNSt3__115allocate_sharedB8ne200100IN8facebook5react14SharedFunctionIJEE4PairENS_9allocatorIS5_EEJNS_8functionIFvvEEEELi0EEENS_10shared_ptrIT_EERKT0_DpOT1_, symObjAddr: 0x4200, symBinAddr: 0x7D3C, symSize: 0x58 }
  - { offset: 0x45F1C, size: 0x8, addend: 0x0, symName: __ZNSt3__112construct_atB8ne200100IN8facebook5react13ConcreteStateINS2_10ImageStateEEEJNS_10shared_ptrIKS4_EERKNS6_IKNS2_16ShadowNodeFamilyEEEEPS5_EEPT_SG_DpOT0_, symObjAddr: 0x3B18, symBinAddr: 0x7654, symSize: 0xC8 }
  - { offset: 0x46214, size: 0x8, addend: 0x0, symName: __ZNSt3__112__destroy_atB8ne200100IN8facebook5react10ImageStateELi0EEEvPT_, symObjAddr: 0x3D50, symBinAddr: 0x788C, symSize: 0x7C }
  - { offset: 0x46962, size: 0x8, addend: 0x0, symName: __ZNSt3__135__uninitialized_allocator_copy_implB8ne200100INS_9allocatorINS_4pairINS_12basic_stringIcNS_11char_traitsIcEENS1_IcEEEES7_EEEEPS8_SA_SA_EET2_RT_T0_T1_SB_, symObjAddr: 0x40EC, symBinAddr: 0x7C28, symSize: 0x84 }
  - { offset: 0x46B52, size: 0x8, addend: 0x0, symName: __ZNSt3__119__allocate_at_leastB8ne200100INS_9allocatorINS_4pairINS_12basic_stringIcNS_11char_traitsIcEENS1_IcEEEES7_EEEEEENS_19__allocation_resultINS_16allocator_traitsIT_E7pointerEEERSC_m, symObjAddr: 0x40A8, symBinAddr: 0x7BE4, symSize: 0x44 }
  - { offset: 0x46BFA, size: 0x8, addend: 0x0, symName: __ZNSt3__135__uninitialized_allocator_copy_implB8ne200100INS_9allocatorINS_4pairINS_12basic_stringIcNS_11char_traitsIcEENS1_IcEEEES7_EEEEPS8_SA_SA_EET2_RT_T0_T1_SB_, symObjAddr: 0x40EC, symBinAddr: 0x7C28, symSize: 0x84 }
  - { offset: 0x471DB, size: 0x8, addend: 0x0, symName: __ZNSt3__112__destroy_atB8ne200100IN8facebook5react14SharedFunctionIJEE4PairELi0EEEvPT_, symObjAddr: 0x43B0, symBinAddr: 0x7EEC, symSize: 0x64 }
  - { offset: 0x47B80, size: 0x8, addend: 0x0, symName: __ZNSt3__112construct_atB8ne200100IN8facebook5react13ConcreteStateINS2_10ImageStateEEEJNS_10shared_ptrIKS4_EERKNS2_5StateEEPS5_EEPT_SE_DpOT0_, symObjAddr: 0x48C4, symBinAddr: 0x8248, symSize: 0x88 }
  - { offset: 0x4817A, size: 0x8, addend: 0x0, symName: __ZNSt3__112construct_atB8ne200100IN8facebook5react17ImageEventEmitterEJNS_10shared_ptrINS2_11EventTargetEEERKNS_8weak_ptrIKNS2_15EventDispatcherEEEEPS3_EEPT_SF_DpOT0_, symObjAddr: 0x4AD8, symBinAddr: 0x845C, symSize: 0x140 }
  - { offset: 0x49023, size: 0x8, addend: 0x0, symName: __ZNSt3__112construct_atB8ne200100IN8facebook5react11EventTargetEJRKNS_10shared_ptrIKNS2_14InstanceHandleEEERKiEPS3_EEPT_SE_DpOT0_, symObjAddr: 0x4F5C, symBinAddr: 0x8830, symSize: 0xA4 }
  - { offset: 0x4968A, size: 0x8, addend: 0x0, symName: __ZNSt3__112construct_atB8ne200100IN8facebook5react16ShadowNodeFamilyEJRKNS2_24ShadowNodeFamilyFragmentERNS_10shared_ptrIKNS2_17ImageEventEmitterEEERKNS_8weak_ptrIKNS2_15EventDispatcherEEERKNS2_27ConcreteComponentDescriptorINS2_15ImageShadowNodeEEEEPS3_EEPT_SP_DpOT0_, symObjAddr: 0x51B8, symBinAddr: 0x89DC, symSize: 0xDC }
  - { offset: 0x4B39D, size: 0x8, addend: 0x0, symName: __ZSt28__throw_bad_array_new_lengthB8ne200100v, symObjAddr: 0x285C, symBinAddr: 0x674C, symSize: 0x28 }
  - { offset: 0x4E6DD, size: 0x8, addend: 0x0, symName: __ZN5folly6detail16throw_exception_INS_9TypeErrorEJPKcNS_7dynamic4TypeEEEEvDpT0_, symObjAddr: 0x351C, symBinAddr: 0x15CB4, symSize: 0x68 }
  - { offset: 0x4F758, size: 0x8, addend: 0x0, symName: __ZN5folly15throw_exceptionINS_9TypeErrorEEEvOT_, symObjAddr: 0x3584, symBinAddr: 0x15D1C, symSize: 0x34 }
  - { offset: 0x53CD8, size: 0x8, addend: 0x0, symName: __ZN8facebook5react18ConcreteShadowNodeIXadL_ZNS0_18ImageComponentNameEEENS0_24YogaLayoutableShadowNodeENS0_10ImagePropsENS0_17ImageEventEmitterENS0_10ImageStateEE18defaultSharedPropsEv, symObjAddr: 0x30F4, symBinAddr: 0x6D7C, symSize: 0x9C }
  - { offset: 0x53CF8, size: 0x8, addend: 0x0, symName: __ZZN8facebook5react18ConcreteShadowNodeIXadL_ZNS0_18ImageComponentNameEEENS0_24YogaLayoutableShadowNodeENS0_10ImagePropsENS0_17ImageEventEmitterENS0_10ImageStateEE18defaultSharedPropsEvE18defaultSharedProps, symObjAddr: 0x6B90, symBinAddr: 0x200E0, symSize: 0x0 }
  - { offset: 0x546C2, size: 0x8, addend: 0x0, symName: __ZN8facebook5react24ImageComponentDescriptorC2ERKNS0_29ComponentDescriptorParametersE, symObjAddr: 0x0, symBinAddr: 0x4000, symSize: 0xE0 }
  - { offset: 0x54BC3, size: 0x8, addend: 0x0, symName: __ZN8facebook5react14RawPropsParser7prepareINS0_10ImagePropsEEEvv, symObjAddr: 0xC94, symBinAddr: 0x4BDC, symSize: 0x2A8 }
  - { offset: 0x55424, size: 0x8, addend: 0x0, symName: __ZN8facebook5react19ComponentDescriptorD2Ev, symObjAddr: 0xB08, symBinAddr: 0x4B08, symSize: 0x7C }
  - { offset: 0x558CA, size: 0x8, addend: 0x0, symName: __ZN8facebook5react14RawPropsParserD1Ev, symObjAddr: 0xE0, symBinAddr: 0x40E0, symSize: 0x50 }
  - { offset: 0x560CA, size: 0x8, addend: 0x0, symName: __ZNSt3__112basic_stringIcNS_11char_traitsIcEENS_9allocatorIcEEEC2B8ne200100ILi0EEEPKc, symObjAddr: 0x2730, symBinAddr: 0x6620, symSize: 0xA4 }
  - { offset: 0x56329, size: 0x8, addend: 0x0, symName: __ZNSt3__112basic_stringIcNS_11char_traitsIcEENS_9allocatorIcEEE20__throw_length_errorB8ne200100Ev, symObjAddr: 0x27D4, symBinAddr: 0x66C4, symSize: 0x14 }
  - { offset: 0x5633B, size: 0x8, addend: 0x0, symName: __ZNK8facebook5react16ContextContainer4findINSt3__110shared_ptrINS0_12ImageManagerEEEEENS3_8optionalIT_EERKNS3_12basic_stringIcNS3_11char_traitsIcEENS3_9allocatorIcEEEE, symObjAddr: 0x203C, symBinAddr: 0x5F2C, symSize: 0xAC }
  - { offset: 0x56788, size: 0x8, addend: 0x0, symName: __ZN8facebook5react24ImageComponentDescriptorC1ERKNS0_29ComponentDescriptorParametersE, symObjAddr: 0x22C, symBinAddr: 0x422C, symSize: 0x4 }
  - { offset: 0x567C4, size: 0x8, addend: 0x0, symName: __ZN8facebook5react24ImageComponentDescriptorC1ERKNS0_29ComponentDescriptorParametersE, symObjAddr: 0x22C, symBinAddr: 0x422C, symSize: 0x4 }
  - { offset: 0x567DE, size: 0x8, addend: 0x0, symName: __ZNK8facebook5react24ImageComponentDescriptor5adoptERNS0_10ShadowNodeE, symObjAddr: 0x230, symBinAddr: 0x4230, symSize: 0x10 }
  - { offset: 0x56826, size: 0x8, addend: 0x0, symName: __ZNK8facebook5react27ConcreteComponentDescriptorINS0_15ImageShadowNodeEE5adoptERNS0_10ShadowNodeE, symObjAddr: 0x240, symBinAddr: 0x4240, symSize: 0x4 }
  - { offset: 0x5687B, size: 0x8, addend: 0x0, symName: __ZN8facebook5react24ImageComponentDescriptorD1Ev, symObjAddr: 0x244, symBinAddr: 0x4244, symSize: 0x28 }
  - { offset: 0x56979, size: 0x8, addend: 0x0, symName: __ZN8facebook5react24ImageComponentDescriptorD0Ev, symObjAddr: 0x26C, symBinAddr: 0x426C, symSize: 0x2C }
  - { offset: 0x56A31, size: 0x8, addend: 0x0, symName: __ZNK8facebook5react27ConcreteComponentDescriptorINS0_15ImageShadowNodeEE18getComponentHandleEv, symObjAddr: 0x298, symBinAddr: 0x4298, symSize: 0xC }
  - { offset: 0x56A58, size: 0x8, addend: 0x0, symName: __ZNK8facebook5react27ConcreteComponentDescriptorINS0_15ImageShadowNodeEE16getComponentNameEv, symObjAddr: 0x2A4, symBinAddr: 0x42A4, symSize: 0xC }
  - { offset: 0x56A7F, size: 0x8, addend: 0x0, symName: __ZNK8facebook5react27ConcreteComponentDescriptorINS0_15ImageShadowNodeEE9getTraitsEv, symObjAddr: 0x2B0, symBinAddr: 0x42B0, symSize: 0x8 }
  - { offset: 0x56B8B, size: 0x8, addend: 0x0, symName: __ZNK8facebook5react27ConcreteComponentDescriptorINS0_15ImageShadowNodeEE16createShadowNodeERKNS0_18ShadowNodeFragmentERKNSt3__110shared_ptrIKNS0_16ShadowNodeFamilyEEE, symObjAddr: 0x2B8, symBinAddr: 0x42B8, symSize: 0x90 }
  - { offset: 0x56E0F, size: 0x8, addend: 0x0, symName: __ZNK8facebook5react27ConcreteComponentDescriptorINS0_15ImageShadowNodeEE15cloneShadowNodeERKNS0_10ShadowNodeERKNS0_18ShadowNodeFragmentE, symObjAddr: 0x348, symBinAddr: 0x4348, symSize: 0xFC }
  - { offset: 0x5715B, size: 0x8, addend: 0x0, symName: __ZNK8facebook5react27ConcreteComponentDescriptorINS0_15ImageShadowNodeEE11appendChildERKNSt3__110shared_ptrIKNS0_10ShadowNodeEEESA_, symObjAddr: 0x444, symBinAddr: 0x4444, symSize: 0xC }
  - { offset: 0x571B2, size: 0x8, addend: 0x0, symName: __ZNK8facebook5react27ConcreteComponentDescriptorINS0_15ImageShadowNodeEE11appendChildERKNSt3__110shared_ptrIKNS0_10ShadowNodeEEESA_, symObjAddr: 0x444, symBinAddr: 0x4444, symSize: 0xC }
  - { offset: 0x57B1C, size: 0x8, addend: 0x0, symName: __ZNK8facebook5react27ConcreteComponentDescriptorINS0_15ImageShadowNodeEE10clonePropsERKNS0_18PropsParserContextERKNSt3__110shared_ptrIKNS0_5PropsEEENS0_8RawPropsE, symObjAddr: 0x450, symBinAddr: 0x4450, symSize: 0x21C }
  - { offset: 0x5862E, size: 0x8, addend: 0x0, symName: __ZN8facebook5react18ConcreteShadowNodeIXadL_ZNS0_18ImageComponentNameEEENS0_24YogaLayoutableShadowNodeENS0_10ImagePropsENS0_17ImageEventEmitterENS0_10ImageStateEE5PropsERKNS0_18PropsParserContextERKNS0_8RawPropsERKNSt3__110shared_ptrIKNS0_5PropsEEE, symObjAddr: 0x3190, symBinAddr: 0x6E18, symSize: 0x58 }
  - { offset: 0x58723, size: 0x8, addend: 0x0, symName: __ZNSt3__116__variant_detail6__dtorINS0_8__traitsIJN5folly7dynamicENS_4pairIPN8facebook3jsi7RuntimeENS7_5ValueEEEEEELNS0_6_TraitE1EE9__destroyB8ne200100Ev, symObjAddr: 0x1FD8, symBinAddr: 0x5EC8, symSize: 0x54 }
  - { offset: 0x58E97, size: 0x8, addend: 0x0, symName: __ZNK8facebook5react27ConcreteComponentDescriptorINS0_15ImageShadowNodeEE18createInitialStateERKNSt3__110shared_ptrIKNS0_5PropsEEERKNS5_IKNS0_16ShadowNodeFamilyEEE, symObjAddr: 0x66C, symBinAddr: 0x466C, symSize: 0x220 }
  - { offset: 0x599EE, size: 0x8, addend: 0x0, symName: __ZN8facebook5react15ImageShadowNode16initialStateDataERKNSt3__110shared_ptrIKNS0_5PropsEEERKNS3_IKNS0_16ShadowNodeFamilyEEERKNS0_19ComponentDescriptorE, symObjAddr: 0x364C, symBinAddr: 0x7188, symSize: 0x358 }
  - { offset: 0x5ADBD, size: 0x8, addend: 0x0, symName: __ZNSt3__16vectorINS_4pairINS_12basic_stringIcNS_11char_traitsIcEENS_9allocatorIcEEEES7_EENS5_IS8_EEE16__destroy_vectorclB8ne200100Ev, symObjAddr: 0x1C0C, symBinAddr: 0x5AFC, symSize: 0x70 }
  - { offset: 0x5AF4F, size: 0x8, addend: 0x0, symName: __ZN8facebook5react10ImageStateD1Ev, symObjAddr: 0x39A4, symBinAddr: 0x74E0, symSize: 0x80 }
  - { offset: 0x5B623, size: 0x8, addend: 0x0, symName: __ZNK8facebook5react27ConcreteComponentDescriptorINS0_15ImageShadowNodeEE11createStateERKNS0_16ShadowNodeFamilyERKNSt3__110shared_ptrIKvEE, symObjAddr: 0x88C, symBinAddr: 0x488C, symSize: 0x104 }
  - { offset: 0x5BC7A, size: 0x8, addend: 0x0, symName: __ZNK8facebook5react27ConcreteComponentDescriptorINS0_15ImageShadowNodeEE12createFamilyERKNS0_24ShadowNodeFamilyFragmentE, symObjAddr: 0x990, symBinAddr: 0x4990, symSize: 0x168 }
  - { offset: 0x5C24B, size: 0x8, addend: 0x0, symName: __ZNSt3__110shared_ptrIKvED2B8ne200100Ev, symObjAddr: 0xB8C, symBinAddr: 0x4B84, symSize: 0x58 }
  - { offset: 0x5C32F, size: 0x8, addend: 0x0, symName: __ZN8facebook5react19ComponentDescriptorD1Ev, symObjAddr: 0xB84, symBinAddr: 0x15CAC, symSize: 0x4 }
  - { offset: 0x5C358, size: 0x8, addend: 0x0, symName: __ZN8facebook5react19ComponentDescriptorD0Ev, symObjAddr: 0xB88, symBinAddr: 0x15CB0, symSize: 0x4 }
  - { offset: 0x5C9B6, size: 0x8, addend: 0x0, symName: __ZN8facebook5react13BaseViewPropsC2Ev, symObjAddr: 0xF60, symBinAddr: 0x4EA8, symSize: 0x258 }
  - { offset: 0x5ECD5, size: 0x8, addend: 0x0, symName: __ZN8facebook5react10ImagePropsD2Ev, symObjAddr: 0x1DA4, symBinAddr: 0x5C94, symSize: 0x114 }
  - { offset: 0x5FAD1, size: 0x8, addend: 0x0, symName: __ZNSt3__112__hash_tableINS_17__hash_value_typeINS_12basic_stringIcNS_11char_traitsIcEENS_9allocatorIcEEEENS_10shared_ptrIvEEEENS_22__unordered_map_hasherIS7_SA_NS_4hashIS7_EENS_8equal_toIS7_EELb1EEENS_21__unordered_map_equalIS7_SA_SF_SD_Lb1EEENS5_ISA_EEED2Ev, symObjAddr: 0x1EB8, symBinAddr: 0x5DA8, symSize: 0x38 }
  - { offset: 0x5FC2A, size: 0x8, addend: 0x0, symName: __ZNSt3__16vectorIN8facebook5react8RawValueENS_9allocatorIS3_EEE16__destroy_vectorclB8ne200100Ev, symObjAddr: 0x1F68, symBinAddr: 0x5E58, symSize: 0x70 }
  - { offset: 0x5FEFC, size: 0x8, addend: 0x0, symName: __ZN8facebook5react27ConcreteComponentDescriptorINS0_15ImageShadowNodeEED1Ev, symObjAddr: 0xF3C, symBinAddr: 0x4E84, symSize: 0x4 }
  - { offset: 0x5FF1E, size: 0x8, addend: 0x0, symName: __ZN8facebook5react27ConcreteComponentDescriptorINS0_15ImageShadowNodeEED1Ev, symObjAddr: 0xF3C, symBinAddr: 0x4E84, symSize: 0x4 }
  - { offset: 0x5FF3B, size: 0x8, addend: 0x0, symName: __ZN8facebook5react27ConcreteComponentDescriptorINS0_15ImageShadowNodeEED1Ev, symObjAddr: 0xF3C, symBinAddr: 0x4E84, symSize: 0x4 }
  - { offset: 0x5FF6A, size: 0x8, addend: 0x0, symName: __ZN8facebook5react27ConcreteComponentDescriptorINS0_15ImageShadowNodeEED0Ev, symObjAddr: 0xF40, symBinAddr: 0x4E88, symSize: 0x14 }
  - { offset: 0x5FFE2, size: 0x8, addend: 0x0, symName: __ZN8facebook5react10ImagePropsD1Ev, symObjAddr: 0xF54, symBinAddr: 0x4E9C, symSize: 0xC }
  - { offset: 0x6083A, size: 0x8, addend: 0x0, symName: __ZN8facebook5react17YogaStylablePropsC2Ev, symObjAddr: 0x1484, symBinAddr: 0x53CC, symSize: 0xF0 }
  - { offset: 0x60871, size: 0x8, addend: 0x0, symName: __ZN8facebook5react17YogaStylablePropsC2Ev, symObjAddr: 0x1484, symBinAddr: 0x53CC, symSize: 0xF0 }
  - { offset: 0x61215, size: 0x8, addend: 0x0, symName: __ZN8facebook5react11ImageSourceD1Ev, symObjAddr: 0x11B8, symBinAddr: 0x5100, symSize: 0x78 }
  - { offset: 0x61C1D, size: 0x8, addend: 0x0, symName: __ZN8facebook5react13BaseViewPropsD2Ev, symObjAddr: 0x1230, symBinAddr: 0x5178, symSize: 0xD0 }
  - { offset: 0x623BA, size: 0x8, addend: 0x0, symName: __ZNSt3__16vectorINS_7variantIJN8facebook5react14LinearGradientENS3_14RadialGradientEEEENS_9allocatorIS6_EEE16__destroy_vectorclB8ne200100Ev, symObjAddr: 0x1648, symBinAddr: 0x5590, symSize: 0x70 }
  - { offset: 0x62654, size: 0x8, addend: 0x0, symName: __ZNSt3__16vectorIN8facebook5react14FilterFunctionENS_9allocatorIS3_EEE16__destroy_vectorclB8ne200100Ev, symObjAddr: 0x17CC, symBinAddr: 0x5714, symSize: 0x74 }
  - { offset: 0x6293E, size: 0x8, addend: 0x0, symName: __ZNSt3__16vectorIN8facebook5react9BoxShadowENS_9allocatorIS3_EEE16__destroy_vectorclB8ne200100Ev, symObjAddr: 0x18A0, symBinAddr: 0x57E8, symSize: 0x74 }
  - { offset: 0x62BBB, size: 0x8, addend: 0x0, symName: __ZN8facebook5react22CascadedRectangleEdgesINS0_11SharedColorEED2Ev, symObjAddr: 0x1914, symBinAddr: 0x585C, symSize: 0x110 }
  - { offset: 0x63B19, size: 0x8, addend: 0x0, symName: __ZN8facebook5react18AccessibilityPropsD2Ev, symObjAddr: 0x1574, symBinAddr: 0x54BC, symSize: 0xD4 }
  - { offset: 0x645CB, size: 0x8, addend: 0x0, symName: __ZNKSt3__114default_deleteIN8facebook4yoga16SmallValueBufferILm4EE8OverflowEEclB8ne200100EPS5_, symObjAddr: 0x1B70, symBinAddr: 0x5AB8, symSize: 0x44 }
  - { offset: 0x64827, size: 0x8, addend: 0x0, symName: __ZN8facebook5react13BaseViewPropsD1Ev, symObjAddr: 0x1300, symBinAddr: 0x5248, symSize: 0xC }
  - { offset: 0x6487F, size: 0x8, addend: 0x0, symName: __ZN8facebook5react13BaseViewPropsD0Ev, symObjAddr: 0x130C, symBinAddr: 0x5254, symSize: 0x1C }
  - { offset: 0x648DB, size: 0x8, addend: 0x0, symName: __ZN8facebook5react17YogaStylablePropsD1Ev, symObjAddr: 0x1328, symBinAddr: 0x5270, symSize: 0x60 }
  - { offset: 0x64B84, size: 0x8, addend: 0x0, symName: __ZN8facebook5react17YogaStylablePropsD0Ev, symObjAddr: 0x1388, symBinAddr: 0x52D0, symSize: 0x60 }
  - { offset: 0x64E38, size: 0x8, addend: 0x0, symName: __ZN8facebook5react5PropsD1Ev, symObjAddr: 0x13E8, symBinAddr: 0x5330, symSize: 0x40 }
  - { offset: 0x64F95, size: 0x8, addend: 0x0, symName: __ZN8facebook5react5PropsD0Ev, symObjAddr: 0x1428, symBinAddr: 0x5370, symSize: 0x40 }
  - { offset: 0x650FD, size: 0x8, addend: 0x0, symName: __ZN8facebook5react10ImagePropsD0Ev, symObjAddr: 0x1468, symBinAddr: 0x53B0, symSize: 0x1C }
  - { offset: 0x6559C, size: 0x8, addend: 0x0, symName: __ZNSt3__16vectorIN8facebook5react19AccessibilityActionENS_9allocatorIS3_EEE16__destroy_vectorclB8ne200100Ev, symObjAddr: 0x1A24, symBinAddr: 0x596C, symSize: 0x70 }
  - { offset: 0x656DB, size: 0x8, addend: 0x0, symName: __ZNSt3__16vectorINS_12basic_stringIcNS_11char_traitsIcEENS_9allocatorIcEEEENS4_IS6_EEE16__destroy_vectorclB8ne200100Ev, symObjAddr: 0x1AE4, symBinAddr: 0x5A2C, symSize: 0x40 }
  - { offset: 0x659F3, size: 0x8, addend: 0x0, symName: __ZNSt3__116__variant_detail6__dtorINS0_8__traitsIJN8facebook5react14LinearGradientENS4_14RadialGradientEEEELNS0_6_TraitE1EE9__destroyB8ne200100Ev, symObjAddr: 0x16B8, symBinAddr: 0x5600, symSize: 0x54 }
  - { offset: 0x65D9D, size: 0x8, addend: 0x0, symName: __ZNSt3__116__variant_detail12__visitation6__base12__dispatcherIJLm0EEE10__dispatchB8ne200100IOZNS0_6__dtorINS0_8__traitsIJN8facebook5react14LinearGradientENS9_14RadialGradientEEEELNS0_6_TraitE1EE9__destroyB8ne200100EvEUlRT_E_JRNS0_6__baseILSD_1EJSA_SB_EEEEEEDcSF_DpT0_, symObjAddr: 0x170C, symBinAddr: 0x5654, symSize: 0x28 }
  - { offset: 0x65F2E, size: 0x8, addend: 0x0, symName: __ZNSt3__16vectorIN8facebook5react9ColorStopENS_9allocatorIS3_EEE16__destroy_vectorclB8ne200100Ev, symObjAddr: 0x175C, symBinAddr: 0x56A4, symSize: 0x70 }
  - { offset: 0x66208, size: 0x8, addend: 0x0, symName: __ZNSt3__116__variant_detail12__visitation6__base12__dispatcherIJLm1EEE10__dispatchB8ne200100IOZNS0_6__dtorINS0_8__traitsIJN8facebook5react14LinearGradientENS9_14RadialGradientEEEELNS0_6_TraitE1EE9__destroyB8ne200100EvEUlRT_E_JRNS0_6__baseILSD_1EJSA_SB_EEEEEEDcSF_DpT0_, symObjAddr: 0x1734, symBinAddr: 0x567C, symSize: 0x28 }
  - { offset: 0x6678D, size: 0x8, addend: 0x0, symName: __ZNSt3__116__variant_detail6__dtorINS0_8__traitsIJdN8facebook5react16DropShadowParamsEEEELNS0_6_TraitE1EE9__destroyB8ne200100Ev, symObjAddr: 0x1840, symBinAddr: 0x5788, symSize: 0x54 }
  - { offset: 0x669BF, size: 0x8, addend: 0x0, symName: __ZNSt3__116__variant_detail12__visitation6__base12__dispatcherIJLm0EEE10__dispatchB8ne200100IOZNS0_6__dtorINS0_8__traitsIJdN8facebook5react16DropShadowParamsEEEELNS0_6_TraitE1EE9__destroyB8ne200100EvEUlRT_E_JRNS0_6__baseILSC_1EJdSA_EEEEEEDcSE_DpT0_, symObjAddr: 0x1894, symBinAddr: 0x57DC, symSize: 0x4 }
  - { offset: 0x66AD9, size: 0x8, addend: 0x0, symName: __ZNSt3__116__variant_detail12__visitation6__base12__dispatcherIJLm1EEE10__dispatchB8ne200100IOZNS0_6__dtorINS0_8__traitsIJdN8facebook5react16DropShadowParamsEEEELNS0_6_TraitE1EE9__destroyB8ne200100EvEUlRT_E_JRNS0_6__baseILSC_1EJdSA_EEEEEEDcSE_DpT0_, symObjAddr: 0x1898, symBinAddr: 0x57E0, symSize: 0x8 }
  - { offset: 0x66B10, size: 0x8, addend: 0x0, symName: __ZNSt3__116__variant_detail12__visitation6__base12__dispatcherIJLm1EEE10__dispatchB8ne200100IOZNS0_6__dtorINS0_8__traitsIJdN8facebook5react16DropShadowParamsEEEELNS0_6_TraitE1EE9__destroyB8ne200100EvEUlRT_E_JRNS0_6__baseILSC_1EJdSA_EEEEEEDcSE_DpT0_, symObjAddr: 0x1898, symBinAddr: 0x57E0, symSize: 0x8 }
  - { offset: 0x66B35, size: 0x8, addend: 0x0, symName: __ZNSt3__116__variant_detail12__visitation6__base12__dispatcherIJLm1EEE10__dispatchB8ne200100IOZNS0_6__dtorINS0_8__traitsIJdN8facebook5react16DropShadowParamsEEEELNS0_6_TraitE1EE9__destroyB8ne200100EvEUlRT_E_JRNS0_6__baseILSC_1EJdSA_EEEEEEDcSE_DpT0_, symObjAddr: 0x1898, symBinAddr: 0x57E0, symSize: 0x8 }
  - { offset: 0x66B59, size: 0x8, addend: 0x0, symName: __ZNSt3__116__variant_detail12__visitation6__base12__dispatcherIJLm1EEE10__dispatchB8ne200100IOZNS0_6__dtorINS0_8__traitsIJdN8facebook5react16DropShadowParamsEEEELNS0_6_TraitE1EE9__destroyB8ne200100EvEUlRT_E_JRNS0_6__baseILSC_1EJdSA_EEEEEEDcSE_DpT0_, symObjAddr: 0x1898, symBinAddr: 0x57E0, symSize: 0x8 }
  - { offset: 0x66B75, size: 0x8, addend: 0x0, symName: __ZNSt3__116__variant_detail12__visitation6__base12__dispatcherIJLm1EEE10__dispatchB8ne200100IOZNS0_6__dtorINS0_8__traitsIJdN8facebook5react16DropShadowParamsEEEELNS0_6_TraitE1EE9__destroyB8ne200100EvEUlRT_E_JRNS0_6__baseILSC_1EJdSA_EEEEEEDcSE_DpT0_, symObjAddr: 0x1898, symBinAddr: 0x57E0, symSize: 0x8 }
  - { offset: 0x66B91, size: 0x8, addend: 0x0, symName: __ZNSt3__116__variant_detail12__visitation6__base12__dispatcherIJLm1EEE10__dispatchB8ne200100IOZNS0_6__dtorINS0_8__traitsIJdN8facebook5react16DropShadowParamsEEEELNS0_6_TraitE1EE9__destroyB8ne200100EvEUlRT_E_JRNS0_6__baseILSC_1EJdSA_EEEEEEDcSE_DpT0_, symObjAddr: 0x1898, symBinAddr: 0x57E0, symSize: 0x8 }
  - { offset: 0x66BAD, size: 0x8, addend: 0x0, symName: __ZNSt3__116__variant_detail12__visitation6__base12__dispatcherIJLm1EEE10__dispatchB8ne200100IOZNS0_6__dtorINS0_8__traitsIJdN8facebook5react16DropShadowParamsEEEELNS0_6_TraitE1EE9__destroyB8ne200100EvEUlRT_E_JRNS0_6__baseILSC_1EJdSA_EEEEEEDcSE_DpT0_, symObjAddr: 0x1898, symBinAddr: 0x57E0, symSize: 0x8 }
  - { offset: 0x6702D, size: 0x8, addend: 0x0, symName: __ZNSt3__16vectorINS_12basic_stringIcNS_11char_traitsIcEENS_9allocatorIcEEEENS4_IS6_EEE5clearB8ne200100Ev, symObjAddr: 0x1B24, symBinAddr: 0x5A6C, symSize: 0x4C }
  - { offset: 0x676A4, size: 0x8, addend: 0x0, symName: __ZNSt3__16vectorIN8facebook5react11ImageSourceENS_9allocatorIS3_EEE16__destroy_vectorclB8ne200100Ev, symObjAddr: 0x1CC0, symBinAddr: 0x5BB0, symSize: 0x70 }
  - { offset: 0x6795D, size: 0x8, addend: 0x0, symName: __ZNSt3__112__hash_tableINS_17__hash_value_typeINS_12basic_stringIcNS_11char_traitsIcEENS_9allocatorIcEEEENS_10shared_ptrIvEEEENS_22__unordered_map_hasherIS7_SA_NS_4hashIS7_EENS_8equal_toIS7_EELb1EEENS_21__unordered_map_equalIS7_SA_SF_SD_Lb1EEENS5_ISA_EEE17__deallocate_nodeEPNS_16__hash_node_baseIPNS_11__hash_nodeISA_PvEEEE, symObjAddr: 0x1EF0, symBinAddr: 0x5DE0, symSize: 0x3C }
  - { offset: 0x67E24, size: 0x8, addend: 0x0, symName: __ZNSt3__116__variant_detail12__visitation6__base12__dispatcherIJLm0EEE10__dispatchB8ne200100IOZNS0_6__dtorINS0_8__traitsIJN5folly7dynamicENS_4pairIPN8facebook3jsi7RuntimeENSC_5ValueEEEEEELNS0_6_TraitE1EE9__destroyB8ne200100EvEUlRT_E_JRNS0_6__baseILSI_1EJS9_SG_EEEEEEDcSK_DpT0_, symObjAddr: 0x202C, symBinAddr: 0x5F1C, symSize: 0x8 }
  - { offset: 0x67FD8, size: 0x8, addend: 0x0, symName: __ZNSt3__116__variant_detail12__visitation6__base12__dispatcherIJLm1EEE10__dispatchB8ne200100IOZNS0_6__dtorINS0_8__traitsIJN5folly7dynamicENS_4pairIPN8facebook3jsi7RuntimeENSC_5ValueEEEEEELNS0_6_TraitE1EE9__destroyB8ne200100EvEUlRT_E_JRNS0_6__baseILSI_1EJS9_SG_EEEEEEDcSK_DpT0_, symObjAddr: 0x2034, symBinAddr: 0x5F24, symSize: 0x8 }
  - { offset: 0x6800F, size: 0x8, addend: 0x0, symName: __ZNSt3__116__variant_detail12__visitation6__base12__dispatcherIJLm1EEE10__dispatchB8ne200100IOZNS0_6__dtorINS0_8__traitsIJN5folly7dynamicENS_4pairIPN8facebook3jsi7RuntimeENSC_5ValueEEEEEELNS0_6_TraitE1EE9__destroyB8ne200100EvEUlRT_E_JRNS0_6__baseILSI_1EJS9_SG_EEEEEEDcSK_DpT0_, symObjAddr: 0x2034, symBinAddr: 0x5F24, symSize: 0x8 }
  - { offset: 0x68034, size: 0x8, addend: 0x0, symName: __ZNSt3__116__variant_detail12__visitation6__base12__dispatcherIJLm1EEE10__dispatchB8ne200100IOZNS0_6__dtorINS0_8__traitsIJN5folly7dynamicENS_4pairIPN8facebook3jsi7RuntimeENSC_5ValueEEEEEELNS0_6_TraitE1EE9__destroyB8ne200100EvEUlRT_E_JRNS0_6__baseILSI_1EJS9_SG_EEEEEEDcSK_DpT0_, symObjAddr: 0x2034, symBinAddr: 0x5F24, symSize: 0x8 }
  - { offset: 0x68058, size: 0x8, addend: 0x0, symName: __ZNSt3__116__variant_detail12__visitation6__base12__dispatcherIJLm1EEE10__dispatchB8ne200100IOZNS0_6__dtorINS0_8__traitsIJN5folly7dynamicENS_4pairIPN8facebook3jsi7RuntimeENSC_5ValueEEEEEELNS0_6_TraitE1EE9__destroyB8ne200100EvEUlRT_E_JRNS0_6__baseILSI_1EJS9_SG_EEEEEEDcSK_DpT0_, symObjAddr: 0x2034, symBinAddr: 0x5F24, symSize: 0x8 }
  - { offset: 0x68074, size: 0x8, addend: 0x0, symName: __ZNSt3__116__variant_detail12__visitation6__base12__dispatcherIJLm1EEE10__dispatchB8ne200100IOZNS0_6__dtorINS0_8__traitsIJN5folly7dynamicENS_4pairIPN8facebook3jsi7RuntimeENSC_5ValueEEEEEELNS0_6_TraitE1EE9__destroyB8ne200100EvEUlRT_E_JRNS0_6__baseILSI_1EJS9_SG_EEEEEEDcSK_DpT0_, symObjAddr: 0x2034, symBinAddr: 0x5F24, symSize: 0x8 }
  - { offset: 0x68090, size: 0x8, addend: 0x0, symName: __ZNSt3__116__variant_detail12__visitation6__base12__dispatcherIJLm1EEE10__dispatchB8ne200100IOZNS0_6__dtorINS0_8__traitsIJN5folly7dynamicENS_4pairIPN8facebook3jsi7RuntimeENSC_5ValueEEEEEELNS0_6_TraitE1EE9__destroyB8ne200100EvEUlRT_E_JRNS0_6__baseILSI_1EJS9_SG_EEEEEEDcSK_DpT0_, symObjAddr: 0x2034, symBinAddr: 0x5F24, symSize: 0x8 }
  - { offset: 0x680AC, size: 0x8, addend: 0x0, symName: __ZNSt3__116__variant_detail12__visitation6__base12__dispatcherIJLm1EEE10__dispatchB8ne200100IOZNS0_6__dtorINS0_8__traitsIJN5folly7dynamicENS_4pairIPN8facebook3jsi7RuntimeENSC_5ValueEEEEEELNS0_6_TraitE1EE9__destroyB8ne200100EvEUlRT_E_JRNS0_6__baseILSI_1EJS9_SG_EEEEEEDcSK_DpT0_, symObjAddr: 0x2034, symBinAddr: 0x5F24, symSize: 0x8 }
  - { offset: 0x68444, size: 0x8, addend: 0x0, symName: __ZNSt3__112__hash_tableINS_17__hash_value_typeINS_12basic_stringIcNS_11char_traitsIcEENS_9allocatorIcEEEENS_10shared_ptrIvEEEENS_22__unordered_map_hasherIS7_SA_NS_4hashIS7_EENS_8equal_toIS7_EELb1EEENS_21__unordered_map_equalIS7_SA_SF_SD_Lb1EEENS5_ISA_EEE4findIS7_EENS_15__hash_iteratorIPNS_11__hash_nodeISA_PvEEEERKT_, symObjAddr: 0x20E8, symBinAddr: 0x5FD8, symSize: 0xF8 }
  - { offset: 0x68639, size: 0x8, addend: 0x0, symName: __ZNSt3__111shared_lockINS_12shared_mutexEED2B8ne200100Ev, symObjAddr: 0x26F8, symBinAddr: 0x65E8, symSize: 0x38 }
  - { offset: 0x6876A, size: 0x8, addend: 0x0, symName: __ZNKSt3__113__string_hashIcNS_9allocatorIcEEEclB8ne200100ERKNS_12basic_stringIcNS_11char_traitsIcEES2_EE, symObjAddr: 0x21E0, symBinAddr: 0x60D0, symSize: 0x3C }
  - { offset: 0x6883A, size: 0x8, addend: 0x0, symName: __ZNKSt3__18equal_toINS_12basic_stringIcNS_11char_traitsIcEENS_9allocatorIcEEEEEclB8ne200100ERKS6_S9_, symObjAddr: 0x2688, symBinAddr: 0x6578, symSize: 0x70 }
  - { offset: 0x68885, size: 0x8, addend: 0x0, symName: __ZNKSt3__18equal_toINS_12basic_stringIcNS_11char_traitsIcEENS_9allocatorIcEEEEEclB8ne200100ERKS6_S9_, symObjAddr: 0x2688, symBinAddr: 0x6578, symSize: 0x70 }
  - { offset: 0x688B6, size: 0x8, addend: 0x0, symName: __ZNKSt3__18equal_toINS_12basic_stringIcNS_11char_traitsIcEENS_9allocatorIcEEEEEclB8ne200100ERKS6_S9_, symObjAddr: 0x2688, symBinAddr: 0x6578, symSize: 0x70 }
  - { offset: 0x688D2, size: 0x8, addend: 0x0, symName: __ZNKSt3__18equal_toINS_12basic_stringIcNS_11char_traitsIcEENS_9allocatorIcEEEEEclB8ne200100ERKS6_S9_, symObjAddr: 0x2688, symBinAddr: 0x6578, symSize: 0x70 }
  - { offset: 0x689D6, size: 0x8, addend: 0x0, symName: __ZNKSt3__121__murmur2_or_cityhashImLm64EEclB8ne200100EPKvm, symObjAddr: 0x221C, symBinAddr: 0x610C, symSize: 0x208 }
  - { offset: 0x69047, size: 0x8, addend: 0x0, symName: __ZNSt3__121__murmur2_or_cityhashImLm64EE18__hash_len_0_to_16B8ne200100EPKcm, symObjAddr: 0x2424, symBinAddr: 0x6314, symSize: 0xF8 }
  - { offset: 0x69254, size: 0x8, addend: 0x0, symName: __ZNSt3__121__murmur2_or_cityhashImLm64EE19__hash_len_33_to_64B8ne200100EPKcm, symObjAddr: 0x25C8, symBinAddr: 0x64B8, symSize: 0xC0 }
  - { offset: 0x694C2, size: 0x8, addend: 0x0, symName: __ZNSt3__121__murmur2_or_cityhashImLm64EE19__hash_len_17_to_32B8ne200100EPKcm, symObjAddr: 0x251C, symBinAddr: 0x640C, symSize: 0xAC }
  - { offset: 0x69803, size: 0x8, addend: 0x0, symName: __ZNSt3__112basic_stringIcNS_11char_traitsIcEENS_9allocatorIcEEE20__throw_length_errorB8ne200100Ev, symObjAddr: 0x27D4, symBinAddr: 0x66C4, symSize: 0x14 }
  - { offset: 0x6981B, size: 0x8, addend: 0x0, symName: __ZNSt3__120__throw_length_errorB8ne200100EPKc, symObjAddr: 0x27E8, symBinAddr: 0x66D8, symSize: 0x50 }
  - { offset: 0x69826, size: 0x8, addend: 0x0, symName: __ZNSt12length_errorC1B8ne200100EPKc, symObjAddr: 0x2838, symBinAddr: 0x6728, symSize: 0x24 }
  - { offset: 0x69AF3, size: 0x8, addend: 0x0, symName: __ZNSt3__120__shared_ptr_emplaceIN8facebook5react12ImageManagerENS_9allocatorIS3_EEEC2B8ne200100IJRNS_10shared_ptrIKNS2_16ContextContainerEEEES5_Li0EEES5_DpOT_, symObjAddr: 0x28DC, symBinAddr: 0x67CC, symSize: 0x4C }
  - { offset: 0x69C8F, size: 0x8, addend: 0x0, symName: __ZNSt3__120__shared_ptr_emplaceIN8facebook5react12ImageManagerENS_9allocatorIS3_EEED1Ev, symObjAddr: 0x2928, symBinAddr: 0x6818, symSize: 0x14 }
  - { offset: 0x69CB1, size: 0x8, addend: 0x0, symName: __ZNSt3__120__shared_ptr_emplaceIN8facebook5react12ImageManagerENS_9allocatorIS3_EEED1Ev, symObjAddr: 0x2928, symBinAddr: 0x6818, symSize: 0x14 }
  - { offset: 0x69CE7, size: 0x8, addend: 0x0, symName: __ZNSt3__120__shared_ptr_emplaceIN8facebook5react12ImageManagerENS_9allocatorIS3_EEED0Ev, symObjAddr: 0x293C, symBinAddr: 0x682C, symSize: 0x24 }
  - { offset: 0x69DB6, size: 0x8, addend: 0x0, symName: __ZNSt3__120__shared_ptr_emplaceIN8facebook5react12ImageManagerENS_9allocatorIS3_EEE16__on_zero_sharedEv, symObjAddr: 0x2960, symBinAddr: 0x6850, symSize: 0xC }
  - { offset: 0x69DDF, size: 0x8, addend: 0x0, symName: __ZNSt3__120__shared_ptr_emplaceIN8facebook5react12ImageManagerENS_9allocatorIS3_EEE16__on_zero_sharedEv, symObjAddr: 0x2960, symBinAddr: 0x6850, symSize: 0xC }
  - { offset: 0x69DFC, size: 0x8, addend: 0x0, symName: __ZNSt3__120__shared_ptr_emplaceIN8facebook5react12ImageManagerENS_9allocatorIS3_EEE16__on_zero_sharedEv, symObjAddr: 0x2960, symBinAddr: 0x6850, symSize: 0xC }
  - { offset: 0x69E19, size: 0x8, addend: 0x0, symName: __ZNSt3__120__shared_ptr_emplaceIN8facebook5react12ImageManagerENS_9allocatorIS3_EEE16__on_zero_sharedEv, symObjAddr: 0x2960, symBinAddr: 0x6850, symSize: 0xC }
  - { offset: 0x69E44, size: 0x8, addend: 0x0, symName: __ZNSt3__120__shared_ptr_emplaceIN8facebook5react12ImageManagerENS_9allocatorIS3_EEE21__on_zero_shared_weakEv, symObjAddr: 0x296C, symBinAddr: 0x685C, symSize: 0x4 }
  - { offset: 0x69E76, size: 0x8, addend: 0x0, symName: __ZNSt3__120__shared_ptr_emplaceIN8facebook5react12ImageManagerENS_9allocatorIS3_EEE21__on_zero_shared_weakEv, symObjAddr: 0x296C, symBinAddr: 0x685C, symSize: 0x4 }
  - { offset: 0x69E97, size: 0x8, addend: 0x0, symName: __ZNSt3__120__shared_ptr_emplaceIN8facebook5react12ImageManagerENS_9allocatorIS3_EEE21__on_zero_shared_weakEv, symObjAddr: 0x296C, symBinAddr: 0x685C, symSize: 0x4 }
  - { offset: 0x69EB9, size: 0x8, addend: 0x0, symName: __ZNSt3__120__shared_ptr_emplaceIN8facebook5react12ImageManagerENS_9allocatorIS3_EEE21__on_zero_shared_weakEv, symObjAddr: 0x296C, symBinAddr: 0x685C, symSize: 0x4 }
  - { offset: 0x69EEC, size: 0x8, addend: 0x0, symName: __ZNSt3__120__shared_ptr_emplaceIN8facebook5react12ImageManagerENS_9allocatorIS3_EEE21__on_zero_shared_weakEv, symObjAddr: 0x296C, symBinAddr: 0x685C, symSize: 0x4 }
  - { offset: 0x6A17B, size: 0x8, addend: 0x0, symName: __ZNSt3__120__shared_ptr_emplaceIN8facebook5react15ImageShadowNodeENS_9allocatorIS3_EEEC2B8ne200100IJRKNS2_18ShadowNodeFragmentERKNS_10shared_ptrIKNS2_16ShadowNodeFamilyEEENS2_16ShadowNodeTraitsEES5_Li0EEES5_DpOT_, symObjAddr: 0x29E0, symBinAddr: 0x68D0, symSize: 0x84 }
  - { offset: 0x6A557, size: 0x8, addend: 0x0, symName: __ZN8facebook5react22ConcreteViewShadowNodeIXadL_ZNS0_18ImageComponentNameEEENS0_10ImagePropsENS0_17ImageEventEmitterENS0_10ImageStateEE10initializeEv, symObjAddr: 0x2AA8, symBinAddr: 0x6998, symSize: 0x6C }
  - { offset: 0x6A59E, size: 0x8, addend: 0x0, symName: __ZN8facebook5react22ConcreteViewShadowNodeIXadL_ZNS0_18ImageComponentNameEEENS0_10ImagePropsENS0_17ImageEventEmitterENS0_10ImageStateEE10initializeEv, symObjAddr: 0x2AA8, symBinAddr: 0x6998, symSize: 0x6C }
  - { offset: 0x6A5B9, size: 0x8, addend: 0x0, symName: __ZN8facebook5react22ConcreteViewShadowNodeIXadL_ZNS0_18ImageComponentNameEEENS0_10ImagePropsENS0_17ImageEventEmitterENS0_10ImageStateEE10initializeEv, symObjAddr: 0x2AA8, symBinAddr: 0x6998, symSize: 0x6C }
  - { offset: 0x6A64F, size: 0x8, addend: 0x0, symName: __ZNSt3__120__shared_ptr_emplaceIN8facebook5react15ImageShadowNodeENS_9allocatorIS3_EEED1Ev, symObjAddr: 0x2A64, symBinAddr: 0x6954, symSize: 0x14 }
  - { offset: 0x6A671, size: 0x8, addend: 0x0, symName: __ZNSt3__120__shared_ptr_emplaceIN8facebook5react15ImageShadowNodeENS_9allocatorIS3_EEED1Ev, symObjAddr: 0x2A64, symBinAddr: 0x6954, symSize: 0x14 }
  - { offset: 0x6A6A7, size: 0x8, addend: 0x0, symName: __ZNSt3__120__shared_ptr_emplaceIN8facebook5react15ImageShadowNodeENS_9allocatorIS3_EEED0Ev, symObjAddr: 0x2A78, symBinAddr: 0x6968, symSize: 0x24 }
  - { offset: 0x6A776, size: 0x8, addend: 0x0, symName: __ZNSt3__120__shared_ptr_emplaceIN8facebook5react15ImageShadowNodeENS_9allocatorIS3_EEE16__on_zero_sharedEv, symObjAddr: 0x2A9C, symBinAddr: 0x698C, symSize: 0x8 }
  - { offset: 0x6A79F, size: 0x8, addend: 0x0, symName: __ZNSt3__120__shared_ptr_emplaceIN8facebook5react15ImageShadowNodeENS_9allocatorIS3_EEE16__on_zero_sharedEv, symObjAddr: 0x2A9C, symBinAddr: 0x698C, symSize: 0x8 }
  - { offset: 0x6A7BC, size: 0x8, addend: 0x0, symName: __ZNSt3__120__shared_ptr_emplaceIN8facebook5react15ImageShadowNodeENS_9allocatorIS3_EEE16__on_zero_sharedEv, symObjAddr: 0x2A9C, symBinAddr: 0x698C, symSize: 0x8 }
  - { offset: 0x6A7FA, size: 0x8, addend: 0x0, symName: __ZNSt3__120__shared_ptr_emplaceIN8facebook5react15ImageShadowNodeENS_9allocatorIS3_EEE21__on_zero_shared_weakEv, symObjAddr: 0x2AA4, symBinAddr: 0x6994, symSize: 0x4 }
  - { offset: 0x6A82C, size: 0x8, addend: 0x0, symName: __ZNSt3__120__shared_ptr_emplaceIN8facebook5react15ImageShadowNodeENS_9allocatorIS3_EEE21__on_zero_shared_weakEv, symObjAddr: 0x2AA4, symBinAddr: 0x6994, symSize: 0x4 }
  - { offset: 0x6A84D, size: 0x8, addend: 0x0, symName: __ZNSt3__120__shared_ptr_emplaceIN8facebook5react15ImageShadowNodeENS_9allocatorIS3_EEE21__on_zero_shared_weakEv, symObjAddr: 0x2AA4, symBinAddr: 0x6994, symSize: 0x4 }
  - { offset: 0x6A86F, size: 0x8, addend: 0x0, symName: __ZNSt3__120__shared_ptr_emplaceIN8facebook5react15ImageShadowNodeENS_9allocatorIS3_EEE21__on_zero_shared_weakEv, symObjAddr: 0x2AA4, symBinAddr: 0x6994, symSize: 0x4 }
  - { offset: 0x6A8A3, size: 0x8, addend: 0x0, symName: __ZNSt3__120__shared_ptr_emplaceIN8facebook5react15ImageShadowNodeENS_9allocatorIS3_EEE21__on_zero_shared_weakEv, symObjAddr: 0x2AA4, symBinAddr: 0x6994, symSize: 0x4 }
  - { offset: 0x6ABBB, size: 0x8, addend: 0x0, symName: __ZN8facebook5react22ConcreteViewShadowNodeIXadL_ZNS0_18ImageComponentNameEEENS0_10ImagePropsENS0_17ImageEventEmitterENS0_10ImageStateEED1Ev, symObjAddr: 0x2B14, symBinAddr: 0x6A04, symSize: 0x70 }
  - { offset: 0x6AF68, size: 0x8, addend: 0x0, symName: __ZNSt3__16vectorINS_10shared_ptrIKN8facebook5react24YogaLayoutableShadowNodeEEENS_9allocatorIS6_EEE16__destroy_vectorclB8ne200100Ev, symObjAddr: 0x2C68, symBinAddr: 0x6B58, symSize: 0x70 }
  - { offset: 0x6B0DA, size: 0x8, addend: 0x0, symName: __ZN8facebook5react10ShadowNodeD2Ev, symObjAddr: 0x2D30, symBinAddr: 0x6BC8, symSize: 0x5C }
  - { offset: 0x6B205, size: 0x8, addend: 0x0, symName: __ZN8facebook5react22ConcreteViewShadowNodeIXadL_ZNS0_18ImageComponentNameEEENS0_10ImagePropsENS0_17ImageEventEmitterENS0_10ImageStateEED0Ev, symObjAddr: 0x2B84, symBinAddr: 0x6A74, symSize: 0x74 }
  - { offset: 0x6B5D9, size: 0x8, addend: 0x0, symName: __ZNK8facebook5react22ConcreteViewShadowNodeIXadL_ZNS0_18ImageComponentNameEEENS0_10ImagePropsENS0_17ImageEventEmitterENS0_10ImageStateEE12getTransformEv, symObjAddr: 0x2BF8, symBinAddr: 0x6AE8, symSize: 0x40 }
  - { offset: 0x6B648, size: 0x8, addend: 0x0, symName: __ZNK8facebook5react22ConcreteViewShadowNodeIXadL_ZNS0_18ImageComponentNameEEENS0_10ImagePropsENS0_17ImageEventEmitterENS0_10ImageStateEE16canBeTouchTargetEv, symObjAddr: 0x2C38, symBinAddr: 0x6B28, symSize: 0x18 }
  - { offset: 0x6B681, size: 0x8, addend: 0x0, symName: __ZNK8facebook5react22ConcreteViewShadowNodeIXadL_ZNS0_18ImageComponentNameEEENS0_10ImagePropsENS0_17ImageEventEmitterENS0_10ImageStateEE16canBeTouchTargetEv, symObjAddr: 0x2C38, symBinAddr: 0x6B28, symSize: 0x18 }
  - { offset: 0x6B69C, size: 0x8, addend: 0x0, symName: __ZNK8facebook5react22ConcreteViewShadowNodeIXadL_ZNS0_18ImageComponentNameEEENS0_10ImagePropsENS0_17ImageEventEmitterENS0_10ImageStateEE16canBeTouchTargetEv, symObjAddr: 0x2C38, symBinAddr: 0x6B28, symSize: 0x18 }
  - { offset: 0x6B6B9, size: 0x8, addend: 0x0, symName: __ZNK8facebook5react22ConcreteViewShadowNodeIXadL_ZNS0_18ImageComponentNameEEENS0_10ImagePropsENS0_17ImageEventEmitterENS0_10ImageStateEE24canChildrenBeTouchTargetEv, symObjAddr: 0x2C50, symBinAddr: 0x6B40, symSize: 0x18 }
  - { offset: 0x6B6ED, size: 0x8, addend: 0x0, symName: __ZNK8facebook5react22ConcreteViewShadowNodeIXadL_ZNS0_18ImageComponentNameEEENS0_10ImagePropsENS0_17ImageEventEmitterENS0_10ImageStateEE24canChildrenBeTouchTargetEv, symObjAddr: 0x2C50, symBinAddr: 0x6B40, symSize: 0x18 }
  - { offset: 0x6B708, size: 0x8, addend: 0x0, symName: __ZNK8facebook5react22ConcreteViewShadowNodeIXadL_ZNS0_18ImageComponentNameEEENS0_10ImagePropsENS0_17ImageEventEmitterENS0_10ImageStateEE24canChildrenBeTouchTargetEv, symObjAddr: 0x2C50, symBinAddr: 0x6B40, symSize: 0x18 }
  - { offset: 0x6BAD9, size: 0x8, addend: 0x0, symName: __ZNSt3__120__shared_ptr_emplaceIN8facebook5react15ImageShadowNodeENS_9allocatorIS3_EEEC2B8ne200100IJRKNS2_10ShadowNodeERKNS2_18ShadowNodeFragmentEES5_Li0EEES5_DpOT_, symObjAddr: 0x301C, symBinAddr: 0x6CFC, symSize: 0x80 }
  - { offset: 0x6BE0C, size: 0x8, addend: 0x0, symName: __ZNSt3__110shared_ptrIKN8facebook5react10ImagePropsEED1B8ne200100Ev, symObjAddr: 0x31E8, symBinAddr: 0x6E70, symSize: 0x4 }
  - { offset: 0x6BE38, size: 0x8, addend: 0x0, symName: __ZNSt3__110shared_ptrIKN8facebook5react10ImagePropsEED1B8ne200100Ev, symObjAddr: 0x31E8, symBinAddr: 0x6E70, symSize: 0x4 }
  - { offset: 0x6C0D8, size: 0x8, addend: 0x0, symName: __ZNSt3__120__shared_ptr_emplaceIKN8facebook5react10ImagePropsENS_9allocatorIS3_EEEC2B8ne200100IJES6_Li0EEES6_DpOT_, symObjAddr: 0x3234, symBinAddr: 0x6EBC, symSize: 0x4C }
  - { offset: 0x6C207, size: 0x8, addend: 0x0, symName: __ZNSt3__120__shared_ptr_emplaceIKN8facebook5react10ImagePropsENS_9allocatorIS3_EEED1Ev, symObjAddr: 0x3280, symBinAddr: 0x6F08, symSize: 0x14 }
  - { offset: 0x6C229, size: 0x8, addend: 0x0, symName: __ZNSt3__120__shared_ptr_emplaceIKN8facebook5react10ImagePropsENS_9allocatorIS3_EEED1Ev, symObjAddr: 0x3280, symBinAddr: 0x6F08, symSize: 0x14 }
  - { offset: 0x6C25F, size: 0x8, addend: 0x0, symName: __ZNSt3__120__shared_ptr_emplaceIKN8facebook5react10ImagePropsENS_9allocatorIS3_EEED0Ev, symObjAddr: 0x3294, symBinAddr: 0x6F1C, symSize: 0x24 }
  - { offset: 0x6C32E, size: 0x8, addend: 0x0, symName: __ZNSt3__120__shared_ptr_emplaceIKN8facebook5react10ImagePropsENS_9allocatorIS3_EEE16__on_zero_sharedEv, symObjAddr: 0x32B8, symBinAddr: 0x6F40, symSize: 0x10 }
  - { offset: 0x6C357, size: 0x8, addend: 0x0, symName: __ZNSt3__120__shared_ptr_emplaceIKN8facebook5react10ImagePropsENS_9allocatorIS3_EEE16__on_zero_sharedEv, symObjAddr: 0x32B8, symBinAddr: 0x6F40, symSize: 0x10 }
  - { offset: 0x6C3C7, size: 0x8, addend: 0x0, symName: __ZNSt3__120__shared_ptr_emplaceIKN8facebook5react10ImagePropsENS_9allocatorIS3_EEE21__on_zero_shared_weakEv, symObjAddr: 0x32C8, symBinAddr: 0x6F50, symSize: 0x4 }
  - { offset: 0x6C3F9, size: 0x8, addend: 0x0, symName: __ZNSt3__120__shared_ptr_emplaceIKN8facebook5react10ImagePropsENS_9allocatorIS3_EEE21__on_zero_shared_weakEv, symObjAddr: 0x32C8, symBinAddr: 0x6F50, symSize: 0x4 }
  - { offset: 0x6C41A, size: 0x8, addend: 0x0, symName: __ZNSt3__120__shared_ptr_emplaceIKN8facebook5react10ImagePropsENS_9allocatorIS3_EEE21__on_zero_shared_weakEv, symObjAddr: 0x32C8, symBinAddr: 0x6F50, symSize: 0x4 }
  - { offset: 0x6C43C, size: 0x8, addend: 0x0, symName: __ZNSt3__120__shared_ptr_emplaceIKN8facebook5react10ImagePropsENS_9allocatorIS3_EEE21__on_zero_shared_weakEv, symObjAddr: 0x32C8, symBinAddr: 0x6F50, symSize: 0x4 }
  - { offset: 0x6C470, size: 0x8, addend: 0x0, symName: __ZNSt3__120__shared_ptr_emplaceIKN8facebook5react10ImagePropsENS_9allocatorIS3_EEE21__on_zero_shared_weakEv, symObjAddr: 0x32C8, symBinAddr: 0x6F50, symSize: 0x4 }
  - { offset: 0x6C6FF, size: 0x8, addend: 0x0, symName: __ZNSt3__120__shared_ptr_emplaceIN8facebook5react10ImagePropsENS_9allocatorIS3_EEEC2B8ne200100IJRKNS2_18PropsParserContextERKS3_RKNS2_8RawPropsEES5_Li0EEES5_DpOT_, symObjAddr: 0x3484, symBinAddr: 0x70B4, symSize: 0x4C }
  - { offset: 0x6C8EA, size: 0x8, addend: 0x0, symName: __ZNSt3__120__shared_ptr_emplaceIN8facebook5react10ImagePropsENS_9allocatorIS3_EEED1Ev, symObjAddr: 0x34D0, symBinAddr: 0x7100, symSize: 0x14 }
  - { offset: 0x6C90C, size: 0x8, addend: 0x0, symName: __ZNSt3__120__shared_ptr_emplaceIN8facebook5react10ImagePropsENS_9allocatorIS3_EEED1Ev, symObjAddr: 0x34D0, symBinAddr: 0x7100, symSize: 0x14 }
  - { offset: 0x6C942, size: 0x8, addend: 0x0, symName: __ZNSt3__120__shared_ptr_emplaceIN8facebook5react10ImagePropsENS_9allocatorIS3_EEED0Ev, symObjAddr: 0x34E4, symBinAddr: 0x7114, symSize: 0x24 }
  - { offset: 0x6C9E1, size: 0x8, addend: 0x0, symName: __ZNSt3__120__shared_ptr_emplaceIN8facebook5react10ImagePropsENS_9allocatorIS3_EEE16__on_zero_sharedEv, symObjAddr: 0x3508, symBinAddr: 0x7138, symSize: 0x10 }
  - { offset: 0x6CA0A, size: 0x8, addend: 0x0, symName: __ZNSt3__120__shared_ptr_emplaceIN8facebook5react10ImagePropsENS_9allocatorIS3_EEE16__on_zero_sharedEv, symObjAddr: 0x3508, symBinAddr: 0x7138, symSize: 0x10 }
  - { offset: 0x6CA7A, size: 0x8, addend: 0x0, symName: __ZNSt3__120__shared_ptr_emplaceIN8facebook5react10ImagePropsENS_9allocatorIS3_EEE21__on_zero_shared_weakEv, symObjAddr: 0x3518, symBinAddr: 0x7148, symSize: 0x4 }
  - { offset: 0x6CAAC, size: 0x8, addend: 0x0, symName: __ZNSt3__120__shared_ptr_emplaceIN8facebook5react10ImagePropsENS_9allocatorIS3_EEE21__on_zero_shared_weakEv, symObjAddr: 0x3518, symBinAddr: 0x7148, symSize: 0x4 }
  - { offset: 0x6CACD, size: 0x8, addend: 0x0, symName: __ZNSt3__120__shared_ptr_emplaceIN8facebook5react10ImagePropsENS_9allocatorIS3_EEE21__on_zero_shared_weakEv, symObjAddr: 0x3518, symBinAddr: 0x7148, symSize: 0x4 }
  - { offset: 0x6CAEF, size: 0x8, addend: 0x0, symName: __ZNSt3__120__shared_ptr_emplaceIN8facebook5react10ImagePropsENS_9allocatorIS3_EEE21__on_zero_shared_weakEv, symObjAddr: 0x3518, symBinAddr: 0x7148, symSize: 0x4 }
  - { offset: 0x6CB23, size: 0x8, addend: 0x0, symName: __ZNSt3__120__shared_ptr_emplaceIN8facebook5react10ImagePropsENS_9allocatorIS3_EEE21__on_zero_shared_weakEv, symObjAddr: 0x3518, symBinAddr: 0x7148, symSize: 0x4 }
  - { offset: 0x6CB8F, size: 0x8, addend: 0x0, symName: __ZN5folly9TypeErrorC1EOS0_, symObjAddr: 0x35BC, symBinAddr: 0x7150, symSize: 0x24 }
  - { offset: 0x6CBE9, size: 0x8, addend: 0x0, symName: __ZN5folly9TypeErrorD1Ev, symObjAddr: 0x35B8, symBinAddr: 0x714C, symSize: 0x4 }
  - { offset: 0x6CC0B, size: 0x8, addend: 0x0, symName: __ZN5folly9TypeErrorD1Ev, symObjAddr: 0x35B8, symBinAddr: 0x714C, symSize: 0x4 }
  - { offset: 0x6CC46, size: 0x8, addend: 0x0, symName: __ZN5folly9TypeErrorD0Ev, symObjAddr: 0x35E0, symBinAddr: 0x7174, symSize: 0x14 }
  - { offset: 0x6CF8D, size: 0x8, addend: 0x0, symName: __ZN8facebook5react11ImageSourceC2ERKS1_, symObjAddr: 0x3DCC, symBinAddr: 0x7908, symSize: 0x17C }
  - { offset: 0x6D515, size: 0x8, addend: 0x0, symName: __ZN8facebook5react10ImageStateC2ERKNS0_11ImageSourceENS0_12ImageRequestERKNS0_18ImageRequestParamsE, symObjAddr: 0x446C, symBinAddr: 0x7F50, symSize: 0x7C }
  - { offset: 0x6D7E6, size: 0x8, addend: 0x0, symName: __ZN8facebook5react12ImageRequestD2Ev, symObjAddr: 0x4640, symBinAddr: 0x80CC, symSize: 0x88 }
  - { offset: 0x6E09D, size: 0x8, addend: 0x0, symName: __ZNSt3__120__shared_ptr_emplaceIN8facebook5react13ConcreteStateINS2_10ImageStateEEENS_9allocatorIS5_EEEC2B8ne200100IJNS_10shared_ptrIKS4_EERKNSA_IKNS2_16ShadowNodeFamilyEEEES7_Li0EEES7_DpOT_, symObjAddr: 0x3A84, symBinAddr: 0x75C0, symSize: 0x4C }
  - { offset: 0x6E24A, size: 0x8, addend: 0x0, symName: __ZNSt3__120__shared_ptr_emplaceIN8facebook5react13ConcreteStateINS2_10ImageStateEEENS_9allocatorIS5_EEED1Ev, symObjAddr: 0x3AD0, symBinAddr: 0x760C, symSize: 0x14 }
  - { offset: 0x6E26C, size: 0x8, addend: 0x0, symName: __ZNSt3__120__shared_ptr_emplaceIN8facebook5react13ConcreteStateINS2_10ImageStateEEENS_9allocatorIS5_EEED1Ev, symObjAddr: 0x3AD0, symBinAddr: 0x760C, symSize: 0x14 }
  - { offset: 0x6E2A2, size: 0x8, addend: 0x0, symName: __ZNSt3__120__shared_ptr_emplaceIN8facebook5react13ConcreteStateINS2_10ImageStateEEENS_9allocatorIS5_EEED0Ev, symObjAddr: 0x3AE4, symBinAddr: 0x7620, symSize: 0x24 }
  - { offset: 0x6E371, size: 0x8, addend: 0x0, symName: __ZNSt3__120__shared_ptr_emplaceIN8facebook5react13ConcreteStateINS2_10ImageStateEEENS_9allocatorIS5_EEE16__on_zero_sharedEv, symObjAddr: 0x3B08, symBinAddr: 0x7644, symSize: 0xC }
  - { offset: 0x6E39A, size: 0x8, addend: 0x0, symName: __ZNSt3__120__shared_ptr_emplaceIN8facebook5react13ConcreteStateINS2_10ImageStateEEENS_9allocatorIS5_EEE16__on_zero_sharedEv, symObjAddr: 0x3B08, symBinAddr: 0x7644, symSize: 0xC }
  - { offset: 0x6E3B7, size: 0x8, addend: 0x0, symName: __ZNSt3__120__shared_ptr_emplaceIN8facebook5react13ConcreteStateINS2_10ImageStateEEENS_9allocatorIS5_EEE16__on_zero_sharedEv, symObjAddr: 0x3B08, symBinAddr: 0x7644, symSize: 0xC }
  - { offset: 0x6E3D4, size: 0x8, addend: 0x0, symName: __ZNSt3__120__shared_ptr_emplaceIN8facebook5react13ConcreteStateINS2_10ImageStateEEENS_9allocatorIS5_EEE16__on_zero_sharedEv, symObjAddr: 0x3B08, symBinAddr: 0x7644, symSize: 0xC }
  - { offset: 0x6E3FF, size: 0x8, addend: 0x0, symName: __ZNSt3__120__shared_ptr_emplaceIN8facebook5react13ConcreteStateINS2_10ImageStateEEENS_9allocatorIS5_EEE21__on_zero_shared_weakEv, symObjAddr: 0x3B14, symBinAddr: 0x7650, symSize: 0x4 }
  - { offset: 0x6E431, size: 0x8, addend: 0x0, symName: __ZNSt3__120__shared_ptr_emplaceIN8facebook5react13ConcreteStateINS2_10ImageStateEEENS_9allocatorIS5_EEE21__on_zero_shared_weakEv, symObjAddr: 0x3B14, symBinAddr: 0x7650, symSize: 0x4 }
  - { offset: 0x6E452, size: 0x8, addend: 0x0, symName: __ZNSt3__120__shared_ptr_emplaceIN8facebook5react13ConcreteStateINS2_10ImageStateEEENS_9allocatorIS5_EEE21__on_zero_shared_weakEv, symObjAddr: 0x3B14, symBinAddr: 0x7650, symSize: 0x4 }
  - { offset: 0x6E474, size: 0x8, addend: 0x0, symName: __ZNSt3__120__shared_ptr_emplaceIN8facebook5react13ConcreteStateINS2_10ImageStateEEENS_9allocatorIS5_EEE21__on_zero_shared_weakEv, symObjAddr: 0x3B14, symBinAddr: 0x7650, symSize: 0x4 }
  - { offset: 0x6E4A7, size: 0x8, addend: 0x0, symName: __ZNSt3__120__shared_ptr_emplaceIN8facebook5react13ConcreteStateINS2_10ImageStateEEENS_9allocatorIS5_EEE21__on_zero_shared_weakEv, symObjAddr: 0x3B14, symBinAddr: 0x7650, symSize: 0x4 }
  - { offset: 0x6E5BB, size: 0x8, addend: 0x0, symName: __ZN8facebook5react13ConcreteStateINS0_10ImageStateEEC2ENSt3__110shared_ptrIKS2_EENS4_8weak_ptrIKNS0_16ShadowNodeFamilyEEE, symObjAddr: 0x3BE0, symBinAddr: 0x771C, symSize: 0xBC }
  - { offset: 0x6E8B6, size: 0x8, addend: 0x0, symName: __ZN8facebook5react13ConcreteStateINS0_10ImageStateEED1Ev, symObjAddr: 0x3C9C, symBinAddr: 0x77D8, symSize: 0x4 }
  - { offset: 0x6E8D8, size: 0x8, addend: 0x0, symName: __ZN8facebook5react13ConcreteStateINS0_10ImageStateEED1Ev, symObjAddr: 0x3C9C, symBinAddr: 0x77D8, symSize: 0x4 }
  - { offset: 0x6E8F5, size: 0x8, addend: 0x0, symName: __ZN8facebook5react13ConcreteStateINS0_10ImageStateEED1Ev, symObjAddr: 0x3C9C, symBinAddr: 0x77D8, symSize: 0x4 }
  - { offset: 0x6E908, size: 0x8, addend: 0x0, symName: __ZN8facebook5react5StateD2Ev, symObjAddr: 0x3CB4, symBinAddr: 0x77F0, symSize: 0x40 }
  - { offset: 0x6E9AD, size: 0x8, addend: 0x0, symName: __ZN8facebook5react13ConcreteStateINS0_10ImageStateEED0Ev, symObjAddr: 0x3CA0, symBinAddr: 0x77DC, symSize: 0x14 }
  - { offset: 0x6EA23, size: 0x8, addend: 0x0, symName: __ZN8facebook5react5StateD1Ev, symObjAddr: 0x3CF4, symBinAddr: 0x7830, symSize: 0x4 }
  - { offset: 0x6EA46, size: 0x8, addend: 0x0, symName: __ZN8facebook5react5StateD1Ev, symObjAddr: 0x3CF4, symBinAddr: 0x7830, symSize: 0x4 }
  - { offset: 0x6EA79, size: 0x8, addend: 0x0, symName: __ZN8facebook5react5StateD0Ev, symObjAddr: 0x3CF8, symBinAddr: 0x7834, symSize: 0x14 }
  - { offset: 0x6EAEF, size: 0x8, addend: 0x0, symName: __ZNSt3__120__shared_ptr_emplaceIKN8facebook5react10ImageStateENS_9allocatorIS3_EEED1Ev, symObjAddr: 0x3D0C, symBinAddr: 0x7848, symSize: 0x14 }
  - { offset: 0x6EB11, size: 0x8, addend: 0x0, symName: __ZNSt3__120__shared_ptr_emplaceIKN8facebook5react10ImageStateENS_9allocatorIS3_EEED1Ev, symObjAddr: 0x3D0C, symBinAddr: 0x7848, symSize: 0x14 }
  - { offset: 0x6EB47, size: 0x8, addend: 0x0, symName: __ZNSt3__120__shared_ptr_emplaceIKN8facebook5react10ImageStateENS_9allocatorIS3_EEED0Ev, symObjAddr: 0x3D20, symBinAddr: 0x785C, symSize: 0x24 }
  - { offset: 0x6EC2C, size: 0x8, addend: 0x0, symName: __ZNSt3__120__shared_ptr_emplaceIKN8facebook5react10ImageStateENS_9allocatorIS3_EEE16__on_zero_sharedEv, symObjAddr: 0x3D44, symBinAddr: 0x7880, symSize: 0x8 }
  - { offset: 0x6EC55, size: 0x8, addend: 0x0, symName: __ZNSt3__120__shared_ptr_emplaceIKN8facebook5react10ImageStateENS_9allocatorIS3_EEE16__on_zero_sharedEv, symObjAddr: 0x3D44, symBinAddr: 0x7880, symSize: 0x8 }
  - { offset: 0x6EC72, size: 0x8, addend: 0x0, symName: __ZNSt3__120__shared_ptr_emplaceIKN8facebook5react10ImageStateENS_9allocatorIS3_EEE16__on_zero_sharedEv, symObjAddr: 0x3D44, symBinAddr: 0x7880, symSize: 0x8 }
  - { offset: 0x6ED11, size: 0x8, addend: 0x0, symName: __ZNSt3__120__shared_ptr_emplaceIKN8facebook5react10ImageStateENS_9allocatorIS3_EEE21__on_zero_shared_weakEv, symObjAddr: 0x3D4C, symBinAddr: 0x7888, symSize: 0x4 }
  - { offset: 0x6ED43, size: 0x8, addend: 0x0, symName: __ZNSt3__120__shared_ptr_emplaceIKN8facebook5react10ImageStateENS_9allocatorIS3_EEE21__on_zero_shared_weakEv, symObjAddr: 0x3D4C, symBinAddr: 0x7888, symSize: 0x4 }
  - { offset: 0x6ED64, size: 0x8, addend: 0x0, symName: __ZNSt3__120__shared_ptr_emplaceIKN8facebook5react10ImageStateENS_9allocatorIS3_EEE21__on_zero_shared_weakEv, symObjAddr: 0x3D4C, symBinAddr: 0x7888, symSize: 0x4 }
  - { offset: 0x6ED86, size: 0x8, addend: 0x0, symName: __ZNSt3__120__shared_ptr_emplaceIKN8facebook5react10ImageStateENS_9allocatorIS3_EEE21__on_zero_shared_weakEv, symObjAddr: 0x3D4C, symBinAddr: 0x7888, symSize: 0x4 }
  - { offset: 0x6EDBA, size: 0x8, addend: 0x0, symName: __ZNSt3__120__shared_ptr_emplaceIKN8facebook5react10ImageStateENS_9allocatorIS3_EEE21__on_zero_shared_weakEv, symObjAddr: 0x3D4C, symBinAddr: 0x7888, symSize: 0x4 }
  - { offset: 0x6EE7E, size: 0x8, addend: 0x0, symName: __ZNSt3__112basic_stringIcNS_11char_traitsIcEENS_9allocatorIcEEE25__init_copy_ctor_externalEPKcm, symObjAddr: 0x3F48, symBinAddr: 0x7A84, symSize: 0x80 }
  - { offset: 0x6F050, size: 0x8, addend: 0x0, symName: __ZNSt3__16vectorINS_4pairINS_12basic_stringIcNS_11char_traitsIcEENS_9allocatorIcEEEES7_EENS5_IS8_EEE16__init_with_sizeB8ne200100IPS8_SC_EEvT_T0_m, symObjAddr: 0x3FC8, symBinAddr: 0x7B04, symSize: 0x84 }
  - { offset: 0x6F05B, size: 0x8, addend: 0x0, symName: __ZNSt3__16vectorINS_4pairINS_12basic_stringIcNS_11char_traitsIcEENS_9allocatorIcEEEES7_EENS5_IS8_EEE16__init_with_sizeB8ne200100IPS8_SC_EEvT_T0_m, symObjAddr: 0x3FC8, symBinAddr: 0x7B04, symSize: 0x84 }
  - { offset: 0x6F478, size: 0x8, addend: 0x0, symName: __ZNSt3__16vectorINS_4pairINS_12basic_stringIcNS_11char_traitsIcEENS_9allocatorIcEEEES7_EENS5_IS8_EEE11__vallocateB8ne200100Em, symObjAddr: 0x404C, symBinAddr: 0x7B88, symSize: 0x48 }
  - { offset: 0x6F4D2, size: 0x8, addend: 0x0, symName: __ZNSt3__16vectorINS_4pairINS_12basic_stringIcNS_11char_traitsIcEENS_9allocatorIcEEEES7_EENS5_IS8_EEE20__throw_length_errorB8ne200100Ev, symObjAddr: 0x4094, symBinAddr: 0x7BD0, symSize: 0x14 }
  - { offset: 0x6F4DD, size: 0x8, addend: 0x0, symName: __ZNSt3__16vectorINS_4pairINS_12basic_stringIcNS_11char_traitsIcEENS_9allocatorIcEEEES7_EENS5_IS8_EEE20__throw_length_errorB8ne200100Ev, symObjAddr: 0x4094, symBinAddr: 0x7BD0, symSize: 0x14 }
  - { offset: 0x6F4F5, size: 0x8, addend: 0x0, symName: __ZNSt3__119__allocate_at_leastB8ne200100INS_9allocatorINS_4pairINS_12basic_stringIcNS_11char_traitsIcEENS1_IcEEEES7_EEEEEENS_19__allocation_resultINS_16allocator_traitsIT_E7pointerEEERSC_m, symObjAddr: 0x40A8, symBinAddr: 0x7BE4, symSize: 0x44 }
  - { offset: 0x6F5E9, size: 0x8, addend: 0x0, symName: __ZNSt3__14pairINS_12basic_stringIcNS_11char_traitsIcEENS_9allocatorIcEEEES6_EC2B8ne200100ERKS7_, symObjAddr: 0x4170, symBinAddr: 0x7CAC, symSize: 0x90 }
  - { offset: 0x6FA42, size: 0x8, addend: 0x0, symName: __ZNSt3__120__shared_ptr_emplaceIN8facebook5react14SharedFunctionIJEE4PairENS_9allocatorIS5_EEEC2B8ne200100IJNS_8functionIFvvEEEES7_Li0EEES7_DpOT_, symObjAddr: 0x4258, symBinAddr: 0x7D94, symSize: 0x4C }
  - { offset: 0x6FBF3, size: 0x8, addend: 0x0, symName: __ZN8facebook5react14SharedFunctionIJEE4PairC2EONSt3__18functionIFvvEEE, symObjAddr: 0x42E8, symBinAddr: 0x7E24, symSize: 0x64 }
  - { offset: 0x6FD81, size: 0x8, addend: 0x0, symName: __ZNSt3__120__shared_ptr_emplaceIN8facebook5react14SharedFunctionIJEE4PairENS_9allocatorIS5_EEED1Ev, symObjAddr: 0x42A4, symBinAddr: 0x7DE0, symSize: 0x14 }
  - { offset: 0x6FDA3, size: 0x8, addend: 0x0, symName: __ZNSt3__120__shared_ptr_emplaceIN8facebook5react14SharedFunctionIJEE4PairENS_9allocatorIS5_EEED1Ev, symObjAddr: 0x42A4, symBinAddr: 0x7DE0, symSize: 0x14 }
  - { offset: 0x6FDD9, size: 0x8, addend: 0x0, symName: __ZNSt3__120__shared_ptr_emplaceIN8facebook5react14SharedFunctionIJEE4PairENS_9allocatorIS5_EEED0Ev, symObjAddr: 0x42B8, symBinAddr: 0x7DF4, symSize: 0x24 }
  - { offset: 0x6FEA8, size: 0x8, addend: 0x0, symName: __ZNSt3__120__shared_ptr_emplaceIN8facebook5react14SharedFunctionIJEE4PairENS_9allocatorIS5_EEE16__on_zero_sharedEv, symObjAddr: 0x42DC, symBinAddr: 0x7E18, symSize: 0x8 }
  - { offset: 0x6FED1, size: 0x8, addend: 0x0, symName: __ZNSt3__120__shared_ptr_emplaceIN8facebook5react14SharedFunctionIJEE4PairENS_9allocatorIS5_EEE16__on_zero_sharedEv, symObjAddr: 0x42DC, symBinAddr: 0x7E18, symSize: 0x8 }
  - { offset: 0x6FEEE, size: 0x8, addend: 0x0, symName: __ZNSt3__120__shared_ptr_emplaceIN8facebook5react14SharedFunctionIJEE4PairENS_9allocatorIS5_EEE16__on_zero_sharedEv, symObjAddr: 0x42DC, symBinAddr: 0x7E18, symSize: 0x8 }
  - { offset: 0x6FF2C, size: 0x8, addend: 0x0, symName: __ZNSt3__120__shared_ptr_emplaceIN8facebook5react14SharedFunctionIJEE4PairENS_9allocatorIS5_EEE21__on_zero_shared_weakEv, symObjAddr: 0x42E4, symBinAddr: 0x7E20, symSize: 0x4 }
  - { offset: 0x6FF5E, size: 0x8, addend: 0x0, symName: __ZNSt3__120__shared_ptr_emplaceIN8facebook5react14SharedFunctionIJEE4PairENS_9allocatorIS5_EEE21__on_zero_shared_weakEv, symObjAddr: 0x42E4, symBinAddr: 0x7E20, symSize: 0x4 }
  - { offset: 0x6FF7F, size: 0x8, addend: 0x0, symName: __ZNSt3__120__shared_ptr_emplaceIN8facebook5react14SharedFunctionIJEE4PairENS_9allocatorIS5_EEE21__on_zero_shared_weakEv, symObjAddr: 0x42E4, symBinAddr: 0x7E20, symSize: 0x4 }
  - { offset: 0x6FFA1, size: 0x8, addend: 0x0, symName: __ZNSt3__120__shared_ptr_emplaceIN8facebook5react14SharedFunctionIJEE4PairENS_9allocatorIS5_EEE21__on_zero_shared_weakEv, symObjAddr: 0x42E4, symBinAddr: 0x7E20, symSize: 0x4 }
  - { offset: 0x6FFD5, size: 0x8, addend: 0x0, symName: __ZNSt3__120__shared_ptr_emplaceIN8facebook5react14SharedFunctionIJEE4PairENS_9allocatorIS5_EEE21__on_zero_shared_weakEv, symObjAddr: 0x42E4, symBinAddr: 0x7E20, symSize: 0x4 }
  - { offset: 0x70076, size: 0x8, addend: 0x0, symName: __ZNSt3__110__function12__value_funcIFvvEEC2B8ne200100EOS3_, symObjAddr: 0x434C, symBinAddr: 0x7E88, symSize: 0x64 }
  - { offset: 0x70365, size: 0x8, addend: 0x0, symName: __ZN8facebook5react12ImageRequestC2EOS1_, symObjAddr: 0x452C, symBinAddr: 0x8010, symSize: 0xBC }
  - { offset: 0x7039E, size: 0x8, addend: 0x0, symName: __ZN8facebook5react12ImageRequestC2EOS1_, symObjAddr: 0x452C, symBinAddr: 0x8010, symSize: 0xBC }
  - { offset: 0x703C0, size: 0x8, addend: 0x0, symName: __ZN8facebook5react12ImageRequestC2EOS1_, symObjAddr: 0x452C, symBinAddr: 0x8010, symSize: 0xBC }
  - { offset: 0x7063B, size: 0x8, addend: 0x0, symName: __ZNSt3__120__shared_ptr_emplaceIN8facebook5react12ImageRequestENS_9allocatorIS3_EEED1Ev, symObjAddr: 0x44E8, symBinAddr: 0x7FCC, symSize: 0x14 }
  - { offset: 0x7065D, size: 0x8, addend: 0x0, symName: __ZNSt3__120__shared_ptr_emplaceIN8facebook5react12ImageRequestENS_9allocatorIS3_EEED1Ev, symObjAddr: 0x44E8, symBinAddr: 0x7FCC, symSize: 0x14 }
  - { offset: 0x70693, size: 0x8, addend: 0x0, symName: __ZNSt3__120__shared_ptr_emplaceIN8facebook5react12ImageRequestENS_9allocatorIS3_EEED0Ev, symObjAddr: 0x44FC, symBinAddr: 0x7FE0, symSize: 0x24 }
  - { offset: 0x70778, size: 0x8, addend: 0x0, symName: __ZNSt3__120__shared_ptr_emplaceIN8facebook5react12ImageRequestENS_9allocatorIS3_EEE16__on_zero_sharedEv, symObjAddr: 0x4520, symBinAddr: 0x8004, symSize: 0x8 }
  - { offset: 0x707A1, size: 0x8, addend: 0x0, symName: __ZNSt3__120__shared_ptr_emplaceIN8facebook5react12ImageRequestENS_9allocatorIS3_EEE16__on_zero_sharedEv, symObjAddr: 0x4520, symBinAddr: 0x8004, symSize: 0x8 }
  - { offset: 0x707BE, size: 0x8, addend: 0x0, symName: __ZNSt3__120__shared_ptr_emplaceIN8facebook5react12ImageRequestENS_9allocatorIS3_EEE16__on_zero_sharedEv, symObjAddr: 0x4520, symBinAddr: 0x8004, symSize: 0x8 }
  - { offset: 0x70888, size: 0x8, addend: 0x0, symName: __ZNSt3__120__shared_ptr_emplaceIN8facebook5react12ImageRequestENS_9allocatorIS3_EEE21__on_zero_shared_weakEv, symObjAddr: 0x4528, symBinAddr: 0x800C, symSize: 0x4 }
  - { offset: 0x708BA, size: 0x8, addend: 0x0, symName: __ZNSt3__120__shared_ptr_emplaceIN8facebook5react12ImageRequestENS_9allocatorIS3_EEE21__on_zero_shared_weakEv, symObjAddr: 0x4528, symBinAddr: 0x800C, symSize: 0x4 }
  - { offset: 0x708DB, size: 0x8, addend: 0x0, symName: __ZNSt3__120__shared_ptr_emplaceIN8facebook5react12ImageRequestENS_9allocatorIS3_EEE21__on_zero_shared_weakEv, symObjAddr: 0x4528, symBinAddr: 0x800C, symSize: 0x4 }
  - { offset: 0x708FD, size: 0x8, addend: 0x0, symName: __ZNSt3__120__shared_ptr_emplaceIN8facebook5react12ImageRequestENS_9allocatorIS3_EEE21__on_zero_shared_weakEv, symObjAddr: 0x4528, symBinAddr: 0x800C, symSize: 0x4 }
  - { offset: 0x70931, size: 0x8, addend: 0x0, symName: __ZNSt3__120__shared_ptr_emplaceIN8facebook5react12ImageRequestENS_9allocatorIS3_EEE21__on_zero_shared_weakEv, symObjAddr: 0x4528, symBinAddr: 0x800C, symSize: 0x4 }
  - { offset: 0x70CC6, size: 0x8, addend: 0x0, symName: __ZNSt3__120__shared_ptr_emplaceIKN8facebook5react13ConcreteStateINS2_10ImageStateEEENS_9allocatorIS5_EEEC2B8ne200100IJNS_10shared_ptrIKS4_EERKNS2_5StateEES8_Li0EEES8_DpOT_, symObjAddr: 0x4830, symBinAddr: 0x81B4, symSize: 0x4C }
  - { offset: 0x70E6D, size: 0x8, addend: 0x0, symName: __ZNSt3__120__shared_ptr_emplaceIKN8facebook5react13ConcreteStateINS2_10ImageStateEEENS_9allocatorIS5_EEED1Ev, symObjAddr: 0x487C, symBinAddr: 0x8200, symSize: 0x14 }
  - { offset: 0x70E8F, size: 0x8, addend: 0x0, symName: __ZNSt3__120__shared_ptr_emplaceIKN8facebook5react13ConcreteStateINS2_10ImageStateEEENS_9allocatorIS5_EEED1Ev, symObjAddr: 0x487C, symBinAddr: 0x8200, symSize: 0x14 }
  - { offset: 0x70EC5, size: 0x8, addend: 0x0, symName: __ZNSt3__120__shared_ptr_emplaceIKN8facebook5react13ConcreteStateINS2_10ImageStateEEENS_9allocatorIS5_EEED0Ev, symObjAddr: 0x4890, symBinAddr: 0x8214, symSize: 0x24 }
  - { offset: 0x70F64, size: 0x8, addend: 0x0, symName: __ZNSt3__120__shared_ptr_emplaceIKN8facebook5react13ConcreteStateINS2_10ImageStateEEENS_9allocatorIS5_EEE16__on_zero_sharedEv, symObjAddr: 0x48B4, symBinAddr: 0x8238, symSize: 0xC }
  - { offset: 0x70F8D, size: 0x8, addend: 0x0, symName: __ZNSt3__120__shared_ptr_emplaceIKN8facebook5react13ConcreteStateINS2_10ImageStateEEENS_9allocatorIS5_EEE16__on_zero_sharedEv, symObjAddr: 0x48B4, symBinAddr: 0x8238, symSize: 0xC }
  - { offset: 0x70FAA, size: 0x8, addend: 0x0, symName: __ZNSt3__120__shared_ptr_emplaceIKN8facebook5react13ConcreteStateINS2_10ImageStateEEENS_9allocatorIS5_EEE16__on_zero_sharedEv, symObjAddr: 0x48B4, symBinAddr: 0x8238, symSize: 0xC }
  - { offset: 0x70FC7, size: 0x8, addend: 0x0, symName: __ZNSt3__120__shared_ptr_emplaceIKN8facebook5react13ConcreteStateINS2_10ImageStateEEENS_9allocatorIS5_EEE16__on_zero_sharedEv, symObjAddr: 0x48B4, symBinAddr: 0x8238, symSize: 0xC }
  - { offset: 0x70FF2, size: 0x8, addend: 0x0, symName: __ZNSt3__120__shared_ptr_emplaceIKN8facebook5react13ConcreteStateINS2_10ImageStateEEENS_9allocatorIS5_EEE21__on_zero_shared_weakEv, symObjAddr: 0x48C0, symBinAddr: 0x8244, symSize: 0x4 }
  - { offset: 0x71024, size: 0x8, addend: 0x0, symName: __ZNSt3__120__shared_ptr_emplaceIKN8facebook5react13ConcreteStateINS2_10ImageStateEEENS_9allocatorIS5_EEE21__on_zero_shared_weakEv, symObjAddr: 0x48C0, symBinAddr: 0x8244, symSize: 0x4 }
  - { offset: 0x71045, size: 0x8, addend: 0x0, symName: __ZNSt3__120__shared_ptr_emplaceIKN8facebook5react13ConcreteStateINS2_10ImageStateEEENS_9allocatorIS5_EEE21__on_zero_shared_weakEv, symObjAddr: 0x48C0, symBinAddr: 0x8244, symSize: 0x4 }
  - { offset: 0x71067, size: 0x8, addend: 0x0, symName: __ZNSt3__120__shared_ptr_emplaceIKN8facebook5react13ConcreteStateINS2_10ImageStateEEENS_9allocatorIS5_EEE21__on_zero_shared_weakEv, symObjAddr: 0x48C0, symBinAddr: 0x8244, symSize: 0x4 }
  - { offset: 0x7109A, size: 0x8, addend: 0x0, symName: __ZNSt3__120__shared_ptr_emplaceIKN8facebook5react13ConcreteStateINS2_10ImageStateEEENS_9allocatorIS5_EEE21__on_zero_shared_weakEv, symObjAddr: 0x48C0, symBinAddr: 0x8244, symSize: 0x4 }
  - { offset: 0x710F2, size: 0x8, addend: 0x0, symName: __ZN8facebook5react13ConcreteStateINS0_10ImageStateEEC2ENSt3__110shared_ptrIKS2_EERKNS0_5StateE, symObjAddr: 0x494C, symBinAddr: 0x82D0, symSize: 0x98 }
  - { offset: 0x714A8, size: 0x8, addend: 0x0, symName: __ZNSt3__120__shared_ptr_emplaceIKN8facebook5react17ImageEventEmitterENS_9allocatorIS3_EEEC2B8ne200100IJNS_10shared_ptrINS2_11EventTargetEEERKNS_8weak_ptrIKNS2_15EventDispatcherEEEES6_Li0EEES6_DpOT_, symObjAddr: 0x4A44, symBinAddr: 0x83C8, symSize: 0x4C }
  - { offset: 0x71655, size: 0x8, addend: 0x0, symName: __ZNSt3__120__shared_ptr_emplaceIKN8facebook5react17ImageEventEmitterENS_9allocatorIS3_EEED1Ev, symObjAddr: 0x4A90, symBinAddr: 0x8414, symSize: 0x14 }
  - { offset: 0x71677, size: 0x8, addend: 0x0, symName: __ZNSt3__120__shared_ptr_emplaceIKN8facebook5react17ImageEventEmitterENS_9allocatorIS3_EEED1Ev, symObjAddr: 0x4A90, symBinAddr: 0x8414, symSize: 0x14 }
  - { offset: 0x716AD, size: 0x8, addend: 0x0, symName: __ZNSt3__120__shared_ptr_emplaceIKN8facebook5react17ImageEventEmitterENS_9allocatorIS3_EEED0Ev, symObjAddr: 0x4AA4, symBinAddr: 0x8428, symSize: 0x24 }
  - { offset: 0x7177C, size: 0x8, addend: 0x0, symName: __ZNSt3__120__shared_ptr_emplaceIKN8facebook5react17ImageEventEmitterENS_9allocatorIS3_EEE16__on_zero_sharedEv, symObjAddr: 0x4AC8, symBinAddr: 0x844C, symSize: 0xC }
  - { offset: 0x717A5, size: 0x8, addend: 0x0, symName: __ZNSt3__120__shared_ptr_emplaceIKN8facebook5react17ImageEventEmitterENS_9allocatorIS3_EEE16__on_zero_sharedEv, symObjAddr: 0x4AC8, symBinAddr: 0x844C, symSize: 0xC }
  - { offset: 0x717C2, size: 0x8, addend: 0x0, symName: __ZNSt3__120__shared_ptr_emplaceIKN8facebook5react17ImageEventEmitterENS_9allocatorIS3_EEE16__on_zero_sharedEv, symObjAddr: 0x4AC8, symBinAddr: 0x844C, symSize: 0xC }
  - { offset: 0x717DF, size: 0x8, addend: 0x0, symName: __ZNSt3__120__shared_ptr_emplaceIKN8facebook5react17ImageEventEmitterENS_9allocatorIS3_EEE16__on_zero_sharedEv, symObjAddr: 0x4AC8, symBinAddr: 0x844C, symSize: 0xC }
  - { offset: 0x7180A, size: 0x8, addend: 0x0, symName: __ZNSt3__120__shared_ptr_emplaceIKN8facebook5react17ImageEventEmitterENS_9allocatorIS3_EEE21__on_zero_shared_weakEv, symObjAddr: 0x4AD4, symBinAddr: 0x8458, symSize: 0x4 }
  - { offset: 0x7183C, size: 0x8, addend: 0x0, symName: __ZNSt3__120__shared_ptr_emplaceIKN8facebook5react17ImageEventEmitterENS_9allocatorIS3_EEE21__on_zero_shared_weakEv, symObjAddr: 0x4AD4, symBinAddr: 0x8458, symSize: 0x4 }
  - { offset: 0x7185D, size: 0x8, addend: 0x0, symName: __ZNSt3__120__shared_ptr_emplaceIKN8facebook5react17ImageEventEmitterENS_9allocatorIS3_EEE21__on_zero_shared_weakEv, symObjAddr: 0x4AD4, symBinAddr: 0x8458, symSize: 0x4 }
  - { offset: 0x7187F, size: 0x8, addend: 0x0, symName: __ZNSt3__120__shared_ptr_emplaceIKN8facebook5react17ImageEventEmitterENS_9allocatorIS3_EEE21__on_zero_shared_weakEv, symObjAddr: 0x4AD4, symBinAddr: 0x8458, symSize: 0x4 }
  - { offset: 0x718B2, size: 0x8, addend: 0x0, symName: __ZNSt3__120__shared_ptr_emplaceIKN8facebook5react17ImageEventEmitterENS_9allocatorIS3_EEE21__on_zero_shared_weakEv, symObjAddr: 0x4AD4, symBinAddr: 0x8458, symSize: 0x4 }
  - { offset: 0x71D27, size: 0x8, addend: 0x0, symName: __ZN8facebook5react12EventEmitterD2Ev, symObjAddr: 0x4D8C, symBinAddr: 0x86B8, symSize: 0x50 }
  - { offset: 0x71EA0, size: 0x8, addend: 0x0, symName: __ZN8facebook5react17ImageEventEmitterD1Ev, symObjAddr: 0x4C18, symBinAddr: 0x859C, symSize: 0x34 }
  - { offset: 0x71FCB, size: 0x8, addend: 0x0, symName: __ZN8facebook5react17ImageEventEmitterD0Ev, symObjAddr: 0x4C4C, symBinAddr: 0x85D0, symSize: 0x38 }
  - { offset: 0x720A6, size: 0x8, addend: 0x0, symName: __ZN8facebook5react20BaseViewEventEmitterD1Ev, symObjAddr: 0x4C84, symBinAddr: 0x8608, symSize: 0x34 }
  - { offset: 0x72158, size: 0x8, addend: 0x0, symName: __ZN8facebook5react20BaseViewEventEmitterD0Ev, symObjAddr: 0x4CB8, symBinAddr: 0x863C, symSize: 0x38 }
  - { offset: 0x72233, size: 0x8, addend: 0x0, symName: __ZNSt3__120__shared_ptr_emplaceIN8facebook5react20BaseViewEventEmitter16LayoutEventStateENS_9allocatorIS4_EEED1Ev, symObjAddr: 0x4CF0, symBinAddr: 0x8674, symSize: 0x14 }
  - { offset: 0x72255, size: 0x8, addend: 0x0, symName: __ZNSt3__120__shared_ptr_emplaceIN8facebook5react20BaseViewEventEmitter16LayoutEventStateENS_9allocatorIS4_EEED1Ev, symObjAddr: 0x4CF0, symBinAddr: 0x8674, symSize: 0x14 }
  - { offset: 0x7228B, size: 0x8, addend: 0x0, symName: __ZNSt3__120__shared_ptr_emplaceIN8facebook5react20BaseViewEventEmitter16LayoutEventStateENS_9allocatorIS4_EEED0Ev, symObjAddr: 0x4D04, symBinAddr: 0x8688, symSize: 0x24 }
  - { offset: 0x723A8, size: 0x8, addend: 0x0, symName: __ZNSt3__120__shared_ptr_emplaceIN8facebook5react20BaseViewEventEmitter16LayoutEventStateENS_9allocatorIS4_EEE16__on_zero_sharedEv, symObjAddr: 0x4D28, symBinAddr: 0x86AC, symSize: 0x8 }
  - { offset: 0x723D1, size: 0x8, addend: 0x0, symName: __ZNSt3__120__shared_ptr_emplaceIN8facebook5react20BaseViewEventEmitter16LayoutEventStateENS_9allocatorIS4_EEE16__on_zero_sharedEv, symObjAddr: 0x4D28, symBinAddr: 0x86AC, symSize: 0x8 }
  - { offset: 0x723EE, size: 0x8, addend: 0x0, symName: __ZNSt3__120__shared_ptr_emplaceIN8facebook5react20BaseViewEventEmitter16LayoutEventStateENS_9allocatorIS4_EEE16__on_zero_sharedEv, symObjAddr: 0x4D28, symBinAddr: 0x86AC, symSize: 0x8 }
  - { offset: 0x724BF, size: 0x8, addend: 0x0, symName: __ZNSt3__120__shared_ptr_emplaceIN8facebook5react20BaseViewEventEmitter16LayoutEventStateENS_9allocatorIS4_EEE21__on_zero_shared_weakEv, symObjAddr: 0x4D30, symBinAddr: 0x86B4, symSize: 0x4 }
  - { offset: 0x724F1, size: 0x8, addend: 0x0, symName: __ZNSt3__120__shared_ptr_emplaceIN8facebook5react20BaseViewEventEmitter16LayoutEventStateENS_9allocatorIS4_EEE21__on_zero_shared_weakEv, symObjAddr: 0x4D30, symBinAddr: 0x86B4, symSize: 0x4 }
  - { offset: 0x72512, size: 0x8, addend: 0x0, symName: __ZNSt3__120__shared_ptr_emplaceIN8facebook5react20BaseViewEventEmitter16LayoutEventStateENS_9allocatorIS4_EEE21__on_zero_shared_weakEv, symObjAddr: 0x4D30, symBinAddr: 0x86B4, symSize: 0x4 }
  - { offset: 0x72534, size: 0x8, addend: 0x0, symName: __ZNSt3__120__shared_ptr_emplaceIN8facebook5react20BaseViewEventEmitter16LayoutEventStateENS_9allocatorIS4_EEE21__on_zero_shared_weakEv, symObjAddr: 0x4D30, symBinAddr: 0x86B4, symSize: 0x4 }
  - { offset: 0x72568, size: 0x8, addend: 0x0, symName: __ZNSt3__120__shared_ptr_emplaceIN8facebook5react20BaseViewEventEmitter16LayoutEventStateENS_9allocatorIS4_EEE21__on_zero_shared_weakEv, symObjAddr: 0x4D30, symBinAddr: 0x86B4, symSize: 0x4 }
  - { offset: 0x72590, size: 0x8, addend: 0x0, symName: __ZN8facebook5react12EventEmitterD1Ev, symObjAddr: 0x4DDC, symBinAddr: 0x8708, symSize: 0x4 }
  - { offset: 0x725B3, size: 0x8, addend: 0x0, symName: __ZN8facebook5react12EventEmitterD1Ev, symObjAddr: 0x4DDC, symBinAddr: 0x8708, symSize: 0x4 }
  - { offset: 0x725E6, size: 0x8, addend: 0x0, symName: __ZN8facebook5react12EventEmitterD0Ev, symObjAddr: 0x4DE0, symBinAddr: 0x870C, symSize: 0x14 }
  - { offset: 0x72896, size: 0x8, addend: 0x0, symName: __ZNSt3__120__shared_ptr_emplaceIN8facebook5react11EventTargetENS_9allocatorIS3_EEEC2B8ne200100IJRKNS_10shared_ptrIKNS2_14InstanceHandleEEERKiES5_Li0EEES5_DpOT_, symObjAddr: 0x4EAC, symBinAddr: 0x8780, symSize: 0x4C }
  - { offset: 0x72A43, size: 0x8, addend: 0x0, symName: __ZNSt3__120__shared_ptr_emplaceIN8facebook5react11EventTargetENS_9allocatorIS3_EEED1Ev, symObjAddr: 0x4EF8, symBinAddr: 0x87CC, symSize: 0x14 }
  - { offset: 0x72A65, size: 0x8, addend: 0x0, symName: __ZNSt3__120__shared_ptr_emplaceIN8facebook5react11EventTargetENS_9allocatorIS3_EEED1Ev, symObjAddr: 0x4EF8, symBinAddr: 0x87CC, symSize: 0x14 }
  - { offset: 0x72A9B, size: 0x8, addend: 0x0, symName: __ZNSt3__120__shared_ptr_emplaceIN8facebook5react11EventTargetENS_9allocatorIS3_EEED0Ev, symObjAddr: 0x4F0C, symBinAddr: 0x87E0, symSize: 0x24 }
  - { offset: 0x72BC2, size: 0x8, addend: 0x0, symName: __ZNSt3__120__shared_ptr_emplaceIN8facebook5react11EventTargetENS_9allocatorIS3_EEE16__on_zero_sharedEv, symObjAddr: 0x4F30, symBinAddr: 0x8804, symSize: 0x28 }
  - { offset: 0x72CD2, size: 0x8, addend: 0x0, symName: __ZNSt3__120__shared_ptr_emplaceIN8facebook5react11EventTargetENS_9allocatorIS3_EEE21__on_zero_shared_weakEv, symObjAddr: 0x4F58, symBinAddr: 0x882C, symSize: 0x4 }
  - { offset: 0x72D04, size: 0x8, addend: 0x0, symName: __ZNSt3__120__shared_ptr_emplaceIN8facebook5react11EventTargetENS_9allocatorIS3_EEE21__on_zero_shared_weakEv, symObjAddr: 0x4F58, symBinAddr: 0x882C, symSize: 0x4 }
  - { offset: 0x72D25, size: 0x8, addend: 0x0, symName: __ZNSt3__120__shared_ptr_emplaceIN8facebook5react11EventTargetENS_9allocatorIS3_EEE21__on_zero_shared_weakEv, symObjAddr: 0x4F58, symBinAddr: 0x882C, symSize: 0x4 }
  - { offset: 0x72D47, size: 0x8, addend: 0x0, symName: __ZNSt3__120__shared_ptr_emplaceIN8facebook5react11EventTargetENS_9allocatorIS3_EEE21__on_zero_shared_weakEv, symObjAddr: 0x4F58, symBinAddr: 0x882C, symSize: 0x4 }
  - { offset: 0x72D7A, size: 0x8, addend: 0x0, symName: __ZNSt3__120__shared_ptr_emplaceIN8facebook5react11EventTargetENS_9allocatorIS3_EEE21__on_zero_shared_weakEv, symObjAddr: 0x4F58, symBinAddr: 0x882C, symSize: 0x4 }
  - { offset: 0x73082, size: 0x8, addend: 0x0, symName: __ZNSt3__120__shared_ptr_emplaceIN8facebook5react16ShadowNodeFamilyENS_9allocatorIS3_EEEC2B8ne200100IJRKNS2_24ShadowNodeFamilyFragmentERNS_10shared_ptrIKNS2_17ImageEventEmitterEEERKNS_8weak_ptrIKNS2_15EventDispatcherEEERKNS2_27ConcreteComponentDescriptorINS2_15ImageShadowNodeEEEES5_Li0EEES5_DpOT_, symObjAddr: 0x5128, symBinAddr: 0x894C, symSize: 0x4C }
  - { offset: 0x732A9, size: 0x8, addend: 0x0, symName: __ZNSt3__120__shared_ptr_emplaceIN8facebook5react16ShadowNodeFamilyENS_9allocatorIS3_EEED1Ev, symObjAddr: 0x5174, symBinAddr: 0x8998, symSize: 0x14 }
  - { offset: 0x732CB, size: 0x8, addend: 0x0, symName: __ZNSt3__120__shared_ptr_emplaceIN8facebook5react16ShadowNodeFamilyENS_9allocatorIS3_EEED1Ev, symObjAddr: 0x5174, symBinAddr: 0x8998, symSize: 0x14 }
  - { offset: 0x73301, size: 0x8, addend: 0x0, symName: __ZNSt3__120__shared_ptr_emplaceIN8facebook5react16ShadowNodeFamilyENS_9allocatorIS3_EEED0Ev, symObjAddr: 0x5188, symBinAddr: 0x89AC, symSize: 0x24 }
  - { offset: 0x733D0, size: 0x8, addend: 0x0, symName: __ZNSt3__120__shared_ptr_emplaceIN8facebook5react16ShadowNodeFamilyENS_9allocatorIS3_EEE16__on_zero_sharedEv, symObjAddr: 0x51AC, symBinAddr: 0x89D0, symSize: 0x8 }
  - { offset: 0x733F9, size: 0x8, addend: 0x0, symName: __ZNSt3__120__shared_ptr_emplaceIN8facebook5react16ShadowNodeFamilyENS_9allocatorIS3_EEE16__on_zero_sharedEv, symObjAddr: 0x51AC, symBinAddr: 0x89D0, symSize: 0x8 }
  - { offset: 0x73416, size: 0x8, addend: 0x0, symName: __ZNSt3__120__shared_ptr_emplaceIN8facebook5react16ShadowNodeFamilyENS_9allocatorIS3_EEE16__on_zero_sharedEv, symObjAddr: 0x51AC, symBinAddr: 0x89D0, symSize: 0x8 }
  - { offset: 0x7345C, size: 0x8, addend: 0x0, symName: __ZNSt3__120__shared_ptr_emplaceIN8facebook5react16ShadowNodeFamilyENS_9allocatorIS3_EEE21__on_zero_shared_weakEv, symObjAddr: 0x51B4, symBinAddr: 0x89D8, symSize: 0x4 }
  - { offset: 0x7348E, size: 0x8, addend: 0x0, symName: __ZNSt3__120__shared_ptr_emplaceIN8facebook5react16ShadowNodeFamilyENS_9allocatorIS3_EEE21__on_zero_shared_weakEv, symObjAddr: 0x51B4, symBinAddr: 0x89D8, symSize: 0x4 }
  - { offset: 0x734AF, size: 0x8, addend: 0x0, symName: __ZNSt3__120__shared_ptr_emplaceIN8facebook5react16ShadowNodeFamilyENS_9allocatorIS3_EEE21__on_zero_shared_weakEv, symObjAddr: 0x51B4, symBinAddr: 0x89D8, symSize: 0x4 }
  - { offset: 0x734D1, size: 0x8, addend: 0x0, symName: __ZNSt3__120__shared_ptr_emplaceIN8facebook5react16ShadowNodeFamilyENS_9allocatorIS3_EEE21__on_zero_shared_weakEv, symObjAddr: 0x51B4, symBinAddr: 0x89D8, symSize: 0x4 }
  - { offset: 0x73505, size: 0x8, addend: 0x0, symName: __ZNSt3__120__shared_ptr_emplaceIN8facebook5react16ShadowNodeFamilyENS_9allocatorIS3_EEE21__on_zero_shared_weakEv, symObjAddr: 0x51B4, symBinAddr: 0x89D8, symSize: 0x4 }
  - { offset: 0x75F09, size: 0x8, addend: 0x0, symName: __ZNK8facebook5react17ImageEventEmitter11onLoadStartEv, symObjAddr: 0x0, symBinAddr: 0x8AB8, symSize: 0x10C }
  - { offset: 0x80CBC, size: 0x8, addend: 0x0, symName: __ZNK8facebook5react17ImageEventEmitter6onLoadERKNS0_11ImageSourceE, symObjAddr: 0x10C, symBinAddr: 0x8BC4, symSize: 0x1B8 }
  - { offset: 0x81955, size: 0x8, addend: 0x0, symName: __ZNK8facebook5react17ImageEventEmitter10onProgressEdxx, symObjAddr: 0x448, symBinAddr: 0x8E88, symSize: 0x140 }
  - { offset: 0x81F1A, size: 0x8, addend: 0x0, symName: __ZNK8facebook5react17ImageEventEmitter7onErrorERKNS0_14ImageErrorInfoE, symObjAddr: 0x588, symBinAddr: 0x8FC8, symSize: 0x258 }
  - { offset: 0x82E2E, size: 0x8, addend: 0x0, symName: __ZNK8facebook5react17ImageEventEmitter11onLoadStartEv, symObjAddr: 0x0, symBinAddr: 0x8AB8, symSize: 0x10C }
  - { offset: 0x83F22, size: 0x8, addend: 0x0, symName: __ZNK8facebook5react17ImageEventEmitter9onLoadEndEv, symObjAddr: 0x33C, symBinAddr: 0x8D7C, symSize: 0x10C }
  - { offset: 0x84D39, size: 0x8, addend: 0x0, symName: '__ZZNK8facebook5react17ImageEventEmitter7onErrorERKNS0_14ImageErrorInfoEEN3$_0D1Ev', symObjAddr: 0x7E0, symBinAddr: 0x9220, symSize: 0x48 }
  - { offset: 0x84F40, size: 0x8, addend: 0x0, symName: __ZNK8facebook5react17ImageEventEmitter13onPartialLoadEv, symObjAddr: 0x828, symBinAddr: 0x9268, symSize: 0x10C }
  - { offset: 0x85A60, size: 0x8, addend: 0x0, symName: '__ZNSt3__110__function6__funcIZNK8facebook5react17ImageEventEmitter6onLoadERKNS3_11ImageSourceEE3$_0NS_9allocatorIS8_EEFNS2_3jsi5ValueERNSB_7RuntimeEEED1Ev', symObjAddr: 0xF70, symBinAddr: 0x9374, symSize: 0x84 }
  - { offset: 0x86029, size: 0x8, addend: 0x0, symName: '__ZNSt3__110__function6__funcIZNK8facebook5react17ImageEventEmitter6onLoadERKNS3_11ImageSourceEE3$_0NS_9allocatorIS8_EEFNS2_3jsi5ValueERNSB_7RuntimeEEED0Ev', symObjAddr: 0xFF4, symBinAddr: 0x93F8, symSize: 0x88 }
  - { offset: 0x867A6, size: 0x8, addend: 0x0, symName: '__ZNKSt3__110__function6__funcIZNK8facebook5react17ImageEventEmitter6onLoadERKNS3_11ImageSourceEE3$_0NS_9allocatorIS8_EEFNS2_3jsi5ValueERNSB_7RuntimeEEE7__cloneEv', symObjAddr: 0x107C, symBinAddr: 0x9480, symSize: 0x54 }
  - { offset: 0x86AD1, size: 0x8, addend: 0x0, symName: '__ZNKSt3__110__function6__funcIZNK8facebook5react17ImageEventEmitter6onLoadERKNS3_11ImageSourceEE3$_0NS_9allocatorIS8_EEFNS2_3jsi5ValueERNSB_7RuntimeEEE7__cloneEPNS0_6__baseISF_EE', symObjAddr: 0x10D0, symBinAddr: 0x94D4, symSize: 0x1C }
  - { offset: 0x86BD4, size: 0x8, addend: 0x0, symName: '__ZNSt3__110__function6__funcIZNK8facebook5react17ImageEventEmitter6onLoadERKNS3_11ImageSourceEE3$_0NS_9allocatorIS8_EEFNS2_3jsi5ValueERNSB_7RuntimeEEE7destroyEv', symObjAddr: 0x10EC, symBinAddr: 0x94F0, symSize: 0x8 }
  - { offset: 0x86F0F, size: 0x8, addend: 0x0, symName: '__ZNSt3__110__function6__funcIZNK8facebook5react17ImageEventEmitter6onLoadERKNS3_11ImageSourceEE3$_0NS_9allocatorIS8_EEFNS2_3jsi5ValueERNSB_7RuntimeEEE18destroy_deallocateEv', symObjAddr: 0x10F4, symBinAddr: 0x94F8, symSize: 0x28 }
  - { offset: 0x871F8, size: 0x8, addend: 0x0, symName: '__ZNSt3__110__function6__funcIZNK8facebook5react17ImageEventEmitter6onLoadERKNS3_11ImageSourceEE3$_0NS_9allocatorIS8_EEFNS2_3jsi5ValueERNSB_7RuntimeEEEclESE_', symObjAddr: 0x111C, symBinAddr: 0x9520, symSize: 0x148 }
  - { offset: 0x87673, size: 0x8, addend: 0x0, symName: __ZNK8facebook3jsi6Object11setPropertyIRKNSt3__112basic_stringIcNS3_11char_traitsIcEENS3_9allocatorIcEEEEEEvRNS0_7RuntimeEPKcOT_, symObjAddr: 0x1320, symBinAddr: 0x96B0, symSize: 0xA4 }
  - { offset: 0x8784D, size: 0x8, addend: 0x0, symName: __ZNK8facebook3jsi6Object11setPropertyIdEEvRNS0_7RuntimeEPKcOT_, symObjAddr: 0x13C4, symBinAddr: 0x9754, symSize: 0xA4 }
  - { offset: 0x87A21, size: 0x8, addend: 0x0, symName: __ZNK8facebook3jsi6Object11setPropertyIRS1_EEvRNS0_7RuntimeEPKcOT_, symObjAddr: 0x1468, symBinAddr: 0x97F8, symSize: 0xA4 }
  - { offset: 0x87BF5, size: 0x8, addend: 0x0, symName: '__ZNKSt3__110__function6__funcIZNK8facebook5react17ImageEventEmitter6onLoadERKNS3_11ImageSourceEE3$_0NS_9allocatorIS8_EEFNS2_3jsi5ValueERNSB_7RuntimeEEE6targetERKSt9type_info', symObjAddr: 0x1264, symBinAddr: 0x9668, symSize: 0x3C }
  - { offset: 0x87C42, size: 0x8, addend: 0x0, symName: __ZNKSt9type_infoeqB8ne200100ERKS_, symObjAddr: 0x16A8, symBinAddr: 0x9A38, symSize: 0x4C }
  - { offset: 0x87CE1, size: 0x8, addend: 0x0, symName: '__ZNKSt3__110__function6__funcIZNK8facebook5react17ImageEventEmitter6onLoadERKNS3_11ImageSourceEE3$_0NS_9allocatorIS8_EEFNS2_3jsi5ValueERNSB_7RuntimeEEE11target_typeEv', symObjAddr: 0x12A0, symBinAddr: 0x96A4, symSize: 0xC }
  - { offset: 0x87D95, size: 0x8, addend: 0x0, symName: __ZNK8facebook3jsi6Object11setPropertyIRKNSt3__112basic_stringIcNS3_11char_traitsIcEENS3_9allocatorIcEEEEEEvRNS0_7RuntimeERKNS0_6StringEOT_, symObjAddr: 0x150C, symBinAddr: 0x989C, symSize: 0xA4 }
  - { offset: 0x87F5C, size: 0x8, addend: 0x0, symName: __ZNK8facebook3jsi6Object11setPropertyIdEEvRNS0_7RuntimeERKNS0_6StringEOT_, symObjAddr: 0x15B0, symBinAddr: 0x9940, symSize: 0x68 }
  - { offset: 0x880A7, size: 0x8, addend: 0x0, symName: __ZNK8facebook3jsi6Object11setPropertyIRS1_EEvRNS0_7RuntimeERKNS0_6StringEOT_, symObjAddr: 0x1618, symBinAddr: 0x99A8, symSize: 0x90 }
  - { offset: 0x88430, size: 0x8, addend: 0x0, symName: '__ZNSt3__110__function6__funcIZNK8facebook5react17ImageEventEmitter10onProgressEdxxE3$_0NS_9allocatorIS5_EEFNS2_3jsi5ValueERNS8_7RuntimeEEED1Ev', symObjAddr: 0x16F4, symBinAddr: 0x9A84, symSize: 0x4 }
  - { offset: 0x8845C, size: 0x8, addend: 0x0, symName: '__ZNSt3__110__function6__funcIZNK8facebook5react17ImageEventEmitter10onProgressEdxxE3$_0NS_9allocatorIS5_EEFNS2_3jsi5ValueERNS8_7RuntimeEEED0Ev', symObjAddr: 0x16F8, symBinAddr: 0x9A88, symSize: 0x4 }
  - { offset: 0x88550, size: 0x8, addend: 0x0, symName: '__ZNKSt3__110__function6__funcIZNK8facebook5react17ImageEventEmitter10onProgressEdxxE3$_0NS_9allocatorIS5_EEFNS2_3jsi5ValueERNS8_7RuntimeEEE7__cloneEv', symObjAddr: 0x16FC, symBinAddr: 0x9A8C, symSize: 0x40 }
  - { offset: 0x88763, size: 0x8, addend: 0x0, symName: '__ZNKSt3__110__function6__funcIZNK8facebook5react17ImageEventEmitter10onProgressEdxxE3$_0NS_9allocatorIS5_EEFNS2_3jsi5ValueERNS8_7RuntimeEEE7__cloneEPNS0_6__baseISC_EE', symObjAddr: 0x173C, symBinAddr: 0x9ACC, symSize: 0x20 }
  - { offset: 0x88799, size: 0x8, addend: 0x0, symName: '__ZNKSt3__110__function6__funcIZNK8facebook5react17ImageEventEmitter10onProgressEdxxE3$_0NS_9allocatorIS5_EEFNS2_3jsi5ValueERNS8_7RuntimeEEE7__cloneEPNS0_6__baseISC_EE', symObjAddr: 0x173C, symBinAddr: 0x9ACC, symSize: 0x20 }
  - { offset: 0x887C7, size: 0x8, addend: 0x0, symName: '__ZNKSt3__110__function6__funcIZNK8facebook5react17ImageEventEmitter10onProgressEdxxE3$_0NS_9allocatorIS5_EEFNS2_3jsi5ValueERNS8_7RuntimeEEE7__cloneEPNS0_6__baseISC_EE', symObjAddr: 0x173C, symBinAddr: 0x9ACC, symSize: 0x20 }
  - { offset: 0x88856, size: 0x8, addend: 0x0, symName: '__ZNSt3__110__function6__funcIZNK8facebook5react17ImageEventEmitter10onProgressEdxxE3$_0NS_9allocatorIS5_EEFNS2_3jsi5ValueERNS8_7RuntimeEEE7destroyEv', symObjAddr: 0x175C, symBinAddr: 0x9AEC, symSize: 0x4 }
  - { offset: 0x888AB, size: 0x8, addend: 0x0, symName: '__ZNSt3__110__function6__funcIZNK8facebook5react17ImageEventEmitter10onProgressEdxxE3$_0NS_9allocatorIS5_EEFNS2_3jsi5ValueERNS8_7RuntimeEEE18destroy_deallocateEv', symObjAddr: 0x1760, symBinAddr: 0x9AF0, symSize: 0x4 }
  - { offset: 0x888DF, size: 0x8, addend: 0x0, symName: '__ZNSt3__110__function6__funcIZNK8facebook5react17ImageEventEmitter10onProgressEdxxE3$_0NS_9allocatorIS5_EEFNS2_3jsi5ValueERNS8_7RuntimeEEE18destroy_deallocateEv', symObjAddr: 0x1760, symBinAddr: 0x9AF0, symSize: 0x4 }
  - { offset: 0x88901, size: 0x8, addend: 0x0, symName: '__ZNSt3__110__function6__funcIZNK8facebook5react17ImageEventEmitter10onProgressEdxxE3$_0NS_9allocatorIS5_EEFNS2_3jsi5ValueERNS8_7RuntimeEEE18destroy_deallocateEv', symObjAddr: 0x1760, symBinAddr: 0x9AF0, symSize: 0x4 }
  - { offset: 0x88934, size: 0x8, addend: 0x0, symName: '__ZNSt3__110__function6__funcIZNK8facebook5react17ImageEventEmitter10onProgressEdxxE3$_0NS_9allocatorIS5_EEFNS2_3jsi5ValueERNS8_7RuntimeEEE18destroy_deallocateEv', symObjAddr: 0x1760, symBinAddr: 0x9AF0, symSize: 0x4 }
  - { offset: 0x889F0, size: 0x8, addend: 0x0, symName: '__ZNSt3__110__function6__funcIZNK8facebook5react17ImageEventEmitter10onProgressEdxxE3$_0NS_9allocatorIS5_EEFNS2_3jsi5ValueERNS8_7RuntimeEEEclESB_', symObjAddr: 0x1764, symBinAddr: 0x9AF4, symSize: 0xE0 }
  - { offset: 0x88DC5, size: 0x8, addend: 0x0, symName: '__ZNKSt3__110__function6__funcIZNK8facebook5react17ImageEventEmitter10onProgressEdxxE3$_0NS_9allocatorIS5_EEFNS2_3jsi5ValueERNS8_7RuntimeEEE6targetERKSt9type_info', symObjAddr: 0x1844, symBinAddr: 0x9BD4, symSize: 0x3C }
  - { offset: 0x88E12, size: 0x8, addend: 0x0, symName: '__ZNKSt3__110__function6__funcIZNK8facebook5react17ImageEventEmitter10onProgressEdxxE3$_0NS_9allocatorIS5_EEFNS2_3jsi5ValueERNS8_7RuntimeEEE11target_typeEv', symObjAddr: 0x1880, symBinAddr: 0x9C10, symSize: 0xC }
  - { offset: 0x88F6E, size: 0x8, addend: 0x0, symName: '__ZNSt3__110__function6__funcIZNK8facebook5react17ImageEventEmitter7onErrorERKNS3_14ImageErrorInfoEE3$_0NS_9allocatorIS8_EEFNS2_3jsi5ValueERNSB_7RuntimeEEED1Ev', symObjAddr: 0x1998, symBinAddr: 0x9C1C, symSize: 0x54 }
  - { offset: 0x8921C, size: 0x8, addend: 0x0, symName: '__ZNSt3__110__function6__funcIZNK8facebook5react17ImageEventEmitter7onErrorERKNS3_14ImageErrorInfoEE3$_0NS_9allocatorIS8_EEFNS2_3jsi5ValueERNSB_7RuntimeEEED0Ev', symObjAddr: 0x19EC, symBinAddr: 0x9C70, symSize: 0x58 }
  - { offset: 0x8967E, size: 0x8, addend: 0x0, symName: '__ZNKSt3__110__function6__funcIZNK8facebook5react17ImageEventEmitter7onErrorERKNS3_14ImageErrorInfoEE3$_0NS_9allocatorIS8_EEFNS2_3jsi5ValueERNSB_7RuntimeEEE7__cloneEv', symObjAddr: 0x1A44, symBinAddr: 0x9CC8, symSize: 0xC8 }
  - { offset: 0x89B5E, size: 0x8, addend: 0x0, symName: '__ZNKSt3__110__function6__funcIZNK8facebook5react17ImageEventEmitter7onErrorERKNS3_14ImageErrorInfoEE3$_0NS_9allocatorIS8_EEFNS2_3jsi5ValueERNSB_7RuntimeEEE7__cloneEPNS0_6__baseISF_EE', symObjAddr: 0x1B0C, symBinAddr: 0x9D90, symSize: 0xAC }
  - { offset: 0x89E1A, size: 0x8, addend: 0x0, symName: '__ZNSt3__110__function6__funcIZNK8facebook5react17ImageEventEmitter7onErrorERKNS3_14ImageErrorInfoEE3$_0NS_9allocatorIS8_EEFNS2_3jsi5ValueERNSB_7RuntimeEEE7destroyEv', symObjAddr: 0x1BB8, symBinAddr: 0x9E3C, symSize: 0x8 }
  - { offset: 0x89E4F, size: 0x8, addend: 0x0, symName: '__ZNSt3__110__function12__alloc_funcIZNK8facebook5react17ImageEventEmitter7onErrorERKNS3_14ImageErrorInfoEE3$_0NS_9allocatorIS8_EEFNS2_3jsi5ValueERNSB_7RuntimeEEE7destroyB8ne200100Ev', symObjAddr: 0x1DA4, symBinAddr: 0xA028, symSize: 0x44 }
  - { offset: 0x8A069, size: 0x8, addend: 0x0, symName: '__ZNSt3__110__function6__funcIZNK8facebook5react17ImageEventEmitter7onErrorERKNS3_14ImageErrorInfoEE3$_0NS_9allocatorIS8_EEFNS2_3jsi5ValueERNSB_7RuntimeEEE18destroy_deallocateEv', symObjAddr: 0x1BC0, symBinAddr: 0x9E44, symSize: 0x28 }
  - { offset: 0x8A285, size: 0x8, addend: 0x0, symName: '__ZNSt3__110__function6__funcIZNK8facebook5react17ImageEventEmitter7onErrorERKNS3_14ImageErrorInfoEE3$_0NS_9allocatorIS8_EEFNS2_3jsi5ValueERNSB_7RuntimeEEEclESE_', symObjAddr: 0x1BE8, symBinAddr: 0x9E6C, symSize: 0x174 }
  - { offset: 0x8A887, size: 0x8, addend: 0x0, symName: __ZNK8facebook3jsi6Object11setPropertyIRKiEEvRNS0_7RuntimeEPKcOT_, symObjAddr: 0x1DE8, symBinAddr: 0xA06C, symSize: 0xA4 }
  - { offset: 0x8AA5B, size: 0x8, addend: 0x0, symName: '__ZNKSt3__110__function6__funcIZNK8facebook5react17ImageEventEmitter7onErrorERKNS3_14ImageErrorInfoEE3$_0NS_9allocatorIS8_EEFNS2_3jsi5ValueERNSB_7RuntimeEEE6targetERKSt9type_info', symObjAddr: 0x1D5C, symBinAddr: 0x9FE0, symSize: 0x3C }
  - { offset: 0x8AAA8, size: 0x8, addend: 0x0, symName: '__ZNKSt3__110__function6__funcIZNK8facebook5react17ImageEventEmitter7onErrorERKNS3_14ImageErrorInfoEE3$_0NS_9allocatorIS8_EEFNS2_3jsi5ValueERNSB_7RuntimeEEE11target_typeEv', symObjAddr: 0x1D98, symBinAddr: 0xA01C, symSize: 0xC }
  - { offset: 0x8AACB, size: 0x8, addend: 0x0, symName: __ZNK8facebook3jsi6Object11setPropertyIRKiEEvRNS0_7RuntimeERKNS0_6StringEOT_, symObjAddr: 0x1E8C, symBinAddr: 0xA110, symSize: 0x6C }
  - { offset: 0x8EE4D, size: 0x8, addend: 0x0, symName: __ZN8facebook5react14convertRawPropINSt3__16vectorINS0_11ImageSourceENS2_9allocatorIS4_EEEES7_EET_RKNS0_18PropsParserContextERKNS0_8RawPropsEPKcRKS8_RKT0_SG_SG_, symObjAddr: 0x824, symBinAddr: 0xA9A0, symSize: 0x22C }
  - { offset: 0x8F470, size: 0x8, addend: 0x0, symName: __ZN8facebook5react14convertRawPropINS0_11ImageSourceES2_EET_RKNS0_18PropsParserContextERKNS0_8RawPropsEPKcRKS3_RKT0_SB_SB_, symObjAddr: 0xA50, symBinAddr: 0xABCC, symSize: 0x22C }
  - { offset: 0x8FA77, size: 0x8, addend: 0x0, symName: __ZN8facebook5react14convertRawPropINS0_15ImageResizeModeES2_EET_RKNS0_18PropsParserContextERKNS0_8RawPropsEPKcRKS3_RKT0_SB_SB_, symObjAddr: 0xCF4, symBinAddr: 0xADF8, symSize: 0x1C4 }
  - { offset: 0x8FF17, size: 0x8, addend: 0x0, symName: __ZN8facebook5react14convertRawPropIddEET_RKNS0_18PropsParserContextERKNS0_8RawPropsEPKcRKS2_RKT0_SA_SA_, symObjAddr: 0xEB8, symBinAddr: 0xAFBC, symSize: 0x1AC }
  - { offset: 0x903C2, size: 0x8, addend: 0x0, symName: __ZN8facebook5react14convertRawPropINS0_14RectangleEdgesIdEES3_EET_RKNS0_18PropsParserContextERKNS0_8RawPropsEPKcRKS4_RKT0_SC_SC_, symObjAddr: 0x1064, symBinAddr: 0xB168, symSize: 0x1D4 }
  - { offset: 0x908A0, size: 0x8, addend: 0x0, symName: __ZN8facebook5react14convertRawPropINS0_11SharedColorES2_EET_RKNS0_18PropsParserContextERKNS0_8RawPropsEPKcRKS3_RKT0_SB_SB_, symObjAddr: 0x1238, symBinAddr: 0xB33C, symSize: 0x22C }
  - { offset: 0x91149, size: 0x8, addend: 0x0, symName: __ZN8facebook5react14convertRawPropINSt3__112basic_stringIcNS2_11char_traitsIcEENS2_9allocatorIcEEEES8_EET_RKNS0_18PropsParserContextERKNS0_8RawPropsEPKcRKS9_RKT0_SH_SH_, symObjAddr: 0x1464, symBinAddr: 0xB568, symSize: 0x23C }
  - { offset: 0x91840, size: 0x8, addend: 0x0, symName: __ZN8facebook5react14convertRawPropIbbEET_RKNS0_18PropsParserContextERKNS0_8RawPropsEPKcRKS2_RKT0_SA_SA_, symObjAddr: 0x16A0, symBinAddr: 0xB7A4, symSize: 0x1A8 }
  - { offset: 0x91CEC, size: 0x8, addend: 0x0, symName: __ZN8facebook5react12fromRawValueINS0_11ImageSourceEEEvRKNS0_18PropsParserContextERKNS0_8RawValueERNSt3__16vectorIT_NS9_9allocatorISB_EEEE, symObjAddr: 0x408C, symBinAddr: 0xCD9C, symSize: 0x27C }
  - { offset: 0x92C25, size: 0x8, addend: 0x0, symName: __ZN8facebook5react12fromRawValueERKNS0_18PropsParserContextERKNS0_8RawValueERNS0_11ImageSourceE, symObjAddr: 0x448C, symBinAddr: 0xD19C, symSize: 0x1290 }
  - { offset: 0x99480, size: 0x8, addend: 0x0, symName: __ZN8facebook5react12fromRawValueERKNS0_18PropsParserContextERKNS0_8RawValueERNS0_15ImageResizeModeE, symObjAddr: 0xA0E8, symBinAddr: 0x121E4, symSize: 0x35C }
  - { offset: 0x99E80, size: 0x8, addend: 0x0, symName: __ZN8facebook5react12fromRawValueERKNS0_18PropsParserContextERKNS0_8RawValueERNS0_14RectangleEdgesIdEE, symObjAddr: 0xA444, symBinAddr: 0x12540, symSize: 0x380 }
  - { offset: 0x9A925, size: 0x8, addend: 0x0, symName: __ZN8facebook5react18fromRawValueSharedERKNS0_16ContextContainerEiRKNS0_8RawValueERNS0_11SharedColorEPFS7_S3_iS6_E, symObjAddr: 0xBB94, symBinAddr: 0x13A50, symSize: 0x5C0 }
  - { offset: 0x9C588, size: 0x8, addend: 0x0, symName: __ZN8facebook5react12fromRawValueINSt3__112basic_stringIcNS2_11char_traitsIcEENS2_9allocatorIcEEEEEEvRKNS0_18PropsParserContextERKNS0_8RawValueERT_, symObjAddr: 0xD158, symBinAddr: 0x14FC0, symSize: 0x50 }
  - { offset: 0x9C737, size: 0x8, addend: 0x0, symName: __ZN8facebook5react12fromRawValueINS0_15ImageResizeModeEEEvRKNS0_18PropsParserContextERKNS0_8RawValueERT_S9_, symObjAddr: 0x2938, symBinAddr: 0xC960, symSize: 0x3C }
  - { offset: 0x9C7A6, size: 0x8, addend: 0x0, symName: __ZN8facebook5react12fromRawValueINS0_15ImageResizeModeEEEvRKNS0_18PropsParserContextERKNS0_8RawValueERT_S9_, symObjAddr: 0x2938, symBinAddr: 0xC960, symSize: 0x3C }
  - { offset: 0x9C7C1, size: 0x8, addend: 0x0, symName: __ZN8facebook5react12fromRawValueINS0_15ImageResizeModeEEEvRKNS0_18PropsParserContextERKNS0_8RawValueERT_S9_, symObjAddr: 0x2938, symBinAddr: 0xC960, symSize: 0x3C }
  - { offset: 0x9C7DD, size: 0x8, addend: 0x0, symName: __ZN8facebook5react12fromRawValueINS0_15ImageResizeModeEEEvRKNS0_18PropsParserContextERKNS0_8RawValueERT_S9_, symObjAddr: 0x2938, symBinAddr: 0xC960, symSize: 0x3C }
  - { offset: 0x9C7F9, size: 0x8, addend: 0x0, symName: __ZN8facebook5react12fromRawValueINS0_15ImageResizeModeEEEvRKNS0_18PropsParserContextERKNS0_8RawValueERT_S9_, symObjAddr: 0x2938, symBinAddr: 0xC960, symSize: 0x3C }
  - { offset: 0x9C905, size: 0x8, addend: 0x0, symName: __ZN8facebook5react12fromRawValueIdEEvRKNS0_18PropsParserContextERKNS0_8RawValueERT_S8_, symObjAddr: 0x2974, symBinAddr: 0xC99C, symSize: 0x54 }
  - { offset: 0x9C919, size: 0x8, addend: 0x0, symName: __ZN8facebook5react12fromRawValueIbEEvRKNS0_18PropsParserContextERKNS0_8RawValueERT_S8_, symObjAddr: 0x2B0C, symBinAddr: 0xCB34, symSize: 0x58 }
  - { offset: 0x9CB20, size: 0x8, addend: 0x0, symName: __ZN8facebook5react12fromRawValueINS0_11ImageSourceEEEvRKNS0_18PropsParserContextERKNS0_8RawValueERT_S9_, symObjAddr: 0x28F8, symBinAddr: 0xC920, symSize: 0x40 }
  - { offset: 0x9CB8F, size: 0x8, addend: 0x0, symName: __ZN8facebook5react12fromRawValueINS0_11ImageSourceEEEvRKNS0_18PropsParserContextERKNS0_8RawValueERT_S9_, symObjAddr: 0x28F8, symBinAddr: 0xC920, symSize: 0x40 }
  - { offset: 0x9CBAA, size: 0x8, addend: 0x0, symName: __ZN8facebook5react12fromRawValueINS0_11ImageSourceEEEvRKNS0_18PropsParserContextERKNS0_8RawValueERT_S9_, symObjAddr: 0x28F8, symBinAddr: 0xC920, symSize: 0x40 }
  - { offset: 0x9CBC6, size: 0x8, addend: 0x0, symName: __ZN8facebook5react12fromRawValueINS0_11ImageSourceEEEvRKNS0_18PropsParserContextERKNS0_8RawValueERT_S9_, symObjAddr: 0x28F8, symBinAddr: 0xC920, symSize: 0x40 }
  - { offset: 0x9CBE2, size: 0x8, addend: 0x0, symName: __ZN8facebook5react12fromRawValueINS0_11ImageSourceEEEvRKNS0_18PropsParserContextERKNS0_8RawValueERT_S9_, symObjAddr: 0x28F8, symBinAddr: 0xC920, symSize: 0x40 }
  - { offset: 0x9CCFC, size: 0x8, addend: 0x0, symName: __ZN8facebook5react12fromRawValueINS0_15ImageResizeModeEEEvRKNS0_18PropsParserContextERKNS0_8RawValueERT_S9_, symObjAddr: 0x2938, symBinAddr: 0xC960, symSize: 0x3C }
  - { offset: 0x9CD10, size: 0x8, addend: 0x0, symName: __ZN8facebook5react12fromRawValueINS0_14RectangleEdgesIdEEEEvRKNS0_18PropsParserContextERKNS0_8RawValueERT_SA_, symObjAddr: 0x29C8, symBinAddr: 0xC9F0, symSize: 0x40 }
  - { offset: 0x9CD7F, size: 0x8, addend: 0x0, symName: __ZN8facebook5react12fromRawValueINS0_14RectangleEdgesIdEEEEvRKNS0_18PropsParserContextERKNS0_8RawValueERT_SA_, symObjAddr: 0x29C8, symBinAddr: 0xC9F0, symSize: 0x40 }
  - { offset: 0x9CD9A, size: 0x8, addend: 0x0, symName: __ZN8facebook5react12fromRawValueINS0_14RectangleEdgesIdEEEEvRKNS0_18PropsParserContextERKNS0_8RawValueERT_SA_, symObjAddr: 0x29C8, symBinAddr: 0xC9F0, symSize: 0x40 }
  - { offset: 0x9CDB6, size: 0x8, addend: 0x0, symName: __ZN8facebook5react12fromRawValueINS0_14RectangleEdgesIdEEEEvRKNS0_18PropsParserContextERKNS0_8RawValueERT_SA_, symObjAddr: 0x29C8, symBinAddr: 0xC9F0, symSize: 0x40 }
  - { offset: 0x9CDD2, size: 0x8, addend: 0x0, symName: __ZN8facebook5react12fromRawValueINS0_14RectangleEdgesIdEEEEvRKNS0_18PropsParserContextERKNS0_8RawValueERT_SA_, symObjAddr: 0x29C8, symBinAddr: 0xC9F0, symSize: 0x40 }
  - { offset: 0x9CEDE, size: 0x8, addend: 0x0, symName: __ZN8facebook5react12fromRawValueINS0_11SharedColorEEEvRKNS0_18PropsParserContextERKNS0_8RawValueERT_S9_, symObjAddr: 0x2A08, symBinAddr: 0xCA30, symSize: 0x84 }
  - { offset: 0x9CEF2, size: 0x8, addend: 0x0, symName: __ZN8facebook5react12fromRawValueINS0_11SharedColorEEEvRKNS0_18PropsParserContextERKNS0_8RawValueERT_S9_, symObjAddr: 0x2A08, symBinAddr: 0xCA30, symSize: 0x84 }
  - { offset: 0x9D180, size: 0x8, addend: 0x0, symName: __ZN8facebook5react12fromRawValueINSt3__112basic_stringIcNS2_11char_traitsIcEENS2_9allocatorIcEEEEEEvRKNS0_18PropsParserContextERKNS0_8RawValueERT_SF_, symObjAddr: 0x2A8C, symBinAddr: 0xCAB4, symSize: 0x80 }
  - { offset: 0x9D194, size: 0x8, addend: 0x0, symName: __ZN8facebook5react12fromRawValueIdEEvRKNS0_18PropsParserContextERKNS0_8RawValueERT_S8_, symObjAddr: 0x2974, symBinAddr: 0xC99C, symSize: 0x54 }
  - { offset: 0x9D385, size: 0x8, addend: 0x0, symName: __ZN8facebook5react12fromRawValueINS0_14RectangleEdgesIdEEEEvRKNS0_18PropsParserContextERKNS0_8RawValueERT_SA_, symObjAddr: 0x29C8, symBinAddr: 0xC9F0, symSize: 0x40 }
  - { offset: 0x9D399, size: 0x8, addend: 0x0, symName: __ZN8facebook5react12fromRawValueINSt3__16vectorINS0_11ImageSourceENS2_9allocatorIS4_EEEEEEvRKNS0_18PropsParserContextERKNS0_8RawValueERT_SE_, symObjAddr: 0x2880, symBinAddr: 0xC8A8, symSize: 0x78 }
  - { offset: 0x9D5C2, size: 0x8, addend: 0x0, symName: __ZN8facebook5react12fromRawValueINS0_11ImageSourceEEEvRKNS0_18PropsParserContextERKNS0_8RawValueERT_S9_, symObjAddr: 0x28F8, symBinAddr: 0xC920, symSize: 0x40 }
  - { offset: 0x9D5D6, size: 0x8, addend: 0x0, symName: __ZN8facebook5react12fromRawValueINSt3__112basic_stringIcNS2_11char_traitsIcEENS2_9allocatorIcEEEEEEvRKNS0_18PropsParserContextERKNS0_8RawValueERT_SF_, symObjAddr: 0x2A8C, symBinAddr: 0xCAB4, symSize: 0x80 }
  - { offset: 0x9D8EB, size: 0x8, addend: 0x0, symName: __ZN8facebook5react12fromRawValueIbEEvRKNS0_18PropsParserContextERKNS0_8RawValueERT_S8_, symObjAddr: 0x2B0C, symBinAddr: 0xCB34, symSize: 0x58 }
  - { offset: 0xB5E23, size: 0x8, addend: 0x0, symName: __ZNSt3__119piecewise_constructE, symObjAddr: 0xED53, symBinAddr: 0x17153, symSize: 0x0 }
  - { offset: 0xBB92C, size: 0x8, addend: 0x0, symName: __ZNSt3__124__put_character_sequenceB8ne200100IcNS_11char_traitsIcEEEERNS_13basic_ostreamIT_T0_EES7_PKS4_m, symObjAddr: 0x9DA8, symBinAddr: 0x11EA4, symSize: 0x168 }
  - { offset: 0xC07FA, size: 0x8, addend: 0x0, symName: __ZNSt3__126__throw_bad_variant_accessB8ne200100Ev, symObjAddr: 0x4308, symBinAddr: 0xD018, symSize: 0x34 }
  - { offset: 0xC0997, size: 0x8, addend: 0x0, symName: __ZNSt3__135__uninitialized_allocator_copy_implB8ne200100INS_9allocatorIN8facebook5react11ImageSourceEEEPS4_S6_S6_EET2_RT_T0_T1_S7_, symObjAddr: 0x2EB8, symBinAddr: 0xCC9C, symSize: 0x84 }
  - { offset: 0xC0B87, size: 0x8, addend: 0x0, symName: __ZNSt3__119__allocate_at_leastB8ne200100INS_9allocatorIN8facebook5react11ImageSourceEEEEENS_19__allocation_resultINS_16allocator_traitsIT_E7pointerEEERS8_m, symObjAddr: 0x2DC8, symBinAddr: 0xCC58, symSize: 0x44 }
  - { offset: 0xC1F8A, size: 0x8, addend: 0x0, symName: __ZNSt3__134__uninitialized_allocator_relocateB8ne200100INS_9allocatorIN8facebook5react11ImageSourceEEEPS4_EEvRT_T0_S9_S9_, symObjAddr: 0x6188, symBinAddr: 0xECA4, symSize: 0xF4 }
  - { offset: 0xC1FE9, size: 0x8, addend: 0x0, symName: __ZNSt3__134__uninitialized_allocator_relocateB8ne200100INS_9allocatorIN8facebook5react11ImageSourceEEEPS4_EEvRT_T0_S9_S9_, symObjAddr: 0x6188, symBinAddr: 0xECA4, symSize: 0xF4 }
  - { offset: 0xC23A4, size: 0x8, addend: 0x0, symName: __ZNSt3__120__throw_out_of_rangeB8ne200100EPKc, symObjAddr: 0x7E70, symBinAddr: 0x1037C, symSize: 0x50 }
  - { offset: 0xC24CD, size: 0x8, addend: 0x0, symName: __ZNSt3__119__allocate_at_leastB8ne200100INS_9allocatorIN8facebook5react8RawValueEEEEENS_19__allocation_resultINS_16allocator_traitsIT_E7pointerEEERS8_m, symObjAddr: 0x5DC4, symBinAddr: 0xE944, symSize: 0x48 }
  - { offset: 0xC2575, size: 0x8, addend: 0x0, symName: __ZNSt3__134__uninitialized_allocator_relocateB8ne200100INS_9allocatorIN8facebook5react8RawValueEEEPS4_EEvRT_T0_S9_S9_, symObjAddr: 0x5E0C, symBinAddr: 0xE98C, symSize: 0x68 }
  - { offset: 0xC2589, size: 0x8, addend: 0x0, symName: __ZNSt3__134__uninitialized_allocator_relocateB8ne200100INS_9allocatorIN8facebook5react8RawValueEEEPS4_EEvRT_T0_S9_S9_, symObjAddr: 0x5E0C, symBinAddr: 0xE98C, symSize: 0x68 }
  - { offset: 0xC25E8, size: 0x8, addend: 0x0, symName: __ZNSt3__134__uninitialized_allocator_relocateB8ne200100INS_9allocatorIN8facebook5react8RawValueEEEPS4_EEvRT_T0_S9_S9_, symObjAddr: 0x5E0C, symBinAddr: 0xE98C, symSize: 0x68 }
  - { offset: 0xC3066, size: 0x8, addend: 0x0, symName: __ZNSt3__1eqB8ne200100IcNS_11char_traitsIcEENS_9allocatorIcEEEEbRKNS_12basic_stringIT_T0_T1_EEPKS6_, symObjAddr: 0x66E0, symBinAddr: 0xF1FC, symSize: 0x80 }
  - { offset: 0xC3773, size: 0x8, addend: 0x0, symName: __ZNSt3__112__destroy_atB8ne200100INS_4pairIKNS_12basic_stringIcNS_11char_traitsIcEENS_9allocatorIcEEEEN8facebook5react8RawValueEEELi0EEEvPT_, symObjAddr: 0x78D4, symBinAddr: 0xFED8, symSize: 0x3C }
  - { offset: 0xC465E, size: 0x8, addend: 0x0, symName: __ZNSt3__116__pad_and_outputB8ne200100IcNS_11char_traitsIcEEEENS_19ostreambuf_iteratorIT_T0_EES6_PKS4_S8_S8_RNS_8ios_baseES4_, symObjAddr: 0x9F10, symBinAddr: 0x1200C, symSize: 0x13C }
  - { offset: 0xC513E, size: 0x8, addend: 0x0, symName: __ZNSt3__119__allocate_at_leastB8ne200100INS_9allocatorIdEEEENS_19__allocation_resultINS_16allocator_traitsIT_E7pointerEEERS5_m, symObjAddr: 0xBB60, symBinAddr: 0x13A1C, symSize: 0x34 }
  - { offset: 0xC51E6, size: 0x8, addend: 0x0, symName: __ZN8facebook5react18fromRawValueSharedERKNS0_16ContextContainerEiRKNS0_8RawValueERNS0_11SharedColorEPFS7_S3_iS6_E, symObjAddr: 0xBB94, symBinAddr: 0x13A50, symSize: 0x5C0 }
  - { offset: 0xC54FB, size: 0x8, addend: 0x0, symName: __ZNSt3__119__allocate_at_leastB8ne200100INS_9allocatorIfEEEENS_19__allocation_resultINS_16allocator_traitsIT_E7pointerEEERS5_m, symObjAddr: 0xD018, symBinAddr: 0x14E80, symSize: 0x34 }
  - { offset: 0xC55A3, size: 0x8, addend: 0x0, symName: __ZNSt3__16vectorIfNS_9allocatorIfEEE20__throw_out_of_rangeB8ne200100Ev, symObjAddr: 0xD04C, symBinAddr: 0x14EB4, symSize: 0x14 }
  - { offset: 0xC9996, size: 0x8, addend: 0x0, symName: __ZN5folly6detail9convertToIdxEENSt3__19enable_ifIXooaa13is_integral_vIT0_Esr3std17is_floating_pointIT_EE5valueaasr3std17is_floating_pointIS4_EE5value13is_integral_vIS5_EENS_8ExpectedIS5_NS_14ConversionCodeEEEE4typeERKS4_, symObjAddr: 0x8078, symBinAddr: 0x10584, symSize: 0xDC }
  - { offset: 0xC9B06, size: 0x8, addend: 0x0, symName: __ZN5folly6detail16throw_exception_INS_17BadExpectedAccessIvEEJEEEvDpT0_, symObjAddr: 0x81B4, symBinAddr: 0x15D50, symSize: 0x40 }
  - { offset: 0xCA1D3, size: 0x8, addend: 0x0, symName: __ZN5folly6detail16throw_exception_INS_17BadExpectedAccessINS_14ConversionCodeEEEJS3_EEEvDpT0_, symObjAddr: 0x8B5C, symBinAddr: 0x15DF8, symSize: 0x44 }
  - { offset: 0xCA35A, size: 0x8, addend: 0x0, symName: __ZN5folly6detail9convertToIxdEENSt3__19enable_ifIXooaa13is_integral_vIT0_Esr3std17is_floating_pointIT_EE5valueaasr3std17is_floating_pointIS4_EE5value13is_integral_vIS5_EENS_8ExpectedIS5_NS_14ConversionCodeEEEE4typeERKS4_, symObjAddr: 0xC424, symBinAddr: 0x142A0, symSize: 0xD4 }
  - { offset: 0xCA58C, size: 0x8, addend: 0x0, symName: __ZN5folly6detail24toAppendDoubleConversionINSt3__112basic_stringIcNS2_11char_traitsIcEENS2_9allocatorIcEEEEdEENS2_9enable_ifIXaasr3std17is_floating_pointIT0_EE5valuesr12IsSomeStringIT_EE5valueEvE4typeESA_PSB_NS_8DtoaModeEjNS_9DtoaFlagsE, symObjAddr: 0xC7FC, symBinAddr: 0x14678, symSize: 0x130 }
  - { offset: 0xCB435, size: 0x8, addend: 0x0, symName: __ZN5folly8identityE, symObjAddr: 0xED54, symBinAddr: 0x17154, symSize: 0x0 }
  - { offset: 0xCC7FC, size: 0x8, addend: 0x0, symName: __ZN5folly2toIdxEENSt3__19enable_ifIXsr6detail14IsArithToArithIT_T0_EE5valueES3_E4typeERKS4_, symObjAddr: 0x8030, symBinAddr: 0x1053C, symSize: 0x48 }
  - { offset: 0xCC9E0, size: 0x8, addend: 0x0, symName: __ZN5folly15throw_exceptionINS_15ConversionErrorEEEvOT_, symObjAddr: 0x824C, symBinAddr: 0x15DC4, symSize: 0x34 }
  - { offset: 0xCCA27, size: 0x8, addend: 0x0, symName: __ZN5folly15throw_exceptionINS_17BadExpectedAccessIvEEEEvOT_, symObjAddr: 0x81F4, symBinAddr: 0x15D90, symSize: 0x34 }
  - { offset: 0xCCA92, size: 0x8, addend: 0x0, symName: __ZN5folly2toINSt3__112basic_stringIcNS1_11char_traitsIcEENS1_9allocatorIcEEEEJA2_cPKcA3_cxELi0EEET_DpRKT0_, symObjAddr: 0x8384, symBinAddr: 0x107E8, symSize: 0x54 }
  - { offset: 0xCCCA6, size: 0x8, addend: 0x0, symName: __ZN5folly11toAppendFitIJA2_cPKcA3_cxPNSt3__112basic_stringIcNS5_11char_traitsIcEENS5_9allocatorIcEEEEELi0EEEvDpRKT_, symObjAddr: 0x83D8, symBinAddr: 0x1083C, symSize: 0x64 }
  - { offset: 0xCCF7C, size: 0x8, addend: 0x0, symName: __ZN5folly8toAppendINSt3__112basic_stringIcNS1_11char_traitsIcEENS1_9allocatorIcEEEEPKcEENS1_9enable_ifIXaasr3std14is_convertibleIT0_S9_EE5valuesr12IsSomeStringIT_EE5valueEvE4typeESB_PSC_, symObjAddr: 0x858C, symBinAddr: 0x109F0, symSize: 0x38 }
  - { offset: 0xCD01C, size: 0x8, addend: 0x0, symName: __ZN5folly8toAppendINSt3__112basic_stringIcNS1_11char_traitsIcEENS1_9allocatorIcEEEExEENS1_9enable_ifIXaaaaaa13is_integral_vIT0_E11is_signed_vIS9_Esr12IsSomeStringIT_EE5valuegestS9_Li4EEvE4typeES9_PSA_, symObjAddr: 0x85C4, symBinAddr: 0x10A28, symSize: 0x84 }
  - { offset: 0xCD16D, size: 0x8, addend: 0x0, symName: __ZN5folly13to_ascii_withILy10ENS_17to_ascii_alphabetILb0EEELm20EEEmRAT1__cy, symObjAddr: 0x8648, symBinAddr: 0x10AAC, symSize: 0xB8 }
  - { offset: 0xCD2BD, size: 0x8, addend: 0x0, symName: __ZN5folly2toINSt3__112basic_stringIcNS1_11char_traitsIcEENS1_9allocatorIcEEEEJA2_cPKcA3_cbELi0EEET_DpRKT0_, symObjAddr: 0x8814, symBinAddr: 0x10C78, symSize: 0x54 }
  - { offset: 0xCD4B7, size: 0x8, addend: 0x0, symName: __ZN5folly11toAppendFitIJA2_cPKcA3_cbPNSt3__112basic_stringIcNS5_11char_traitsIcEENS5_9allocatorIcEEEEELi0EEEvDpRKT_, symObjAddr: 0x8868, symBinAddr: 0x10CCC, symSize: 0x64 }
  - { offset: 0xCD773, size: 0x8, addend: 0x0, symName: __ZN5folly15throw_exceptionINS_17BadExpectedAccessINS_14ConversionCodeEEEEEvOT_, symObjAddr: 0x8BA0, symBinAddr: 0x15E3C, symSize: 0x44 }
  - { offset: 0xCDE18, size: 0x8, addend: 0x0, symName: __ZN5folly2toIxdEENSt3__19enable_ifIXsr6detail14IsArithToArithIT_T0_EE5valueES3_E4typeERKS4_, symObjAddr: 0xC3DC, symBinAddr: 0x14258, symSize: 0x48 }
  - { offset: 0xCDF38, size: 0x8, addend: 0x0, symName: __ZN5folly2toINSt3__112basic_stringIcNS1_11char_traitsIcEENS1_9allocatorIcEEEEJA2_cPKcA3_cdELi0EEET_DpRKT0_, symObjAddr: 0xC60C, symBinAddr: 0x14488, symSize: 0x54 }
  - { offset: 0xCE132, size: 0x8, addend: 0x0, symName: __ZN5folly11toAppendFitIJA2_cPKcA3_cdPNSt3__112basic_stringIcNS5_11char_traitsIcEENS5_9allocatorIcEEEEELi0EEEvDpRKT_, symObjAddr: 0xC660, symBinAddr: 0x144DC, symSize: 0x64 }
  - { offset: 0xCF946, size: 0x8, addend: 0x0, symName: __ZN8facebook5react10ImageProps7setPropERKNS0_18PropsParserContextEjPKcRKNS0_8RawValueE, symObjAddr: 0x2154, symBinAddr: 0xC188, symSize: 0x648 }
  - { offset: 0xCF96C, size: 0x8, addend: 0x0, symName: __ZZN8facebook5react10ImageProps7setPropERKNS0_18PropsParserContextEjPKcRKNS0_8RawValueEE8defaults, symObjAddr: 0x1EDAB0, symBinAddr: 0x200F8, symSize: 0x0 }
  - { offset: 0xD11B2, size: 0x8, addend: 0x0, symName: __ZN5folly6detail18pretty_name_zarrayIdNS0_14pretty_tag_gccEE6zarrayE, symObjAddr: 0xEDAC, symBinAddr: 0x171AC, symSize: 0x0 }
  - { offset: 0xD11F9, size: 0x8, addend: 0x0, symName: __ZN5folly6detail18pretty_name_zarrayIxNS0_14pretty_tag_gccEE6zarrayE, symObjAddr: 0xEDE5, symBinAddr: 0x171E5, symSize: 0x0 }
  - { offset: 0xD2E60, size: 0x8, addend: 0x0, symName: __ZN8facebook5react10ImagePropsC2ERKNS0_18PropsParserContextERKS1_RKNS0_8RawPropsE, symObjAddr: 0x0, symBinAddr: 0xA17C, symSize: 0x824 }
  - { offset: 0xD4F78, size: 0x8, addend: 0x0, symName: __ZNSt3__16vectorIN8facebook5react11ImageSourceENS_9allocatorIS3_EEE16__init_with_sizeB8ne200100IPS3_S8_EEvT_T0_m, symObjAddr: 0x2CE8, symBinAddr: 0xCB8C, symSize: 0x84 }
  - { offset: 0xD5FD1, size: 0x8, addend: 0x0, symName: __ZN8facebook5react14convertRawPropINSt3__16vectorINS0_11ImageSourceENS2_9allocatorIS4_EEEES7_EET_RKNS0_18PropsParserContextERKNS0_8RawPropsEPKcRKS8_RKT0_SG_SG_.cold.1, symObjAddr: 0xD254, symBinAddr: 0x15E80, symSize: 0x50 }
  - { offset: 0xD6075, size: 0x8, addend: 0x0, symName: __ZNK8facebook5react8RawValue8hasValueEv, symObjAddr: 0x4050, symBinAddr: 0xCD60, symSize: 0x3C }
  - { offset: 0xD6099, size: 0x8, addend: 0x0, symName: __ZNK8facebook5react8RawValue8hasValueEv, symObjAddr: 0x4050, symBinAddr: 0xCD60, symSize: 0x3C }
  - { offset: 0xD60B4, size: 0x8, addend: 0x0, symName: __ZNK8facebook5react8RawValue8hasValueEv, symObjAddr: 0x4050, symBinAddr: 0xCD60, symSize: 0x3C }
  - { offset: 0xD60D0, size: 0x8, addend: 0x0, symName: __ZNK8facebook5react8RawValue8hasValueEv, symObjAddr: 0x4050, symBinAddr: 0xCD60, symSize: 0x3C }
  - { offset: 0xD60EC, size: 0x8, addend: 0x0, symName: __ZNK8facebook5react8RawValue8hasValueEv, symObjAddr: 0x4050, symBinAddr: 0xCD60, symSize: 0x3C }
  - { offset: 0xD61EF, size: 0x8, addend: 0x0, symName: __ZN8facebook5react12fromRawValueINS0_11ImageSourceEEEvRKNS0_18PropsParserContextERKNS0_8RawValueERNSt3__16vectorIT_NS9_9allocatorISB_EEEE, symObjAddr: 0x408C, symBinAddr: 0xCD9C, symSize: 0x27C }
  - { offset: 0xD61FA, size: 0x8, addend: 0x0, symName: __ZNK8facebook5react8RawValuecvT_IdEEv, symObjAddr: 0x64C4, symBinAddr: 0xEFE0, symSize: 0x28 }
  - { offset: 0xD6223, size: 0x8, addend: 0x0, symName: __ZNK8facebook5react8RawValuecvT_IdEEv, symObjAddr: 0x64C4, symBinAddr: 0xEFE0, symSize: 0x28 }
  - { offset: 0xD623E, size: 0x8, addend: 0x0, symName: __ZNK8facebook5react8RawValuecvT_IdEEv, symObjAddr: 0x64C4, symBinAddr: 0xEFE0, symSize: 0x28 }
  - { offset: 0xD625A, size: 0x8, addend: 0x0, symName: __ZNK8facebook5react8RawValuecvT_IdEEv, symObjAddr: 0x64C4, symBinAddr: 0xEFE0, symSize: 0x28 }
  - { offset: 0xD6276, size: 0x8, addend: 0x0, symName: __ZNK8facebook5react8RawValuecvT_IdEEv, symObjAddr: 0x64C4, symBinAddr: 0xEFE0, symSize: 0x28 }
  - { offset: 0xD63BB, size: 0x8, addend: 0x0, symName: __ZNK8facebook5react8RawValue7hasTypeINSt3__113unordered_mapINS3_12basic_stringIcNS3_11char_traitsIcEENS3_9allocatorIcEEEESA_NS3_4hashISA_EENS3_8equal_toISA_EENS8_INS3_4pairIKSA_SA_EEEEEEEEbv, symObjAddr: 0x64EC, symBinAddr: 0xF008, symSize: 0x60 }
  - { offset: 0xD6419, size: 0x8, addend: 0x0, symName: __ZN8facebook5react14convertRawPropINS0_11SharedColorES2_EET_RKNS0_18PropsParserContextERKNS0_8RawPropsEPKcRKS3_RKT0_SB_SB_.cold.1, symObjAddr: 0xD2A4, symBinAddr: 0x15ED0, symSize: 0x50 }
  - { offset: 0xD650A, size: 0x8, addend: 0x0, symName: __ZN8facebook5react14convertRawPropINSt3__112basic_stringIcNS2_11char_traitsIcEENS2_9allocatorIcEEEES8_EET_RKNS0_18PropsParserContextERKNS0_8RawPropsEPKcRKS9_RKT0_SH_SH_.cold.1, symObjAddr: 0xD2F4, symBinAddr: 0x15F20, symSize: 0x54 }
  - { offset: 0xD657A, size: 0x8, addend: 0x0, symName: __ZNK8facebook5react8RawValuecvT_IbEEv, symObjAddr: 0xD1A8, symBinAddr: 0x15010, symSize: 0x48 }
  - { offset: 0xD6791, size: 0x8, addend: 0x0, symName: __ZNSt3__16vectorIN8facebook5react11ImageSourceENS_9allocatorIS3_EEE13__vdeallocateEv, symObjAddr: 0xD1F0, symBinAddr: 0x15058, symSize: 0x64 }
  - { offset: 0xD821C, size: 0x8, addend: 0x0, symName: __ZN8facebook5react10ImagePropsC1ERKNS0_18PropsParserContextERKS1_RKNS0_8RawPropsE, symObjAddr: 0x1918, symBinAddr: 0xB94C, symSize: 0x83C }
  - { offset: 0xDA326, size: 0x8, addend: 0x0, symName: __ZN8facebook5react10ImagePropsC1Ev, symObjAddr: 0x279C, symBinAddr: 0xC7D0, symSize: 0xD8 }
  - { offset: 0xDB947, size: 0x8, addend: 0x0, symName: __ZNSt3__16vectorIN8facebook5react11ImageSourceENS_9allocatorIS3_EEE13__vdeallocateEv, symObjAddr: 0xD1F0, symBinAddr: 0x15058, symSize: 0x64 }
  - { offset: 0xDBA9E, size: 0x8, addend: 0x0, symName: __ZN8facebook5react11ImageSourceaSEOS1_, symObjAddr: 0x6300, symBinAddr: 0xEE1C, symSize: 0x110 }
  - { offset: 0xDBF9D, size: 0x8, addend: 0x0, symName: __ZNSt3__110shared_ptrIvEaSB8ne200100EOS1_, symObjAddr: 0xCB04, symBinAddr: 0x14980, symSize: 0x64 }
  - { offset: 0xDC36C, size: 0x8, addend: 0x0, symName: __ZNSt3__16vectorIN8facebook5react11ImageSourceENS_9allocatorIS3_EEE11__vallocateB8ne200100Em, symObjAddr: 0x2D6C, symBinAddr: 0xCC10, symSize: 0x48 }
  - { offset: 0xDC3DB, size: 0x8, addend: 0x0, symName: __ZNSt3__119__allocate_at_leastB8ne200100INS_9allocatorIN8facebook5react11ImageSourceEEEEENS_19__allocation_resultINS_16allocator_traitsIT_E7pointerEEERS8_m, symObjAddr: 0x2DC8, symBinAddr: 0xCC58, symSize: 0x44 }
  - { offset: 0xDCCB6, size: 0x8, addend: 0x0, symName: __ZNSt3__14pairINS_12basic_stringIcNS_11char_traitsIcEENS_9allocatorIcEEEES6_ED1Ev, symObjAddr: 0x3418, symBinAddr: 0xCD20, symSize: 0x40 }
  - { offset: 0xDF48C, size: 0x8, addend: 0x0, symName: __ZNK8facebook5react8RawValue7hasTypeINSt3__16vectorIS1_NS3_9allocatorIS1_EEEEEEbv, symObjAddr: 0x4340, symBinAddr: 0xD050, symSize: 0x3C }
  - { offset: 0xDF63E, size: 0x8, addend: 0x0, symName: __ZNK8facebook5react8RawValuecvT_INSt3__16vectorIS1_NS4_9allocatorIS1_EEEEEEv, symObjAddr: 0x437C, symBinAddr: 0xD08C, symSize: 0x38 }
  - { offset: 0xDF652, size: 0x8, addend: 0x0, symName: __ZNK8facebook5react8RawValuecvT_INSt3__16vectorIS1_NS4_9allocatorIS1_EEEEEEv, symObjAddr: 0x437C, symBinAddr: 0xD08C, symSize: 0x38 }
  - { offset: 0xDF7A2, size: 0x8, addend: 0x0, symName: __ZNSt3__16vectorIN8facebook5react11ImageSourceENS_9allocatorIS3_EEE7reserveEm, symObjAddr: 0x43B4, symBinAddr: 0xD0C4, symSize: 0xD8 }
  - { offset: 0xDF7B6, size: 0x8, addend: 0x0, symName: __ZNSt3__16vectorIN8facebook5react11ImageSourceENS_9allocatorIS3_EEE7reserveEm, symObjAddr: 0x43B4, symBinAddr: 0xD0C4, symSize: 0xD8 }
  - { offset: 0xDF9E1, size: 0x8, addend: 0x0, symName: __ZNSt3__16vectorIN8facebook5react11ImageSourceENS_9allocatorIS3_EEE9push_backB8ne200100ERKS3_, symObjAddr: 0x571C, symBinAddr: 0xE42C, symSize: 0x50 }
  - { offset: 0xDFDA7, size: 0x8, addend: 0x0, symName: __ZNSt18bad_variant_accessD1Ev, symObjAddr: 0x433C, symBinAddr: 0xD04C, symSize: 0x4 }
  - { offset: 0xDFDD5, size: 0x8, addend: 0x0, symName: __ZNSt18bad_variant_accessD1Ev, symObjAddr: 0x433C, symBinAddr: 0xD04C, symSize: 0x4 }
  - { offset: 0xDFEA6, size: 0x8, addend: 0x0, symName: __ZN8facebook5react8RawValue14checkValueTypeIS1_EEbPNS_3jsi7RuntimeERKNS3_5ValueEPNSt3__16vectorIT_NS9_9allocatorISB_EEEE, symObjAddr: 0x576C, symBinAddr: 0xE47C, symSize: 0xEC }
  - { offset: 0xE02AC, size: 0x8, addend: 0x0, symName: __ZN8facebook5react8RawValue9castValueIS1_EENSt3__16vectorIT_NS3_9allocatorIS5_EEEERKN5folly7dynamicEPS8_, symObjAddr: 0x59D4, symBinAddr: 0xE568, symSize: 0x108 }
  - { offset: 0xE0ABA, size: 0x8, addend: 0x0, symName: __ZN8facebook5react8RawValue9castValueIS1_EENSt3__16vectorIT_NS3_9allocatorIS5_EEEEPNS_3jsi7RuntimeERKNS9_5ValueEPS8_, symObjAddr: 0x5ADC, symBinAddr: 0xE670, symSize: 0x1AC }
  - { offset: 0xE1496, size: 0x8, addend: 0x0, symName: __ZNSt3__114__split_bufferIN8facebook5react11ImageSourceERNS_9allocatorIS3_EEED2Ev, symObjAddr: 0x627C, symBinAddr: 0xED98, symSize: 0x4C }
  - { offset: 0xE196D, size: 0x8, addend: 0x0, symName: __ZNK8facebook5react8RawValuecvT_INSt3__112basic_stringIcNS4_11char_traitsIcEENS4_9allocatorIcEEEEEEv, symObjAddr: 0x62C8, symBinAddr: 0xEDE4, symSize: 0x38 }
  - { offset: 0xE1ABD, size: 0x8, addend: 0x0, symName: __ZN8facebook5react11ImageSourceaSEOS1_, symObjAddr: 0x6300, symBinAddr: 0xEE1C, symSize: 0x110 }
  - { offset: 0xE1AD1, size: 0x8, addend: 0x0, symName: __ZNSt3__16vectorINS_4pairINS_12basic_stringIcNS_11char_traitsIcEENS_9allocatorIcEEEES7_EENS5_IS8_EEE13__vdeallocateEv, symObjAddr: 0x6828, symBinAddr: 0xF344, symSize: 0x64 }
  - { offset: 0xE1C20, size: 0x8, addend: 0x0, symName: __ZNK8facebook5react8RawValue7hasTypeINSt3__113unordered_mapINS3_12basic_stringIcNS3_11char_traitsIcEENS3_9allocatorIcEEEES1_NS3_4hashISA_EENS3_8equal_toISA_EENS8_INS3_4pairIKSA_S1_EEEEEEEEbv, symObjAddr: 0x6410, symBinAddr: 0xEF2C, symSize: 0x3C }
  - { offset: 0xE1DD2, size: 0x8, addend: 0x0, symName: __ZNK8facebook5react8RawValuecvT_INSt3__113unordered_mapINS4_12basic_stringIcNS4_11char_traitsIcEENS4_9allocatorIcEEEES1_NS4_4hashISB_EENS4_8equal_toISB_EENS9_INS4_4pairIKSB_S1_EEEEEEEEv, symObjAddr: 0x644C, symBinAddr: 0xEF68, symSize: 0x38 }
  - { offset: 0xE1DE6, size: 0x8, addend: 0x0, symName: __ZNK8facebook5react8RawValuecvT_INSt3__113unordered_mapINS4_12basic_stringIcNS4_11char_traitsIcEENS4_9allocatorIcEEEES1_NS4_4hashISB_EENS4_8equal_toISB_EENS9_INS4_4pairIKSB_S1_EEEEEEEEv, symObjAddr: 0x644C, symBinAddr: 0xEF68, symSize: 0x38 }
  - { offset: 0xE1F36, size: 0x8, addend: 0x0, symName: __ZNK8facebook5react8RawValue7hasTypeIdEEbv, symObjAddr: 0x6484, symBinAddr: 0xEFA0, symSize: 0x40 }
  - { offset: 0xE20C6, size: 0x8, addend: 0x0, symName: __ZN8facebook5react8RawValue9castValueIS1_EENSt3__16vectorIT_NS3_9allocatorIS5_EEEERKN5folly7dynamicEPS8_, symObjAddr: 0x59D4, symBinAddr: 0xE568, symSize: 0x108 }
  - { offset: 0xE2221, size: 0x8, addend: 0x0, symName: __ZNK8facebook5react8RawValue7hasTypeIdEEbv, symObjAddr: 0x6484, symBinAddr: 0xEFA0, symSize: 0x40 }
  - { offset: 0xE224A, size: 0x8, addend: 0x0, symName: __ZNK8facebook5react8RawValue7hasTypeIdEEbv, symObjAddr: 0x6484, symBinAddr: 0xEFA0, symSize: 0x40 }
  - { offset: 0xE2265, size: 0x8, addend: 0x0, symName: __ZNK8facebook5react8RawValue7hasTypeIdEEbv, symObjAddr: 0x6484, symBinAddr: 0xEFA0, symSize: 0x40 }
  - { offset: 0xE2281, size: 0x8, addend: 0x0, symName: __ZNK8facebook5react8RawValue7hasTypeIdEEbv, symObjAddr: 0x6484, symBinAddr: 0xEFA0, symSize: 0x40 }
  - { offset: 0xE229D, size: 0x8, addend: 0x0, symName: __ZNK8facebook5react8RawValue7hasTypeIdEEbv, symObjAddr: 0x6484, symBinAddr: 0xEFA0, symSize: 0x40 }
  - { offset: 0xE2414, size: 0x8, addend: 0x0, symName: __ZNK8facebook5react8RawValuecvT_IdEEv, symObjAddr: 0x64C4, symBinAddr: 0xEFE0, symSize: 0x28 }
  - { offset: 0xE2428, size: 0x8, addend: 0x0, symName: __ZNK8facebook5react8RawValue7hasTypeINSt3__113unordered_mapINS3_12basic_stringIcNS3_11char_traitsIcEENS3_9allocatorIcEEEESA_NS3_4hashISA_EENS3_8equal_toISA_EENS8_INS3_4pairIKSA_SA_EEEEEEEEbv, symObjAddr: 0x64EC, symBinAddr: 0xF008, symSize: 0x60 }
  - { offset: 0xE26E2, size: 0x8, addend: 0x0, symName: __ZNK8facebook5react8RawValuecvT_INSt3__113unordered_mapINS4_12basic_stringIcNS4_11char_traitsIcEENS4_9allocatorIcEEEESB_NS4_4hashISB_EENS4_8equal_toISB_EENS9_INS4_4pairIKSB_SB_EEEEEEEEv, symObjAddr: 0x654C, symBinAddr: 0xF068, symSize: 0x38 }
  - { offset: 0xE26F6, size: 0x8, addend: 0x0, symName: __ZNK8facebook5react8RawValuecvT_INSt3__113unordered_mapINS4_12basic_stringIcNS4_11char_traitsIcEENS4_9allocatorIcEEEESB_NS4_4hashISB_EENS4_8equal_toISB_EENS9_INS4_4pairIKSB_SB_EEEEEEEEv, symObjAddr: 0x654C, symBinAddr: 0xF068, symSize: 0x38 }
  - { offset: 0xE2846, size: 0x8, addend: 0x0, symName: __ZNSt3__16vectorINS_4pairINS_12basic_stringIcNS_11char_traitsIcEENS_9allocatorIcEEEES7_EENS5_IS8_EEE9push_backB8ne200100EOS8_, symObjAddr: 0x6584, symBinAddr: 0xF0A0, symSize: 0x15C }
  - { offset: 0xE285A, size: 0x8, addend: 0x0, symName: __ZNSt3__14pairINS_12basic_stringIcNS_11char_traitsIcEENS_9allocatorIcEEEES6_EC2B8ne200100IKS6_S6_Li0EEERKNS0_IT_T0_EE, symObjAddr: 0x9A80, symBinAddr: 0x11BEC, symSize: 0x90 }
  - { offset: 0xE2A8A, size: 0x8, addend: 0x0, symName: __ZNSt3__16vectorINS_4pairINS_12basic_stringIcNS_11char_traitsIcEENS_9allocatorIcEEEES7_EENS5_IS8_EEE9push_backB8ne200100EOS8_, symObjAddr: 0x6584, symBinAddr: 0xF0A0, symSize: 0x15C }
  - { offset: 0xE2FC3, size: 0x8, addend: 0x0, symName: __ZNSt3__1eqB8ne200100IcNS_11char_traitsIcEENS_9allocatorIcEEEEbRKNS_12basic_stringIT_T0_T1_EEPKS6_, symObjAddr: 0x66E0, symBinAddr: 0xF1FC, symSize: 0x80 }
  - { offset: 0xE2FCE, size: 0x8, addend: 0x0, symName: __ZNSt3__112__hash_tableINS_17__hash_value_typeINS_12basic_stringIcNS_11char_traitsIcEENS_9allocatorIcEEEES7_EENS_22__unordered_map_hasherIS7_S8_NS_4hashIS7_EENS_8equal_toIS7_EELb1EEENS_21__unordered_map_equalIS7_S8_SD_SB_Lb1EEENS5_IS8_EEED2Ev, symObjAddr: 0x9B10, symBinAddr: 0x11C7C, symSize: 0x38 }
  - { offset: 0xE3125, size: 0x8, addend: 0x0, symName: __ZNSt3__112__hash_tableINS_17__hash_value_typeINS_12basic_stringIcNS_11char_traitsIcEENS_9allocatorIcEEEEN8facebook5react8RawValueEEENS_22__unordered_map_hasherIS7_SB_NS_4hashIS7_EENS_8equal_toIS7_EELb1EEENS_21__unordered_map_equalIS7_SB_SG_SE_Lb1EEENS5_ISB_EEED2Ev, symObjAddr: 0x9B98, symBinAddr: 0x11D04, symSize: 0x38 }
  - { offset: 0xE3340, size: 0x8, addend: 0x0, symName: __ZNSt3__16vectorIN8facebook5react11ImageSourceENS_9allocatorIS3_EEE24__emplace_back_slow_pathIJRKS3_EEEPS3_DpOT_, symObjAddr: 0x9C0C, symBinAddr: 0x11D78, symSize: 0x12C }
  - { offset: 0xE3FD2, size: 0x8, addend: 0x0, symName: __ZNSt3__16vectorIN8facebook5react8RawValueENS_9allocatorIS3_EEE7reserveEm, symObjAddr: 0x5C88, symBinAddr: 0xE81C, symSize: 0xE4 }
  - { offset: 0xE41FB, size: 0x8, addend: 0x0, symName: __ZNSt3__16vectorIN8facebook5react8RawValueENS_9allocatorIS3_EEE9push_backB8ne200100EOS3_, symObjAddr: 0x5D6C, symBinAddr: 0xE900, symSize: 0x44 }
  - { offset: 0xE45AF, size: 0x8, addend: 0x0, symName: __ZN8facebook5react8RawValueC2ERNS_3jsi7RuntimeERKNS2_5ValueE, symObjAddr: 0x6110, symBinAddr: 0xEC2C, symSize: 0x78 }
  - { offset: 0xE49E9, size: 0x8, addend: 0x0, symName: __ZNSt3__114__split_bufferIN8facebook5react8RawValueERNS_9allocatorIS3_EEED2Ev, symObjAddr: 0x5F84, symBinAddr: 0xEAA0, symSize: 0x4C }
  - { offset: 0xE4CB9, size: 0x8, addend: 0x0, symName: __ZNSt3__119__allocate_at_leastB8ne200100INS_9allocatorIN8facebook5react8RawValueEEEEENS_19__allocation_resultINS_16allocator_traitsIT_E7pointerEEERS8_m, symObjAddr: 0x5DC4, symBinAddr: 0xE944, symSize: 0x48 }
  - { offset: 0xE4F0B, size: 0x8, addend: 0x0, symName: __ZNSt3__116__variant_detail18__move_constructorINS0_8__traitsIJN5folly7dynamicENS_4pairIPN8facebook3jsi7RuntimeENS7_5ValueEEEEEELNS0_6_TraitE1EEC2B8ne200100EOSE_, symObjAddr: 0x5E74, symBinAddr: 0xE9F4, symSize: 0x34 }
  - { offset: 0xE5011, size: 0x8, addend: 0x0, symName: __ZNSt3__16vectorIN8facebook5react8RawValueENS_9allocatorIS3_EEE24__emplace_back_slow_pathIJS3_EEEPS3_DpOT_, symObjAddr: 0x5FD0, symBinAddr: 0xEAEC, symSize: 0x140 }
  - { offset: 0xE55A4, size: 0x8, addend: 0x0, symName: __ZNSt3__116__variant_detail6__ctorINS0_8__traitsIJN5folly7dynamicENS_4pairIPN8facebook3jsi7RuntimeENS7_5ValueEEEEEEE19__generic_constructB8ne200100INS0_18__move_constructorISC_LNS0_6_TraitE1EEEEEvRSD_OT_, symObjAddr: 0x5EA8, symBinAddr: 0xEA28, symSize: 0x60 }
  - { offset: 0xE5AA1, size: 0x8, addend: 0x0, symName: __ZNSt3__116__variant_detail12__visitation6__base12__dispatcherIJLm0EEE10__dispatchB8ne200100IOZNS0_6__ctorINS0_8__traitsIJN5folly7dynamicENS_4pairIPN8facebook3jsi7RuntimeENSC_5ValueEEEEEEE19__generic_constructB8ne200100INS0_18__move_constructorISH_LNS0_6_TraitE1EEEEEvRSI_OT_EUlSP_E_JONS0_6__baseILSL_1EJS9_SG_EEEEEEDcSO_DpT0_, symObjAddr: 0x5F6C, symBinAddr: 0xEA88, symSize: 0x8 }
  - { offset: 0xE5AD8, size: 0x8, addend: 0x0, symName: __ZNSt3__116__variant_detail12__visitation6__base12__dispatcherIJLm0EEE10__dispatchB8ne200100IOZNS0_6__ctorINS0_8__traitsIJN5folly7dynamicENS_4pairIPN8facebook3jsi7RuntimeENSC_5ValueEEEEEEE19__generic_constructB8ne200100INS0_18__move_constructorISH_LNS0_6_TraitE1EEEEEvRSI_OT_EUlSP_E_JONS0_6__baseILSL_1EJS9_SG_EEEEEEDcSO_DpT0_, symObjAddr: 0x5F6C, symBinAddr: 0xEA88, symSize: 0x8 }
  - { offset: 0xE5AFD, size: 0x8, addend: 0x0, symName: __ZNSt3__116__variant_detail12__visitation6__base12__dispatcherIJLm0EEE10__dispatchB8ne200100IOZNS0_6__ctorINS0_8__traitsIJN5folly7dynamicENS_4pairIPN8facebook3jsi7RuntimeENSC_5ValueEEEEEEE19__generic_constructB8ne200100INS0_18__move_constructorISH_LNS0_6_TraitE1EEEEEvRSI_OT_EUlSP_E_JONS0_6__baseILSL_1EJS9_SG_EEEEEEDcSO_DpT0_, symObjAddr: 0x5F6C, symBinAddr: 0xEA88, symSize: 0x8 }
  - { offset: 0xE5E15, size: 0x8, addend: 0x0, symName: __ZNSt3__116__variant_detail12__visitation6__base12__dispatcherIJLm1EEE10__dispatchB8ne200100IOZNS0_6__ctorINS0_8__traitsIJN5folly7dynamicENS_4pairIPN8facebook3jsi7RuntimeENSC_5ValueEEEEEEE19__generic_constructB8ne200100INS0_18__move_constructorISH_LNS0_6_TraitE1EEEEEvRSI_OT_EUlSP_E_JONS0_6__baseILSL_1EJS9_SG_EEEEEEDcSO_DpT0_, symObjAddr: 0x5F74, symBinAddr: 0xEA90, symSize: 0x10 }
  - { offset: 0xE5E4E, size: 0x8, addend: 0x0, symName: __ZNSt3__116__variant_detail12__visitation6__base12__dispatcherIJLm1EEE10__dispatchB8ne200100IOZNS0_6__ctorINS0_8__traitsIJN5folly7dynamicENS_4pairIPN8facebook3jsi7RuntimeENSC_5ValueEEEEEEE19__generic_constructB8ne200100INS0_18__move_constructorISH_LNS0_6_TraitE1EEEEEvRSI_OT_EUlSP_E_JONS0_6__baseILSL_1EJS9_SG_EEEEEEDcSO_DpT0_, symObjAddr: 0x5F74, symBinAddr: 0xEA90, symSize: 0x10 }
  - { offset: 0xE5E75, size: 0x8, addend: 0x0, symName: __ZNSt3__116__variant_detail12__visitation6__base12__dispatcherIJLm1EEE10__dispatchB8ne200100IOZNS0_6__ctorINS0_8__traitsIJN5folly7dynamicENS_4pairIPN8facebook3jsi7RuntimeENSC_5ValueEEEEEEE19__generic_constructB8ne200100INS0_18__move_constructorISH_LNS0_6_TraitE1EEEEEvRSI_OT_EUlSP_E_JONS0_6__baseILSL_1EJS9_SG_EEEEEEDcSO_DpT0_, symObjAddr: 0x5F74, symBinAddr: 0xEA90, symSize: 0x10 }
  - { offset: 0xE65CF, size: 0x8, addend: 0x0, symName: __ZN8facebook5react8RawValue9castValueERKN5folly7dynamicEPNSt3__112basic_stringIcNS6_11char_traitsIcEENS6_9allocatorIcEEEE, symObjAddr: 0x6760, symBinAddr: 0xF27C, symSize: 0x44 }
  - { offset: 0xE6649, size: 0x8, addend: 0x0, symName: __ZN8facebook5react8RawValue9castValueERKN5folly7dynamicEPNSt3__112basic_stringIcNS6_11char_traitsIcEENS6_9allocatorIcEEEE, symObjAddr: 0x6760, symBinAddr: 0xF27C, symSize: 0x44 }
  - { offset: 0xE66E6, size: 0x8, addend: 0x0, symName: __ZN8facebook5react8RawValue9castValueEPNS_3jsi7RuntimeERKNS2_5ValueEPNSt3__112basic_stringIcNS8_11char_traitsIcEENS8_9allocatorIcEEEE, symObjAddr: 0x67A4, symBinAddr: 0xF2C0, symSize: 0x84 }
  - { offset: 0xE66F1, size: 0x8, addend: 0x0, symName: __ZN8facebook5react8RawValue9castValueEPNS_3jsi7RuntimeERKNS2_5ValueEPNSt3__112basic_stringIcNS8_11char_traitsIcEENS8_9allocatorIcEEEE, symObjAddr: 0x67A4, symBinAddr: 0xF2C0, symSize: 0x84 }
  - { offset: 0xE6911, size: 0x8, addend: 0x0, symName: __ZN8facebook5react8RawValue14checkValueTypeIS1_EEbPNS_3jsi7RuntimeERKNS3_5ValueEPNSt3__113unordered_mapINS9_12basic_stringIcNS9_11char_traitsIcEENS9_9allocatorIcEEEET_NS9_4hashISG_EENS9_8equal_toISG_EENSE_INS9_4pairIKSG_SH_EEEEEE, symObjAddr: 0x688C, symBinAddr: 0xF3A8, symSize: 0x164 }
  - { offset: 0xE6E99, size: 0x8, addend: 0x0, symName: __ZN8facebook5react8RawValue9castValueIS1_EENSt3__113unordered_mapINS3_12basic_stringIcNS3_11char_traitsIcEENS3_9allocatorIcEEEET_NS3_4hashISA_EENS3_8equal_toISA_EENS8_INS3_4pairIKSA_SB_EEEEEERKN5folly7dynamicEPSK_, symObjAddr: 0x69F0, symBinAddr: 0xF50C, symSize: 0x138 }
  - { offset: 0xE76E0, size: 0x8, addend: 0x0, symName: __ZN8facebook5react8RawValue9castValueIS1_EENSt3__113unordered_mapINS3_12basic_stringIcNS3_11char_traitsIcEENS3_9allocatorIcEEEET_NS3_4hashISA_EENS3_8equal_toISA_EENS8_INS3_4pairIKSA_SB_EEEEEEPNS_3jsi7RuntimeERKNSL_5ValueEPSK_, symObjAddr: 0x6B28, symBinAddr: 0xF644, symSize: 0x264 }
  - { offset: 0xE862D, size: 0x8, addend: 0x0, symName: __ZNK5folly7dynamic6asImplIdEET_v, symObjAddr: 0x7EE4, symBinAddr: 0x103F0, symSize: 0x14C }
  - { offset: 0xE8A39, size: 0x8, addend: 0x0, symName: __ZN5folly2toIdxEENSt3__19enable_ifIXsr6detail14IsArithToArithIT_T0_EE5valueES3_E4typeERKS4_, symObjAddr: 0x8030, symBinAddr: 0x1053C, symSize: 0x48 }
  - { offset: 0xE8B68, size: 0x8, addend: 0x0, symName: __ZN8facebook5react8RawValue14checkValueTypeINSt3__112basic_stringIcNS3_11char_traitsIcEENS3_9allocatorIcEEEEEEbPNS_3jsi7RuntimeERKNSA_5ValueEPNS3_13unordered_mapIS9_T_NS3_4hashIS9_EENS3_8equal_toIS9_EENS7_INS3_4pairIKS9_SH_EEEEEE, symObjAddr: 0x8C7C, symBinAddr: 0x11058, symSize: 0x17C }
  - { offset: 0xE9138, size: 0x8, addend: 0x0, symName: __ZN8facebook5react8RawValue9castValueINSt3__112basic_stringIcNS3_11char_traitsIcEENS3_9allocatorIcEEEEEENS3_13unordered_mapIS9_T_NS3_4hashIS9_EENS3_8equal_toIS9_EENS7_INS3_4pairIKS9_SB_EEEEEERKN5folly7dynamicEPSK_, symObjAddr: 0x8DF8, symBinAddr: 0x111D4, symSize: 0x118 }
  - { offset: 0xE9661, size: 0x8, addend: 0x0, symName: __ZN8facebook5react8RawValue9castValueINSt3__112basic_stringIcNS3_11char_traitsIcEENS3_9allocatorIcEEEEEENS3_13unordered_mapIS9_T_NS3_4hashIS9_EENS3_8equal_toIS9_EENS7_INS3_4pairIKS9_SB_EEEEEEPNS_3jsi7RuntimeERKNSL_5ValueEPSK_, symObjAddr: 0x8F10, symBinAddr: 0x112EC, symSize: 0x254 }
  - { offset: 0xEA550, size: 0x8, addend: 0x0, symName: __ZNSt3__114__split_bufferINS_4pairINS_12basic_stringIcNS_11char_traitsIcEENS_9allocatorIcEEEES7_EERNS5_IS8_EEED2Ev, symObjAddr: 0x9A34, symBinAddr: 0x11BA0, symSize: 0x4C }
  - { offset: 0xEA69D, size: 0x8, addend: 0x0, symName: __ZNSt3__112basic_stringIcNS_11char_traitsIcEENS_9allocatorIcEEE20__throw_out_of_rangeB8ne200100Ev, symObjAddr: 0x9B84, symBinAddr: 0x11CF0, symSize: 0x14 }
  - { offset: 0xEA6B5, size: 0x8, addend: 0x0, symName: __ZNSt3__112__hash_tableINS_17__hash_value_typeINS_12basic_stringIcNS_11char_traitsIcEENS_9allocatorIcEEEEN8facebook5react8RawValueEEENS_22__unordered_map_hasherIS7_SB_NS_4hashIS7_EENS_8equal_toIS7_EELb1EEENS_21__unordered_map_equalIS7_SB_SG_SE_Lb1EEENS5_ISB_EEED2Ev, symObjAddr: 0x9B98, symBinAddr: 0x11D04, symSize: 0x38 }
  - { offset: 0xEA726, size: 0x8, addend: 0x0, symName: __ZN8facebook5react8RawValue9castValueERKN5folly7dynamicEPNSt3__112basic_stringIcNS6_11char_traitsIcEENS6_9allocatorIcEEEE.cold.1, symObjAddr: 0xD348, symBinAddr: 0x15F74, symSize: 0x1C }
  - { offset: 0xEA9D5, size: 0x8, addend: 0x0, symName: __ZNSt3__112__hash_tableINS_17__hash_value_typeINS_12basic_stringIcNS_11char_traitsIcEENS_9allocatorIcEEEEN8facebook5react8RawValueEEENS_22__unordered_map_hasherIS7_SB_NS_4hashIS7_EENS_8equal_toIS7_EELb1EEENS_21__unordered_map_equalIS7_SB_SG_SE_Lb1EEENS5_ISB_EEE25__emplace_unique_key_argsIS7_JRKNS_21piecewise_construct_tENS_5tupleIJRKS7_EEENSQ_IJEEEEEENS_4pairINS_15__hash_iteratorIPNS_11__hash_nodeISB_PvEEEEbEERKT_DpOT0_, symObjAddr: 0x6DC0, symBinAddr: 0xF8DC, symSize: 0x268 }
  - { offset: 0xEAEA0, size: 0x8, addend: 0x0, symName: __ZN8facebook5react8RawValueaSEOS1_, symObjAddr: 0x6D8C, symBinAddr: 0xF8A8, symSize: 0x34 }
  - { offset: 0xEB076, size: 0x8, addend: 0x0, symName: __ZNSt3__112__hash_tableINS_17__hash_value_typeINS_12basic_stringIcNS_11char_traitsIcEENS_9allocatorIcEEEEN8facebook5react8RawValueEEENS_22__unordered_map_hasherIS7_SB_NS_4hashIS7_EENS_8equal_toIS7_EELb1EEENS_21__unordered_map_equalIS7_SB_SG_SE_Lb1EEENS5_ISB_EEE25__emplace_unique_key_argsIS7_JRS7_SA_EEENS_4pairINS_15__hash_iteratorIPNS_11__hash_nodeISB_PvEEEEbEERKT_DpOT0_, symObjAddr: 0x7A48, symBinAddr: 0x1004C, symSize: 0x258 }
  - { offset: 0xEB5A4, size: 0x8, addend: 0x0, symName: __ZNSt3__116__variant_detail12__assignmentINS0_8__traitsIJN5folly7dynamicENS_4pairIPN8facebook3jsi7RuntimeENS7_5ValueEEEEEEE16__generic_assignB8ne200100INS0_17__move_assignmentISC_LNS0_6_TraitE1EEEEEvOT_, symObjAddr: 0x7910, symBinAddr: 0xFF14, symSize: 0x5C }
  - { offset: 0xEBA0D, size: 0x8, addend: 0x0, symName: __ZNSt3__112__hash_tableINS_17__hash_value_typeINS_12basic_stringIcNS_11char_traitsIcEENS_9allocatorIcEEEEN8facebook5react8RawValueEEENS_22__unordered_map_hasherIS7_SB_NS_4hashIS7_EENS_8equal_toIS7_EELb1EEENS_21__unordered_map_equalIS7_SB_SG_SE_Lb1EEENS5_ISB_EEE21__construct_node_hashIRKNS_21piecewise_construct_tEJNS_5tupleIJRKS7_EEENSQ_IJEEEEEENS_10unique_ptrINS_11__hash_nodeISB_PvEENS_22__hash_node_destructorINS5_ISY_EEEEEEmOT_DpOT0_, symObjAddr: 0x7028, symBinAddr: 0xFB44, symSize: 0x80 }
  - { offset: 0xEBD7E, size: 0x8, addend: 0x0, symName: __ZNSt3__112__hash_tableINS_17__hash_value_typeINS_12basic_stringIcNS_11char_traitsIcEENS_9allocatorIcEEEEN8facebook5react8RawValueEEENS_22__unordered_map_hasherIS7_SB_NS_4hashIS7_EENS_8equal_toIS7_EELb1EEENS_21__unordered_map_equalIS7_SB_SG_SE_Lb1EEENS5_ISB_EEE8__rehashILb1EEEvm, symObjAddr: 0x7660, symBinAddr: 0xFC64, symSize: 0xDC }
  - { offset: 0xEBE77, size: 0x8, addend: 0x0, symName: __ZNSt3__110unique_ptrINS_11__hash_nodeINS_17__hash_value_typeINS_12basic_stringIcNS_11char_traitsIcEENS_9allocatorIcEEEEN8facebook5react8RawValueEEEPvEENS_22__hash_node_destructorINS6_ISE_EEEEE5resetB8ne200100EPSE_, symObjAddr: 0x788C, symBinAddr: 0xFE90, symSize: 0x48 }
  - { offset: 0xEC294, size: 0x8, addend: 0x0, symName: __ZNSt3__14pairIKNS_12basic_stringIcNS_11char_traitsIcEENS_9allocatorIcEEEEN8facebook5react8RawValueEEC2B8ne200100IJRS7_EJEJLm0EEJEEENS_21piecewise_construct_tERNS_5tupleIJDpT_EEERNSF_IJDpT0_EEENS_15__tuple_indicesIJXspT1_EEEENSO_IJXspT2_EEEE, symObjAddr: 0x75C0, symBinAddr: 0xFBC4, symSize: 0xA0 }
  - { offset: 0xED221, size: 0x8, addend: 0x0, symName: __ZNSt3__112__hash_tableINS_17__hash_value_typeINS_12basic_stringIcNS_11char_traitsIcEENS_9allocatorIcEEEEN8facebook5react8RawValueEEENS_22__unordered_map_hasherIS7_SB_NS_4hashIS7_EENS_8equal_toIS7_EELb1EEENS_21__unordered_map_equalIS7_SB_SG_SE_Lb1EEENS5_ISB_EEE11__do_rehashILb1EEEvm, symObjAddr: 0x773C, symBinAddr: 0xFD40, symSize: 0x150 }
  - { offset: 0xED62D, size: 0x8, addend: 0x0, symName: __ZNSt3__110unique_ptrINS_11__hash_nodeINS_17__hash_value_typeINS_12basic_stringIcNS_11char_traitsIcEENS_9allocatorIcEEEEN8facebook5react8RawValueEEEPvEENS_22__hash_node_destructorINS6_ISE_EEEEE5resetB8ne200100EPSE_, symObjAddr: 0x788C, symBinAddr: 0xFE90, symSize: 0x48 }
  - { offset: 0xED98B, size: 0x8, addend: 0x0, symName: __ZNSt3__116__variant_detail12__visitation6__base12__dispatcherIJLm0ELm0EEE10__dispatchB8ne200100IOZNS0_12__assignmentINS0_8__traitsIJN5folly7dynamicENS_4pairIPN8facebook3jsi7RuntimeENSC_5ValueEEEEEEE16__generic_assignB8ne200100INS0_17__move_assignmentISH_LNS0_6_TraitE1EEEEEvOT_EUlRSN_OT0_E_JRNS0_6__baseILSL_1EJS9_SG_EEEOSV_EEEDcSN_DpT0_, symObjAddr: 0x796C, symBinAddr: 0xFF70, symSize: 0x8 }
  - { offset: 0xEDA4F, size: 0x8, addend: 0x0, symName: __ZNSt3__116__variant_detail12__assignmentINS0_8__traitsIJN5folly7dynamicENS_4pairIPN8facebook3jsi7RuntimeENS7_5ValueEEEEEEE12__assign_altB8ne200100ILm0ES4_S4_EEvRNS0_5__altIXT_ET0_EEOT1_, symObjAddr: 0x797C, symBinAddr: 0xFF80, symSize: 0x50 }
  - { offset: 0xEDC9D, size: 0x8, addend: 0x0, symName: __ZNSt3__116__variant_detail12__visitation6__base12__dispatcherIJLm1ELm1EEE10__dispatchB8ne200100IOZNS0_12__assignmentINS0_8__traitsIJN5folly7dynamicENS_4pairIPN8facebook3jsi7RuntimeENSC_5ValueEEEEEEE16__generic_assignB8ne200100INS0_17__move_assignmentISH_LNS0_6_TraitE1EEEEEvOT_EUlRSN_OT0_E_JRNS0_6__baseILSL_1EJS9_SG_EEEOSV_EEEDcSN_DpT0_, symObjAddr: 0x7974, symBinAddr: 0xFF78, symSize: 0x8 }
  - { offset: 0xEDD61, size: 0x8, addend: 0x0, symName: __ZNSt3__116__variant_detail12__assignmentINS0_8__traitsIJN5folly7dynamicENS_4pairIPN8facebook3jsi7RuntimeENS7_5ValueEEEEEEE12__assign_altB8ne200100ILm1ESB_SB_EEvRNS0_5__altIXT_ET0_EEOT1_, symObjAddr: 0x79CC, symBinAddr: 0xFFD0, symSize: 0x7C }
  - { offset: 0xEE17D, size: 0x8, addend: 0x0, symName: __ZNSt3__112__hash_tableINS_17__hash_value_typeINS_12basic_stringIcNS_11char_traitsIcEENS_9allocatorIcEEEEN8facebook5react8RawValueEEENS_22__unordered_map_hasherIS7_SB_NS_4hashIS7_EENS_8equal_toIS7_EELb1EEENS_21__unordered_map_equalIS7_SB_SG_SE_Lb1EEENS5_ISB_EEE21__construct_node_hashIRS7_JSA_EEENS_10unique_ptrINS_11__hash_nodeISB_PvEENS_22__hash_node_destructorINS5_ISR_EEEEEEmOT_DpOT0_, symObjAddr: 0x7CA0, symBinAddr: 0x102A4, symSize: 0x7C }
  - { offset: 0xEE569, size: 0x8, addend: 0x0, symName: __ZNSt3__14pairIKNS_12basic_stringIcNS_11char_traitsIcEENS_9allocatorIcEEEEN8facebook5react8RawValueEEC2B8ne200100IRS6_SA_Li0EEEOT_OT0_, symObjAddr: 0x7D1C, symBinAddr: 0x10320, symSize: 0x5C }
  - { offset: 0xEE79D, size: 0x8, addend: 0x0, symName: __ZNSt12out_of_rangeC1B8ne200100EPKc, symObjAddr: 0x7EC0, symBinAddr: 0x103CC, symSize: 0x24 }
  - { offset: 0xEECB1, size: 0x8, addend: 0x0, symName: __ZN5folly15expected_detail30expected_detail_ExpectedHelper14ExpectedHelper12thenOrThrow_INS0_15ExpectedStorageIdNS_14ConversionCodeELNS0_11StorageTypeE0EEERKNS_11identity_fnEZNS_2toIdbEENSt3__19enable_ifIXsr6detail14IsArithToArithIT_T0_EE5valueESE_E4typeERKSF_EUlS5_E_OdNS_15ConversionErrorELb0ELi0EEET2_OSE_OSF_OT1_, symObjAddr: 0x8700, symBinAddr: 0x10B64, symSize: 0x60 }
  - { offset: 0xEEDDD, size: 0x8, addend: 0x0, symName: __ZN5folly15expected_detail30expected_detail_ExpectedHelper14ExpectedHelper12thenOrThrow_IRNS0_15ExpectedStorageINS_5RangeIPKcEENS_14ConversionCodeELNS0_11StorageTypeE1EEENS_6detail18CheckTrailingSpaceEZNS_2toIdEENSt3__19enable_ifIXntsr3std7is_sameIS8_T_EE5valueESI_E4typeES8_EUlS9_E_NS_8ExpectedINS_4UnitES9_EEvLb0ELi0EEET2_OSI_OT0_OT1_, symObjAddr: 0x8A58, symBinAddr: 0x10EBC, symSize: 0x2C }
  - { offset: 0xEEE36, size: 0x8, addend: 0x0, symName: __ZNK5folly6detail18CheckTrailingSpaceclENS_5RangeIPKcEE, symObjAddr: 0x8A84, symBinAddr: 0x10EE8, symSize: 0x90 }
  - { offset: 0xEEE7B, size: 0x8, addend: 0x0, symName: __ZNK5folly7dynamic6asImplIdEET_v.cold.1, symObjAddr: 0xD364, symBinAddr: 0x15F90, symSize: 0x24 }
  - { offset: 0xEEF50, size: 0x8, addend: 0x0, symName: __ZN5folly15expected_detail30expected_detail_ExpectedHelper14ExpectedHelper12thenOrThrow_INS0_15ExpectedStorageIdNS_14ConversionCodeELNS0_11StorageTypeE0EEERKNS_11identity_fnEZNS_2toIdxEENSt3__19enable_ifIXsr6detail14IsArithToArithIT_T0_EE5valueESE_E4typeERKSF_EUlS5_E_OdNS_15ConversionErrorELb0ELi0EEET2_OSE_OSF_OT1_, symObjAddr: 0x8154, symBinAddr: 0x10660, symSize: 0x60 }
  - { offset: 0xEF11B, size: 0x8, addend: 0x0, symName: __ZZN5folly2toIdxEENSt3__19enable_ifIXsr6detail14IsArithToArithIT_T0_EE5valueES3_E4typeERKS4_ENKUlNS_14ConversionCodeEE_clES9_, symObjAddr: 0x8280, symBinAddr: 0x106E4, symSize: 0xB4 }
  - { offset: 0xEF500, size: 0x8, addend: 0x0, symName: __ZN5folly17BadExpectedAccessIvED1Ev, symObjAddr: 0x8228, symBinAddr: 0x106C0, symSize: 0x4 }
  - { offset: 0xEF522, size: 0x8, addend: 0x0, symName: __ZN5folly17BadExpectedAccessIvED1Ev, symObjAddr: 0x8228, symBinAddr: 0x106C0, symSize: 0x4 }
  - { offset: 0xEF53C, size: 0x8, addend: 0x0, symName: __ZN5folly17BadExpectedAccessIvED0Ev, symObjAddr: 0x822C, symBinAddr: 0x106C4, symSize: 0x14 }
  - { offset: 0xEF59F, size: 0x8, addend: 0x0, symName: __ZNK5folly17BadExpectedAccessIvE4whatEv, symObjAddr: 0x8240, symBinAddr: 0x106D8, symSize: 0xC }
  - { offset: 0xEF5CC, size: 0x8, addend: 0x0, symName: __ZN5folly15ConversionErrorC1EOS0_, symObjAddr: 0x8338, symBinAddr: 0x1079C, symSize: 0x38 }
  - { offset: 0xEF6F5, size: 0x8, addend: 0x0, symName: __ZN5folly15ConversionErrorD1Ev, symObjAddr: 0x8334, symBinAddr: 0x10798, symSize: 0x4 }
  - { offset: 0xEF717, size: 0x8, addend: 0x0, symName: __ZN5folly15ConversionErrorD1Ev, symObjAddr: 0x8334, symBinAddr: 0x10798, symSize: 0x4 }
  - { offset: 0xEF732, size: 0x8, addend: 0x0, symName: __ZN5folly15ConversionErrorD1Ev, symObjAddr: 0x8334, symBinAddr: 0x10798, symSize: 0x4 }
  - { offset: 0xEF7BD, size: 0x8, addend: 0x0, symName: __ZN5folly15ConversionErrorD0Ev, symObjAddr: 0x8370, symBinAddr: 0x107D4, symSize: 0x14 }
  - { offset: 0xEF879, size: 0x8, addend: 0x0, symName: __ZN5folly6detail25EstimateSpaceToReserveAllINSt3__116integer_sequenceImJLm0ELm1ELm2ELm3ELm4EEEEE4callIJA2_cPKcA3_cxPNS2_12basic_stringIcNS2_11char_traitsIcEENS2_9allocatorIcEEEEEEEmDpRKT_, symObjAddr: 0x843C, symBinAddr: 0x108A0, symSize: 0xD4 }
  - { offset: 0xEFA79, size: 0x8, addend: 0x0, symName: __ZN5folly6detail18ToAppendStrImplAllINSt3__116integer_sequenceImJLm0ELm1ELm2ELm3ELm4EEEEE4callIJA2_cPKcA3_cxPNS2_12basic_stringIcNS2_11char_traitsIcEENS2_9allocatorIcEEEEEEEvDpRKT_, symObjAddr: 0x8510, symBinAddr: 0x10974, symSize: 0x7C }
  - { offset: 0xEFD51, size: 0x8, addend: 0x0, symName: __ZZN5folly2toIdbEENSt3__19enable_ifIXsr6detail14IsArithToArithIT_T0_EE5valueES3_E4typeERKS4_ENKUlNS_14ConversionCodeEE_clES9_, symObjAddr: 0x8760, symBinAddr: 0x10BC4, symSize: 0xB4 }
  - { offset: 0xF0080, size: 0x8, addend: 0x0, symName: __ZN5folly6detail25EstimateSpaceToReserveAllINSt3__116integer_sequenceImJLm0ELm1ELm2ELm3ELm4EEEEE4callIJA2_cPKcA3_cbPNS2_12basic_stringIcNS2_11char_traitsIcEENS2_9allocatorIcEEEEEEEmDpRKT_, symObjAddr: 0x88CC, symBinAddr: 0x10D30, symSize: 0xC8 }
  - { offset: 0xF028E, size: 0x8, addend: 0x0, symName: __ZN5folly6detail18ToAppendStrImplAllINSt3__116integer_sequenceImJLm0ELm1ELm2ELm3ELm4EEEEE4callIJA2_cPKcA3_cbPNS2_12basic_stringIcNS2_11char_traitsIcEENS2_9allocatorIcEEEEEEEvDpRKT_, symObjAddr: 0x8994, symBinAddr: 0x10DF8, symSize: 0xC4 }
  - { offset: 0xF05C6, size: 0x8, addend: 0x0, symName: __ZNK5folly6detail18CheckTrailingSpaceclENS_5RangeIPKcEE, symObjAddr: 0x8A84, symBinAddr: 0x10EE8, symSize: 0x90 }
  - { offset: 0xF0609, size: 0x8, addend: 0x0, symName: __ZNK5folly6detail18CheckTrailingSpaceclENS_5RangeIPKcEE, symObjAddr: 0x8A84, symBinAddr: 0x10EE8, symSize: 0x90 }
  - { offset: 0xF0624, size: 0x8, addend: 0x0, symName: __ZNK5folly6detail18CheckTrailingSpaceclENS_5RangeIPKcEE, symObjAddr: 0x8A84, symBinAddr: 0x10EE8, symSize: 0x90 }
  - { offset: 0xF06A4, size: 0x8, addend: 0x0, symName: __ZN5folly15expected_detail30expected_detail_ExpectedHelper14ExpectedHelper12thenOrThrow_IRNS0_15ExpectedStorageINS_5RangeIPKcEENS_14ConversionCodeELNS0_11StorageTypeE1EEENS_6detail18CheckTrailingSpaceEZNS_2toIdEENSt3__19enable_ifIXntsr3std7is_sameIS8_T_EE5valueESI_E4typeES8_EUlS9_E_NS_8ExpectedINS_4UnitES9_EEvLb0ELi0EEET2_OSI_OT0_OT1_.cold.1, symObjAddr: 0xD388, symBinAddr: 0x15FB4, symSize: 0x28 }
  - { offset: 0xF0747, size: 0x8, addend: 0x0, symName: __ZZN5folly2toIdEENSt3__19enable_ifIXntsr3std7is_sameINS_5RangeIPKcEET_EE5valueES7_E4typeES6_ENKUlNS_14ConversionCodeEE_clESA_, symObjAddr: 0x8B14, symBinAddr: 0x10F78, symSize: 0x48 }
  - { offset: 0xF08DD, size: 0x8, addend: 0x0, symName: __ZN5folly17BadExpectedAccessINS_14ConversionCodeEED1Ev, symObjAddr: 0x8BE4, symBinAddr: 0x10FC0, symSize: 0x4 }
  - { offset: 0xF08FF, size: 0x8, addend: 0x0, symName: __ZN5folly17BadExpectedAccessINS_14ConversionCodeEED1Ev, symObjAddr: 0x8BE4, symBinAddr: 0x10FC0, symSize: 0x4 }
  - { offset: 0xF091A, size: 0x8, addend: 0x0, symName: __ZN5folly17BadExpectedAccessINS_14ConversionCodeEED1Ev, symObjAddr: 0x8BE4, symBinAddr: 0x10FC0, symSize: 0x4 }
  - { offset: 0xF0935, size: 0x8, addend: 0x0, symName: __ZN5folly17BadExpectedAccessINS_14ConversionCodeEED0Ev, symObjAddr: 0x8BE8, symBinAddr: 0x10FC4, symSize: 0x14 }
  - { offset: 0xF09D5, size: 0x8, addend: 0x0, symName: __ZZN5folly2toIdEENSt3__19enable_ifIXntsr3std7is_sameINS_5RangeIPKcEET_EE5valueES7_E4typeES6_ENKUlNS_14ConversionCodeEE0_clESA_, symObjAddr: 0x8BFC, symBinAddr: 0x10FD8, symSize: 0x50 }
  - { offset: 0xF0ACB, size: 0x8, addend: 0x0, symName: __ZNK5folly8ExpectedINS_5RangeIPKcEENS_14ConversionCodeEE12requireValueEv, symObjAddr: 0x8C4C, symBinAddr: 0x11028, symSize: 0x30 }
  - { offset: 0xF0B55, size: 0x8, addend: 0x0, symName: __ZN8facebook5react8RawValue14checkValueTypeINSt3__112basic_stringIcNS3_11char_traitsIcEENS3_9allocatorIcEEEEEEbPNS_3jsi7RuntimeERKNSA_5ValueEPNS3_13unordered_mapIS9_T_NS3_4hashIS9_EENS3_8equal_toIS9_EENS7_INS3_4pairIKS9_SH_EEEEEE, symObjAddr: 0x8C7C, symBinAddr: 0x11058, symSize: 0x17C }
  - { offset: 0xF0C74, size: 0x8, addend: 0x0, symName: __ZNSt3__112__hash_tableINS_17__hash_value_typeINS_12basic_stringIcNS_11char_traitsIcEENS_9allocatorIcEEEES7_EENS_22__unordered_map_hasherIS7_S8_NS_4hashIS7_EENS_8equal_toIS7_EELb1EEENS_21__unordered_map_equalIS7_S8_SD_SB_Lb1EEENS5_IS8_EEE25__emplace_unique_key_argsIS7_JRKNS_21piecewise_construct_tENS_5tupleIJRKS7_EEENSN_IJEEEEEENS_4pairINS_15__hash_iteratorIPNS_11__hash_nodeIS8_PvEEEEbEERKT_DpOT0_, symObjAddr: 0x9164, symBinAddr: 0x11540, symSize: 0x268 }
  - { offset: 0xF11CB, size: 0x8, addend: 0x0, symName: __ZNSt3__112__hash_tableINS_17__hash_value_typeINS_12basic_stringIcNS_11char_traitsIcEENS_9allocatorIcEEEES7_EENS_22__unordered_map_hasherIS7_S8_NS_4hashIS7_EENS_8equal_toIS7_EELb1EEENS_21__unordered_map_equalIS7_S8_SD_SB_Lb1EEENS5_IS8_EEE25__emplace_unique_key_argsIS7_JRS7_S7_EEENS_4pairINS_15__hash_iteratorIPNS_11__hash_nodeIS8_PvEEEEbEERKT_DpOT0_, symObjAddr: 0x9728, symBinAddr: 0x11894, symSize: 0x258 }
  - { offset: 0xF17F1, size: 0x8, addend: 0x0, symName: __ZNSt3__112__hash_tableINS_17__hash_value_typeINS_12basic_stringIcNS_11char_traitsIcEENS_9allocatorIcEEEES7_EENS_22__unordered_map_hasherIS7_S8_NS_4hashIS7_EENS_8equal_toIS7_EELb1EEENS_21__unordered_map_equalIS7_S8_SD_SB_Lb1EEENS5_IS8_EEE21__construct_node_hashIRKNS_21piecewise_construct_tEJNS_5tupleIJRKS7_EEENSN_IJEEEEEENS_10unique_ptrINS_11__hash_nodeIS8_PvEENS_22__hash_node_destructorINS5_ISV_EEEEEEmOT_DpOT0_, symObjAddr: 0x93CC, symBinAddr: 0x117A8, symSize: 0xA4 }
  - { offset: 0xF1CA0, size: 0x8, addend: 0x0, symName: __ZNSt3__110unique_ptrINS_11__hash_nodeINS_17__hash_value_typeINS_12basic_stringIcNS_11char_traitsIcEENS_9allocatorIcEEEES8_EEPvEENS_22__hash_node_destructorINS6_ISB_EEEEE5resetB8ne200100EPSB_, symObjAddr: 0x969C, symBinAddr: 0x1184C, symSize: 0x48 }
  - { offset: 0xF23B2, size: 0x8, addend: 0x0, symName: __ZNSt3__110unique_ptrINS_11__hash_nodeINS_17__hash_value_typeINS_12basic_stringIcNS_11char_traitsIcEENS_9allocatorIcEEEES8_EEPvEENS_22__hash_node_destructorINS6_ISB_EEEEE5resetB8ne200100EPSB_, symObjAddr: 0x969C, symBinAddr: 0x1184C, symSize: 0x48 }
  - { offset: 0xF25D2, size: 0x8, addend: 0x0, symName: __ZNSt3__112__hash_tableINS_17__hash_value_typeINS_12basic_stringIcNS_11char_traitsIcEENS_9allocatorIcEEEES7_EENS_22__unordered_map_hasherIS7_S8_NS_4hashIS7_EENS_8equal_toIS7_EELb1EEENS_21__unordered_map_equalIS7_S8_SD_SB_Lb1EEENS5_IS8_EEE21__construct_node_hashIRS7_JS7_EEENS_10unique_ptrINS_11__hash_nodeIS8_PvEENS_22__hash_node_destructorINS5_ISO_EEEEEEmOT_DpOT0_, symObjAddr: 0x9980, symBinAddr: 0x11AEC, symSize: 0xB4 }
  - { offset: 0xF2B6B, size: 0x8, addend: 0x0, symName: __ZNSt3__112__hash_tableINS_17__hash_value_typeINS_12basic_stringIcNS_11char_traitsIcEENS_9allocatorIcEEEES7_EENS_22__unordered_map_hasherIS7_S8_NS_4hashIS7_EENS_8equal_toIS7_EELb1EEENS_21__unordered_map_equalIS7_S8_SD_SB_Lb1EEENS5_IS8_EEE17__deallocate_nodeEPNS_16__hash_node_baseIPNS_11__hash_nodeIS8_PvEEEE, symObjAddr: 0x9B48, symBinAddr: 0x11CB4, symSize: 0x3C }
  - { offset: 0xF2D06, size: 0x8, addend: 0x0, symName: __ZNSt3__112__hash_tableINS_17__hash_value_typeINS_12basic_stringIcNS_11char_traitsIcEENS_9allocatorIcEEEEN8facebook5react8RawValueEEENS_22__unordered_map_hasherIS7_SB_NS_4hashIS7_EENS_8equal_toIS7_EELb1EEENS_21__unordered_map_equalIS7_SB_SG_SE_Lb1EEENS5_ISB_EEE17__deallocate_nodeEPNS_16__hash_node_baseIPNS_11__hash_nodeISB_PvEEEE, symObjAddr: 0x9BD0, symBinAddr: 0x11D3C, symSize: 0x3C }
  - { offset: 0xF31C7, size: 0x8, addend: 0x0, symName: __ZNSt3__112basic_stringIcNS_11char_traitsIcEENS_9allocatorIcEEEC2B8ne200100Emc, symObjAddr: 0xA04C, symBinAddr: 0x12148, symSize: 0x9C }
  - { offset: 0xF3400, size: 0x8, addend: 0x0, symName: __ZN8facebook5react12fromRawValueERKNS0_18PropsParserContextERKNS0_8RawValueERNS0_15ImageResizeModeE, symObjAddr: 0xA0E8, symBinAddr: 0x121E4, symSize: 0x35C }
  - { offset: 0xF36B2, size: 0x8, addend: 0x0, symName: __ZNK8facebook5react8RawValue7hasTypeINSt3__113unordered_mapINS3_12basic_stringIcNS3_11char_traitsIcEENS3_9allocatorIcEEEEdNS3_4hashISA_EENS3_8equal_toISA_EENS8_INS3_4pairIKSA_dEEEEEEEEbv, symObjAddr: 0xA7C4, symBinAddr: 0x128C0, symSize: 0x64 }
  - { offset: 0xF398E, size: 0x8, addend: 0x0, symName: __ZNK8facebook5react8RawValuecvT_INSt3__113unordered_mapINS4_12basic_stringIcNS4_11char_traitsIcEENS4_9allocatorIcEEEEdNS4_4hashISB_EENS4_8equal_toISB_EENS9_INS4_4pairIKSB_dEEEEEEEEv, symObjAddr: 0xA828, symBinAddr: 0x12924, symSize: 0x38 }
  - { offset: 0xF39A2, size: 0x8, addend: 0x0, symName: __ZNK8facebook5react8RawValuecvT_INSt3__113unordered_mapINS4_12basic_stringIcNS4_11char_traitsIcEENS4_9allocatorIcEEEEdNS4_4hashISB_EENS4_8equal_toISB_EENS9_INS4_4pairIKSB_dEEEEEEEEv, symObjAddr: 0xA828, symBinAddr: 0x12924, symSize: 0x38 }
  - { offset: 0xF3AF2, size: 0x8, addend: 0x0, symName: __ZNK8facebook5react8RawValue7hasTypeINSt3__16vectorIdNS3_9allocatorIdEEEEEEbv, symObjAddr: 0xA860, symBinAddr: 0x1295C, symSize: 0x68 }
  - { offset: 0xF3B06, size: 0x8, addend: 0x0, symName: __ZNK8facebook5react8RawValue7hasTypeINSt3__16vectorIdNS3_9allocatorIdEEEEEEbv, symObjAddr: 0xA860, symBinAddr: 0x1295C, symSize: 0x68 }
  - { offset: 0xF3DC9, size: 0x8, addend: 0x0, symName: __ZNK8facebook5react8RawValuecvT_INSt3__16vectorIdNS4_9allocatorIdEEEEEEv, symObjAddr: 0xA8C8, symBinAddr: 0x129C4, symSize: 0x38 }
  - { offset: 0xF3DDD, size: 0x8, addend: 0x0, symName: __ZNK8facebook5react8RawValuecvT_INSt3__16vectorIdNS4_9allocatorIdEEEEEEv, symObjAddr: 0xA8C8, symBinAddr: 0x129C4, symSize: 0x38 }
  - { offset: 0xF3F2D, size: 0x8, addend: 0x0, symName: __ZN8facebook5react8RawValue14checkValueTypeIdEEbPNS_3jsi7RuntimeERKNS3_5ValueEPNSt3__113unordered_mapINS9_12basic_stringIcNS9_11char_traitsIcEENS9_9allocatorIcEEEET_NS9_4hashISG_EENS9_8equal_toISG_EENSE_INS9_4pairIKSG_SH_EEEEEE, symObjAddr: 0xA900, symBinAddr: 0x129FC, symSize: 0x17C }
  - { offset: 0xF3F41, size: 0x8, addend: 0x0, symName: __ZNSt3__112__hash_tableINS_17__hash_value_typeINS_12basic_stringIcNS_11char_traitsIcEENS_9allocatorIcEEEEdEENS_22__unordered_map_hasherIS7_S8_NS_4hashIS7_EENS_8equal_toIS7_EELb1EEENS_21__unordered_map_equalIS7_S8_SD_SB_Lb1EEENS5_IS8_EEED2Ev, symObjAddr: 0xB63C, symBinAddr: 0x1350C, symSize: 0x38 }
  - { offset: 0xF40EB, size: 0x8, addend: 0x0, symName: __ZN8facebook5react8RawValue14checkValueTypeIdEEbPNS_3jsi7RuntimeERKNS3_5ValueEPNSt3__113unordered_mapINS9_12basic_stringIcNS9_11char_traitsIcEENS9_9allocatorIcEEEET_NS9_4hashISG_EENS9_8equal_toISG_EENSE_INS9_4pairIKSG_SH_EEEEEE, symObjAddr: 0xA900, symBinAddr: 0x129FC, symSize: 0x17C }
  - { offset: 0xF46BB, size: 0x8, addend: 0x0, symName: __ZN8facebook5react8RawValue9castValueIdEENSt3__113unordered_mapINS3_12basic_stringIcNS3_11char_traitsIcEENS3_9allocatorIcEEEET_NS3_4hashISA_EENS3_8equal_toISA_EENS8_INS3_4pairIKSA_SB_EEEEEERKN5folly7dynamicEPSK_, symObjAddr: 0xAA7C, symBinAddr: 0x12B78, symSize: 0xE4 }
  - { offset: 0xF4A23, size: 0x8, addend: 0x0, symName: __ZN8facebook5react8RawValue9castValueIdEENSt3__113unordered_mapINS3_12basic_stringIcNS3_11char_traitsIcEENS3_9allocatorIcEEEET_NS3_4hashISA_EENS3_8equal_toISA_EENS8_INS3_4pairIKSA_SB_EEEEEEPNS_3jsi7RuntimeERKNSL_5ValueEPSK_, symObjAddr: 0xAB60, symBinAddr: 0x12C5C, symSize: 0x224 }
  - { offset: 0xF54DC, size: 0x8, addend: 0x0, symName: __ZN8facebook5react8RawValue14checkValueTypeIdEEbPNS_3jsi7RuntimeERKNS3_5ValueEPNSt3__16vectorIT_NS9_9allocatorISB_EEEE, symObjAddr: 0xB6B8, symBinAddr: 0x13588, symSize: 0x104 }
  - { offset: 0xF5921, size: 0x8, addend: 0x0, symName: __ZN8facebook5react8RawValue9castValueIdEENSt3__16vectorIT_NS3_9allocatorIS5_EEEERKN5folly7dynamicEPS8_, symObjAddr: 0xB7BC, symBinAddr: 0x1368C, symSize: 0xB8 }
  - { offset: 0xF5C45, size: 0x8, addend: 0x0, symName: __ZN8facebook5react8RawValue9castValueIdEENSt3__16vectorIT_NS3_9allocatorIS5_EEEEPNS_3jsi7RuntimeERKNS9_5ValueEPS8_, symObjAddr: 0xB874, symBinAddr: 0x13744, symSize: 0x170 }
  - { offset: 0xF62C3, size: 0x8, addend: 0x0, symName: __ZNSt3__112__hash_tableINS_17__hash_value_typeINS_12basic_stringIcNS_11char_traitsIcEENS_9allocatorIcEEEEdEENS_22__unordered_map_hasherIS7_S8_NS_4hashIS7_EENS_8equal_toIS7_EELb1EEENS_21__unordered_map_equalIS7_S8_SD_SB_Lb1EEENS5_IS8_EEE25__emplace_unique_key_argsIS7_JRKNS_21piecewise_construct_tENS_5tupleIJRKS7_EEENSN_IJEEEEEENS_4pairINS_15__hash_iteratorIPNS_11__hash_nodeIS8_PvEEEEbEERKT_DpOT0_, symObjAddr: 0xAD84, symBinAddr: 0x12E80, symSize: 0x274 }
  - { offset: 0xF6844, size: 0x8, addend: 0x0, symName: __ZNSt3__112__hash_tableINS_17__hash_value_typeINS_12basic_stringIcNS_11char_traitsIcEENS_9allocatorIcEEEEdEENS_22__unordered_map_hasherIS7_S8_NS_4hashIS7_EENS_8equal_toIS7_EELb1EEENS_21__unordered_map_equalIS7_S8_SD_SB_Lb1EEENS5_IS8_EEE25__emplace_unique_key_argsIS7_JRS7_dEEENS_4pairINS_15__hash_iteratorIPNS_11__hash_nodeIS8_PvEEEEbEERKT_DpOT0_, symObjAddr: 0xB320, symBinAddr: 0x131F0, symSize: 0x264 }
  - { offset: 0xF6EC4, size: 0x8, addend: 0x0, symName: __ZNSt3__112__hash_tableINS_17__hash_value_typeINS_12basic_stringIcNS_11char_traitsIcEENS_9allocatorIcEEEEdEENS_22__unordered_map_hasherIS7_S8_NS_4hashIS7_EENS_8equal_toIS7_EELb1EEENS_21__unordered_map_equalIS7_S8_SD_SB_Lb1EEENS5_IS8_EEE21__construct_node_hashIRKNS_21piecewise_construct_tEJNS_5tupleIJRKS7_EEENSN_IJEEEEEENS_10unique_ptrINS_11__hash_nodeIS8_PvEENS_22__hash_node_destructorINS5_ISV_EEEEEEmOT_DpOT0_, symObjAddr: 0xAFF8, symBinAddr: 0x130F4, symSize: 0xAC }
  - { offset: 0xF7361, size: 0x8, addend: 0x0, symName: __ZNSt3__122__hash_node_destructorINS_9allocatorINS_11__hash_nodeINS_17__hash_value_typeINS_12basic_stringIcNS_11char_traitsIcEENS1_IcEEEEdEEPvEEEEEclB8ne200100EPSB_, symObjAddr: 0xB2D0, symBinAddr: 0x131A0, symSize: 0x50 }
  - { offset: 0xF7B7A, size: 0x8, addend: 0x0, symName: __ZNSt3__122__hash_node_destructorINS_9allocatorINS_11__hash_nodeINS_17__hash_value_typeINS_12basic_stringIcNS_11char_traitsIcEENS1_IcEEEEdEEPvEEEEEclB8ne200100EPSB_, symObjAddr: 0xB2D0, symBinAddr: 0x131A0, symSize: 0x50 }
  - { offset: 0xF7D71, size: 0x8, addend: 0x0, symName: __ZNSt3__112__hash_tableINS_17__hash_value_typeINS_12basic_stringIcNS_11char_traitsIcEENS_9allocatorIcEEEEdEENS_22__unordered_map_hasherIS7_S8_NS_4hashIS7_EENS_8equal_toIS7_EELb1EEENS_21__unordered_map_equalIS7_S8_SD_SB_Lb1EEENS5_IS8_EEE21__construct_node_hashIRS7_JdEEENS_10unique_ptrINS_11__hash_nodeIS8_PvEENS_22__hash_node_destructorINS5_ISO_EEEEEEmOT_DpOT0_, symObjAddr: 0xB584, symBinAddr: 0x13454, symSize: 0xB8 }
  - { offset: 0xF828B, size: 0x8, addend: 0x0, symName: __ZNSt3__112__hash_tableINS_17__hash_value_typeINS_12basic_stringIcNS_11char_traitsIcEENS_9allocatorIcEEEEdEENS_22__unordered_map_hasherIS7_S8_NS_4hashIS7_EENS_8equal_toIS7_EELb1EEENS_21__unordered_map_equalIS7_S8_SD_SB_Lb1EEENS5_IS8_EEE17__deallocate_nodeEPNS_16__hash_node_baseIPNS_11__hash_nodeIS8_PvEEEE, symObjAddr: 0xB674, symBinAddr: 0x13544, symSize: 0x44 }
  - { offset: 0xF854E, size: 0x8, addend: 0x0, symName: __ZNSt3__16vectorIdNS_9allocatorIdEEE7reserveEm, symObjAddr: 0xB9E4, symBinAddr: 0x138B4, symSize: 0x8C }
  - { offset: 0xF8782, size: 0x8, addend: 0x0, symName: __ZNSt3__16vectorIdNS_9allocatorIdEEE9push_backB8ne200100EOd, symObjAddr: 0xBA70, symBinAddr: 0x13940, symSize: 0xDC }
  - { offset: 0xF878D, size: 0x8, addend: 0x0, symName: __ZNSt3__16vectorIdNS_9allocatorIdEEE9push_backB8ne200100EOd, symObjAddr: 0xBA70, symBinAddr: 0x13940, symSize: 0xDC }
  - { offset: 0xF8C66, size: 0x8, addend: 0x0, symName: __ZNSt3__119__allocate_at_leastB8ne200100INS_9allocatorIdEEEENS_19__allocation_resultINS_16allocator_traitsIT_E7pointerEEERS5_m, symObjAddr: 0xBB60, symBinAddr: 0x13A1C, symSize: 0x34 }
  - { offset: 0xF90AD, size: 0x8, addend: 0x0, symName: __ZNK8facebook5react8RawValuecvT_IxEEv, symObjAddr: 0xC194, symBinAddr: 0x14010, symSize: 0x38 }
  - { offset: 0xF90C1, size: 0x8, addend: 0x0, symName: __ZNK8facebook5react8RawValuecvT_IxEEv, symObjAddr: 0xC194, symBinAddr: 0x14010, symSize: 0x38 }
  - { offset: 0xF9283, size: 0x8, addend: 0x0, symName: __ZNK8facebook5react8RawValue7hasTypeINSt3__16vectorIfNS3_9allocatorIfEEEEEEbv, symObjAddr: 0xC1CC, symBinAddr: 0x14048, symSize: 0x68 }
  - { offset: 0xF9297, size: 0x8, addend: 0x0, symName: __ZNK8facebook5react8RawValue7hasTypeINSt3__16vectorIfNS3_9allocatorIfEEEEEEbv, symObjAddr: 0xC1CC, symBinAddr: 0x14048, symSize: 0x68 }
  - { offset: 0xF955A, size: 0x8, addend: 0x0, symName: __ZNK8facebook5react8RawValuecvT_INSt3__16vectorIfNS4_9allocatorIfEEEEEEv, symObjAddr: 0xC234, symBinAddr: 0x140B0, symSize: 0x38 }
  - { offset: 0xF956E, size: 0x8, addend: 0x0, symName: __ZNK8facebook5react8RawValuecvT_INSt3__16vectorIfNS4_9allocatorIfEEEEEEv, symObjAddr: 0xC234, symBinAddr: 0x140B0, symSize: 0x38 }
  - { offset: 0xF96BE, size: 0x8, addend: 0x0, symName: __ZNK8facebook5react8RawValuecvT_IfEEv, symObjAddr: 0xC26C, symBinAddr: 0x140E8, symSize: 0x38 }
  - { offset: 0xF96D2, size: 0x8, addend: 0x0, symName: __ZNKSt3__112__hash_tableINS_17__hash_value_typeINS_12basic_stringIcNS_11char_traitsIcEENS_9allocatorIcEEEEN8facebook5react8RawValueEEENS_22__unordered_map_hasherIS7_SB_NS_4hashIS7_EENS_8equal_toIS7_EELb1EEENS_21__unordered_map_equalIS7_SB_SG_SE_Lb1EEENS5_ISB_EEE4findIS7_EENS_21__hash_const_iteratorIPNS_11__hash_nodeISB_PvEEEERKT_, symObjAddr: 0xD060, symBinAddr: 0x14EC8, symSize: 0xF8 }
  - { offset: 0xF98C7, size: 0x8, addend: 0x0, symName: __ZNK8facebook5react8RawValuecvT_IfEEv, symObjAddr: 0xC26C, symBinAddr: 0x140E8, symSize: 0x38 }
  - { offset: 0xF9A8C, size: 0x8, addend: 0x0, symName: __ZNK5folly7dynamic6asImplIxEET_v, symObjAddr: 0xC2A4, symBinAddr: 0x14120, symSize: 0x138 }
  - { offset: 0xF9AA0, size: 0x8, addend: 0x0, symName: __ZNSt3__16vectorIfNS_9allocatorIfEEE20__throw_out_of_rangeB8ne200100Ev, symObjAddr: 0xD04C, symBinAddr: 0x14EB4, symSize: 0x14 }
  - { offset: 0xF9AB8, size: 0x8, addend: 0x0, symName: __ZNKSt3__112__hash_tableINS_17__hash_value_typeINS_12basic_stringIcNS_11char_traitsIcEENS_9allocatorIcEEEEN8facebook5react8RawValueEEENS_22__unordered_map_hasherIS7_SB_NS_4hashIS7_EENS_8equal_toIS7_EELb1EEENS_21__unordered_map_equalIS7_SB_SG_SE_Lb1EEENS5_ISB_EEE4findIS7_EENS_21__hash_const_iteratorIPNS_11__hash_nodeISB_PvEEEERKT_, symObjAddr: 0xD060, symBinAddr: 0x14EC8, symSize: 0xF8 }
  - { offset: 0xF9B6C, size: 0x8, addend: 0x0, symName: __ZNK5folly7dynamic6asImplIxEET_v, symObjAddr: 0xC2A4, symBinAddr: 0x14120, symSize: 0x138 }
  - { offset: 0xF9F76, size: 0x8, addend: 0x0, symName: __ZN5folly2toIxdEENSt3__19enable_ifIXsr6detail14IsArithToArithIT_T0_EE5valueES3_E4typeERKS4_, symObjAddr: 0xC3DC, symBinAddr: 0x14258, symSize: 0x48 }
  - { offset: 0xF9FF8, size: 0x8, addend: 0x0, symName: __ZN8facebook5react8RawValue14checkValueTypeIfEEbPNS_3jsi7RuntimeERKNS3_5ValueEPNSt3__16vectorIT_NS9_9allocatorISB_EEEE, symObjAddr: 0xCB68, symBinAddr: 0x149E4, symSize: 0x104 }
  - { offset: 0xFA43D, size: 0x8, addend: 0x0, symName: __ZN8facebook5react8RawValue9castValueIfEENSt3__16vectorIT_NS3_9allocatorIS5_EEEERKN5folly7dynamicEPS8_, symObjAddr: 0xCC6C, symBinAddr: 0x14AE8, symSize: 0xBC }
  - { offset: 0xFA761, size: 0x8, addend: 0x0, symName: __ZN8facebook5react8RawValue9castValueIfEENSt3__16vectorIT_NS3_9allocatorIS5_EEEEPNS_3jsi7RuntimeERKNS9_5ValueEPS8_, symObjAddr: 0xCD28, symBinAddr: 0x14BA4, symSize: 0x174 }
  - { offset: 0xFAFE4, size: 0x8, addend: 0x0, symName: __ZN5folly15expected_detail30expected_detail_ExpectedHelper14ExpectedHelper12thenOrThrow_INS0_15ExpectedStorageIxNS_14ConversionCodeELNS0_11StorageTypeE0EEERKNS_11identity_fnEZNS_2toIxbEENSt3__19enable_ifIXsr6detail14IsArithToArithIT_T0_EE5valueESE_E4typeERKSF_EUlS5_E_OxNS_15ConversionErrorELb0ELi0EEET2_OSE_OSF_OT1_, symObjAddr: 0xC92C, symBinAddr: 0x147A8, symSize: 0x60 }
  - { offset: 0xFB10A, size: 0x8, addend: 0x0, symName: __ZN5folly15expected_detail30expected_detail_ExpectedHelper14ExpectedHelper12thenOrThrow_IRNS0_15ExpectedStorageINS_5RangeIPKcEENS_14ConversionCodeELNS0_11StorageTypeE1EEENS_6detail18CheckTrailingSpaceEZNS_2toIxEENSt3__19enable_ifIXntsr3std7is_sameIS8_T_EE5valueESI_E4typeES8_EUlS9_E_NS_8ExpectedINS_4UnitES9_EEvLb0ELi0EEET2_OSI_OT0_OT1_, symObjAddr: 0xCA40, symBinAddr: 0x148BC, symSize: 0x2C }
  - { offset: 0xFB163, size: 0x8, addend: 0x0, symName: __ZZN5folly2toIxEENSt3__19enable_ifIXntsr3std7is_sameINS_5RangeIPKcEET_EE5valueES7_E4typeES6_ENKUlNS_14ConversionCodeEE_clESA_, symObjAddr: 0xCA6C, symBinAddr: 0x148E8, symSize: 0x48 }
  - { offset: 0xFB1A8, size: 0x8, addend: 0x0, symName: __ZNK5folly7dynamic6asImplIxEET_v.cold.1, symObjAddr: 0xD3B0, symBinAddr: 0x15FDC, symSize: 0x24 }
  - { offset: 0xFB277, size: 0x8, addend: 0x0, symName: __ZN5folly15expected_detail30expected_detail_ExpectedHelper14ExpectedHelper12thenOrThrow_INS0_15ExpectedStorageIxNS_14ConversionCodeELNS0_11StorageTypeE0EEERKNS_11identity_fnEZNS_2toIxdEENSt3__19enable_ifIXsr6detail14IsArithToArithIT_T0_EE5valueESE_E4typeERKSF_EUlS5_E_OxNS_15ConversionErrorELb0ELi0EEET2_OSE_OSF_OT1_, symObjAddr: 0xC4F8, symBinAddr: 0x14374, symSize: 0x60 }
  - { offset: 0xFB3C4, size: 0x8, addend: 0x0, symName: __ZZN5folly2toIxdEENSt3__19enable_ifIXsr6detail14IsArithToArithIT_T0_EE5valueES3_E4typeERKS4_ENKUlNS_14ConversionCodeEE_clES9_, symObjAddr: 0xC558, symBinAddr: 0x143D4, symSize: 0xB4 }
  - { offset: 0xFB6F3, size: 0x8, addend: 0x0, symName: __ZN5folly6detail25EstimateSpaceToReserveAllINSt3__116integer_sequenceImJLm0ELm1ELm2ELm3ELm4EEEEE4callIJA2_cPKcA3_cdPNS2_12basic_stringIcNS2_11char_traitsIcEENS2_9allocatorIcEEEEEEEmDpRKT_, symObjAddr: 0xC6C4, symBinAddr: 0x14540, symSize: 0xB0 }
  - { offset: 0xFB899, size: 0x8, addend: 0x0, symName: __ZN5folly6detail18ToAppendStrImplAllINSt3__116integer_sequenceImJLm0ELm1ELm2ELm3ELm4EEEEE4callIJA2_cPKcA3_cdPNS2_12basic_stringIcNS2_11char_traitsIcEENS2_9allocatorIcEEEEEEEvDpRKT_, symObjAddr: 0xC774, symBinAddr: 0x145F0, symSize: 0x88 }
  - { offset: 0xFBE2C, size: 0x8, addend: 0x0, symName: __ZZN5folly2toIxbEENSt3__19enable_ifIXsr6detail14IsArithToArithIT_T0_EE5valueES3_E4typeERKS4_ENKUlNS_14ConversionCodeEE_clES9_, symObjAddr: 0xC98C, symBinAddr: 0x14808, symSize: 0xB4 }
  - { offset: 0xFC15B, size: 0x8, addend: 0x0, symName: __ZN5folly15expected_detail30expected_detail_ExpectedHelper14ExpectedHelper12thenOrThrow_IRNS0_15ExpectedStorageINS_5RangeIPKcEENS_14ConversionCodeELNS0_11StorageTypeE1EEENS_6detail18CheckTrailingSpaceEZNS_2toIxEENSt3__19enable_ifIXntsr3std7is_sameIS8_T_EE5valueESI_E4typeES8_EUlS9_E_NS_8ExpectedINS_4UnitES9_EEvLb0ELi0EEET2_OSI_OT0_OT1_.cold.1, symObjAddr: 0xD3D4, symBinAddr: 0x16000, symSize: 0x28 }
  - { offset: 0xFC195, size: 0x8, addend: 0x0, symName: __ZZN5folly2toIxEENSt3__19enable_ifIXntsr3std7is_sameINS_5RangeIPKcEET_EE5valueES7_E4typeES6_ENKUlNS_14ConversionCodeEE_clESA_, symObjAddr: 0xCA6C, symBinAddr: 0x148E8, symSize: 0x48 }
  - { offset: 0xFC266, size: 0x8, addend: 0x0, symName: __ZZN5folly2toIxEENSt3__19enable_ifIXntsr3std7is_sameINS_5RangeIPKcEET_EE5valueES7_E4typeES6_ENKUlNS_14ConversionCodeEE0_clESA_, symObjAddr: 0xCAB4, symBinAddr: 0x14930, symSize: 0x50 }
  - { offset: 0xFC42A, size: 0x8, addend: 0x0, symName: __ZNSt3__16vectorIfNS_9allocatorIfEEE7reserveEm, symObjAddr: 0xCE9C, symBinAddr: 0x14D18, symSize: 0x8C }
  - { offset: 0xFC65E, size: 0x8, addend: 0x0, symName: __ZNSt3__16vectorIfNS_9allocatorIfEEE9push_backB8ne200100EOf, symObjAddr: 0xCF28, symBinAddr: 0x14DA4, symSize: 0xDC }
  - { offset: 0xFC669, size: 0x8, addend: 0x0, symName: __ZNSt3__16vectorIfNS_9allocatorIfEEE9push_backB8ne200100EOf, symObjAddr: 0xCF28, symBinAddr: 0x14DA4, symSize: 0xDC }
  - { offset: 0xFCB42, size: 0x8, addend: 0x0, symName: __ZNSt3__119__allocate_at_leastB8ne200100INS_9allocatorIfEEEENS_19__allocation_resultINS_16allocator_traitsIT_E7pointerEEERS5_m, symObjAddr: 0xD018, symBinAddr: 0x14E80, symSize: 0x34 }
  - { offset: 0xFCD9D, size: 0x8, addend: 0x0, symName: __ZNK8facebook5react8RawValuecvT_IbEEv.cold.1, symObjAddr: 0xD3FC, symBinAddr: 0x16028, symSize: 0x1C }
  - { offset: 0xFCE2C, size: 0x8, addend: 0x0, symName: _OUTLINED_FUNCTION_0, symObjAddr: 0xD418, symBinAddr: 0x150BC, symSize: 0x8 }
  - { offset: 0xFCE44, size: 0x8, addend: 0x0, symName: _OUTLINED_FUNCTION_1, symObjAddr: 0xD420, symBinAddr: 0x150C4, symSize: 0xC }
  - { offset: 0xFF07D, size: 0x8, addend: 0x0, symName: __ZN8facebook5react15ImageShadowNode15setImageManagerERKNSt3__110shared_ptrINS0_12ImageManagerEEE, symObjAddr: 0x0, symBinAddr: 0x150D0, symSize: 0xE0 }
  - { offset: 0xFF0A0, size: 0x8, addend: 0x0, symName: __ZN8facebook5react18ImageComponentNameE, symObjAddr: 0x2190, symBinAddr: 0x171EF, symSize: 0x0 }
  - { offset: 0x100DC5, size: 0x8, addend: 0x0, symName: __ZN8facebook5react18ImageComponentNameE, symObjAddr: 0x2190, symBinAddr: 0x171EF, symSize: 0x0 }
  - { offset: 0x101934, size: 0x8, addend: 0x0, symName: __ZN8facebook5react18ImageComponentNameE, symObjAddr: 0x2190, symBinAddr: 0x171EF, symSize: 0x0 }
  - { offset: 0x1193A8, size: 0x8, addend: 0x0, symName: __ZNSt3__112construct_atB8ne200100IN8facebook5react10ImageStateEJS3_EPS3_EEPT_S6_DpOT0_, symObjAddr: 0x1EA8, symBinAddr: 0x15BD8, symSize: 0xB8 }
  - { offset: 0x1193E5, size: 0x8, addend: 0x0, symName: __ZNSt3__112construct_atB8ne200100IN8facebook5react10ImageStateEJS3_EPS3_EEPT_S6_DpOT0_, symObjAddr: 0x1EA8, symBinAddr: 0x15BD8, symSize: 0xB8 }
  - { offset: 0x119407, size: 0x8, addend: 0x0, symName: __ZNSt3__112construct_atB8ne200100IN8facebook5react10ImageStateEJS3_EPS3_EEPT_S6_DpOT0_, symObjAddr: 0x1EA8, symBinAddr: 0x15BD8, symSize: 0xB8 }
  - { offset: 0x119429, size: 0x8, addend: 0x0, symName: __ZNSt3__112construct_atB8ne200100IN8facebook5react10ImageStateEJS3_EPS3_EEPT_S6_DpOT0_, symObjAddr: 0x1EA8, symBinAddr: 0x15BD8, symSize: 0xB8 }
  - { offset: 0x11944B, size: 0x8, addend: 0x0, symName: __ZNSt3__112construct_atB8ne200100IN8facebook5react10ImageStateEJS3_EPS3_EEPT_S6_DpOT0_, symObjAddr: 0x1EA8, symBinAddr: 0x15BD8, symSize: 0xB8 }
  - { offset: 0x11FC3D, size: 0x8, addend: 0x0, symName: __ZN8facebook5react15ImageShadowNode15setImageManagerERKNSt3__110shared_ptrINS0_12ImageManagerEEE, symObjAddr: 0x0, symBinAddr: 0x150D0, symSize: 0xE0 }
  - { offset: 0x11FED2, size: 0x8, addend: 0x0, symName: __ZNSt3__110shared_ptrIN8facebook5react12ImageManagerEEaSB8ne200100ERKS4_, symObjAddr: 0xE0, symBinAddr: 0x151B0, symSize: 0x78 }
  - { offset: 0x120218, size: 0x8, addend: 0x0, symName: __ZN8facebook5react15ImageShadowNode19updateStateIfNeededEv, symObjAddr: 0x158, symBinAddr: 0x15228, symSize: 0x270 }
  - { offset: 0x121A5F, size: 0x8, addend: 0x0, symName: __ZNK8facebook5react15ImageShadowNode14getImageSourceEv, symObjAddr: 0x3C8, symBinAddr: 0x15498, symSize: 0x29C }
  - { offset: 0x12201B, size: 0x8, addend: 0x0, symName: __ZNSt3__113__tuple_equalILm2EEclB8ne200100INS_5tupleIJRKN8facebook5react11ImageSource4TypeERKNS_12basic_stringIcNS_11char_traitsIcEENS_9allocatorIcEEEEEEESI_EEbRKT_RKT0_, symObjAddr: 0xD38, symBinAddr: 0x15978, symSize: 0x8C }
  - { offset: 0x122066, size: 0x8, addend: 0x0, symName: __ZNSt3__113__tuple_equalILm2EEclB8ne200100INS_5tupleIJRKN8facebook5react11ImageSource4TypeERKNS_12basic_stringIcNS_11char_traitsIcEENS_9allocatorIcEEEEEEESI_EEbRKT_RKT0_, symObjAddr: 0xD38, symBinAddr: 0x15978, symSize: 0x8C }
  - { offset: 0x122089, size: 0x8, addend: 0x0, symName: __ZNSt3__113__tuple_equalILm2EEclB8ne200100INS_5tupleIJRKN8facebook5react11ImageSource4TypeERKNS_12basic_stringIcNS_11char_traitsIcEENS_9allocatorIcEEEEEEESI_EEbRKT_RKT0_, symObjAddr: 0xD38, symBinAddr: 0x15978, symSize: 0x8C }
  - { offset: 0x1220A5, size: 0x8, addend: 0x0, symName: __ZNSt3__113__tuple_equalILm2EEclB8ne200100INS_5tupleIJRKN8facebook5react11ImageSource4TypeERKNS_12basic_stringIcNS_11char_traitsIcEENS_9allocatorIcEEEEEEESI_EEbRKT_RKT0_, symObjAddr: 0xD38, symBinAddr: 0x15978, symSize: 0x8C }
  - { offset: 0x1227DF, size: 0x8, addend: 0x0, symName: __ZN8facebook5react18ConcreteShadowNodeIXadL_ZNS0_18ImageComponentNameEEENS0_24YogaLayoutableShadowNodeENS0_10ImagePropsENS0_17ImageEventEmitterENS0_10ImageStateEE12setStateDataEOS5_, symObjAddr: 0x664, symBinAddr: 0x15734, symSize: 0x108 }
  - { offset: 0x12376B, size: 0x8, addend: 0x0, symName: __ZNSt3__16vectorINS_4pairINS_12basic_stringIcNS_11char_traitsIcEENS_9allocatorIcEEEES7_EENS5_IS8_EEE18__assign_with_sizeB8ne200100IPS8_SC_EEvT_T0_l, symObjAddr: 0x15CC, symBinAddr: 0x15A04, symSize: 0x168 }
  - { offset: 0x12410C, size: 0x8, addend: 0x0, symName: __ZN8facebook5react15ImageShadowNode6layoutENS0_13LayoutContextE, symObjAddr: 0x864, symBinAddr: 0x1583C, symSize: 0x48 }
  - { offset: 0x1244F9, size: 0x8, addend: 0x0, symName: __ZN8facebook5react15ImageShadowNodeD1Ev, symObjAddr: 0x8AC, symBinAddr: 0x15884, symSize: 0x78 }
  - { offset: 0x124C48, size: 0x8, addend: 0x0, symName: __ZN8facebook5react15ImageShadowNodeD0Ev, symObjAddr: 0x924, symBinAddr: 0x158FC, symSize: 0x7C }
  - { offset: 0x126760, size: 0x8, addend: 0x0, symName: __ZNKSt3__111__copy_implclB8ne200100IPNS_4pairINS_12basic_stringIcNS_11char_traitsIcEENS_9allocatorIcEEEES8_EESA_SA_EENS2_IT_T1_EESB_T0_SC_, symObjAddr: 0x1798, symBinAddr: 0x15B6C, symSize: 0x6C }
  - { offset: 0x129813, size: 0x8, addend: 0x0, symName: __ZNK8facebook5react10ImageState14getImageSourceEv, symObjAddr: 0x0, symBinAddr: 0x15C90, symSize: 0xC }
  - { offset: 0x12EF86, size: 0x8, addend: 0x0, symName: __ZNK8facebook5react10ImageState14getImageSourceEv, symObjAddr: 0x0, symBinAddr: 0x15C90, symSize: 0xC }
  - { offset: 0x12F34C, size: 0x8, addend: 0x0, symName: __ZNK8facebook5react10ImageState15getImageRequestEv, symObjAddr: 0xC, symBinAddr: 0x15C9C, symSize: 0x8 }
  - { offset: 0x12F377, size: 0x8, addend: 0x0, symName: __ZNK8facebook5react10ImageState15getImageRequestEv, symObjAddr: 0xC, symBinAddr: 0x15C9C, symSize: 0x8 }
  - { offset: 0x12F394, size: 0x8, addend: 0x0, symName: __ZNK8facebook5react10ImageState21getImageRequestParamsEv, symObjAddr: 0x14, symBinAddr: 0x15CA4, symSize: 0x8 }
...
