---
triple:          'arm64-apple-darwin'
binary-path:     '/Users/uk-aplatts/Development/InjuryIQ/ios/DerivedData/Build/Intermediates.noindex/ArchiveIntermediates/InjuryIQ/IntermediateBuildFilesPath/UninstalledProducts/iphoneos/React_FabricComponents.framework/React_FabricComponents'
relocations:
  - { offset: 0x33, size: 0x8, addend: 0x0, symName: _React_FabricComponentsVersionString, symObjAddr: 0x0, symBinAddr: 0x3ACF0, symSize: 0x0 }
  - { offset: 0x67, size: 0x8, addend: 0x0, symName: _React_FabricComponentsVersionNumber, symObjAddr: 0x38, symBinAddr: 0x3AD28, symSize: 0x0 }
  - { offset: 0x345A, size: 0x8, addend: 0x0, symName: __ZN8facebook5react14convertRawPropIbbEET_RKNS0_18PropsParserContextERKNS0_8RawPropsEPKcRKS2_RKT0_SA_SA_, symObjAddr: 0xC20, symBinAddr: 0x4C20, symSize: 0x1A8 }
  - { offset: 0x3900, size: 0x8, addend: 0x0, symName: __ZN8facebook5react14convertRawPropIddEET_RKNS0_18PropsParserContextERKNS0_8RawPropsEPKcRKS2_RKT0_SA_SA_, symObjAddr: 0xDC8, symBinAddr: 0x4DC8, symSize: 0x1AC }
  - { offset: 0x3DA6, size: 0x8, addend: 0x0, symName: __ZN8facebook5react14convertRawPropINS0_24ScrollViewIndicatorStyleES2_EET_RKNS0_18PropsParserContextERKNS0_8RawPropsEPKcRKS3_RKT0_SB_SB_, symObjAddr: 0xF74, symBinAddr: 0x4F74, symSize: 0x1C4 }
  - { offset: 0x4240, size: 0x8, addend: 0x0, symName: __ZN8facebook5react14convertRawPropINS0_29ScrollViewKeyboardDismissModeES2_EET_RKNS0_18PropsParserContextERKNS0_8RawPropsEPKcRKS3_RKT0_SB_SB_, symObjAddr: 0x1138, symBinAddr: 0x5138, symSize: 0x1C4 }
  - { offset: 0x46DA, size: 0x8, addend: 0x0, symName: __ZN8facebook5react14convertRawPropINSt3__18optionalINS0_40ScrollViewMaintainVisibleContentPositionEEES5_EET_RKNS0_18PropsParserContextERKNS0_8RawPropsEPKcRKS6_RKT0_SE_SE_, symObjAddr: 0x12FC, symBinAddr: 0x52FC, symSize: 0x1DC }
  - { offset: 0x4C8D, size: 0x8, addend: 0x0, symName: __ZN8facebook5react14convertRawPropINS0_14RectangleEdgesIdEES3_EET_RKNS0_18PropsParserContextERKNS0_8RawPropsEPKcRKS4_RKT0_SC_SC_, symObjAddr: 0x14D8, symBinAddr: 0x54D8, symSize: 0x1D4 }
  - { offset: 0x5166, size: 0x8, addend: 0x0, symName: __ZN8facebook5react14convertRawPropINS0_5PointES2_EET_RKNS0_18PropsParserContextERKNS0_8RawPropsEPKcRKS3_RKT0_SB_SB_, symObjAddr: 0x16AC, symBinAddr: 0x56AC, symSize: 0x1CC }
  - { offset: 0x563F, size: 0x8, addend: 0x0, symName: __ZN8facebook5react14convertRawPropINS0_25ScrollViewSnapToAlignmentES2_EET_RKNS0_18PropsParserContextERKNS0_8RawPropsEPKcRKS3_RKT0_SB_SB_, symObjAddr: 0x1878, symBinAddr: 0x5878, symSize: 0x1C4 }
  - { offset: 0x5AD9, size: 0x8, addend: 0x0, symName: __ZN8facebook5react14convertRawPropINSt3__16vectorIdNS2_9allocatorIdEEEES6_EET_RKNS0_18PropsParserContextERKNS0_8RawPropsEPKcRKS7_RKT0_SF_SF_, symObjAddr: 0x1A3C, symBinAddr: 0x5A3C, symSize: 0x218 }
  - { offset: 0x6171, size: 0x8, addend: 0x0, symName: __ZN8facebook5react14convertRawPropINS0_30ContentInsetAdjustmentBehaviorES2_EET_RKNS0_18PropsParserContextERKNS0_8RawPropsEPKcRKS3_RKT0_SB_SB_, symObjAddr: 0x1C54, symBinAddr: 0x5C54, symSize: 0x1C4 }
  - { offset: 0x6679, size: 0x8, addend: 0x0, symName: __ZN8facebook5react12fromRawValueERKNS0_18PropsParserContextERKNS0_8RawValueERNS0_24ScrollViewIndicatorStyleE, symObjAddr: 0x578C, symBinAddr: 0x95C0, symSize: 0x154 }
  - { offset: 0x6ABD, size: 0x8, addend: 0x0, symName: __ZNK8facebook5react8RawValuecvT_INSt3__112basic_stringIcNS4_11char_traitsIcEENS4_9allocatorIcEEEEEEv, symObjAddr: 0x58E0, symBinAddr: 0x9714, symSize: 0x38 }
  - { offset: 0x6AC7, size: 0x8, addend: 0x0, symName: __ZN8facebook5react12fromRawValueERKNS0_18PropsParserContextERKNS0_8RawValueERNS0_29ScrollViewKeyboardDismissModeE, symObjAddr: 0x5A60, symBinAddr: 0x9894, symSize: 0x158 }
  - { offset: 0x6EE3, size: 0x8, addend: 0x0, symName: __ZN8facebook5react12fromRawValueERKNS0_18PropsParserContextERKNS0_8RawValueERNS0_40ScrollViewMaintainVisibleContentPositionE, symObjAddr: 0x5BB8, symBinAddr: 0x99EC, symSize: 0x10C }
  - { offset: 0x6F2F, size: 0x8, addend: 0x0, symName: __ZN8facebook5react12fromRawValueERKNS0_18PropsParserContextERKNS0_8RawValueERNS0_40ScrollViewMaintainVisibleContentPositionE, symObjAddr: 0x5BB8, symBinAddr: 0x99EC, symSize: 0x10C }
  - { offset: 0x748F, size: 0x8, addend: 0x0, symName: __ZN8facebook5react12fromRawValueERKNS0_18PropsParserContextERKNS0_8RawValueERNS0_14RectangleEdgesIdEE, symObjAddr: 0x7C10, symBinAddr: 0xBA44, symSize: 0x380 }
  - { offset: 0x7EB1, size: 0x8, addend: 0x0, symName: __ZN8facebook5react12fromRawValueERKNS0_18PropsParserContextERKNS0_8RawValueERNS0_5PointE, symObjAddr: 0x9358, symBinAddr: 0xCF60, symSize: 0x1D4 }
  - { offset: 0x8581, size: 0x8, addend: 0x0, symName: __ZN8facebook5react12fromRawValueERKNS0_18PropsParserContextERKNS0_8RawValueERNS0_25ScrollViewSnapToAlignmentE, symObjAddr: 0x952C, symBinAddr: 0xD134, symSize: 0x154 }
  - { offset: 0x89C5, size: 0x8, addend: 0x0, symName: __ZN8facebook5react12fromRawValueIdEEvRKNS0_18PropsParserContextERKNS0_8RawValueERNSt3__16vectorIT_NS8_9allocatorISA_EEEE, symObjAddr: 0x9680, symBinAddr: 0xD288, symSize: 0x104 }
  - { offset: 0x89CF, size: 0x8, addend: 0x0, symName: __ZN8facebook5react12fromRawValueIdEEvRKNS0_18PropsParserContextERKNS0_8RawValueERNSt3__16vectorIT_NS8_9allocatorISA_EEEE, symObjAddr: 0x9680, symBinAddr: 0xD288, symSize: 0x104 }
  - { offset: 0x8DF6, size: 0x8, addend: 0x0, symName: __ZN8facebook5react12fromRawValueERKNS0_18PropsParserContextERKNS0_8RawValueERNS0_30ContentInsetAdjustmentBehaviorE, symObjAddr: 0xA05C, symBinAddr: 0xDB74, symSize: 0x1F4 }
  - { offset: 0x933B, size: 0x8, addend: 0x0, symName: __ZNSt3__16vectorIdNS_9allocatorIdEEE13__move_assignERS3_NS_17integral_constantIbLb1EEE, symObjAddr: 0xA250, symBinAddr: 0xDD68, symSize: 0x50 }
  - { offset: 0x9345, size: 0x8, addend: 0x0, symName: __ZN8facebook5react12fromRawValueINS0_5PointEEEvRKNS0_18PropsParserContextERKNS0_8RawValueERT_S9_, symObjAddr: 0x3610, symBinAddr: 0x7610, symSize: 0x3C }
  - { offset: 0x93B3, size: 0x8, addend: 0x0, symName: __ZN8facebook5react12fromRawValueINS0_5PointEEEvRKNS0_18PropsParserContextERKNS0_8RawValueERT_S9_, symObjAddr: 0x3610, symBinAddr: 0x7610, symSize: 0x3C }
  - { offset: 0x93CE, size: 0x8, addend: 0x0, symName: __ZN8facebook5react12fromRawValueINS0_5PointEEEvRKNS0_18PropsParserContextERKNS0_8RawValueERT_S9_, symObjAddr: 0x3610, symBinAddr: 0x7610, symSize: 0x3C }
  - { offset: 0x93EA, size: 0x8, addend: 0x0, symName: __ZN8facebook5react12fromRawValueINS0_5PointEEEvRKNS0_18PropsParserContextERKNS0_8RawValueERT_S9_, symObjAddr: 0x3610, symBinAddr: 0x7610, symSize: 0x3C }
  - { offset: 0x9406, size: 0x8, addend: 0x0, symName: __ZN8facebook5react12fromRawValueINS0_5PointEEEvRKNS0_18PropsParserContextERKNS0_8RawValueERT_S9_, symObjAddr: 0x3610, symBinAddr: 0x7610, symSize: 0x3C }
  - { offset: 0x950C, size: 0x8, addend: 0x0, symName: __ZN8facebook5react12fromRawValueINS0_25ScrollViewSnapToAlignmentEEEvRKNS0_18PropsParserContextERKNS0_8RawValueERT_S9_, symObjAddr: 0x364C, symBinAddr: 0x764C, symSize: 0x3C }
  - { offset: 0x951F, size: 0x8, addend: 0x0, symName: __ZN8facebook5react12fromRawValueINS0_25ScrollViewSnapToAlignmentEEEvRKNS0_18PropsParserContextERKNS0_8RawValueERT_S9_, symObjAddr: 0x364C, symBinAddr: 0x764C, symSize: 0x3C }
  - { offset: 0x958D, size: 0x8, addend: 0x0, symName: __ZN8facebook5react12fromRawValueINS0_25ScrollViewSnapToAlignmentEEEvRKNS0_18PropsParserContextERKNS0_8RawValueERT_S9_, symObjAddr: 0x364C, symBinAddr: 0x764C, symSize: 0x3C }
  - { offset: 0x95A8, size: 0x8, addend: 0x0, symName: __ZN8facebook5react12fromRawValueINS0_25ScrollViewSnapToAlignmentEEEvRKNS0_18PropsParserContextERKNS0_8RawValueERT_S9_, symObjAddr: 0x364C, symBinAddr: 0x764C, symSize: 0x3C }
  - { offset: 0x95C4, size: 0x8, addend: 0x0, symName: __ZN8facebook5react12fromRawValueINS0_25ScrollViewSnapToAlignmentEEEvRKNS0_18PropsParserContextERKNS0_8RawValueERT_S9_, symObjAddr: 0x364C, symBinAddr: 0x764C, symSize: 0x3C }
  - { offset: 0x95E0, size: 0x8, addend: 0x0, symName: __ZN8facebook5react12fromRawValueINS0_25ScrollViewSnapToAlignmentEEEvRKNS0_18PropsParserContextERKNS0_8RawValueERT_S9_, symObjAddr: 0x364C, symBinAddr: 0x764C, symSize: 0x3C }
  - { offset: 0x96E6, size: 0x8, addend: 0x0, symName: __ZN8facebook5react12fromRawValueINSt3__16vectorIdNS2_9allocatorIdEEEEEEvRKNS0_18PropsParserContextERKNS0_8RawValueERT_SD_, symObjAddr: 0x3688, symBinAddr: 0x7688, symSize: 0x40 }
  - { offset: 0x96F9, size: 0x8, addend: 0x0, symName: __ZN8facebook5react12fromRawValueINS0_30ContentInsetAdjustmentBehaviorEEEvRKNS0_18PropsParserContextERKNS0_8RawValueERT_S9_, symObjAddr: 0x36C8, symBinAddr: 0x76C8, symSize: 0x3C }
  - { offset: 0x9767, size: 0x8, addend: 0x0, symName: __ZN8facebook5react12fromRawValueINS0_30ContentInsetAdjustmentBehaviorEEEvRKNS0_18PropsParserContextERKNS0_8RawValueERT_S9_, symObjAddr: 0x36C8, symBinAddr: 0x76C8, symSize: 0x3C }
  - { offset: 0x9782, size: 0x8, addend: 0x0, symName: __ZN8facebook5react12fromRawValueINS0_30ContentInsetAdjustmentBehaviorEEEvRKNS0_18PropsParserContextERKNS0_8RawValueERT_S9_, symObjAddr: 0x36C8, symBinAddr: 0x76C8, symSize: 0x3C }
  - { offset: 0x979E, size: 0x8, addend: 0x0, symName: __ZN8facebook5react12fromRawValueINS0_30ContentInsetAdjustmentBehaviorEEEvRKNS0_18PropsParserContextERKNS0_8RawValueERT_S9_, symObjAddr: 0x36C8, symBinAddr: 0x76C8, symSize: 0x3C }
  - { offset: 0x97BA, size: 0x8, addend: 0x0, symName: __ZN8facebook5react12fromRawValueINS0_30ContentInsetAdjustmentBehaviorEEEvRKNS0_18PropsParserContextERKNS0_8RawValueERT_S9_, symObjAddr: 0x36C8, symBinAddr: 0x76C8, symSize: 0x3C }
  - { offset: 0x98C0, size: 0x8, addend: 0x0, symName: __ZN8facebook5react13BaseViewPropsD1Ev, symObjAddr: 0x3704, symBinAddr: 0x7704, symSize: 0xC }
  - { offset: 0x98D3, size: 0x8, addend: 0x0, symName: __ZN8facebook5react12fromRawValueINS0_24ScrollViewIndicatorStyleEEEvRKNS0_18PropsParserContextERKNS0_8RawValueERT_S9_, symObjAddr: 0x34CC, symBinAddr: 0x74CC, symSize: 0x3C }
  - { offset: 0x9941, size: 0x8, addend: 0x0, symName: __ZN8facebook5react12fromRawValueINS0_24ScrollViewIndicatorStyleEEEvRKNS0_18PropsParserContextERKNS0_8RawValueERT_S9_, symObjAddr: 0x34CC, symBinAddr: 0x74CC, symSize: 0x3C }
  - { offset: 0x995C, size: 0x8, addend: 0x0, symName: __ZN8facebook5react12fromRawValueINS0_24ScrollViewIndicatorStyleEEEvRKNS0_18PropsParserContextERKNS0_8RawValueERT_S9_, symObjAddr: 0x34CC, symBinAddr: 0x74CC, symSize: 0x3C }
  - { offset: 0x9978, size: 0x8, addend: 0x0, symName: __ZN8facebook5react12fromRawValueINS0_24ScrollViewIndicatorStyleEEEvRKNS0_18PropsParserContextERKNS0_8RawValueERT_S9_, symObjAddr: 0x34CC, symBinAddr: 0x74CC, symSize: 0x3C }
  - { offset: 0x9994, size: 0x8, addend: 0x0, symName: __ZN8facebook5react12fromRawValueINS0_24ScrollViewIndicatorStyleEEEvRKNS0_18PropsParserContextERKNS0_8RawValueERT_S9_, symObjAddr: 0x34CC, symBinAddr: 0x74CC, symSize: 0x3C }
  - { offset: 0x9A9A, size: 0x8, addend: 0x0, symName: __ZN8facebook5react12fromRawValueINS0_29ScrollViewKeyboardDismissModeEEEvRKNS0_18PropsParserContextERKNS0_8RawValueERT_S9_, symObjAddr: 0x3508, symBinAddr: 0x7508, symSize: 0x3C }
  - { offset: 0x9AAD, size: 0x8, addend: 0x0, symName: __ZN8facebook5react12fromRawValueINS0_14RectangleEdgesIdEEEEvRKNS0_18PropsParserContextERKNS0_8RawValueERT_SA_, symObjAddr: 0x35D0, symBinAddr: 0x75D0, symSize: 0x40 }
  - { offset: 0x9B1B, size: 0x8, addend: 0x0, symName: __ZN8facebook5react12fromRawValueINS0_14RectangleEdgesIdEEEEvRKNS0_18PropsParserContextERKNS0_8RawValueERT_SA_, symObjAddr: 0x35D0, symBinAddr: 0x75D0, symSize: 0x40 }
  - { offset: 0x9B36, size: 0x8, addend: 0x0, symName: __ZN8facebook5react12fromRawValueINS0_14RectangleEdgesIdEEEEvRKNS0_18PropsParserContextERKNS0_8RawValueERT_SA_, symObjAddr: 0x35D0, symBinAddr: 0x75D0, symSize: 0x40 }
  - { offset: 0x9B52, size: 0x8, addend: 0x0, symName: __ZN8facebook5react12fromRawValueINS0_14RectangleEdgesIdEEEEvRKNS0_18PropsParserContextERKNS0_8RawValueERT_SA_, symObjAddr: 0x35D0, symBinAddr: 0x75D0, symSize: 0x40 }
  - { offset: 0x9B6E, size: 0x8, addend: 0x0, symName: __ZN8facebook5react12fromRawValueINS0_14RectangleEdgesIdEEEEvRKNS0_18PropsParserContextERKNS0_8RawValueERT_SA_, symObjAddr: 0x35D0, symBinAddr: 0x75D0, symSize: 0x40 }
  - { offset: 0x9C74, size: 0x8, addend: 0x0, symName: __ZN8facebook5react12fromRawValueINS0_5PointEEEvRKNS0_18PropsParserContextERKNS0_8RawValueERT_S9_, symObjAddr: 0x3610, symBinAddr: 0x7610, symSize: 0x3C }
  - { offset: 0x9C87, size: 0x8, addend: 0x0, symName: __ZN8facebook5react12fromRawValueINSt3__18optionalINS0_40ScrollViewMaintainVisibleContentPositionEEEEEvRKNS0_18PropsParserContextERKNS0_8RawValueERT_SC_, symObjAddr: 0x3544, symBinAddr: 0x7544, symSize: 0x8C }
  - { offset: 0x9F75, size: 0x8, addend: 0x0, symName: __ZN8facebook5react12fromRawValueINS0_14RectangleEdgesIdEEEEvRKNS0_18PropsParserContextERKNS0_8RawValueERT_SA_, symObjAddr: 0x35D0, symBinAddr: 0x75D0, symSize: 0x40 }
  - { offset: 0x9F88, size: 0x8, addend: 0x0, symName: __ZN8facebook5react12fromRawValueINS0_29ScrollViewKeyboardDismissModeEEEvRKNS0_18PropsParserContextERKNS0_8RawValueERT_S9_, symObjAddr: 0x3508, symBinAddr: 0x7508, symSize: 0x3C }
  - { offset: 0x9FF6, size: 0x8, addend: 0x0, symName: __ZN8facebook5react12fromRawValueINS0_29ScrollViewKeyboardDismissModeEEEvRKNS0_18PropsParserContextERKNS0_8RawValueERT_S9_, symObjAddr: 0x3508, symBinAddr: 0x7508, symSize: 0x3C }
  - { offset: 0xA011, size: 0x8, addend: 0x0, symName: __ZN8facebook5react12fromRawValueINS0_29ScrollViewKeyboardDismissModeEEEvRKNS0_18PropsParserContextERKNS0_8RawValueERT_S9_, symObjAddr: 0x3508, symBinAddr: 0x7508, symSize: 0x3C }
  - { offset: 0xA02D, size: 0x8, addend: 0x0, symName: __ZN8facebook5react12fromRawValueINS0_29ScrollViewKeyboardDismissModeEEEvRKNS0_18PropsParserContextERKNS0_8RawValueERT_S9_, symObjAddr: 0x3508, symBinAddr: 0x7508, symSize: 0x3C }
  - { offset: 0xA049, size: 0x8, addend: 0x0, symName: __ZN8facebook5react12fromRawValueINS0_29ScrollViewKeyboardDismissModeEEEvRKNS0_18PropsParserContextERKNS0_8RawValueERT_S9_, symObjAddr: 0x3508, symBinAddr: 0x7508, symSize: 0x3C }
  - { offset: 0xA14F, size: 0x8, addend: 0x0, symName: __ZN8facebook5react12fromRawValueINSt3__18optionalINS0_40ScrollViewMaintainVisibleContentPositionEEEEEvRKNS0_18PropsParserContextERKNS0_8RawValueERT_SC_, symObjAddr: 0x3544, symBinAddr: 0x7544, symSize: 0x8C }
  - { offset: 0xA162, size: 0x8, addend: 0x0, symName: __ZN8facebook5react12fromRawValueIdEEvRKNS0_18PropsParserContextERKNS0_8RawValueERT_S8_, symObjAddr: 0x3478, symBinAddr: 0x7478, symSize: 0x54 }
  - { offset: 0xA34C, size: 0x8, addend: 0x0, symName: __ZN8facebook5react12fromRawValueINS0_24ScrollViewIndicatorStyleEEEvRKNS0_18PropsParserContextERKNS0_8RawValueERT_S9_, symObjAddr: 0x34CC, symBinAddr: 0x74CC, symSize: 0x3C }
  - { offset: 0xA35F, size: 0x8, addend: 0x0, symName: __ZN8facebook5react12fromRawValueIbEEvRKNS0_18PropsParserContextERKNS0_8RawValueERT_S8_, symObjAddr: 0x3420, symBinAddr: 0x7420, symSize: 0x58 }
  - { offset: 0xA54B, size: 0x8, addend: 0x0, symName: __ZN8facebook5react12fromRawValueIdEEvRKNS0_18PropsParserContextERKNS0_8RawValueERT_S8_, symObjAddr: 0x3478, symBinAddr: 0x7478, symSize: 0x54 }
  - { offset: 0xA55E, size: 0x8, addend: 0x0, symName: __ZN8facebook5react12fromRawValueINSt3__16vectorIdNS2_9allocatorIdEEEEEEvRKNS0_18PropsParserContextERKNS0_8RawValueERT_SD_, symObjAddr: 0x3688, symBinAddr: 0x7688, symSize: 0x40 }
  - { offset: 0xA5CC, size: 0x8, addend: 0x0, symName: __ZN8facebook5react12fromRawValueINSt3__16vectorIdNS2_9allocatorIdEEEEEEvRKNS0_18PropsParserContextERKNS0_8RawValueERT_SD_, symObjAddr: 0x3688, symBinAddr: 0x7688, symSize: 0x40 }
  - { offset: 0xA5E7, size: 0x8, addend: 0x0, symName: __ZN8facebook5react12fromRawValueINSt3__16vectorIdNS2_9allocatorIdEEEEEEvRKNS0_18PropsParserContextERKNS0_8RawValueERT_SD_, symObjAddr: 0x3688, symBinAddr: 0x7688, symSize: 0x40 }
  - { offset: 0xA603, size: 0x8, addend: 0x0, symName: __ZN8facebook5react12fromRawValueINSt3__16vectorIdNS2_9allocatorIdEEEEEEvRKNS0_18PropsParserContextERKNS0_8RawValueERT_SD_, symObjAddr: 0x3688, symBinAddr: 0x7688, symSize: 0x40 }
  - { offset: 0xA61F, size: 0x8, addend: 0x0, symName: __ZN8facebook5react12fromRawValueINSt3__16vectorIdNS2_9allocatorIdEEEEEEvRKNS0_18PropsParserContextERKNS0_8RawValueERT_SD_, symObjAddr: 0x3688, symBinAddr: 0x7688, symSize: 0x40 }
  - { offset: 0xA755, size: 0x8, addend: 0x0, symName: __ZN8facebook5react12fromRawValueINS0_30ContentInsetAdjustmentBehaviorEEEvRKNS0_18PropsParserContextERKNS0_8RawValueERT_S9_, symObjAddr: 0x36C8, symBinAddr: 0x76C8, symSize: 0x3C }
  - { offset: 0x30B94, size: 0x8, addend: 0x0, symName: __ZNSt3__124__put_character_sequenceB8ne200100IcNS_11char_traitsIcEEEERNS_13basic_ostreamIT_T0_EES7_PKS4_m, symObjAddr: 0x468C, symBinAddr: 0x85F0, symSize: 0x168 }
  - { offset: 0x367F0, size: 0x8, addend: 0x0, symName: __ZNSt3__126__throw_bad_variant_accessB8ne200100Ev, symObjAddr: 0x447C, symBinAddr: 0x847C, symSize: 0x34 }
  - { offset: 0x36BC1, size: 0x8, addend: 0x0, symName: __ZNSt3__119__allocate_at_leastB8ne200100INS_9allocatorIdEEEENS_19__allocation_resultINS_16allocator_traitsIT_E7pointerEEERS5_m, symObjAddr: 0x3980, symBinAddr: 0x7980, symSize: 0x34 }
  - { offset: 0x36C66, size: 0x8, addend: 0x0, symName: ___clang_call_terminate, symObjAddr: 0x39B4, symBinAddr: 0x79B4, symSize: 0x10 }
  - { offset: 0x36C7A, size: 0x8, addend: 0x0, symName: __ZNSt3__120__throw_length_errorB8ne200100EPKc, symObjAddr: 0x39C4, symBinAddr: 0x79C4, symSize: 0x50 }
  - { offset: 0x37203, size: 0x8, addend: 0x0, symName: __ZNSt3__112__destroy_atB8ne200100IN8facebook5react19AccessibilityActionELi0EEEvPT_, symObjAddr: 0x3FD8, symBinAddr: 0x7FD8, symSize: 0x50 }
  - { offset: 0x37D8E, size: 0x8, addend: 0x0, symName: __ZNSt3__116__pad_and_outputB8ne200100IcNS_11char_traitsIcEEEENS_19ostreambuf_iteratorIT_T0_EES6_PKS4_S8_S8_RNS_8ios_baseES4_, symObjAddr: 0x47F4, symBinAddr: 0x8758, symSize: 0x13C }
  - { offset: 0x38938, size: 0x8, addend: 0x0, symName: __ZNSt3__112__destroy_atB8ne200100INS_4pairIKNS_12basic_stringIcNS_11char_traitsIcEENS_9allocatorIcEEEEN8facebook5react8RawValueEEELi0EEEvPT_, symObjAddr: 0x6BE0, symBinAddr: 0xAA14, symSize: 0x3C }
  - { offset: 0x39713, size: 0x8, addend: 0x0, symName: __ZNSt3__119__allocate_at_leastB8ne200100INS_9allocatorIN8facebook5react8RawValueEEEEENS_19__allocation_resultINS_16allocator_traitsIT_E7pointerEEERS8_m, symObjAddr: 0x9DB0, symBinAddr: 0xD8C8, symSize: 0x48 }
  - { offset: 0x397B8, size: 0x8, addend: 0x0, symName: __ZNSt3__134__uninitialized_allocator_relocateB8ne200100INS_9allocatorIN8facebook5react8RawValueEEEPS4_EEvRT_T0_S9_S9_, symObjAddr: 0x9DF8, symBinAddr: 0xD910, symSize: 0x68 }
  - { offset: 0x397CC, size: 0x8, addend: 0x0, symName: __ZNSt3__134__uninitialized_allocator_relocateB8ne200100INS_9allocatorIN8facebook5react8RawValueEEEPS4_EEvRT_T0_S9_S9_, symObjAddr: 0x9DF8, symBinAddr: 0xD910, symSize: 0x68 }
  - { offset: 0x3982A, size: 0x8, addend: 0x0, symName: __ZNSt3__134__uninitialized_allocator_relocateB8ne200100INS_9allocatorIN8facebook5react8RawValueEEEPS4_EEvRT_T0_S9_S9_, symObjAddr: 0x9DF8, symBinAddr: 0xD910, symSize: 0x68 }
  - { offset: 0x3B5BC, size: 0x8, addend: 0x0, symName: __ZSt28__throw_bad_array_new_lengthB8ne200100v, symObjAddr: 0x3A38, symBinAddr: 0x7A38, symSize: 0x28 }
  - { offset: 0x3F39D, size: 0x8, addend: 0x0, symName: __ZN5folly6detail16throw_exception_INS_9TypeErrorEJPKcNS_7dynamic4TypeEEEEvDpT0_, symObjAddr: 0x44FC, symBinAddr: 0x38D40, symSize: 0x68 }
  - { offset: 0x3F62E, size: 0x8, addend: 0x0, symName: __ZN5folly6detail9convertToIdxEENSt3__19enable_ifIXooaa13is_integral_vIT0_Esr3std17is_floating_pointIT_EE5valueaasr3std17is_floating_pointIS4_EE5value13is_integral_vIS5_EENS_8ExpectedIS5_NS_14ConversionCodeEEEE4typeERKS4_, symObjAddr: 0x4B88, symBinAddr: 0x8AEC, symSize: 0xDC }
  - { offset: 0x3F796, size: 0x8, addend: 0x0, symName: __ZN5folly6detail16throw_exception_INS_17BadExpectedAccessIvEEJEEEvDpT0_, symObjAddr: 0x4CC4, symBinAddr: 0x38DDC, symSize: 0x40 }
  - { offset: 0x3FE6E, size: 0x8, addend: 0x0, symName: __ZN5folly6detail16throw_exception_INS_17BadExpectedAccessINS_14ConversionCodeEEEJS3_EEEvDpT0_, symObjAddr: 0x566C, symBinAddr: 0x38E84, symSize: 0x44 }
  - { offset: 0x3FFF5, size: 0x8, addend: 0x0, symName: __ZN5folly6detail9convertToIxdEENSt3__19enable_ifIXooaa13is_integral_vIT0_Esr3std17is_floating_pointIT_EE5valueaasr3std17is_floating_pointIS4_EE5value13is_integral_vIS5_EENS_8ExpectedIS5_NS_14ConversionCodeEEEE4typeERKS4_, symObjAddr: 0x74BC, symBinAddr: 0xB2F0, symSize: 0xD4 }
  - { offset: 0x4021D, size: 0x8, addend: 0x0, symName: __ZN5folly6detail24toAppendDoubleConversionINSt3__112basic_stringIcNS2_11char_traitsIcEENS2_9allocatorIcEEEEdEENS2_9enable_ifIXaasr3std17is_floating_pointIT0_EE5valuesr12IsSomeStringIT_EE5valueEvE4typeESA_PSB_NS_8DtoaModeEjNS_9DtoaFlagsE, symObjAddr: 0x7894, symBinAddr: 0xB6C8, symSize: 0x130 }
  - { offset: 0x41DCF, size: 0x8, addend: 0x0, symName: __ZN5folly8identityE, symObjAddr: 0xBBF3, symBinAddr: 0x3AE83, symSize: 0x0 }
  - { offset: 0x42A11, size: 0x8, addend: 0x0, symName: __ZN5folly15throw_exceptionINS_9TypeErrorEEEvOT_, symObjAddr: 0x4564, symBinAddr: 0x38DA8, symSize: 0x34 }
  - { offset: 0x431AA, size: 0x8, addend: 0x0, symName: __ZN5folly2toIdxEENSt3__19enable_ifIXsr6detail14IsArithToArithIT_T0_EE5valueES3_E4typeERKS4_, symObjAddr: 0x4B40, symBinAddr: 0x8AA4, symSize: 0x48 }
  - { offset: 0x4338E, size: 0x8, addend: 0x0, symName: __ZN5folly15throw_exceptionINS_15ConversionErrorEEEvOT_, symObjAddr: 0x4D5C, symBinAddr: 0x38E50, symSize: 0x34 }
  - { offset: 0x433D5, size: 0x8, addend: 0x0, symName: __ZN5folly15throw_exceptionINS_17BadExpectedAccessIvEEEEvOT_, symObjAddr: 0x4D04, symBinAddr: 0x38E1C, symSize: 0x34 }
  - { offset: 0x43440, size: 0x8, addend: 0x0, symName: __ZN5folly2toINSt3__112basic_stringIcNS1_11char_traitsIcEENS1_9allocatorIcEEEEJA2_cPKcA3_cxELi0EEET_DpRKT0_, symObjAddr: 0x4E94, symBinAddr: 0x8D50, symSize: 0x54 }
  - { offset: 0x43654, size: 0x8, addend: 0x0, symName: __ZN5folly11toAppendFitIJA2_cPKcA3_cxPNSt3__112basic_stringIcNS5_11char_traitsIcEENS5_9allocatorIcEEEEELi0EEEvDpRKT_, symObjAddr: 0x4EE8, symBinAddr: 0x8DA4, symSize: 0x64 }
  - { offset: 0x43929, size: 0x8, addend: 0x0, symName: __ZN5folly8toAppendINSt3__112basic_stringIcNS1_11char_traitsIcEENS1_9allocatorIcEEEEPKcEENS1_9enable_ifIXaasr3std14is_convertibleIT0_S9_EE5valuesr12IsSomeStringIT_EE5valueEvE4typeESB_PSC_, symObjAddr: 0x509C, symBinAddr: 0x8F58, symSize: 0x38 }
  - { offset: 0x439C7, size: 0x8, addend: 0x0, symName: __ZN5folly8toAppendINSt3__112basic_stringIcNS1_11char_traitsIcEENS1_9allocatorIcEEEExEENS1_9enable_ifIXaaaaaa13is_integral_vIT0_E11is_signed_vIS9_Esr12IsSomeStringIT_EE5valuegestS9_Li4EEvE4typeES9_PSA_, symObjAddr: 0x50D4, symBinAddr: 0x8F90, symSize: 0x84 }
  - { offset: 0x43B18, size: 0x8, addend: 0x0, symName: __ZN5folly13to_ascii_withILy10ENS_17to_ascii_alphabetILb0EEELm20EEEmRAT1__cy, symObjAddr: 0x5158, symBinAddr: 0x9014, symSize: 0xB8 }
  - { offset: 0x43C5C, size: 0x8, addend: 0x0, symName: __ZN5folly2toINSt3__112basic_stringIcNS1_11char_traitsIcEENS1_9allocatorIcEEEEJA2_cPKcA3_cbELi0EEET_DpRKT0_, symObjAddr: 0x5324, symBinAddr: 0x91E0, symSize: 0x54 }
  - { offset: 0x43E56, size: 0x8, addend: 0x0, symName: __ZN5folly11toAppendFitIJA2_cPKcA3_cbPNSt3__112basic_stringIcNS5_11char_traitsIcEENS5_9allocatorIcEEEEELi0EEEvDpRKT_, symObjAddr: 0x5378, symBinAddr: 0x9234, symSize: 0x64 }
  - { offset: 0x44111, size: 0x8, addend: 0x0, symName: __ZN5folly15throw_exceptionINS_17BadExpectedAccessINS_14ConversionCodeEEEEEvOT_, symObjAddr: 0x56B0, symBinAddr: 0x38EC8, symSize: 0x44 }
  - { offset: 0x447B7, size: 0x8, addend: 0x0, symName: __ZN5folly2toIxdEENSt3__19enable_ifIXsr6detail14IsArithToArithIT_T0_EE5valueES3_E4typeERKS4_, symObjAddr: 0x7474, symBinAddr: 0xB2A8, symSize: 0x48 }
  - { offset: 0x448D7, size: 0x8, addend: 0x0, symName: __ZN5folly2toINSt3__112basic_stringIcNS1_11char_traitsIcEENS1_9allocatorIcEEEEJA2_cPKcA3_cdELi0EEET_DpRKT0_, symObjAddr: 0x76A4, symBinAddr: 0xB4D8, symSize: 0x54 }
  - { offset: 0x44AD1, size: 0x8, addend: 0x0, symName: __ZN5folly11toAppendFitIJA2_cPKcA3_cdPNSt3__112basic_stringIcNS5_11char_traitsIcEENS5_9allocatorIcEEEEELi0EEEvDpRKT_, symObjAddr: 0x76F8, symBinAddr: 0xB52C, symSize: 0x64 }
  - { offset: 0x475B6, size: 0x8, addend: 0x0, symName: __ZN8facebook5react19BaseScrollViewProps7setPropERKNS0_18PropsParserContextEjPKcRKNS0_8RawValueE, symObjAddr: 0x2B20, symBinAddr: 0x6B20, symSize: 0x7D8 }
  - { offset: 0x475DE, size: 0x8, addend: 0x0, symName: __ZZN8facebook5react19BaseScrollViewProps7setPropERKNS0_18PropsParserContextEjPKcRKNS0_8RawValueEE8defaults, symObjAddr: 0x18C998, symBinAddr: 0x4C710, symSize: 0x0 }
  - { offset: 0x479E2, size: 0x8, addend: 0x0, symName: __ZN5folly6detail18pretty_name_zarrayIdNS0_14pretty_tag_gccEE6zarrayE, symObjAddr: 0xBC4B, symBinAddr: 0x3AEDB, symSize: 0x0 }
  - { offset: 0x47A3A, size: 0x8, addend: 0x0, symName: __ZN5folly6detail18pretty_name_zarrayIxNS0_14pretty_tag_gccEE6zarrayE, symObjAddr: 0xBC85, symBinAddr: 0x3AF15, symSize: 0x0 }
  - { offset: 0x48E3E, size: 0x8, addend: 0x0, symName: __ZN8facebook5react19BaseScrollViewPropsC2ERKNS0_18PropsParserContextERKS1_RKNS0_8RawPropsE, symObjAddr: 0x0, symBinAddr: 0x4000, symSize: 0xC20 }
  - { offset: 0x49C1F, size: 0x8, addend: 0x0, symName: __ZNSt3__16vectorIdNS_9allocatorIdEEE16__init_with_sizeB8ne200100IPdS5_EEvT_T0_m, symObjAddr: 0x38BC, symBinAddr: 0x78BC, symSize: 0x78 }
  - { offset: 0x49FD4, size: 0x8, addend: 0x0, symName: __ZN8facebook5react13BaseViewPropsD2Ev, symObjAddr: 0x1E18, symBinAddr: 0x5E18, symSize: 0xD0 }
  - { offset: 0x4A877, size: 0x8, addend: 0x0, symName: __ZNK8facebook5react8RawValue8hasValueEv, symObjAddr: 0x4440, symBinAddr: 0x8440, symSize: 0x3C }
  - { offset: 0x4A89B, size: 0x8, addend: 0x0, symName: __ZNK8facebook5react8RawValue8hasValueEv, symObjAddr: 0x4440, symBinAddr: 0x8440, symSize: 0x3C }
  - { offset: 0x4A8B6, size: 0x8, addend: 0x0, symName: __ZNK8facebook5react8RawValue8hasValueEv, symObjAddr: 0x4440, symBinAddr: 0x8440, symSize: 0x3C }
  - { offset: 0x4A8D2, size: 0x8, addend: 0x0, symName: __ZNK8facebook5react8RawValue8hasValueEv, symObjAddr: 0x4440, symBinAddr: 0x8440, symSize: 0x3C }
  - { offset: 0x4A8EE, size: 0x8, addend: 0x0, symName: __ZNK8facebook5react8RawValue8hasValueEv, symObjAddr: 0x4440, symBinAddr: 0x8440, symSize: 0x3C }
  - { offset: 0x4A9EC, size: 0x8, addend: 0x0, symName: __ZNSt3__126__throw_bad_variant_accessB8ne200100Ev, symObjAddr: 0x447C, symBinAddr: 0x847C, symSize: 0x34 }
  - { offset: 0x4A9F7, size: 0x8, addend: 0x0, symName: __ZNK8facebook5react8RawValuecvT_IbEEv, symObjAddr: 0x44B4, symBinAddr: 0x84B4, symSize: 0x48 }
  - { offset: 0x4AC04, size: 0x8, addend: 0x0, symName: __ZN5folly6detail16throw_exception_INS_9TypeErrorEJPKcNS_7dynamic4TypeEEEEvDpT0_, symObjAddr: 0x44FC, symBinAddr: 0x38D40, symSize: 0x68 }
  - { offset: 0x4AC2A, size: 0x8, addend: 0x0, symName: __ZNK8facebook5react8RawValuecvT_IdEEv, symObjAddr: 0x49CC, symBinAddr: 0x8930, symSize: 0x28 }
  - { offset: 0x4AC53, size: 0x8, addend: 0x0, symName: __ZNK8facebook5react8RawValuecvT_IdEEv, symObjAddr: 0x49CC, symBinAddr: 0x8930, symSize: 0x28 }
  - { offset: 0x4AC6E, size: 0x8, addend: 0x0, symName: __ZNK8facebook5react8RawValuecvT_IdEEv, symObjAddr: 0x49CC, symBinAddr: 0x8930, symSize: 0x28 }
  - { offset: 0x4AC8A, size: 0x8, addend: 0x0, symName: __ZNK8facebook5react8RawValuecvT_IdEEv, symObjAddr: 0x49CC, symBinAddr: 0x8930, symSize: 0x28 }
  - { offset: 0x4ACA6, size: 0x8, addend: 0x0, symName: __ZNK8facebook5react8RawValuecvT_IdEEv, symObjAddr: 0x49CC, symBinAddr: 0x8930, symSize: 0x28 }
  - { offset: 0x4ADE6, size: 0x8, addend: 0x0, symName: __ZNK5folly7dynamic6asImplIdEET_v, symObjAddr: 0x49F4, symBinAddr: 0x8958, symSize: 0x14C }
  - { offset: 0x4AFDB, size: 0x8, addend: 0x0, symName: __ZN8facebook5react14convertRawPropINSt3__16vectorIdNS2_9allocatorIdEEEES6_EET_RKNS0_18PropsParserContextERKNS0_8RawPropsEPKcRKS7_RKT0_SF_SF_.cold.1, symObjAddr: 0xA2A0, symBinAddr: 0x38F0C, symSize: 0x50 }
  - { offset: 0x4B558, size: 0x8, addend: 0x0, symName: __ZNSt3__16vectorINS_7variantIJN8facebook5react14LinearGradientENS3_14RadialGradientEEEENS_9allocatorIS6_EEE16__destroy_vectorclB8ne200100Ev, symObjAddr: 0x3B34, symBinAddr: 0x7B34, symSize: 0x70 }
  - { offset: 0x4B7EE, size: 0x8, addend: 0x0, symName: __ZNSt3__16vectorIN8facebook5react14FilterFunctionENS_9allocatorIS3_EEE16__destroy_vectorclB8ne200100Ev, symObjAddr: 0x3CB8, symBinAddr: 0x7CB8, symSize: 0x74 }
  - { offset: 0x4BAD3, size: 0x8, addend: 0x0, symName: __ZNSt3__16vectorIN8facebook5react9BoxShadowENS_9allocatorIS3_EEE16__destroy_vectorclB8ne200100Ev, symObjAddr: 0x3D8C, symBinAddr: 0x7D8C, symSize: 0x74 }
  - { offset: 0x4BCF0, size: 0x8, addend: 0x0, symName: __ZNSt3__110shared_ptrIvED2B8ne200100Ev, symObjAddr: 0x3E00, symBinAddr: 0x7E00, symSize: 0x58 }
  - { offset: 0x4BD82, size: 0x8, addend: 0x0, symName: __ZN8facebook5react22CascadedRectangleEdgesINS0_11SharedColorEED2Ev, symObjAddr: 0x3E58, symBinAddr: 0x7E58, symSize: 0x110 }
  - { offset: 0x4CC7D, size: 0x8, addend: 0x0, symName: __ZN8facebook5react18AccessibilityPropsD2Ev, symObjAddr: 0x3A60, symBinAddr: 0x7A60, symSize: 0xD4 }
  - { offset: 0x4D72F, size: 0x8, addend: 0x0, symName: __ZNKSt3__114default_deleteIN8facebook4yoga16SmallValueBufferILm4EE8OverflowEEclB8ne200100EPS5_, symObjAddr: 0x40B4, symBinAddr: 0x80B4, symSize: 0x44 }
  - { offset: 0x4D98B, size: 0x8, addend: 0x0, symName: __ZN8facebook5react19BaseScrollViewPropsC1ERKNS0_18PropsParserContextERKS1_RKNS0_8RawPropsE, symObjAddr: 0x1EE8, symBinAddr: 0x5EE8, symSize: 0xC38 }
  - { offset: 0x4E75E, size: 0x8, addend: 0x0, symName: __ZN8facebook5react19BaseScrollViewPropsC1Ev, symObjAddr: 0x32F8, symBinAddr: 0x72F8, symSize: 0xDC }
  - { offset: 0x4E8D9, size: 0x8, addend: 0x0, symName: __ZN8facebook5react13BaseViewPropsC2Ev, symObjAddr: 0x40F8, symBinAddr: 0x80F8, symSize: 0x258 }
  - { offset: 0x50C1C, size: 0x8, addend: 0x0, symName: __ZN8facebook5react19BaseScrollViewPropsD1Ev, symObjAddr: 0x33D4, symBinAddr: 0x73D4, symSize: 0x4C }
  - { offset: 0x50EB9, size: 0x8, addend: 0x0, symName: __ZNSt3__16vectorIdNS_9allocatorIdEEE13__move_assignERS3_NS_17integral_constantIbLb1EEE, symObjAddr: 0xA250, symBinAddr: 0xDD68, symSize: 0x50 }
  - { offset: 0x50FE0, size: 0x8, addend: 0x0, symName: __ZN8facebook5react13BaseViewPropsD1Ev, symObjAddr: 0x3704, symBinAddr: 0x7704, symSize: 0xC }
  - { offset: 0x51038, size: 0x8, addend: 0x0, symName: __ZN8facebook5react13BaseViewPropsD0Ev, symObjAddr: 0x3710, symBinAddr: 0x7710, symSize: 0x1C }
  - { offset: 0x51094, size: 0x8, addend: 0x0, symName: __ZN8facebook5react17YogaStylablePropsD1Ev, symObjAddr: 0x372C, symBinAddr: 0x772C, symSize: 0x60 }
  - { offset: 0x5133B, size: 0x8, addend: 0x0, symName: __ZN8facebook5react17YogaStylablePropsD0Ev, symObjAddr: 0x378C, symBinAddr: 0x778C, symSize: 0x60 }
  - { offset: 0x515ED, size: 0x8, addend: 0x0, symName: __ZN8facebook5react5PropsD1Ev, symObjAddr: 0x37EC, symBinAddr: 0x77EC, symSize: 0x40 }
  - { offset: 0x5174A, size: 0x8, addend: 0x0, symName: __ZN8facebook5react5PropsD0Ev, symObjAddr: 0x382C, symBinAddr: 0x782C, symSize: 0x40 }
  - { offset: 0x518CE, size: 0x8, addend: 0x0, symName: __ZN8facebook5react19BaseScrollViewPropsD0Ev, symObjAddr: 0x386C, symBinAddr: 0x786C, symSize: 0x50 }
  - { offset: 0x51C3F, size: 0x8, addend: 0x0, symName: __ZNSt3__16vectorIdNS_9allocatorIdEEE11__vallocateB8ne200100Em, symObjAddr: 0x3934, symBinAddr: 0x7934, symSize: 0x38 }
  - { offset: 0x51C97, size: 0x8, addend: 0x0, symName: __ZNSt3__16vectorIdNS_9allocatorIdEEE20__throw_length_errorB8ne200100Ev, symObjAddr: 0x396C, symBinAddr: 0x796C, symSize: 0x14 }
  - { offset: 0x51CA2, size: 0x8, addend: 0x0, symName: __ZNSt3__16vectorIdNS_9allocatorIdEEE20__throw_length_errorB8ne200100Ev, symObjAddr: 0x396C, symBinAddr: 0x796C, symSize: 0x14 }
  - { offset: 0x51CB9, size: 0x8, addend: 0x0, symName: __ZNSt3__119__allocate_at_leastB8ne200100INS_9allocatorIdEEEENS_19__allocation_resultINS_16allocator_traitsIT_E7pointerEEERS5_m, symObjAddr: 0x3980, symBinAddr: 0x7980, symSize: 0x34 }
  - { offset: 0x51CE5, size: 0x8, addend: 0x0, symName: __ZNSt12length_errorC1B8ne200100EPKc, symObjAddr: 0x3A14, symBinAddr: 0x7A14, symSize: 0x24 }
  - { offset: 0x52018, size: 0x8, addend: 0x0, symName: __ZNSt3__16vectorIN8facebook5react19AccessibilityActionENS_9allocatorIS3_EEE16__destroy_vectorclB8ne200100Ev, symObjAddr: 0x3F68, symBinAddr: 0x7F68, symSize: 0x70 }
  - { offset: 0x52153, size: 0x8, addend: 0x0, symName: __ZNSt3__16vectorINS_12basic_stringIcNS_11char_traitsIcEENS_9allocatorIcEEEENS4_IS6_EEE16__destroy_vectorclB8ne200100Ev, symObjAddr: 0x4028, symBinAddr: 0x8028, symSize: 0x40 }
  - { offset: 0x5246A, size: 0x8, addend: 0x0, symName: __ZNSt3__116__variant_detail6__dtorINS0_8__traitsIJN8facebook5react14LinearGradientENS4_14RadialGradientEEEELNS0_6_TraitE1EE9__destroyB8ne200100Ev, symObjAddr: 0x3BA4, symBinAddr: 0x7BA4, symSize: 0x54 }
  - { offset: 0x52815, size: 0x8, addend: 0x0, symName: __ZNSt3__116__variant_detail12__visitation6__base12__dispatcherIJLm0EEE10__dispatchB8ne200100IOZNS0_6__dtorINS0_8__traitsIJN8facebook5react14LinearGradientENS9_14RadialGradientEEEELNS0_6_TraitE1EE9__destroyB8ne200100EvEUlRT_E_JRNS0_6__baseILSD_1EJSA_SB_EEEEEEDcSF_DpT0_, symObjAddr: 0x3BF8, symBinAddr: 0x7BF8, symSize: 0x28 }
  - { offset: 0x529A6, size: 0x8, addend: 0x0, symName: __ZNSt3__16vectorIN8facebook5react9ColorStopENS_9allocatorIS3_EEE16__destroy_vectorclB8ne200100Ev, symObjAddr: 0x3C48, symBinAddr: 0x7C48, symSize: 0x70 }
  - { offset: 0x52C7B, size: 0x8, addend: 0x0, symName: __ZNSt3__116__variant_detail12__visitation6__base12__dispatcherIJLm1EEE10__dispatchB8ne200100IOZNS0_6__dtorINS0_8__traitsIJN8facebook5react14LinearGradientENS9_14RadialGradientEEEELNS0_6_TraitE1EE9__destroyB8ne200100EvEUlRT_E_JRNS0_6__baseILSD_1EJSA_SB_EEEEEEDcSF_DpT0_, symObjAddr: 0x3C20, symBinAddr: 0x7C20, symSize: 0x28 }
  - { offset: 0x53200, size: 0x8, addend: 0x0, symName: __ZNSt3__116__variant_detail6__dtorINS0_8__traitsIJdN8facebook5react16DropShadowParamsEEEELNS0_6_TraitE1EE9__destroyB8ne200100Ev, symObjAddr: 0x3D2C, symBinAddr: 0x7D2C, symSize: 0x54 }
  - { offset: 0x53433, size: 0x8, addend: 0x0, symName: __ZNSt3__116__variant_detail12__visitation6__base12__dispatcherIJLm0EEE10__dispatchB8ne200100IOZNS0_6__dtorINS0_8__traitsIJdN8facebook5react16DropShadowParamsEEEELNS0_6_TraitE1EE9__destroyB8ne200100EvEUlRT_E_JRNS0_6__baseILSC_1EJdSA_EEEEEEDcSE_DpT0_, symObjAddr: 0x3D80, symBinAddr: 0x7D80, symSize: 0x4 }
  - { offset: 0x5354D, size: 0x8, addend: 0x0, symName: __ZNSt3__116__variant_detail12__visitation6__base12__dispatcherIJLm1EEE10__dispatchB8ne200100IOZNS0_6__dtorINS0_8__traitsIJdN8facebook5react16DropShadowParamsEEEELNS0_6_TraitE1EE9__destroyB8ne200100EvEUlRT_E_JRNS0_6__baseILSC_1EJdSA_EEEEEEDcSE_DpT0_, symObjAddr: 0x3D84, symBinAddr: 0x7D84, symSize: 0x8 }
  - { offset: 0x53584, size: 0x8, addend: 0x0, symName: __ZNSt3__116__variant_detail12__visitation6__base12__dispatcherIJLm1EEE10__dispatchB8ne200100IOZNS0_6__dtorINS0_8__traitsIJdN8facebook5react16DropShadowParamsEEEELNS0_6_TraitE1EE9__destroyB8ne200100EvEUlRT_E_JRNS0_6__baseILSC_1EJdSA_EEEEEEDcSE_DpT0_, symObjAddr: 0x3D84, symBinAddr: 0x7D84, symSize: 0x8 }
  - { offset: 0x535A9, size: 0x8, addend: 0x0, symName: __ZNSt3__116__variant_detail12__visitation6__base12__dispatcherIJLm1EEE10__dispatchB8ne200100IOZNS0_6__dtorINS0_8__traitsIJdN8facebook5react16DropShadowParamsEEEELNS0_6_TraitE1EE9__destroyB8ne200100EvEUlRT_E_JRNS0_6__baseILSC_1EJdSA_EEEEEEDcSE_DpT0_, symObjAddr: 0x3D84, symBinAddr: 0x7D84, symSize: 0x8 }
  - { offset: 0x535CD, size: 0x8, addend: 0x0, symName: __ZNSt3__116__variant_detail12__visitation6__base12__dispatcherIJLm1EEE10__dispatchB8ne200100IOZNS0_6__dtorINS0_8__traitsIJdN8facebook5react16DropShadowParamsEEEELNS0_6_TraitE1EE9__destroyB8ne200100EvEUlRT_E_JRNS0_6__baseILSC_1EJdSA_EEEEEEDcSE_DpT0_, symObjAddr: 0x3D84, symBinAddr: 0x7D84, symSize: 0x8 }
  - { offset: 0x535E9, size: 0x8, addend: 0x0, symName: __ZNSt3__116__variant_detail12__visitation6__base12__dispatcherIJLm1EEE10__dispatchB8ne200100IOZNS0_6__dtorINS0_8__traitsIJdN8facebook5react16DropShadowParamsEEEELNS0_6_TraitE1EE9__destroyB8ne200100EvEUlRT_E_JRNS0_6__baseILSC_1EJdSA_EEEEEEDcSE_DpT0_, symObjAddr: 0x3D84, symBinAddr: 0x7D84, symSize: 0x8 }
  - { offset: 0x53605, size: 0x8, addend: 0x0, symName: __ZNSt3__116__variant_detail12__visitation6__base12__dispatcherIJLm1EEE10__dispatchB8ne200100IOZNS0_6__dtorINS0_8__traitsIJdN8facebook5react16DropShadowParamsEEEELNS0_6_TraitE1EE9__destroyB8ne200100EvEUlRT_E_JRNS0_6__baseILSC_1EJdSA_EEEEEEDcSE_DpT0_, symObjAddr: 0x3D84, symBinAddr: 0x7D84, symSize: 0x8 }
  - { offset: 0x53621, size: 0x8, addend: 0x0, symName: __ZNSt3__116__variant_detail12__visitation6__base12__dispatcherIJLm1EEE10__dispatchB8ne200100IOZNS0_6__dtorINS0_8__traitsIJdN8facebook5react16DropShadowParamsEEEELNS0_6_TraitE1EE9__destroyB8ne200100EvEUlRT_E_JRNS0_6__baseILSC_1EJdSA_EEEEEEDcSE_DpT0_, symObjAddr: 0x3D84, symBinAddr: 0x7D84, symSize: 0x8 }
  - { offset: 0x53AFB, size: 0x8, addend: 0x0, symName: __ZNSt3__16vectorINS_12basic_stringIcNS_11char_traitsIcEENS_9allocatorIcEEEENS4_IS6_EEE5clearB8ne200100Ev, symObjAddr: 0x4068, symBinAddr: 0x8068, symSize: 0x4C }
  - { offset: 0x546AF, size: 0x8, addend: 0x0, symName: __ZN8facebook5react17YogaStylablePropsC2Ev, symObjAddr: 0x4350, symBinAddr: 0x8350, symSize: 0xF0 }
  - { offset: 0x546E6, size: 0x8, addend: 0x0, symName: __ZN8facebook5react17YogaStylablePropsC2Ev, symObjAddr: 0x4350, symBinAddr: 0x8350, symSize: 0xF0 }
  - { offset: 0x552C4, size: 0x8, addend: 0x0, symName: __ZNSt18bad_variant_accessD1Ev, symObjAddr: 0x44B0, symBinAddr: 0x84B0, symSize: 0x4 }
  - { offset: 0x552F2, size: 0x8, addend: 0x0, symName: __ZNSt18bad_variant_accessD1Ev, symObjAddr: 0x44B0, symBinAddr: 0x84B0, symSize: 0x4 }
  - { offset: 0x55434, size: 0x8, addend: 0x0, symName: __ZNK8facebook5react8RawValuecvT_IbEEv.cold.1, symObjAddr: 0xA2F0, symBinAddr: 0x38F5C, symSize: 0x1C }
  - { offset: 0x55535, size: 0x8, addend: 0x0, symName: __ZNSt3__112basic_stringIcNS_11char_traitsIcEENS_9allocatorIcEEEC2B8ne200100ILi0EEEPKc, symObjAddr: 0x45D4, symBinAddr: 0x8538, symSize: 0xA4 }
  - { offset: 0x5578B, size: 0x8, addend: 0x0, symName: __ZNSt3__112basic_stringIcNS_11char_traitsIcEENS_9allocatorIcEEE20__throw_length_errorB8ne200100Ev, symObjAddr: 0x4678, symBinAddr: 0x85DC, symSize: 0x14 }
  - { offset: 0x557A3, size: 0x8, addend: 0x0, symName: __ZN5folly9TypeErrorC1EOS0_, symObjAddr: 0x459C, symBinAddr: 0x8500, symSize: 0x24 }
  - { offset: 0x557FD, size: 0x8, addend: 0x0, symName: __ZN5folly9TypeErrorD1Ev, symObjAddr: 0x4598, symBinAddr: 0x84FC, symSize: 0x4 }
  - { offset: 0x5581F, size: 0x8, addend: 0x0, symName: __ZN5folly9TypeErrorD1Ev, symObjAddr: 0x4598, symBinAddr: 0x84FC, symSize: 0x4 }
  - { offset: 0x5585A, size: 0x8, addend: 0x0, symName: __ZN5folly9TypeErrorD0Ev, symObjAddr: 0x45C0, symBinAddr: 0x8524, symSize: 0x14 }
  - { offset: 0x55A10, size: 0x8, addend: 0x0, symName: __ZNSt3__112basic_stringIcNS_11char_traitsIcEENS_9allocatorIcEEE20__throw_length_errorB8ne200100Ev, symObjAddr: 0x4678, symBinAddr: 0x85DC, symSize: 0x14 }
  - { offset: 0x55A27, size: 0x8, addend: 0x0, symName: __ZNSt3__124__put_character_sequenceB8ne200100IcNS_11char_traitsIcEEEERNS_13basic_ostreamIT_T0_EES7_PKS4_m, symObjAddr: 0x468C, symBinAddr: 0x85F0, symSize: 0x168 }
  - { offset: 0x55D21, size: 0x8, addend: 0x0, symName: __ZNSt3__112basic_stringIcNS_11char_traitsIcEENS_9allocatorIcEEEC2B8ne200100Emc, symObjAddr: 0x4930, symBinAddr: 0x8894, symSize: 0x9C }
  - { offset: 0x55F51, size: 0x8, addend: 0x0, symName: __ZNK8facebook5react8RawValuecvT_IdEEv, symObjAddr: 0x49CC, symBinAddr: 0x8930, symSize: 0x28 }
  - { offset: 0x56036, size: 0x8, addend: 0x0, symName: __ZNK5folly7dynamic6asImplIdEET_v, symObjAddr: 0x49F4, symBinAddr: 0x8958, symSize: 0x14C }
  - { offset: 0x56436, size: 0x8, addend: 0x0, symName: __ZN5folly2toIdxEENSt3__19enable_ifIXsr6detail14IsArithToArithIT_T0_EE5valueES3_E4typeERKS4_, symObjAddr: 0x4B40, symBinAddr: 0x8AA4, symSize: 0x48 }
  - { offset: 0x568D1, size: 0x8, addend: 0x0, symName: __ZN5folly15expected_detail30expected_detail_ExpectedHelper14ExpectedHelper12thenOrThrow_INS0_15ExpectedStorageIdNS_14ConversionCodeELNS0_11StorageTypeE0EEERKNS_11identity_fnEZNS_2toIdbEENSt3__19enable_ifIXsr6detail14IsArithToArithIT_T0_EE5valueESE_E4typeERKSF_EUlS5_E_OdNS_15ConversionErrorELb0ELi0EEET2_OSE_OSF_OT1_, symObjAddr: 0x5210, symBinAddr: 0x90CC, symSize: 0x60 }
  - { offset: 0x569FD, size: 0x8, addend: 0x0, symName: __ZN5folly15expected_detail30expected_detail_ExpectedHelper14ExpectedHelper12thenOrThrow_IRNS0_15ExpectedStorageINS_5RangeIPKcEENS_14ConversionCodeELNS0_11StorageTypeE1EEENS_6detail18CheckTrailingSpaceEZNS_2toIdEENSt3__19enable_ifIXntsr3std7is_sameIS8_T_EE5valueESI_E4typeES8_EUlS9_E_NS_8ExpectedINS_4UnitES9_EEvLb0ELi0EEET2_OSI_OT0_OT1_, symObjAddr: 0x5568, symBinAddr: 0x9424, symSize: 0x2C }
  - { offset: 0x56A54, size: 0x8, addend: 0x0, symName: __ZNK5folly6detail18CheckTrailingSpaceclENS_5RangeIPKcEE, symObjAddr: 0x5594, symBinAddr: 0x9450, symSize: 0x90 }
  - { offset: 0x56A99, size: 0x8, addend: 0x0, symName: __ZNK5folly7dynamic6asImplIdEET_v.cold.1, symObjAddr: 0xA30C, symBinAddr: 0x38F78, symSize: 0x24 }
  - { offset: 0x56B6D, size: 0x8, addend: 0x0, symName: __ZN5folly15expected_detail30expected_detail_ExpectedHelper14ExpectedHelper12thenOrThrow_INS0_15ExpectedStorageIdNS_14ConversionCodeELNS0_11StorageTypeE0EEERKNS_11identity_fnEZNS_2toIdxEENSt3__19enable_ifIXsr6detail14IsArithToArithIT_T0_EE5valueESE_E4typeERKSF_EUlS5_E_OdNS_15ConversionErrorELb0ELi0EEET2_OSE_OSF_OT1_, symObjAddr: 0x4C64, symBinAddr: 0x8BC8, symSize: 0x60 }
  - { offset: 0x56D38, size: 0x8, addend: 0x0, symName: __ZZN5folly2toIdxEENSt3__19enable_ifIXsr6detail14IsArithToArithIT_T0_EE5valueES3_E4typeERKS4_ENKUlNS_14ConversionCodeEE_clES9_, symObjAddr: 0x4D90, symBinAddr: 0x8C4C, symSize: 0xB4 }
  - { offset: 0x5711D, size: 0x8, addend: 0x0, symName: __ZN5folly17BadExpectedAccessIvED1Ev, symObjAddr: 0x4D38, symBinAddr: 0x8C28, symSize: 0x4 }
  - { offset: 0x5713F, size: 0x8, addend: 0x0, symName: __ZN5folly17BadExpectedAccessIvED1Ev, symObjAddr: 0x4D38, symBinAddr: 0x8C28, symSize: 0x4 }
  - { offset: 0x57159, size: 0x8, addend: 0x0, symName: __ZN5folly17BadExpectedAccessIvED0Ev, symObjAddr: 0x4D3C, symBinAddr: 0x8C2C, symSize: 0x14 }
  - { offset: 0x571BC, size: 0x8, addend: 0x0, symName: __ZNK5folly17BadExpectedAccessIvE4whatEv, symObjAddr: 0x4D50, symBinAddr: 0x8C40, symSize: 0xC }
  - { offset: 0x571E9, size: 0x8, addend: 0x0, symName: __ZN5folly15ConversionErrorC1EOS0_, symObjAddr: 0x4E48, symBinAddr: 0x8D04, symSize: 0x38 }
  - { offset: 0x57328, size: 0x8, addend: 0x0, symName: __ZN5folly15ConversionErrorD1Ev, symObjAddr: 0x4E44, symBinAddr: 0x8D00, symSize: 0x4 }
  - { offset: 0x5734A, size: 0x8, addend: 0x0, symName: __ZN5folly15ConversionErrorD1Ev, symObjAddr: 0x4E44, symBinAddr: 0x8D00, symSize: 0x4 }
  - { offset: 0x57365, size: 0x8, addend: 0x0, symName: __ZN5folly15ConversionErrorD1Ev, symObjAddr: 0x4E44, symBinAddr: 0x8D00, symSize: 0x4 }
  - { offset: 0x573F0, size: 0x8, addend: 0x0, symName: __ZN5folly15ConversionErrorD0Ev, symObjAddr: 0x4E80, symBinAddr: 0x8D3C, symSize: 0x14 }
  - { offset: 0x574AC, size: 0x8, addend: 0x0, symName: __ZN5folly6detail25EstimateSpaceToReserveAllINSt3__116integer_sequenceImJLm0ELm1ELm2ELm3ELm4EEEEE4callIJA2_cPKcA3_cxPNS2_12basic_stringIcNS2_11char_traitsIcEENS2_9allocatorIcEEEEEEEmDpRKT_, symObjAddr: 0x4F4C, symBinAddr: 0x8E08, symSize: 0xD4 }
  - { offset: 0x5769D, size: 0x8, addend: 0x0, symName: __ZN5folly6detail18ToAppendStrImplAllINSt3__116integer_sequenceImJLm0ELm1ELm2ELm3ELm4EEEEE4callIJA2_cPKcA3_cxPNS2_12basic_stringIcNS2_11char_traitsIcEENS2_9allocatorIcEEEEEEEvDpRKT_, symObjAddr: 0x5020, symBinAddr: 0x8EDC, symSize: 0x7C }
  - { offset: 0x57972, size: 0x8, addend: 0x0, symName: __ZZN5folly2toIdbEENSt3__19enable_ifIXsr6detail14IsArithToArithIT_T0_EE5valueES3_E4typeERKS4_ENKUlNS_14ConversionCodeEE_clES9_, symObjAddr: 0x5270, symBinAddr: 0x912C, symSize: 0xB4 }
  - { offset: 0x57CA1, size: 0x8, addend: 0x0, symName: __ZN5folly6detail25EstimateSpaceToReserveAllINSt3__116integer_sequenceImJLm0ELm1ELm2ELm3ELm4EEEEE4callIJA2_cPKcA3_cbPNS2_12basic_stringIcNS2_11char_traitsIcEENS2_9allocatorIcEEEEEEEmDpRKT_, symObjAddr: 0x53DC, symBinAddr: 0x9298, symSize: 0xC8 }
  - { offset: 0x57EA0, size: 0x8, addend: 0x0, symName: __ZN5folly6detail18ToAppendStrImplAllINSt3__116integer_sequenceImJLm0ELm1ELm2ELm3ELm4EEEEE4callIJA2_cPKcA3_cbPNS2_12basic_stringIcNS2_11char_traitsIcEENS2_9allocatorIcEEEEEEEvDpRKT_, symObjAddr: 0x54A4, symBinAddr: 0x9360, symSize: 0xC4 }
  - { offset: 0x581D5, size: 0x8, addend: 0x0, symName: __ZNK5folly6detail18CheckTrailingSpaceclENS_5RangeIPKcEE, symObjAddr: 0x5594, symBinAddr: 0x9450, symSize: 0x90 }
  - { offset: 0x58218, size: 0x8, addend: 0x0, symName: __ZNK5folly6detail18CheckTrailingSpaceclENS_5RangeIPKcEE, symObjAddr: 0x5594, symBinAddr: 0x9450, symSize: 0x90 }
  - { offset: 0x58232, size: 0x8, addend: 0x0, symName: __ZNK5folly6detail18CheckTrailingSpaceclENS_5RangeIPKcEE, symObjAddr: 0x5594, symBinAddr: 0x9450, symSize: 0x90 }
  - { offset: 0x582B0, size: 0x8, addend: 0x0, symName: __ZN5folly15expected_detail30expected_detail_ExpectedHelper14ExpectedHelper12thenOrThrow_IRNS0_15ExpectedStorageINS_5RangeIPKcEENS_14ConversionCodeELNS0_11StorageTypeE1EEENS_6detail18CheckTrailingSpaceEZNS_2toIdEENSt3__19enable_ifIXntsr3std7is_sameIS8_T_EE5valueESI_E4typeES8_EUlS9_E_NS_8ExpectedINS_4UnitES9_EEvLb0ELi0EEET2_OSI_OT0_OT1_.cold.1, symObjAddr: 0xA330, symBinAddr: 0x38F9C, symSize: 0x28 }
  - { offset: 0x58353, size: 0x8, addend: 0x0, symName: __ZZN5folly2toIdEENSt3__19enable_ifIXntsr3std7is_sameINS_5RangeIPKcEET_EE5valueES7_E4typeES6_ENKUlNS_14ConversionCodeEE_clESA_, symObjAddr: 0x5624, symBinAddr: 0x94E0, symSize: 0x48 }
  - { offset: 0x584E9, size: 0x8, addend: 0x0, symName: __ZN5folly17BadExpectedAccessINS_14ConversionCodeEED1Ev, symObjAddr: 0x56F4, symBinAddr: 0x9528, symSize: 0x4 }
  - { offset: 0x5850B, size: 0x8, addend: 0x0, symName: __ZN5folly17BadExpectedAccessINS_14ConversionCodeEED1Ev, symObjAddr: 0x56F4, symBinAddr: 0x9528, symSize: 0x4 }
  - { offset: 0x58526, size: 0x8, addend: 0x0, symName: __ZN5folly17BadExpectedAccessINS_14ConversionCodeEED1Ev, symObjAddr: 0x56F4, symBinAddr: 0x9528, symSize: 0x4 }
  - { offset: 0x58541, size: 0x8, addend: 0x0, symName: __ZN5folly17BadExpectedAccessINS_14ConversionCodeEED0Ev, symObjAddr: 0x56F8, symBinAddr: 0x952C, symSize: 0x14 }
  - { offset: 0x585E1, size: 0x8, addend: 0x0, symName: __ZZN5folly2toIdEENSt3__19enable_ifIXntsr3std7is_sameINS_5RangeIPKcEET_EE5valueES7_E4typeES6_ENKUlNS_14ConversionCodeEE0_clESA_, symObjAddr: 0x570C, symBinAddr: 0x9540, symSize: 0x50 }
  - { offset: 0x586D7, size: 0x8, addend: 0x0, symName: __ZNK5folly8ExpectedINS_5RangeIPKcEENS_14ConversionCodeEE12requireValueEv, symObjAddr: 0x575C, symBinAddr: 0x9590, symSize: 0x30 }
  - { offset: 0x5875E, size: 0x8, addend: 0x0, symName: __ZN8facebook5react12fromRawValueERKNS0_18PropsParserContextERKNS0_8RawValueERNS0_24ScrollViewIndicatorStyleE, symObjAddr: 0x578C, symBinAddr: 0x95C0, symSize: 0x154 }
  - { offset: 0x5884D, size: 0x8, addend: 0x0, symName: __ZNK8facebook5react8RawValuecvT_INSt3__112basic_stringIcNS4_11char_traitsIcEENS4_9allocatorIcEEEEEEv, symObjAddr: 0x58E0, symBinAddr: 0x9714, symSize: 0x38 }
  - { offset: 0x58996, size: 0x8, addend: 0x0, symName: __ZN8facebook5react8RawValue9castValueERKN5folly7dynamicEPNSt3__112basic_stringIcNS6_11char_traitsIcEENS6_9allocatorIcEEEE, symObjAddr: 0x5918, symBinAddr: 0x974C, symSize: 0x44 }
  - { offset: 0x589B2, size: 0x8, addend: 0x0, symName: __ZN8facebook5react8RawValue9castValueERKN5folly7dynamicEPNSt3__112basic_stringIcNS6_11char_traitsIcEENS6_9allocatorIcEEEE, symObjAddr: 0x5918, symBinAddr: 0x974C, symSize: 0x44 }
  - { offset: 0x58A29, size: 0x8, addend: 0x0, symName: __ZN8facebook5react8RawValue9castValueERKN5folly7dynamicEPNSt3__112basic_stringIcNS6_11char_traitsIcEENS6_9allocatorIcEEEE, symObjAddr: 0x5918, symBinAddr: 0x974C, symSize: 0x44 }
  - { offset: 0x58ABF, size: 0x8, addend: 0x0, symName: __ZN8facebook5react8RawValue9castValueEPNS_3jsi7RuntimeERKNS2_5ValueEPNSt3__112basic_stringIcNS8_11char_traitsIcEENS8_9allocatorIcEEEE, symObjAddr: 0x595C, symBinAddr: 0x9790, symSize: 0x84 }
  - { offset: 0x58ACA, size: 0x8, addend: 0x0, symName: __ZN8facebook5react8RawValue9castValueEPNS_3jsi7RuntimeERKNS2_5ValueEPNSt3__112basic_stringIcNS8_11char_traitsIcEENS8_9allocatorIcEEEE, symObjAddr: 0x595C, symBinAddr: 0x9790, symSize: 0x84 }
  - { offset: 0x58D08, size: 0x8, addend: 0x0, symName: __ZNSt3__112basic_stringIcNS_11char_traitsIcEENS_9allocatorIcEEE25__init_copy_ctor_externalEPKcm, symObjAddr: 0x59E0, symBinAddr: 0x9814, symSize: 0x80 }
  - { offset: 0x58ED8, size: 0x8, addend: 0x0, symName: __ZN8facebook5react12fromRawValueERKNS0_18PropsParserContextERKNS0_8RawValueERNS0_29ScrollViewKeyboardDismissModeE, symObjAddr: 0x5A60, symBinAddr: 0x9894, symSize: 0x158 }
  - { offset: 0x58EE3, size: 0x8, addend: 0x0, symName: __ZN8facebook5react8RawValue9castValueERKN5folly7dynamicEPNSt3__112basic_stringIcNS6_11char_traitsIcEENS6_9allocatorIcEEEE.cold.1, symObjAddr: 0xA358, symBinAddr: 0x38FC4, symSize: 0x1C }
  - { offset: 0x5905D, size: 0x8, addend: 0x0, symName: __ZNK8facebook5react8RawValuecvT_INSt3__113unordered_mapINS4_12basic_stringIcNS4_11char_traitsIcEENS4_9allocatorIcEEEES1_NS4_4hashISB_EENS4_8equal_toISB_EENS9_INS4_4pairIKSB_S1_EEEEEEEEv, symObjAddr: 0x5CC4, symBinAddr: 0x9AF8, symSize: 0x38 }
  - { offset: 0x591A6, size: 0x8, addend: 0x0, symName: __ZN8facebook5react8RawValue9castValueIS1_EENSt3__113unordered_mapINS3_12basic_stringIcNS3_11char_traitsIcEENS3_9allocatorIcEEEET_NS3_4hashISA_EENS3_8equal_toISA_EENS8_INS3_4pairIKSA_SB_EEEEEERKN5folly7dynamicEPSK_, symObjAddr: 0x5CFC, symBinAddr: 0x9B30, symSize: 0x138 }
  - { offset: 0x591BA, size: 0x8, addend: 0x0, symName: __ZNSt3__112__hash_tableINS_17__hash_value_typeINS_12basic_stringIcNS_11char_traitsIcEENS_9allocatorIcEEEEN8facebook5react8RawValueEEENS_22__unordered_map_hasherIS7_SB_NS_4hashIS7_EENS_8equal_toIS7_EELb1EEENS_21__unordered_map_equalIS7_SB_SG_SE_Lb1EEENS5_ISB_EEE4findIS7_EENS_15__hash_iteratorIPNS_11__hash_nodeISB_PvEEEERKT_, symObjAddr: 0x720C, symBinAddr: 0xB040, symSize: 0xF8 }
  - { offset: 0x593AE, size: 0x8, addend: 0x0, symName: __ZNK8facebook5react8RawValuecvT_IiEEv, symObjAddr: 0x7304, symBinAddr: 0xB138, symSize: 0x38 }
  - { offset: 0x59571, size: 0x8, addend: 0x0, symName: __ZNK5folly7dynamic6asImplIxEET_v, symObjAddr: 0x733C, symBinAddr: 0xB170, symSize: 0x138 }
  - { offset: 0x59585, size: 0x8, addend: 0x0, symName: __ZNSt3__112__hash_tableINS_17__hash_value_typeINS_12basic_stringIcNS_11char_traitsIcEENS_9allocatorIcEEEEN8facebook5react8RawValueEEENS_22__unordered_map_hasherIS7_SB_NS_4hashIS7_EENS_8equal_toIS7_EELb1EEENS_21__unordered_map_equalIS7_SB_SG_SE_Lb1EEENS5_ISB_EEED2Ev, symObjAddr: 0x7B9C, symBinAddr: 0xB9D0, symSize: 0x38 }
  - { offset: 0x596DB, size: 0x8, addend: 0x0, symName: __ZN8facebook5react8RawValue9castValueIS1_EENSt3__113unordered_mapINS3_12basic_stringIcNS3_11char_traitsIcEENS3_9allocatorIcEEEET_NS3_4hashISA_EENS3_8equal_toISA_EENS8_INS3_4pairIKSA_SB_EEEEEERKN5folly7dynamicEPSK_, symObjAddr: 0x5CFC, symBinAddr: 0x9B30, symSize: 0x138 }
  - { offset: 0x59F06, size: 0x8, addend: 0x0, symName: __ZN8facebook5react8RawValue9castValueIS1_EENSt3__113unordered_mapINS3_12basic_stringIcNS3_11char_traitsIcEENS3_9allocatorIcEEEET_NS3_4hashISA_EENS3_8equal_toISA_EENS8_INS3_4pairIKSA_SB_EEEEEEPNS_3jsi7RuntimeERKNSL_5ValueEPSK_, symObjAddr: 0x5E34, symBinAddr: 0x9C68, symSize: 0x264 }
  - { offset: 0x5B410, size: 0x8, addend: 0x0, symName: __ZNSt3__112__hash_tableINS_17__hash_value_typeINS_12basic_stringIcNS_11char_traitsIcEENS_9allocatorIcEEEEN8facebook5react8RawValueEEENS_22__unordered_map_hasherIS7_SB_NS_4hashIS7_EENS_8equal_toIS7_EELb1EEENS_21__unordered_map_equalIS7_SB_SG_SE_Lb1EEENS5_ISB_EEE25__emplace_unique_key_argsIS7_JRKNS_21piecewise_construct_tENS_5tupleIJRKS7_EEENSQ_IJEEEEEENS_4pairINS_15__hash_iteratorIPNS_11__hash_nodeISB_PvEEEEbEERKT_DpOT0_, symObjAddr: 0x60CC, symBinAddr: 0x9F00, symSize: 0x268 }
  - { offset: 0x5B8D9, size: 0x8, addend: 0x0, symName: __ZN8facebook5react8RawValueaSEOS1_, symObjAddr: 0x6098, symBinAddr: 0x9ECC, symSize: 0x34 }
  - { offset: 0x5B9A2, size: 0x8, addend: 0x0, symName: __ZNSt3__116__variant_detail6__dtorINS0_8__traitsIJN5folly7dynamicENS_4pairIPN8facebook3jsi7RuntimeENS7_5ValueEEEEEELNS0_6_TraitE1EE9__destroyB8ne200100Ev, symObjAddr: 0x6C78, symBinAddr: 0xAAAC, symSize: 0x54 }
  - { offset: 0x5BDE2, size: 0x8, addend: 0x0, symName: __ZN8facebook5react8RawValueC2ERNS_3jsi7RuntimeERKNS2_5ValueE, symObjAddr: 0x6DB8, symBinAddr: 0xABEC, symSize: 0x78 }
  - { offset: 0x5C112, size: 0x8, addend: 0x0, symName: __ZNSt3__112__hash_tableINS_17__hash_value_typeINS_12basic_stringIcNS_11char_traitsIcEENS_9allocatorIcEEEEN8facebook5react8RawValueEEENS_22__unordered_map_hasherIS7_SB_NS_4hashIS7_EENS_8equal_toIS7_EELb1EEENS_21__unordered_map_equalIS7_SB_SG_SE_Lb1EEENS5_ISB_EEE25__emplace_unique_key_argsIS7_JRS7_SA_EEENS_4pairINS_15__hash_iteratorIPNS_11__hash_nodeISB_PvEEEEbEERKT_DpOT0_, symObjAddr: 0x6E30, symBinAddr: 0xAC64, symSize: 0x258 }
  - { offset: 0x5C63E, size: 0x8, addend: 0x0, symName: __ZNSt3__116__variant_detail12__assignmentINS0_8__traitsIJN5folly7dynamicENS_4pairIPN8facebook3jsi7RuntimeENS7_5ValueEEEEEEE16__generic_assignB8ne200100INS0_17__move_assignmentISC_LNS0_6_TraitE1EEEEEvOT_, symObjAddr: 0x6C1C, symBinAddr: 0xAA50, symSize: 0x5C }
  - { offset: 0x5C928, size: 0x8, addend: 0x0, symName: __ZNKSt3__113__string_hashIcNS_9allocatorIcEEEclB8ne200100ERKNS_12basic_stringIcNS_11char_traitsIcEES2_EE, symObjAddr: 0x63B4, symBinAddr: 0xA1E8, symSize: 0x3C }
  - { offset: 0x5C9F8, size: 0x8, addend: 0x0, symName: __ZNKSt3__18equal_toINS_12basic_stringIcNS_11char_traitsIcEENS_9allocatorIcEEEEEclB8ne200100ERKS6_S9_, symObjAddr: 0x685C, symBinAddr: 0xA690, symSize: 0x70 }
  - { offset: 0x5CA43, size: 0x8, addend: 0x0, symName: __ZNKSt3__18equal_toINS_12basic_stringIcNS_11char_traitsIcEENS_9allocatorIcEEEEEclB8ne200100ERKS6_S9_, symObjAddr: 0x685C, symBinAddr: 0xA690, symSize: 0x70 }
  - { offset: 0x5CA73, size: 0x8, addend: 0x0, symName: __ZNKSt3__18equal_toINS_12basic_stringIcNS_11char_traitsIcEENS_9allocatorIcEEEEEclB8ne200100ERKS6_S9_, symObjAddr: 0x685C, symBinAddr: 0xA690, symSize: 0x70 }
  - { offset: 0x5CA8F, size: 0x8, addend: 0x0, symName: __ZNKSt3__18equal_toINS_12basic_stringIcNS_11char_traitsIcEENS_9allocatorIcEEEEEclB8ne200100ERKS6_S9_, symObjAddr: 0x685C, symBinAddr: 0xA690, symSize: 0x70 }
  - { offset: 0x5CB92, size: 0x8, addend: 0x0, symName: __ZNSt3__112__hash_tableINS_17__hash_value_typeINS_12basic_stringIcNS_11char_traitsIcEENS_9allocatorIcEEEEN8facebook5react8RawValueEEENS_22__unordered_map_hasherIS7_SB_NS_4hashIS7_EENS_8equal_toIS7_EELb1EEENS_21__unordered_map_equalIS7_SB_SG_SE_Lb1EEENS5_ISB_EEE21__construct_node_hashIRKNS_21piecewise_construct_tEJNS_5tupleIJRKS7_EEENSQ_IJEEEEEENS_10unique_ptrINS_11__hash_nodeISB_PvEENS_22__hash_node_destructorINS5_ISY_EEEEEEmOT_DpOT0_, symObjAddr: 0x6334, symBinAddr: 0xA168, symSize: 0x80 }
  - { offset: 0x5CF02, size: 0x8, addend: 0x0, symName: __ZNSt3__112__hash_tableINS_17__hash_value_typeINS_12basic_stringIcNS_11char_traitsIcEENS_9allocatorIcEEEEN8facebook5react8RawValueEEENS_22__unordered_map_hasherIS7_SB_NS_4hashIS7_EENS_8equal_toIS7_EELb1EEENS_21__unordered_map_equalIS7_SB_SG_SE_Lb1EEENS5_ISB_EEE8__rehashILb1EEEvm, symObjAddr: 0x696C, symBinAddr: 0xA7A0, symSize: 0xDC }
  - { offset: 0x5CFF9, size: 0x8, addend: 0x0, symName: __ZNSt3__110unique_ptrINS_11__hash_nodeINS_17__hash_value_typeINS_12basic_stringIcNS_11char_traitsIcEENS_9allocatorIcEEEEN8facebook5react8RawValueEEEPvEENS_22__hash_node_destructorINS6_ISE_EEEEE5resetB8ne200100EPSE_, symObjAddr: 0x6B98, symBinAddr: 0xA9CC, symSize: 0x48 }
  - { offset: 0x5D417, size: 0x8, addend: 0x0, symName: __ZNSt3__14pairIKNS_12basic_stringIcNS_11char_traitsIcEENS_9allocatorIcEEEEN8facebook5react8RawValueEEC2B8ne200100IJRS7_EJEJLm0EEJEEENS_21piecewise_construct_tERNS_5tupleIJDpT_EEERNSF_IJDpT0_EEENS_15__tuple_indicesIJXspT1_EEEENSO_IJXspT2_EEEE, symObjAddr: 0x68CC, symBinAddr: 0xA700, symSize: 0xA0 }
  - { offset: 0x5D827, size: 0x8, addend: 0x0, symName: __ZNKSt3__121__murmur2_or_cityhashImLm64EEclB8ne200100EPKvm, symObjAddr: 0x63F0, symBinAddr: 0xA224, symSize: 0x208 }
  - { offset: 0x5DE7A, size: 0x8, addend: 0x0, symName: __ZNSt3__121__murmur2_or_cityhashImLm64EE18__hash_len_0_to_16B8ne200100EPKcm, symObjAddr: 0x65F8, symBinAddr: 0xA42C, symSize: 0xF8 }
  - { offset: 0x5E07C, size: 0x8, addend: 0x0, symName: __ZNSt3__121__murmur2_or_cityhashImLm64EE19__hash_len_33_to_64B8ne200100EPKcm, symObjAddr: 0x679C, symBinAddr: 0xA5D0, symSize: 0xC0 }
  - { offset: 0x5E2E1, size: 0x8, addend: 0x0, symName: __ZNSt3__121__murmur2_or_cityhashImLm64EE19__hash_len_17_to_32B8ne200100EPKcm, symObjAddr: 0x66F0, symBinAddr: 0xA524, symSize: 0xAC }
  - { offset: 0x5E8CF, size: 0x8, addend: 0x0, symName: __ZNSt3__112__hash_tableINS_17__hash_value_typeINS_12basic_stringIcNS_11char_traitsIcEENS_9allocatorIcEEEEN8facebook5react8RawValueEEENS_22__unordered_map_hasherIS7_SB_NS_4hashIS7_EENS_8equal_toIS7_EELb1EEENS_21__unordered_map_equalIS7_SB_SG_SE_Lb1EEENS5_ISB_EEE11__do_rehashILb1EEEvm, symObjAddr: 0x6A48, symBinAddr: 0xA87C, symSize: 0x150 }
  - { offset: 0x5ECD2, size: 0x8, addend: 0x0, symName: __ZNSt3__110unique_ptrINS_11__hash_nodeINS_17__hash_value_typeINS_12basic_stringIcNS_11char_traitsIcEENS_9allocatorIcEEEEN8facebook5react8RawValueEEEPvEENS_22__hash_node_destructorINS6_ISE_EEEEE5resetB8ne200100EPSE_, symObjAddr: 0x6B98, symBinAddr: 0xA9CC, symSize: 0x48 }
  - { offset: 0x5F179, size: 0x8, addend: 0x0, symName: __ZNSt3__116__variant_detail12__visitation6__base12__dispatcherIJLm0EEE10__dispatchB8ne200100IOZNS0_6__dtorINS0_8__traitsIJN5folly7dynamicENS_4pairIPN8facebook3jsi7RuntimeENSC_5ValueEEEEEELNS0_6_TraitE1EE9__destroyB8ne200100EvEUlRT_E_JRNS0_6__baseILSI_1EJS9_SG_EEEEEEDcSK_DpT0_, symObjAddr: 0x6CCC, symBinAddr: 0xAB00, symSize: 0x8 }
  - { offset: 0x5F32D, size: 0x8, addend: 0x0, symName: __ZNSt3__116__variant_detail12__visitation6__base12__dispatcherIJLm1EEE10__dispatchB8ne200100IOZNS0_6__dtorINS0_8__traitsIJN5folly7dynamicENS_4pairIPN8facebook3jsi7RuntimeENSC_5ValueEEEEEELNS0_6_TraitE1EE9__destroyB8ne200100EvEUlRT_E_JRNS0_6__baseILSI_1EJS9_SG_EEEEEEDcSK_DpT0_, symObjAddr: 0x6CD4, symBinAddr: 0xAB08, symSize: 0x8 }
  - { offset: 0x5F364, size: 0x8, addend: 0x0, symName: __ZNSt3__116__variant_detail12__visitation6__base12__dispatcherIJLm1EEE10__dispatchB8ne200100IOZNS0_6__dtorINS0_8__traitsIJN5folly7dynamicENS_4pairIPN8facebook3jsi7RuntimeENSC_5ValueEEEEEELNS0_6_TraitE1EE9__destroyB8ne200100EvEUlRT_E_JRNS0_6__baseILSI_1EJS9_SG_EEEEEEDcSK_DpT0_, symObjAddr: 0x6CD4, symBinAddr: 0xAB08, symSize: 0x8 }
  - { offset: 0x5F389, size: 0x8, addend: 0x0, symName: __ZNSt3__116__variant_detail12__visitation6__base12__dispatcherIJLm1EEE10__dispatchB8ne200100IOZNS0_6__dtorINS0_8__traitsIJN5folly7dynamicENS_4pairIPN8facebook3jsi7RuntimeENSC_5ValueEEEEEELNS0_6_TraitE1EE9__destroyB8ne200100EvEUlRT_E_JRNS0_6__baseILSI_1EJS9_SG_EEEEEEDcSK_DpT0_, symObjAddr: 0x6CD4, symBinAddr: 0xAB08, symSize: 0x8 }
  - { offset: 0x5F3AD, size: 0x8, addend: 0x0, symName: __ZNSt3__116__variant_detail12__visitation6__base12__dispatcherIJLm1EEE10__dispatchB8ne200100IOZNS0_6__dtorINS0_8__traitsIJN5folly7dynamicENS_4pairIPN8facebook3jsi7RuntimeENSC_5ValueEEEEEELNS0_6_TraitE1EE9__destroyB8ne200100EvEUlRT_E_JRNS0_6__baseILSI_1EJS9_SG_EEEEEEDcSK_DpT0_, symObjAddr: 0x6CD4, symBinAddr: 0xAB08, symSize: 0x8 }
  - { offset: 0x5F3C9, size: 0x8, addend: 0x0, symName: __ZNSt3__116__variant_detail12__visitation6__base12__dispatcherIJLm1EEE10__dispatchB8ne200100IOZNS0_6__dtorINS0_8__traitsIJN5folly7dynamicENS_4pairIPN8facebook3jsi7RuntimeENSC_5ValueEEEEEELNS0_6_TraitE1EE9__destroyB8ne200100EvEUlRT_E_JRNS0_6__baseILSI_1EJS9_SG_EEEEEEDcSK_DpT0_, symObjAddr: 0x6CD4, symBinAddr: 0xAB08, symSize: 0x8 }
  - { offset: 0x5F3E5, size: 0x8, addend: 0x0, symName: __ZNSt3__116__variant_detail12__visitation6__base12__dispatcherIJLm1EEE10__dispatchB8ne200100IOZNS0_6__dtorINS0_8__traitsIJN5folly7dynamicENS_4pairIPN8facebook3jsi7RuntimeENSC_5ValueEEEEEELNS0_6_TraitE1EE9__destroyB8ne200100EvEUlRT_E_JRNS0_6__baseILSI_1EJS9_SG_EEEEEEDcSK_DpT0_, symObjAddr: 0x6CD4, symBinAddr: 0xAB08, symSize: 0x8 }
  - { offset: 0x5F401, size: 0x8, addend: 0x0, symName: __ZNSt3__116__variant_detail12__visitation6__base12__dispatcherIJLm1EEE10__dispatchB8ne200100IOZNS0_6__dtorINS0_8__traitsIJN5folly7dynamicENS_4pairIPN8facebook3jsi7RuntimeENSC_5ValueEEEEEELNS0_6_TraitE1EE9__destroyB8ne200100EvEUlRT_E_JRNS0_6__baseILSI_1EJS9_SG_EEEEEEDcSK_DpT0_, symObjAddr: 0x6CD4, symBinAddr: 0xAB08, symSize: 0x8 }
  - { offset: 0x5F493, size: 0x8, addend: 0x0, symName: __ZNSt3__116__variant_detail12__visitation6__base12__dispatcherIJLm0ELm0EEE10__dispatchB8ne200100IOZNS0_12__assignmentINS0_8__traitsIJN5folly7dynamicENS_4pairIPN8facebook3jsi7RuntimeENSC_5ValueEEEEEEE16__generic_assignB8ne200100INS0_17__move_assignmentISH_LNS0_6_TraitE1EEEEEvOT_EUlRSN_OT0_E_JRNS0_6__baseILSL_1EJS9_SG_EEEOSV_EEEDcSN_DpT0_, symObjAddr: 0x6CDC, symBinAddr: 0xAB10, symSize: 0x8 }
  - { offset: 0x5F557, size: 0x8, addend: 0x0, symName: __ZNSt3__116__variant_detail12__assignmentINS0_8__traitsIJN5folly7dynamicENS_4pairIPN8facebook3jsi7RuntimeENS7_5ValueEEEEEEE12__assign_altB8ne200100ILm0ES4_S4_EEvRNS0_5__altIXT_ET0_EEOT1_, symObjAddr: 0x6CEC, symBinAddr: 0xAB20, symSize: 0x50 }
  - { offset: 0x5F7A9, size: 0x8, addend: 0x0, symName: __ZNSt3__116__variant_detail12__visitation6__base12__dispatcherIJLm1ELm1EEE10__dispatchB8ne200100IOZNS0_12__assignmentINS0_8__traitsIJN5folly7dynamicENS_4pairIPN8facebook3jsi7RuntimeENSC_5ValueEEEEEEE16__generic_assignB8ne200100INS0_17__move_assignmentISH_LNS0_6_TraitE1EEEEEvOT_EUlRSN_OT0_E_JRNS0_6__baseILSL_1EJS9_SG_EEEOSV_EEEDcSN_DpT0_, symObjAddr: 0x6CE4, symBinAddr: 0xAB18, symSize: 0x8 }
  - { offset: 0x5F86D, size: 0x8, addend: 0x0, symName: __ZNSt3__116__variant_detail12__assignmentINS0_8__traitsIJN5folly7dynamicENS_4pairIPN8facebook3jsi7RuntimeENS7_5ValueEEEEEEE12__assign_altB8ne200100ILm1ESB_SB_EEvRNS0_5__altIXT_ET0_EEOT1_, symObjAddr: 0x6D3C, symBinAddr: 0xAB70, symSize: 0x7C }
  - { offset: 0x60161, size: 0x8, addend: 0x0, symName: __ZNSt3__112__hash_tableINS_17__hash_value_typeINS_12basic_stringIcNS_11char_traitsIcEENS_9allocatorIcEEEEN8facebook5react8RawValueEEENS_22__unordered_map_hasherIS7_SB_NS_4hashIS7_EENS_8equal_toIS7_EELb1EEENS_21__unordered_map_equalIS7_SB_SG_SE_Lb1EEENS5_ISB_EEE21__construct_node_hashIRS7_JSA_EEENS_10unique_ptrINS_11__hash_nodeISB_PvEENS_22__hash_node_destructorINS5_ISR_EEEEEEmOT_DpOT0_, symObjAddr: 0x7088, symBinAddr: 0xAEBC, symSize: 0x7C }
  - { offset: 0x6054C, size: 0x8, addend: 0x0, symName: __ZNSt3__14pairIKNS_12basic_stringIcNS_11char_traitsIcEENS_9allocatorIcEEEEN8facebook5react8RawValueEEC2B8ne200100IRS6_SA_Li0EEEOT_OT0_, symObjAddr: 0x7104, symBinAddr: 0xAF38, symSize: 0x5C }
  - { offset: 0x608E7, size: 0x8, addend: 0x0, symName: __ZNSt3__116__variant_detail18__move_constructorINS0_8__traitsIJN5folly7dynamicENS_4pairIPN8facebook3jsi7RuntimeENS7_5ValueEEEEEELNS0_6_TraitE1EEC2B8ne200100EOSE_, symObjAddr: 0x7160, symBinAddr: 0xAF94, symSize: 0x34 }
  - { offset: 0x60AC6, size: 0x8, addend: 0x0, symName: __ZNSt3__116__variant_detail6__ctorINS0_8__traitsIJN5folly7dynamicENS_4pairIPN8facebook3jsi7RuntimeENS7_5ValueEEEEEEE19__generic_constructB8ne200100INS0_18__move_constructorISC_LNS0_6_TraitE1EEEEEvRSD_OT_, symObjAddr: 0x7194, symBinAddr: 0xAFC8, symSize: 0x60 }
  - { offset: 0x60D1C, size: 0x8, addend: 0x0, symName: __ZNSt3__116__variant_detail12__visitation6__base12__dispatcherIJLm0EEE10__dispatchB8ne200100IOZNS0_6__ctorINS0_8__traitsIJN5folly7dynamicENS_4pairIPN8facebook3jsi7RuntimeENSC_5ValueEEEEEEE19__generic_constructB8ne200100INS0_18__move_constructorISH_LNS0_6_TraitE1EEEEEvRSI_OT_EUlSP_E_JONS0_6__baseILSL_1EJS9_SG_EEEEEEDcSO_DpT0_, symObjAddr: 0x71F4, symBinAddr: 0xB028, symSize: 0x8 }
  - { offset: 0x60D53, size: 0x8, addend: 0x0, symName: __ZNSt3__116__variant_detail12__visitation6__base12__dispatcherIJLm0EEE10__dispatchB8ne200100IOZNS0_6__ctorINS0_8__traitsIJN5folly7dynamicENS_4pairIPN8facebook3jsi7RuntimeENSC_5ValueEEEEEEE19__generic_constructB8ne200100INS0_18__move_constructorISH_LNS0_6_TraitE1EEEEEvRSI_OT_EUlSP_E_JONS0_6__baseILSL_1EJS9_SG_EEEEEEDcSO_DpT0_, symObjAddr: 0x71F4, symBinAddr: 0xB028, symSize: 0x8 }
  - { offset: 0x60D78, size: 0x8, addend: 0x0, symName: __ZNSt3__116__variant_detail12__visitation6__base12__dispatcherIJLm0EEE10__dispatchB8ne200100IOZNS0_6__ctorINS0_8__traitsIJN5folly7dynamicENS_4pairIPN8facebook3jsi7RuntimeENSC_5ValueEEEEEEE19__generic_constructB8ne200100INS0_18__move_constructorISH_LNS0_6_TraitE1EEEEEvRSI_OT_EUlSP_E_JONS0_6__baseILSL_1EJS9_SG_EEEEEEDcSO_DpT0_, symObjAddr: 0x71F4, symBinAddr: 0xB028, symSize: 0x8 }
  - { offset: 0x60EB8, size: 0x8, addend: 0x0, symName: __ZNSt3__116__variant_detail12__visitation6__base12__dispatcherIJLm1EEE10__dispatchB8ne200100IOZNS0_6__ctorINS0_8__traitsIJN5folly7dynamicENS_4pairIPN8facebook3jsi7RuntimeENSC_5ValueEEEEEEE19__generic_constructB8ne200100INS0_18__move_constructorISH_LNS0_6_TraitE1EEEEEvRSI_OT_EUlSP_E_JONS0_6__baseILSL_1EJS9_SG_EEEEEEDcSO_DpT0_, symObjAddr: 0x71FC, symBinAddr: 0xB030, symSize: 0x10 }
  - { offset: 0x60EF1, size: 0x8, addend: 0x0, symName: __ZNSt3__116__variant_detail12__visitation6__base12__dispatcherIJLm1EEE10__dispatchB8ne200100IOZNS0_6__ctorINS0_8__traitsIJN5folly7dynamicENS_4pairIPN8facebook3jsi7RuntimeENSC_5ValueEEEEEEE19__generic_constructB8ne200100INS0_18__move_constructorISH_LNS0_6_TraitE1EEEEEvRSI_OT_EUlSP_E_JONS0_6__baseILSL_1EJS9_SG_EEEEEEDcSO_DpT0_, symObjAddr: 0x71FC, symBinAddr: 0xB030, symSize: 0x10 }
  - { offset: 0x60F18, size: 0x8, addend: 0x0, symName: __ZNSt3__116__variant_detail12__visitation6__base12__dispatcherIJLm1EEE10__dispatchB8ne200100IOZNS0_6__ctorINS0_8__traitsIJN5folly7dynamicENS_4pairIPN8facebook3jsi7RuntimeENSC_5ValueEEEEEEE19__generic_constructB8ne200100INS0_18__move_constructorISH_LNS0_6_TraitE1EEEEEvRSI_OT_EUlSP_E_JONS0_6__baseILSL_1EJS9_SG_EEEEEEDcSO_DpT0_, symObjAddr: 0x71FC, symBinAddr: 0xB030, symSize: 0x10 }
  - { offset: 0x6114C, size: 0x8, addend: 0x0, symName: __ZNK5folly7dynamic6asImplIxEET_v, symObjAddr: 0x733C, symBinAddr: 0xB170, symSize: 0x138 }
  - { offset: 0x6154A, size: 0x8, addend: 0x0, symName: __ZN5folly2toIxdEENSt3__19enable_ifIXsr6detail14IsArithToArithIT_T0_EE5valueES3_E4typeERKS4_, symObjAddr: 0x7474, symBinAddr: 0xB2A8, symSize: 0x48 }
  - { offset: 0x617D3, size: 0x8, addend: 0x0, symName: __ZN5folly15expected_detail30expected_detail_ExpectedHelper14ExpectedHelper12thenOrThrow_INS0_15ExpectedStorageIxNS_14ConversionCodeELNS0_11StorageTypeE0EEERKNS_11identity_fnEZNS_2toIxbEENSt3__19enable_ifIXsr6detail14IsArithToArithIT_T0_EE5valueESE_E4typeERKSF_EUlS5_E_OxNS_15ConversionErrorELb0ELi0EEET2_OSE_OSF_OT1_, symObjAddr: 0x79C4, symBinAddr: 0xB7F8, symSize: 0x60 }
  - { offset: 0x618F9, size: 0x8, addend: 0x0, symName: __ZN5folly15expected_detail30expected_detail_ExpectedHelper14ExpectedHelper12thenOrThrow_IRNS0_15ExpectedStorageINS_5RangeIPKcEENS_14ConversionCodeELNS0_11StorageTypeE1EEENS_6detail18CheckTrailingSpaceEZNS_2toIxEENSt3__19enable_ifIXntsr3std7is_sameIS8_T_EE5valueESI_E4typeES8_EUlS9_E_NS_8ExpectedINS_4UnitES9_EEvLb0ELi0EEET2_OSI_OT0_OT1_, symObjAddr: 0x7AD8, symBinAddr: 0xB90C, symSize: 0x2C }
  - { offset: 0x61950, size: 0x8, addend: 0x0, symName: __ZZN5folly2toIxEENSt3__19enable_ifIXntsr3std7is_sameINS_5RangeIPKcEET_EE5valueES7_E4typeES6_ENKUlNS_14ConversionCodeEE_clESA_, symObjAddr: 0x7B04, symBinAddr: 0xB938, symSize: 0x48 }
  - { offset: 0x61995, size: 0x8, addend: 0x0, symName: __ZNK5folly7dynamic6asImplIxEET_v.cold.1, symObjAddr: 0xA374, symBinAddr: 0x38FE0, symSize: 0x24 }
  - { offset: 0x61A63, size: 0x8, addend: 0x0, symName: __ZN5folly15expected_detail30expected_detail_ExpectedHelper14ExpectedHelper12thenOrThrow_INS0_15ExpectedStorageIxNS_14ConversionCodeELNS0_11StorageTypeE0EEERKNS_11identity_fnEZNS_2toIxdEENSt3__19enable_ifIXsr6detail14IsArithToArithIT_T0_EE5valueESE_E4typeERKSF_EUlS5_E_OxNS_15ConversionErrorELb0ELi0EEET2_OSE_OSF_OT1_, symObjAddr: 0x7590, symBinAddr: 0xB3C4, symSize: 0x60 }
  - { offset: 0x61BB0, size: 0x8, addend: 0x0, symName: __ZZN5folly2toIxdEENSt3__19enable_ifIXsr6detail14IsArithToArithIT_T0_EE5valueES3_E4typeERKS4_ENKUlNS_14ConversionCodeEE_clES9_, symObjAddr: 0x75F0, symBinAddr: 0xB424, symSize: 0xB4 }
  - { offset: 0x61EDF, size: 0x8, addend: 0x0, symName: __ZN5folly6detail25EstimateSpaceToReserveAllINSt3__116integer_sequenceImJLm0ELm1ELm2ELm3ELm4EEEEE4callIJA2_cPKcA3_cdPNS2_12basic_stringIcNS2_11char_traitsIcEENS2_9allocatorIcEEEEEEEmDpRKT_, symObjAddr: 0x775C, symBinAddr: 0xB590, symSize: 0xB0 }
  - { offset: 0x6207E, size: 0x8, addend: 0x0, symName: __ZN5folly6detail18ToAppendStrImplAllINSt3__116integer_sequenceImJLm0ELm1ELm2ELm3ELm4EEEEE4callIJA2_cPKcA3_cdPNS2_12basic_stringIcNS2_11char_traitsIcEENS2_9allocatorIcEEEEEEEvDpRKT_, symObjAddr: 0x780C, symBinAddr: 0xB640, symSize: 0x88 }
  - { offset: 0x6260F, size: 0x8, addend: 0x0, symName: __ZZN5folly2toIxbEENSt3__19enable_ifIXsr6detail14IsArithToArithIT_T0_EE5valueES3_E4typeERKS4_ENKUlNS_14ConversionCodeEE_clES9_, symObjAddr: 0x7A24, symBinAddr: 0xB858, symSize: 0xB4 }
  - { offset: 0x6293E, size: 0x8, addend: 0x0, symName: __ZN5folly15expected_detail30expected_detail_ExpectedHelper14ExpectedHelper12thenOrThrow_IRNS0_15ExpectedStorageINS_5RangeIPKcEENS_14ConversionCodeELNS0_11StorageTypeE1EEENS_6detail18CheckTrailingSpaceEZNS_2toIxEENSt3__19enable_ifIXntsr3std7is_sameIS8_T_EE5valueESI_E4typeES8_EUlS9_E_NS_8ExpectedINS_4UnitES9_EEvLb0ELi0EEET2_OSI_OT0_OT1_.cold.1, symObjAddr: 0xA398, symBinAddr: 0x39004, symSize: 0x28 }
  - { offset: 0x62977, size: 0x8, addend: 0x0, symName: __ZZN5folly2toIxEENSt3__19enable_ifIXntsr3std7is_sameINS_5RangeIPKcEET_EE5valueES7_E4typeES6_ENKUlNS_14ConversionCodeEE_clESA_, symObjAddr: 0x7B04, symBinAddr: 0xB938, symSize: 0x48 }
  - { offset: 0x62A48, size: 0x8, addend: 0x0, symName: __ZZN5folly2toIxEENSt3__19enable_ifIXntsr3std7is_sameINS_5RangeIPKcEET_EE5valueES7_E4typeES6_ENKUlNS_14ConversionCodeEE0_clESA_, symObjAddr: 0x7B4C, symBinAddr: 0xB980, symSize: 0x50 }
  - { offset: 0x62B9E, size: 0x8, addend: 0x0, symName: __ZNSt3__112__hash_tableINS_17__hash_value_typeINS_12basic_stringIcNS_11char_traitsIcEENS_9allocatorIcEEEEN8facebook5react8RawValueEEENS_22__unordered_map_hasherIS7_SB_NS_4hashIS7_EENS_8equal_toIS7_EELb1EEENS_21__unordered_map_equalIS7_SB_SG_SE_Lb1EEENS5_ISB_EEE17__deallocate_nodeEPNS_16__hash_node_baseIPNS_11__hash_nodeISB_PvEEEE, symObjAddr: 0x7BD4, symBinAddr: 0xBA08, symSize: 0x3C }
  - { offset: 0x62DDC, size: 0x8, addend: 0x0, symName: __ZNK8facebook5react8RawValue7hasTypeIdEEbv, symObjAddr: 0x7F90, symBinAddr: 0xBDC4, symSize: 0x40 }
  - { offset: 0x62E05, size: 0x8, addend: 0x0, symName: __ZNK8facebook5react8RawValue7hasTypeIdEEbv, symObjAddr: 0x7F90, symBinAddr: 0xBDC4, symSize: 0x40 }
  - { offset: 0x62E20, size: 0x8, addend: 0x0, symName: __ZNK8facebook5react8RawValue7hasTypeIdEEbv, symObjAddr: 0x7F90, symBinAddr: 0xBDC4, symSize: 0x40 }
  - { offset: 0x62E3C, size: 0x8, addend: 0x0, symName: __ZNK8facebook5react8RawValue7hasTypeIdEEbv, symObjAddr: 0x7F90, symBinAddr: 0xBDC4, symSize: 0x40 }
  - { offset: 0x62E58, size: 0x8, addend: 0x0, symName: __ZNK8facebook5react8RawValue7hasTypeIdEEbv, symObjAddr: 0x7F90, symBinAddr: 0xBDC4, symSize: 0x40 }
  - { offset: 0x62FCA, size: 0x8, addend: 0x0, symName: __ZNK8facebook5react8RawValue7hasTypeINSt3__113unordered_mapINS3_12basic_stringIcNS3_11char_traitsIcEENS3_9allocatorIcEEEEdNS3_4hashISA_EENS3_8equal_toISA_EENS8_INS3_4pairIKSA_dEEEEEEEEbv, symObjAddr: 0x7FD0, symBinAddr: 0xBE04, symSize: 0x64 }
  - { offset: 0x62FDE, size: 0x8, addend: 0x0, symName: __ZNK8facebook5react8RawValue7hasTypeINSt3__113unordered_mapINS3_12basic_stringIcNS3_11char_traitsIcEENS3_9allocatorIcEEEEdNS3_4hashISA_EENS3_8equal_toISA_EENS8_INS3_4pairIKSA_dEEEEEEEEbv, symObjAddr: 0x7FD0, symBinAddr: 0xBE04, symSize: 0x64 }
  - { offset: 0x632B0, size: 0x8, addend: 0x0, symName: __ZNK8facebook5react8RawValuecvT_INSt3__113unordered_mapINS4_12basic_stringIcNS4_11char_traitsIcEENS4_9allocatorIcEEEEdNS4_4hashISB_EENS4_8equal_toISB_EENS9_INS4_4pairIKSB_dEEEEEEEEv, symObjAddr: 0x8034, symBinAddr: 0xBE68, symSize: 0x38 }
  - { offset: 0x632C4, size: 0x8, addend: 0x0, symName: __ZNK8facebook5react8RawValuecvT_INSt3__113unordered_mapINS4_12basic_stringIcNS4_11char_traitsIcEENS4_9allocatorIcEEEEdNS4_4hashISB_EENS4_8equal_toISB_EENS9_INS4_4pairIKSB_dEEEEEEEEv, symObjAddr: 0x8034, symBinAddr: 0xBE68, symSize: 0x38 }
  - { offset: 0x6340D, size: 0x8, addend: 0x0, symName: __ZNK8facebook5react8RawValue7hasTypeINSt3__16vectorIdNS3_9allocatorIdEEEEEEbv, symObjAddr: 0x806C, symBinAddr: 0xBEA0, symSize: 0x68 }
  - { offset: 0x63421, size: 0x8, addend: 0x0, symName: __ZNK8facebook5react8RawValue7hasTypeINSt3__16vectorIdNS3_9allocatorIdEEEEEEbv, symObjAddr: 0x806C, symBinAddr: 0xBEA0, symSize: 0x68 }
  - { offset: 0x636D9, size: 0x8, addend: 0x0, symName: __ZNK8facebook5react8RawValuecvT_INSt3__16vectorIdNS4_9allocatorIdEEEEEEv, symObjAddr: 0x80D4, symBinAddr: 0xBF08, symSize: 0x38 }
  - { offset: 0x636ED, size: 0x8, addend: 0x0, symName: __ZNK8facebook5react8RawValuecvT_INSt3__16vectorIdNS4_9allocatorIdEEEEEEv, symObjAddr: 0x80D4, symBinAddr: 0xBF08, symSize: 0x38 }
  - { offset: 0x63836, size: 0x8, addend: 0x0, symName: __ZN8facebook5react8RawValue14checkValueTypeIdEEbPNS_3jsi7RuntimeERKNS3_5ValueEPNSt3__113unordered_mapINS9_12basic_stringIcNS9_11char_traitsIcEENS9_9allocatorIcEEEET_NS9_4hashISG_EENS9_8equal_toISG_EENSE_INS9_4pairIKSG_SH_EEEEEE, symObjAddr: 0x810C, symBinAddr: 0xBF40, symSize: 0x17C }
  - { offset: 0x6384A, size: 0x8, addend: 0x0, symName: __ZNSt3__112__hash_tableINS_17__hash_value_typeINS_12basic_stringIcNS_11char_traitsIcEENS_9allocatorIcEEEEdEENS_22__unordered_map_hasherIS7_S8_NS_4hashIS7_EENS_8equal_toIS7_EELb1EEENS_21__unordered_map_equalIS7_S8_SD_SB_Lb1EEENS5_IS8_EEED2Ev, symObjAddr: 0x8E48, symBinAddr: 0xCA50, symSize: 0x38 }
  - { offset: 0x63B56, size: 0x8, addend: 0x0, symName: __ZN8facebook5react8RawValue14checkValueTypeIdEEbPNS_3jsi7RuntimeERKNS3_5ValueEPNSt3__113unordered_mapINS9_12basic_stringIcNS9_11char_traitsIcEENS9_9allocatorIcEEEET_NS9_4hashISG_EENS9_8equal_toISG_EENSE_INS9_4pairIKSG_SH_EEEEEE, symObjAddr: 0x810C, symBinAddr: 0xBF40, symSize: 0x17C }
  - { offset: 0x64124, size: 0x8, addend: 0x0, symName: __ZN8facebook5react8RawValue9castValueIdEENSt3__113unordered_mapINS3_12basic_stringIcNS3_11char_traitsIcEENS3_9allocatorIcEEEET_NS3_4hashISA_EENS3_8equal_toISA_EENS8_INS3_4pairIKSA_SB_EEEEEERKN5folly7dynamicEPSK_, symObjAddr: 0x8288, symBinAddr: 0xC0BC, symSize: 0xE4 }
  - { offset: 0x64482, size: 0x8, addend: 0x0, symName: __ZN8facebook5react8RawValue9castValueIdEENSt3__113unordered_mapINS3_12basic_stringIcNS3_11char_traitsIcEENS3_9allocatorIcEEEET_NS3_4hashISA_EENS3_8equal_toISA_EENS8_INS3_4pairIKSA_SB_EEEEEEPNS_3jsi7RuntimeERKNSL_5ValueEPSK_, symObjAddr: 0x836C, symBinAddr: 0xC1A0, symSize: 0x224 }
  - { offset: 0x64FD2, size: 0x8, addend: 0x0, symName: __ZN8facebook5react8RawValue14checkValueTypeIdEEbPNS_3jsi7RuntimeERKNS3_5ValueEPNSt3__16vectorIT_NS9_9allocatorISB_EEEE, symObjAddr: 0x8EC4, symBinAddr: 0xCACC, symSize: 0x104 }
  - { offset: 0x65415, size: 0x8, addend: 0x0, symName: __ZN8facebook5react8RawValue9castValueIdEENSt3__16vectorIT_NS3_9allocatorIS5_EEEERKN5folly7dynamicEPS8_, symObjAddr: 0x8FC8, symBinAddr: 0xCBD0, symSize: 0xB8 }
  - { offset: 0x65730, size: 0x8, addend: 0x0, symName: __ZN8facebook5react8RawValue9castValueIdEENSt3__16vectorIT_NS3_9allocatorIS5_EEEEPNS_3jsi7RuntimeERKNS9_5ValueEPS8_, symObjAddr: 0x9080, symBinAddr: 0xCC88, symSize: 0x170 }
  - { offset: 0x65DED, size: 0x8, addend: 0x0, symName: __ZNSt3__112__hash_tableINS_17__hash_value_typeINS_12basic_stringIcNS_11char_traitsIcEENS_9allocatorIcEEEEdEENS_22__unordered_map_hasherIS7_S8_NS_4hashIS7_EENS_8equal_toIS7_EELb1EEENS_21__unordered_map_equalIS7_S8_SD_SB_Lb1EEENS5_IS8_EEE25__emplace_unique_key_argsIS7_JRKNS_21piecewise_construct_tENS_5tupleIJRKS7_EEENSN_IJEEEEEENS_4pairINS_15__hash_iteratorIPNS_11__hash_nodeIS8_PvEEEEbEERKT_DpOT0_, symObjAddr: 0x8590, symBinAddr: 0xC3C4, symSize: 0x274 }
  - { offset: 0x6636B, size: 0x8, addend: 0x0, symName: __ZNSt3__112__hash_tableINS_17__hash_value_typeINS_12basic_stringIcNS_11char_traitsIcEENS_9allocatorIcEEEEdEENS_22__unordered_map_hasherIS7_S8_NS_4hashIS7_EENS_8equal_toIS7_EELb1EEENS_21__unordered_map_equalIS7_S8_SD_SB_Lb1EEENS5_IS8_EEE25__emplace_unique_key_argsIS7_JRS7_dEEENS_4pairINS_15__hash_iteratorIPNS_11__hash_nodeIS8_PvEEEEbEERKT_DpOT0_, symObjAddr: 0x8B2C, symBinAddr: 0xC734, symSize: 0x264 }
  - { offset: 0x669E8, size: 0x8, addend: 0x0, symName: __ZNSt3__112__hash_tableINS_17__hash_value_typeINS_12basic_stringIcNS_11char_traitsIcEENS_9allocatorIcEEEEdEENS_22__unordered_map_hasherIS7_S8_NS_4hashIS7_EENS_8equal_toIS7_EELb1EEENS_21__unordered_map_equalIS7_S8_SD_SB_Lb1EEENS5_IS8_EEE21__construct_node_hashIRKNS_21piecewise_construct_tEJNS_5tupleIJRKS7_EEENSN_IJEEEEEENS_10unique_ptrINS_11__hash_nodeIS8_PvEENS_22__hash_node_destructorINS5_ISV_EEEEEEmOT_DpOT0_, symObjAddr: 0x8804, symBinAddr: 0xC638, symSize: 0xAC }
  - { offset: 0x66E79, size: 0x8, addend: 0x0, symName: __ZNSt3__122__hash_node_destructorINS_9allocatorINS_11__hash_nodeINS_17__hash_value_typeINS_12basic_stringIcNS_11char_traitsIcEENS1_IcEEEEdEEPvEEEEEclB8ne200100EPSB_, symObjAddr: 0x8ADC, symBinAddr: 0xC6E4, symSize: 0x50 }
  - { offset: 0x67699, size: 0x8, addend: 0x0, symName: __ZNSt3__122__hash_node_destructorINS_9allocatorINS_11__hash_nodeINS_17__hash_value_typeINS_12basic_stringIcNS_11char_traitsIcEENS1_IcEEEEdEEPvEEEEEclB8ne200100EPSB_, symObjAddr: 0x8ADC, symBinAddr: 0xC6E4, symSize: 0x50 }
  - { offset: 0x67890, size: 0x8, addend: 0x0, symName: __ZNSt3__112__hash_tableINS_17__hash_value_typeINS_12basic_stringIcNS_11char_traitsIcEENS_9allocatorIcEEEEdEENS_22__unordered_map_hasherIS7_S8_NS_4hashIS7_EENS_8equal_toIS7_EELb1EEENS_21__unordered_map_equalIS7_S8_SD_SB_Lb1EEENS5_IS8_EEE21__construct_node_hashIRS7_JdEEENS_10unique_ptrINS_11__hash_nodeIS8_PvEENS_22__hash_node_destructorINS5_ISO_EEEEEEmOT_DpOT0_, symObjAddr: 0x8D90, symBinAddr: 0xC998, symSize: 0xB8 }
  - { offset: 0x67DA1, size: 0x8, addend: 0x0, symName: __ZNSt3__112__hash_tableINS_17__hash_value_typeINS_12basic_stringIcNS_11char_traitsIcEENS_9allocatorIcEEEEdEENS_22__unordered_map_hasherIS7_S8_NS_4hashIS7_EENS_8equal_toIS7_EELb1EEENS_21__unordered_map_equalIS7_S8_SD_SB_Lb1EEENS5_IS8_EEE17__deallocate_nodeEPNS_16__hash_node_baseIPNS_11__hash_nodeIS8_PvEEEE, symObjAddr: 0x8E80, symBinAddr: 0xCA88, symSize: 0x44 }
  - { offset: 0x6812C, size: 0x8, addend: 0x0, symName: __ZNSt3__16vectorIdNS_9allocatorIdEEE7reserveEm, symObjAddr: 0x91F0, symBinAddr: 0xCDF8, symSize: 0x8C }
  - { offset: 0x6835E, size: 0x8, addend: 0x0, symName: __ZNSt3__16vectorIdNS_9allocatorIdEEE9push_backB8ne200100EOd, symObjAddr: 0x927C, symBinAddr: 0xCE84, symSize: 0xDC }
  - { offset: 0x68369, size: 0x8, addend: 0x0, symName: __ZNSt3__16vectorIdNS_9allocatorIdEEE9push_backB8ne200100EOd, symObjAddr: 0x927C, symBinAddr: 0xCE84, symSize: 0xDC }
  - { offset: 0x6870F, size: 0x8, addend: 0x0, symName: __ZN8facebook5react12fromRawValueERKNS0_18PropsParserContextERKNS0_8RawValueERNS0_5PointE, symObjAddr: 0x9358, symBinAddr: 0xCF60, symSize: 0x1D4 }
  - { offset: 0x68A47, size: 0x8, addend: 0x0, symName: __ZNK8facebook5react8RawValue7hasTypeINSt3__16vectorIS1_NS3_9allocatorIS1_EEEEEEbv, symObjAddr: 0x9784, symBinAddr: 0xD38C, symSize: 0x3C }
  - { offset: 0x68BF3, size: 0x8, addend: 0x0, symName: __ZNK8facebook5react8RawValuecvT_INSt3__16vectorIS1_NS4_9allocatorIS1_EEEEEEv, symObjAddr: 0x97C0, symBinAddr: 0xD3C8, symSize: 0x38 }
  - { offset: 0x68C07, size: 0x8, addend: 0x0, symName: __ZNK8facebook5react8RawValuecvT_INSt3__16vectorIS1_NS4_9allocatorIS1_EEEEEEv, symObjAddr: 0x97C0, symBinAddr: 0xD3C8, symSize: 0x38 }
  - { offset: 0x68FC8, size: 0x8, addend: 0x0, symName: __ZN8facebook5react8RawValue14checkValueTypeIS1_EEbPNS_3jsi7RuntimeERKNS3_5ValueEPNSt3__16vectorIT_NS9_9allocatorISB_EEEE, symObjAddr: 0x98D4, symBinAddr: 0xD400, symSize: 0xEC }
  - { offset: 0x68FD3, size: 0x8, addend: 0x0, symName: __ZNSt3__16vectorIN8facebook5react8RawValueENS_9allocatorIS3_EEE16__destroy_vectorclB8ne200100Ev, symObjAddr: 0x9FEC, symBinAddr: 0xDB04, symSize: 0x70 }
  - { offset: 0x692F9, size: 0x8, addend: 0x0, symName: __ZN8facebook5react8RawValue14checkValueTypeIS1_EEbPNS_3jsi7RuntimeERKNS3_5ValueEPNSt3__16vectorIT_NS9_9allocatorISB_EEEE, symObjAddr: 0x98D4, symBinAddr: 0xD400, symSize: 0xEC }
  - { offset: 0x696FD, size: 0x8, addend: 0x0, symName: __ZN8facebook5react8RawValue9castValueIS1_EENSt3__16vectorIT_NS3_9allocatorIS5_EEEERKN5folly7dynamicEPS8_, symObjAddr: 0x99C0, symBinAddr: 0xD4EC, symSize: 0x108 }
  - { offset: 0x69F00, size: 0x8, addend: 0x0, symName: __ZN8facebook5react8RawValue9castValueIS1_EENSt3__16vectorIT_NS3_9allocatorIS5_EEEEPNS_3jsi7RuntimeERKNS9_5ValueEPS8_, symObjAddr: 0x9AC8, symBinAddr: 0xD5F4, symSize: 0x1AC }
  - { offset: 0x6A91B, size: 0x8, addend: 0x0, symName: __ZNSt3__16vectorIN8facebook5react8RawValueENS_9allocatorIS3_EEE7reserveEm, symObjAddr: 0x9C74, symBinAddr: 0xD7A0, symSize: 0xE4 }
  - { offset: 0x6AB3D, size: 0x8, addend: 0x0, symName: __ZNSt3__16vectorIN8facebook5react8RawValueENS_9allocatorIS3_EEE9push_backB8ne200100EOS3_, symObjAddr: 0x9D58, symBinAddr: 0xD884, symSize: 0x44 }
  - { offset: 0x6AEBF, size: 0x8, addend: 0x0, symName: __ZNSt3__114__split_bufferIN8facebook5react8RawValueERNS_9allocatorIS3_EEED2Ev, symObjAddr: 0x9E60, symBinAddr: 0xD978, symSize: 0x4C }
  - { offset: 0x6B18D, size: 0x8, addend: 0x0, symName: __ZNSt3__119__allocate_at_leastB8ne200100INS_9allocatorIN8facebook5react8RawValueEEEEENS_19__allocation_resultINS_16allocator_traitsIT_E7pointerEEERS8_m, symObjAddr: 0x9DB0, symBinAddr: 0xD8C8, symSize: 0x48 }
  - { offset: 0x6B278, size: 0x8, addend: 0x0, symName: __ZNSt3__16vectorIN8facebook5react8RawValueENS_9allocatorIS3_EEE24__emplace_back_slow_pathIJS3_EEEPS3_DpOT_, symObjAddr: 0x9EAC, symBinAddr: 0xD9C4, symSize: 0x140 }
  - { offset: 0x703D9, size: 0x8, addend: 0x0, symName: __ZN8facebook5react14convertRawPropERKNS0_18PropsParserContextERKNS0_8RawPropsERKNS0_19ParagraphAttributesES9_, symObjAddr: 0x784, symBinAddr: 0xE53C, symSize: 0x1CC }
  - { offset: 0x7062F, size: 0x8, addend: 0x0, symName: __ZN8facebook5react14convertRawPropINSt3__112basic_stringIcNS2_11char_traitsIcEENS2_9allocatorIcEEEES8_EET_RKNS0_18PropsParserContextERKNS0_8RawPropsEPKcRKS9_RKT0_SH_SH_, symObjAddr: 0x950, symBinAddr: 0xE708, symSize: 0x23C }
  - { offset: 0x70D1F, size: 0x8, addend: 0x0, symName: __ZN8facebook5react14convertRawPropINS0_11SharedColorES2_EET_RKNS0_18PropsParserContextERKNS0_8RawPropsEPKcRKS3_RKT0_SB_SB_, symObjAddr: 0xB8C, symBinAddr: 0xE944, symSize: 0x22C }
  - { offset: 0x715C4, size: 0x8, addend: 0x0, symName: __ZN8facebook5react14convertRawPropIiiEET_RKNS0_18PropsParserContextERKNS0_8RawPropsEPKcRKS2_RKT0_SA_SA_, symObjAddr: 0xDB8, symBinAddr: 0xEB70, symSize: 0x1A8 }
  - { offset: 0x71D83, size: 0x8, addend: 0x0, symName: __ZN8facebook5react14convertRawPropINS0_14SubmitBehaviorES2_EET_RKNS0_18PropsParserContextERKNS0_8RawPropsEPKcRKS3_RKT0_SB_SB_, symObjAddr: 0x1108, symBinAddr: 0xED18, symSize: 0x1C4 }
  - { offset: 0x7221D, size: 0x8, addend: 0x0, symName: __ZN8facebook5react14convertRawPropINSt3__18optionalINS2_6vectorINS2_12basic_stringIcNS2_11char_traitsIcEENS2_9allocatorIcEEEENS8_ISA_EEEEEESD_EET_RKNS0_18PropsParserContextERKNS0_8RawPropsEPKcRKSE_RKT0_SM_SM_, symObjAddr: 0x12CC, symBinAddr: 0xEEDC, symSize: 0x20C }
  - { offset: 0x72BC5, size: 0x8, addend: 0x0, symName: __ZN8facebook5react14convertRawPropINS0_13EllipsizeModeES2_EET_RKNS0_18PropsParserContextERKNS0_8RawPropsEPKcRKS3_RKT0_SB_SB_, symObjAddr: 0x3F24, symBinAddr: 0x11858, symSize: 0x1C4 }
  - { offset: 0x7305F, size: 0x8, addend: 0x0, symName: __ZN8facebook5react14convertRawPropINS0_17TextBreakStrategyES2_EET_RKNS0_18PropsParserContextERKNS0_8RawPropsEPKcRKS3_RKT0_SB_SB_, symObjAddr: 0x40E8, symBinAddr: 0x11A1C, symSize: 0x1C4 }
  - { offset: 0x73812, size: 0x8, addend: 0x0, symName: __ZN8facebook5react14convertRawPropINS0_20HyphenationFrequencyES2_EET_RKNS0_18PropsParserContextERKNS0_8RawPropsEPKcRKS3_RKT0_SB_SB_, symObjAddr: 0x4458, symBinAddr: 0x11BE0, symSize: 0x1C4 }
  - { offset: 0x73CAC, size: 0x8, addend: 0x0, symName: __ZN8facebook5react14convertRawPropINSt3__18optionalINS0_21TextAlignmentVerticalEEES5_EET_RKNS0_18PropsParserContextERKNS0_8RawPropsEPKcRKS6_RKT0_SE_SE_, symObjAddr: 0x461C, symBinAddr: 0x11DA4, symSize: 0x1E8 }
  - { offset: 0x7428A, size: 0x8, addend: 0x0, symName: __ZN8facebook5react12fromRawValueINSt3__112basic_stringIcNS2_11char_traitsIcEENS2_9allocatorIcEEEEEEvRKNS0_18PropsParserContextERKNS0_8RawValueERT_, symObjAddr: 0x5F28, symBinAddr: 0x12550, symSize: 0x50 }
  - { offset: 0x74467, size: 0x8, addend: 0x0, symName: __ZN8facebook5react18fromRawValueSharedERKNS0_16ContextContainerEiRKNS0_8RawValueERNS0_11SharedColorEPFS7_S3_iS6_E, symObjAddr: 0x5F78, symBinAddr: 0x125A0, symSize: 0x5C0 }
  - { offset: 0x76110, size: 0x8, addend: 0x0, symName: __ZN8facebook5react12fromRawValueERKNS0_18PropsParserContextERKNS0_8RawValueERNS0_14SubmitBehaviorE, symObjAddr: 0x99CC, symBinAddr: 0x133EC, symSize: 0x170 }
  - { offset: 0x7652C, size: 0x8, addend: 0x0, symName: __ZN8facebook5react12fromRawValueINSt3__16vectorINS2_12basic_stringIcNS2_11char_traitsIcEENS2_9allocatorIcEEEENS7_IS9_EEEEEEvRKNS0_18PropsParserContextERKNS0_8RawValueERNS2_8optionalIT_EE, symObjAddr: 0x9B3C, symBinAddr: 0x1355C, symSize: 0xAC }
  - { offset: 0x76536, size: 0x8, addend: 0x0, symName: __ZN8facebook5react12fromRawValueINSt3__16vectorINS2_12basic_stringIcNS2_11char_traitsIcEENS2_9allocatorIcEEEENS7_IS9_EEEEEEvRKNS0_18PropsParserContextERKNS0_8RawValueERNS2_8optionalIT_EE, symObjAddr: 0x9B3C, symBinAddr: 0x1355C, symSize: 0xAC }
  - { offset: 0x76AF7, size: 0x8, addend: 0x0, symName: __ZN8facebook5react12fromRawValueINS0_11SharedColorEEEvRKNS0_18PropsParserContextERKNS0_8RawValueERT_S9_, symObjAddr: 0x37C4, symBinAddr: 0x112B8, symSize: 0x84 }
  - { offset: 0x76D90, size: 0x8, addend: 0x0, symName: __ZN8facebook5react12fromRawValueINSt3__18optionalINS2_6vectorINS2_12basic_stringIcNS2_11char_traitsIcEENS2_9allocatorIcEEEENS8_ISA_EEEEEEEEvRKNS0_18PropsParserContextERKNS0_8RawValueERT_SK_, symObjAddr: 0x39B4, symBinAddr: 0x11450, symSize: 0x50 }
  - { offset: 0x76FB6, size: 0x8, addend: 0x0, symName: __ZN8facebook5react12fromRawValueINS0_14SubmitBehaviorEEEvRKNS0_18PropsParserContextERKNS0_8RawValueERT_S9_, symObjAddr: 0x3978, symBinAddr: 0x11414, symSize: 0x3C }
  - { offset: 0x77024, size: 0x8, addend: 0x0, symName: __ZN8facebook5react12fromRawValueINS0_14SubmitBehaviorEEEvRKNS0_18PropsParserContextERKNS0_8RawValueERT_S9_, symObjAddr: 0x3978, symBinAddr: 0x11414, symSize: 0x3C }
  - { offset: 0x7703F, size: 0x8, addend: 0x0, symName: __ZN8facebook5react12fromRawValueINS0_14SubmitBehaviorEEEvRKNS0_18PropsParserContextERKNS0_8RawValueERT_S9_, symObjAddr: 0x3978, symBinAddr: 0x11414, symSize: 0x3C }
  - { offset: 0x7705B, size: 0x8, addend: 0x0, symName: __ZN8facebook5react12fromRawValueINS0_14SubmitBehaviorEEEvRKNS0_18PropsParserContextERKNS0_8RawValueERT_S9_, symObjAddr: 0x3978, symBinAddr: 0x11414, symSize: 0x3C }
  - { offset: 0x77077, size: 0x8, addend: 0x0, symName: __ZN8facebook5react12fromRawValueINS0_14SubmitBehaviorEEEvRKNS0_18PropsParserContextERKNS0_8RawValueERT_S9_, symObjAddr: 0x3978, symBinAddr: 0x11414, symSize: 0x3C }
  - { offset: 0x7717D, size: 0x8, addend: 0x0, symName: __ZN8facebook5react12fromRawValueINSt3__18optionalINS2_6vectorINS2_12basic_stringIcNS2_11char_traitsIcEENS2_9allocatorIcEEEENS8_ISA_EEEEEEEEvRKNS0_18PropsParserContextERKNS0_8RawValueERT_SK_, symObjAddr: 0x39B4, symBinAddr: 0x11450, symSize: 0x50 }
  - { offset: 0x77190, size: 0x8, addend: 0x0, symName: __ZN8facebook5react12fromRawValueIiEEvRKNS0_18PropsParserContextERKNS0_8RawValueERT_S8_, symObjAddr: 0x38A0, symBinAddr: 0x1133C, symSize: 0x58 }
  - { offset: 0x7737C, size: 0x8, addend: 0x0, symName: __ZN8facebook5react12fromRawValueINSt3__112basic_stringIcNS2_11char_traitsIcEENS2_9allocatorIcEEEEEEvRKNS0_18PropsParserContextERKNS0_8RawValueERT_SF_, symObjAddr: 0x38F8, symBinAddr: 0x11394, symSize: 0x80 }
  - { offset: 0x774B4, size: 0x8, addend: 0x0, symName: __ZN8facebook5react12fromRawValueIiEEvRKNS0_18PropsParserContextERKNS0_8RawValueERT_S8_, symObjAddr: 0x38A0, symBinAddr: 0x1133C, symSize: 0x58 }
  - { offset: 0x774C8, size: 0x8, addend: 0x0, symName: __ZN8facebook5react12fromRawValueERKNS0_18PropsParserContextERKNS0_8RawValueERNS0_21TextAlignmentVerticalE, symObjAddr: 0xA9A0, symBinAddr: 0x13B64, symSize: 0x298 }
  - { offset: 0x77D50, size: 0x8, addend: 0x0, symName: __ZN8facebook5react12fromRawValueERKNS0_18PropsParserContextERKNS0_8RawValueERNS0_20HyphenationFrequencyE, symObjAddr: 0x358C, symBinAddr: 0x11080, symSize: 0x238 }
  - { offset: 0x784E9, size: 0x8, addend: 0x0, symName: __ZN8facebook5react12fromRawValueERKNS0_18PropsParserContextERKNS0_8RawValueERNS0_13EllipsizeModeE, symObjAddr: 0x3090, symBinAddr: 0x10B84, symSize: 0x26C }
  - { offset: 0x78D7A, size: 0x8, addend: 0x0, symName: __ZN8facebook5react12fromRawValueERKNS0_18PropsParserContextERKNS0_8RawValueERNS0_17TextBreakStrategyE, symObjAddr: 0x32FC, symBinAddr: 0x10DF0, symSize: 0x290 }
  - { offset: 0x79501, size: 0x8, addend: 0x0, symName: __ZN8facebook5react12fromRawValueINSt3__112basic_stringIcNS2_11char_traitsIcEENS2_9allocatorIcEEEEEEvRKNS0_18PropsParserContextERKNS0_8RawValueERT_SF_, symObjAddr: 0x38F8, symBinAddr: 0x11394, symSize: 0x80 }
  - { offset: 0x7980F, size: 0x8, addend: 0x0, symName: __ZN8facebook5react12fromRawValueINS0_14SubmitBehaviorEEEvRKNS0_18PropsParserContextERKNS0_8RawValueERT_S9_, symObjAddr: 0x3978, symBinAddr: 0x11414, symSize: 0x3C }
  - { offset: 0x79855, size: 0x8, addend: 0x0, symName: __ZN8facebook5react12fromRawValueINSt3__112basic_stringIcNS2_11char_traitsIcEENS2_9allocatorIcEEEEEEvRKNS0_18PropsParserContextERKNS0_8RawValueERNS2_6vectorIT_NS6_ISG_EEEE, symObjAddr: 0x9BE8, symBinAddr: 0x13608, symSize: 0x170 }
  - { offset: 0x984DE, size: 0x8, addend: 0x0, symName: __ZNSt3__120__throw_out_of_rangeB8ne200100EPKc, symObjAddr: 0x5A80, symBinAddr: 0x12184, symSize: 0x50 }
  - { offset: 0x986EC, size: 0x8, addend: 0x0, symName: __ZNSt3__135__uninitialized_allocator_copy_implB8ne200100INS_9allocatorINS_12basic_stringIcNS_11char_traitsIcEENS1_IcEEEEEEPS6_S8_S8_EET2_RT_T0_T1_S9_, symObjAddr: 0x5D48, symBinAddr: 0x123B8, symSize: 0xBC }
  - { offset: 0x9896A, size: 0x8, addend: 0x0, symName: __ZNSt3__119__allocate_at_leastB8ne200100INS_9allocatorINS_12basic_stringIcNS_11char_traitsIcEENS1_IcEEEEEEEENS_19__allocation_resultINS_16allocator_traitsIT_E7pointerEEERSA_m, symObjAddr: 0x5D04, symBinAddr: 0x12374, symSize: 0x44 }
  - { offset: 0x98A0F, size: 0x8, addend: 0x0, symName: __ZNSt3__135__uninitialized_allocator_copy_implB8ne200100INS_9allocatorINS_12basic_stringIcNS_11char_traitsIcEENS1_IcEEEEEEPS6_S8_S8_EET2_RT_T0_T1_S9_, symObjAddr: 0x5D48, symBinAddr: 0x123B8, symSize: 0xBC }
  - { offset: 0x98DAF, size: 0x8, addend: 0x0, symName: __ZNSt3__119__allocate_at_leastB8ne200100INS_9allocatorIfEEEENS_19__allocation_resultINS_16allocator_traitsIT_E7pointerEEERS5_m, symObjAddr: 0x79BC, symBinAddr: 0x13148, symSize: 0x34 }
  - { offset: 0xA2C50, size: 0x8, addend: 0x0, symName: __ZN8facebook5react18BaseTextInputProps7setPropERKNS0_18PropsParserContextEjPKcRKNS0_8RawValueE, symObjAddr: 0x1D8C, symBinAddr: 0xF8CC, symSize: 0x11B4 }
  - { offset: 0xA2C76, size: 0x8, addend: 0x0, symName: __ZZN8facebook5react18BaseTextInputProps7setPropERKNS0_18PropsParserContextEjPKcRKNS0_8RawValueEE8defaults, symObjAddr: 0x1A7380, symBinAddr: 0x4CEA0, symSize: 0x0 }
  - { offset: 0xA75C9, size: 0x8, addend: 0x0, symName: __ZN8facebook5react18BaseTextInputPropsC2ERKNS0_18PropsParserContextERKS1_RKNS0_8RawPropsE, symObjAddr: 0x0, symBinAddr: 0xDDB8, symSize: 0x784 }
  - { offset: 0xA9926, size: 0x8, addend: 0x0, symName: __ZN8facebook5react13BaseTextPropsD2Ev, symObjAddr: 0x14D8, symBinAddr: 0xF0E8, symSize: 0x48 }
  - { offset: 0xAA2E3, size: 0x8, addend: 0x0, symName: __ZNSt3__120__optional_copy_baseINS_6vectorINS_12basic_stringIcNS_11char_traitsIcEENS_9allocatorIcEEEENS5_IS7_EEEELb0EEC2B8ne200100ERKSA_, symObjAddr: 0x5B74, symBinAddr: 0x121F8, symSize: 0x58 }
  - { offset: 0xAA2EE, size: 0x8, addend: 0x0, symName: __ZN8facebook5react14convertRawPropINSt3__112basic_stringIcNS2_11char_traitsIcEENS2_9allocatorIcEEEES8_EET_RKNS0_18PropsParserContextERKNS0_8RawPropsEPKcRKS9_RKT0_SH_SH_.cold.1, symObjAddr: 0xAC38, symBinAddr: 0x3902C, symSize: 0x58 }
  - { offset: 0xAA3E2, size: 0x8, addend: 0x0, symName: __ZN8facebook5react14convertRawPropINS0_11SharedColorES2_EET_RKNS0_18PropsParserContextERKNS0_8RawPropsEPKcRKS3_RKT0_SB_SB_.cold.1, symObjAddr: 0xAC90, symBinAddr: 0x39084, symSize: 0x54 }
  - { offset: 0xAA80A, size: 0x8, addend: 0x0, symName: __ZN8facebook5react12fromRawValueINSt3__112basic_stringIcNS2_11char_traitsIcEENS2_9allocatorIcEEEEEEvRKNS0_18PropsParserContextERKNS0_8RawValueERT_, symObjAddr: 0x5F28, symBinAddr: 0x12550, symSize: 0x50 }
  - { offset: 0xAA8D1, size: 0x8, addend: 0x0, symName: __ZNSt3__120__optional_copy_baseINS_6vectorINS_12basic_stringIcNS_11char_traitsIcEENS_9allocatorIcEEEENS5_IS7_EEEELb0EEC2B8ne200100ERKSA_, symObjAddr: 0x5B74, symBinAddr: 0x121F8, symSize: 0x58 }
  - { offset: 0xAC4E9, size: 0x8, addend: 0x0, symName: __ZN8facebook5react18BaseTextInputPropsC1ERKNS0_18PropsParserContextERKS1_RKNS0_8RawPropsE, symObjAddr: 0x15F0, symBinAddr: 0xF130, symSize: 0x79C }
  - { offset: 0xAEAFA, size: 0x8, addend: 0x0, symName: __ZN8facebook5react12fromRawValueERKNS0_18PropsParserContextERKNS0_8RawValueERNS0_21TextAlignmentVerticalE, symObjAddr: 0xA9A0, symBinAddr: 0x13B64, symSize: 0x298 }
  - { offset: 0xAEB0E, size: 0x8, addend: 0x0, symName: __ZN8facebook5react18BaseTextInputPropsC1Ev, symObjAddr: 0x2F40, symBinAddr: 0x10A80, symSize: 0xF8 }
  - { offset: 0xB00D1, size: 0x8, addend: 0x0, symName: __ZN8facebook5react13BaseTextPropsC2Ev, symObjAddr: 0x54E4, symBinAddr: 0x11F8C, symSize: 0x108 }
  - { offset: 0xB145A, size: 0x8, addend: 0x0, symName: __ZN8facebook5react18BaseTextInputPropsD1Ev, symObjAddr: 0x3038, symBinAddr: 0x10B78, symSize: 0xC }
  - { offset: 0xB1490, size: 0x8, addend: 0x0, symName: __ZN8facebook5react18BaseTextInputPropsD2Ev, symObjAddr: 0x5780, symBinAddr: 0x12094, symSize: 0xF0 }
  - { offset: 0xB2264, size: 0x8, addend: 0x0, symName: __ZNSt3__110shared_ptrIvEaSB8ne200100EOS1_, symObjAddr: 0x5E7C, symBinAddr: 0x124EC, symSize: 0x64 }
  - { offset: 0xB24B0, size: 0x8, addend: 0x0, symName: __ZNSt3__123__optional_storage_baseINS_6vectorINS_12basic_stringIcNS_11char_traitsIcEENS_9allocatorIcEEEENS5_IS7_EEEELb0EE13__assign_fromB8ne200100INS_27__optional_move_assign_baseIS9_Lb0EEEEEvOT_, symObjAddr: 0xA868, symBinAddr: 0x13A8C, symSize: 0xA0 }
  - { offset: 0xB2714, size: 0x8, addend: 0x0, symName: __ZNK8facebook5react18BaseTextInputProps26getEffectiveTextAttributesEd, symObjAddr: 0x3A04, symBinAddr: 0x114A0, symSize: 0x330 }
  - { offset: 0xB3446, size: 0x8, addend: 0x0, symName: __ZN8facebook5react14TextAttributesD1Ev, symObjAddr: 0x3D34, symBinAddr: 0x117D0, symSize: 0x48 }
  - { offset: 0xB379C, size: 0x8, addend: 0x0, symName: __ZNK8facebook5react18BaseTextInputProps27getNonDefaultSubmitBehaviorEv, symObjAddr: 0x3D7C, symBinAddr: 0x11818, symSize: 0x24 }
  - { offset: 0xB37ED, size: 0x8, addend: 0x0, symName: __ZN8facebook5react18BaseTextInputPropsD0Ev, symObjAddr: 0x3F08, symBinAddr: 0x1183C, symSize: 0x1C }
  - { offset: 0xB7207, size: 0x8, addend: 0x0, symName: __ZN8facebook5react18BaseTextInputPropsD2Ev, symObjAddr: 0x5780, symBinAddr: 0x12094, symSize: 0xF0 }
  - { offset: 0xB7871, size: 0x8, addend: 0x0, symName: __ZNSt12out_of_rangeC1B8ne200100EPKc, symObjAddr: 0x5AD0, symBinAddr: 0x121D4, symSize: 0x24 }
  - { offset: 0xB78F9, size: 0x8, addend: 0x0, symName: __ZNSt3__123__optional_storage_baseINS_6vectorINS_12basic_stringIcNS_11char_traitsIcEENS_9allocatorIcEEEENS5_IS7_EEEELb0EE16__construct_fromB8ne200100IRKNS_20__optional_copy_baseIS9_Lb0EEEEEvOT_, symObjAddr: 0x5BCC, symBinAddr: 0x12250, symSize: 0x58 }
  - { offset: 0xB7933, size: 0x8, addend: 0x0, symName: __ZNSt3__123__optional_storage_baseINS_6vectorINS_12basic_stringIcNS_11char_traitsIcEENS_9allocatorIcEEEENS5_IS7_EEEELb0EE16__construct_fromB8ne200100IRKNS_20__optional_copy_baseIS9_Lb0EEEEEvOT_, symObjAddr: 0x5BCC, symBinAddr: 0x12250, symSize: 0x58 }
  - { offset: 0xB7ACF, size: 0x8, addend: 0x0, symName: __ZNSt3__16vectorINS_12basic_stringIcNS_11char_traitsIcEENS_9allocatorIcEEEENS4_IS6_EEE16__init_with_sizeB8ne200100IPS6_SA_EEvT_T0_m, symObjAddr: 0x5C24, symBinAddr: 0x122A8, symSize: 0x84 }
  - { offset: 0xB7EE6, size: 0x8, addend: 0x0, symName: __ZNSt3__16vectorINS_12basic_stringIcNS_11char_traitsIcEENS_9allocatorIcEEEENS4_IS6_EEE11__vallocateB8ne200100Em, symObjAddr: 0x5CA8, symBinAddr: 0x1232C, symSize: 0x48 }
  - { offset: 0xB7F52, size: 0x8, addend: 0x0, symName: __ZNSt3__119__allocate_at_leastB8ne200100INS_9allocatorINS_12basic_stringIcNS_11char_traitsIcEENS1_IcEEEEEEEENS_19__allocation_resultINS_16allocator_traitsIT_E7pointerEEERSA_m, symObjAddr: 0x5D04, symBinAddr: 0x12374, symSize: 0x44 }
  - { offset: 0xB8048, size: 0x8, addend: 0x0, symName: __ZNSt3__128__exception_guard_exceptionsINS_29_AllocatorDestroyRangeReverseINS_9allocatorINS_12basic_stringIcNS_11char_traitsIcEENS2_IcEEEEEEPS7_EEED2B8ne200100Ev, symObjAddr: 0x5E04, symBinAddr: 0x12474, symSize: 0x34 }
  - { offset: 0xB8087, size: 0x8, addend: 0x0, symName: __ZNKSt3__129_AllocatorDestroyRangeReverseINS_9allocatorINS_12basic_stringIcNS_11char_traitsIcEENS1_IcEEEEEEPS6_EclB8ne200100Ev, symObjAddr: 0x5E38, symBinAddr: 0x124A8, symSize: 0x44 }
  - { offset: 0xB871A, size: 0x8, addend: 0x0, symName: __ZNK8facebook5react8RawValuecvT_IxEEv, symObjAddr: 0x6578, symBinAddr: 0x12B60, symSize: 0x38 }
  - { offset: 0xB872E, size: 0x8, addend: 0x0, symName: __ZNK8facebook5react8RawValuecvT_IxEEv, symObjAddr: 0x6578, symBinAddr: 0x12B60, symSize: 0x38 }
  - { offset: 0xB88EB, size: 0x8, addend: 0x0, symName: __ZNK8facebook5react8RawValue7hasTypeINSt3__16vectorIfNS3_9allocatorIfEEEEEEbv, symObjAddr: 0x65B0, symBinAddr: 0x12B98, symSize: 0x68 }
  - { offset: 0xB88FF, size: 0x8, addend: 0x0, symName: __ZNK8facebook5react8RawValue7hasTypeINSt3__16vectorIfNS3_9allocatorIfEEEEEEbv, symObjAddr: 0x65B0, symBinAddr: 0x12B98, symSize: 0x68 }
  - { offset: 0xB8BB7, size: 0x8, addend: 0x0, symName: __ZNK8facebook5react8RawValuecvT_INSt3__16vectorIfNS4_9allocatorIfEEEEEEv, symObjAddr: 0x6618, symBinAddr: 0x12C00, symSize: 0x38 }
  - { offset: 0xB8BCB, size: 0x8, addend: 0x0, symName: __ZNK8facebook5react8RawValuecvT_INSt3__16vectorIfNS4_9allocatorIfEEEEEEv, symObjAddr: 0x6618, symBinAddr: 0x12C00, symSize: 0x38 }
  - { offset: 0xB8D14, size: 0x8, addend: 0x0, symName: __ZNK8facebook5react8RawValue7hasTypeINSt3__113unordered_mapINS3_12basic_stringIcNS3_11char_traitsIcEENS3_9allocatorIcEEEES1_NS3_4hashISA_EENS3_8equal_toISA_EENS8_INS3_4pairIKSA_S1_EEEEEEEEbv, symObjAddr: 0x6650, symBinAddr: 0x12C38, symSize: 0x3C }
  - { offset: 0xB8D28, size: 0x8, addend: 0x0, symName: __ZNK8facebook5react8RawValue7hasTypeINSt3__113unordered_mapINS3_12basic_stringIcNS3_11char_traitsIcEENS3_9allocatorIcEEEES1_NS3_4hashISA_EENS3_8equal_toISA_EENS8_INS3_4pairIKSA_S1_EEEEEEEEbv, symObjAddr: 0x6650, symBinAddr: 0x12C38, symSize: 0x3C }
  - { offset: 0xB8FAC, size: 0x8, addend: 0x0, symName: __ZNK8facebook5react8RawValuecvT_IfEEv, symObjAddr: 0x66C4, symBinAddr: 0x12C74, symSize: 0x38 }
  - { offset: 0xB8FC0, size: 0x8, addend: 0x0, symName: __ZNKSt3__112__hash_tableINS_17__hash_value_typeINS_12basic_stringIcNS_11char_traitsIcEENS_9allocatorIcEEEEN8facebook5react8RawValueEEENS_22__unordered_map_hasherIS7_SB_NS_4hashIS7_EENS_8equal_toIS7_EELb1EEENS_21__unordered_map_equalIS7_SB_SG_SE_Lb1EEENS5_ISB_EEE4findIS7_EENS_21__hash_const_iteratorIPNS_11__hash_nodeISB_PvEEEERKT_, symObjAddr: 0x9860, symBinAddr: 0x132F4, symSize: 0xF8 }
  - { offset: 0xB91B4, size: 0x8, addend: 0x0, symName: __ZNK8facebook5react8RawValuecvT_IfEEv, symObjAddr: 0x66C4, symBinAddr: 0x12C74, symSize: 0x38 }
  - { offset: 0xB945F, size: 0x8, addend: 0x0, symName: __ZNSt3__16vectorIfNS_9allocatorIfEEE20__throw_out_of_rangeB8ne200100Ev, symObjAddr: 0x81D8, symBinAddr: 0x1317C, symSize: 0x14 }
  - { offset: 0xB9476, size: 0x8, addend: 0x0, symName: __ZN8facebook5react8RawValue14checkValueTypeIS1_EEbPNS_3jsi7RuntimeERKNS3_5ValueEPNSt3__113unordered_mapINS9_12basic_stringIcNS9_11char_traitsIcEENS9_9allocatorIcEEEET_NS9_4hashISG_EENS9_8equal_toISG_EENSE_INS9_4pairIKSG_SH_EEEEEE, symObjAddr: 0x81EC, symBinAddr: 0x13190, symSize: 0x164 }
  - { offset: 0xB994E, size: 0x8, addend: 0x0, symName: __ZN8facebook5react8RawValue14checkValueTypeIfEEbPNS_3jsi7RuntimeERKNS3_5ValueEPNSt3__16vectorIT_NS9_9allocatorISB_EEEE, symObjAddr: 0x750C, symBinAddr: 0x12CAC, symSize: 0x104 }
  - { offset: 0xB9D91, size: 0x8, addend: 0x0, symName: __ZN8facebook5react8RawValue9castValueIfEENSt3__16vectorIT_NS3_9allocatorIS5_EEEERKN5folly7dynamicEPS8_, symObjAddr: 0x7610, symBinAddr: 0x12DB0, symSize: 0xBC }
  - { offset: 0xBA0AC, size: 0x8, addend: 0x0, symName: __ZN8facebook5react8RawValue9castValueIfEENSt3__16vectorIT_NS3_9allocatorIS5_EEEEPNS_3jsi7RuntimeERKNS9_5ValueEPS8_, symObjAddr: 0x76CC, symBinAddr: 0x12E6C, symSize: 0x174 }
  - { offset: 0xBA72C, size: 0x8, addend: 0x0, symName: __ZN8facebook5react8RawValue14checkValueTypeIS1_EEbPNS_3jsi7RuntimeERKNS3_5ValueEPNSt3__113unordered_mapINS9_12basic_stringIcNS9_11char_traitsIcEENS9_9allocatorIcEEEET_NS9_4hashISG_EENS9_8equal_toISG_EENSE_INS9_4pairIKSG_SH_EEEEEE, symObjAddr: 0x81EC, symBinAddr: 0x13190, symSize: 0x164 }
  - { offset: 0xBD843, size: 0x8, addend: 0x0, symName: __ZNSt3__16vectorIfNS_9allocatorIfEEE7reserveEm, symObjAddr: 0x7840, symBinAddr: 0x12FE0, symSize: 0x8C }
  - { offset: 0xBDA73, size: 0x8, addend: 0x0, symName: __ZNSt3__16vectorIfNS_9allocatorIfEEE9push_backB8ne200100EOf, symObjAddr: 0x78CC, symBinAddr: 0x1306C, symSize: 0xDC }
  - { offset: 0xBDA7E, size: 0x8, addend: 0x0, symName: __ZNSt3__16vectorIfNS_9allocatorIfEEE9push_backB8ne200100EOf, symObjAddr: 0x78CC, symBinAddr: 0x1306C, symSize: 0xDC }
  - { offset: 0xBDF44, size: 0x8, addend: 0x0, symName: __ZNSt3__119__allocate_at_leastB8ne200100INS_9allocatorIfEEEENS_19__allocation_resultINS_16allocator_traitsIT_E7pointerEEERS5_m, symObjAddr: 0x79BC, symBinAddr: 0x13148, symSize: 0x34 }
  - { offset: 0xC3413, size: 0x8, addend: 0x0, symName: __ZNSt3__16vectorINS_12basic_stringIcNS_11char_traitsIcEENS_9allocatorIcEEEENS4_IS6_EEE7reserveEm, symObjAddr: 0x9DCC, symBinAddr: 0x13778, symSize: 0xB8 }
  - { offset: 0xC3427, size: 0x8, addend: 0x0, symName: __ZNSt3__16vectorINS_12basic_stringIcNS_11char_traitsIcEENS_9allocatorIcEEEENS4_IS6_EEE7reserveEm, symObjAddr: 0x9DCC, symBinAddr: 0x13778, symSize: 0xB8 }
  - { offset: 0xC360F, size: 0x8, addend: 0x0, symName: __ZNSt3__16vectorINS_12basic_stringIcNS_11char_traitsIcEENS_9allocatorIcEEEENS4_IS6_EEE9push_backB8ne200100ERKS6_, symObjAddr: 0x9E84, symBinAddr: 0x13830, symSize: 0x3C }
  - { offset: 0xC361A, size: 0x8, addend: 0x0, symName: __ZNSt3__16vectorINS_12basic_stringIcNS_11char_traitsIcEENS_9allocatorIcEEEENS4_IS6_EEE9push_backB8ne200100ERKS6_, symObjAddr: 0x9E84, symBinAddr: 0x13830, symSize: 0x3C }
  - { offset: 0xC46E7, size: 0x8, addend: 0x0, symName: __ZNSt3__114__split_bufferINS_12basic_stringIcNS_11char_traitsIcEENS_9allocatorIcEEEERNS4_IS6_EEED2Ev, symObjAddr: 0xA5D8, symBinAddr: 0x1386C, symSize: 0x34 }
  - { offset: 0xC47FB, size: 0x8, addend: 0x0, symName: __ZNSt3__16vectorINS_12basic_stringIcNS_11char_traitsIcEENS_9allocatorIcEEEENS4_IS6_EEE22__construct_one_at_endB8ne200100IJRKS6_EEEvDpOT_, symObjAddr: 0xA660, symBinAddr: 0x138F4, symSize: 0x5C }
  - { offset: 0xC49FE, size: 0x8, addend: 0x0, symName: __ZNSt3__16vectorINS_12basic_stringIcNS_11char_traitsIcEENS_9allocatorIcEEEENS4_IS6_EEE24__emplace_back_slow_pathIJRKS6_EEEPS6_DpOT_, symObjAddr: 0xA6BC, symBinAddr: 0x13950, symSize: 0x13C }
  - { offset: 0xC58A0, size: 0x8, addend: 0x0, symName: __ZNSt3__114__split_bufferINS_12basic_stringIcNS_11char_traitsIcEENS_9allocatorIcEEEERNS4_IS6_EEE17__destruct_at_endB8ne200100EPS6_, symObjAddr: 0xA60C, symBinAddr: 0x138A0, symSize: 0x54 }
  - { offset: 0xC58D8, size: 0x8, addend: 0x0, symName: __ZNSt3__114__split_bufferINS_12basic_stringIcNS_11char_traitsIcEENS_9allocatorIcEEEERNS4_IS6_EEE17__destruct_at_endB8ne200100EPS6_, symObjAddr: 0xA60C, symBinAddr: 0x138A0, symSize: 0x54 }
  - { offset: 0xC5BA1, size: 0x8, addend: 0x0, symName: __ZNSt3__16vectorINS_12basic_stringIcNS_11char_traitsIcEENS_9allocatorIcEEEENS4_IS6_EEE13__vdeallocateEv, symObjAddr: 0xA908, symBinAddr: 0x13B2C, symSize: 0x38 }
  - { offset: 0xC5CF4, size: 0x8, addend: 0x0, symName: _OUTLINED_FUNCTION_0, symObjAddr: 0xADB4, symBinAddr: 0x13DFC, symSize: 0xC }
  - { offset: 0xC9DEC, size: 0x8, addend: 0x0, symName: __ZN8facebook5react14convertRawPropINSt3__18optionalINS0_10FontWeightEEES5_EET_RKNS0_18PropsParserContextERKNS0_8RawPropsEPKcRKS6_RKT0_SE_SE_, symObjAddr: 0x3768, symBinAddr: 0x16D48, symSize: 0x1E8 }
  - { offset: 0xCA3CA, size: 0x8, addend: 0x0, symName: __ZN8facebook5react14convertRawPropINSt3__18optionalINS0_9FontStyleEEES5_EET_RKNS0_18PropsParserContextERKNS0_8RawPropsEPKcRKS6_RKT0_SE_SE_, symObjAddr: 0x3950, symBinAddr: 0x16F30, symSize: 0x1E8 }
  - { offset: 0xCA9A8, size: 0x8, addend: 0x0, symName: __ZN8facebook5react14convertRawPropINSt3__18optionalINS0_11FontVariantEEES5_EET_RKNS0_18PropsParserContextERKNS0_8RawPropsEPKcRKS6_RKT0_SE_SE_, symObjAddr: 0x3B38, symBinAddr: 0x17118, symSize: 0x1E8 }
  - { offset: 0xCAF86, size: 0x8, addend: 0x0, symName: __ZN8facebook5react14convertRawPropINSt3__18optionalIbEES4_EET_RKNS0_18PropsParserContextERKNS0_8RawPropsEPKcRKS5_RKT0_SD_SD_, symObjAddr: 0x3D20, symBinAddr: 0x17300, symSize: 0x1B8 }
  - { offset: 0xCB44E, size: 0x8, addend: 0x0, symName: __ZN8facebook5react14convertRawPropINSt3__18optionalINS0_15DynamicTypeRampEEES5_EET_RKNS0_18PropsParserContextERKNS0_8RawPropsEPKcRKS6_RKT0_SE_SE_, symObjAddr: 0x3ED8, symBinAddr: 0x174B8, symSize: 0x1E8 }
  - { offset: 0xCBA2C, size: 0x8, addend: 0x0, symName: __ZN8facebook5react14convertRawPropINSt3__18optionalINS0_13TextTransformEEES5_EET_RKNS0_18PropsParserContextERKNS0_8RawPropsEPKcRKS6_RKT0_SE_SE_, symObjAddr: 0x40C0, symBinAddr: 0x176A0, symSize: 0x1E8 }
  - { offset: 0xCC00A, size: 0x8, addend: 0x0, symName: __ZN8facebook5react14convertRawPropINSt3__18optionalINS0_13TextAlignmentEEES5_EET_RKNS0_18PropsParserContextERKNS0_8RawPropsEPKcRKS6_RKT0_SE_SE_, symObjAddr: 0x42A8, symBinAddr: 0x17888, symSize: 0x1E8 }
  - { offset: 0xCC5E8, size: 0x8, addend: 0x0, symName: __ZN8facebook5react14convertRawPropINSt3__18optionalINS0_16WritingDirectionEEES5_EET_RKNS0_18PropsParserContextERKNS0_8RawPropsEPKcRKS6_RKT0_SE_SE_, symObjAddr: 0x4490, symBinAddr: 0x17A70, symSize: 0x1E8 }
  - { offset: 0xCCBC6, size: 0x8, addend: 0x0, symName: __ZN8facebook5react14convertRawPropINSt3__18optionalINS0_17LineBreakStrategyEEES5_EET_RKNS0_18PropsParserContextERKNS0_8RawPropsEPKcRKS6_RKT0_SE_SE_, symObjAddr: 0x4678, symBinAddr: 0x17C58, symSize: 0x1E8 }
  - { offset: 0xCD1A4, size: 0x8, addend: 0x0, symName: __ZN8facebook5react14convertRawPropINSt3__18optionalINS0_13LineBreakModeEEES5_EET_RKNS0_18PropsParserContextERKNS0_8RawPropsEPKcRKS6_RKT0_SE_SE_, symObjAddr: 0x4860, symBinAddr: 0x17E40, symSize: 0x1E8 }
  - { offset: 0xCD782, size: 0x8, addend: 0x0, symName: __ZN8facebook5react14convertRawPropINSt3__18optionalINS0_22TextDecorationLineTypeEEES5_EET_RKNS0_18PropsParserContextERKNS0_8RawPropsEPKcRKS6_RKT0_SE_SE_, symObjAddr: 0x4A48, symBinAddr: 0x18028, symSize: 0x1E8 }
  - { offset: 0xCDD60, size: 0x8, addend: 0x0, symName: __ZN8facebook5react14convertRawPropINSt3__18optionalINS0_19TextDecorationStyleEEES5_EET_RKNS0_18PropsParserContextERKNS0_8RawPropsEPKcRKS6_RKT0_SE_SE_, symObjAddr: 0x4C30, symBinAddr: 0x18210, symSize: 0x1E8 }
  - { offset: 0xCE33E, size: 0x8, addend: 0x0, symName: __ZN8facebook5react14convertRawPropINSt3__18optionalINS0_4SizeEEES5_EET_RKNS0_18PropsParserContextERKNS0_8RawPropsEPKcRKS6_RKT0_SE_SE_, symObjAddr: 0x4E18, symBinAddr: 0x183F8, symSize: 0x1FC }
  - { offset: 0xCE92D, size: 0x8, addend: 0x0, symName: __ZN8facebook5react14convertRawPropINSt3__18optionalINS0_17AccessibilityRoleEEES5_EET_RKNS0_18PropsParserContextERKNS0_8RawPropsEPKcRKS6_RKT0_SE_SE_, symObjAddr: 0x5014, symBinAddr: 0x185F4, symSize: 0x1E8 }
  - { offset: 0xCEF0B, size: 0x8, addend: 0x0, symName: __ZN8facebook5react14convertRawPropINSt3__18optionalINS0_4RoleEEES5_EET_RKNS0_18PropsParserContextERKNS0_8RawPropsEPKcRKS6_RKT0_SE_SE_, symObjAddr: 0x51FC, symBinAddr: 0x187DC, symSize: 0x1E8 }
  - { offset: 0xCF95B, size: 0x8, addend: 0x0, symName: __ZN8facebook5react12fromRawValueERKNS0_18PropsParserContextERKNS0_8RawValueERNS0_13TextTransformE, symObjAddr: 0xB13C, symBinAddr: 0x1A2D8, symSize: 0x340 }
  - { offset: 0xD032A, size: 0x8, addend: 0x0, symName: __ZN8facebook5react12fromRawValueERKNS0_18PropsParserContextERKNS0_8RawValueERNS0_22TextDecorationLineTypeE, symObjAddr: 0xBFBC, symBinAddr: 0x1B158, symSize: 0x360 }
  - { offset: 0xD0CB4, size: 0x8, addend: 0x0, symName: __ZN8facebook5react12fromRawValueERKNS0_18PropsParserContextERKNS0_8RawValueERNS0_10FontWeightE, symObjAddr: 0x9AA8, symBinAddr: 0x18EA0, symSize: 0x4A8 }
  - { offset: 0xD176E, size: 0x8, addend: 0x0, symName: __ZN8facebook5react12fromRawValueERKNS0_18PropsParserContextERKNS0_8RawValueERNS0_13TextAlignmentE, symObjAddr: 0xB47C, symBinAddr: 0x1A618, symSize: 0x2E8 }
  - { offset: 0xD2109, size: 0x8, addend: 0x0, symName: __ZN8facebook5react12fromRawValueERKNS0_18PropsParserContextERKNS0_8RawValueERNS0_4RoleE, symObjAddr: 0xE334, symBinAddr: 0x1C100, symSize: 0xA18 }
  - { offset: 0xD2F91, size: 0x8, addend: 0x0, symName: __ZN8facebook5react12fromRawValueERKNS0_18PropsParserContextERKNS0_8RawValueERNS0_19TextDecorationStyleE, symObjAddr: 0xC31C, symBinAddr: 0x1B4B8, symSize: 0x2B8 }
  - { offset: 0xD4991, size: 0x8, addend: 0x0, symName: __ZN8facebook5react12fromRawValueERKNS0_18PropsParserContextERKNS0_8RawValueERNS0_13LineBreakModeE, symObjAddr: 0xBCBC, symBinAddr: 0x1AE58, symSize: 0x300 }
  - { offset: 0xD5313, size: 0x8, addend: 0x0, symName: __ZN8facebook5react12fromRawValueERKNS0_18PropsParserContextERKNS0_8RawValueERNS0_4SizeE, symObjAddr: 0xC5D4, symBinAddr: 0x1B770, symSize: 0x2B8 }
  - { offset: 0xD5C20, size: 0x8, addend: 0x0, symName: __ZN8facebook5react12fromRawValueERKNS0_18PropsParserContextERKNS0_8RawValueERNS0_11FontVariantE, symObjAddr: 0xA1E4, symBinAddr: 0x195A4, symSize: 0x7EC }
  - { offset: 0xD6A26, size: 0x8, addend: 0x0, symName: __ZN8facebook5react12fromRawValueERKNS0_18PropsParserContextERKNS0_8RawValueERNS0_9FontStyleE, symObjAddr: 0x9F88, symBinAddr: 0x19348, symSize: 0x25C }
  - { offset: 0xD71BE, size: 0x8, addend: 0x0, symName: __ZN8facebook5react12fromRawValueERKNS0_18PropsParserContextERKNS0_8RawValueERNS0_16WritingDirectionE, symObjAddr: 0xB764, symBinAddr: 0x1A900, symSize: 0x298 }
  - { offset: 0xD7A3A, size: 0x8, addend: 0x0, symName: __ZN8facebook5react12fromRawValueERKNS0_18PropsParserContextERKNS0_8RawValueERNS0_17LineBreakStrategyE, symObjAddr: 0xB9FC, symBinAddr: 0x1AB98, symSize: 0x2C0 }
  - { offset: 0xD82C6, size: 0x8, addend: 0x0, symName: __ZN8facebook5react12fromRawValueERKNS0_18PropsParserContextERKNS0_8RawValueERNS0_17AccessibilityRoleE, symObjAddr: 0xDC5C, symBinAddr: 0x1BA28, symSize: 0x6D8 }
  - { offset: 0xD8F4A, size: 0x8, addend: 0x0, symName: __ZN8facebook5react12fromRawValueERKNS0_18PropsParserContextERKNS0_8RawValueERNS0_15DynamicTypeRampE, symObjAddr: 0x57E0, symBinAddr: 0x189C4, symSize: 0x3D0 }
  - { offset: 0xEFF66, size: 0x8, addend: 0x0, symName: __ZNSt3__1eqB8ne200100IcNS_11char_traitsIcEENS_9allocatorIcEEEEbRKNS_12basic_stringIT_T0_T1_EEPKS6_, symObjAddr: 0x5BE8, symBinAddr: 0x18D94, symSize: 0x80 }
  - { offset: 0xF1389, size: 0x8, addend: 0x0, symName: __ZN8facebook5react12fromRawValueERKNS0_18PropsParserContextERKNS0_8RawValueERNS0_17AccessibilityRoleE, symObjAddr: 0xDC5C, symBinAddr: 0x1BA28, symSize: 0x6D8 }
  - { offset: 0xF9423, size: 0x8, addend: 0x0, symName: __ZN8facebook5react13BaseTextProps7setPropERKNS0_18PropsParserContextEjPKcRKNS0_8RawValueE, symObjAddr: 0xB7C, symBinAddr: 0x1493C, symSize: 0x240C }
  - { offset: 0xF9449, size: 0x8, addend: 0x0, symName: __ZZN8facebook5react13BaseTextProps7setPropERKNS0_18PropsParserContextEjPKcRKNS0_8RawValueEE8defaults, symObjAddr: 0x18B080, symBinAddr: 0x4D7E0, symSize: 0x0 }
  - { offset: 0x10267D, size: 0x8, addend: 0x0, symName: __ZN8facebook5react13BaseTextPropsC2ERKNS0_18PropsParserContextERKS1_RKNS0_8RawPropsE, symObjAddr: 0x0, symBinAddr: 0x13E08, symSize: 0xB30 }
  - { offset: 0x1065F0, size: 0x8, addend: 0x0, symName: __ZN8facebook5react13BaseTextPropsC1ERKNS0_18PropsParserContextERKS1_RKNS0_8RawPropsE, symObjAddr: 0xB78, symBinAddr: 0x14938, symSize: 0x4 }
  - { offset: 0x106648, size: 0x8, addend: 0x0, symName: __ZN8facebook5react13BaseTextPropsC1ERKNS0_18PropsParserContextERKS1_RKNS0_8RawPropsE, symObjAddr: 0xB78, symBinAddr: 0x14938, symSize: 0x4 }
  - { offset: 0x107972, size: 0x8, addend: 0x0, symName: __ZN8facebook5react13BaseTextProps7setPropERKNS0_18PropsParserContextEjPKcRKNS0_8RawValueE.cold.2, symObjAddr: 0xED7C, symBinAddr: 0x39108, symSize: 0x30 }
  - { offset: 0x1079B8, size: 0x8, addend: 0x0, symName: __ZN8facebook5react13BaseTextProps7setPropERKNS0_18PropsParserContextEjPKcRKNS0_8RawValueE.cold.4, symObjAddr: 0xEDDC, symBinAddr: 0x39168, symSize: 0x2C }
  - { offset: 0x107A0D, size: 0x8, addend: 0x0, symName: __ZN8facebook5react13BaseTextProps7setPropERKNS0_18PropsParserContextEjPKcRKNS0_8RawValueE.cold.1, symObjAddr: 0xED4C, symBinAddr: 0x390D8, symSize: 0x30 }
  - { offset: 0x107A53, size: 0x8, addend: 0x0, symName: __ZN8facebook5react13BaseTextProps7setPropERKNS0_18PropsParserContextEjPKcRKNS0_8RawValueE.cold.3, symObjAddr: 0xEDAC, symBinAddr: 0x39138, symSize: 0x30 }
  - { offset: 0x107B9C, size: 0x8, addend: 0x0, symName: __ZN8facebook5react12fromRawValueERKNS0_18PropsParserContextERKNS0_8RawValueERNS0_10FontWeightE, symObjAddr: 0x9AA8, symBinAddr: 0x18EA0, symSize: 0x4A8 }
  - { offset: 0x107D16, size: 0x8, addend: 0x0, symName: __ZNSt3__110shared_ptrIvEaSB8ne200100ERKS1_, symObjAddr: 0x99C0, symBinAddr: 0x18E28, symSize: 0x78 }
  - { offset: 0x108064, size: 0x8, addend: 0x0, symName: __ZNSt3__1eqB8ne200100IcNS_11char_traitsIcEENS_9allocatorIcEEEEbRKNS_12basic_stringIT_T0_T1_EEPKS6_, symObjAddr: 0x5BE8, symBinAddr: 0x18D94, symSize: 0x80 }
  - { offset: 0x108C71, size: 0x8, addend: 0x0, symName: __ZNSt3__112basic_stringIcNS_11char_traitsIcEENS_9allocatorIcEEE20__throw_out_of_rangeB8ne200100Ev, symObjAddr: 0x5E40, symBinAddr: 0x18E14, symSize: 0x14 }
  - { offset: 0x113015, size: 0x8, addend: 0x0, symName: __ZN8facebook5react12fromRawValueERKNS0_18PropsParserContextERKNS0_8RawValueERNS0_9FontStyleE, symObjAddr: 0x9F88, symBinAddr: 0x19348, symSize: 0x25C }
  - { offset: 0x113131, size: 0x8, addend: 0x0, symName: __ZNK8facebook5react8RawValue7hasTypeINSt3__16vectorINS3_12basic_stringIcNS3_11char_traitsIcEENS3_9allocatorIcEEEENS8_ISA_EEEEEEbv, symObjAddr: 0xA9D0, symBinAddr: 0x19D90, symSize: 0x64 }
  - { offset: 0x1133D0, size: 0x8, addend: 0x0, symName: __ZNK8facebook5react8RawValuecvT_INSt3__16vectorINS4_12basic_stringIcNS4_11char_traitsIcEENS4_9allocatorIcEEEENS9_ISB_EEEEEEv, symObjAddr: 0xAA34, symBinAddr: 0x19DF4, symSize: 0x38 }
  - { offset: 0x1133E4, size: 0x8, addend: 0x0, symName: __ZNK8facebook5react8RawValuecvT_INSt3__16vectorINS4_12basic_stringIcNS4_11char_traitsIcEENS4_9allocatorIcEEEENS9_ISB_EEEEEEv, symObjAddr: 0xAA34, symBinAddr: 0x19DF4, symSize: 0x38 }
  - { offset: 0x11352D, size: 0x8, addend: 0x0, symName: __ZN8facebook5react8RawValue14checkValueTypeINSt3__112basic_stringIcNS3_11char_traitsIcEENS3_9allocatorIcEEEEEEbPNS_3jsi7RuntimeERKNSA_5ValueEPNS3_6vectorIT_NS7_ISH_EEEE, symObjAddr: 0xAA6C, symBinAddr: 0x19E2C, symSize: 0x104 }
  - { offset: 0x113655, size: 0x8, addend: 0x0, symName: __ZN8facebook5react8RawValue14checkValueTypeINSt3__112basic_stringIcNS3_11char_traitsIcEENS3_9allocatorIcEEEEEEbPNS_3jsi7RuntimeERKNSA_5ValueEPNS3_6vectorIT_NS7_ISH_EEEE, symObjAddr: 0xAA6C, symBinAddr: 0x19E2C, symSize: 0x104 }
  - { offset: 0x113A98, size: 0x8, addend: 0x0, symName: __ZN8facebook5react8RawValue9castValueINSt3__112basic_stringIcNS3_11char_traitsIcEENS3_9allocatorIcEEEEEENS3_6vectorIT_NS7_ISB_EEEERKN5folly7dynamicEPSD_, symObjAddr: 0xAB70, symBinAddr: 0x19F30, symSize: 0xE0 }
  - { offset: 0x113F16, size: 0x8, addend: 0x0, symName: __ZN8facebook5react8RawValue9castValueINSt3__112basic_stringIcNS3_11char_traitsIcEENS3_9allocatorIcEEEEEENS3_6vectorIT_NS7_ISB_EEEEPNS_3jsi7RuntimeERKNSE_5ValueEPSD_, symObjAddr: 0xAC50, symBinAddr: 0x1A010, symSize: 0x19C }
  - { offset: 0x1147EC, size: 0x8, addend: 0x0, symName: __ZNSt3__16vectorINS_12basic_stringIcNS_11char_traitsIcEENS_9allocatorIcEEEENS4_IS6_EEE9push_backB8ne200100EOS6_, symObjAddr: 0xAEA4, symBinAddr: 0x1A1AC, symSize: 0x12C }
  - { offset: 0x1147F7, size: 0x8, addend: 0x0, symName: __ZNSt3__16vectorINS_12basic_stringIcNS_11char_traitsIcEENS_9allocatorIcEEEENS4_IS6_EEE9push_backB8ne200100EOS6_, symObjAddr: 0xAEA4, symBinAddr: 0x1A1AC, symSize: 0x12C }
  - { offset: 0x11928D, size: 0x8, addend: 0x0, symName: _OUTLINED_FUNCTION_0, symObjAddr: 0xEF84, symBinAddr: 0x1CB18, symSize: 0x8 }
  - { offset: 0x1192A5, size: 0x8, addend: 0x0, symName: _OUTLINED_FUNCTION_1, symObjAddr: 0xEF8C, symBinAddr: 0x1CB20, symSize: 0x8 }
  - { offset: 0x11B4A1, size: 0x8, addend: 0x0, symName: __ZN8facebook5react18BaseTextShadowNode21buildAttributedStringERKNS0_14TextAttributesERKNS0_10ShadowNodeERNS0_16AttributedStringERNSt3__16vectorINS1_10AttachmentENSA_9allocatorISC_EEEE, symObjAddr: 0x0, symBinAddr: 0x1CB28, symSize: 0x1078 }
  - { offset: 0x11B63F, size: 0x8, addend: 0x0, symName: __ZN8facebook5reactL18EmptyLayoutMetricsE, symObjAddr: 0x19D0, symBinAddr: 0x3B108, symSize: 0x0 }
  - { offset: 0x13479E, size: 0x8, addend: 0x0, symName: __ZNSt3__119__allocate_at_leastB8ne200100INS_9allocatorIN8facebook5react18BaseTextShadowNode10AttachmentEEEEENS_19__allocation_resultINS_16allocator_traitsIT_E7pointerEEERS9_m, symObjAddr: 0x177C, symBinAddr: 0x1DD70, symSize: 0x34 }
  - { offset: 0x13C02A, size: 0x8, addend: 0x0, symName: __ZN8facebook5react18BaseTextShadowNode21buildAttributedStringERKNS0_14TextAttributesERKNS0_10ShadowNodeERNS0_16AttributedStringERNSt3__16vectorINS1_10AttachmentENSA_9allocatorISC_EEEE, symObjAddr: 0x0, symBinAddr: 0x1CB28, symSize: 0x1078 }
  - { offset: 0x1423E1, size: 0x8, addend: 0x0, symName: __ZN8facebook5react10ShadowViewaSEOS1_, symObjAddr: 0x1078, symBinAddr: 0x1DBA0, symSize: 0x84 }
  - { offset: 0x142559, size: 0x8, addend: 0x0, symName: __ZNSt3__16vectorIN8facebook5react18BaseTextShadowNode10AttachmentENS_9allocatorIS4_EEE9push_backB8ne200100EOS4_, symObjAddr: 0x11BC, symBinAddr: 0x1DC9C, symSize: 0xD4 }
  - { offset: 0x142C86, size: 0x8, addend: 0x0, symName: __ZN8facebook5react16AttributedString8FragmentD1Ev, symObjAddr: 0x10FC, symBinAddr: 0x1DC24, symSize: 0x78 }
  - { offset: 0x143707, size: 0x8, addend: 0x0, symName: __ZNSt3__119__allocate_at_leastB8ne200100INS_9allocatorIN8facebook5react18BaseTextShadowNode10AttachmentEEEEENS_19__allocation_resultINS_16allocator_traitsIT_E7pointerEEERS9_m, symObjAddr: 0x177C, symBinAddr: 0x1DD70, symSize: 0x34 }
  - { offset: 0x145A4C, size: 0x8, addend: 0x0, symName: __ZN8facebook5react27InputAccessoryComponentNameE, symObjAddr: 0x0, symBinAddr: 0x3B1A0, symSize: 0x0 }
  - { offset: 0x14A99F, size: 0x8, addend: 0x0, symName: __ZN8facebook5react17HostPlatformColorL14UndefinedColorE, symObjAddr: 0xEFA20, symBinAddr: 0x4D930, symSize: 0x0 }
  - { offset: 0x14A9BA, size: 0x8, addend: 0x0, symName: __ZN8facebook5react24AppleSwitchComponentNameE, symObjAddr: 0x458, symBinAddr: 0x3B1B3, symSize: 0x0 }
  - { offset: 0x14C473, size: 0x8, addend: 0x0, symName: __ZN8facebook5react24AppleSwitchComponentNameE, symObjAddr: 0x458, symBinAddr: 0x3B1B3, symSize: 0x0 }
  - { offset: 0x14CDDB, size: 0x8, addend: 0x0, symName: __ZN8facebook5react24AppleSwitchComponentNameE, symObjAddr: 0x458, symBinAddr: 0x3B1B3, symSize: 0x0 }
  - { offset: 0x168A63, size: 0x8, addend: 0x0, symName: __ZNK8facebook5react16SwitchShadowNode14measureContentERKNS0_13LayoutContextERKNS0_17LayoutConstraintsE, symObjAddr: 0x0, symBinAddr: 0x1DDA4, symSize: 0x1C }
  - { offset: 0x168E98, size: 0x8, addend: 0x0, symName: __ZN8facebook5react16SwitchShadowNodeD1Ev, symObjAddr: 0x1C, symBinAddr: 0x1DDC0, symSize: 0x70 }
  - { offset: 0x16925D, size: 0x8, addend: 0x0, symName: __ZNSt3__16vectorINS_10shared_ptrIKN8facebook5react24YogaLayoutableShadowNodeEEENS_9allocatorIS6_EEE16__destroy_vectorclB8ne200100Ev, symObjAddr: 0x170, symBinAddr: 0x1DF14, symSize: 0x70 }
  - { offset: 0x16952D, size: 0x8, addend: 0x0, symName: __ZN8facebook5react10ShadowNodeD2Ev, symObjAddr: 0x27C, symBinAddr: 0x1DF84, symSize: 0x5C }
  - { offset: 0x169654, size: 0x8, addend: 0x0, symName: __ZN8facebook5react16SwitchShadowNodeD0Ev, symObjAddr: 0x8C, symBinAddr: 0x1DE30, symSize: 0x74 }
  - { offset: 0x169A78, size: 0x8, addend: 0x0, symName: __ZNK8facebook5react22ConcreteViewShadowNodeIXadL_ZNS0_24AppleSwitchComponentNameEEENS0_11SwitchPropsENS0_18SwitchEventEmitterENS0_9StateDataEE12getTransformEv, symObjAddr: 0x100, symBinAddr: 0x1DEA4, symSize: 0x40 }
  - { offset: 0x169AE7, size: 0x8, addend: 0x0, symName: __ZNK8facebook5react22ConcreteViewShadowNodeIXadL_ZNS0_24AppleSwitchComponentNameEEENS0_11SwitchPropsENS0_18SwitchEventEmitterENS0_9StateDataEE16canBeTouchTargetEv, symObjAddr: 0x140, symBinAddr: 0x1DEE4, symSize: 0x18 }
  - { offset: 0x169B1F, size: 0x8, addend: 0x0, symName: __ZNK8facebook5react22ConcreteViewShadowNodeIXadL_ZNS0_24AppleSwitchComponentNameEEENS0_11SwitchPropsENS0_18SwitchEventEmitterENS0_9StateDataEE16canBeTouchTargetEv, symObjAddr: 0x140, symBinAddr: 0x1DEE4, symSize: 0x18 }
  - { offset: 0x169B3A, size: 0x8, addend: 0x0, symName: __ZNK8facebook5react22ConcreteViewShadowNodeIXadL_ZNS0_24AppleSwitchComponentNameEEENS0_11SwitchPropsENS0_18SwitchEventEmitterENS0_9StateDataEE16canBeTouchTargetEv, symObjAddr: 0x140, symBinAddr: 0x1DEE4, symSize: 0x18 }
  - { offset: 0x169B57, size: 0x8, addend: 0x0, symName: __ZNK8facebook5react22ConcreteViewShadowNodeIXadL_ZNS0_24AppleSwitchComponentNameEEENS0_11SwitchPropsENS0_18SwitchEventEmitterENS0_9StateDataEE24canChildrenBeTouchTargetEv, symObjAddr: 0x158, symBinAddr: 0x1DEFC, symSize: 0x18 }
  - { offset: 0x169B8B, size: 0x8, addend: 0x0, symName: __ZNK8facebook5react22ConcreteViewShadowNodeIXadL_ZNS0_24AppleSwitchComponentNameEEENS0_11SwitchPropsENS0_18SwitchEventEmitterENS0_9StateDataEE24canChildrenBeTouchTargetEv, symObjAddr: 0x158, symBinAddr: 0x1DEFC, symSize: 0x18 }
  - { offset: 0x169BA6, size: 0x8, addend: 0x0, symName: __ZNK8facebook5react22ConcreteViewShadowNodeIXadL_ZNS0_24AppleSwitchComponentNameEEENS0_11SwitchPropsENS0_18SwitchEventEmitterENS0_9StateDataEE24canChildrenBeTouchTargetEv, symObjAddr: 0x158, symBinAddr: 0x1DEFC, symSize: 0x18 }
  - { offset: 0x16A232, size: 0x8, addend: 0x0, symName: __GLOBAL__sub_I_IOSSwitchShadowNode.mm, symObjAddr: 0x438, symBinAddr: 0x1DFE0, symSize: 0x20 }
  - { offset: 0x16C303, size: 0x8, addend: 0x0, symName: __ZN8facebook5react26ModalHostViewComponentNameE, symObjAddr: 0x0, symBinAddr: 0x3B313, symSize: 0x0 }
  - { offset: 0x171222, size: 0x8, addend: 0x0, symName: __ZN8facebook5react23ModalHostViewScreenSizeEv, symObjAddr: 0x0, symBinAddr: 0x1E000, symSize: 0x4 }
  - { offset: 0x17123A, size: 0x8, addend: 0x0, symName: __ZN8facebook5react23ModalHostViewScreenSizeEv, symObjAddr: 0x0, symBinAddr: 0x1E000, symSize: 0x4 }
  - { offset: 0x171266, size: 0x8, addend: 0x0, symName: __ZN8facebook5react23ModalHostViewScreenSizeEv, symObjAddr: 0x0, symBinAddr: 0x1E000, symSize: 0x4 }
  - { offset: 0x173EEC, size: 0x8, addend: 0x0, symName: __ZN8facebook5react20TextLayoutManagerKeyE, symObjAddr: 0x0, symBinAddr: 0x3B321, symSize: 0x0 }
  - { offset: 0x183CF2, size: 0x8, addend: 0x0, symName: __ZNSt3__135__uninitialized_allocator_copy_implB8ne200100INS_9allocatorIN8facebook5react15LineMeasurementEEEPS4_S6_S6_EET2_RT_T0_T1_S7_, symObjAddr: 0x4E0, symBinAddr: 0x1E4E4, symSize: 0xE0 }
  - { offset: 0x184035, size: 0x8, addend: 0x0, symName: __ZNSt3__119__allocate_at_leastB8ne200100INS_9allocatorIN8facebook5react15LineMeasurementEEEEENS_19__allocation_resultINS_16allocator_traitsIT_E7pointerEEERS8_m, symObjAddr: 0x7D8, symBinAddr: 0x1E688, symSize: 0x48 }
  - { offset: 0x187DC1, size: 0x8, addend: 0x0, symName: __ZNK8facebook5react21ParagraphEventEmitter12onTextLayoutERKNSt3__16vectorINS0_15LineMeasurementENS2_9allocatorIS4_EEEE, symObjAddr: 0x0, symBinAddr: 0x1E004, symSize: 0x274 }
  - { offset: 0x18915B, size: 0x8, addend: 0x0, symName: __ZNSt3__16vectorIN8facebook5react15LineMeasurementENS_9allocatorIS3_EEE18__assign_with_sizeB8ne200100IPS3_S8_EEvT_T0_l, symObjAddr: 0x274, symBinAddr: 0x1E278, symSize: 0x1E8 }
  - { offset: 0x189A0F, size: 0x8, addend: 0x0, symName: __ZNSt3__16vectorIN8facebook5react15LineMeasurementENS_9allocatorIS3_EEE16__init_with_sizeB8ne200100IPS3_S8_EEvT_T0_m, symObjAddr: 0x8C4, symBinAddr: 0x1E6D0, symSize: 0x84 }
  - { offset: 0x189A21, size: 0x8, addend: 0x0, symName: __ZNSt3__16vectorIN8facebook5react15LineMeasurementENS_9allocatorIS3_EEE16__init_with_sizeB8ne200100IPS3_S8_EEvT_T0_m, symObjAddr: 0x8C4, symBinAddr: 0x1E6D0, symSize: 0x84 }
  - { offset: 0x189C7D, size: 0x8, addend: 0x0, symName: __ZNSt3__16vectorIN8facebook5react15LineMeasurementENS_9allocatorIS3_EEE16__destroy_vectorclB8ne200100Ev, symObjAddr: 0x948, symBinAddr: 0x1E754, symSize: 0x40 }
  - { offset: 0x189FFA, size: 0x8, addend: 0x0, symName: __ZNSt3__16vectorIN8facebook5react15LineMeasurementENS_9allocatorIS3_EEE13__vdeallocateEv, symObjAddr: 0x45C, symBinAddr: 0x1E460, symSize: 0x38 }
  - { offset: 0x18A0B4, size: 0x8, addend: 0x0, symName: __ZNSt3__16vectorIN8facebook5react15LineMeasurementENS_9allocatorIS3_EEE11__vallocateB8ne200100Em, symObjAddr: 0x494, symBinAddr: 0x1E498, symSize: 0x4C }
  - { offset: 0x18A10C, size: 0x8, addend: 0x0, symName: __ZNSt3__135__uninitialized_allocator_copy_implB8ne200100INS_9allocatorIN8facebook5react15LineMeasurementEEEPS4_S6_S6_EET2_RT_T0_T1_S7_, symObjAddr: 0x4E0, symBinAddr: 0x1E4E4, symSize: 0xE0 }
  - { offset: 0x18A120, size: 0x8, addend: 0x0, symName: __ZNSt3__119__allocate_at_leastB8ne200100INS_9allocatorIN8facebook5react15LineMeasurementEEEEENS_19__allocation_resultINS_16allocator_traitsIT_E7pointerEEERS8_m, symObjAddr: 0x7D8, symBinAddr: 0x1E688, symSize: 0x48 }
  - { offset: 0x18A192, size: 0x8, addend: 0x0, symName: __ZNSt3__16vectorIN8facebook5react15LineMeasurementENS_9allocatorIS3_EEE5clearB8ne200100Ev, symObjAddr: 0x778, symBinAddr: 0x1E63C, symSize: 0x4C }
  - { offset: 0x18A5FD, size: 0x8, addend: 0x0, symName: __ZNSt3__128__exception_guard_exceptionsINS_29_AllocatorDestroyRangeReverseINS_9allocatorIN8facebook5react15LineMeasurementEEEPS5_EEED2B8ne200100Ev, symObjAddr: 0x700, symBinAddr: 0x1E5C4, symSize: 0x34 }
  - { offset: 0x18A79D, size: 0x8, addend: 0x0, symName: __ZNKSt3__129_AllocatorDestroyRangeReverseINS_9allocatorIN8facebook5react15LineMeasurementEEEPS4_EclB8ne200100Ev, symObjAddr: 0x734, symBinAddr: 0x1E5F8, symSize: 0x44 }
  - { offset: 0x18AB44, size: 0x8, addend: 0x0, symName: '__ZNSt3__110__function6__funcIZNK8facebook5react21ParagraphEventEmitter12onTextLayoutERKNS_6vectorINS3_15LineMeasurementENS_9allocatorIS6_EEEEE3$_0NS7_ISC_EEFNS2_3jsi5ValueERNSE_7RuntimeEEED1Ev', symObjAddr: 0x988, symBinAddr: 0x1E794, symSize: 0x44 }
  - { offset: 0x18ACA9, size: 0x8, addend: 0x0, symName: '__ZNSt3__110__function6__funcIZNK8facebook5react21ParagraphEventEmitter12onTextLayoutERKNS_6vectorINS3_15LineMeasurementENS_9allocatorIS6_EEEEE3$_0NS7_ISC_EEFNS2_3jsi5ValueERNSE_7RuntimeEEED0Ev', symObjAddr: 0x9CC, symBinAddr: 0x1E7D8, symSize: 0x48 }
  - { offset: 0x18AFC2, size: 0x8, addend: 0x0, symName: '__ZNKSt3__110__function6__funcIZNK8facebook5react21ParagraphEventEmitter12onTextLayoutERKNS_6vectorINS3_15LineMeasurementENS_9allocatorIS6_EEEEE3$_0NS7_ISC_EEFNS2_3jsi5ValueERNSE_7RuntimeEEE7__cloneEv', symObjAddr: 0xA14, symBinAddr: 0x1E820, symSize: 0x78 }
  - { offset: 0x18B376, size: 0x8, addend: 0x0, symName: '__ZNKSt3__110__function6__funcIZNK8facebook5react21ParagraphEventEmitter12onTextLayoutERKNS_6vectorINS3_15LineMeasurementENS_9allocatorIS6_EEEEE3$_0NS7_ISC_EEFNS2_3jsi5ValueERNSE_7RuntimeEEE7__cloneEPNS0_6__baseISI_EE', symObjAddr: 0xA8C, symBinAddr: 0x1E898, symSize: 0x40 }
  - { offset: 0x18B546, size: 0x8, addend: 0x0, symName: '__ZNSt3__110__function6__funcIZNK8facebook5react21ParagraphEventEmitter12onTextLayoutERKNS_6vectorINS3_15LineMeasurementENS_9allocatorIS6_EEEEE3$_0NS7_ISC_EEFNS2_3jsi5ValueERNSE_7RuntimeEEE7destroyEv', symObjAddr: 0xACC, symBinAddr: 0x1E8D8, symSize: 0x28 }
  - { offset: 0x18B65A, size: 0x8, addend: 0x0, symName: '__ZNSt3__110__function6__funcIZNK8facebook5react21ParagraphEventEmitter12onTextLayoutERKNS_6vectorINS3_15LineMeasurementENS_9allocatorIS6_EEEEE3$_0NS7_ISC_EEFNS2_3jsi5ValueERNSE_7RuntimeEEE18destroy_deallocateEv', symObjAddr: 0xAF4, symBinAddr: 0x1E900, symSize: 0x3C }
  - { offset: 0x18BABE, size: 0x8, addend: 0x0, symName: '__ZNSt3__110__function6__funcIZNK8facebook5react21ParagraphEventEmitter12onTextLayoutERKNS_6vectorINS3_15LineMeasurementENS_9allocatorIS6_EEEEE3$_0NS7_ISC_EEFNS2_3jsi5ValueERNSE_7RuntimeEEEclESH_', symObjAddr: 0xB30, symBinAddr: 0x1E93C, symSize: 0x2CC }
  - { offset: 0x18C309, size: 0x8, addend: 0x0, symName: __ZNK8facebook3jsi6Object11setPropertyIRKNSt3__112basic_stringIcNS3_11char_traitsIcEENS3_9allocatorIcEEEEEEvRNS0_7RuntimeEPKcOT_, symObjAddr: 0xE44, symBinAddr: 0x1EC50, symSize: 0xA4 }
  - { offset: 0x18C4E3, size: 0x8, addend: 0x0, symName: __ZNK8facebook3jsi6Object11setPropertyIRKdEEvRNS0_7RuntimeEPKcOT_, symObjAddr: 0xEE8, symBinAddr: 0x1ECF4, symSize: 0xA4 }
  - { offset: 0x18C6B7, size: 0x8, addend: 0x0, symName: __ZNK8facebook3jsi5Array15setValueAtIndexIRNS0_6ObjectEEEvRNS0_7RuntimeEmOT_, symObjAddr: 0xF8C, symBinAddr: 0x1ED98, symSize: 0x90 }
  - { offset: 0x18C871, size: 0x8, addend: 0x0, symName: __ZNK8facebook3jsi6Object11setPropertyIRNS0_5ArrayEEEvRNS0_7RuntimeEPKcOT_, symObjAddr: 0x101C, symBinAddr: 0x1EE28, symSize: 0xA4 }
  - { offset: 0x18CA45, size: 0x8, addend: 0x0, symName: '__ZNKSt3__110__function6__funcIZNK8facebook5react21ParagraphEventEmitter12onTextLayoutERKNS_6vectorINS3_15LineMeasurementENS_9allocatorIS6_EEEEE3$_0NS7_ISC_EEFNS2_3jsi5ValueERNSE_7RuntimeEEE6targetERKSt9type_info', symObjAddr: 0xDFC, symBinAddr: 0x1EC08, symSize: 0x3C }
  - { offset: 0x18CA92, size: 0x8, addend: 0x0, symName: __ZNKSt9type_infoeqB8ne200100ERKS_, symObjAddr: 0x125C, symBinAddr: 0x1F068, symSize: 0x4C }
  - { offset: 0x18CB2F, size: 0x8, addend: 0x0, symName: '__ZNKSt3__110__function6__funcIZNK8facebook5react21ParagraphEventEmitter12onTextLayoutERKNS_6vectorINS3_15LineMeasurementENS_9allocatorIS6_EEEEE3$_0NS7_ISC_EEFNS2_3jsi5ValueERNSE_7RuntimeEEE11target_typeEv', symObjAddr: 0xE38, symBinAddr: 0x1EC44, symSize: 0xC }
  - { offset: 0x18CBE3, size: 0x8, addend: 0x0, symName: __ZNK8facebook3jsi6Object11setPropertyIRKNSt3__112basic_stringIcNS3_11char_traitsIcEENS3_9allocatorIcEEEEEEvRNS0_7RuntimeERKNS0_6StringEOT_, symObjAddr: 0x10C0, symBinAddr: 0x1EECC, symSize: 0xA4 }
  - { offset: 0x18CDA8, size: 0x8, addend: 0x0, symName: __ZNK8facebook3jsi6Object11setPropertyIRKdEEvRNS0_7RuntimeERKNS0_6StringEOT_, symObjAddr: 0x1164, symBinAddr: 0x1EF70, symSize: 0x68 }
  - { offset: 0x18CFD5, size: 0x8, addend: 0x0, symName: __ZNK8facebook3jsi6Object11setPropertyIRNS0_5ArrayEEEvRNS0_7RuntimeERKNS0_6StringEOT_, symObjAddr: 0x11CC, symBinAddr: 0x1EFD8, symSize: 0x90 }
  - { offset: 0x1B0AE2, size: 0x8, addend: 0x0, symName: __ZN8facebook5react14ParagraphProps7setPropERKNS0_18PropsParserContextEjPKcRKNS0_8RawValueE, symObjAddr: 0x98C, symBinAddr: 0x1F5B4, symSize: 0xC9C }
  - { offset: 0x1B0B08, size: 0x8, addend: 0x0, symName: __ZZN8facebook5react14ParagraphProps7setPropERKNS0_18PropsParserContextEjPKcRKNS0_8RawValueEE8defaults, symObjAddr: 0x12C2C0, symBinAddr: 0x4D948, symSize: 0x0 }
  - { offset: 0x1B34DF, size: 0x8, addend: 0x0, symName: __ZN8facebook5react14ParagraphPropsC2ERKNS0_18PropsParserContextERKS1_RKNS0_8RawPropsE, symObjAddr: 0x0, symBinAddr: 0x1F0B4, symSize: 0x274 }
  - { offset: 0x1B5FBD, size: 0x8, addend: 0x0, symName: __ZN8facebook5react14ParagraphPropsC1ERKNS0_18PropsParserContextERKS1_RKNS0_8RawPropsE, symObjAddr: 0x700, symBinAddr: 0x1F328, symSize: 0x28C }
  - { offset: 0x1B69AE, size: 0x8, addend: 0x0, symName: __ZN8facebook5react14ParagraphPropsC1Ev, symObjAddr: 0x1628, symBinAddr: 0x20250, symSize: 0x9C }
  - { offset: 0x1B88D8, size: 0x8, addend: 0x0, symName: __ZN8facebook5react14ParagraphPropsD1Ev, symObjAddr: 0x16C4, symBinAddr: 0x202EC, symSize: 0x5C }
  - { offset: 0x1B8EA1, size: 0x8, addend: 0x0, symName: __ZN8facebook5react14ParagraphPropsD0Ev, symObjAddr: 0x2060, symBinAddr: 0x20348, symSize: 0x60 }
  - { offset: 0x1C2259, size: 0x8, addend: 0x0, symName: __ZN8facebook5react19ParagraphShadowNode10initializeEv, symObjAddr: 0x0, symBinAddr: 0x203A8, symSize: 0x4 }
  - { offset: 0x1C2407, size: 0x8, addend: 0x0, symName: __ZN8facebook5react22ParagraphComponentNameE, symObjAddr: 0x3DA0, symBinAddr: 0x3B4E0, symSize: 0x0 }
  - { offset: 0x1C488F, size: 0x8, addend: 0x0, symName: __ZN8facebook5react22ParagraphComponentNameE, symObjAddr: 0x3DA0, symBinAddr: 0x3B4E0, symSize: 0x0 }
  - { offset: 0x1C4B9D, size: 0x8, addend: 0x0, symName: __ZN8facebook5react22ParagraphComponentNameE, symObjAddr: 0x3DA0, symBinAddr: 0x3B4E0, symSize: 0x0 }
  - { offset: 0x1E5D8D, size: 0x8, addend: 0x0, symName: __ZNSt3__127__throw_bad_optional_accessB8ne200100Ev, symObjAddr: 0x1E98, symBinAddr: 0x220B8, symSize: 0x34 }
  - { offset: 0x1E5E26, size: 0x8, addend: 0x0, symName: __ZNSt3__112construct_atB8ne200100IN8facebook5react19ParagraphShadowNode7ContentEJS4_EPS4_EEPT_S7_DpOT0_, symObjAddr: 0x2D4C, symBinAddr: 0x22B28, symSize: 0x138 }
  - { offset: 0x1E5E63, size: 0x8, addend: 0x0, symName: __ZNSt3__112construct_atB8ne200100IN8facebook5react19ParagraphShadowNode7ContentEJS4_EPS4_EEPT_S7_DpOT0_, symObjAddr: 0x2D4C, symBinAddr: 0x22B28, symSize: 0x138 }
  - { offset: 0x1E5E85, size: 0x8, addend: 0x0, symName: __ZNSt3__112construct_atB8ne200100IN8facebook5react19ParagraphShadowNode7ContentEJS4_EPS4_EEPT_S7_DpOT0_, symObjAddr: 0x2D4C, symBinAddr: 0x22B28, symSize: 0x138 }
  - { offset: 0x1E5EA7, size: 0x8, addend: 0x0, symName: __ZNSt3__112construct_atB8ne200100IN8facebook5react19ParagraphShadowNode7ContentEJS4_EPS4_EEPT_S7_DpOT0_, symObjAddr: 0x2D4C, symBinAddr: 0x22B28, symSize: 0x138 }
  - { offset: 0x1E5EC9, size: 0x8, addend: 0x0, symName: __ZNSt3__112construct_atB8ne200100IN8facebook5react19ParagraphShadowNode7ContentEJS4_EPS4_EEPT_S7_DpOT0_, symObjAddr: 0x2D4C, symBinAddr: 0x22B28, symSize: 0x138 }
  - { offset: 0x1E5EEB, size: 0x8, addend: 0x0, symName: __ZNSt3__112construct_atB8ne200100IN8facebook5react19ParagraphShadowNode7ContentEJS4_EPS4_EEPT_S7_DpOT0_, symObjAddr: 0x2D4C, symBinAddr: 0x22B28, symSize: 0x138 }
  - { offset: 0x1E5F0D, size: 0x8, addend: 0x0, symName: __ZNSt3__112construct_atB8ne200100IN8facebook5react19ParagraphShadowNode7ContentEJS4_EPS4_EEPT_S7_DpOT0_, symObjAddr: 0x2D4C, symBinAddr: 0x22B28, symSize: 0x138 }
  - { offset: 0x1E6AE6, size: 0x8, addend: 0x0, symName: __ZNSt3__112construct_atB8ne200100IN8facebook5react14ParagraphStateEJS3_EPS3_EEPT_S6_DpOT0_, symObjAddr: 0x37B8, symBinAddr: 0x23184, symSize: 0x128 }
  - { offset: 0x1E6B23, size: 0x8, addend: 0x0, symName: __ZNSt3__112construct_atB8ne200100IN8facebook5react14ParagraphStateEJS3_EPS3_EEPT_S6_DpOT0_, symObjAddr: 0x37B8, symBinAddr: 0x23184, symSize: 0x128 }
  - { offset: 0x1E6B45, size: 0x8, addend: 0x0, symName: __ZNSt3__112construct_atB8ne200100IN8facebook5react14ParagraphStateEJS3_EPS3_EEPT_S6_DpOT0_, symObjAddr: 0x37B8, symBinAddr: 0x23184, symSize: 0x128 }
  - { offset: 0x1E6B67, size: 0x8, addend: 0x0, symName: __ZNSt3__112construct_atB8ne200100IN8facebook5react14ParagraphStateEJS3_EPS3_EEPT_S6_DpOT0_, symObjAddr: 0x37B8, symBinAddr: 0x23184, symSize: 0x128 }
  - { offset: 0x1E6B89, size: 0x8, addend: 0x0, symName: __ZNSt3__112construct_atB8ne200100IN8facebook5react14ParagraphStateEJS3_EPS3_EEPT_S6_DpOT0_, symObjAddr: 0x37B8, symBinAddr: 0x23184, symSize: 0x128 }
  - { offset: 0x1E6BAB, size: 0x8, addend: 0x0, symName: __ZNSt3__112construct_atB8ne200100IN8facebook5react14ParagraphStateEJS3_EPS3_EEPT_S6_DpOT0_, symObjAddr: 0x37B8, symBinAddr: 0x23184, symSize: 0x128 }
  - { offset: 0x1E6BCD, size: 0x8, addend: 0x0, symName: __ZNSt3__112construct_atB8ne200100IN8facebook5react14ParagraphStateEJS3_EPS3_EEPT_S6_DpOT0_, symObjAddr: 0x37B8, symBinAddr: 0x23184, symSize: 0x128 }
  - { offset: 0x1E70C8, size: 0x8, addend: 0x0, symName: __ZNSt3__115allocate_sharedB8ne200100IKN8facebook5react13ConcreteStateINS2_14ParagraphStateEEENS_9allocatorIS5_EEJNS_10shared_ptrIKS4_EERKNS2_5StateEELi0EEENS9_IT_EERKT0_DpOT1_, symObjAddr: 0x3498, symBinAddr: 0x22EBC, symSize: 0x60 }
  - { offset: 0x1E77E7, size: 0x8, addend: 0x0, symName: __ZNSt3__112__destroy_atB8ne200100IN8facebook5react16AttributedString8FragmentELi0EEEvPT_, symObjAddr: 0x2284, symBinAddr: 0x22278, symSize: 0x7C }
  - { offset: 0x1E7E2F, size: 0x8, addend: 0x0, symName: __ZNSt3__135__uninitialized_allocator_copy_implB8ne200100INS_9allocatorIN8facebook5react16AttributedString8FragmentEEEPS5_S7_S7_EET2_RT_T0_T1_S8_, symObjAddr: 0x270C, symBinAddr: 0x225E4, symSize: 0x84 }
  - { offset: 0x1E801D, size: 0x8, addend: 0x0, symName: __ZNSt3__119__allocate_at_leastB8ne200100INS_9allocatorIN8facebook5react16AttributedString8FragmentEEEEENS_19__allocation_resultINS_16allocator_traitsIT_E7pointerEEERS9_m, symObjAddr: 0x26C4, symBinAddr: 0x2259C, symSize: 0x48 }
  - { offset: 0x1E80C2, size: 0x8, addend: 0x0, symName: __ZNSt3__135__uninitialized_allocator_copy_implB8ne200100INS_9allocatorIN8facebook5react16AttributedString8FragmentEEEPS5_S7_S7_EET2_RT_T0_T1_S8_, symObjAddr: 0x270C, symBinAddr: 0x225E4, symSize: 0x84 }
  - { offset: 0x1E8640, size: 0x8, addend: 0x0, symName: __ZN8facebook5react16AttributedStringaSEOS1_, symObjAddr: 0x2B04, symBinAddr: 0x22994, symSize: 0x130 }
  - { offset: 0x1E8E64, size: 0x8, addend: 0x0, symName: __ZNSt3__112construct_atB8ne200100IN8facebook5react13ConcreteStateINS2_14ParagraphStateEEEJNS_10shared_ptrIKS4_EERKNS2_5StateEEPS5_EEPT_SE_DpOT0_, symObjAddr: 0x358C, symBinAddr: 0x22FB0, symSize: 0x88 }
  - { offset: 0x1E905D, size: 0x8, addend: 0x0, symName: __ZNSt3__112__destroy_atB8ne200100IN8facebook5react14ParagraphStateELi0EEEvPT_, symObjAddr: 0x38E0, symBinAddr: 0x232AC, symSize: 0x6C }
  - { offset: 0x1EF451, size: 0x8, addend: 0x0, symName: __ZN8facebook5react19ParagraphShadowNode6layoutENS0_13LayoutContextE, symObjAddr: 0x1514, symBinAddr: 0x21810, symSize: 0x714 }
  - { offset: 0x1F0E6D, size: 0x8, addend: 0x0, symName: __ZN8facebook5react19ParagraphShadowNode10initializeEv, symObjAddr: 0x0, symBinAddr: 0x203A8, symSize: 0x4 }
  - { offset: 0x1F103D, size: 0x8, addend: 0x0, symName: __ZN8facebook5react19ParagraphShadowNodeC2ERKNS0_18ShadowNodeFragmentERKNSt3__110shared_ptrIKNS0_16ShadowNodeFamilyEEENS0_16ShadowNodeTraitsE, symObjAddr: 0x4, symBinAddr: 0x203AC, symSize: 0x60 }
  - { offset: 0x1F11EC, size: 0x8, addend: 0x0, symName: __ZN8facebook5react22ConcreteViewShadowNodeIXadL_ZNS0_22ParagraphComponentNameEEENS0_14ParagraphPropsENS0_21ParagraphEventEmitterENS0_14ParagraphStateEE10initializeEv, symObjAddr: 0x32E4, symBinAddr: 0x22D6C, symSize: 0x6C }
  - { offset: 0x1F1231, size: 0x8, addend: 0x0, symName: __ZN8facebook5react22ConcreteViewShadowNodeIXadL_ZNS0_22ParagraphComponentNameEEENS0_14ParagraphPropsENS0_21ParagraphEventEmitterENS0_14ParagraphStateEE10initializeEv, symObjAddr: 0x32E4, symBinAddr: 0x22D6C, symSize: 0x6C }
  - { offset: 0x1F124C, size: 0x8, addend: 0x0, symName: __ZN8facebook5react22ConcreteViewShadowNodeIXadL_ZNS0_22ParagraphComponentNameEEENS0_14ParagraphPropsENS0_21ParagraphEventEmitterENS0_14ParagraphStateEE10initializeEv, symObjAddr: 0x32E4, symBinAddr: 0x22D6C, symSize: 0x6C }
  - { offset: 0x1F1303, size: 0x8, addend: 0x0, symName: __ZN8facebook5react19ParagraphShadowNodeC1ERKNS0_18ShadowNodeFragmentERKNSt3__110shared_ptrIKNS0_16ShadowNodeFamilyEEENS0_16ShadowNodeTraitsE, symObjAddr: 0x64, symBinAddr: 0x2040C, symSize: 0x60 }
  - { offset: 0x1F155C, size: 0x8, addend: 0x0, symName: __ZN8facebook5react19ParagraphShadowNodeC2ERKNS0_10ShadowNodeERKNS0_18ShadowNodeFragmentE, symObjAddr: 0xC4, symBinAddr: 0x2046C, symSize: 0x5C }
  - { offset: 0x1F1724, size: 0x8, addend: 0x0, symName: __ZN8facebook5react19ParagraphShadowNodeC1ERKNS0_10ShadowNodeERKNS0_18ShadowNodeFragmentE, symObjAddr: 0x120, symBinAddr: 0x204C8, symSize: 0x5C }
  - { offset: 0x1F1931, size: 0x8, addend: 0x0, symName: __ZNK8facebook5react19ParagraphShadowNode33shouldNewRevisionDirtyMeasurementERKNS0_10ShadowNodeERKNS0_18ShadowNodeFragmentE, symObjAddr: 0x17C, symBinAddr: 0x20524, symSize: 0x14 }
  - { offset: 0x1F20C7, size: 0x8, addend: 0x0, symName: __ZNK8facebook5react19ParagraphShadowNode10getContentERKNS0_13LayoutContextE, symObjAddr: 0x190, symBinAddr: 0x20538, symSize: 0x774 }
  - { offset: 0x1F47CB, size: 0x8, addend: 0x0, symName: __ZN8facebook5react16AttributedStringC2Ev, symObjAddr: 0x2054, symBinAddr: 0x220EC, symSize: 0x11C }
  - { offset: 0x1F5BF6, size: 0x8, addend: 0x0, symName: __ZN8facebook5react16AttributedStringC2ERKS1_, symObjAddr: 0x2408, symBinAddr: 0x222F4, symSize: 0x1D8 }
  - { offset: 0x1F63EE, size: 0x8, addend: 0x0, symName: __ZNSt3__16vectorIN8facebook5react18BaseTextShadowNode10AttachmentENS_9allocatorIS4_EEE16__init_with_sizeB8ne200100IPS4_S9_EEvT_T0_m, symObjAddr: 0x2A0C, symBinAddr: 0x228E4, symSize: 0x78 }
  - { offset: 0x1F67A9, size: 0x8, addend: 0x0, symName: __ZNSt3__18optionalIN8facebook5react19ParagraphShadowNode7ContentEEaSB8ne200100IS4_vEERS5_OT_, symObjAddr: 0x9B0, symBinAddr: 0x20D10, symSize: 0x70 }
  - { offset: 0x1F68BF, size: 0x8, addend: 0x0, symName: __ZNSt3__16vectorIN8facebook5react16AttributedString8FragmentENS_9allocatorIS4_EEE16__destroy_vectorclB8ne200100Ev, symObjAddr: 0x2214, symBinAddr: 0x22208, symSize: 0x70 }
  - { offset: 0x1F6A4D, size: 0x8, addend: 0x0, symName: __ZN8facebook5react19ParagraphShadowNode7ContentD1Ev, symObjAddr: 0xA20, symBinAddr: 0x20D80, symSize: 0x74 }
  - { offset: 0x1F6FAA, size: 0x8, addend: 0x0, symName: __ZN8facebook5react16AttributedStringD1Ev, symObjAddr: 0x94C, symBinAddr: 0x20CAC, symSize: 0x64 }
  - { offset: 0x1F75F9, size: 0x8, addend: 0x0, symName: __ZN8facebook5react16AttributedStringaSEOS1_, symObjAddr: 0x2B04, symBinAddr: 0x22994, symSize: 0x130 }
  - { offset: 0x1F7A49, size: 0x8, addend: 0x0, symName: __ZNK8facebook5react19ParagraphShadowNode33getContentWithMeasuredAttachmentsERKNS0_13LayoutContextERKNS0_17LayoutConstraintsE, symObjAddr: 0xA94, symBinAddr: 0x20DF4, symSize: 0x1B4 }
  - { offset: 0x1F7D41, size: 0x8, addend: 0x0, symName: __ZN8facebook5react19ParagraphShadowNode20setTextLayoutManagerENSt3__110shared_ptrIKNS0_17TextLayoutManagerEEE, symObjAddr: 0xC48, symBinAddr: 0x20FA8, symSize: 0x8 }
  - { offset: 0x1F8085, size: 0x8, addend: 0x0, symName: __ZN8facebook5react19ParagraphShadowNode19updateStateIfNeededERKNS1_7ContentE, symObjAddr: 0xCB4, symBinAddr: 0x20FB0, symSize: 0x1B4 }
  - { offset: 0x1F8910, size: 0x8, addend: 0x0, symName: __ZN8facebook5react18ConcreteShadowNodeIXadL_ZNS0_22ParagraphComponentNameEEENS0_24YogaLayoutableShadowNodeENS0_14ParagraphPropsENS0_21ParagraphEventEmitterENS0_14ParagraphStateEE12setStateDataEOS5_, symObjAddr: 0xE68, symBinAddr: 0x21164, symSize: 0x108 }
  - { offset: 0x1F8D3B, size: 0x8, addend: 0x0, symName: __ZN8facebook5react14ParagraphStateD1Ev, symObjAddr: 0xF70, symBinAddr: 0x2126C, symSize: 0x70 }
  - { offset: 0x1F9622, size: 0x8, addend: 0x0, symName: __ZN8facebook5react19ParagraphShadowNode16findUsableLayoutEv, symObjAddr: 0xFE0, symBinAddr: 0x212DC, symSize: 0x8 }
  - { offset: 0x1F9658, size: 0x8, addend: 0x0, symName: __ZN8facebook5react19ParagraphShadowNode14rawContentSizeEv, symObjAddr: 0xFE8, symBinAddr: 0x212E4, symSize: 0x60 }
  - { offset: 0x1F98AF, size: 0x8, addend: 0x0, symName: __ZNK8facebook5react19ParagraphShadowNode14measureContentERKNS0_13LayoutContextERKNS0_17LayoutConstraintsE, symObjAddr: 0x1048, symBinAddr: 0x21344, symSize: 0x260 }
  - { offset: 0x1FA670, size: 0x8, addend: 0x0, symName: __ZNK8facebook5react19ParagraphShadowNode8baselineERKNS0_13LayoutContextENS0_4SizeE, symObjAddr: 0x12A8, symBinAddr: 0x215A4, symSize: 0x26C }
  - { offset: 0x1FBF34, size: 0x8, addend: 0x0, symName: __ZN8facebook5react19ParagraphShadowNodeD1Ev, symObjAddr: 0x1D04, symBinAddr: 0x21F24, symSize: 0x90 }
  - { offset: 0x1FC467, size: 0x8, addend: 0x0, symName: __ZNSt3__16vectorIN8facebook5react22MeasuredPreparedLayoutENS_9allocatorIS3_EEE16__destroy_vectorclB8ne200100Ev, symObjAddr: 0x2F68, symBinAddr: 0x22C60, symSize: 0x40 }
  - { offset: 0x1FC512, size: 0x8, addend: 0x0, symName: __ZNSt3__124__optional_destruct_baseIN8facebook5react19ParagraphShadowNode7ContentELb0EED2B8ne200100Ev, symObjAddr: 0x2FF4, symBinAddr: 0x22CEC, symSize: 0x80 }
  - { offset: 0x1FCDF7, size: 0x8, addend: 0x0, symName: __ZN8facebook5react19ParagraphShadowNodeD0Ev, symObjAddr: 0x1D94, symBinAddr: 0x21FB4, symSize: 0x94 }
  - { offset: 0x1FD351, size: 0x8, addend: 0x0, symName: __ZNK8facebook5react22ConcreteViewShadowNodeIXadL_ZNS0_22ParagraphComponentNameEEENS0_14ParagraphPropsENS0_21ParagraphEventEmitterENS0_14ParagraphStateEE12getTransformEv, symObjAddr: 0x1E28, symBinAddr: 0x22048, symSize: 0x40 }
  - { offset: 0x1FD3C0, size: 0x8, addend: 0x0, symName: __ZNK8facebook5react22ConcreteViewShadowNodeIXadL_ZNS0_22ParagraphComponentNameEEENS0_14ParagraphPropsENS0_21ParagraphEventEmitterENS0_14ParagraphStateEE16canBeTouchTargetEv, symObjAddr: 0x1E68, symBinAddr: 0x22088, symSize: 0x18 }
  - { offset: 0x1FD3F8, size: 0x8, addend: 0x0, symName: __ZNK8facebook5react22ConcreteViewShadowNodeIXadL_ZNS0_22ParagraphComponentNameEEENS0_14ParagraphPropsENS0_21ParagraphEventEmitterENS0_14ParagraphStateEE16canBeTouchTargetEv, symObjAddr: 0x1E68, symBinAddr: 0x22088, symSize: 0x18 }
  - { offset: 0x1FD413, size: 0x8, addend: 0x0, symName: __ZNK8facebook5react22ConcreteViewShadowNodeIXadL_ZNS0_22ParagraphComponentNameEEENS0_14ParagraphPropsENS0_21ParagraphEventEmitterENS0_14ParagraphStateEE16canBeTouchTargetEv, symObjAddr: 0x1E68, symBinAddr: 0x22088, symSize: 0x18 }
  - { offset: 0x1FD430, size: 0x8, addend: 0x0, symName: __ZNK8facebook5react22ConcreteViewShadowNodeIXadL_ZNS0_22ParagraphComponentNameEEENS0_14ParagraphPropsENS0_21ParagraphEventEmitterENS0_14ParagraphStateEE24canChildrenBeTouchTargetEv, symObjAddr: 0x1E80, symBinAddr: 0x220A0, symSize: 0x18 }
  - { offset: 0x1FD464, size: 0x8, addend: 0x0, symName: __ZNK8facebook5react22ConcreteViewShadowNodeIXadL_ZNS0_22ParagraphComponentNameEEENS0_14ParagraphPropsENS0_21ParagraphEventEmitterENS0_14ParagraphStateEE24canChildrenBeTouchTargetEv, symObjAddr: 0x1E80, symBinAddr: 0x220A0, symSize: 0x18 }
  - { offset: 0x1FD47F, size: 0x8, addend: 0x0, symName: __ZNK8facebook5react22ConcreteViewShadowNodeIXadL_ZNS0_22ParagraphComponentNameEEENS0_14ParagraphPropsENS0_21ParagraphEventEmitterENS0_14ParagraphStateEE24canChildrenBeTouchTargetEv, symObjAddr: 0x1E80, symBinAddr: 0x220A0, symSize: 0x18 }
  - { offset: 0x1FEA80, size: 0x8, addend: 0x0, symName: __ZNSt3__16vectorIN8facebook5react16AttributedString8FragmentENS_9allocatorIS4_EEE16__destroy_vectorclB8ne200100Ev, symObjAddr: 0x2214, symBinAddr: 0x22208, symSize: 0x70 }
  - { offset: 0x1FEE5B, size: 0x8, addend: 0x0, symName: __ZNSt3__16vectorIN8facebook5react16AttributedString8FragmentENS_9allocatorIS4_EEE16__init_with_sizeB8ne200100IPS4_S9_EEvT_T0_m, symObjAddr: 0x25E0, symBinAddr: 0x224CC, symSize: 0x84 }
  - { offset: 0x1FF272, size: 0x8, addend: 0x0, symName: __ZNSt3__16vectorIN8facebook5react16AttributedString8FragmentENS_9allocatorIS4_EEE11__vallocateB8ne200100Em, symObjAddr: 0x2664, symBinAddr: 0x22550, symSize: 0x4C }
  - { offset: 0x1FF2DE, size: 0x8, addend: 0x0, symName: __ZNSt3__119__allocate_at_leastB8ne200100INS_9allocatorIN8facebook5react16AttributedString8FragmentEEEEENS_19__allocation_resultINS_16allocator_traitsIT_E7pointerEEERS9_m, symObjAddr: 0x26C4, symBinAddr: 0x2259C, symSize: 0x48 }
  - { offset: 0x1FF3D1, size: 0x8, addend: 0x0, symName: __ZN8facebook5react16AttributedString8FragmentC2ERKS2_, symObjAddr: 0x2790, symBinAddr: 0x22668, symSize: 0x1D8 }
  - { offset: 0x1FFC8D, size: 0x8, addend: 0x0, symName: __ZN8facebook5react10ShadowViewC2ERKS1_, symObjAddr: 0x2968, symBinAddr: 0x22840, symSize: 0xA4 }
  - { offset: 0x200182, size: 0x8, addend: 0x0, symName: __ZNSt3__16vectorIN8facebook5react18BaseTextShadowNode10AttachmentENS_9allocatorIS4_EEE11__vallocateB8ne200100Em, symObjAddr: 0x2A84, symBinAddr: 0x2295C, symSize: 0x38 }
  - { offset: 0x200349, size: 0x8, addend: 0x0, symName: __ZNSt3__16vectorIN8facebook5react16AttributedString8FragmentENS_9allocatorIS4_EEE13__vdeallocateEv, symObjAddr: 0x2C34, symBinAddr: 0x22AC4, symSize: 0x64 }
  - { offset: 0x200AC2, size: 0x8, addend: 0x0, symName: __ZNSt3__16vectorIN8facebook5react22MeasuredPreparedLayoutENS_9allocatorIS3_EEE5clearB8ne200100Ev, symObjAddr: 0x2FA8, symBinAddr: 0x22CA0, symSize: 0x4C }
  - { offset: 0x2012B5, size: 0x8, addend: 0x0, symName: __ZN8facebook5react22ConcreteViewShadowNodeIXadL_ZNS0_22ParagraphComponentNameEEENS0_14ParagraphPropsENS0_21ParagraphEventEmitterENS0_14ParagraphStateEED1Ev, symObjAddr: 0x3350, symBinAddr: 0x22DD8, symSize: 0x70 }
  - { offset: 0x20167A, size: 0x8, addend: 0x0, symName: __ZN8facebook5react22ConcreteViewShadowNodeIXadL_ZNS0_22ParagraphComponentNameEEENS0_14ParagraphPropsENS0_21ParagraphEventEmitterENS0_14ParagraphStateEED0Ev, symObjAddr: 0x33C0, symBinAddr: 0x22E48, symSize: 0x74 }
  - { offset: 0x201D57, size: 0x8, addend: 0x0, symName: __ZNSt3__120__shared_ptr_emplaceIKN8facebook5react13ConcreteStateINS2_14ParagraphStateEEENS_9allocatorIS5_EEEC2B8ne200100IJNS_10shared_ptrIKS4_EERKNS2_5StateEES8_Li0EEES8_DpOT_, symObjAddr: 0x34F8, symBinAddr: 0x22F1C, symSize: 0x4C }
  - { offset: 0x201F27, size: 0x8, addend: 0x0, symName: __ZNSt3__120__shared_ptr_emplaceIKN8facebook5react13ConcreteStateINS2_14ParagraphStateEEENS_9allocatorIS5_EEED1Ev, symObjAddr: 0x3544, symBinAddr: 0x22F68, symSize: 0x14 }
  - { offset: 0x201F49, size: 0x8, addend: 0x0, symName: __ZNSt3__120__shared_ptr_emplaceIKN8facebook5react13ConcreteStateINS2_14ParagraphStateEEENS_9allocatorIS5_EEED1Ev, symObjAddr: 0x3544, symBinAddr: 0x22F68, symSize: 0x14 }
  - { offset: 0x201F7F, size: 0x8, addend: 0x0, symName: __ZNSt3__120__shared_ptr_emplaceIKN8facebook5react13ConcreteStateINS2_14ParagraphStateEEENS_9allocatorIS5_EEED0Ev, symObjAddr: 0x3558, symBinAddr: 0x22F7C, symSize: 0x24 }
  - { offset: 0x20204E, size: 0x8, addend: 0x0, symName: __ZNSt3__120__shared_ptr_emplaceIKN8facebook5react13ConcreteStateINS2_14ParagraphStateEEENS_9allocatorIS5_EEE16__on_zero_sharedEv, symObjAddr: 0x357C, symBinAddr: 0x22FA0, symSize: 0xC }
  - { offset: 0x202077, size: 0x8, addend: 0x0, symName: __ZNSt3__120__shared_ptr_emplaceIKN8facebook5react13ConcreteStateINS2_14ParagraphStateEEENS_9allocatorIS5_EEE16__on_zero_sharedEv, symObjAddr: 0x357C, symBinAddr: 0x22FA0, symSize: 0xC }
  - { offset: 0x202094, size: 0x8, addend: 0x0, symName: __ZNSt3__120__shared_ptr_emplaceIKN8facebook5react13ConcreteStateINS2_14ParagraphStateEEENS_9allocatorIS5_EEE16__on_zero_sharedEv, symObjAddr: 0x357C, symBinAddr: 0x22FA0, symSize: 0xC }
  - { offset: 0x2020B1, size: 0x8, addend: 0x0, symName: __ZNSt3__120__shared_ptr_emplaceIKN8facebook5react13ConcreteStateINS2_14ParagraphStateEEENS_9allocatorIS5_EEE16__on_zero_sharedEv, symObjAddr: 0x357C, symBinAddr: 0x22FA0, symSize: 0xC }
  - { offset: 0x2020DC, size: 0x8, addend: 0x0, symName: __ZNSt3__120__shared_ptr_emplaceIKN8facebook5react13ConcreteStateINS2_14ParagraphStateEEENS_9allocatorIS5_EEE21__on_zero_shared_weakEv, symObjAddr: 0x3588, symBinAddr: 0x22FAC, symSize: 0x4 }
  - { offset: 0x20210E, size: 0x8, addend: 0x0, symName: __ZNSt3__120__shared_ptr_emplaceIKN8facebook5react13ConcreteStateINS2_14ParagraphStateEEENS_9allocatorIS5_EEE21__on_zero_shared_weakEv, symObjAddr: 0x3588, symBinAddr: 0x22FAC, symSize: 0x4 }
  - { offset: 0x20212F, size: 0x8, addend: 0x0, symName: __ZNSt3__120__shared_ptr_emplaceIKN8facebook5react13ConcreteStateINS2_14ParagraphStateEEENS_9allocatorIS5_EEE21__on_zero_shared_weakEv, symObjAddr: 0x3588, symBinAddr: 0x22FAC, symSize: 0x4 }
  - { offset: 0x202151, size: 0x8, addend: 0x0, symName: __ZNSt3__120__shared_ptr_emplaceIKN8facebook5react13ConcreteStateINS2_14ParagraphStateEEENS_9allocatorIS5_EEE21__on_zero_shared_weakEv, symObjAddr: 0x3588, symBinAddr: 0x22FAC, symSize: 0x4 }
  - { offset: 0x202183, size: 0x8, addend: 0x0, symName: __ZNSt3__120__shared_ptr_emplaceIKN8facebook5react13ConcreteStateINS2_14ParagraphStateEEENS_9allocatorIS5_EEE21__on_zero_shared_weakEv, symObjAddr: 0x3588, symBinAddr: 0x22FAC, symSize: 0x4 }
  - { offset: 0x202229, size: 0x8, addend: 0x0, symName: __ZN8facebook5react13ConcreteStateINS0_14ParagraphStateEEC2ENSt3__110shared_ptrIKS2_EERKNS0_5StateE, symObjAddr: 0x3614, symBinAddr: 0x23038, symSize: 0x98 }
  - { offset: 0x20249E, size: 0x8, addend: 0x0, symName: __ZN8facebook5react13ConcreteStateINS0_14ParagraphStateEED1Ev, symObjAddr: 0x36AC, symBinAddr: 0x230D0, symSize: 0x4 }
  - { offset: 0x2024C0, size: 0x8, addend: 0x0, symName: __ZN8facebook5react13ConcreteStateINS0_14ParagraphStateEED1Ev, symObjAddr: 0x36AC, symBinAddr: 0x230D0, symSize: 0x4 }
  - { offset: 0x2024DD, size: 0x8, addend: 0x0, symName: __ZN8facebook5react13ConcreteStateINS0_14ParagraphStateEED1Ev, symObjAddr: 0x36AC, symBinAddr: 0x230D0, symSize: 0x4 }
  - { offset: 0x2024F0, size: 0x8, addend: 0x0, symName: __ZN8facebook5react5StateD2Ev, symObjAddr: 0x371C, symBinAddr: 0x230E8, symSize: 0x40 }
  - { offset: 0x202593, size: 0x8, addend: 0x0, symName: __ZN8facebook5react13ConcreteStateINS0_14ParagraphStateEED0Ev, symObjAddr: 0x36B0, symBinAddr: 0x230D4, symSize: 0x14 }
  - { offset: 0x202647, size: 0x8, addend: 0x0, symName: __ZN8facebook5react5StateD1Ev, symObjAddr: 0x375C, symBinAddr: 0x23128, symSize: 0x4 }
  - { offset: 0x20266A, size: 0x8, addend: 0x0, symName: __ZN8facebook5react5StateD1Ev, symObjAddr: 0x375C, symBinAddr: 0x23128, symSize: 0x4 }
  - { offset: 0x20269D, size: 0x8, addend: 0x0, symName: __ZN8facebook5react5StateD0Ev, symObjAddr: 0x3760, symBinAddr: 0x2312C, symSize: 0x14 }
  - { offset: 0x202713, size: 0x8, addend: 0x0, symName: __ZNSt3__120__shared_ptr_emplaceIKN8facebook5react14ParagraphStateENS_9allocatorIS3_EEED1Ev, symObjAddr: 0x3774, symBinAddr: 0x23140, symSize: 0x14 }
  - { offset: 0x202735, size: 0x8, addend: 0x0, symName: __ZNSt3__120__shared_ptr_emplaceIKN8facebook5react14ParagraphStateENS_9allocatorIS3_EEED1Ev, symObjAddr: 0x3774, symBinAddr: 0x23140, symSize: 0x14 }
  - { offset: 0x20276B, size: 0x8, addend: 0x0, symName: __ZNSt3__120__shared_ptr_emplaceIKN8facebook5react14ParagraphStateENS_9allocatorIS3_EEED0Ev, symObjAddr: 0x3788, symBinAddr: 0x23154, symSize: 0x24 }
  - { offset: 0x20283A, size: 0x8, addend: 0x0, symName: __ZNSt3__120__shared_ptr_emplaceIKN8facebook5react14ParagraphStateENS_9allocatorIS3_EEE16__on_zero_sharedEv, symObjAddr: 0x37AC, symBinAddr: 0x23178, symSize: 0x8 }
  - { offset: 0x202863, size: 0x8, addend: 0x0, symName: __ZNSt3__120__shared_ptr_emplaceIKN8facebook5react14ParagraphStateENS_9allocatorIS3_EEE16__on_zero_sharedEv, symObjAddr: 0x37AC, symBinAddr: 0x23178, symSize: 0x8 }
  - { offset: 0x202880, size: 0x8, addend: 0x0, symName: __ZNSt3__120__shared_ptr_emplaceIKN8facebook5react14ParagraphStateENS_9allocatorIS3_EEE16__on_zero_sharedEv, symObjAddr: 0x37AC, symBinAddr: 0x23178, symSize: 0x8 }
  - { offset: 0x20291D, size: 0x8, addend: 0x0, symName: __ZNSt3__120__shared_ptr_emplaceIKN8facebook5react14ParagraphStateENS_9allocatorIS3_EEE21__on_zero_shared_weakEv, symObjAddr: 0x37B4, symBinAddr: 0x23180, symSize: 0x4 }
  - { offset: 0x20294F, size: 0x8, addend: 0x0, symName: __ZNSt3__120__shared_ptr_emplaceIKN8facebook5react14ParagraphStateENS_9allocatorIS3_EEE21__on_zero_shared_weakEv, symObjAddr: 0x37B4, symBinAddr: 0x23180, symSize: 0x4 }
  - { offset: 0x202970, size: 0x8, addend: 0x0, symName: __ZNSt3__120__shared_ptr_emplaceIKN8facebook5react14ParagraphStateENS_9allocatorIS3_EEE21__on_zero_shared_weakEv, symObjAddr: 0x37B4, symBinAddr: 0x23180, symSize: 0x4 }
  - { offset: 0x202992, size: 0x8, addend: 0x0, symName: __ZNSt3__120__shared_ptr_emplaceIKN8facebook5react14ParagraphStateENS_9allocatorIS3_EEE21__on_zero_shared_weakEv, symObjAddr: 0x37B4, symBinAddr: 0x23180, symSize: 0x4 }
  - { offset: 0x2029C5, size: 0x8, addend: 0x0, symName: __ZNSt3__120__shared_ptr_emplaceIKN8facebook5react14ParagraphStateENS_9allocatorIS3_EEE21__on_zero_shared_weakEv, symObjAddr: 0x37B4, symBinAddr: 0x23180, symSize: 0x4 }
  - { offset: 0x202A81, size: 0x8, addend: 0x0, symName: '__ZNSt3__110__function6__funcIZN8facebook5react19ParagraphShadowNode6layoutENS3_13LayoutContextEE3$_0NS_9allocatorIS6_EEFNS_10shared_ptrINS3_10ShadowNodeEEERKSA_EED1Ev', symObjAddr: 0x39FC, symBinAddr: 0x23318, symSize: 0x4 }
  - { offset: 0x202AAD, size: 0x8, addend: 0x0, symName: '__ZNSt3__110__function6__funcIZN8facebook5react19ParagraphShadowNode6layoutENS3_13LayoutContextEE3$_0NS_9allocatorIS6_EEFNS_10shared_ptrINS3_10ShadowNodeEEERKSA_EED0Ev', symObjAddr: 0x3A00, symBinAddr: 0x2331C, symSize: 0x4 }
  - { offset: 0x202BC8, size: 0x8, addend: 0x0, symName: '__ZNKSt3__110__function6__funcIZN8facebook5react19ParagraphShadowNode6layoutENS3_13LayoutContextEE3$_0NS_9allocatorIS6_EEFNS_10shared_ptrINS3_10ShadowNodeEEERKSA_EE7__cloneEv', symObjAddr: 0x3A04, symBinAddr: 0x23320, symSize: 0x34 }
  - { offset: 0x202DC8, size: 0x8, addend: 0x0, symName: '__ZNKSt3__110__function6__funcIZN8facebook5react19ParagraphShadowNode6layoutENS3_13LayoutContextEE3$_0NS_9allocatorIS6_EEFNS_10shared_ptrINS3_10ShadowNodeEEERKSA_EE7__cloneEPNS0_6__baseISE_EE', symObjAddr: 0x3A38, symBinAddr: 0x23354, symSize: 0x14 }
  - { offset: 0x202DFE, size: 0x8, addend: 0x0, symName: '__ZNKSt3__110__function6__funcIZN8facebook5react19ParagraphShadowNode6layoutENS3_13LayoutContextEE3$_0NS_9allocatorIS6_EEFNS_10shared_ptrINS3_10ShadowNodeEEERKSA_EE7__cloneEPNS0_6__baseISE_EE', symObjAddr: 0x3A38, symBinAddr: 0x23354, symSize: 0x14 }
  - { offset: 0x202E2C, size: 0x8, addend: 0x0, symName: '__ZNKSt3__110__function6__funcIZN8facebook5react19ParagraphShadowNode6layoutENS3_13LayoutContextEE3$_0NS_9allocatorIS6_EEFNS_10shared_ptrINS3_10ShadowNodeEEERKSA_EE7__cloneEPNS0_6__baseISE_EE', symObjAddr: 0x3A38, symBinAddr: 0x23354, symSize: 0x14 }
  - { offset: 0x202E5A, size: 0x8, addend: 0x0, symName: '__ZNKSt3__110__function6__funcIZN8facebook5react19ParagraphShadowNode6layoutENS3_13LayoutContextEE3$_0NS_9allocatorIS6_EEFNS_10shared_ptrINS3_10ShadowNodeEEERKSA_EE7__cloneEPNS0_6__baseISE_EE', symObjAddr: 0x3A38, symBinAddr: 0x23354, symSize: 0x14 }
  - { offset: 0x202E6F, size: 0x8, addend: 0x0, symName: '__ZNKSt3__110__function6__funcIZN8facebook5react19ParagraphShadowNode6layoutENS3_13LayoutContextEE3$_0NS_9allocatorIS6_EEFNS_10shared_ptrINS3_10ShadowNodeEEERKSA_EE7__cloneEPNS0_6__baseISE_EE', symObjAddr: 0x3A38, symBinAddr: 0x23354, symSize: 0x14 }
  - { offset: 0x202E84, size: 0x8, addend: 0x0, symName: '__ZNSt3__110__function6__funcIZN8facebook5react19ParagraphShadowNode6layoutENS3_13LayoutContextEE3$_0NS_9allocatorIS6_EEFNS_10shared_ptrINS3_10ShadowNodeEEERKSA_EE7destroyEv', symObjAddr: 0x3A4C, symBinAddr: 0x23368, symSize: 0x4 }
  - { offset: 0x202ED9, size: 0x8, addend: 0x0, symName: '__ZNSt3__110__function6__funcIZN8facebook5react19ParagraphShadowNode6layoutENS3_13LayoutContextEE3$_0NS_9allocatorIS6_EEFNS_10shared_ptrINS3_10ShadowNodeEEERKSA_EE18destroy_deallocateEv', symObjAddr: 0x3A50, symBinAddr: 0x2336C, symSize: 0x4 }
  - { offset: 0x202F0D, size: 0x8, addend: 0x0, symName: '__ZNSt3__110__function6__funcIZN8facebook5react19ParagraphShadowNode6layoutENS3_13LayoutContextEE3$_0NS_9allocatorIS6_EEFNS_10shared_ptrINS3_10ShadowNodeEEERKSA_EE18destroy_deallocateEv', symObjAddr: 0x3A50, symBinAddr: 0x2336C, symSize: 0x4 }
  - { offset: 0x202F2F, size: 0x8, addend: 0x0, symName: '__ZNSt3__110__function6__funcIZN8facebook5react19ParagraphShadowNode6layoutENS3_13LayoutContextEE3$_0NS_9allocatorIS6_EEFNS_10shared_ptrINS3_10ShadowNodeEEERKSA_EE18destroy_deallocateEv', symObjAddr: 0x3A50, symBinAddr: 0x2336C, symSize: 0x4 }
  - { offset: 0x202F60, size: 0x8, addend: 0x0, symName: '__ZNSt3__110__function6__funcIZN8facebook5react19ParagraphShadowNode6layoutENS3_13LayoutContextEE3$_0NS_9allocatorIS6_EEFNS_10shared_ptrINS3_10ShadowNodeEEERKSA_EE18destroy_deallocateEv', symObjAddr: 0x3A50, symBinAddr: 0x2336C, symSize: 0x4 }
  - { offset: 0x203061, size: 0x8, addend: 0x0, symName: '__ZNSt3__110__function6__funcIZN8facebook5react19ParagraphShadowNode6layoutENS3_13LayoutContextEE3$_0NS_9allocatorIS6_EEFNS_10shared_ptrINS3_10ShadowNodeEEERKSA_EEclESD_', symObjAddr: 0x3A54, symBinAddr: 0x23370, symSize: 0xCC }
  - { offset: 0x2032BC, size: 0x8, addend: 0x0, symName: '__ZNKSt3__110__function6__funcIZN8facebook5react19ParagraphShadowNode6layoutENS3_13LayoutContextEE3$_0NS_9allocatorIS6_EEFNS_10shared_ptrINS3_10ShadowNodeEEERKSA_EE6targetERKSt9type_info', symObjAddr: 0x3B20, symBinAddr: 0x2343C, symSize: 0x3C }
  - { offset: 0x20336F, size: 0x8, addend: 0x0, symName: '__ZNKSt3__110__function6__funcIZN8facebook5react19ParagraphShadowNode6layoutENS3_13LayoutContextEE3$_0NS_9allocatorIS6_EEFNS_10shared_ptrINS3_10ShadowNodeEEERKSA_EE11target_typeEv', symObjAddr: 0x3B5C, symBinAddr: 0x23478, symSize: 0xC }
  - { offset: 0x2142AA, size: 0x8, addend: 0x0, symName: __ZN8facebook5react12RawTextPropsC2ERKNS0_18PropsParserContextERKS1_RKNS0_8RawPropsE, symObjAddr: 0x0, symBinAddr: 0x23484, symSize: 0x15C }
  - { offset: 0x214A53, size: 0x8, addend: 0x0, symName: __ZN8facebook5react12RawTextPropsC1ERKNS0_18PropsParserContextERKS1_RKNS0_8RawPropsE, symObjAddr: 0x398, symBinAddr: 0x235E0, symSize: 0x17C }
  - { offset: 0x214FFC, size: 0x8, addend: 0x0, symName: __ZN8facebook5react12RawTextPropsD1Ev, symObjAddr: 0x594, symBinAddr: 0x2375C, symSize: 0x60 }
  - { offset: 0x21527C, size: 0x8, addend: 0x0, symName: __ZN8facebook5react12RawTextPropsD0Ev, symObjAddr: 0x5F4, symBinAddr: 0x237BC, symSize: 0x60 }
  - { offset: 0x218143, size: 0x8, addend: 0x0, symName: __ZN8facebook5react20RawTextComponentNameE, symObjAddr: 0x0, symBinAddr: 0x3B8CA, symSize: 0x0 }
  - { offset: 0x21AF66, size: 0x8, addend: 0x0, symName: __ZN8facebook5react17HostPlatformColorL14UndefinedColorE, symObjAddr: 0xD19A0, symBinAddr: 0x4E178, symSize: 0x0 }
  - { offset: 0x21B6BB, size: 0x8, addend: 0x0, symName: __ZN8facebook5react8toStringERKNS0_4RoleE, symObjAddr: 0x918, symBinAddr: 0x24134, symSize: 0x3C0 }
  - { offset: 0x21BEE6, size: 0x8, addend: 0x0, symName: __ZN8facebook5react8toStringERKNS0_17AccessibilityRoleE, symObjAddr: 0xCD8, symBinAddr: 0x244F4, symSize: 0x288 }
  - { offset: 0x223115, size: 0x8, addend: 0x0, symName: __Z41RCTNSAttributedStringFromAttributedStringRKN8facebook5react16AttributedStringE, symObjAddr: 0x123C, symBinAddr: 0x24A58, symSize: 0x4EC }
  - { offset: 0x223141, size: 0x8, addend: 0x0, symName: __ZZ41RCTNSAttributedStringFromAttributedStringRKN8facebook5react16AttributedStringEE16placeholderImage, symObjAddr: 0xD19B8, symBinAddr: 0x4E190, symSize: 0x0 }
  - { offset: 0x223158, size: 0x8, addend: 0x0, symName: __ZZ41RCTNSAttributedStringFromAttributedStringRKN8facebook5react16AttributedStringEE9onceToken, symObjAddr: 0xD19C0, symBinAddr: 0x4E198, symSize: 0x0 }
  - { offset: 0x225C96, size: 0x8, addend: 0x0, symName: __Z37RCTNSTextAttributesFromTextAttributesRKN8facebook5react14TextAttributesE, symObjAddr: 0x0, symBinAddr: 0x2381C, symSize: 0x7F0 }
  - { offset: 0x226512, size: 0x8, addend: 0x0, symName: __ZL48RCTEffectiveFontSizeMultiplierFromTextAttributesRKN8facebook5react14TextAttributesE, symObjAddr: 0x7F0, symBinAddr: 0x2400C, symSize: 0x128 }
  - { offset: 0x226659, size: 0x8, addend: 0x0, symName: __Z37RCTNSTextAttributesFromTextAttributesRKN8facebook5react14TextAttributesE.cold.1, symObjAddr: 0x2FE0, symBinAddr: 0x39194, symSize: 0xBC }
  - { offset: 0x2268CA, size: 0x8, addend: 0x0, symName: __Z22RCTApplyBaselineOffsetP25NSMutableAttributedString, symObjAddr: 0xF60, symBinAddr: 0x2477C, symSize: 0xF8 }
  - { offset: 0x226910, size: 0x8, addend: 0x0, symName: __ZL30RCTApplyBaselineOffsetForRangeP25NSMutableAttributedString8_NSRange, symObjAddr: 0x1068, symBinAddr: 0x24884, symSize: 0x1C4 }
  - { offset: 0x226986, size: 0x8, addend: 0x0, symName: ____Z22RCTApplyBaselineOffsetP25NSMutableAttributedString_block_invoke, symObjAddr: 0x1058, symBinAddr: 0x24874, symSize: 0x10 }
  - { offset: 0x226A15, size: 0x8, addend: 0x0, symName: ___copy_helper_block_ea8_32s, symObjAddr: 0x122C, symBinAddr: 0x24A48, symSize: 0x8 }
  - { offset: 0x226A3C, size: 0x8, addend: 0x0, symName: ___destroy_helper_block_ea8_32s, symObjAddr: 0x1234, symBinAddr: 0x24A50, symSize: 0x8 }
  - { offset: 0x22760D, size: 0x8, addend: 0x0, symName: __Z42RCTNSStringFromStringApplyingTextTransformP8NSStringN8facebook5react13TextTransformE, symObjAddr: 0x1944, symBinAddr: 0x250E8, symSize: 0x29C }
  - { offset: 0x227696, size: 0x8, addend: 0x0, symName: __Z41RCTNSAttributedStringFromAttributedStringRKN8facebook5react16AttributedStringE.cold.1, symObjAddr: 0x309C, symBinAddr: 0x39250, symSize: 0x14 }
  - { offset: 0x2276B1, size: 0x8, addend: 0x0, symName: __Z41RCTNSAttributedStringFromAttributedStringRKN8facebook5react16AttributedStringE.cold.1, symObjAddr: 0x309C, symBinAddr: 0x39250, symSize: 0x14 }
  - { offset: 0x2279A2, size: 0x8, addend: 0x0, symName: ____Z41RCTNSAttributedStringFromAttributedStringRKN8facebook5react16AttributedStringE_block_invoke, symObjAddr: 0x1728, symBinAddr: 0x24F44, symSize: 0x28 }
  - { offset: 0x227B33, size: 0x8, addend: 0x0, symName: __Z44RCTNSAttributedStringFromAttributedStringBoxRKN8facebook5react19AttributedStringBoxE, symObjAddr: 0x17C8, symBinAddr: 0x24F6C, symSize: 0xA0 }
  - { offset: 0x227CA2, size: 0x8, addend: 0x0, symName: __Z44RCTAttributedStringBoxFromNSAttributedStringP18NSAttributedString, symObjAddr: 0x1868, symBinAddr: 0x2500C, symSize: 0xDC }
  - { offset: 0x227DF2, size: 0x8, addend: 0x0, symName: __ZNSt3__110shared_ptrIvEC2B8ne200100IvPDoFvPvELi0EEEPT_T0_, symObjAddr: 0x2E5C, symBinAddr: 0x25D80, symSize: 0x80 }
  - { offset: 0x2282EF, size: 0x8, addend: 0x0, symName: __Z36RCTIsAttributedStringEffectivelySameP18NSAttributedStringS0_P12NSDictionaryIP8NSStringP11objc_objectERKN8facebook5react14TextAttributesE, symObjAddr: 0x1BE0, symBinAddr: 0x25384, symSize: 0x1B4 }
  - { offset: 0x228369, size: 0x8, addend: 0x0, symName: ____Z36RCTIsAttributedStringEffectivelySameP18NSAttributedStringS0_P12NSDictionaryIP8NSStringP11objc_objectERKN8facebook5react14TextAttributesE_block_invoke, symObjAddr: 0x1D94, symBinAddr: 0x25538, symSize: 0xFC }
  - { offset: 0x22840D, size: 0x8, addend: 0x0, symName: ____Z36RCTIsAttributedStringEffectivelySameP18NSAttributedStringS0_P12NSDictionaryIP8NSStringP11objc_objectERKN8facebook5react14TextAttributesE_block_invoke_2, symObjAddr: 0x1E90, symBinAddr: 0x25634, symSize: 0x284 }
  - { offset: 0x22852B, size: 0x8, addend: 0x0, symName: __ZL29RCTIsAttributeEffectivelySameP8NSStringP12NSDictionaryIS0_P11objc_objectES5_S5_RKN8facebook5react14TextAttributesE, symObjAddr: 0x2114, symBinAddr: 0x258B8, symSize: 0x318 }
  - { offset: 0x228950, size: 0x8, addend: 0x0, symName: ___copy_helper_block_ea8_32s40s48r, symObjAddr: 0x242C, symBinAddr: 0x25BD0, symSize: 0x3C }
  - { offset: 0x228979, size: 0x8, addend: 0x0, symName: ___destroy_helper_block_ea8_32s40s48r, symObjAddr: 0x2468, symBinAddr: 0x25C0C, symSize: 0x34 }
  - { offset: 0x228F91, size: 0x8, addend: 0x0, symName: ____ZL30RCTApplyBaselineOffsetForRangeP25NSMutableAttributedString8_NSRange_block_invoke, symObjAddr: 0x2918, symBinAddr: 0x25C40, symSize: 0x78 }
  - { offset: 0x22901A, size: 0x8, addend: 0x0, symName: ____ZL30RCTApplyBaselineOffsetForRangeP25NSMutableAttributedString8_NSRange_block_invoke, symObjAddr: 0x2918, symBinAddr: 0x25C40, symSize: 0x78 }
  - { offset: 0x229083, size: 0x8, addend: 0x0, symName: ___copy_helper_block_ea8_32r, symObjAddr: 0x2990, symBinAddr: 0x25CB8, symSize: 0x10 }
  - { offset: 0x2290AC, size: 0x8, addend: 0x0, symName: ___destroy_helper_block_ea8_32r, symObjAddr: 0x29A0, symBinAddr: 0x25CC8, symSize: 0xC }
  - { offset: 0x2290CB, size: 0x8, addend: 0x0, symName: ____ZL30RCTApplyBaselineOffsetForRangeP25NSMutableAttributedString8_NSRange_block_invoke.104, symObjAddr: 0x29AC, symBinAddr: 0x25CD4, symSize: 0x78 }
  - { offset: 0x229688, size: 0x8, addend: 0x0, symName: ____ZL19RCTWrapEventEmitterRKNSt3__110shared_ptrIKN8facebook5react12EventEmitterEEE_block_invoke, symObjAddr: 0x2D20, symBinAddr: 0x25D4C, symSize: 0x34 }
  - { offset: 0x2297D3, size: 0x8, addend: 0x0, symName: __ZNSt3__120__shared_ptr_pointerIPvPDoFvS1_ENS_9allocatorIvEEED1Ev, symObjAddr: 0x2EDC, symBinAddr: 0x25E00, symSize: 0x4 }
  - { offset: 0x2297F5, size: 0x8, addend: 0x0, symName: __ZNSt3__120__shared_ptr_pointerIPvPDoFvS1_ENS_9allocatorIvEEED1Ev, symObjAddr: 0x2EDC, symBinAddr: 0x25E00, symSize: 0x4 }
  - { offset: 0x22982B, size: 0x8, addend: 0x0, symName: __ZNSt3__120__shared_ptr_pointerIPvPDoFvS1_ENS_9allocatorIvEEED0Ev, symObjAddr: 0x2EE0, symBinAddr: 0x25E04, symSize: 0x14 }
  - { offset: 0x22988E, size: 0x8, addend: 0x0, symName: __ZNSt3__120__shared_ptr_pointerIPvPDoFvS1_ENS_9allocatorIvEEE16__on_zero_sharedEv, symObjAddr: 0x2EF4, symBinAddr: 0x25E18, symSize: 0x8 }
  - { offset: 0x2298C1, size: 0x8, addend: 0x0, symName: __ZNKSt3__120__shared_ptr_pointerIPvPDoFvS1_ENS_9allocatorIvEEE13__get_deleterERKSt9type_info, symObjAddr: 0x2EFC, symBinAddr: 0x25E20, symSize: 0x3C }
  - { offset: 0x2299B6, size: 0x8, addend: 0x0, symName: __ZNSt3__120__shared_ptr_pointerIPvPDoFvS1_ENS_9allocatorIvEEE21__on_zero_shared_weakEv, symObjAddr: 0x2F38, symBinAddr: 0x25E5C, symSize: 0x4 }
  - { offset: 0x2299E8, size: 0x8, addend: 0x0, symName: __ZNSt3__120__shared_ptr_pointerIPvPDoFvS1_ENS_9allocatorIvEEE21__on_zero_shared_weakEv, symObjAddr: 0x2F38, symBinAddr: 0x25E5C, symSize: 0x4 }
  - { offset: 0x229A09, size: 0x8, addend: 0x0, symName: __ZNSt3__120__shared_ptr_pointerIPvPDoFvS1_ENS_9allocatorIvEEE21__on_zero_shared_weakEv, symObjAddr: 0x2F38, symBinAddr: 0x25E5C, symSize: 0x4 }
  - { offset: 0x229A3B, size: 0x8, addend: 0x0, symName: __ZNSt3__120__shared_ptr_pointerIPvPDoFvS1_ENS_9allocatorIvEEE21__on_zero_shared_weakEv, symObjAddr: 0x2F38, symBinAddr: 0x25E5C, symSize: 0x4 }
  - { offset: 0x229B2B, size: 0x8, addend: 0x0, symName: __GLOBAL__sub_I_RCTAttributedTextUtils.mm, symObjAddr: 0x3778, symBinAddr: 0x25E60, symSize: 0x20 }
  - { offset: 0x22C2D6, size: 0x8, addend: 0x0, symName: __Z25RCTFontWithFontProperties17RCTFontProperties, symObjAddr: 0x0, symBinAddr: 0x25E80, symSize: 0xEC8 }
  - { offset: 0x22C3B8, size: 0x8, addend: 0x0, symName: __ZL32RCTDefaultFontWithFontProperties17RCTFontProperties, symObjAddr: 0xEF0, symBinAddr: 0x26D70, symSize: 0x204 }
  - { offset: 0x22C3E2, size: 0x8, addend: 0x0, symName: __ZZL32RCTDefaultFontWithFontProperties17RCTFontPropertiesE9fontCache, symObjAddr: 0x22430, symBinAddr: 0x4E210, symSize: 0x0 }
  - { offset: 0x22C3F8, size: 0x8, addend: 0x0, symName: __ZZL32RCTDefaultFontWithFontProperties17RCTFontPropertiesE14fontCacheMutex, symObjAddr: 0x2428, symBinAddr: 0x4C6B8, symSize: 0x0 }
  - { offset: 0x22EBA5, size: 0x8, addend: 0x0, symName: __ZNSt3__127__tree_balance_after_insertB8ne200100IPNS_16__tree_node_baseIPvEEEEvT_S5_, symObjAddr: 0x1B50, symBinAddr: 0x279D0, symSize: 0x19C }
  - { offset: 0x230560, size: 0x8, addend: 0x0, symName: __Z25RCTFontWithFontProperties17RCTFontProperties, symObjAddr: 0x0, symBinAddr: 0x25E80, symSize: 0xEC8 }
  - { offset: 0x2311A1, size: 0x8, addend: 0x0, symName: __ZNSt3__16__treeINS_12__value_typeIlU8__strongP12NSDictionaryEENS_19__map_value_compareIlS5_NS_4lessIlEELb1EEENS_9allocatorIS5_EEE25__emplace_unique_key_argsIlJRKNS_21piecewise_construct_tENS_5tupleIJOlEEENSH_IJEEEEEENS_4pairINS_15__tree_iteratorIS5_PNS_11__tree_nodeIS5_PvEElEEbEERKT_DpOT0_, symObjAddr: 0x1EBC, symBinAddr: 0x27D3C, symSize: 0xDC }
  - { offset: 0x2315CC, size: 0x8, addend: 0x0, symName: __Z25RCTFontWithFontProperties17RCTFontProperties.cold.2, symObjAddr: 0x1FE4, symBinAddr: 0x392B0, symSize: 0x14 }
  - { offset: 0x2315E7, size: 0x8, addend: 0x0, symName: __Z25RCTFontWithFontProperties17RCTFontProperties.cold.2, symObjAddr: 0x1FE4, symBinAddr: 0x392B0, symSize: 0x14 }
  - { offset: 0x2315FC, size: 0x8, addend: 0x0, symName: __Z25RCTFontWithFontProperties17RCTFontProperties.cold.2, symObjAddr: 0x1FE4, symBinAddr: 0x392B0, symSize: 0x14 }
  - { offset: 0x23160F, size: 0x8, addend: 0x0, symName: __Z25RCTFontWithFontProperties17RCTFontProperties.cold.4, symObjAddr: 0x2054, symBinAddr: 0x39320, symSize: 0x24 }
  - { offset: 0x231652, size: 0x8, addend: 0x0, symName: __Z25RCTFontWithFontProperties17RCTFontProperties.cold.1, symObjAddr: 0x1F98, symBinAddr: 0x39264, symSize: 0x4C }
  - { offset: 0x231680, size: 0x8, addend: 0x0, symName: __Z25RCTFontWithFontProperties17RCTFontProperties.cold.3, symObjAddr: 0x1FF8, symBinAddr: 0x392C4, symSize: 0x5C }
  - { offset: 0x231705, size: 0x8, addend: 0x0, symName: __ZN17RCTFontPropertiesD1Ev, symObjAddr: 0xEC8, symBinAddr: 0x26D48, symSize: 0x28 }
  - { offset: 0x2317E4, size: 0x8, addend: 0x0, symName: __ZL32RCTDefaultFontWithFontProperties17RCTFontProperties.cold.1, symObjAddr: 0x2078, symBinAddr: 0x39344, symSize: 0x4C }
  - { offset: 0x2317FC, size: 0x8, addend: 0x0, symName: ____ZL24RCTDefaultFontPropertiesv_block_invoke, symObjAddr: 0x10F4, symBinAddr: 0x26F74, symSize: 0x88 }
  - { offset: 0x231893, size: 0x8, addend: 0x0, symName: __ZNSt3__13mapIlU8__strongP12NSDictionaryNS_4lessIlEENS_9allocatorINS_4pairIKlS3_EEEEED1B8ne200100Ev, symObjAddr: 0x117C, symBinAddr: 0x26FFC, symSize: 0x28 }
  - { offset: 0x231947, size: 0x8, addend: 0x0, symName: __ZNSt3__16__treeINS_12__value_typeIlU8__strongP12NSDictionaryEENS_19__map_value_compareIlS5_NS_4lessIlEELb1EEENS_9allocatorIS5_EEE7destroyEPNS_11__tree_nodeIS5_PvEE, symObjAddr: 0x1904, symBinAddr: 0x27784, symSize: 0x48 }
  - { offset: 0x231BE7, size: 0x8, addend: 0x0, symName: ____ZL15RCTFontFeaturesl_block_invoke, symObjAddr: 0x11A4, symBinAddr: 0x27024, symSize: 0x760 }
  - { offset: 0x232174, size: 0x8, addend: 0x0, symName: __ZNSt3__16__treeINS_12__value_typeIlU8__strongP12NSDictionaryEENS_19__map_value_compareIlS5_NS_4lessIlEELb1EEENS_9allocatorIS5_EEE15__assign_uniqueIPKNS_4pairIKlS4_EEEEvT_SJ_, symObjAddr: 0x194C, symBinAddr: 0x277CC, symSize: 0x104 }
  - { offset: 0x232532, size: 0x8, addend: 0x0, symName: __ZNSt3__16__treeINS_12__value_typeIlU8__strongP12NSDictionaryEENS_19__map_value_compareIlS5_NS_4lessIlEELb1EEENS_9allocatorIS5_EEE18_DetachedTreeCache13__detach_nextEPNS_11__tree_nodeIS5_PvEE, symObjAddr: 0x1CEC, symBinAddr: 0x27B6C, symSize: 0x54 }
  - { offset: 0x2325AF, size: 0x8, addend: 0x0, symName: __ZNSt3__16__treeINS_12__value_typeIlU8__strongP12NSDictionaryEENS_19__map_value_compareIlS5_NS_4lessIlEELb1EEENS_9allocatorIS5_EEE20__node_assign_uniqueERKNS_4pairIKlS4_EEPNS_11__tree_nodeIS5_PvEE, symObjAddr: 0x1A50, symBinAddr: 0x278D0, symSize: 0xAC }
  - { offset: 0x232762, size: 0x8, addend: 0x0, symName: __ZNSt3__16__treeINS_12__value_typeIlU8__strongP12NSDictionaryEENS_19__map_value_compareIlS5_NS_4lessIlEELb1EEENS_9allocatorIS5_EEE18_DetachedTreeCacheD2B8ne200100Ev, symObjAddr: 0x1D40, symBinAddr: 0x27BC0, symSize: 0x54 }
  - { offset: 0x2327A7, size: 0x8, addend: 0x0, symName: __ZNSt3__16__treeINS_12__value_typeIlU8__strongP12NSDictionaryEENS_19__map_value_compareIlS5_NS_4lessIlEELb1EEENS_9allocatorIS5_EEE25__emplace_unique_key_argsIlJRKNS_4pairIKlS4_EEEEENSE_INS_15__tree_iteratorIS5_PNS_11__tree_nodeIS5_PvEElEEbEERKT_DpOT0_, symObjAddr: 0x1D94, symBinAddr: 0x27C14, symSize: 0xE0 }
  - { offset: 0x232CC2, size: 0x8, addend: 0x0, symName: __ZNSt3__16__treeINS_12__value_typeIlU8__strongP12NSDictionaryEENS_19__map_value_compareIlS5_NS_4lessIlEELb1EEENS_9allocatorIS5_EEE16__insert_node_atEPNS_15__tree_end_nodeIPNS_16__tree_node_baseIPvEEEERSH_SH_, symObjAddr: 0x1AFC, symBinAddr: 0x2797C, symSize: 0x54 }
  - { offset: 0x232F5E, size: 0x8, addend: 0x0, symName: __ZNSt3__110unique_ptrINS_11__tree_nodeINS_12__value_typeIlU8__strongP12NSDictionaryEEPvEENS_22__tree_node_destructorINS_9allocatorIS8_EEEEE5resetB8ne200100EPS8_, symObjAddr: 0x1E74, symBinAddr: 0x27CF4, symSize: 0x48 }
  - { offset: 0x2353C1, size: 0x8, addend: 0x0, symName: __ZN8facebook5react17HostPlatformColorL14UndefinedColorE, symObjAddr: 0x1267F8, symBinAddr: 0x4E248, symSize: 0x0 }
  - { offset: 0x235E44, size: 0x8, addend: 0x0, symName: __ZN8facebook5react12hash_combineINSt3__112basic_stringIcNS2_11char_traitsIcEENS2_9allocatorIcEEEEJNS0_14TextAttributesEiNS0_13LayoutMetricsEEEEvRmRKT_DpRKT0_, symObjAddr: 0x46F0, symBinAddr: 0x2B3C8, symSize: 0xAC }
  - { offset: 0x236174, size: 0x8, addend: 0x0, symName: __ZN8facebook5react12hash_combineINS0_11SharedColorEJS2_dNSt3__112basic_stringIcNS3_11char_traitsIcEENS3_9allocatorIcEEEEdddNS3_8optionalINS0_10FontWeightEEENSA_INS0_9FontStyleEEENSA_INS0_11FontVariantEEENSA_IbEEdNSA_INS0_13TextTransformEEEdNSA_INS0_13TextAlignmentEEENSA_INS0_16WritingDirectionEEENSA_INS0_17LineBreakStrategyEEENSA_INS0_13LineBreakModeEEES2_NSA_INS0_22TextDecorationLineTypeEEENSA_INS0_19TextDecorationStyleEEENSA_INS0_4SizeEEEdS2_SH_SH_NSA_INS0_15LayoutDirectionEEENSA_INS0_17AccessibilityRoleEEENSA_INS0_4RoleEEEEEEvRmRKT_DpRKT0_, symObjAddr: 0x3CD8, symBinAddr: 0x2AE58, symSize: 0x510 }
  - { offset: 0x23728B, size: 0x8, addend: 0x0, symName: __ZN8facebook5react12hash_combineINSt3__18optionalINS0_4SizeEEEJEEEvRmRKT_DpRKT0_, symObjAddr: 0x41E8, symBinAddr: 0x2B368, symSize: 0x60 }
  - { offset: 0x2374A6, size: 0x8, addend: 0x0, symName: __ZN8facebook5react12hash_combineINS0_13LayoutMetricsEJEEEvRmRKT_DpRKT0_, symObjAddr: 0x479C, symBinAddr: 0x2B474, symSize: 0x6C }
  - { offset: 0x2375E3, size: 0x8, addend: 0x0, symName: __ZN8facebook5react12hash_combineINS0_4RectEJNS0_14RectangleEdgesIdEES4_NS0_11DisplayTypeENS0_15LayoutDirectionEdS4_EEEvRmRKT_DpRKT0_, symObjAddr: 0x4808, symBinAddr: 0x2B4E0, symSize: 0x16C }
  - { offset: 0x2379E5, size: 0x8, addend: 0x0, symName: __ZN8facebook5react12hash_combineIdJdddEEEvRmRKT_DpRKT0_, symObjAddr: 0x4A3C, symBinAddr: 0x2B714, symSize: 0x98 }
  - { offset: 0x237B92, size: 0x8, addend: 0x0, symName: __ZN8facebook5react12hash_combineINS0_5PointEJNS0_4SizeEEEEvRmRKT_DpRKT0_, symObjAddr: 0x49A4, symBinAddr: 0x2B67C, symSize: 0x98 }
  - { offset: 0x243BE4, size: 0x8, addend: 0x0, symName: __ZNSt3__119__allocate_at_leastB8ne200100INS_9allocatorIN8facebook5react15TextMeasurement10AttachmentEEEEENS_19__allocation_resultINS_16allocator_traitsIT_E7pointerEEERS9_m, symObjAddr: 0x3728, symBinAddr: 0x2A900, symSize: 0x44 }
  - { offset: 0x243C89, size: 0x8, addend: 0x0, symName: __ZNSt3__16vectorIN8facebook5react15TextMeasurement10AttachmentENS_9allocatorIS4_EEE16__init_with_sizeB8ne200100IPS4_S9_EEvT_T0_m, symObjAddr: 0x376C, symBinAddr: 0x2A944, symSize: 0x78 }
  - { offset: 0x244763, size: 0x8, addend: 0x0, symName: __ZNSt3__134__uninitialized_allocator_relocateB8ne200100INS_9allocatorIN8facebook5react15LineMeasurementEEEPS4_EEvRT_T0_S9_S9_, symObjAddr: 0x34B8, symBinAddr: 0x2A7A8, symSize: 0xD0 }
  - { offset: 0x244777, size: 0x8, addend: 0x0, symName: __ZNSt3__134__uninitialized_allocator_relocateB8ne200100INS_9allocatorIN8facebook5react15LineMeasurementEEEPS4_EEvRT_T0_S9_S9_, symObjAddr: 0x34B8, symBinAddr: 0x2A7A8, symSize: 0xD0 }
  - { offset: 0x2452D0, size: 0x8, addend: 0x0, symName: __ZNSt3__112__destroy_atB8ne200100INS_4pairIKN8facebook5react16AttributedStringENS_15__list_iteratorINS1_IS4_NS_10shared_ptrIvEEEEPvEEEELi0EEEvPT_, symObjAddr: 0x38A0, symBinAddr: 0x2AA78, symSize: 0x60 }
  - { offset: 0x2457C5, size: 0x8, addend: 0x0, symName: __ZNSt3__112__destroy_atB8ne200100INS_4pairIN8facebook5react16AttributedStringENS_10shared_ptrIvEEEELi0EEEvPT_, symObjAddr: 0x396C, symBinAddr: 0x2AB44, symSize: 0x68 }
  - { offset: 0x24A5A3, size: 0x8, addend: 0x0, symName: '-[RCTTextLayoutManager measureNSAttributedString:paragraphAttributes:layoutContext:layoutConstraints:]', symObjAddr: 0x0, symBinAddr: 0x27E18, symSize: 0x108 }
  - { offset: 0x24A90B, size: 0x8, addend: 0x0, symName: '-[RCTTextLayoutManager measureAttributedString:paragraphAttributes:layoutContext:layoutConstraints:]', symObjAddr: 0x108, symBinAddr: 0x27F20, symSize: 0x1DC }
  - { offset: 0x24B8E0, size: 0x8, addend: 0x0, symName: '-[RCTTextLayoutManager drawAttributedString:paragraphAttributes:frame:drawHighlightPath:]', symObjAddr: 0x348, symBinAddr: 0x280FC, symSize: 0x3F8 }
  - { offset: 0x24C0F3, size: 0x8, addend: 0x0, symName: ___Block_byref_object_copy_, symObjAddr: 0x740, symBinAddr: 0x284F4, symSize: 0x10 }
  - { offset: 0x24C118, size: 0x8, addend: 0x0, symName: ___Block_byref_object_dispose_, symObjAddr: 0x750, symBinAddr: 0x28504, symSize: 0x8 }
  - { offset: 0x24C137, size: 0x8, addend: 0x0, symName: '___89-[RCTTextLayoutManager drawAttributedString:paragraphAttributes:frame:drawHighlightPath:]_block_invoke', symObjAddr: 0x758, symBinAddr: 0x2850C, symSize: 0xA8 }
  - { offset: 0x24C1B4, size: 0x8, addend: 0x0, symName: '___89-[RCTTextLayoutManager drawAttributedString:paragraphAttributes:frame:drawHighlightPath:]_block_invoke_2', symObjAddr: 0x800, symBinAddr: 0x285B4, symSize: 0x8C }
  - { offset: 0x24C26F, size: 0x8, addend: 0x0, symName: '-[RCTTextLayoutManager processTruncatedAttributedText:textContainer:layoutManager:]', symObjAddr: 0x918, symBinAddr: 0x28640, symSize: 0x16C }
  - { offset: 0x24C2F0, size: 0x8, addend: 0x0, symName: '___83-[RCTTextLayoutManager processTruncatedAttributedText:textContainer:layoutManager:]_block_invoke', symObjAddr: 0xA84, symBinAddr: 0x287AC, symSize: 0x220 }
  - { offset: 0x24C3E6, size: 0x8, addend: 0x0, symName: ___copy_helper_block_ea8_32s40s48s56r, symObjAddr: 0xCA4, symBinAddr: 0x289CC, symSize: 0x44 }
  - { offset: 0x24C40F, size: 0x8, addend: 0x0, symName: ___destroy_helper_block_ea8_32s40s48s56r, symObjAddr: 0xCE8, symBinAddr: 0x28A10, symSize: 0x3C }
  - { offset: 0x24C4EC, size: 0x8, addend: 0x0, symName: '-[RCTTextLayoutManager getLinesForAttributedString:paragraphAttributes:size:]', symObjAddr: 0xD24, symBinAddr: 0x28A4C, symSize: 0x308 }
  - { offset: 0x24CE74, size: 0x8, addend: 0x0, symName: '___77-[RCTTextLayoutManager getLinesForAttributedString:paragraphAttributes:size:]_block_invoke', symObjAddr: 0x102C, symBinAddr: 0x28D54, symSize: 0x1E0 }
  - { offset: 0x24D48D, size: 0x8, addend: 0x0, symName: __ZNSt3__16vectorIN8facebook5react15LineMeasurementENS_9allocatorIS3_EEE22__construct_one_at_endB8ne200100IJRKS3_EEEvDpOT_, symObjAddr: 0x3250, symBinAddr: 0x2A59C, symSize: 0x84 }
  - { offset: 0x24D49F, size: 0x8, addend: 0x0, symName: __ZNSt3__16vectorIN8facebook5react15LineMeasurementENS_9allocatorIS3_EEE9push_backB8ne200100ERKS3_, symObjAddr: 0x120C, symBinAddr: 0x28F34, symSize: 0x3C }
  - { offset: 0x24D55D, size: 0x8, addend: 0x0, symName: __ZNSt3__16vectorIN8facebook5react15LineMeasurementENS_9allocatorIS3_EEE22__construct_one_at_endB8ne200100IJRKS3_EEEvDpOT_, symObjAddr: 0x3250, symBinAddr: 0x2A59C, symSize: 0x84 }
  - { offset: 0x24D79C, size: 0x8, addend: 0x0, symName: __ZNSt3__16vectorIN8facebook5react15LineMeasurementENS_9allocatorIS3_EEE24__emplace_back_slow_pathIJRKS3_EEEPS3_DpOT_, symObjAddr: 0x32D4, symBinAddr: 0x2A620, symSize: 0x188 }
  - { offset: 0x24DB3E, size: 0x8, addend: 0x0, symName: ___copy_helper_block_ea8_32s40s, symObjAddr: 0x1248, symBinAddr: 0x28F70, symSize: 0x28 }
  - { offset: 0x24DB67, size: 0x8, addend: 0x0, symName: ___destroy_helper_block_ea8_32s40s, symObjAddr: 0x1270, symBinAddr: 0x28F98, symSize: 0x28 }
  - { offset: 0x24DBA3, size: 0x8, addend: 0x0, symName: '-[RCTTextLayoutManager _textStorageAndLayoutManagerWithAttributesString:paragraphAttributes:size:]', symObjAddr: 0x1298, symBinAddr: 0x28FC0, symSize: 0x180 }
  - { offset: 0x24DD71, size: 0x8, addend: 0x0, symName: '-[RCTTextLayoutManager getEventEmitterWithAttributeString:paragraphAttributes:frame:atPoint:]', symObjAddr: 0x1418, symBinAddr: 0x29140, symSize: 0x350 }
  - { offset: 0x24E659, size: 0x8, addend: 0x0, symName: '-[RCTTextLayoutManager getRectWithAttributedString:paragraphAttributes:enumerateAttribute:frame:usingBlock:]', symObjAddr: 0x1768, symBinAddr: 0x29490, symSize: 0x3A0 }
  - { offset: 0x24EE5E, size: 0x8, addend: 0x0, symName: '___108-[RCTTextLayoutManager getRectWithAttributedString:paragraphAttributes:enumerateAttribute:frame:usingBlock:]_block_invoke', symObjAddr: 0x1B08, symBinAddr: 0x29830, symSize: 0x104 }
  - { offset: 0x24EEFE, size: 0x8, addend: 0x0, symName: '___108-[RCTTextLayoutManager getRectWithAttributedString:paragraphAttributes:enumerateAttribute:frame:usingBlock:]_block_invoke_2', symObjAddr: 0x1C0C, symBinAddr: 0x29934, symSize: 0xC4 }
  - { offset: 0x24EFA5, size: 0x8, addend: 0x0, symName: ___copy_helper_block_ea8_32s40s48b, symObjAddr: 0x1CD0, symBinAddr: 0x299F8, symSize: 0x3C }
  - { offset: 0x24EFCE, size: 0x8, addend: 0x0, symName: ___destroy_helper_block_ea8_32s40s48s, symObjAddr: 0x1D0C, symBinAddr: 0x29A34, symSize: 0x30 }
  - { offset: 0x24EFED, size: 0x8, addend: 0x0, symName: ___copy_helper_block_ea8_32s40s48s56b, symObjAddr: 0x1D3C, symBinAddr: 0x29A64, symSize: 0x44 }
  - { offset: 0x24F016, size: 0x8, addend: 0x0, symName: ___destroy_helper_block_ea8_32s40s48s56s, symObjAddr: 0x1D80, symBinAddr: 0x29AA8, symSize: 0x38 }
  - { offset: 0x24F035, size: 0x8, addend: 0x0, symName: '-[RCTTextLayoutManager _nsAttributedStringFromAttributedString:]', symObjAddr: 0x1DB8, symBinAddr: 0x29AE0, symSize: 0x1DC }
  - { offset: 0x24FACF, size: 0x8, addend: 0x0, symName: __ZNSt3__112__hash_tableINS_17__hash_value_typeIN8facebook5react16AttributedStringENS_15__list_iteratorINS_4pairIS4_NS_10shared_ptrIvEEEEPvEEEENS_22__unordered_map_hasherIS4_SC_NS_4hashIS4_EENS_8equal_toIS4_EELb1EEENS_21__unordered_map_equalIS4_SC_SH_SF_Lb1EEENS_9allocatorISC_EEE4findIS4_EENS_15__hash_iteratorIPNS_11__hash_nodeISC_SA_EEEERKT_, symObjAddr: 0x3A6C, symBinAddr: 0x2ABEC, symSize: 0xF4 }
  - { offset: 0x24FD7D, size: 0x8, addend: 0x0, symName: __ZNSt3__110__list_impINS_4pairIN8facebook5react16AttributedStringENS_10shared_ptrIvEEEENS_9allocatorIS7_EEE13__create_nodeB8ne200100IJRKS4_RS6_EEEPNS_11__list_nodeIS7_PvEEPNS_16__list_node_baseIS7_SG_EESL_DpOT_, symObjAddr: 0x4C00, symBinAddr: 0x2B7AC, symSize: 0x88 }
  - { offset: 0x2501A4, size: 0x8, addend: 0x0, symName: __ZNSt3__112__hash_tableINS_17__hash_value_typeIN8facebook5react16AttributedStringENS_15__list_iteratorINS_4pairIS4_NS_10shared_ptrIvEEEEPvEEEENS_22__unordered_map_hasherIS4_SC_NS_4hashIS4_EENS_8equal_toIS4_EELb1EEENS_21__unordered_map_equalIS4_SC_SH_SF_Lb1EEENS_9allocatorISC_EEE25__emplace_unique_key_argsIS4_JRKNS_21piecewise_construct_tENS_5tupleIJRKS4_EEENSS_IJEEEEEENS6_INS_15__hash_iteratorIPNS_11__hash_nodeISC_SA_EEEEbEERKT_DpOT0_, symObjAddr: 0x4C88, symBinAddr: 0x2B834, symSize: 0x264 }
  - { offset: 0x250671, size: 0x8, addend: 0x0, symName: __ZNSt3__112__hash_tableINS_17__hash_value_typeIN8facebook5react16AttributedStringENS_15__list_iteratorINS_4pairIS4_NS_10shared_ptrIvEEEEPvEEEENS_22__unordered_map_hasherIS4_SC_NS_4hashIS4_EENS_8equal_toIS4_EELb1EEENS_21__unordered_map_equalIS4_SC_SH_SF_Lb1EEENS_9allocatorISC_EEE14__erase_uniqueIS4_EEmRKT_, symObjAddr: 0x51DC, symBinAddr: 0x2BB5C, symSize: 0x34 }
  - { offset: 0x2506F3, size: 0x8, addend: 0x0, symName: __ZNSt3__14listINS_4pairIN8facebook5react16AttributedStringENS_10shared_ptrIvEEEENS_9allocatorIS7_EEE8pop_backEv, symObjAddr: 0x3A2C, symBinAddr: 0x2ABAC, symSize: 0x40 }
  - { offset: 0x250A02, size: 0x8, addend: 0x0, symName: '-[RCTTextLayoutManager _measureTextStorage:paragraphAttributes:layoutContext:]', symObjAddr: 0x1F94, symBinAddr: 0x29CBC, symSize: 0x42C }
  - { offset: 0x250E25, size: 0x8, addend: 0x0, symName: __ZNSt3__16vectorIN8facebook5react15TextMeasurement10AttachmentENS_9allocatorIS4_EEE16__init_with_sizeB8ne200100IPS4_S9_EEvT_T0_m, symObjAddr: 0x376C, symBinAddr: 0x2A944, symSize: 0x78 }
  - { offset: 0x2511DC, size: 0x8, addend: 0x0, symName: '___78-[RCTTextLayoutManager _measureTextStorage:paragraphAttributes:layoutContext:]_block_invoke', symObjAddr: 0x23C0, symBinAddr: 0x2A0E8, symSize: 0x124 }
  - { offset: 0x2512ED, size: 0x8, addend: 0x0, symName: ___copy_helper_block_ea8_32s40s48r56r64r, symObjAddr: 0x24E4, symBinAddr: 0x2A20C, symSize: 0x5C }
  - { offset: 0x251316, size: 0x8, addend: 0x0, symName: ___destroy_helper_block_ea8_32s40s48r56r64r, symObjAddr: 0x2540, symBinAddr: 0x2A268, symSize: 0x4C }
  - { offset: 0x251383, size: 0x8, addend: 0x0, symName: ___Block_byref_object_copy_.13, symObjAddr: 0x258C, symBinAddr: 0x2A2B4, symSize: 0x24 }
  - { offset: 0x2513AA, size: 0x8, addend: 0x0, symName: ___Block_byref_object_copy_.13, symObjAddr: 0x258C, symBinAddr: 0x2A2B4, symSize: 0x24 }
  - { offset: 0x2513CF, size: 0x8, addend: 0x0, symName: ___Block_byref_object_copy_.13, symObjAddr: 0x258C, symBinAddr: 0x2A2B4, symSize: 0x24 }
  - { offset: 0x2513F6, size: 0x8, addend: 0x0, symName: ___Block_byref_object_dispose_.14, symObjAddr: 0x25B0, symBinAddr: 0x2A2D8, symSize: 0x18 }
  - { offset: 0x251522, size: 0x8, addend: 0x0, symName: '___78-[RCTTextLayoutManager _measureTextStorage:paragraphAttributes:layoutContext:]_block_invoke.15', symObjAddr: 0x25C8, symBinAddr: 0x2A2F0, symSize: 0x13C }
  - { offset: 0x25166C, size: 0x8, addend: 0x0, symName: __ZNSt3__16vectorIN8facebook5react15TextMeasurement10AttachmentENS_9allocatorIS4_EEE9push_backB8ne200100EOS4_, symObjAddr: 0x2704, symBinAddr: 0x2A42C, symSize: 0x104 }
  - { offset: 0x251A13, size: 0x8, addend: 0x0, symName: '-[RCTTextLayoutManager .cxx_destruct]', symObjAddr: 0x2808, symBinAddr: 0x2A530, symSize: 0x30 }
  - { offset: 0x251C98, size: 0x8, addend: 0x0, symName: __ZNSt3__119__allocate_at_leastB8ne200100INS_9allocatorIN8facebook5react15TextMeasurement10AttachmentEEEEENS_19__allocation_resultINS_16allocator_traitsIT_E7pointerEEERS9_m, symObjAddr: 0x3728, symBinAddr: 0x2A900, symSize: 0x44 }
  - { offset: 0x251D8D, size: 0x8, addend: 0x0, symName: '-[RCTTextLayoutManager .cxx_destruct]', symObjAddr: 0x2808, symBinAddr: 0x2A530, symSize: 0x30 }
  - { offset: 0x251E9E, size: 0x8, addend: 0x0, symName: __ZNSt3__112__hash_tableINS_17__hash_value_typeIN8facebook5react16AttributedStringENS_15__list_iteratorINS_4pairIS4_NS_10shared_ptrIvEEEEPvEEEENS_22__unordered_map_hasherIS4_SC_NS_4hashIS4_EENS_8equal_toIS4_EELb1EEENS_21__unordered_map_equalIS4_SC_SH_SF_Lb1EEENS_9allocatorISC_EEED2Ev, symObjAddr: 0x382C, symBinAddr: 0x2AA04, symSize: 0x38 }
  - { offset: 0x251FF6, size: 0x8, addend: 0x0, symName: __ZNSt3__110__list_impINS_4pairIN8facebook5react16AttributedStringENS_10shared_ptrIvEEEENS_9allocatorIS7_EEE5clearEv, symObjAddr: 0x3900, symBinAddr: 0x2AAD8, symSize: 0x6C }
  - { offset: 0x252021, size: 0x8, addend: 0x0, symName: __ZNSt3__110__list_impINS_4pairIN8facebook5react16AttributedStringENS_10shared_ptrIvEEEENS_9allocatorIS7_EEE5clearEv, symObjAddr: 0x3900, symBinAddr: 0x2AAD8, symSize: 0x6C }
  - { offset: 0x252357, size: 0x8, addend: 0x0, symName: '-[RCTTextLayoutManager .cxx_construct]', symObjAddr: 0x2838, symBinAddr: 0x2A560, symSize: 0x3C }
  - { offset: 0x253B78, size: 0x8, addend: 0x0, symName: __ZNSt3__114__split_bufferIN8facebook5react15LineMeasurementERNS_9allocatorIS3_EEED2Ev, symObjAddr: 0x3600, symBinAddr: 0x2A878, symSize: 0x34 }
  - { offset: 0x253FD4, size: 0x8, addend: 0x0, symName: __ZNSt3__114__split_bufferIN8facebook5react15LineMeasurementERNS_9allocatorIS3_EEE17__destruct_at_endB8ne200100EPS3_, symObjAddr: 0x3634, symBinAddr: 0x2A8AC, symSize: 0x54 }
  - { offset: 0x25400C, size: 0x8, addend: 0x0, symName: __ZNSt3__114__split_bufferIN8facebook5react15LineMeasurementERNS_9allocatorIS3_EEE17__destruct_at_endB8ne200100EPS3_, symObjAddr: 0x3634, symBinAddr: 0x2A8AC, symSize: 0x54 }
  - { offset: 0x2544B4, size: 0x8, addend: 0x0, symName: __ZNSt3__16vectorIN8facebook5react15TextMeasurement10AttachmentENS_9allocatorIS4_EEE11__vallocateB8ne200100Em, symObjAddr: 0x37E4, symBinAddr: 0x2A9BC, symSize: 0x48 }
  - { offset: 0x25450C, size: 0x8, addend: 0x0, symName: __ZNSt3__112__hash_tableINS_17__hash_value_typeIN8facebook5react16AttributedStringENS_15__list_iteratorINS_4pairIS4_NS_10shared_ptrIvEEEEPvEEEENS_22__unordered_map_hasherIS4_SC_NS_4hashIS4_EENS_8equal_toIS4_EELb1EEENS_21__unordered_map_equalIS4_SC_SH_SF_Lb1EEENS_9allocatorISC_EEED2Ev, symObjAddr: 0x382C, symBinAddr: 0x2AA04, symSize: 0x38 }
  - { offset: 0x25460D, size: 0x8, addend: 0x0, symName: __ZNSt3__112__hash_tableINS_17__hash_value_typeIN8facebook5react16AttributedStringENS_15__list_iteratorINS_4pairIS4_NS_10shared_ptrIvEEEEPvEEEENS_22__unordered_map_hasherIS4_SC_NS_4hashIS4_EENS_8equal_toIS4_EELb1EEENS_21__unordered_map_equalIS4_SC_SH_SF_Lb1EEENS_9allocatorISC_EEE17__deallocate_nodeEPNS_16__hash_node_baseIPNS_11__hash_nodeISC_SA_EEEE, symObjAddr: 0x3864, symBinAddr: 0x2AA3C, symSize: 0x3C }
  - { offset: 0x254A4D, size: 0x8, addend: 0x0, symName: __ZNKSt3__14hashIN8facebook5react16AttributedStringEEclERKS3_, symObjAddr: 0x3B60, symBinAddr: 0x2ACE0, symSize: 0x9C }
  - { offset: 0x254C40, size: 0x8, addend: 0x0, symName: __ZNKSt3__14hashIN8facebook5react14TextAttributesEEclERKS3_, symObjAddr: 0x3BFC, symBinAddr: 0x2AD7C, symSize: 0xDC }
  - { offset: 0x255E11, size: 0x8, addend: 0x0, symName: __ZNKSt3__14hashIN8facebook5react4RectEEclERKS3_, symObjAddr: 0x4974, symBinAddr: 0x2B64C, symSize: 0x30 }
  - { offset: 0x2562A9, size: 0x8, addend: 0x0, symName: __ZNSt3__112__hash_tableINS_17__hash_value_typeIN8facebook5react16AttributedStringENS_15__list_iteratorINS_4pairIS4_NS_10shared_ptrIvEEEEPvEEEENS_22__unordered_map_hasherIS4_SC_NS_4hashIS4_EENS_8equal_toIS4_EELb1EEENS_21__unordered_map_equalIS4_SC_SH_SF_Lb1EEENS_9allocatorISC_EEE21__construct_node_hashIRKNS_21piecewise_construct_tEJNS_5tupleIJRKS4_EEENSS_IJEEEEEENS_10unique_ptrINS_11__hash_nodeISC_SA_EENS_22__hash_node_destructorINSL_ISZ_EEEEEEmOT_DpOT0_, symObjAddr: 0x4EEC, symBinAddr: 0x2BA98, symSize: 0x7C }
  - { offset: 0x256712, size: 0x8, addend: 0x0, symName: __ZNSt3__110unique_ptrINS_11__hash_nodeINS_17__hash_value_typeIN8facebook5react16AttributedStringENS_15__list_iteratorINS_4pairIS5_NS_10shared_ptrIvEEEEPvEEEESB_EENS_22__hash_node_destructorINS_9allocatorISE_EEEEE5resetB8ne200100EPSE_, symObjAddr: 0x5194, symBinAddr: 0x2BB14, symSize: 0x48 }
  - { offset: 0x256E50, size: 0x8, addend: 0x0, symName: __ZNSt3__110unique_ptrINS_11__hash_nodeINS_17__hash_value_typeIN8facebook5react16AttributedStringENS_15__list_iteratorINS_4pairIS5_NS_10shared_ptrIvEEEEPvEEEESB_EENS_22__hash_node_destructorINS_9allocatorISE_EEEEE5resetB8ne200100EPSE_, symObjAddr: 0x5194, symBinAddr: 0x2BB14, symSize: 0x48 }
  - { offset: 0x256F11, size: 0x8, addend: 0x0, symName: __ZNSt3__112__hash_tableINS_17__hash_value_typeIN8facebook5react16AttributedStringENS_15__list_iteratorINS_4pairIS4_NS_10shared_ptrIvEEEEPvEEEENS_22__unordered_map_hasherIS4_SC_NS_4hashIS4_EENS_8equal_toIS4_EELb1EEENS_21__unordered_map_equalIS4_SC_SH_SF_Lb1EEENS_9allocatorISC_EEE5eraseENS_21__hash_const_iteratorIPNS_11__hash_nodeISC_SA_EEEE, symObjAddr: 0x5210, symBinAddr: 0x2BB90, symSize: 0x58 }
  - { offset: 0x257160, size: 0x8, addend: 0x0, symName: __ZNSt3__112__hash_tableINS_17__hash_value_typeIN8facebook5react16AttributedStringENS_15__list_iteratorINS_4pairIS4_NS_10shared_ptrIvEEEEPvEEEENS_22__unordered_map_hasherIS4_SC_NS_4hashIS4_EENS_8equal_toIS4_EELb1EEENS_21__unordered_map_equalIS4_SC_SH_SF_Lb1EEENS_9allocatorISC_EEE6removeENS_21__hash_const_iteratorIPNS_11__hash_nodeISC_SA_EEEE, symObjAddr: 0x5268, symBinAddr: 0x2BBE8, symSize: 0x13C }
  - { offset: 0x2571DA, size: 0x8, addend: 0x0, symName: __ZNSt3__112__hash_tableINS_17__hash_value_typeIN8facebook5react16AttributedStringENS_15__list_iteratorINS_4pairIS4_NS_10shared_ptrIvEEEEPvEEEENS_22__unordered_map_hasherIS4_SC_NS_4hashIS4_EENS_8equal_toIS4_EELb1EEENS_21__unordered_map_equalIS4_SC_SH_SF_Lb1EEENS_9allocatorISC_EEE6removeENS_21__hash_const_iteratorIPNS_11__hash_nodeISC_SA_EEEE, symObjAddr: 0x5268, symBinAddr: 0x2BBE8, symSize: 0x13C }
  - { offset: 0x2571F6, size: 0x8, addend: 0x0, symName: __ZNSt3__112__hash_tableINS_17__hash_value_typeIN8facebook5react16AttributedStringENS_15__list_iteratorINS_4pairIS4_NS_10shared_ptrIvEEEEPvEEEENS_22__unordered_map_hasherIS4_SC_NS_4hashIS4_EENS_8equal_toIS4_EELb1EEENS_21__unordered_map_equalIS4_SC_SH_SF_Lb1EEENS_9allocatorISC_EEE6removeENS_21__hash_const_iteratorIPNS_11__hash_nodeISC_SA_EEEE, symObjAddr: 0x5268, symBinAddr: 0x2BBE8, symSize: 0x13C }
  - { offset: 0x25748D, size: 0x8, addend: 0x0, symName: __GLOBAL__sub_I_RCTTextLayoutManager.mm, symObjAddr: 0x5920, symBinAddr: 0x2BD24, symSize: 0x20 }
  - { offset: 0x25A660, size: 0x8, addend: 0x0, symName: __ZN8facebook5react25SafeAreaViewComponentNameE, symObjAddr: 0x0, symBinAddr: 0x3BA50, symSize: 0x0 }
  - { offset: 0x25D459, size: 0x8, addend: 0x0, symName: __ZNK8facebook5react11ScrollEvent10asJSIValueERNS_3jsi7RuntimeE, symObjAddr: 0x0, symBinAddr: 0x2BD44, symSize: 0x308 }
  - { offset: 0x26A1E3, size: 0x8, addend: 0x0, symName: __ZNK8facebook5react11ScrollEvent10asJSIValueERNS_3jsi7RuntimeE, symObjAddr: 0x0, symBinAddr: 0x2BD44, symSize: 0x308 }
  - { offset: 0x26B70E, size: 0x8, addend: 0x0, symName: __ZNK8facebook5react11ScrollEvent9asDynamicEv, symObjAddr: 0x4F4, symBinAddr: 0x2C04C, symSize: 0xAA4 }
  - { offset: 0x26F032, size: 0x8, addend: 0x0, symName: __ZN5folly7dynamic11ObjectMakerC2ES0_S0_, symObjAddr: 0x1724, symBinAddr: 0x2D27C, symSize: 0x84 }
  - { offset: 0x26F22C, size: 0x8, addend: 0x0, symName: __ZN5folly7dynamic11ObjectMakerclES0_S0_, symObjAddr: 0xF98, symBinAddr: 0x2CAF0, symSize: 0x64 }
  - { offset: 0x26F311, size: 0x8, addend: 0x0, symName: __ZNK8facebook5react11ScrollEvent12extractValueERKNSt3__16vectorINS2_12basic_stringIcNS2_11char_traitsIcEENS2_9allocatorIcEEEENS7_IS9_EEEE, symObjAddr: 0xFFC, symBinAddr: 0x2CB54, symSize: 0x154 }
  - { offset: 0x26F31C, size: 0x8, addend: 0x0, symName: __ZNSt3__112__hash_tableINS_17__hash_value_typeIN5folly7dynamicES3_EENS_22__unordered_map_hasherIS3_S4_NS2_6detail13DynamicHasherENS6_15DynamicKeyEqualELb1EEENS_21__unordered_map_equalIS3_S4_S8_S7_Lb1EEENS_9allocatorIS4_EEEC2EOSE_, symObjAddr: 0x1EA8, symBinAddr: 0x2D5A8, symSize: 0x70 }
  - { offset: 0x26F381, size: 0x8, addend: 0x0, symName: __ZNSt3__112__hash_tableINS_17__hash_value_typeIN5folly7dynamicES3_EENS_22__unordered_map_hasherIS3_S4_NS2_6detail13DynamicHasherENS6_15DynamicKeyEqualELb1EEENS_21__unordered_map_equalIS3_S4_S8_S7_Lb1EEENS_9allocatorIS4_EEEC2EOSE_, symObjAddr: 0x1EA8, symBinAddr: 0x2D5A8, symSize: 0x70 }
  - { offset: 0x26F53A, size: 0x8, addend: 0x0, symName: __ZNSt3__112__hash_tableINS_17__hash_value_typeIN5folly7dynamicES3_EENS_22__unordered_map_hasherIS3_S4_NS2_6detail13DynamicHasherENS6_15DynamicKeyEqualELb1EEENS_21__unordered_map_equalIS3_S4_S8_S7_Lb1EEENS_9allocatorIS4_EEE25__emplace_unique_key_argsIS3_JRKNS_21piecewise_construct_tENS_5tupleIJOS3_EEENSJ_IJEEEEEENS_4pairINS_15__hash_iteratorIPNS_11__hash_nodeIS4_PvEEEEbEERKT_DpOT0_, symObjAddr: 0x19D4, symBinAddr: 0x2D300, symSize: 0x25C }
  - { offset: 0x26FCAF, size: 0x8, addend: 0x0, symName: __ZN5folly7dynamic11ObjectMakerclES0_S0_.cold.1, symObjAddr: 0x2078, symBinAddr: 0x39390, symSize: 0x1C }
  - { offset: 0x26FFE6, size: 0x8, addend: 0x0, symName: __ZNK8facebook5react11ScrollEvent12extractValueERKNSt3__16vectorINS2_12basic_stringIcNS2_11char_traitsIcEENS2_9allocatorIcEEEENS7_IS9_EEEE, symObjAddr: 0xFFC, symBinAddr: 0x2CB54, symSize: 0x154 }
  - { offset: 0x270020, size: 0x8, addend: 0x0, symName: __ZNK8facebook5react11ScrollEvent12extractValueERKNSt3__16vectorINS2_12basic_stringIcNS2_11char_traitsIcEENS2_9allocatorIcEEEENS7_IS9_EEEE, symObjAddr: 0xFFC, symBinAddr: 0x2CB54, symSize: 0x154 }
  - { offset: 0x2704F0, size: 0x8, addend: 0x0, symName: __ZNK8facebook5react11ScrollEvent7getTypeEv, symObjAddr: 0x1150, symBinAddr: 0x2CCA8, symSize: 0x8 }
  - { offset: 0x27052C, size: 0x8, addend: 0x0, symName: __ZNK8facebook5react18ScrollEndDragEvent10asJSIValueERNS_3jsi7RuntimeE, symObjAddr: 0x1158, symBinAddr: 0x2CCB0, symSize: 0x1A8 }
  - { offset: 0x270A3C, size: 0x8, addend: 0x0, symName: __ZNK8facebook5react18ScrollEndDragEvent9asDynamicEv, symObjAddr: 0x1300, symBinAddr: 0x2CE58, symSize: 0x414 }
  - { offset: 0x271DEE, size: 0x8, addend: 0x0, symName: __ZN8facebook5react11ScrollEventD1Ev, symObjAddr: 0x1714, symBinAddr: 0x2D26C, symSize: 0x4 }
  - { offset: 0x271E19, size: 0x8, addend: 0x0, symName: __ZN8facebook5react11ScrollEventD0Ev, symObjAddr: 0x1718, symBinAddr: 0x2D270, symSize: 0x4 }
  - { offset: 0x271E44, size: 0x8, addend: 0x0, symName: __ZN8facebook5react18ScrollEndDragEventD1Ev, symObjAddr: 0x171C, symBinAddr: 0x2D274, symSize: 0x4 }
  - { offset: 0x271E6F, size: 0x8, addend: 0x0, symName: __ZN8facebook5react18ScrollEndDragEventD0Ev, symObjAddr: 0x1720, symBinAddr: 0x2D278, symSize: 0x4 }
  - { offset: 0x27281A, size: 0x8, addend: 0x0, symName: __ZNSt3__122__hash_node_destructorINS_9allocatorINS_11__hash_nodeINS_17__hash_value_typeIN5folly7dynamicES5_EEPvEEEEEclB8ne200100EPS8_, symObjAddr: 0x1E5C, symBinAddr: 0x2D55C, symSize: 0x4C }
  - { offset: 0x272C20, size: 0x8, addend: 0x0, symName: __ZNSt3__122__hash_node_destructorINS_9allocatorINS_11__hash_nodeINS_17__hash_value_typeIN5folly7dynamicES5_EEPvEEEEEclB8ne200100EPS8_, symObjAddr: 0x1E5C, symBinAddr: 0x2D55C, symSize: 0x4C }
  - { offset: 0x274EE6, size: 0x8, addend: 0x0, symName: __ZNK8facebook5react22ScrollViewEventEmitter8onScrollERKNS0_11ScrollEventE, symObjAddr: 0x0, symBinAddr: 0x2D618, symSize: 0x158 }
  - { offset: 0x281765, size: 0x8, addend: 0x0, symName: __ZNK8facebook5react22ScrollViewEventEmitter8onScrollERKNS0_11ScrollEventE, symObjAddr: 0x0, symBinAddr: 0x2D618, symSize: 0x158 }
  - { offset: 0x282013, size: 0x8, addend: 0x0, symName: __ZNK8facebook5react22ScrollViewEventEmitter13onScrollToTopERKNS0_11ScrollEventE, symObjAddr: 0x158, symBinAddr: 0x2D770, symSize: 0x158 }
  - { offset: 0x28268D, size: 0x8, addend: 0x0, symName: __ZNK8facebook5react22ScrollViewEventEmitter17onScrollBeginDragERKNS0_11ScrollEventE, symObjAddr: 0x2B0, symBinAddr: 0x2D8C8, symSize: 0x74 }
  - { offset: 0x28292A, size: 0x8, addend: 0x0, symName: __ZNK8facebook5react22ScrollViewEventEmitter23dispatchScrollViewEventENSt3__112basic_stringIcNS2_11char_traitsIcEENS2_9allocatorIcEEEERKNS0_11ScrollEventE, symObjAddr: 0x324, symBinAddr: 0x2D93C, symSize: 0x164 }
  - { offset: 0x283324, size: 0x8, addend: 0x0, symName: __ZNK8facebook5react22ScrollViewEventEmitter15onScrollEndDragERKNS0_18ScrollEndDragEventE, symObjAddr: 0x488, symBinAddr: 0x2DAA0, symSize: 0x168 }
  - { offset: 0x283A15, size: 0x8, addend: 0x0, symName: __ZNK8facebook5react22ScrollViewEventEmitter21onMomentumScrollBeginERKNS0_11ScrollEventE, symObjAddr: 0x5F0, symBinAddr: 0x2DC08, symSize: 0x74 }
  - { offset: 0x283CB2, size: 0x8, addend: 0x0, symName: __ZNK8facebook5react22ScrollViewEventEmitter19onMomentumScrollEndERKNS0_11ScrollEventE, symObjAddr: 0x664, symBinAddr: 0x2DC7C, symSize: 0x74 }
  - { offset: 0x28415C, size: 0x8, addend: 0x0, symName: __ZNSt3__120__shared_ptr_emplaceIN8facebook5react11ScrollEventENS_9allocatorIS3_EEED1Ev, symObjAddr: 0x804, symBinAddr: 0x2DCF0, symSize: 0x14 }
  - { offset: 0x28417E, size: 0x8, addend: 0x0, symName: __ZNSt3__120__shared_ptr_emplaceIN8facebook5react11ScrollEventENS_9allocatorIS3_EEED1Ev, symObjAddr: 0x804, symBinAddr: 0x2DCF0, symSize: 0x14 }
  - { offset: 0x2841B4, size: 0x8, addend: 0x0, symName: __ZNSt3__120__shared_ptr_emplaceIN8facebook5react11ScrollEventENS_9allocatorIS3_EEED0Ev, symObjAddr: 0x818, symBinAddr: 0x2DD04, symSize: 0x24 }
  - { offset: 0x284283, size: 0x8, addend: 0x0, symName: __ZNSt3__120__shared_ptr_emplaceIN8facebook5react11ScrollEventENS_9allocatorIS3_EEE16__on_zero_sharedEv, symObjAddr: 0x83C, symBinAddr: 0x2DD28, symSize: 0xC }
  - { offset: 0x2842AC, size: 0x8, addend: 0x0, symName: __ZNSt3__120__shared_ptr_emplaceIN8facebook5react11ScrollEventENS_9allocatorIS3_EEE16__on_zero_sharedEv, symObjAddr: 0x83C, symBinAddr: 0x2DD28, symSize: 0xC }
  - { offset: 0x2842C9, size: 0x8, addend: 0x0, symName: __ZNSt3__120__shared_ptr_emplaceIN8facebook5react11ScrollEventENS_9allocatorIS3_EEE16__on_zero_sharedEv, symObjAddr: 0x83C, symBinAddr: 0x2DD28, symSize: 0xC }
  - { offset: 0x2842E6, size: 0x8, addend: 0x0, symName: __ZNSt3__120__shared_ptr_emplaceIN8facebook5react11ScrollEventENS_9allocatorIS3_EEE16__on_zero_sharedEv, symObjAddr: 0x83C, symBinAddr: 0x2DD28, symSize: 0xC }
  - { offset: 0x284372, size: 0x8, addend: 0x0, symName: __ZNSt3__120__shared_ptr_emplaceIN8facebook5react11ScrollEventENS_9allocatorIS3_EEE21__on_zero_shared_weakEv, symObjAddr: 0x848, symBinAddr: 0x2DD34, symSize: 0x4 }
  - { offset: 0x2843A4, size: 0x8, addend: 0x0, symName: __ZNSt3__120__shared_ptr_emplaceIN8facebook5react11ScrollEventENS_9allocatorIS3_EEE21__on_zero_shared_weakEv, symObjAddr: 0x848, symBinAddr: 0x2DD34, symSize: 0x4 }
  - { offset: 0x2843C5, size: 0x8, addend: 0x0, symName: __ZNSt3__120__shared_ptr_emplaceIN8facebook5react11ScrollEventENS_9allocatorIS3_EEE21__on_zero_shared_weakEv, symObjAddr: 0x848, symBinAddr: 0x2DD34, symSize: 0x4 }
  - { offset: 0x2843E7, size: 0x8, addend: 0x0, symName: __ZNSt3__120__shared_ptr_emplaceIN8facebook5react11ScrollEventENS_9allocatorIS3_EEE21__on_zero_shared_weakEv, symObjAddr: 0x848, symBinAddr: 0x2DD34, symSize: 0x4 }
  - { offset: 0x28441A, size: 0x8, addend: 0x0, symName: __ZNSt3__120__shared_ptr_emplaceIN8facebook5react11ScrollEventENS_9allocatorIS3_EEE21__on_zero_shared_weakEv, symObjAddr: 0x848, symBinAddr: 0x2DD34, symSize: 0x4 }
  - { offset: 0x28445E, size: 0x8, addend: 0x0, symName: __ZNSt3__120__shared_ptr_emplaceIN8facebook5react18ScrollEndDragEventENS_9allocatorIS3_EEED1Ev, symObjAddr: 0x8FC, symBinAddr: 0x2DD38, symSize: 0x14 }
  - { offset: 0x284480, size: 0x8, addend: 0x0, symName: __ZNSt3__120__shared_ptr_emplaceIN8facebook5react18ScrollEndDragEventENS_9allocatorIS3_EEED1Ev, symObjAddr: 0x8FC, symBinAddr: 0x2DD38, symSize: 0x14 }
  - { offset: 0x2844B6, size: 0x8, addend: 0x0, symName: __ZNSt3__120__shared_ptr_emplaceIN8facebook5react18ScrollEndDragEventENS_9allocatorIS3_EEED0Ev, symObjAddr: 0x910, symBinAddr: 0x2DD4C, symSize: 0x24 }
  - { offset: 0x284585, size: 0x8, addend: 0x0, symName: __ZNSt3__120__shared_ptr_emplaceIN8facebook5react18ScrollEndDragEventENS_9allocatorIS3_EEE16__on_zero_sharedEv, symObjAddr: 0x934, symBinAddr: 0x2DD70, symSize: 0xC }
  - { offset: 0x2845AE, size: 0x8, addend: 0x0, symName: __ZNSt3__120__shared_ptr_emplaceIN8facebook5react18ScrollEndDragEventENS_9allocatorIS3_EEE16__on_zero_sharedEv, symObjAddr: 0x934, symBinAddr: 0x2DD70, symSize: 0xC }
  - { offset: 0x2845CB, size: 0x8, addend: 0x0, symName: __ZNSt3__120__shared_ptr_emplaceIN8facebook5react18ScrollEndDragEventENS_9allocatorIS3_EEE16__on_zero_sharedEv, symObjAddr: 0x934, symBinAddr: 0x2DD70, symSize: 0xC }
  - { offset: 0x2845E8, size: 0x8, addend: 0x0, symName: __ZNSt3__120__shared_ptr_emplaceIN8facebook5react18ScrollEndDragEventENS_9allocatorIS3_EEE16__on_zero_sharedEv, symObjAddr: 0x934, symBinAddr: 0x2DD70, symSize: 0xC }
  - { offset: 0x284674, size: 0x8, addend: 0x0, symName: __ZNSt3__120__shared_ptr_emplaceIN8facebook5react18ScrollEndDragEventENS_9allocatorIS3_EEE21__on_zero_shared_weakEv, symObjAddr: 0x940, symBinAddr: 0x2DD7C, symSize: 0x4 }
  - { offset: 0x2846A6, size: 0x8, addend: 0x0, symName: __ZNSt3__120__shared_ptr_emplaceIN8facebook5react18ScrollEndDragEventENS_9allocatorIS3_EEE21__on_zero_shared_weakEv, symObjAddr: 0x940, symBinAddr: 0x2DD7C, symSize: 0x4 }
  - { offset: 0x2846C7, size: 0x8, addend: 0x0, symName: __ZNSt3__120__shared_ptr_emplaceIN8facebook5react18ScrollEndDragEventENS_9allocatorIS3_EEE21__on_zero_shared_weakEv, symObjAddr: 0x940, symBinAddr: 0x2DD7C, symSize: 0x4 }
  - { offset: 0x2846E9, size: 0x8, addend: 0x0, symName: __ZNSt3__120__shared_ptr_emplaceIN8facebook5react18ScrollEndDragEventENS_9allocatorIS3_EEE21__on_zero_shared_weakEv, symObjAddr: 0x940, symBinAddr: 0x2DD7C, symSize: 0x4 }
  - { offset: 0x28471C, size: 0x8, addend: 0x0, symName: __ZNSt3__120__shared_ptr_emplaceIN8facebook5react18ScrollEndDragEventENS_9allocatorIS3_EEE21__on_zero_shared_weakEv, symObjAddr: 0x940, symBinAddr: 0x2DD7C, symSize: 0x4 }
  - { offset: 0x2866F6, size: 0x8, addend: 0x0, symName: __ZN8facebook5react20ScrollViewShadowNode19updateStateIfNeededEv, symObjAddr: 0x0, symBinAddr: 0x2DD80, symSize: 0x114 }
  - { offset: 0x28671A, size: 0x8, addend: 0x0, symName: __ZN8facebook5react23ScrollViewComponentNameE, symObjAddr: 0xD40, symBinAddr: 0x3BB78, symSize: 0x0 }
  - { offset: 0x2880FA, size: 0x8, addend: 0x0, symName: __ZN8facebook5react23ScrollViewComponentNameE, symObjAddr: 0xD40, symBinAddr: 0x3BB78, symSize: 0x0 }
  - { offset: 0x288D98, size: 0x8, addend: 0x0, symName: __ZN8facebook5react23ScrollViewComponentNameE, symObjAddr: 0xD40, symBinAddr: 0x3BB78, symSize: 0x0 }
  - { offset: 0x29FCBC, size: 0x8, addend: 0x0, symName: __ZNSt3__115allocate_sharedB8ne200100IKN8facebook5react13ConcreteStateINS2_15ScrollViewStateEEENS_9allocatorIS5_EEJNS_10shared_ptrIKS4_EERKNS2_5StateEELi0EEENS9_IT_EERKT0_DpOT1_, symObjAddr: 0x934, symBinAddr: 0x2E388, symSize: 0x60 }
  - { offset: 0x2A0684, size: 0x8, addend: 0x0, symName: __ZNSt3__112construct_atB8ne200100IN8facebook5react13ConcreteStateINS2_15ScrollViewStateEEEJNS_10shared_ptrIKS4_EERKNS2_5StateEEPS5_EEPT_SE_DpOT0_, symObjAddr: 0xA28, symBinAddr: 0x2E47C, symSize: 0x88 }
  - { offset: 0x2A5230, size: 0x8, addend: 0x0, symName: __ZN8facebook5react20ScrollViewShadowNode19updateStateIfNeededEv, symObjAddr: 0x0, symBinAddr: 0x2DD80, symSize: 0x114 }
  - { offset: 0x2A56E8, size: 0x8, addend: 0x0, symName: __ZN8facebook5react4Rect12unionInPlaceERKS1_, symObjAddr: 0x114, symBinAddr: 0x2DE94, symSize: 0x4C }
  - { offset: 0x2A5749, size: 0x8, addend: 0x0, symName: __ZN8facebook5react4Rect12unionInPlaceERKS1_, symObjAddr: 0x114, symBinAddr: 0x2DE94, symSize: 0x4C }
  - { offset: 0x2A582B, size: 0x8, addend: 0x0, symName: __ZN8facebook5react18ConcreteShadowNodeIXadL_ZNS0_23ScrollViewComponentNameEEENS0_24YogaLayoutableShadowNodeENS0_19BaseScrollViewPropsENS0_22ScrollViewEventEmitterENS0_15ScrollViewStateEE12setStateDataEOS5_, symObjAddr: 0x160, symBinAddr: 0x2DEE0, symSize: 0x10C }
  - { offset: 0x2A6169, size: 0x8, addend: 0x0, symName: __ZN8facebook5react20ScrollViewShadowNode33updateScrollContentOffsetIfNeededEv, symObjAddr: 0x26C, symBinAddr: 0x2DFEC, symSize: 0xFC }
  - { offset: 0x2A6492, size: 0x8, addend: 0x0, symName: __ZN8facebook5react20ScrollViewShadowNode16initialStateDataERKNSt3__110shared_ptrIKNS0_5PropsEEERKNS3_IKNS0_16ShadowNodeFamilyEEERKNS0_19ComponentDescriptorE, symObjAddr: 0x368, symBinAddr: 0x2E0E8, symSize: 0x28 }
  - { offset: 0x2A64D0, size: 0x8, addend: 0x0, symName: __ZN8facebook5react20ScrollViewShadowNode16initialStateDataERKNSt3__110shared_ptrIKNS0_5PropsEEERKNS3_IKNS0_16ShadowNodeFamilyEEERKNS0_19ComponentDescriptorE, symObjAddr: 0x368, symBinAddr: 0x2E0E8, symSize: 0x28 }
  - { offset: 0x2A64EA, size: 0x8, addend: 0x0, symName: __ZN8facebook5react20ScrollViewShadowNode6layoutENS0_13LayoutContextE, symObjAddr: 0x390, symBinAddr: 0x2E110, symSize: 0x4C }
  - { offset: 0x2A66D5, size: 0x8, addend: 0x0, symName: __ZNK8facebook5react20ScrollViewShadowNode22getContentOriginOffsetEb, symObjAddr: 0x3DC, symBinAddr: 0x2E15C, symSize: 0xD8 }
  - { offset: 0x2A6AF5, size: 0x8, addend: 0x0, symName: __ZNK8facebook5react22ConcreteViewShadowNodeIXadL_ZNS0_23ScrollViewComponentNameEEENS0_19BaseScrollViewPropsENS0_22ScrollViewEventEmitterENS0_15ScrollViewStateEE12getTransformEv, symObjAddr: 0x4B4, symBinAddr: 0x2E234, symSize: 0x40 }
  - { offset: 0x2A6EF3, size: 0x8, addend: 0x0, symName: __ZN8facebook5react20ScrollViewShadowNodeD1Ev, symObjAddr: 0x4F4, symBinAddr: 0x2E274, symSize: 0x70 }
  - { offset: 0x2A75C7, size: 0x8, addend: 0x0, symName: __ZN8facebook5react20ScrollViewShadowNodeD0Ev, symObjAddr: 0x564, symBinAddr: 0x2E2E4, symSize: 0x74 }
  - { offset: 0x2A79B3, size: 0x8, addend: 0x0, symName: __ZNK8facebook5react22ConcreteViewShadowNodeIXadL_ZNS0_23ScrollViewComponentNameEEENS0_19BaseScrollViewPropsENS0_22ScrollViewEventEmitterENS0_15ScrollViewStateEE16canBeTouchTargetEv, symObjAddr: 0x5D8, symBinAddr: 0x2E358, symSize: 0x18 }
  - { offset: 0x2A79EB, size: 0x8, addend: 0x0, symName: __ZNK8facebook5react22ConcreteViewShadowNodeIXadL_ZNS0_23ScrollViewComponentNameEEENS0_19BaseScrollViewPropsENS0_22ScrollViewEventEmitterENS0_15ScrollViewStateEE16canBeTouchTargetEv, symObjAddr: 0x5D8, symBinAddr: 0x2E358, symSize: 0x18 }
  - { offset: 0x2A7A06, size: 0x8, addend: 0x0, symName: __ZNK8facebook5react22ConcreteViewShadowNodeIXadL_ZNS0_23ScrollViewComponentNameEEENS0_19BaseScrollViewPropsENS0_22ScrollViewEventEmitterENS0_15ScrollViewStateEE16canBeTouchTargetEv, symObjAddr: 0x5D8, symBinAddr: 0x2E358, symSize: 0x18 }
  - { offset: 0x2A7A23, size: 0x8, addend: 0x0, symName: __ZNK8facebook5react22ConcreteViewShadowNodeIXadL_ZNS0_23ScrollViewComponentNameEEENS0_19BaseScrollViewPropsENS0_22ScrollViewEventEmitterENS0_15ScrollViewStateEE24canChildrenBeTouchTargetEv, symObjAddr: 0x5F0, symBinAddr: 0x2E370, symSize: 0x18 }
  - { offset: 0x2A7A57, size: 0x8, addend: 0x0, symName: __ZNK8facebook5react22ConcreteViewShadowNodeIXadL_ZNS0_23ScrollViewComponentNameEEENS0_19BaseScrollViewPropsENS0_22ScrollViewEventEmitterENS0_15ScrollViewStateEE24canChildrenBeTouchTargetEv, symObjAddr: 0x5F0, symBinAddr: 0x2E370, symSize: 0x18 }
  - { offset: 0x2A7A72, size: 0x8, addend: 0x0, symName: __ZNK8facebook5react22ConcreteViewShadowNodeIXadL_ZNS0_23ScrollViewComponentNameEEENS0_19BaseScrollViewPropsENS0_22ScrollViewEventEmitterENS0_15ScrollViewStateEE24canChildrenBeTouchTargetEv, symObjAddr: 0x5F0, symBinAddr: 0x2E370, symSize: 0x18 }
  - { offset: 0x2A834A, size: 0x8, addend: 0x0, symName: __ZNSt3__120__shared_ptr_emplaceIKN8facebook5react13ConcreteStateINS2_15ScrollViewStateEEENS_9allocatorIS5_EEEC2B8ne200100IJNS_10shared_ptrIKS4_EERKNS2_5StateEES8_Li0EEES8_DpOT_, symObjAddr: 0x994, symBinAddr: 0x2E3E8, symSize: 0x4C }
  - { offset: 0x2A851A, size: 0x8, addend: 0x0, symName: __ZNSt3__120__shared_ptr_emplaceIKN8facebook5react13ConcreteStateINS2_15ScrollViewStateEEENS_9allocatorIS5_EEED1Ev, symObjAddr: 0x9E0, symBinAddr: 0x2E434, symSize: 0x14 }
  - { offset: 0x2A853C, size: 0x8, addend: 0x0, symName: __ZNSt3__120__shared_ptr_emplaceIKN8facebook5react13ConcreteStateINS2_15ScrollViewStateEEENS_9allocatorIS5_EEED1Ev, symObjAddr: 0x9E0, symBinAddr: 0x2E434, symSize: 0x14 }
  - { offset: 0x2A8572, size: 0x8, addend: 0x0, symName: __ZNSt3__120__shared_ptr_emplaceIKN8facebook5react13ConcreteStateINS2_15ScrollViewStateEEENS_9allocatorIS5_EEED0Ev, symObjAddr: 0x9F4, symBinAddr: 0x2E448, symSize: 0x24 }
  - { offset: 0x2A8641, size: 0x8, addend: 0x0, symName: __ZNSt3__120__shared_ptr_emplaceIKN8facebook5react13ConcreteStateINS2_15ScrollViewStateEEENS_9allocatorIS5_EEE16__on_zero_sharedEv, symObjAddr: 0xA18, symBinAddr: 0x2E46C, symSize: 0xC }
  - { offset: 0x2A866A, size: 0x8, addend: 0x0, symName: __ZNSt3__120__shared_ptr_emplaceIKN8facebook5react13ConcreteStateINS2_15ScrollViewStateEEENS_9allocatorIS5_EEE16__on_zero_sharedEv, symObjAddr: 0xA18, symBinAddr: 0x2E46C, symSize: 0xC }
  - { offset: 0x2A8687, size: 0x8, addend: 0x0, symName: __ZNSt3__120__shared_ptr_emplaceIKN8facebook5react13ConcreteStateINS2_15ScrollViewStateEEENS_9allocatorIS5_EEE16__on_zero_sharedEv, symObjAddr: 0xA18, symBinAddr: 0x2E46C, symSize: 0xC }
  - { offset: 0x2A86A4, size: 0x8, addend: 0x0, symName: __ZNSt3__120__shared_ptr_emplaceIKN8facebook5react13ConcreteStateINS2_15ScrollViewStateEEENS_9allocatorIS5_EEE16__on_zero_sharedEv, symObjAddr: 0xA18, symBinAddr: 0x2E46C, symSize: 0xC }
  - { offset: 0x2A86CF, size: 0x8, addend: 0x0, symName: __ZNSt3__120__shared_ptr_emplaceIKN8facebook5react13ConcreteStateINS2_15ScrollViewStateEEENS_9allocatorIS5_EEE21__on_zero_shared_weakEv, symObjAddr: 0xA24, symBinAddr: 0x2E478, symSize: 0x4 }
  - { offset: 0x2A8701, size: 0x8, addend: 0x0, symName: __ZNSt3__120__shared_ptr_emplaceIKN8facebook5react13ConcreteStateINS2_15ScrollViewStateEEENS_9allocatorIS5_EEE21__on_zero_shared_weakEv, symObjAddr: 0xA24, symBinAddr: 0x2E478, symSize: 0x4 }
  - { offset: 0x2A8722, size: 0x8, addend: 0x0, symName: __ZNSt3__120__shared_ptr_emplaceIKN8facebook5react13ConcreteStateINS2_15ScrollViewStateEEENS_9allocatorIS5_EEE21__on_zero_shared_weakEv, symObjAddr: 0xA24, symBinAddr: 0x2E478, symSize: 0x4 }
  - { offset: 0x2A8744, size: 0x8, addend: 0x0, symName: __ZNSt3__120__shared_ptr_emplaceIKN8facebook5react13ConcreteStateINS2_15ScrollViewStateEEENS_9allocatorIS5_EEE21__on_zero_shared_weakEv, symObjAddr: 0xA24, symBinAddr: 0x2E478, symSize: 0x4 }
  - { offset: 0x2A8776, size: 0x8, addend: 0x0, symName: __ZNSt3__120__shared_ptr_emplaceIKN8facebook5react13ConcreteStateINS2_15ScrollViewStateEEENS_9allocatorIS5_EEE21__on_zero_shared_weakEv, symObjAddr: 0xA24, symBinAddr: 0x2E478, symSize: 0x4 }
  - { offset: 0x2A881C, size: 0x8, addend: 0x0, symName: __ZN8facebook5react13ConcreteStateINS0_15ScrollViewStateEEC2ENSt3__110shared_ptrIKS2_EERKNS0_5StateE, symObjAddr: 0xAB0, symBinAddr: 0x2E504, symSize: 0x98 }
  - { offset: 0x2A8A91, size: 0x8, addend: 0x0, symName: __ZN8facebook5react13ConcreteStateINS0_15ScrollViewStateEED1Ev, symObjAddr: 0xB48, symBinAddr: 0x2E59C, symSize: 0x4 }
  - { offset: 0x2A8AB3, size: 0x8, addend: 0x0, symName: __ZN8facebook5react13ConcreteStateINS0_15ScrollViewStateEED1Ev, symObjAddr: 0xB48, symBinAddr: 0x2E59C, symSize: 0x4 }
  - { offset: 0x2A8AD0, size: 0x8, addend: 0x0, symName: __ZN8facebook5react13ConcreteStateINS0_15ScrollViewStateEED1Ev, symObjAddr: 0xB48, symBinAddr: 0x2E59C, symSize: 0x4 }
  - { offset: 0x2A8B4D, size: 0x8, addend: 0x0, symName: __ZN8facebook5react13ConcreteStateINS0_15ScrollViewStateEED0Ev, symObjAddr: 0xB4C, symBinAddr: 0x2E5A0, symSize: 0x14 }
  - { offset: 0x2A8C23, size: 0x8, addend: 0x0, symName: __ZNSt3__120__shared_ptr_emplaceIKN8facebook5react15ScrollViewStateENS_9allocatorIS3_EEED1Ev, symObjAddr: 0xC10, symBinAddr: 0x2E5B4, symSize: 0x14 }
  - { offset: 0x2A8C45, size: 0x8, addend: 0x0, symName: __ZNSt3__120__shared_ptr_emplaceIKN8facebook5react15ScrollViewStateENS_9allocatorIS3_EEED1Ev, symObjAddr: 0xC10, symBinAddr: 0x2E5B4, symSize: 0x14 }
  - { offset: 0x2A8C7B, size: 0x8, addend: 0x0, symName: __ZNSt3__120__shared_ptr_emplaceIKN8facebook5react15ScrollViewStateENS_9allocatorIS3_EEED0Ev, symObjAddr: 0xC24, symBinAddr: 0x2E5C8, symSize: 0x24 }
  - { offset: 0x2A8CDE, size: 0x8, addend: 0x0, symName: __ZNSt3__120__shared_ptr_emplaceIKN8facebook5react15ScrollViewStateENS_9allocatorIS3_EEE16__on_zero_sharedEv, symObjAddr: 0xC48, symBinAddr: 0x2E5EC, symSize: 0x4 }
  - { offset: 0x2A8D64, size: 0x8, addend: 0x0, symName: __ZNSt3__120__shared_ptr_emplaceIKN8facebook5react15ScrollViewStateENS_9allocatorIS3_EEE21__on_zero_shared_weakEv, symObjAddr: 0xC4C, symBinAddr: 0x2E5F0, symSize: 0x4 }
  - { offset: 0x2A8D96, size: 0x8, addend: 0x0, symName: __ZNSt3__120__shared_ptr_emplaceIKN8facebook5react15ScrollViewStateENS_9allocatorIS3_EEE21__on_zero_shared_weakEv, symObjAddr: 0xC4C, symBinAddr: 0x2E5F0, symSize: 0x4 }
  - { offset: 0x2A8DB7, size: 0x8, addend: 0x0, symName: __ZNSt3__120__shared_ptr_emplaceIKN8facebook5react15ScrollViewStateENS_9allocatorIS3_EEE21__on_zero_shared_weakEv, symObjAddr: 0xC4C, symBinAddr: 0x2E5F0, symSize: 0x4 }
  - { offset: 0x2A8DD9, size: 0x8, addend: 0x0, symName: __ZNSt3__120__shared_ptr_emplaceIKN8facebook5react15ScrollViewStateENS_9allocatorIS3_EEE21__on_zero_shared_weakEv, symObjAddr: 0xC4C, symBinAddr: 0x2E5F0, symSize: 0x4 }
  - { offset: 0x2A8E0B, size: 0x8, addend: 0x0, symName: __ZNSt3__120__shared_ptr_emplaceIKN8facebook5react15ScrollViewStateENS_9allocatorIS3_EEE21__on_zero_shared_weakEv, symObjAddr: 0xC4C, symBinAddr: 0x2E5F0, symSize: 0x4 }
  - { offset: 0x2AAEF2, size: 0x8, addend: 0x0, symName: __ZN8facebook5react15ScrollViewStateC2ENS0_5PointENS0_4RectEi, symObjAddr: 0x0, symBinAddr: 0x2E5F4, symSize: 0x14 }
  - { offset: 0x2AAF1A, size: 0x8, addend: 0x0, symName: __ZN8facebook5react15ScrollViewStateC2ENS0_5PointENS0_4RectEi, symObjAddr: 0x0, symBinAddr: 0x2E5F4, symSize: 0x14 }
  - { offset: 0x2AAF96, size: 0x8, addend: 0x0, symName: __ZN8facebook5react15ScrollViewStateC1ENS0_5PointENS0_4RectEi, symObjAddr: 0x14, symBinAddr: 0x2E608, symSize: 0x14 }
  - { offset: 0x2AAFE7, size: 0x8, addend: 0x0, symName: __ZN8facebook5react15ScrollViewStateC1ENS0_5PointENS0_4RectEi, symObjAddr: 0x14, symBinAddr: 0x2E608, symSize: 0x14 }
  - { offset: 0x2AB01A, size: 0x8, addend: 0x0, symName: __ZNK8facebook5react15ScrollViewState14getContentSizeEv, symObjAddr: 0x28, symBinAddr: 0x2E61C, symSize: 0x8 }
  - { offset: 0x2ADC88, size: 0x8, addend: 0x0, symName: __ZNK8facebook5react21TextInputEventEmitter7onFocusERKNS1_7MetricsE, symObjAddr: 0x0, symBinAddr: 0x2E624, symSize: 0x78 }
  - { offset: 0x2B8587, size: 0x8, addend: 0x0, symName: __ZNK8facebook5react21TextInputEventEmitter10onKeyPressERKNS1_15KeyPressMetricsE, symObjAddr: 0x7E0, symBinAddr: 0x2EE04, symSize: 0x1C4 }
  - { offset: 0x2B9137, size: 0x8, addend: 0x0, symName: __ZNK8facebook5react21TextInputEventEmitter8onScrollERKNS1_7MetricsE, symObjAddr: 0x9A4, symBinAddr: 0x2EFC8, symSize: 0x22C }
  - { offset: 0x2B9CF9, size: 0x8, addend: 0x0, symName: __ZNK8facebook5react21TextInputEventEmitter22dispatchTextInputEventERKNSt3__112basic_stringIcNS2_11char_traitsIcEENS2_9allocatorIcEEEERKNS1_7MetricsEb, symObjAddr: 0x78, symBinAddr: 0x2E69C, symSize: 0x254 }
  - { offset: 0x2BA883, size: 0x8, addend: 0x0, symName: __ZNK8facebook5react21TextInputEventEmitter39dispatchTextInputContentSizeChangeEventERKNSt3__112basic_stringIcNS2_11char_traitsIcEENS2_9allocatorIcEEEERKNS1_7MetricsE, symObjAddr: 0x430, symBinAddr: 0x2EA54, symSize: 0x248 }
  - { offset: 0x2BB5B4, size: 0x8, addend: 0x0, symName: __ZNK8facebook5react21TextInputEventEmitter7onFocusERKNS1_7MetricsE, symObjAddr: 0x0, symBinAddr: 0x2E624, symSize: 0x78 }
  - { offset: 0x2BC070, size: 0x8, addend: 0x0, symName: '__ZNSt3__110__function6__funcIZNK8facebook5react21TextInputEventEmitter10onKeyPressERKNS4_15KeyPressMetricsEE3$_0NS_9allocatorIS8_EEFNS2_3jsi5ValueERNSB_7RuntimeEEED1Ev', symObjAddr: 0xD7C, symBinAddr: 0x2F1F4, symSize: 0x3C }
  - { offset: 0x2BC07B, size: 0x8, addend: 0x0, symName: __ZNK8facebook5react21TextInputEventEmitter6onBlurERKNS1_7MetricsE, symObjAddr: 0x2CC, symBinAddr: 0x2E8F0, symSize: 0x78 }
  - { offset: 0x2BC31D, size: 0x8, addend: 0x0, symName: __ZNK8facebook5react21TextInputEventEmitter8onChangeERKNS1_7MetricsE, symObjAddr: 0x344, symBinAddr: 0x2E968, symSize: 0x78 }
  - { offset: 0x2BC5BF, size: 0x8, addend: 0x0, symName: __ZNK8facebook5react21TextInputEventEmitter19onContentSizeChangeERKNS1_7MetricsE, symObjAddr: 0x3BC, symBinAddr: 0x2E9E0, symSize: 0x74 }
  - { offset: 0x2BCC62, size: 0x8, addend: 0x0, symName: __ZNK8facebook5react21TextInputEventEmitter17onSelectionChangeERKNS1_7MetricsE, symObjAddr: 0x678, symBinAddr: 0x2EC9C, symSize: 0x78 }
  - { offset: 0x2BCF04, size: 0x8, addend: 0x0, symName: __ZNK8facebook5react21TextInputEventEmitter12onEndEditingERKNS1_7MetricsE, symObjAddr: 0x6F0, symBinAddr: 0x2ED14, symSize: 0x78 }
  - { offset: 0x2BD1A6, size: 0x8, addend: 0x0, symName: __ZNK8facebook5react21TextInputEventEmitter15onSubmitEditingERKNS1_7MetricsE, symObjAddr: 0x768, symBinAddr: 0x2ED8C, symSize: 0x78 }
  - { offset: 0x2BDF20, size: 0x8, addend: 0x0, symName: '__ZNSt3__110__function6__funcIZNK8facebook5react21TextInputEventEmitter10onKeyPressERKNS4_15KeyPressMetricsEE3$_0NS_9allocatorIS8_EEFNS2_3jsi5ValueERNSB_7RuntimeEEED1Ev', symObjAddr: 0xD7C, symBinAddr: 0x2F1F4, symSize: 0x3C }
  - { offset: 0x2BE136, size: 0x8, addend: 0x0, symName: '__ZNSt3__110__function6__funcIZNK8facebook5react21TextInputEventEmitter10onKeyPressERKNS4_15KeyPressMetricsEE3$_0NS_9allocatorIS8_EEFNS2_3jsi5ValueERNSB_7RuntimeEEED0Ev', symObjAddr: 0xDB8, symBinAddr: 0x2F230, symSize: 0x3C }
  - { offset: 0x2BE500, size: 0x8, addend: 0x0, symName: '__ZNKSt3__110__function6__funcIZNK8facebook5react21TextInputEventEmitter10onKeyPressERKNS4_15KeyPressMetricsEE3$_0NS_9allocatorIS8_EEFNS2_3jsi5ValueERNSB_7RuntimeEEE7__cloneEv', symObjAddr: 0xDF4, symBinAddr: 0x2F26C, symSize: 0x78 }
  - { offset: 0x2BE8B9, size: 0x8, addend: 0x0, symName: '__ZNKSt3__110__function6__funcIZNK8facebook5react21TextInputEventEmitter10onKeyPressERKNS4_15KeyPressMetricsEE3$_0NS_9allocatorIS8_EEFNS2_3jsi5ValueERNSB_7RuntimeEEE7__cloneEPNS0_6__baseISF_EE', symObjAddr: 0xE6C, symBinAddr: 0x2F2E4, symSize: 0x5C }
  - { offset: 0x2BEA66, size: 0x8, addend: 0x0, symName: '__ZNSt3__110__function6__funcIZNK8facebook5react21TextInputEventEmitter10onKeyPressERKNS4_15KeyPressMetricsEE3$_0NS_9allocatorIS8_EEFNS2_3jsi5ValueERNSB_7RuntimeEEE7destroyEv', symObjAddr: 0xEC8, symBinAddr: 0x2F340, symSize: 0x14 }
  - { offset: 0x2BEB24, size: 0x8, addend: 0x0, symName: '__ZNSt3__110__function6__funcIZNK8facebook5react21TextInputEventEmitter10onKeyPressERKNS4_15KeyPressMetricsEE3$_0NS_9allocatorIS8_EEFNS2_3jsi5ValueERNSB_7RuntimeEEE7destroyEv', symObjAddr: 0xEC8, symBinAddr: 0x2F340, symSize: 0x14 }
  - { offset: 0x2BEBDF, size: 0x8, addend: 0x0, symName: '__ZNSt3__110__function6__funcIZNK8facebook5react21TextInputEventEmitter10onKeyPressERKNS4_15KeyPressMetricsEE3$_0NS_9allocatorIS8_EEFNS2_3jsi5ValueERNSB_7RuntimeEEE18destroy_deallocateEv', symObjAddr: 0xEDC, symBinAddr: 0x2F354, symSize: 0x30 }
  - { offset: 0x2BF213, size: 0x8, addend: 0x0, symName: '__ZNSt3__110__function6__funcIZNK8facebook5react21TextInputEventEmitter10onKeyPressERKNS4_15KeyPressMetricsEE3$_0NS_9allocatorIS8_EEFNS2_3jsi5ValueERNSB_7RuntimeEEEclESE_', symObjAddr: 0xF0C, symBinAddr: 0x2F384, symSize: 0x220 }
  - { offset: 0x2BFD2C, size: 0x8, addend: 0x0, symName: __ZNK8facebook3jsi6Object11setPropertyIRKiEEvRNS0_7RuntimeEPKcOT_, symObjAddr: 0x1174, symBinAddr: 0x2F5EC, symSize: 0xA4 }
  - { offset: 0x2BFF00, size: 0x8, addend: 0x0, symName: __ZNK8facebook3jsi6Object11setPropertyINS0_6StringEEEvRNS0_7RuntimeEPKcOT_, symObjAddr: 0x1218, symBinAddr: 0x2F690, symSize: 0xA4 }
  - { offset: 0x2C00D4, size: 0x8, addend: 0x0, symName: '__ZNKSt3__110__function6__funcIZNK8facebook5react21TextInputEventEmitter10onKeyPressERKNS4_15KeyPressMetricsEE3$_0NS_9allocatorIS8_EEFNS2_3jsi5ValueERNSB_7RuntimeEEE6targetERKSt9type_info', symObjAddr: 0x112C, symBinAddr: 0x2F5A4, symSize: 0x3C }
  - { offset: 0x2C0187, size: 0x8, addend: 0x0, symName: '__ZNKSt3__110__function6__funcIZNK8facebook5react21TextInputEventEmitter10onKeyPressERKNS4_15KeyPressMetricsEE3$_0NS_9allocatorIS8_EEFNS2_3jsi5ValueERNSB_7RuntimeEEE11target_typeEv', symObjAddr: 0x1168, symBinAddr: 0x2F5E0, symSize: 0xC }
  - { offset: 0x2C01FB, size: 0x8, addend: 0x0, symName: __ZNK8facebook3jsi6Object11setPropertyIRKiEEvRNS0_7RuntimeERKNS0_6StringEOT_, symObjAddr: 0x12BC, symBinAddr: 0x2F734, symSize: 0x6C }
  - { offset: 0x2C0344, size: 0x8, addend: 0x0, symName: __ZNK8facebook3jsi6Object11setPropertyINS0_6StringEEEvRNS0_7RuntimeERKS3_OT_, symObjAddr: 0x1328, symBinAddr: 0x2F7A0, symSize: 0x90 }
  - { offset: 0x2C06A2, size: 0x8, addend: 0x0, symName: '__ZNSt3__110__function6__funcIZNK8facebook5react21TextInputEventEmitter8onScrollERKNS4_7MetricsEE3$_0NS_9allocatorIS8_EEFNS2_3jsi5ValueERNSB_7RuntimeEEED1Ev', symObjAddr: 0x1404, symBinAddr: 0x2F830, symSize: 0x3C }
  - { offset: 0x2C08B8, size: 0x8, addend: 0x0, symName: '__ZNSt3__110__function6__funcIZNK8facebook5react21TextInputEventEmitter8onScrollERKNS4_7MetricsEE3$_0NS_9allocatorIS8_EEFNS2_3jsi5ValueERNSB_7RuntimeEEED0Ev', symObjAddr: 0x1440, symBinAddr: 0x2F86C, symSize: 0x3C }
  - { offset: 0x2C0C82, size: 0x8, addend: 0x0, symName: '__ZNKSt3__110__function6__funcIZNK8facebook5react21TextInputEventEmitter8onScrollERKNS4_7MetricsEE3$_0NS_9allocatorIS8_EEFNS2_3jsi5ValueERNSB_7RuntimeEEE7__cloneEv', symObjAddr: 0x147C, symBinAddr: 0x2F8A8, symSize: 0x98 }
  - { offset: 0x2C103D, size: 0x8, addend: 0x0, symName: '__ZNKSt3__110__function6__funcIZNK8facebook5react21TextInputEventEmitter8onScrollERKNS4_7MetricsEE3$_0NS_9allocatorIS8_EEFNS2_3jsi5ValueERNSB_7RuntimeEEE7__cloneEPNS0_6__baseISF_EE', symObjAddr: 0x1514, symBinAddr: 0x2F940, symSize: 0x7C }
  - { offset: 0x2C11EA, size: 0x8, addend: 0x0, symName: '__ZNSt3__110__function6__funcIZNK8facebook5react21TextInputEventEmitter8onScrollERKNS4_7MetricsEE3$_0NS_9allocatorIS8_EEFNS2_3jsi5ValueERNSB_7RuntimeEEE7destroyEv', symObjAddr: 0x1590, symBinAddr: 0x2F9BC, symSize: 0x14 }
  - { offset: 0x2C12A8, size: 0x8, addend: 0x0, symName: '__ZNSt3__110__function6__funcIZNK8facebook5react21TextInputEventEmitter8onScrollERKNS4_7MetricsEE3$_0NS_9allocatorIS8_EEFNS2_3jsi5ValueERNSB_7RuntimeEEE7destroyEv', symObjAddr: 0x1590, symBinAddr: 0x2F9BC, symSize: 0x14 }
  - { offset: 0x2C1363, size: 0x8, addend: 0x0, symName: '__ZNSt3__110__function6__funcIZNK8facebook5react21TextInputEventEmitter8onScrollERKNS4_7MetricsEE3$_0NS_9allocatorIS8_EEFNS2_3jsi5ValueERNSB_7RuntimeEEE18destroy_deallocateEv', symObjAddr: 0x15A4, symBinAddr: 0x2F9D0, symSize: 0x30 }
  - { offset: 0x2C1641, size: 0x8, addend: 0x0, symName: '__ZNSt3__110__function6__funcIZNK8facebook5react21TextInputEventEmitter8onScrollERKNS4_7MetricsEE3$_0NS_9allocatorIS8_EEFNS2_3jsi5ValueERNSB_7RuntimeEEEclESE_', symObjAddr: 0x15D4, symBinAddr: 0x2FA00, symSize: 0x2EC }
  - { offset: 0x2C2357, size: 0x8, addend: 0x0, symName: '__ZNKSt3__110__function6__funcIZNK8facebook5react21TextInputEventEmitter8onScrollERKNS4_7MetricsEE3$_0NS_9allocatorIS8_EEFNS2_3jsi5ValueERNSB_7RuntimeEEE6targetERKSt9type_info', symObjAddr: 0x18C0, symBinAddr: 0x2FCEC, symSize: 0x3C }
  - { offset: 0x2C23A4, size: 0x8, addend: 0x0, symName: '__ZNKSt3__110__function6__funcIZNK8facebook5react21TextInputEventEmitter8onScrollERKNS4_7MetricsEE3$_0NS_9allocatorIS8_EEFNS2_3jsi5ValueERNSB_7RuntimeEEE11target_typeEv', symObjAddr: 0x18FC, symBinAddr: 0x2FD28, symSize: 0xC }
  - { offset: 0x2C27AE, size: 0x8, addend: 0x0, symName: '__ZNSt3__110__function6__funcIZNK8facebook5react21TextInputEventEmitter22dispatchTextInputEventERKNS_12basic_stringIcNS_11char_traitsIcEENS_9allocatorIcEEEERKNS4_7MetricsEbE3$_0NS8_ISG_EEFNS2_3jsi5ValueERNSI_7RuntimeEEED1Ev', symObjAddr: 0x1C54, symBinAddr: 0x2FD34, symSize: 0x3C }
  - { offset: 0x2C29C4, size: 0x8, addend: 0x0, symName: '__ZNSt3__110__function6__funcIZNK8facebook5react21TextInputEventEmitter22dispatchTextInputEventERKNS_12basic_stringIcNS_11char_traitsIcEENS_9allocatorIcEEEERKNS4_7MetricsEbE3$_0NS8_ISG_EEFNS2_3jsi5ValueERNSI_7RuntimeEEED0Ev', symObjAddr: 0x1C90, symBinAddr: 0x2FD70, symSize: 0x3C }
  - { offset: 0x2C2D8E, size: 0x8, addend: 0x0, symName: '__ZNKSt3__110__function6__funcIZNK8facebook5react21TextInputEventEmitter22dispatchTextInputEventERKNS_12basic_stringIcNS_11char_traitsIcEENS_9allocatorIcEEEERKNS4_7MetricsEbE3$_0NS8_ISG_EEFNS2_3jsi5ValueERNSI_7RuntimeEEE7__cloneEv', symObjAddr: 0x1CCC, symBinAddr: 0x2FDAC, symSize: 0xBC }
  - { offset: 0x2C3146, size: 0x8, addend: 0x0, symName: '__ZNKSt3__110__function6__funcIZNK8facebook5react21TextInputEventEmitter22dispatchTextInputEventERKNS_12basic_stringIcNS_11char_traitsIcEENS_9allocatorIcEEEERKNS4_7MetricsEbE3$_0NS8_ISG_EEFNS2_3jsi5ValueERNSI_7RuntimeEEE7__cloneEPNS0_6__baseISM_EE', symObjAddr: 0x1D88, symBinAddr: 0x2FE68, symSize: 0x9C }
  - { offset: 0x2C3314, size: 0x8, addend: 0x0, symName: '__ZNSt3__110__function6__funcIZNK8facebook5react21TextInputEventEmitter22dispatchTextInputEventERKNS_12basic_stringIcNS_11char_traitsIcEENS_9allocatorIcEEEERKNS4_7MetricsEbE3$_0NS8_ISG_EEFNS2_3jsi5ValueERNSI_7RuntimeEEE7destroyEv', symObjAddr: 0x1E24, symBinAddr: 0x2FF04, symSize: 0x14 }
  - { offset: 0x2C33D2, size: 0x8, addend: 0x0, symName: '__ZNSt3__110__function6__funcIZNK8facebook5react21TextInputEventEmitter22dispatchTextInputEventERKNS_12basic_stringIcNS_11char_traitsIcEENS_9allocatorIcEEEERKNS4_7MetricsEbE3$_0NS8_ISG_EEFNS2_3jsi5ValueERNSI_7RuntimeEEE7destroyEv', symObjAddr: 0x1E24, symBinAddr: 0x2FF04, symSize: 0x14 }
  - { offset: 0x2C348D, size: 0x8, addend: 0x0, symName: '__ZNSt3__110__function6__funcIZNK8facebook5react21TextInputEventEmitter22dispatchTextInputEventERKNS_12basic_stringIcNS_11char_traitsIcEENS_9allocatorIcEEEERKNS4_7MetricsEbE3$_0NS8_ISG_EEFNS2_3jsi5ValueERNSI_7RuntimeEEE18destroy_deallocateEv', symObjAddr: 0x1E38, symBinAddr: 0x2FF18, symSize: 0x30 }
  - { offset: 0x2C376B, size: 0x8, addend: 0x0, symName: '__ZNSt3__110__function6__funcIZNK8facebook5react21TextInputEventEmitter22dispatchTextInputEventERKNS_12basic_stringIcNS_11char_traitsIcEENS_9allocatorIcEEEERKNS4_7MetricsEbE3$_0NS8_ISG_EEFNS2_3jsi5ValueERNSI_7RuntimeEEEclESL_', symObjAddr: 0x1E68, symBinAddr: 0x2FF48, symSize: 0x1CC }
  - { offset: 0x2C3EF0, size: 0x8, addend: 0x0, symName: '__ZNKSt3__110__function6__funcIZNK8facebook5react21TextInputEventEmitter22dispatchTextInputEventERKNS_12basic_stringIcNS_11char_traitsIcEENS_9allocatorIcEEEERKNS4_7MetricsEbE3$_0NS8_ISG_EEFNS2_3jsi5ValueERNSI_7RuntimeEEE6targetERKSt9type_info', symObjAddr: 0x2034, symBinAddr: 0x30114, symSize: 0x3C }
  - { offset: 0x2C3F3D, size: 0x8, addend: 0x0, symName: '__ZNKSt3__110__function6__funcIZNK8facebook5react21TextInputEventEmitter22dispatchTextInputEventERKNS_12basic_stringIcNS_11char_traitsIcEENS_9allocatorIcEEEERKNS4_7MetricsEbE3$_0NS8_ISG_EEFNS2_3jsi5ValueERNSI_7RuntimeEEE11target_typeEv', symObjAddr: 0x2070, symBinAddr: 0x30150, symSize: 0xC }
  - { offset: 0x2C4099, size: 0x8, addend: 0x0, symName: '__ZNSt3__110__function6__funcIZNK8facebook5react21TextInputEventEmitter39dispatchTextInputContentSizeChangeEventERKNS_12basic_stringIcNS_11char_traitsIcEENS_9allocatorIcEEEERKNS4_7MetricsEE3$_0NS8_ISG_EEFNS2_3jsi5ValueERNSI_7RuntimeEEED1Ev', symObjAddr: 0x218C, symBinAddr: 0x3015C, symSize: 0x3C }
  - { offset: 0x2C42AF, size: 0x8, addend: 0x0, symName: '__ZNSt3__110__function6__funcIZNK8facebook5react21TextInputEventEmitter39dispatchTextInputContentSizeChangeEventERKNS_12basic_stringIcNS_11char_traitsIcEENS_9allocatorIcEEEERKNS4_7MetricsEE3$_0NS8_ISG_EEFNS2_3jsi5ValueERNSI_7RuntimeEEED0Ev', symObjAddr: 0x21C8, symBinAddr: 0x30198, symSize: 0x3C }
  - { offset: 0x2C4679, size: 0x8, addend: 0x0, symName: '__ZNKSt3__110__function6__funcIZNK8facebook5react21TextInputEventEmitter39dispatchTextInputContentSizeChangeEventERKNS_12basic_stringIcNS_11char_traitsIcEENS_9allocatorIcEEEERKNS4_7MetricsEE3$_0NS8_ISG_EEFNS2_3jsi5ValueERNSI_7RuntimeEEE7__cloneEv', symObjAddr: 0x2204, symBinAddr: 0x301D4, symSize: 0x98 }
  - { offset: 0x2C4A34, size: 0x8, addend: 0x0, symName: '__ZNKSt3__110__function6__funcIZNK8facebook5react21TextInputEventEmitter39dispatchTextInputContentSizeChangeEventERKNS_12basic_stringIcNS_11char_traitsIcEENS_9allocatorIcEEEERKNS4_7MetricsEE3$_0NS8_ISG_EEFNS2_3jsi5ValueERNSI_7RuntimeEEE7__cloneEPNS0_6__baseISM_EE', symObjAddr: 0x229C, symBinAddr: 0x3026C, symSize: 0x7C }
  - { offset: 0x2C4BE1, size: 0x8, addend: 0x0, symName: '__ZNSt3__110__function6__funcIZNK8facebook5react21TextInputEventEmitter39dispatchTextInputContentSizeChangeEventERKNS_12basic_stringIcNS_11char_traitsIcEENS_9allocatorIcEEEERKNS4_7MetricsEE3$_0NS8_ISG_EEFNS2_3jsi5ValueERNSI_7RuntimeEEE7destroyEv', symObjAddr: 0x2318, symBinAddr: 0x302E8, symSize: 0x14 }
  - { offset: 0x2C4C9F, size: 0x8, addend: 0x0, symName: '__ZNSt3__110__function6__funcIZNK8facebook5react21TextInputEventEmitter39dispatchTextInputContentSizeChangeEventERKNS_12basic_stringIcNS_11char_traitsIcEENS_9allocatorIcEEEERKNS4_7MetricsEE3$_0NS8_ISG_EEFNS2_3jsi5ValueERNSI_7RuntimeEEE7destroyEv', symObjAddr: 0x2318, symBinAddr: 0x302E8, symSize: 0x14 }
  - { offset: 0x2C4D5A, size: 0x8, addend: 0x0, symName: '__ZNSt3__110__function6__funcIZNK8facebook5react21TextInputEventEmitter39dispatchTextInputContentSizeChangeEventERKNS_12basic_stringIcNS_11char_traitsIcEENS_9allocatorIcEEEERKNS4_7MetricsEE3$_0NS8_ISG_EEFNS2_3jsi5ValueERNSI_7RuntimeEEE18destroy_deallocateEv', symObjAddr: 0x232C, symBinAddr: 0x302FC, symSize: 0x30 }
  - { offset: 0x2C5038, size: 0x8, addend: 0x0, symName: '__ZNSt3__110__function6__funcIZNK8facebook5react21TextInputEventEmitter39dispatchTextInputContentSizeChangeEventERKNS_12basic_stringIcNS_11char_traitsIcEENS_9allocatorIcEEEERKNS4_7MetricsEE3$_0NS8_ISG_EEFNS2_3jsi5ValueERNSI_7RuntimeEEEclESL_', symObjAddr: 0x235C, symBinAddr: 0x3032C, symSize: 0x10C }
  - { offset: 0x2C547A, size: 0x8, addend: 0x0, symName: '__ZNKSt3__110__function6__funcIZNK8facebook5react21TextInputEventEmitter39dispatchTextInputContentSizeChangeEventERKNS_12basic_stringIcNS_11char_traitsIcEENS_9allocatorIcEEEERKNS4_7MetricsEE3$_0NS8_ISG_EEFNS2_3jsi5ValueERNSI_7RuntimeEEE6targetERKSt9type_info', symObjAddr: 0x2468, symBinAddr: 0x30438, symSize: 0x3C }
  - { offset: 0x2C54C7, size: 0x8, addend: 0x0, symName: '__ZNKSt3__110__function6__funcIZNK8facebook5react21TextInputEventEmitter39dispatchTextInputContentSizeChangeEventERKNS_12basic_stringIcNS_11char_traitsIcEENS_9allocatorIcEEEERKNS4_7MetricsEE3$_0NS8_ISG_EEFNS2_3jsi5ValueERNSI_7RuntimeEEE11target_typeEv', symObjAddr: 0x24A4, symBinAddr: 0x30474, symSize: 0xC }
  - { offset: 0x2C955F, size: 0x8, addend: 0x0, symName: __ZN8facebook5reactL14convertRawPropERKNS0_18PropsParserContextERKNS0_8RawPropsERKNS0_15TextInputTraitsES9_, symObjAddr: 0x294, symBinAddr: 0x30714, symSize: 0x45C }
  - { offset: 0x2C9DBE, size: 0x8, addend: 0x0, symName: __ZN8facebook5react14convertRawPropINSt3__18optionalINS0_9SelectionEEES5_EET_RKNS0_18PropsParserContextERKNS0_8RawPropsEPKcRKS6_RKT0_SE_SE_, symObjAddr: 0x748, symBinAddr: 0x30BC8, symSize: 0x1DC }
  - { offset: 0x2CAB8F, size: 0x8, addend: 0x0, symName: __ZN8facebook5react14convertRawPropINS0_22AutocapitalizationTypeES2_EET_RKNS0_18PropsParserContextERKNS0_8RawPropsEPKcRKS3_RKT0_SB_SB_, symObjAddr: 0x1348, symBinAddr: 0x31164, symSize: 0x1C4 }
  - { offset: 0x2CB352, size: 0x8, addend: 0x0, symName: __ZN8facebook5react14convertRawPropINS0_18KeyboardAppearanceES2_EET_RKNS0_18PropsParserContextERKNS0_8RawPropsEPKcRKS3_RKT0_SB_SB_, symObjAddr: 0x16C4, symBinAddr: 0x31328, symSize: 0x1C4 }
  - { offset: 0x2CB7EC, size: 0x8, addend: 0x0, symName: __ZN8facebook5react14convertRawPropINS0_32TextInputAccessoryVisibilityModeES2_EET_RKNS0_18PropsParserContextERKNS0_8RawPropsEPKcRKS3_RKT0_SB_SB_, symObjAddr: 0x1888, symBinAddr: 0x314EC, symSize: 0x1C4 }
  - { offset: 0x2CBC86, size: 0x8, addend: 0x0, symName: __ZN8facebook5react14convertRawPropINS0_12KeyboardTypeES2_EET_RKNS0_18PropsParserContextERKNS0_8RawPropsEPKcRKS3_RKT0_SB_SB_, symObjAddr: 0x1A4C, symBinAddr: 0x316B0, symSize: 0x1C4 }
  - { offset: 0x2CC120, size: 0x8, addend: 0x0, symName: __ZN8facebook5react14convertRawPropINS0_13ReturnKeyTypeES2_EET_RKNS0_18PropsParserContextERKNS0_8RawPropsEPKcRKS3_RKT0_SB_SB_, symObjAddr: 0x1C10, symBinAddr: 0x31874, symSize: 0x1C4 }
  - { offset: 0x2CC5BA, size: 0x8, addend: 0x0, symName: __ZN8facebook5react14convertRawPropINSt3__16vectorINS2_12basic_stringIcNS2_11char_traitsIcEENS2_9allocatorIcEEEENS7_IS9_EEEESB_EET_RKNS0_18PropsParserContextERKNS0_8RawPropsEPKcRKSC_RKT0_SK_SK_, symObjAddr: 0x1DD4, symBinAddr: 0x31A38, symSize: 0x22C }
  - { offset: 0x2CCC18, size: 0x8, addend: 0x0, symName: __ZN8facebook5react12fromRawValueERKNS0_18PropsParserContextERKNS0_8RawValueERNS0_9SelectionE, symObjAddr: 0x4CE0, symBinAddr: 0x32834, symSize: 0x2B8 }
  - { offset: 0x2CD557, size: 0x8, addend: 0x0, symName: __ZN8facebook5react12fromRawValueERKNS0_18PropsParserContextERKNS0_8RawValueERNS0_22AutocapitalizationTypeE, symObjAddr: 0x203C, symBinAddr: 0x31C64, symSize: 0x1BC }
  - { offset: 0x2CDAA6, size: 0x8, addend: 0x0, symName: __ZN8facebook5react12fromRawValueERKNS0_18PropsParserContextERKNS0_8RawValueERNS0_18KeyboardAppearanceE, symObjAddr: 0x2A7C, symBinAddr: 0x31E20, symSize: 0x14C }
  - { offset: 0x2CDEE4, size: 0x8, addend: 0x0, symName: __ZN8facebook5react12fromRawValueERKNS0_18PropsParserContextERKNS0_8RawValueERNS0_32TextInputAccessoryVisibilityModeE, symObjAddr: 0x2BC8, symBinAddr: 0x31F6C, symSize: 0x208 }
  - { offset: 0x2CE426, size: 0x8, addend: 0x0, symName: __ZN8facebook5react12fromRawValueERKNS0_18PropsParserContextERKNS0_8RawValueERNS0_12KeyboardTypeE, symObjAddr: 0x2DD0, symBinAddr: 0x32174, symSize: 0x3B0 }
  - { offset: 0x2CEBF9, size: 0x8, addend: 0x0, symName: __ZN8facebook5react12fromRawValueERKNS0_18PropsParserContextERKNS0_8RawValueERNS0_13ReturnKeyTypeE, symObjAddr: 0x3180, symBinAddr: 0x32524, symSize: 0x310 }
  - { offset: 0x2F1CD1, size: 0x8, addend: 0x0, symName: __ZN8facebook5react14TextInputPropsC2ERKNS0_18PropsParserContextERKS1_RKNS0_8RawPropsE, symObjAddr: 0x0, symBinAddr: 0x30480, symSize: 0x294 }
  - { offset: 0x2F2869, size: 0x8, addend: 0x0, symName: __ZN8facebook5react15TextInputTraitsD1Ev, symObjAddr: 0x6F0, symBinAddr: 0x30B70, symSize: 0x58 }
  - { offset: 0x2F3616, size: 0x8, addend: 0x0, symName: __ZN8facebook5react12fromRawValueERKNS0_18PropsParserContextERKNS0_8RawValueERNS0_22AutocapitalizationTypeE, symObjAddr: 0x203C, symBinAddr: 0x31C64, symSize: 0x1BC }
  - { offset: 0x2F393A, size: 0x8, addend: 0x0, symName: __ZN8facebook5react12fromRawValueERKNS0_18PropsParserContextERKNS0_8RawValueERNS0_18KeyboardAppearanceE, symObjAddr: 0x2A7C, symBinAddr: 0x31E20, symSize: 0x14C }
  - { offset: 0x2F402A, size: 0x8, addend: 0x0, symName: __ZN8facebook5react14TextInputPropsC1ERKNS0_18PropsParserContextERKS1_RKNS0_8RawPropsE, symObjAddr: 0xDF8, symBinAddr: 0x30DA4, symSize: 0x2AC }
  - { offset: 0x2F4E60, size: 0x8, addend: 0x0, symName: __ZN8facebook5react14TextInputPropsD1Ev, symObjAddr: 0x1234, symBinAddr: 0x31050, symSize: 0x88 }
  - { offset: 0x2F53D0, size: 0x8, addend: 0x0, symName: __ZN8facebook5react14TextInputPropsD0Ev, symObjAddr: 0x12BC, symBinAddr: 0x310D8, symSize: 0x8C }
  - { offset: 0x2F5B42, size: 0x8, addend: 0x0, symName: __ZN8facebook5react14convertRawPropINSt3__16vectorINS2_12basic_stringIcNS2_11char_traitsIcEENS2_9allocatorIcEEEENS7_IS9_EEEESB_EET_RKNS0_18PropsParserContextERKNS0_8RawPropsEPKcRKSC_RKT0_SK_SK_.cold.1, symObjAddr: 0x76F0, symBinAddr: 0x393AC, symSize: 0x54 }
  - { offset: 0x2FDA4A, size: 0x8, addend: 0x0, symName: __ZNK8facebook5react8RawValue7hasTypeINSt3__113unordered_mapINS3_12basic_stringIcNS3_11char_traitsIcEENS3_9allocatorIcEEEEiNS3_4hashISA_EENS3_8equal_toISA_EENS8_INS3_4pairIKSA_iEEEEEEEEbv, symObjAddr: 0x4F98, symBinAddr: 0x32AEC, symSize: 0x64 }
  - { offset: 0x2FDD1C, size: 0x8, addend: 0x0, symName: __ZNK8facebook5react8RawValuecvT_INSt3__113unordered_mapINS4_12basic_stringIcNS4_11char_traitsIcEENS4_9allocatorIcEEEEiNS4_4hashISB_EENS4_8equal_toISB_EENS9_INS4_4pairIKSB_iEEEEEEEEv, symObjAddr: 0x4FFC, symBinAddr: 0x32B50, symSize: 0x38 }
  - { offset: 0x2FDD30, size: 0x8, addend: 0x0, symName: __ZNK8facebook5react8RawValuecvT_INSt3__113unordered_mapINS4_12basic_stringIcNS4_11char_traitsIcEENS4_9allocatorIcEEEEiNS4_4hashISB_EENS4_8equal_toISB_EENS9_INS4_4pairIKSB_iEEEEEEEEv, symObjAddr: 0x4FFC, symBinAddr: 0x32B50, symSize: 0x38 }
  - { offset: 0x2FDE79, size: 0x8, addend: 0x0, symName: __ZNK8facebook5react8RawValue7hasTypeINSt3__16vectorIiNS3_9allocatorIiEEEEEEbv, symObjAddr: 0x5034, symBinAddr: 0x32B88, symSize: 0x68 }
  - { offset: 0x2FDE8D, size: 0x8, addend: 0x0, symName: __ZNK8facebook5react8RawValue7hasTypeINSt3__16vectorIiNS3_9allocatorIiEEEEEEbv, symObjAddr: 0x5034, symBinAddr: 0x32B88, symSize: 0x68 }
  - { offset: 0x2FE145, size: 0x8, addend: 0x0, symName: __ZNK8facebook5react8RawValuecvT_INSt3__16vectorIiNS4_9allocatorIiEEEEEEv, symObjAddr: 0x509C, symBinAddr: 0x32BF0, symSize: 0x38 }
  - { offset: 0x2FE159, size: 0x8, addend: 0x0, symName: __ZNK8facebook5react8RawValuecvT_INSt3__16vectorIiNS4_9allocatorIiEEEEEEv, symObjAddr: 0x509C, symBinAddr: 0x32BF0, symSize: 0x38 }
  - { offset: 0x2FE2A2, size: 0x8, addend: 0x0, symName: __ZN8facebook5react8RawValue14checkValueTypeIiEEbPNS_3jsi7RuntimeERKNS3_5ValueEPNSt3__113unordered_mapINS9_12basic_stringIcNS9_11char_traitsIcEENS9_9allocatorIcEEEET_NS9_4hashISG_EENS9_8equal_toISG_EENSE_INS9_4pairIKSG_SH_EEEEEE, symObjAddr: 0x50D4, symBinAddr: 0x32C28, symSize: 0x17C }
  - { offset: 0x2FE535, size: 0x8, addend: 0x0, symName: __ZN8facebook5react8RawValue14checkValueTypeIiEEbPNS_3jsi7RuntimeERKNS3_5ValueEPNSt3__113unordered_mapINS9_12basic_stringIcNS9_11char_traitsIcEENS9_9allocatorIcEEEET_NS9_4hashISG_EENS9_8equal_toISG_EENSE_INS9_4pairIKSG_SH_EEEEEE, symObjAddr: 0x50D4, symBinAddr: 0x32C28, symSize: 0x17C }
  - { offset: 0x2FEB03, size: 0x8, addend: 0x0, symName: __ZN8facebook5react8RawValue9castValueIiEENSt3__113unordered_mapINS3_12basic_stringIcNS3_11char_traitsIcEENS3_9allocatorIcEEEET_NS3_4hashISA_EENS3_8equal_toISA_EENS8_INS3_4pairIKSA_SB_EEEEEERKN5folly7dynamicEPSK_, symObjAddr: 0x5250, symBinAddr: 0x32DA4, symSize: 0xDC }
  - { offset: 0x2FEE61, size: 0x8, addend: 0x0, symName: __ZN8facebook5react8RawValue9castValueIiEENSt3__113unordered_mapINS3_12basic_stringIcNS3_11char_traitsIcEENS3_9allocatorIcEEEET_NS3_4hashISA_EENS3_8equal_toISA_EENS8_INS3_4pairIKSA_SB_EEEEEEPNS_3jsi7RuntimeERKNSL_5ValueEPSK_, symObjAddr: 0x532C, symBinAddr: 0x32E80, symSize: 0x228 }
  - { offset: 0x2FF928, size: 0x8, addend: 0x0, symName: __ZN8facebook5react8RawValue14checkValueTypeIiEEbPNS_3jsi7RuntimeERKNS3_5ValueEPNSt3__16vectorIT_NS9_9allocatorISB_EEEE, symObjAddr: 0x71B0, symBinAddr: 0x336E4, symSize: 0x104 }
  - { offset: 0x2FFD6B, size: 0x8, addend: 0x0, symName: __ZN8facebook5react8RawValue9castValueIiEENSt3__16vectorIT_NS3_9allocatorIS5_EEEERKN5folly7dynamicEPS8_, symObjAddr: 0x72B4, symBinAddr: 0x337E8, symSize: 0xB8 }
  - { offset: 0x300086, size: 0x8, addend: 0x0, symName: __ZN8facebook5react8RawValue9castValueIiEENSt3__16vectorIT_NS3_9allocatorIS5_EEEEPNS_3jsi7RuntimeERKNS9_5ValueEPS8_, symObjAddr: 0x736C, symBinAddr: 0x338A0, symSize: 0x174 }
  - { offset: 0x300B15, size: 0x8, addend: 0x0, symName: __ZNSt3__112__hash_tableINS_17__hash_value_typeINS_12basic_stringIcNS_11char_traitsIcEENS_9allocatorIcEEEEiEENS_22__unordered_map_hasherIS7_S8_NS_4hashIS7_EENS_8equal_toIS7_EELb1EEENS_21__unordered_map_equalIS7_S8_SD_SB_Lb1EEENS5_IS8_EEE25__emplace_unique_key_argsIS7_JRKNS_21piecewise_construct_tENS_5tupleIJRKS7_EEENSN_IJEEEEEENS_4pairINS_15__hash_iteratorIPNS_11__hash_nodeIS8_PvEEEEbEERKT_DpOT0_, symObjAddr: 0x6364, symBinAddr: 0x330A8, symSize: 0x274 }
  - { offset: 0x30114A, size: 0x8, addend: 0x0, symName: __ZNSt3__112__hash_tableINS_17__hash_value_typeINS_12basic_stringIcNS_11char_traitsIcEENS_9allocatorIcEEEEiEENS_22__unordered_map_hasherIS7_S8_NS_4hashIS7_EENS_8equal_toIS7_EELb1EEENS_21__unordered_map_equalIS7_S8_SD_SB_Lb1EEENS5_IS8_EEE25__emplace_unique_key_argsIS7_JRS7_iEEENS_4pairINS_15__hash_iteratorIPNS_11__hash_nodeIS8_PvEEEEbEERKT_DpOT0_, symObjAddr: 0x6E18, symBinAddr: 0x333C8, symSize: 0x264 }
  - { offset: 0x303100, size: 0x8, addend: 0x0, symName: __ZNSt3__112__hash_tableINS_17__hash_value_typeINS_12basic_stringIcNS_11char_traitsIcEENS_9allocatorIcEEEEiEENS_22__unordered_map_hasherIS7_S8_NS_4hashIS7_EENS_8equal_toIS7_EELb1EEENS_21__unordered_map_equalIS7_S8_SD_SB_Lb1EEENS5_IS8_EEE21__construct_node_hashIRKNS_21piecewise_construct_tEJNS_5tupleIJRKS7_EEENSN_IJEEEEEENS_10unique_ptrINS_11__hash_nodeIS8_PvEENS_22__hash_node_destructorINS5_ISV_EEEEEEmOT_DpOT0_, symObjAddr: 0x65D8, symBinAddr: 0x3331C, symSize: 0xAC }
  - { offset: 0x3046E8, size: 0x8, addend: 0x0, symName: __ZNSt3__112__hash_tableINS_17__hash_value_typeINS_12basic_stringIcNS_11char_traitsIcEENS_9allocatorIcEEEEiEENS_22__unordered_map_hasherIS7_S8_NS_4hashIS7_EENS_8equal_toIS7_EELb1EEENS_21__unordered_map_equalIS7_S8_SD_SB_Lb1EEENS5_IS8_EEE21__construct_node_hashIRS7_JiEEENS_10unique_ptrINS_11__hash_nodeIS8_PvEENS_22__hash_node_destructorINS5_ISO_EEEEEEmOT_DpOT0_, symObjAddr: 0x707C, symBinAddr: 0x3362C, symSize: 0xB8 }
  - { offset: 0x304F09, size: 0x8, addend: 0x0, symName: __ZNSt3__16vectorIiNS_9allocatorIiEEE9push_backB8ne200100EOi, symObjAddr: 0x756C, symBinAddr: 0x33A14, symSize: 0xDC }
  - { offset: 0x304F14, size: 0x8, addend: 0x0, symName: __ZNSt3__16vectorIiNS_9allocatorIiEEE9push_backB8ne200100EOi, symObjAddr: 0x756C, symBinAddr: 0x33A14, symSize: 0xDC }
  - { offset: 0x30779D, size: 0x8, addend: 0x0, symName: __ZN8facebook5react22TextInputComponentNameE, symObjAddr: 0x0, symBinAddr: 0x3C301, symSize: 0x0 }
  - { offset: 0x30C6E5, size: 0x8, addend: 0x0, symName: __ZN8facebook5react17HostPlatformColorL14UndefinedColorE, symObjAddr: 0x156390, symBinAddr: 0x4E260, symSize: 0x0 }
  - { offset: 0x30C861, size: 0x8, addend: 0x0, symName: __ZN8facebook5reactL18EmptyLayoutMetricsE, symObjAddr: 0x53A8, symBinAddr: 0x3C370, symSize: 0x0 }
  - { offset: 0x30D681, size: 0x8, addend: 0x0, symName: __ZN8facebook5react35ensurePlaceholderIfEmpty_DO_NOT_USEERKNS0_16AttributedStringE, symObjAddr: 0x99C, symBinAddr: 0x34428, symSize: 0x440 }
  - { offset: 0x30E793, size: 0x8, addend: 0x0, symName: __ZN8facebook5reacteqERKNS0_19TextMeasureCacheKeyES3_, symObjAddr: 0x3034, symBinAddr: 0x35688, symSize: 0x138 }
  - { offset: 0x30EA2C, size: 0x8, addend: 0x0, symName: __ZN8facebook5react48areAttributedStringFragmentsEquivalentLayoutWiseERKNS0_16AttributedString8FragmentES4_, symObjAddr: 0x316C, symBinAddr: 0x357C0, symSize: 0x1E4 }
  - { offset: 0x30ECC4, size: 0x8, addend: 0x0, symName: __ZN8facebook5react12hash_combineINSt3__112basic_stringIcNS2_11char_traitsIcEENS2_9allocatorIcEEEEJddNS2_8optionalINS0_10FontWeightEEENS9_INS0_9FontStyleEEENS9_INS0_11FontVariantEEENS9_IbEENS9_INS0_15DynamicTypeRampEEEddNS9_INS0_13TextAlignmentEEEEEEvRmRKT_DpRKT0_, symObjAddr: 0x2E44, symBinAddr: 0x35498, symSize: 0x1F0 }
  - { offset: 0x30F1D5, size: 0x8, addend: 0x0, symName: __ZN8facebook5react12hash_combineImJNS0_19ParagraphAttributesENS0_17LayoutConstraintsEEEEvRmRKT_DpRKT0_, symObjAddr: 0x26CC, symBinAddr: 0x351C8, symSize: 0x90 }
  - { offset: 0x30F371, size: 0x8, addend: 0x0, symName: __ZN8facebook5react12hash_combineINS0_19ParagraphAttributesEJEEEvRmRKT_DpRKT0_, symObjAddr: 0x275C, symBinAddr: 0x35258, symSize: 0x7C }
  - { offset: 0x30F42C, size: 0x8, addend: 0x0, symName: __ZN8facebook5react12hash_combineINS0_4SizeEJS2_NS0_15LayoutDirectionEEEEvRmRKT_DpRKT0_, symObjAddr: 0x28F0, symBinAddr: 0x353EC, symSize: 0xAC }
  - { offset: 0x30F6C6, size: 0x8, addend: 0x0, symName: __ZN8facebook5react12hash_combineIiJNS0_13EllipsizeModeENS0_17TextBreakStrategyEbddbNS0_20HyphenationFrequencyEdNSt3__18optionalINS0_21TextAlignmentVerticalEEEEEEvRmRKT_DpRKT0_, symObjAddr: 0x27D8, symBinAddr: 0x352D4, symSize: 0x118 }
  - { offset: 0x30FDA4, size: 0x8, addend: 0x0, symName: __ZN8facebook5react48areAttributedStringFragmentsEquivalentLayoutWiseERKNS0_16AttributedString8FragmentES4_, symObjAddr: 0x316C, symBinAddr: 0x357C0, symSize: 0x1E4 }
  - { offset: 0x30FDE3, size: 0x8, addend: 0x0, symName: __ZN8facebook5react48areAttributedStringFragmentsEquivalentLayoutWiseERKNS0_16AttributedString8FragmentES4_, symObjAddr: 0x316C, symBinAddr: 0x357C0, symSize: 0x1E4 }
  - { offset: 0x30FE12, size: 0x8, addend: 0x0, symName: __ZN8facebook5react48areAttributedStringFragmentsEquivalentLayoutWiseERKNS0_16AttributedString8FragmentES4_, symObjAddr: 0x316C, symBinAddr: 0x357C0, symSize: 0x1E4 }
  - { offset: 0x30FE2E, size: 0x8, addend: 0x0, symName: __ZN8facebook5react48areAttributedStringFragmentsEquivalentLayoutWiseERKNS0_16AttributedString8FragmentES4_, symObjAddr: 0x316C, symBinAddr: 0x357C0, symSize: 0x1E4 }
  - { offset: 0x3104C2, size: 0x8, addend: 0x0, symName: __ZN8facebook5reacteqERKNS0_19LineMeasureCacheKeyES3_, symObjAddr: 0x442C, symBinAddr: 0x364D8, symSize: 0x118 }
  - { offset: 0x3106EE, size: 0x8, addend: 0x0, symName: __ZN8facebook5react12hash_combineImJNS0_19ParagraphAttributesENS0_4SizeEEEEvRmRKT_DpRKT0_, symObjAddr: 0x438C, symBinAddr: 0x36438, symSize: 0xA0 }
  - { offset: 0x313C88, size: 0x8, addend: 0x0, symName: __ZNSt3__119piecewise_constructE, symObjAddr: 0x5440, symBinAddr: 0x3C408, symSize: 0x0 }
  - { offset: 0x31EFBB, size: 0x8, addend: 0x0, symName: __ZNSt3__112__destroy_atB8ne200100INS_4pairIN8facebook5react19LineMeasureCacheKeyENS_6vectorINS3_15LineMeasurementENS_9allocatorIS6_EEEEEELi0EEEvPT_, symObjAddr: 0x1700, symBinAddr: 0x34E50, symSize: 0x70 }
  - { offset: 0x31F959, size: 0x8, addend: 0x0, symName: __ZNSt3__112__destroy_atB8ne200100INS_4pairIN8facebook5react19TextMeasureCacheKeyENS3_15TextMeasurementEEELi0EEEvPT_, symObjAddr: 0x18B0, symBinAddr: 0x34F2C, symSize: 0x70 }
  - { offset: 0x322A78, size: 0x8, addend: 0x0, symName: __ZNSt3__110__list_impINS_4pairIN8facebook5react19TextMeasureCacheKeyENS3_15TextMeasurementEEENS_9allocatorIS6_EEE13__create_nodeB8ne200100IJRKS4_RS5_EEEPNS_11__list_nodeIS6_PvEEPNS_16__list_node_baseIS6_SF_EESK_DpOT_, symObjAddr: 0x390C, symBinAddr: 0x35DC0, symSize: 0x6C }
  - { offset: 0x328057, size: 0x8, addend: 0x0, symName: __ZN8facebook5react17TextLayoutManagerC2ERKNSt3__110shared_ptrIKNS0_16ContextContainerEEE, symObjAddr: 0x0, symBinAddr: 0x33AF0, symSize: 0x154 }
  - { offset: 0x3286E3, size: 0x8, addend: 0x0, symName: __ZN8facebook5react21SimpleThreadSafeCacheINS0_19LineMeasureCacheKeyENSt3__16vectorINS0_15LineMeasurementENS3_9allocatorIS5_EEEELi1024EED1Ev, symObjAddr: 0x1B8, symBinAddr: 0x33C44, symSize: 0x38 }
  - { offset: 0x3287CE, size: 0x8, addend: 0x0, symName: __ZN8facebook5react21SimpleThreadSafeCacheINS0_19TextMeasureCacheKeyENS0_15TextMeasurementELi1024EED1Ev, symObjAddr: 0x1F0, symBinAddr: 0x33C7C, symSize: 0x38 }
  - { offset: 0x328B79, size: 0x8, addend: 0x0, symName: __ZNSt3__110__list_impINS_4pairIN8facebook5react19LineMeasureCacheKeyENS_6vectorINS3_15LineMeasurementENS_9allocatorIS6_EEEEEENS7_ISA_EEE5clearEv, symObjAddr: 0x1694, symBinAddr: 0x34DE4, symSize: 0x6C }
  - { offset: 0x328BA4, size: 0x8, addend: 0x0, symName: __ZNSt3__110__list_impINS_4pairIN8facebook5react19LineMeasureCacheKeyENS_6vectorINS3_15LineMeasurementENS_9allocatorIS6_EEEEEENS7_ISA_EEE5clearEv, symObjAddr: 0x1694, symBinAddr: 0x34DE4, symSize: 0x6C }
  - { offset: 0x328EE3, size: 0x8, addend: 0x0, symName: __ZNSt3__110__list_impINS_4pairIN8facebook5react19TextMeasureCacheKeyENS3_15TextMeasurementEEENS_9allocatorIS6_EEE5clearEv, symObjAddr: 0x1844, symBinAddr: 0x34EC0, symSize: 0x6C }
  - { offset: 0x328F0E, size: 0x8, addend: 0x0, symName: __ZNSt3__110__list_impINS_4pairIN8facebook5react19TextMeasureCacheKeyENS3_15TextMeasurementEEENS_9allocatorIS6_EEE5clearEv, symObjAddr: 0x1844, symBinAddr: 0x34EC0, symSize: 0x6C }
  - { offset: 0x3290B2, size: 0x8, addend: 0x0, symName: __ZN8facebook5react17TextLayoutManagerC1ERKNSt3__110shared_ptrIKNS0_16ContextContainerEEE, symObjAddr: 0x228, symBinAddr: 0x33CB4, symSize: 0x4 }
  - { offset: 0x3290EE, size: 0x8, addend: 0x0, symName: __ZN8facebook5react17TextLayoutManagerC1ERKNSt3__110shared_ptrIKNS0_16ContextContainerEEE, symObjAddr: 0x228, symBinAddr: 0x33CB4, symSize: 0x4 }
  - { offset: 0x32917B, size: 0x8, addend: 0x0, symName: __ZNK8facebook5react17TextLayoutManager26getNativeTextLayoutManagerEv, symObjAddr: 0x22C, symBinAddr: 0x33CB8, symSize: 0x24 }
  - { offset: 0x3291A4, size: 0x8, addend: 0x0, symName: __ZNK8facebook5react17TextLayoutManager26getNativeTextLayoutManagerEv, symObjAddr: 0x22C, symBinAddr: 0x33CB8, symSize: 0x24 }
  - { offset: 0x3291CA, size: 0x8, addend: 0x0, symName: __ZNK8facebook5react17TextLayoutManager26getNativeTextLayoutManagerEv, symObjAddr: 0x22C, symBinAddr: 0x33CB8, symSize: 0x24 }
  - { offset: 0x32928D, size: 0x8, addend: 0x0, symName: __ZNK8facebook5react17TextLayoutManager7measureERKNS0_19AttributedStringBoxERKNS0_19ParagraphAttributesERKNS0_17TextLayoutContextERKNS0_17LayoutConstraintsE, symObjAddr: 0x250, symBinAddr: 0x33CDC, symSize: 0x74C }
  - { offset: 0x32C03A, size: 0x8, addend: 0x0, symName: __ZNSt3__112__hash_tableINS_17__hash_value_typeIN8facebook5react19TextMeasureCacheKeyENS_15__list_iteratorINS_4pairIS4_NS3_15TextMeasurementEEEPvEEEENS_22__unordered_map_hasherIS4_SB_NS_4hashIS4_EENS_8equal_toIS4_EELb1EEENS_21__unordered_map_equalIS4_SB_SG_SE_Lb1EEENS_9allocatorISB_EEE4findIS4_EENS_15__hash_iteratorIPNS_11__hash_nodeISB_S9_EEEERKT_, symObjAddr: 0x24E0, symBinAddr: 0x34FDC, symSize: 0xF4 }
  - { offset: 0x32C55E, size: 0x8, addend: 0x0, symName: __ZNSt3__110__list_impINS_4pairIN8facebook5react19TextMeasureCacheKeyENS3_15TextMeasurementEEENS_9allocatorIS6_EEE13__create_nodeB8ne200100IJRKS4_RS5_EEEPNS_11__list_nodeIS6_PvEEPNS_16__list_node_baseIS6_SF_EESK_DpOT_, symObjAddr: 0x390C, symBinAddr: 0x35DC0, symSize: 0x6C }
  - { offset: 0x32C8C9, size: 0x8, addend: 0x0, symName: __ZNSt3__112__hash_tableINS_17__hash_value_typeIN8facebook5react19TextMeasureCacheKeyENS_15__list_iteratorINS_4pairIS4_NS3_15TextMeasurementEEEPvEEEENS_22__unordered_map_hasherIS4_SB_NS_4hashIS4_EENS_8equal_toIS4_EELb1EEENS_21__unordered_map_equalIS4_SB_SG_SE_Lb1EEENS_9allocatorISB_EEE25__emplace_unique_key_argsIS4_JRKNS_21piecewise_construct_tENS_5tupleIJRKS4_EEENSR_IJEEEEEENS6_INS_15__hash_iteratorIPNS_11__hash_nodeISB_S9_EEEEbEERKT_DpOT0_, symObjAddr: 0x3A18, symBinAddr: 0x35ECC, symSize: 0x264 }
  - { offset: 0x32CDB0, size: 0x8, addend: 0x0, symName: __ZNSt3__112__hash_tableINS_17__hash_value_typeIN8facebook5react19TextMeasureCacheKeyENS_15__list_iteratorINS_4pairIS4_NS3_15TextMeasurementEEEPvEEEENS_22__unordered_map_hasherIS4_SB_NS_4hashIS4_EENS_8equal_toIS4_EELb1EEENS_21__unordered_map_equalIS4_SB_SG_SE_Lb1EEENS_9allocatorISB_EEE14__erase_uniqueIS4_EEmRKT_, symObjAddr: 0x3F98, symBinAddr: 0x361D8, symSize: 0x34 }
  - { offset: 0x32CE32, size: 0x8, addend: 0x0, symName: __ZNSt3__14listINS_4pairIN8facebook5react19TextMeasureCacheKeyENS3_15TextMeasurementEEENS_9allocatorIS6_EEE8pop_backEv, symObjAddr: 0x24A0, symBinAddr: 0x34F9C, symSize: 0x40 }
  - { offset: 0x32DCC6, size: 0x8, addend: 0x0, symName: __ZNK8facebook5react17TextLayoutManager12measureLinesERKNS0_19AttributedStringBoxERKNS0_19ParagraphAttributesERKNS0_4SizeE, symObjAddr: 0xEA4, symBinAddr: 0x34868, symSize: 0x57C }
  - { offset: 0x32FBF8, size: 0x8, addend: 0x0, symName: __ZNSt3__112__hash_tableINS_17__hash_value_typeIN8facebook5react19LineMeasureCacheKeyENS_15__list_iteratorINS_4pairIS4_NS_6vectorINS3_15LineMeasurementENS_9allocatorIS8_EEEEEEPvEEEENS_22__unordered_map_hasherIS4_SF_NS_4hashIS4_EENS_8equal_toIS4_EELb1EEENS_21__unordered_map_equalIS4_SF_SK_SI_Lb1EEENS9_ISF_EEE4findIS4_EENS_15__hash_iteratorIPNS_11__hash_nodeISF_SD_EEEERKT_, symObjAddr: 0x41A0, symBinAddr: 0x3624C, symSize: 0xF4 }
  - { offset: 0x32FF8F, size: 0x8, addend: 0x0, symName: __ZNSt3__110__list_impINS_4pairIN8facebook5react19LineMeasureCacheKeyENS_6vectorINS3_15LineMeasurementENS_9allocatorIS6_EEEEEENS7_ISA_EEE13__create_nodeB8ne200100IJRKS4_RS9_EEEPNS_11__list_nodeISA_PvEEPNS_16__list_node_baseISA_SI_EESN_DpOT_, symObjAddr: 0x47C8, symBinAddr: 0x365F0, symSize: 0x6C }
  - { offset: 0x3302E8, size: 0x8, addend: 0x0, symName: __ZNSt3__112__hash_tableINS_17__hash_value_typeIN8facebook5react19LineMeasureCacheKeyENS_15__list_iteratorINS_4pairIS4_NS_6vectorINS3_15LineMeasurementENS_9allocatorIS8_EEEEEEPvEEEENS_22__unordered_map_hasherIS4_SF_NS_4hashIS4_EENS_8equal_toIS4_EELb1EEENS_21__unordered_map_equalIS4_SF_SK_SI_Lb1EEENS9_ISF_EEE25__emplace_unique_key_argsIS4_JRKNS_21piecewise_construct_tENS_5tupleIJRKS4_EEENSU_IJEEEEEENS6_INS_15__hash_iteratorIPNS_11__hash_nodeISF_SD_EEEEbEERKT_DpOT0_, symObjAddr: 0x48C8, symBinAddr: 0x366F0, symSize: 0x264 }
  - { offset: 0x3307CF, size: 0x8, addend: 0x0, symName: __ZNSt3__112__hash_tableINS_17__hash_value_typeIN8facebook5react19LineMeasureCacheKeyENS_15__list_iteratorINS_4pairIS4_NS_6vectorINS3_15LineMeasurementENS_9allocatorIS8_EEEEEEPvEEEENS_22__unordered_map_hasherIS4_SF_NS_4hashIS4_EENS_8equal_toIS4_EELb1EEENS_21__unordered_map_equalIS4_SF_SK_SI_Lb1EEENS9_ISF_EEE14__erase_uniqueIS4_EEmRKT_, symObjAddr: 0x4E3C, symBinAddr: 0x369F0, symSize: 0x34 }
  - { offset: 0x330851, size: 0x8, addend: 0x0, symName: __ZNSt3__14listINS_4pairIN8facebook5react19LineMeasureCacheKeyENS_6vectorINS3_15LineMeasurementENS_9allocatorIS6_EEEEEENS7_ISA_EEE8pop_backEv, symObjAddr: 0x4160, symBinAddr: 0x3620C, symSize: 0x40 }
  - { offset: 0x332802, size: 0x8, addend: 0x0, symName: __ZNKSt3__14hashIN8facebook5react19TextMeasureCacheKeyEEclERKS3_, symObjAddr: 0x25D4, symBinAddr: 0x350D0, symSize: 0xF8 }
  - { offset: 0x333FB7, size: 0x8, addend: 0x0, symName: __ZNSt3__113__tuple_equalILm7EEclB8ne200100INS_5tupleIJRKNS_12basic_stringIcNS_11char_traitsIcEENS_9allocatorIcEEEERKNS_8optionalIN8facebook5react10FontWeightEEERKNSC_INSE_9FontStyleEEERKNSC_INSE_11FontVariantEEERKNSC_IbEERKNSC_INSE_15DynamicTypeRampEEERKNSC_INSE_13TextAlignmentEEEEEES12_EEbRKT_RKT0_, symObjAddr: 0x34A0, symBinAddr: 0x35AF4, symSize: 0x64 }
  - { offset: 0x33410E, size: 0x8, addend: 0x0, symName: __ZNK8facebook5react13LayoutMetricseqERKS1_, symObjAddr: 0x3350, symBinAddr: 0x359A4, symSize: 0x150 }
  - { offset: 0x334145, size: 0x8, addend: 0x0, symName: __ZNK8facebook5react13LayoutMetricseqERKS1_, symObjAddr: 0x3350, symBinAddr: 0x359A4, symSize: 0x150 }
  - { offset: 0x334167, size: 0x8, addend: 0x0, symName: __ZNK8facebook5react13LayoutMetricseqERKS1_, symObjAddr: 0x3350, symBinAddr: 0x359A4, symSize: 0x150 }
  - { offset: 0x33417B, size: 0x8, addend: 0x0, symName: __ZNK8facebook5react13LayoutMetricseqERKS1_, symObjAddr: 0x3350, symBinAddr: 0x359A4, symSize: 0x150 }
  - { offset: 0x334190, size: 0x8, addend: 0x0, symName: __ZNK8facebook5react13LayoutMetricseqERKS1_, symObjAddr: 0x3350, symBinAddr: 0x359A4, symSize: 0x150 }
  - { offset: 0x3341A5, size: 0x8, addend: 0x0, symName: __ZNK8facebook5react13LayoutMetricseqERKS1_, symObjAddr: 0x3350, symBinAddr: 0x359A4, symSize: 0x150 }
  - { offset: 0x3346B0, size: 0x8, addend: 0x0, symName: __ZNSt3__113__tuple_equalILm6EEclB8ne200100INS_5tupleIJRKNS_12basic_stringIcNS_11char_traitsIcEENS_9allocatorIcEEEERKNS_8optionalIN8facebook5react10FontWeightEEERKNSC_INSE_9FontStyleEEERKNSC_INSE_11FontVariantEEERKNSC_IbEERKNSC_INSE_15DynamicTypeRampEEERKNSC_INSE_13TextAlignmentEEEEEES12_EEbRKT_RKT0_, symObjAddr: 0x3504, symBinAddr: 0x35B58, symSize: 0x64 }
  - { offset: 0x334829, size: 0x8, addend: 0x0, symName: __ZNSt3__113__tuple_equalILm5EEclB8ne200100INS_5tupleIJRKNS_12basic_stringIcNS_11char_traitsIcEENS_9allocatorIcEEEERKNS_8optionalIN8facebook5react10FontWeightEEERKNSC_INSE_9FontStyleEEERKNSC_INSE_11FontVariantEEERKNSC_IbEERKNSC_INSE_15DynamicTypeRampEEERKNSC_INSE_13TextAlignmentEEEEEES12_EEbRKT_RKT0_, symObjAddr: 0x3568, symBinAddr: 0x35BBC, symSize: 0x64 }
  - { offset: 0x33499C, size: 0x8, addend: 0x0, symName: __ZNSt3__113__tuple_equalILm4EEclB8ne200100INS_5tupleIJRKNS_12basic_stringIcNS_11char_traitsIcEENS_9allocatorIcEEEERKNS_8optionalIN8facebook5react10FontWeightEEERKNSC_INSE_9FontStyleEEERKNSC_INSE_11FontVariantEEERKNSC_IbEERKNSC_INSE_15DynamicTypeRampEEERKNSC_INSE_13TextAlignmentEEEEEES12_EEbRKT_RKT0_, symObjAddr: 0x35CC, symBinAddr: 0x35C20, symSize: 0x64 }
  - { offset: 0x334B0F, size: 0x8, addend: 0x0, symName: __ZNSt3__113__tuple_equalILm3EEclB8ne200100INS_5tupleIJRKNS_12basic_stringIcNS_11char_traitsIcEENS_9allocatorIcEEEERKNS_8optionalIN8facebook5react10FontWeightEEERKNSC_INSE_9FontStyleEEERKNSC_INSE_11FontVariantEEERKNSC_IbEERKNSC_INSE_15DynamicTypeRampEEERKNSC_INSE_13TextAlignmentEEEEEES12_EEbRKT_RKT0_, symObjAddr: 0x3630, symBinAddr: 0x35C84, symSize: 0x64 }
  - { offset: 0x334C82, size: 0x8, addend: 0x0, symName: __ZNSt3__113__tuple_equalILm2EEclB8ne200100INS_5tupleIJRKNS_12basic_stringIcNS_11char_traitsIcEENS_9allocatorIcEEEERKNS_8optionalIN8facebook5react10FontWeightEEERKNSC_INSE_9FontStyleEEERKNSC_INSE_11FontVariantEEERKNSC_IbEERKNSC_INSE_15DynamicTypeRampEEERKNSC_INSE_13TextAlignmentEEEEEES12_EEbRKT_RKT0_, symObjAddr: 0x3694, symBinAddr: 0x35CE8, symSize: 0x64 }
  - { offset: 0x334DF5, size: 0x8, addend: 0x0, symName: __ZNSt3__113__tuple_equalILm1EEclB8ne200100INS_5tupleIJRKNS_12basic_stringIcNS_11char_traitsIcEENS_9allocatorIcEEEERKNS_8optionalIN8facebook5react10FontWeightEEERKNSC_INSE_9FontStyleEEERKNSC_INSE_11FontVariantEEERKNSC_IbEERKNSC_INSE_15DynamicTypeRampEEERKNSC_INSE_13TextAlignmentEEEEEES12_EEbRKT_RKT0_, symObjAddr: 0x36F8, symBinAddr: 0x35D4C, symSize: 0x74 }
  - { offset: 0x334E40, size: 0x8, addend: 0x0, symName: __ZNSt3__113__tuple_equalILm1EEclB8ne200100INS_5tupleIJRKNS_12basic_stringIcNS_11char_traitsIcEENS_9allocatorIcEEEERKNS_8optionalIN8facebook5react10FontWeightEEERKNSC_INSE_9FontStyleEEERKNSC_INSE_11FontVariantEEERKNSC_IbEERKNSC_INSE_15DynamicTypeRampEEERKNSC_INSE_13TextAlignmentEEEEEES12_EEbRKT_RKT0_, symObjAddr: 0x36F8, symBinAddr: 0x35D4C, symSize: 0x74 }
  - { offset: 0x334E5C, size: 0x8, addend: 0x0, symName: __ZNSt3__113__tuple_equalILm1EEclB8ne200100INS_5tupleIJRKNS_12basic_stringIcNS_11char_traitsIcEENS_9allocatorIcEEEERKNS_8optionalIN8facebook5react10FontWeightEEERKNSC_INSE_9FontStyleEEERKNSC_INSE_11FontVariantEEERKNSC_IbEERKNSC_INSE_15DynamicTypeRampEEERKNSC_INSE_13TextAlignmentEEEEEES12_EEbRKT_RKT0_, symObjAddr: 0x36F8, symBinAddr: 0x35D4C, symSize: 0x74 }
  - { offset: 0x335539, size: 0x8, addend: 0x0, symName: __ZNSt3__14pairIN8facebook5react19TextMeasureCacheKeyENS2_15TextMeasurementEEC2B8ne200100IRKS3_RS4_Li0EEEOT_OT0_, symObjAddr: 0x3978, symBinAddr: 0x35E2C, symSize: 0xA0 }
  - { offset: 0x3357AD, size: 0x8, addend: 0x0, symName: __ZNSt3__112__hash_tableINS_17__hash_value_typeIN8facebook5react19TextMeasureCacheKeyENS_15__list_iteratorINS_4pairIS4_NS3_15TextMeasurementEEEPvEEEENS_22__unordered_map_hasherIS4_SB_NS_4hashIS4_EENS_8equal_toIS4_EELb1EEENS_21__unordered_map_equalIS4_SB_SG_SE_Lb1EEENS_9allocatorISB_EEE21__construct_node_hashIRKNS_21piecewise_construct_tEJNS_5tupleIJRKS4_EEENSR_IJEEEEEENS_10unique_ptrINS_11__hash_nodeISB_S9_EENS_22__hash_node_destructorINSK_ISY_EEEEEEmOT_DpOT0_, symObjAddr: 0x3C7C, symBinAddr: 0x36130, symSize: 0xA8 }
  - { offset: 0x33683E, size: 0x8, addend: 0x0, symName: __ZNKSt3__14hashIN8facebook5react19LineMeasureCacheKeyEEclERKS3_, symObjAddr: 0x4294, symBinAddr: 0x36340, symSize: 0xF8 }
  - { offset: 0x3371D3, size: 0x8, addend: 0x0, symName: __ZNSt3__14pairIN8facebook5react19LineMeasureCacheKeyENS_6vectorINS2_15LineMeasurementENS_9allocatorIS5_EEEEEC2B8ne200100IRKS3_RS8_Li0EEEOT_OT0_, symObjAddr: 0x4834, symBinAddr: 0x3665C, symSize: 0x94 }
  - { offset: 0x3373F7, size: 0x8, addend: 0x0, symName: __ZNSt3__112__hash_tableINS_17__hash_value_typeIN8facebook5react19LineMeasureCacheKeyENS_15__list_iteratorINS_4pairIS4_NS_6vectorINS3_15LineMeasurementENS_9allocatorIS8_EEEEEEPvEEEENS_22__unordered_map_hasherIS4_SF_NS_4hashIS4_EENS_8equal_toIS4_EELb1EEENS_21__unordered_map_equalIS4_SF_SK_SI_Lb1EEENS9_ISF_EEE21__construct_node_hashIRKNS_21piecewise_construct_tEJNS_5tupleIJRKS4_EEENSU_IJEEEEEENS_10unique_ptrINS_11__hash_nodeISF_SD_EENS_22__hash_node_destructorINS9_IS11_EEEEEEmOT_DpOT0_, symObjAddr: 0x4B2C, symBinAddr: 0x36954, symSize: 0x9C }
  - { offset: 0x338361, size: 0x8, addend: 0x0, symName: __GLOBAL__sub_I_TextLayoutManager.mm, symObjAddr: 0x52B0, symBinAddr: 0x36A24, symSize: 0x20 }
  - { offset: 0x33A414, size: 0x8, addend: 0x0, symName: __ZN8facebook5react15LineMeasurementC2ENSt3__112basic_stringIcNS2_11char_traitsIcEENS2_9allocatorIcEEEENS0_4RectEdddd, symObjAddr: 0x0, symBinAddr: 0x36A44, symSize: 0x2C }
  - { offset: 0x343E0A, size: 0x8, addend: 0x0, symName: __ZN8facebook5react15LineMeasurementC2ENSt3__112basic_stringIcNS2_11char_traitsIcEENS2_9allocatorIcEEEENS0_4RectEdddd, symObjAddr: 0x0, symBinAddr: 0x36A44, symSize: 0x2C }
  - { offset: 0x343E5D, size: 0x8, addend: 0x0, symName: __ZN8facebook5react15LineMeasurementC2ENSt3__112basic_stringIcNS2_11char_traitsIcEENS2_9allocatorIcEEEENS0_4RectEdddd, symObjAddr: 0x0, symBinAddr: 0x36A44, symSize: 0x2C }
  - { offset: 0x343E7F, size: 0x8, addend: 0x0, symName: __ZN8facebook5react15LineMeasurementC2ENSt3__112basic_stringIcNS2_11char_traitsIcEENS2_9allocatorIcEEEENS0_4RectEdddd, symObjAddr: 0x0, symBinAddr: 0x36A44, symSize: 0x2C }
  - { offset: 0x343EFF, size: 0x8, addend: 0x0, symName: __ZN8facebook5react15LineMeasurementC1ENSt3__112basic_stringIcNS2_11char_traitsIcEENS2_9allocatorIcEEEENS0_4RectEdddd, symObjAddr: 0x2C, symBinAddr: 0x36A70, symSize: 0x2C }
  - { offset: 0x343F81, size: 0x8, addend: 0x0, symName: __ZN8facebook5react15LineMeasurementC1ENSt3__112basic_stringIcNS2_11char_traitsIcEENS2_9allocatorIcEEEENS0_4RectEdddd, symObjAddr: 0x2C, symBinAddr: 0x36A70, symSize: 0x2C }
  - { offset: 0x343FCD, size: 0x8, addend: 0x0, symName: __ZN8facebook5react15LineMeasurementC1ENSt3__112basic_stringIcNS2_11char_traitsIcEENS2_9allocatorIcEEEENS0_4RectEdddd, symObjAddr: 0x2C, symBinAddr: 0x36A70, symSize: 0x2C }
  - { offset: 0x343FEF, size: 0x8, addend: 0x0, symName: __ZN8facebook5react15LineMeasurementC1ENSt3__112basic_stringIcNS2_11char_traitsIcEENS2_9allocatorIcEEEENS0_4RectEdddd, symObjAddr: 0x2C, symBinAddr: 0x36A70, symSize: 0x2C }
  - { offset: 0x344333, size: 0x8, addend: 0x0, symName: __ZN8facebook5react15LineMeasurementC2ERKN5folly7dynamicE, symObjAddr: 0x58, symBinAddr: 0x36A9C, symSize: 0x478 }
  - { offset: 0x34524A, size: 0x8, addend: 0x0, symName: __ZN8facebook5react15LineMeasurementC1ERKN5folly7dynamicE, symObjAddr: 0x4D0, symBinAddr: 0x36F14, symSize: 0x4 }
  - { offset: 0x345286, size: 0x8, addend: 0x0, symName: __ZN8facebook5react15LineMeasurementC1ERKN5folly7dynamicE, symObjAddr: 0x4D0, symBinAddr: 0x36F14, symSize: 0x4 }
  - { offset: 0x345774, size: 0x8, addend: 0x0, symName: __ZNK8facebook5react15LineMeasurementeqERKS1_, symObjAddr: 0x4D4, symBinAddr: 0x36F18, symSize: 0x68 }
  - { offset: 0x345B20, size: 0x8, addend: 0x0, symName: __ZNSt3__113__tuple_equalILm6EEclB8ne200100INS_5tupleIJRKNS_12basic_stringIcNS_11char_traitsIcEENS_9allocatorIcEEEERKN8facebook5react4RectERKdSI_SI_SI_EEESJ_EEbRKT_RKT0_, symObjAddr: 0x740, symBinAddr: 0x36F80, symSize: 0x6C }
  - { offset: 0x345FC9, size: 0x8, addend: 0x0, symName: __ZNSt3__113__tuple_equalILm4EEclB8ne200100INS_5tupleIJRKNS_12basic_stringIcNS_11char_traitsIcEENS_9allocatorIcEEEERKN8facebook5react4RectERKdSI_SI_SI_EEESJ_EEbRKT_RKT0_, symObjAddr: 0x7AC, symBinAddr: 0x36FEC, symSize: 0x6C }
  - { offset: 0x3461E6, size: 0x8, addend: 0x0, symName: __ZNSt3__113__tuple_equalILm2EEclB8ne200100INS_5tupleIJRKNS_12basic_stringIcNS_11char_traitsIcEENS_9allocatorIcEEEERKN8facebook5react4RectERKdSI_SI_SI_EEESJ_EEbRKT_RKT0_, symObjAddr: 0x818, symBinAddr: 0x37058, symSize: 0x7C }
  - { offset: 0x348724, size: 0x8, addend: 0x0, symName: __ZN8facebook5react9TextPropsC2ERKNS0_18PropsParserContextERKS1_RKNS0_8RawPropsE, symObjAddr: 0x0, symBinAddr: 0x370D4, symSize: 0x120 }
  - { offset: 0x3557A9, size: 0x8, addend: 0x0, symName: __ZN8facebook5react9TextPropsC2ERKNS0_18PropsParserContextERKS1_RKNS0_8RawPropsE, symObjAddr: 0x0, symBinAddr: 0x370D4, symSize: 0x120 }
  - { offset: 0x355ABD, size: 0x8, addend: 0x0, symName: __ZN8facebook5react9TextPropsC1ERKNS0_18PropsParserContextERKS1_RKNS0_8RawPropsE, symObjAddr: 0x120, symBinAddr: 0x371F4, symSize: 0x140 }
  - { offset: 0x355DC3, size: 0x8, addend: 0x0, symName: __ZN8facebook5react9TextProps7setPropERKNS0_18PropsParserContextEjPKcRKNS0_8RawValueE, symObjAddr: 0x260, symBinAddr: 0x37334, symSize: 0x58 }
  - { offset: 0x355F50, size: 0x8, addend: 0x0, symName: __ZN8facebook5react9TextPropsD1Ev, symObjAddr: 0x338, symBinAddr: 0x3738C, symSize: 0x70 }
  - { offset: 0x356435, size: 0x8, addend: 0x0, symName: __ZN8facebook5react9TextPropsD0Ev, symObjAddr: 0x3A8, symBinAddr: 0x373FC, symSize: 0x70 }
  - { offset: 0x3588BB, size: 0x8, addend: 0x0, symName: __ZN8facebook5react17TextComponentNameE, symObjAddr: 0x0, symBinAddr: 0x3C425, symSize: 0x0 }
  - { offset: 0x3795D6, size: 0x8, addend: 0x0, symName: __ZNSt3__115allocate_sharedB8ne200100IN8facebook5react22UnimplementedViewPropsENS_9allocatorIS3_EEJRKNS2_18PropsParserContextERKS3_NS2_8RawPropsEELi0EEENS_10shared_ptrIT_EERKT0_DpOT1_, symObjAddr: 0x1D78, symBinAddr: 0x3817C, symSize: 0x70 }
  - { offset: 0x379B14, size: 0x8, addend: 0x0, symName: __ZNSt3__115allocate_sharedB8ne200100IN8facebook5react22ConcreteViewShadowNodeIXadL_ZNS2_30UnimplementedViewComponentNameEEENS2_22UnimplementedViewPropsENS2_20BaseViewEventEmitterENS2_9StateDataEEENS_9allocatorIS7_EEJRKNS2_18ShadowNodeFragmentERKNS_10shared_ptrIKNS2_16ShadowNodeFamilyEEENS2_16ShadowNodeTraitsEELi0EEENSD_IT_EERKT0_DpOT1_, symObjAddr: 0x1F78, symBinAddr: 0x38324, symSize: 0x70 }
  - { offset: 0x379E20, size: 0x8, addend: 0x0, symName: __ZNSt3__115allocate_sharedB8ne200100IN8facebook5react22ConcreteViewShadowNodeIXadL_ZNS2_30UnimplementedViewComponentNameEEENS2_22UnimplementedViewPropsENS2_20BaseViewEventEmitterENS2_9StateDataEEENS_9allocatorIS7_EEJRKNS2_10ShadowNodeERKNS2_18ShadowNodeFragmentEELi0EEENS_10shared_ptrIT_EERKT0_DpOT1_, symObjAddr: 0x24DC, symBinAddr: 0x38598, symSize: 0x60 }
  - { offset: 0x37A79B, size: 0x8, addend: 0x0, symName: __ZNSt3__115allocate_sharedB8ne200100IN8facebook5react11EventTargetENS_9allocatorIS3_EEJRKNS_10shared_ptrIKNS2_14InstanceHandleEEERKiELi0EEENS6_IT_EERKT0_DpOT1_, symObjAddr: 0x29E4, symBinAddr: 0x38998, symSize: 0x60 }
  - { offset: 0x37AA31, size: 0x8, addend: 0x0, symName: __ZNSt3__115allocate_sharedB8ne200100IKN8facebook5react20BaseViewEventEmitterENS_9allocatorIS3_EEJNS_10shared_ptrINS2_11EventTargetEEERKNS_8weak_ptrIKNS2_15EventDispatcherEEEELi0EEENS7_IT_EERKT0_DpOT1_, symObjAddr: 0x25F8, symBinAddr: 0x3865C, symSize: 0x60 }
  - { offset: 0x37ACC7, size: 0x8, addend: 0x0, symName: __ZNSt3__115allocate_sharedB8ne200100IN8facebook5react16ShadowNodeFamilyENS_9allocatorIS3_EEJRKNS2_24ShadowNodeFamilyFragmentERNS_10shared_ptrIKNS2_20BaseViewEventEmitterEEERKNS_8weak_ptrIKNS2_15EventDispatcherEEERKNS2_27ConcreteComponentDescriptorINS2_22ConcreteViewShadowNodeIXadL_ZNS2_30UnimplementedViewComponentNameEEENS2_22UnimplementedViewPropsESA_NS2_9StateDataEEEEEELi0EEENS9_IT_EERKT0_DpOT1_, symObjAddr: 0x2C48, symBinAddr: 0x38B4C, symSize: 0x78 }
  - { offset: 0x37B1B1, size: 0x8, addend: 0x0, symName: __ZNSt3__115allocate_sharedB8ne200100IKN8facebook5react22UnimplementedViewPropsENS_9allocatorIS3_EEJELi0EEENS_10shared_ptrIT_EERKT0_DpOT1_, symObjAddr: 0xB74, symBinAddr: 0x37E44, symSize: 0x48 }
  - { offset: 0x37B462, size: 0x8, addend: 0x0, symName: __ZNSt3__115allocate_sharedB8ne200100IN8facebook5react22UnimplementedViewPropsENS_9allocatorIS3_EEJRKNS2_18PropsParserContextERKS3_RKNS2_8RawPropsEELi0EEENS_10shared_ptrIT_EERKT0_DpOT1_, symObjAddr: 0x1924, symBinAddr: 0x37F84, symSize: 0x70 }
  - { offset: 0x37C659, size: 0x8, addend: 0x0, symName: __ZNSt3__112construct_atB8ne200100IN8facebook5react22UnimplementedViewPropsEJRKNS2_18PropsParserContextERKS3_RKNS2_8RawPropsEEPS3_EEPT_SE_DpOT0_, symObjAddr: 0x1A30, symBinAddr: 0x38090, symSize: 0xEC }
  - { offset: 0x37CA5F, size: 0x8, addend: 0x0, symName: __ZNSt3__112construct_atB8ne200100IN8facebook5react22UnimplementedViewPropsEJRKNS2_18PropsParserContextERKS3_NS2_8RawPropsEEPS3_EEPT_SC_DpOT0_, symObjAddr: 0x1E34, symBinAddr: 0x38238, symSize: 0xEC }
  - { offset: 0x37D7D8, size: 0x8, addend: 0x0, symName: __ZNSt3__112construct_atB8ne200100IN8facebook5react20BaseViewEventEmitterEJNS_10shared_ptrINS2_11EventTargetEEERKNS_8weak_ptrIKNS2_15EventDispatcherEEEEPS3_EEPT_SF_DpOT0_, symObjAddr: 0x26EC, symBinAddr: 0x38750, symSize: 0x130 }
  - { offset: 0x37E65A, size: 0x8, addend: 0x0, symName: __ZNSt3__112construct_atB8ne200100IN8facebook5react11EventTargetEJRKNS_10shared_ptrIKNS2_14InstanceHandleEEERKiEPS3_EEPT_SE_DpOT0_, symObjAddr: 0x2AF4, symBinAddr: 0x38AA8, symSize: 0xA4 }
  - { offset: 0x37ECC3, size: 0x8, addend: 0x0, symName: __ZNSt3__112construct_atB8ne200100IN8facebook5react16ShadowNodeFamilyEJRKNS2_24ShadowNodeFamilyFragmentERNS_10shared_ptrIKNS2_20BaseViewEventEmitterEEERKNS_8weak_ptrIKNS2_15EventDispatcherEEERKNS2_27ConcreteComponentDescriptorINS2_22ConcreteViewShadowNodeIXadL_ZNS2_30UnimplementedViewComponentNameEEENS2_22UnimplementedViewPropsES8_NS2_9StateDataEEEEEEPS3_EEPT_SS_DpOT0_, symObjAddr: 0x2D50, symBinAddr: 0x38C54, symSize: 0xDC }
  - { offset: 0x384032, size: 0x8, addend: 0x0, symName: __ZN8facebook5react18ConcreteShadowNodeIXadL_ZNS0_30UnimplementedViewComponentNameEEENS0_24YogaLayoutableShadowNodeENS0_22UnimplementedViewPropsENS0_20BaseViewEventEmitterENS0_9StateDataEE18defaultSharedPropsEv, symObjAddr: 0xA7C, symBinAddr: 0x37D4C, symSize: 0x9C }
  - { offset: 0x384052, size: 0x8, addend: 0x0, symName: __ZZN8facebook5react18ConcreteShadowNodeIXadL_ZNS0_30UnimplementedViewComponentNameEEENS0_24YogaLayoutableShadowNodeENS0_22UnimplementedViewPropsENS0_20BaseViewEventEmitterENS0_9StateDataEE18defaultSharedPropsEvE18defaultSharedProps, symObjAddr: 0x4120, symBinAddr: 0x4C6F8, symSize: 0x0 }
  - { offset: 0x38435D, size: 0x8, addend: 0x0, symName: __ZNK8facebook5react36UnimplementedViewComponentDescriptor18getComponentHandleEv, symObjAddr: 0x0, symBinAddr: 0x3746C, symSize: 0x18 }
  - { offset: 0x38439D, size: 0x8, addend: 0x0, symName: __ZNK8facebook5react36UnimplementedViewComponentDescriptor18getComponentHandleEv, symObjAddr: 0x0, symBinAddr: 0x3746C, symSize: 0x18 }
  - { offset: 0x384438, size: 0x8, addend: 0x0, symName: __ZNK8facebook5react36UnimplementedViewComponentDescriptor16getComponentNameEv, symObjAddr: 0x18, symBinAddr: 0x37484, symSize: 0x18 }
  - { offset: 0x38445C, size: 0x8, addend: 0x0, symName: __ZNK8facebook5react36UnimplementedViewComponentDescriptor16getComponentNameEv, symObjAddr: 0x18, symBinAddr: 0x37484, symSize: 0x18 }
  - { offset: 0x3849DD, size: 0x8, addend: 0x0, symName: __ZNK8facebook5react36UnimplementedViewComponentDescriptor10clonePropsERKNS0_18PropsParserContextERKNSt3__110shared_ptrIKNS0_5PropsEEENS0_8RawPropsE, symObjAddr: 0x30, symBinAddr: 0x3749C, symSize: 0x1EC }
  - { offset: 0x38531E, size: 0x8, addend: 0x0, symName: __ZN8facebook5react8RawPropsC2EOS1_, symObjAddr: 0x7D4, symBinAddr: 0x37C40, symSize: 0x90 }
  - { offset: 0x3853FE, size: 0x8, addend: 0x0, symName: __ZNK8facebook5react27ConcreteComponentDescriptorINS0_22ConcreteViewShadowNodeIXadL_ZNS0_30UnimplementedViewComponentNameEEENS0_22UnimplementedViewPropsENS0_20BaseViewEventEmitterENS0_9StateDataEEEE10clonePropsERKNS0_18PropsParserContextERKNSt3__110shared_ptrIKNS0_5PropsEEENS0_8RawPropsE, symObjAddr: 0x21C, symBinAddr: 0x37688, symSize: 0x21C }
  - { offset: 0x3860F9, size: 0x8, addend: 0x0, symName: __ZN8facebook5react8RawPropsD1Ev, symObjAddr: 0x438, symBinAddr: 0x378A4, symSize: 0x58 }
  - { offset: 0x386BA7, size: 0x8, addend: 0x0, symName: __ZN8facebook5react18ConcreteShadowNodeIXadL_ZNS0_30UnimplementedViewComponentNameEEENS0_24YogaLayoutableShadowNodeENS0_22UnimplementedViewPropsENS0_20BaseViewEventEmitterENS0_9StateDataEE5PropsERKNS0_18PropsParserContextERKNS0_8RawPropsERKNSt3__110shared_ptrIKNS0_5PropsEEE, symObjAddr: 0xB18, symBinAddr: 0x37DE8, symSize: 0x58 }
  - { offset: 0x386DAD, size: 0x8, addend: 0x0, symName: __ZN8facebook5react36UnimplementedViewComponentDescriptorD1Ev, symObjAddr: 0x490, symBinAddr: 0x378FC, symSize: 0x4 }
  - { offset: 0x386DCF, size: 0x8, addend: 0x0, symName: __ZN8facebook5react36UnimplementedViewComponentDescriptorD1Ev, symObjAddr: 0x490, symBinAddr: 0x378FC, symSize: 0x4 }
  - { offset: 0x386DEA, size: 0x8, addend: 0x0, symName: __ZN8facebook5react36UnimplementedViewComponentDescriptorD1Ev, symObjAddr: 0x490, symBinAddr: 0x378FC, symSize: 0x4 }
  - { offset: 0x386E08, size: 0x8, addend: 0x0, symName: __ZN8facebook5react36UnimplementedViewComponentDescriptorD1Ev, symObjAddr: 0x490, symBinAddr: 0x378FC, symSize: 0x4 }
  - { offset: 0x386E1B, size: 0x8, addend: 0x0, symName: __ZN8facebook5react19ComponentDescriptorD2Ev, symObjAddr: 0x948, symBinAddr: 0x37CD0, symSize: 0x7C }
  - { offset: 0x3872DB, size: 0x8, addend: 0x0, symName: __ZN8facebook5react36UnimplementedViewComponentDescriptorD0Ev, symObjAddr: 0x494, symBinAddr: 0x37900, symSize: 0x14 }
  - { offset: 0x38736F, size: 0x8, addend: 0x0, symName: __ZNK8facebook5react27ConcreteComponentDescriptorINS0_22ConcreteViewShadowNodeIXadL_ZNS0_30UnimplementedViewComponentNameEEENS0_22UnimplementedViewPropsENS0_20BaseViewEventEmitterENS0_9StateDataEEEE9getTraitsEv, symObjAddr: 0x4A8, symBinAddr: 0x37914, symSize: 0x8 }
  - { offset: 0x38747B, size: 0x8, addend: 0x0, symName: __ZNK8facebook5react27ConcreteComponentDescriptorINS0_22ConcreteViewShadowNodeIXadL_ZNS0_30UnimplementedViewComponentNameEEENS0_22UnimplementedViewPropsENS0_20BaseViewEventEmitterENS0_9StateDataEEEE16createShadowNodeERKNS0_18ShadowNodeFragmentERKNSt3__110shared_ptrIKNS0_16ShadowNodeFamilyEEE, symObjAddr: 0x4B0, symBinAddr: 0x3791C, symSize: 0x90 }
  - { offset: 0x3876FF, size: 0x8, addend: 0x0, symName: __ZNK8facebook5react27ConcreteComponentDescriptorINS0_22ConcreteViewShadowNodeIXadL_ZNS0_30UnimplementedViewComponentNameEEENS0_22UnimplementedViewPropsENS0_20BaseViewEventEmitterENS0_9StateDataEEEE15cloneShadowNodeERKNS0_10ShadowNodeERKNS0_18ShadowNodeFragmentE, symObjAddr: 0x540, symBinAddr: 0x379AC, symSize: 0x104 }
  - { offset: 0x387A63, size: 0x8, addend: 0x0, symName: __ZNK8facebook5react27ConcreteComponentDescriptorINS0_22ConcreteViewShadowNodeIXadL_ZNS0_30UnimplementedViewComponentNameEEENS0_22UnimplementedViewPropsENS0_20BaseViewEventEmitterENS0_9StateDataEEEE11appendChildERKNSt3__110shared_ptrIKNS0_10ShadowNodeEEESE_, symObjAddr: 0x644, symBinAddr: 0x37AB0, symSize: 0x14 }
  - { offset: 0x387AB9, size: 0x8, addend: 0x0, symName: __ZNK8facebook5react27ConcreteComponentDescriptorINS0_22ConcreteViewShadowNodeIXadL_ZNS0_30UnimplementedViewComponentNameEEENS0_22UnimplementedViewPropsENS0_20BaseViewEventEmitterENS0_9StateDataEEEE11appendChildERKNSt3__110shared_ptrIKNS0_10ShadowNodeEEESE_, symObjAddr: 0x644, symBinAddr: 0x37AB0, symSize: 0x14 }
  - { offset: 0x387B33, size: 0x8, addend: 0x0, symName: __ZNK8facebook5react27ConcreteComponentDescriptorINS0_22ConcreteViewShadowNodeIXadL_ZNS0_30UnimplementedViewComponentNameEEENS0_22UnimplementedViewPropsENS0_20BaseViewEventEmitterENS0_9StateDataEEEE18createInitialStateERKNSt3__110shared_ptrIKNS0_5PropsEEERKNS9_IKNS0_16ShadowNodeFamilyEEE, symObjAddr: 0x658, symBinAddr: 0x37AC4, symSize: 0x8 }
  - { offset: 0x387B76, size: 0x8, addend: 0x0, symName: __ZNK8facebook5react27ConcreteComponentDescriptorINS0_22ConcreteViewShadowNodeIXadL_ZNS0_30UnimplementedViewComponentNameEEENS0_22UnimplementedViewPropsENS0_20BaseViewEventEmitterENS0_9StateDataEEEE18createInitialStateERKNSt3__110shared_ptrIKNS0_5PropsEEERKNS9_IKNS0_16ShadowNodeFamilyEEE, symObjAddr: 0x658, symBinAddr: 0x37AC4, symSize: 0x8 }
  - { offset: 0x387B97, size: 0x8, addend: 0x0, symName: __ZNK8facebook5react27ConcreteComponentDescriptorINS0_22ConcreteViewShadowNodeIXadL_ZNS0_30UnimplementedViewComponentNameEEENS0_22UnimplementedViewPropsENS0_20BaseViewEventEmitterENS0_9StateDataEEEE18createInitialStateERKNSt3__110shared_ptrIKNS0_5PropsEEERKNS9_IKNS0_16ShadowNodeFamilyEEE, symObjAddr: 0x658, symBinAddr: 0x37AC4, symSize: 0x8 }
  - { offset: 0x387BB9, size: 0x8, addend: 0x0, symName: __ZNK8facebook5react27ConcreteComponentDescriptorINS0_22ConcreteViewShadowNodeIXadL_ZNS0_30UnimplementedViewComponentNameEEENS0_22UnimplementedViewPropsENS0_20BaseViewEventEmitterENS0_9StateDataEEEE11createStateERKNS0_16ShadowNodeFamilyERKNSt3__110shared_ptrIKvEE, symObjAddr: 0x660, symBinAddr: 0x37ACC, symSize: 0x8 }
  - { offset: 0x387BFC, size: 0x8, addend: 0x0, symName: __ZNK8facebook5react27ConcreteComponentDescriptorINS0_22ConcreteViewShadowNodeIXadL_ZNS0_30UnimplementedViewComponentNameEEENS0_22UnimplementedViewPropsENS0_20BaseViewEventEmitterENS0_9StateDataEEEE11createStateERKNS0_16ShadowNodeFamilyERKNSt3__110shared_ptrIKvEE, symObjAddr: 0x660, symBinAddr: 0x37ACC, symSize: 0x8 }
  - { offset: 0x387C1D, size: 0x8, addend: 0x0, symName: __ZNK8facebook5react27ConcreteComponentDescriptorINS0_22ConcreteViewShadowNodeIXadL_ZNS0_30UnimplementedViewComponentNameEEENS0_22UnimplementedViewPropsENS0_20BaseViewEventEmitterENS0_9StateDataEEEE11createStateERKNS0_16ShadowNodeFamilyERKNSt3__110shared_ptrIKvEE, symObjAddr: 0x660, symBinAddr: 0x37ACC, symSize: 0x8 }
  - { offset: 0x387EB8, size: 0x8, addend: 0x0, symName: __ZNK8facebook5react27ConcreteComponentDescriptorINS0_22ConcreteViewShadowNodeIXadL_ZNS0_30UnimplementedViewComponentNameEEENS0_22UnimplementedViewPropsENS0_20BaseViewEventEmitterENS0_9StateDataEEEE12createFamilyERKNS0_24ShadowNodeFamilyFragmentE, symObjAddr: 0x668, symBinAddr: 0x37AD4, symSize: 0x168 }
  - { offset: 0x388409, size: 0x8, addend: 0x0, symName: __ZNK8facebook5react27ConcreteComponentDescriptorINS0_22ConcreteViewShadowNodeIXadL_ZNS0_30UnimplementedViewComponentNameEEENS0_22UnimplementedViewPropsENS0_20BaseViewEventEmitterENS0_9StateDataEEEE5adoptERNS0_10ShadowNodeE, symObjAddr: 0x7D0, symBinAddr: 0x37C3C, symSize: 0x4 }
  - { offset: 0x388AE1, size: 0x8, addend: 0x0, symName: __ZN8facebook5react19ComponentDescriptorD1Ev, symObjAddr: 0x9C4, symBinAddr: 0x39400, symSize: 0x4 }
  - { offset: 0x388B0A, size: 0x8, addend: 0x0, symName: __ZN8facebook5react19ComponentDescriptorD0Ev, symObjAddr: 0x9C8, symBinAddr: 0x39404, symSize: 0x4 }
  - { offset: 0x388B4F, size: 0x8, addend: 0x0, symName: __ZNSt3__110shared_ptrIKN8facebook5react22UnimplementedViewPropsEED1B8ne200100Ev, symObjAddr: 0xB70, symBinAddr: 0x37E40, symSize: 0x4 }
  - { offset: 0x388B7B, size: 0x8, addend: 0x0, symName: __ZNSt3__110shared_ptrIKN8facebook5react22UnimplementedViewPropsEED1B8ne200100Ev, symObjAddr: 0xB70, symBinAddr: 0x37E40, symSize: 0x4 }
  - { offset: 0x388E1C, size: 0x8, addend: 0x0, symName: __ZNSt3__120__shared_ptr_emplaceIKN8facebook5react22UnimplementedViewPropsENS_9allocatorIS3_EEEC2B8ne200100IJES6_Li0EEES6_DpOT_, symObjAddr: 0xBBC, symBinAddr: 0x37E8C, symSize: 0x78 }
  - { offset: 0x38A2BD, size: 0x8, addend: 0x0, symName: __ZNSt3__120__shared_ptr_emplaceIKN8facebook5react22UnimplementedViewPropsENS_9allocatorIS3_EEED1Ev, symObjAddr: 0xC34, symBinAddr: 0x37F04, symSize: 0x14 }
  - { offset: 0x38A2DF, size: 0x8, addend: 0x0, symName: __ZNSt3__120__shared_ptr_emplaceIKN8facebook5react22UnimplementedViewPropsENS_9allocatorIS3_EEED1Ev, symObjAddr: 0xC34, symBinAddr: 0x37F04, symSize: 0x14 }
  - { offset: 0x38A315, size: 0x8, addend: 0x0, symName: __ZNSt3__120__shared_ptr_emplaceIKN8facebook5react22UnimplementedViewPropsENS_9allocatorIS3_EEED0Ev, symObjAddr: 0xC48, symBinAddr: 0x37F18, symSize: 0x24 }
  - { offset: 0x38A426, size: 0x8, addend: 0x0, symName: __ZNSt3__120__shared_ptr_emplaceIKN8facebook5react22UnimplementedViewPropsENS_9allocatorIS3_EEE16__on_zero_sharedEv, symObjAddr: 0xC6C, symBinAddr: 0x37F3C, symSize: 0x14 }
  - { offset: 0x38A44F, size: 0x8, addend: 0x0, symName: __ZNSt3__120__shared_ptr_emplaceIKN8facebook5react22UnimplementedViewPropsENS_9allocatorIS3_EEE16__on_zero_sharedEv, symObjAddr: 0xC6C, symBinAddr: 0x37F3C, symSize: 0x14 }
  - { offset: 0x38A94E, size: 0x8, addend: 0x0, symName: __ZNSt3__120__shared_ptr_emplaceIKN8facebook5react22UnimplementedViewPropsENS_9allocatorIS3_EEE21__on_zero_shared_weakEv, symObjAddr: 0xC80, symBinAddr: 0x37F50, symSize: 0x4 }
  - { offset: 0x38A980, size: 0x8, addend: 0x0, symName: __ZNSt3__120__shared_ptr_emplaceIKN8facebook5react22UnimplementedViewPropsENS_9allocatorIS3_EEE21__on_zero_shared_weakEv, symObjAddr: 0xC80, symBinAddr: 0x37F50, symSize: 0x4 }
  - { offset: 0x38A9A1, size: 0x8, addend: 0x0, symName: __ZNSt3__120__shared_ptr_emplaceIKN8facebook5react22UnimplementedViewPropsENS_9allocatorIS3_EEE21__on_zero_shared_weakEv, symObjAddr: 0xC80, symBinAddr: 0x37F50, symSize: 0x4 }
  - { offset: 0x38A9C3, size: 0x8, addend: 0x0, symName: __ZNSt3__120__shared_ptr_emplaceIKN8facebook5react22UnimplementedViewPropsENS_9allocatorIS3_EEE21__on_zero_shared_weakEv, symObjAddr: 0xC80, symBinAddr: 0x37F50, symSize: 0x4 }
  - { offset: 0x38A9F6, size: 0x8, addend: 0x0, symName: __ZNSt3__120__shared_ptr_emplaceIKN8facebook5react22UnimplementedViewPropsENS_9allocatorIS3_EEE21__on_zero_shared_weakEv, symObjAddr: 0xC80, symBinAddr: 0x37F50, symSize: 0x4 }
  - { offset: 0x38BC0D, size: 0x8, addend: 0x0, symName: __ZN8facebook5react22UnimplementedViewPropsD1Ev, symObjAddr: 0x1044, symBinAddr: 0x37F54, symSize: 0x10 }
  - { offset: 0x38BC2F, size: 0x8, addend: 0x0, symName: __ZN8facebook5react22UnimplementedViewPropsD1Ev, symObjAddr: 0x1044, symBinAddr: 0x37F54, symSize: 0x10 }
  - { offset: 0x38BC68, size: 0x8, addend: 0x0, symName: __ZN8facebook5react22UnimplementedViewPropsD0Ev, symObjAddr: 0x1054, symBinAddr: 0x37F64, symSize: 0x20 }
  - { offset: 0x38ED9B, size: 0x8, addend: 0x0, symName: __ZNSt3__120__shared_ptr_emplaceIN8facebook5react22UnimplementedViewPropsENS_9allocatorIS3_EEEC2B8ne200100IJRKNS2_18PropsParserContextERKS3_RKNS2_8RawPropsEES5_Li0EEES5_DpOT_, symObjAddr: 0x1994, symBinAddr: 0x37FF4, symSize: 0x4C }
  - { offset: 0x38EF7D, size: 0x8, addend: 0x0, symName: __ZNSt3__120__shared_ptr_emplaceIN8facebook5react22UnimplementedViewPropsENS_9allocatorIS3_EEED1Ev, symObjAddr: 0x19E0, symBinAddr: 0x38040, symSize: 0x14 }
  - { offset: 0x38EF9F, size: 0x8, addend: 0x0, symName: __ZNSt3__120__shared_ptr_emplaceIN8facebook5react22UnimplementedViewPropsENS_9allocatorIS3_EEED1Ev, symObjAddr: 0x19E0, symBinAddr: 0x38040, symSize: 0x14 }
  - { offset: 0x38EFD5, size: 0x8, addend: 0x0, symName: __ZNSt3__120__shared_ptr_emplaceIN8facebook5react22UnimplementedViewPropsENS_9allocatorIS3_EEED0Ev, symObjAddr: 0x19F4, symBinAddr: 0x38054, symSize: 0x24 }
  - { offset: 0x38F074, size: 0x8, addend: 0x0, symName: __ZNSt3__120__shared_ptr_emplaceIN8facebook5react22UnimplementedViewPropsENS_9allocatorIS3_EEE16__on_zero_sharedEv, symObjAddr: 0x1A18, symBinAddr: 0x38078, symSize: 0x14 }
  - { offset: 0x38F09D, size: 0x8, addend: 0x0, symName: __ZNSt3__120__shared_ptr_emplaceIN8facebook5react22UnimplementedViewPropsENS_9allocatorIS3_EEE16__on_zero_sharedEv, symObjAddr: 0x1A18, symBinAddr: 0x38078, symSize: 0x14 }
  - { offset: 0x38F120, size: 0x8, addend: 0x0, symName: __ZNSt3__120__shared_ptr_emplaceIN8facebook5react22UnimplementedViewPropsENS_9allocatorIS3_EEE21__on_zero_shared_weakEv, symObjAddr: 0x1A2C, symBinAddr: 0x3808C, symSize: 0x4 }
  - { offset: 0x38F152, size: 0x8, addend: 0x0, symName: __ZNSt3__120__shared_ptr_emplaceIN8facebook5react22UnimplementedViewPropsENS_9allocatorIS3_EEE21__on_zero_shared_weakEv, symObjAddr: 0x1A2C, symBinAddr: 0x3808C, symSize: 0x4 }
  - { offset: 0x38F173, size: 0x8, addend: 0x0, symName: __ZNSt3__120__shared_ptr_emplaceIN8facebook5react22UnimplementedViewPropsENS_9allocatorIS3_EEE21__on_zero_shared_weakEv, symObjAddr: 0x1A2C, symBinAddr: 0x3808C, symSize: 0x4 }
  - { offset: 0x38F195, size: 0x8, addend: 0x0, symName: __ZNSt3__120__shared_ptr_emplaceIN8facebook5react22UnimplementedViewPropsENS_9allocatorIS3_EEE21__on_zero_shared_weakEv, symObjAddr: 0x1A2C, symBinAddr: 0x3808C, symSize: 0x4 }
  - { offset: 0x38F1C8, size: 0x8, addend: 0x0, symName: __ZNSt3__120__shared_ptr_emplaceIN8facebook5react22UnimplementedViewPropsENS_9allocatorIS3_EEE21__on_zero_shared_weakEv, symObjAddr: 0x1A2C, symBinAddr: 0x3808C, symSize: 0x4 }
  - { offset: 0x38F7CF, size: 0x8, addend: 0x0, symName: __ZNSt3__120__shared_ptr_emplaceIN8facebook5react22UnimplementedViewPropsENS_9allocatorIS3_EEEC2B8ne200100IJRKNS2_18PropsParserContextERKS3_NS2_8RawPropsEES5_Li0EEES5_DpOT_, symObjAddr: 0x1DE8, symBinAddr: 0x381EC, symSize: 0x4C }
  - { offset: 0x38FBFC, size: 0x8, addend: 0x0, symName: __ZNSt3__120__shared_ptr_emplaceIN8facebook5react22ConcreteViewShadowNodeIXadL_ZNS2_30UnimplementedViewComponentNameEEENS2_22UnimplementedViewPropsENS2_20BaseViewEventEmitterENS2_9StateDataEEENS_9allocatorIS7_EEEC2B8ne200100IJRKNS2_18ShadowNodeFragmentERKNS_10shared_ptrIKNS2_16ShadowNodeFamilyEEENS2_16ShadowNodeTraitsEES9_Li0EEES9_DpOT_, symObjAddr: 0x1FE8, symBinAddr: 0x38394, symSize: 0x68 }
  - { offset: 0x38FFB2, size: 0x8, addend: 0x0, symName: __ZNSt3__120__shared_ptr_emplaceIN8facebook5react22ConcreteViewShadowNodeIXadL_ZNS2_30UnimplementedViewComponentNameEEENS2_22UnimplementedViewPropsENS2_20BaseViewEventEmitterENS2_9StateDataEEENS_9allocatorIS7_EEED1Ev, symObjAddr: 0x2050, symBinAddr: 0x383FC, symSize: 0x14 }
  - { offset: 0x38FFD4, size: 0x8, addend: 0x0, symName: __ZNSt3__120__shared_ptr_emplaceIN8facebook5react22ConcreteViewShadowNodeIXadL_ZNS2_30UnimplementedViewComponentNameEEENS2_22UnimplementedViewPropsENS2_20BaseViewEventEmitterENS2_9StateDataEEENS_9allocatorIS7_EEED1Ev, symObjAddr: 0x2050, symBinAddr: 0x383FC, symSize: 0x14 }
  - { offset: 0x39000A, size: 0x8, addend: 0x0, symName: __ZNSt3__120__shared_ptr_emplaceIN8facebook5react22ConcreteViewShadowNodeIXadL_ZNS2_30UnimplementedViewComponentNameEEENS2_22UnimplementedViewPropsENS2_20BaseViewEventEmitterENS2_9StateDataEEENS_9allocatorIS7_EEED0Ev, symObjAddr: 0x2064, symBinAddr: 0x38410, symSize: 0x24 }
  - { offset: 0x3900D9, size: 0x8, addend: 0x0, symName: __ZNSt3__120__shared_ptr_emplaceIN8facebook5react22ConcreteViewShadowNodeIXadL_ZNS2_30UnimplementedViewComponentNameEEENS2_22UnimplementedViewPropsENS2_20BaseViewEventEmitterENS2_9StateDataEEENS_9allocatorIS7_EEE16__on_zero_sharedEv, symObjAddr: 0x2088, symBinAddr: 0x38434, symSize: 0xC }
  - { offset: 0x390102, size: 0x8, addend: 0x0, symName: __ZNSt3__120__shared_ptr_emplaceIN8facebook5react22ConcreteViewShadowNodeIXadL_ZNS2_30UnimplementedViewComponentNameEEENS2_22UnimplementedViewPropsENS2_20BaseViewEventEmitterENS2_9StateDataEEENS_9allocatorIS7_EEE16__on_zero_sharedEv, symObjAddr: 0x2088, symBinAddr: 0x38434, symSize: 0xC }
  - { offset: 0x39011F, size: 0x8, addend: 0x0, symName: __ZNSt3__120__shared_ptr_emplaceIN8facebook5react22ConcreteViewShadowNodeIXadL_ZNS2_30UnimplementedViewComponentNameEEENS2_22UnimplementedViewPropsENS2_20BaseViewEventEmitterENS2_9StateDataEEENS_9allocatorIS7_EEE16__on_zero_sharedEv, symObjAddr: 0x2088, symBinAddr: 0x38434, symSize: 0xC }
  - { offset: 0x39013C, size: 0x8, addend: 0x0, symName: __ZNSt3__120__shared_ptr_emplaceIN8facebook5react22ConcreteViewShadowNodeIXadL_ZNS2_30UnimplementedViewComponentNameEEENS2_22UnimplementedViewPropsENS2_20BaseViewEventEmitterENS2_9StateDataEEENS_9allocatorIS7_EEE16__on_zero_sharedEv, symObjAddr: 0x2088, symBinAddr: 0x38434, symSize: 0xC }
  - { offset: 0x390167, size: 0x8, addend: 0x0, symName: __ZNSt3__120__shared_ptr_emplaceIN8facebook5react22ConcreteViewShadowNodeIXadL_ZNS2_30UnimplementedViewComponentNameEEENS2_22UnimplementedViewPropsENS2_20BaseViewEventEmitterENS2_9StateDataEEENS_9allocatorIS7_EEE21__on_zero_shared_weakEv, symObjAddr: 0x2094, symBinAddr: 0x38440, symSize: 0x4 }
  - { offset: 0x390199, size: 0x8, addend: 0x0, symName: __ZNSt3__120__shared_ptr_emplaceIN8facebook5react22ConcreteViewShadowNodeIXadL_ZNS2_30UnimplementedViewComponentNameEEENS2_22UnimplementedViewPropsENS2_20BaseViewEventEmitterENS2_9StateDataEEENS_9allocatorIS7_EEE21__on_zero_shared_weakEv, symObjAddr: 0x2094, symBinAddr: 0x38440, symSize: 0x4 }
  - { offset: 0x3901BA, size: 0x8, addend: 0x0, symName: __ZNSt3__120__shared_ptr_emplaceIN8facebook5react22ConcreteViewShadowNodeIXadL_ZNS2_30UnimplementedViewComponentNameEEENS2_22UnimplementedViewPropsENS2_20BaseViewEventEmitterENS2_9StateDataEEENS_9allocatorIS7_EEE21__on_zero_shared_weakEv, symObjAddr: 0x2094, symBinAddr: 0x38440, symSize: 0x4 }
  - { offset: 0x3901DC, size: 0x8, addend: 0x0, symName: __ZNSt3__120__shared_ptr_emplaceIN8facebook5react22ConcreteViewShadowNodeIXadL_ZNS2_30UnimplementedViewComponentNameEEENS2_22UnimplementedViewPropsENS2_20BaseViewEventEmitterENS2_9StateDataEEENS_9allocatorIS7_EEE21__on_zero_shared_weakEv, symObjAddr: 0x2094, symBinAddr: 0x38440, symSize: 0x4 }
  - { offset: 0x39020F, size: 0x8, addend: 0x0, symName: __ZNSt3__120__shared_ptr_emplaceIN8facebook5react22ConcreteViewShadowNodeIXadL_ZNS2_30UnimplementedViewComponentNameEEENS2_22UnimplementedViewPropsENS2_20BaseViewEventEmitterENS2_9StateDataEEENS_9allocatorIS7_EEE21__on_zero_shared_weakEv, symObjAddr: 0x2094, symBinAddr: 0x38440, symSize: 0x4 }
  - { offset: 0x390511, size: 0x8, addend: 0x0, symName: __ZN8facebook5react22ConcreteViewShadowNodeIXadL_ZNS0_30UnimplementedViewComponentNameEEENS0_22UnimplementedViewPropsENS0_20BaseViewEventEmitterENS0_9StateDataEED1Ev, symObjAddr: 0x2104, symBinAddr: 0x38444, symSize: 0x70 }
  - { offset: 0x390A66, size: 0x8, addend: 0x0, symName: __ZN8facebook5react22ConcreteViewShadowNodeIXadL_ZNS0_30UnimplementedViewComponentNameEEENS0_22UnimplementedViewPropsENS0_20BaseViewEventEmitterENS0_9StateDataEED0Ev, symObjAddr: 0x2174, symBinAddr: 0x384B4, symSize: 0x74 }
  - { offset: 0x390E36, size: 0x8, addend: 0x0, symName: __ZNK8facebook5react22ConcreteViewShadowNodeIXadL_ZNS0_30UnimplementedViewComponentNameEEENS0_22UnimplementedViewPropsENS0_20BaseViewEventEmitterENS0_9StateDataEE12getTransformEv, symObjAddr: 0x21E8, symBinAddr: 0x38528, symSize: 0x40 }
  - { offset: 0x390EA5, size: 0x8, addend: 0x0, symName: __ZNK8facebook5react22ConcreteViewShadowNodeIXadL_ZNS0_30UnimplementedViewComponentNameEEENS0_22UnimplementedViewPropsENS0_20BaseViewEventEmitterENS0_9StateDataEE16canBeTouchTargetEv, symObjAddr: 0x2228, symBinAddr: 0x38568, symSize: 0x18 }
  - { offset: 0x390EDD, size: 0x8, addend: 0x0, symName: __ZNK8facebook5react22ConcreteViewShadowNodeIXadL_ZNS0_30UnimplementedViewComponentNameEEENS0_22UnimplementedViewPropsENS0_20BaseViewEventEmitterENS0_9StateDataEE16canBeTouchTargetEv, symObjAddr: 0x2228, symBinAddr: 0x38568, symSize: 0x18 }
  - { offset: 0x390EF8, size: 0x8, addend: 0x0, symName: __ZNK8facebook5react22ConcreteViewShadowNodeIXadL_ZNS0_30UnimplementedViewComponentNameEEENS0_22UnimplementedViewPropsENS0_20BaseViewEventEmitterENS0_9StateDataEE16canBeTouchTargetEv, symObjAddr: 0x2228, symBinAddr: 0x38568, symSize: 0x18 }
  - { offset: 0x390F15, size: 0x8, addend: 0x0, symName: __ZNK8facebook5react22ConcreteViewShadowNodeIXadL_ZNS0_30UnimplementedViewComponentNameEEENS0_22UnimplementedViewPropsENS0_20BaseViewEventEmitterENS0_9StateDataEE24canChildrenBeTouchTargetEv, symObjAddr: 0x2240, symBinAddr: 0x38580, symSize: 0x18 }
  - { offset: 0x390F49, size: 0x8, addend: 0x0, symName: __ZNK8facebook5react22ConcreteViewShadowNodeIXadL_ZNS0_30UnimplementedViewComponentNameEEENS0_22UnimplementedViewPropsENS0_20BaseViewEventEmitterENS0_9StateDataEE24canChildrenBeTouchTargetEv, symObjAddr: 0x2240, symBinAddr: 0x38580, symSize: 0x18 }
  - { offset: 0x390F64, size: 0x8, addend: 0x0, symName: __ZNK8facebook5react22ConcreteViewShadowNodeIXadL_ZNS0_30UnimplementedViewComponentNameEEENS0_22UnimplementedViewPropsENS0_20BaseViewEventEmitterENS0_9StateDataEE24canChildrenBeTouchTargetEv, symObjAddr: 0x2240, symBinAddr: 0x38580, symSize: 0x18 }
  - { offset: 0x3912FD, size: 0x8, addend: 0x0, symName: __ZNSt3__120__shared_ptr_emplaceIN8facebook5react22ConcreteViewShadowNodeIXadL_ZNS2_30UnimplementedViewComponentNameEEENS2_22UnimplementedViewPropsENS2_20BaseViewEventEmitterENS2_9StateDataEEENS_9allocatorIS7_EEEC2B8ne200100IJRKNS2_10ShadowNodeERKNS2_18ShadowNodeFragmentEES9_Li0EEES9_DpOT_, symObjAddr: 0x253C, symBinAddr: 0x385F8, symSize: 0x64 }
  - { offset: 0x3917EE, size: 0x8, addend: 0x0, symName: __ZNSt3__120__shared_ptr_emplaceIKN8facebook5react20BaseViewEventEmitterENS_9allocatorIS3_EEEC2B8ne200100IJNS_10shared_ptrINS2_11EventTargetEEERKNS_8weak_ptrIKNS2_15EventDispatcherEEEES6_Li0EEES6_DpOT_, symObjAddr: 0x2658, symBinAddr: 0x386BC, symSize: 0x4C }
  - { offset: 0x391999, size: 0x8, addend: 0x0, symName: __ZNSt3__120__shared_ptr_emplaceIKN8facebook5react20BaseViewEventEmitterENS_9allocatorIS3_EEED1Ev, symObjAddr: 0x26A4, symBinAddr: 0x38708, symSize: 0x14 }
  - { offset: 0x3919BB, size: 0x8, addend: 0x0, symName: __ZNSt3__120__shared_ptr_emplaceIKN8facebook5react20BaseViewEventEmitterENS_9allocatorIS3_EEED1Ev, symObjAddr: 0x26A4, symBinAddr: 0x38708, symSize: 0x14 }
  - { offset: 0x3919F1, size: 0x8, addend: 0x0, symName: __ZNSt3__120__shared_ptr_emplaceIKN8facebook5react20BaseViewEventEmitterENS_9allocatorIS3_EEED0Ev, symObjAddr: 0x26B8, symBinAddr: 0x3871C, symSize: 0x24 }
  - { offset: 0x391AC0, size: 0x8, addend: 0x0, symName: __ZNSt3__120__shared_ptr_emplaceIKN8facebook5react20BaseViewEventEmitterENS_9allocatorIS3_EEE16__on_zero_sharedEv, symObjAddr: 0x26DC, symBinAddr: 0x38740, symSize: 0xC }
  - { offset: 0x391AE9, size: 0x8, addend: 0x0, symName: __ZNSt3__120__shared_ptr_emplaceIKN8facebook5react20BaseViewEventEmitterENS_9allocatorIS3_EEE16__on_zero_sharedEv, symObjAddr: 0x26DC, symBinAddr: 0x38740, symSize: 0xC }
  - { offset: 0x391B06, size: 0x8, addend: 0x0, symName: __ZNSt3__120__shared_ptr_emplaceIKN8facebook5react20BaseViewEventEmitterENS_9allocatorIS3_EEE16__on_zero_sharedEv, symObjAddr: 0x26DC, symBinAddr: 0x38740, symSize: 0xC }
  - { offset: 0x391B23, size: 0x8, addend: 0x0, symName: __ZNSt3__120__shared_ptr_emplaceIKN8facebook5react20BaseViewEventEmitterENS_9allocatorIS3_EEE16__on_zero_sharedEv, symObjAddr: 0x26DC, symBinAddr: 0x38740, symSize: 0xC }
  - { offset: 0x391B4E, size: 0x8, addend: 0x0, symName: __ZNSt3__120__shared_ptr_emplaceIKN8facebook5react20BaseViewEventEmitterENS_9allocatorIS3_EEE21__on_zero_shared_weakEv, symObjAddr: 0x26E8, symBinAddr: 0x3874C, symSize: 0x4 }
  - { offset: 0x391B80, size: 0x8, addend: 0x0, symName: __ZNSt3__120__shared_ptr_emplaceIKN8facebook5react20BaseViewEventEmitterENS_9allocatorIS3_EEE21__on_zero_shared_weakEv, symObjAddr: 0x26E8, symBinAddr: 0x3874C, symSize: 0x4 }
  - { offset: 0x391BA1, size: 0x8, addend: 0x0, symName: __ZNSt3__120__shared_ptr_emplaceIKN8facebook5react20BaseViewEventEmitterENS_9allocatorIS3_EEE21__on_zero_shared_weakEv, symObjAddr: 0x26E8, symBinAddr: 0x3874C, symSize: 0x4 }
  - { offset: 0x391BC3, size: 0x8, addend: 0x0, symName: __ZNSt3__120__shared_ptr_emplaceIKN8facebook5react20BaseViewEventEmitterENS_9allocatorIS3_EEE21__on_zero_shared_weakEv, symObjAddr: 0x26E8, symBinAddr: 0x3874C, symSize: 0x4 }
  - { offset: 0x391BF5, size: 0x8, addend: 0x0, symName: __ZNSt3__120__shared_ptr_emplaceIKN8facebook5react20BaseViewEventEmitterENS_9allocatorIS3_EEE21__on_zero_shared_weakEv, symObjAddr: 0x26E8, symBinAddr: 0x3874C, symSize: 0x4 }
  - { offset: 0x39203C, size: 0x8, addend: 0x0, symName: __ZN8facebook5react12EventEmitterD2Ev, symObjAddr: 0x2924, symBinAddr: 0x38930, symSize: 0x50 }
  - { offset: 0x392198, size: 0x8, addend: 0x0, symName: __ZN8facebook5react20BaseViewEventEmitterD1Ev, symObjAddr: 0x281C, symBinAddr: 0x38880, symSize: 0x34 }
  - { offset: 0x3922A3, size: 0x8, addend: 0x0, symName: __ZN8facebook5react20BaseViewEventEmitterD0Ev, symObjAddr: 0x2850, symBinAddr: 0x388B4, symSize: 0x38 }
  - { offset: 0x39237D, size: 0x8, addend: 0x0, symName: __ZNSt3__120__shared_ptr_emplaceIN8facebook5react20BaseViewEventEmitter16LayoutEventStateENS_9allocatorIS4_EEED1Ev, symObjAddr: 0x2888, symBinAddr: 0x388EC, symSize: 0x14 }
  - { offset: 0x39239F, size: 0x8, addend: 0x0, symName: __ZNSt3__120__shared_ptr_emplaceIN8facebook5react20BaseViewEventEmitter16LayoutEventStateENS_9allocatorIS4_EEED1Ev, symObjAddr: 0x2888, symBinAddr: 0x388EC, symSize: 0x14 }
  - { offset: 0x3923D5, size: 0x8, addend: 0x0, symName: __ZNSt3__120__shared_ptr_emplaceIN8facebook5react20BaseViewEventEmitter16LayoutEventStateENS_9allocatorIS4_EEED0Ev, symObjAddr: 0x289C, symBinAddr: 0x38900, symSize: 0x24 }
  - { offset: 0x3924F2, size: 0x8, addend: 0x0, symName: __ZNSt3__120__shared_ptr_emplaceIN8facebook5react20BaseViewEventEmitter16LayoutEventStateENS_9allocatorIS4_EEE16__on_zero_sharedEv, symObjAddr: 0x28C0, symBinAddr: 0x38924, symSize: 0x8 }
  - { offset: 0x39251B, size: 0x8, addend: 0x0, symName: __ZNSt3__120__shared_ptr_emplaceIN8facebook5react20BaseViewEventEmitter16LayoutEventStateENS_9allocatorIS4_EEE16__on_zero_sharedEv, symObjAddr: 0x28C0, symBinAddr: 0x38924, symSize: 0x8 }
  - { offset: 0x392538, size: 0x8, addend: 0x0, symName: __ZNSt3__120__shared_ptr_emplaceIN8facebook5react20BaseViewEventEmitter16LayoutEventStateENS_9allocatorIS4_EEE16__on_zero_sharedEv, symObjAddr: 0x28C0, symBinAddr: 0x38924, symSize: 0x8 }
  - { offset: 0x392608, size: 0x8, addend: 0x0, symName: __ZNSt3__120__shared_ptr_emplaceIN8facebook5react20BaseViewEventEmitter16LayoutEventStateENS_9allocatorIS4_EEE21__on_zero_shared_weakEv, symObjAddr: 0x28C8, symBinAddr: 0x3892C, symSize: 0x4 }
  - { offset: 0x39263A, size: 0x8, addend: 0x0, symName: __ZNSt3__120__shared_ptr_emplaceIN8facebook5react20BaseViewEventEmitter16LayoutEventStateENS_9allocatorIS4_EEE21__on_zero_shared_weakEv, symObjAddr: 0x28C8, symBinAddr: 0x3892C, symSize: 0x4 }
  - { offset: 0x39265B, size: 0x8, addend: 0x0, symName: __ZNSt3__120__shared_ptr_emplaceIN8facebook5react20BaseViewEventEmitter16LayoutEventStateENS_9allocatorIS4_EEE21__on_zero_shared_weakEv, symObjAddr: 0x28C8, symBinAddr: 0x3892C, symSize: 0x4 }
  - { offset: 0x39267D, size: 0x8, addend: 0x0, symName: __ZNSt3__120__shared_ptr_emplaceIN8facebook5react20BaseViewEventEmitter16LayoutEventStateENS_9allocatorIS4_EEE21__on_zero_shared_weakEv, symObjAddr: 0x28C8, symBinAddr: 0x3892C, symSize: 0x4 }
  - { offset: 0x3926B0, size: 0x8, addend: 0x0, symName: __ZNSt3__120__shared_ptr_emplaceIN8facebook5react20BaseViewEventEmitter16LayoutEventStateENS_9allocatorIS4_EEE21__on_zero_shared_weakEv, symObjAddr: 0x28C8, symBinAddr: 0x3892C, symSize: 0x4 }
  - { offset: 0x3926D8, size: 0x8, addend: 0x0, symName: __ZN8facebook5react12EventEmitterD1Ev, symObjAddr: 0x2974, symBinAddr: 0x38980, symSize: 0x4 }
  - { offset: 0x3926FB, size: 0x8, addend: 0x0, symName: __ZN8facebook5react12EventEmitterD1Ev, symObjAddr: 0x2974, symBinAddr: 0x38980, symSize: 0x4 }
  - { offset: 0x39272E, size: 0x8, addend: 0x0, symName: __ZN8facebook5react12EventEmitterD0Ev, symObjAddr: 0x2978, symBinAddr: 0x38984, symSize: 0x14 }
  - { offset: 0x3929DE, size: 0x8, addend: 0x0, symName: __ZNSt3__120__shared_ptr_emplaceIN8facebook5react11EventTargetENS_9allocatorIS3_EEEC2B8ne200100IJRKNS_10shared_ptrIKNS2_14InstanceHandleEEERKiES5_Li0EEES5_DpOT_, symObjAddr: 0x2A44, symBinAddr: 0x389F8, symSize: 0x4C }
  - { offset: 0x392B89, size: 0x8, addend: 0x0, symName: __ZNSt3__120__shared_ptr_emplaceIN8facebook5react11EventTargetENS_9allocatorIS3_EEED1Ev, symObjAddr: 0x2A90, symBinAddr: 0x38A44, symSize: 0x14 }
  - { offset: 0x392BAB, size: 0x8, addend: 0x0, symName: __ZNSt3__120__shared_ptr_emplaceIN8facebook5react11EventTargetENS_9allocatorIS3_EEED1Ev, symObjAddr: 0x2A90, symBinAddr: 0x38A44, symSize: 0x14 }
  - { offset: 0x392BE1, size: 0x8, addend: 0x0, symName: __ZNSt3__120__shared_ptr_emplaceIN8facebook5react11EventTargetENS_9allocatorIS3_EEED0Ev, symObjAddr: 0x2AA4, symBinAddr: 0x38A58, symSize: 0x24 }
  - { offset: 0x392D08, size: 0x8, addend: 0x0, symName: __ZNSt3__120__shared_ptr_emplaceIN8facebook5react11EventTargetENS_9allocatorIS3_EEE16__on_zero_sharedEv, symObjAddr: 0x2AC8, symBinAddr: 0x38A7C, symSize: 0x28 }
  - { offset: 0x392E12, size: 0x8, addend: 0x0, symName: __ZNSt3__120__shared_ptr_emplaceIN8facebook5react11EventTargetENS_9allocatorIS3_EEE21__on_zero_shared_weakEv, symObjAddr: 0x2AF0, symBinAddr: 0x38AA4, symSize: 0x4 }
  - { offset: 0x392E44, size: 0x8, addend: 0x0, symName: __ZNSt3__120__shared_ptr_emplaceIN8facebook5react11EventTargetENS_9allocatorIS3_EEE21__on_zero_shared_weakEv, symObjAddr: 0x2AF0, symBinAddr: 0x38AA4, symSize: 0x4 }
  - { offset: 0x392E65, size: 0x8, addend: 0x0, symName: __ZNSt3__120__shared_ptr_emplaceIN8facebook5react11EventTargetENS_9allocatorIS3_EEE21__on_zero_shared_weakEv, symObjAddr: 0x2AF0, symBinAddr: 0x38AA4, symSize: 0x4 }
  - { offset: 0x392E87, size: 0x8, addend: 0x0, symName: __ZNSt3__120__shared_ptr_emplaceIN8facebook5react11EventTargetENS_9allocatorIS3_EEE21__on_zero_shared_weakEv, symObjAddr: 0x2AF0, symBinAddr: 0x38AA4, symSize: 0x4 }
  - { offset: 0x392EB9, size: 0x8, addend: 0x0, symName: __ZNSt3__120__shared_ptr_emplaceIN8facebook5react11EventTargetENS_9allocatorIS3_EEE21__on_zero_shared_weakEv, symObjAddr: 0x2AF0, symBinAddr: 0x38AA4, symSize: 0x4 }
  - { offset: 0x3931C1, size: 0x8, addend: 0x0, symName: __ZNSt3__120__shared_ptr_emplaceIN8facebook5react16ShadowNodeFamilyENS_9allocatorIS3_EEEC2B8ne200100IJRKNS2_24ShadowNodeFamilyFragmentERNS_10shared_ptrIKNS2_20BaseViewEventEmitterEEERKNS_8weak_ptrIKNS2_15EventDispatcherEEERKNS2_27ConcreteComponentDescriptorINS2_22ConcreteViewShadowNodeIXadL_ZNS2_30UnimplementedViewComponentNameEEENS2_22UnimplementedViewPropsESC_NS2_9StateDataEEEEEES5_Li0EEES5_DpOT_, symObjAddr: 0x2CC0, symBinAddr: 0x38BC4, symSize: 0x4C }
  - { offset: 0x3933E6, size: 0x8, addend: 0x0, symName: __ZNSt3__120__shared_ptr_emplaceIN8facebook5react16ShadowNodeFamilyENS_9allocatorIS3_EEED1Ev, symObjAddr: 0x2D0C, symBinAddr: 0x38C10, symSize: 0x14 }
  - { offset: 0x393408, size: 0x8, addend: 0x0, symName: __ZNSt3__120__shared_ptr_emplaceIN8facebook5react16ShadowNodeFamilyENS_9allocatorIS3_EEED1Ev, symObjAddr: 0x2D0C, symBinAddr: 0x38C10, symSize: 0x14 }
  - { offset: 0x39343E, size: 0x8, addend: 0x0, symName: __ZNSt3__120__shared_ptr_emplaceIN8facebook5react16ShadowNodeFamilyENS_9allocatorIS3_EEED0Ev, symObjAddr: 0x2D20, symBinAddr: 0x38C24, symSize: 0x24 }
  - { offset: 0x39350D, size: 0x8, addend: 0x0, symName: __ZNSt3__120__shared_ptr_emplaceIN8facebook5react16ShadowNodeFamilyENS_9allocatorIS3_EEE16__on_zero_sharedEv, symObjAddr: 0x2D44, symBinAddr: 0x38C48, symSize: 0x8 }
  - { offset: 0x393536, size: 0x8, addend: 0x0, symName: __ZNSt3__120__shared_ptr_emplaceIN8facebook5react16ShadowNodeFamilyENS_9allocatorIS3_EEE16__on_zero_sharedEv, symObjAddr: 0x2D44, symBinAddr: 0x38C48, symSize: 0x8 }
  - { offset: 0x393553, size: 0x8, addend: 0x0, symName: __ZNSt3__120__shared_ptr_emplaceIN8facebook5react16ShadowNodeFamilyENS_9allocatorIS3_EEE16__on_zero_sharedEv, symObjAddr: 0x2D44, symBinAddr: 0x38C48, symSize: 0x8 }
  - { offset: 0x393598, size: 0x8, addend: 0x0, symName: __ZNSt3__120__shared_ptr_emplaceIN8facebook5react16ShadowNodeFamilyENS_9allocatorIS3_EEE21__on_zero_shared_weakEv, symObjAddr: 0x2D4C, symBinAddr: 0x38C50, symSize: 0x4 }
  - { offset: 0x3935CA, size: 0x8, addend: 0x0, symName: __ZNSt3__120__shared_ptr_emplaceIN8facebook5react16ShadowNodeFamilyENS_9allocatorIS3_EEE21__on_zero_shared_weakEv, symObjAddr: 0x2D4C, symBinAddr: 0x38C50, symSize: 0x4 }
  - { offset: 0x3935EB, size: 0x8, addend: 0x0, symName: __ZNSt3__120__shared_ptr_emplaceIN8facebook5react16ShadowNodeFamilyENS_9allocatorIS3_EEE21__on_zero_shared_weakEv, symObjAddr: 0x2D4C, symBinAddr: 0x38C50, symSize: 0x4 }
  - { offset: 0x39360D, size: 0x8, addend: 0x0, symName: __ZNSt3__120__shared_ptr_emplaceIN8facebook5react16ShadowNodeFamilyENS_9allocatorIS3_EEE21__on_zero_shared_weakEv, symObjAddr: 0x2D4C, symBinAddr: 0x38C50, symSize: 0x4 }
  - { offset: 0x393640, size: 0x8, addend: 0x0, symName: __ZNSt3__120__shared_ptr_emplaceIN8facebook5react16ShadowNodeFamilyENS_9allocatorIS3_EEE21__on_zero_shared_weakEv, symObjAddr: 0x2D4C, symBinAddr: 0x38C50, symSize: 0x4 }
  - { offset: 0x395878, size: 0x8, addend: 0x0, symName: __ZN8facebook5react22UnimplementedViewProps16setComponentNameEPKc, symObjAddr: 0x0, symBinAddr: 0x38D30, symSize: 0x8 }
  - { offset: 0x3966BD, size: 0x8, addend: 0x0, symName: __ZN8facebook5react22UnimplementedViewProps16setComponentNameEPKc, symObjAddr: 0x0, symBinAddr: 0x38D30, symSize: 0x8 }
  - { offset: 0x3966F2, size: 0x8, addend: 0x0, symName: __ZNK8facebook5react22UnimplementedViewProps16getComponentNameEv, symObjAddr: 0x8, symBinAddr: 0x38D38, symSize: 0x8 }
  - { offset: 0x3986E6, size: 0x8, addend: 0x0, symName: __ZN8facebook5react30UnimplementedViewComponentNameE, symObjAddr: 0x0, symBinAddr: 0x3CAC5, symSize: 0x0 }
...
