---
triple:          'arm64-apple-darwin'
binary-path:     '/Users/uk-aplatts/Development/InjuryIQ/ios/DerivedData/Build/Intermediates.noindex/ArchiveIntermediates/InjuryIQ/IntermediateBuildFilesPath/UninstalledProducts/iphoneos/folly.framework/folly'
relocations:
  - { offset: 0x33, size: 0x8, addend: 0x0, symName: _follyVersionString, symObjAddr: 0x0, symBinAddr: 0x3A3C0, symSize: 0x0 }
  - { offset: 0x67, size: 0x8, addend: 0x0, symName: _follyVersionNumber, symObjAddr: 0x28, symBinAddr: 0x3A3E8, symSize: 0x0 }
  - { offset: 0xCD, size: 0x8, addend: 0x0, symName: __ZN5folly6AtFork5init_E, symObjAddr: 0x35A7E, symBinAddr: 0x54438, symSize: 0x0 }
  - { offset: 0x43E, size: 0x8, addend: 0x0, symName: __ZN5folly6detail16throw_exception_ISt16invalid_argumentJPKcEEEvDpT0_, symObjAddr: 0x904, symBinAddr: 0x37B70, symSize: 0x4C }
  - { offset: 0x4D9, size: 0x8, addend: 0x0, symName: __ZN5folly6detail16throw_exception_ISt12out_of_rangeJPKcEEEvDpT0_, symObjAddr: 0xDB8, symBinAddr: 0x37C7C, symSize: 0x4C }
  - { offset: 0x574, size: 0x8, addend: 0x0, symName: __ZN5folly6detail16throw_exception_INSt3__117bad_function_callEJEEEvDpT0_, symObjAddr: 0x9B4, symBinAddr: 0x37BFC, symSize: 0x40 }
  - { offset: 0x82B, size: 0x8, addend: 0x0, symName: __ZN5folly12_GLOBAL__N_118SkipAtForkHandlers5valueE, symObjAddr: 0x144C, symBinAddr: 0x54390, symSize: 0x0 }
  - { offset: 0x9F4, size: 0x8, addend: 0x0, symName: __ZN5folly15throw_exceptionISt16invalid_argumentEEvOT_, symObjAddr: 0x950, symBinAddr: 0x37BBC, symSize: 0x34 }
  - { offset: 0xA55, size: 0x8, addend: 0x0, symName: __ZN5folly15throw_exceptionINSt3__117bad_function_callEEEvOT_, symObjAddr: 0x9F4, symBinAddr: 0x37C3C, symSize: 0x34 }
  - { offset: 0xABF, size: 0x8, addend: 0x0, symName: __ZN5folly15throw_exceptionISt12out_of_rangeEEvOT_, symObjAddr: 0xE04, symBinAddr: 0x37CC8, symSize: 0x34 }
  - { offset: 0x6F03, size: 0x8, addend: 0x0, symName: __ZNSt3__112construct_atB8ne200100IN5folly10AtForkList4TaskEJS3_EPS3_EEPT_S6_DpOT0_, symObjAddr: 0xA4C, symBinAddr: 0x4940, symSize: 0xBC }
  - { offset: 0x7243, size: 0x8, addend: 0x0, symName: __ZNSt3__112__destroy_atB8ne200100IN5folly10AtForkList4TaskELi0EEEvPT_, symObjAddr: 0x124C, symBinAddr: 0x50C0, symSize: 0x6C }
  - { offset: 0x7586, size: 0x8, addend: 0x0, symName: __ZNSt3__127__tree_balance_after_insertB8ne200100IPNS_16__tree_node_baseIPvEEEEvT_S5_, symObjAddr: 0xC1C, symBinAddr: 0x4B10, symSize: 0x19C }
  - { offset: 0x797C, size: 0x8, addend: 0x0, symName: __ZNSt3__113__tree_removeB8ne200100IPNS_16__tree_node_baseIPvEEEEvT_S5_, symObjAddr: 0xECC, symBinAddr: 0x4D40, symSize: 0x380 }
  - { offset: 0x9412, size: 0x8, addend: 0x0, symName: __ZN5folly12_GLOBAL__N_119AtForkListSingleton3getEv, symObjAddr: 0x784, symBinAddr: 0x4784, symSize: 0xAC }
  - { offset: 0x9432, size: 0x8, addend: 0x0, symName: __ZZN5folly12_GLOBAL__N_119AtForkListSingleton3getEvE8instance, symObjAddr: 0x35A88, symBinAddr: 0x544A8, symSize: 0x0 }
  - { offset: 0x986F, size: 0x8, addend: 0x0, symName: __ZN5folly10AtForkList7prepareEv, symObjAddr: 0x0, symBinAddr: 0x4000, symSize: 0xC8 }
  - { offset: 0x9AAF, size: 0x8, addend: 0x0, symName: __ZN5folly10AtForkList6parentEv, symObjAddr: 0xD8, symBinAddr: 0x40D8, symSize: 0x58 }
  - { offset: 0x9B7C, size: 0x8, addend: 0x0, symName: __ZN5folly10AtForkList5childEv, symObjAddr: 0x130, symBinAddr: 0x4130, symSize: 0x58 }
  - { offset: 0xA03E, size: 0x8, addend: 0x0, symName: __ZN5folly10AtForkList6appendEPKvNS_8FunctionIFbvEEENS3_IFvvEEES7_, symObjAddr: 0x188, symBinAddr: 0x4188, symSize: 0x1E0 }
  - { offset: 0xA5A1, size: 0x8, addend: 0x0, symName: __ZNSt3__14listIN5folly10AtForkList4TaskENS_9allocatorIS3_EEE6insertENS_21__list_const_iteratorIS3_PvEEOS3_, symObjAddr: 0x368, symBinAddr: 0x4368, symSize: 0x68 }
  - { offset: 0xA829, size: 0x8, addend: 0x0, symName: __ZNSt3__16__treeINS_12__value_typeIPKvNS_15__list_iteratorIN5folly10AtForkList4TaskEPvEEEENS_19__map_value_compareIS3_SA_NS_4lessIS3_EELb1EEENS_9allocatorISA_EEE25__emplace_unique_key_argsIS3_JRS3_RS9_EEENS_4pairINS_15__tree_iteratorISA_PNS_11__tree_nodeISA_S8_EElEEbEERKT_DpOT0_, symObjAddr: 0xB08, symBinAddr: 0x49FC, symSize: 0xC0 }
  - { offset: 0xAB63, size: 0x8, addend: 0x0, symName: __ZN5folly10AtForkList4TaskD1Ev, symObjAddr: 0x3D0, symBinAddr: 0x43D0, symSize: 0x68 }
  - { offset: 0xB256, size: 0x8, addend: 0x0, symName: __ZN5folly10AtForkList6removeEPKv, symObjAddr: 0x438, symBinAddr: 0x4438, symSize: 0xE4 }
  - { offset: 0xB70F, size: 0x8, addend: 0x0, symName: __ZNSt3__16__treeINS_12__value_typeIPKvNS_15__list_iteratorIN5folly10AtForkList4TaskEPvEEEENS_19__map_value_compareIS3_SA_NS_4lessIS3_EELb1EEENS_9allocatorISA_EEE21__remove_node_pointerEPNS_11__tree_nodeISA_S8_EE, symObjAddr: 0xE5C, symBinAddr: 0x4CD0, symSize: 0x70 }
  - { offset: 0xB7D3, size: 0x8, addend: 0x0, symName: __ZN5folly10AtForkList8containsEPKv, symObjAddr: 0x51C, symBinAddr: 0x451C, symSize: 0x64 }
  - { offset: 0xB91E, size: 0x8, addend: 0x0, symName: __ZN5folly6AtFork4initEv, symObjAddr: 0x580, symBinAddr: 0x4580, symSize: 0x68 }
  - { offset: 0xB950, size: 0x8, addend: 0x0, symName: __ZN5folly6AtFork15registerHandlerEPKvNS_8FunctionIFbvEEENS3_IFvvEEES7_, symObjAddr: 0x5E8, symBinAddr: 0x45E8, symSize: 0x19C }
  - { offset: 0xBE68, size: 0x8, addend: 0x0, symName: __ZN5folly6AtFork15registerHandlerEPKvNS_8FunctionIFbvEEENS3_IFvvEEES7_.cold.1, symObjAddr: 0x12B8, symBinAddr: 0x37CFC, symSize: 0x50 }
  - { offset: 0xC09B, size: 0x8, addend: 0x0, symName: __ZN5folly6AtFork17unregisterHandlerEPKv, symObjAddr: 0x830, symBinAddr: 0x4830, symSize: 0x24 }
  - { offset: 0xC15F, size: 0x8, addend: 0x0, symName: __ZN5folly6AtFork16forkInstrumentedEPFivE, symObjAddr: 0x854, symBinAddr: 0x4854, symSize: 0xB0 }
  - { offset: 0xC2DA, size: 0x8, addend: 0x0, symName: __ZNSt16invalid_argumentC1B8ne200100ERKS_, symObjAddr: 0x984, symBinAddr: 0x4904, symSize: 0x24 }
  - { offset: 0xC36A, size: 0x8, addend: 0x0, symName: __ZN5folly6detail8function14FunctionTraitsIFbvEE10uninitCallERNS1_4DataE, symObjAddr: 0x9A8, symBinAddr: 0x37BF0, symSize: 0xC }
  - { offset: 0xC3A4, size: 0x8, addend: 0x0, symName: __ZN5folly6detail16throw_exception_INSt3__117bad_function_callEJEEEvDpT0_, symObjAddr: 0x9B4, symBinAddr: 0x37BFC, symSize: 0x40 }
  - { offset: 0xC460, size: 0x8, addend: 0x0, symName: __ZNSt3__117bad_function_callD1Ev, symObjAddr: 0xA28, symBinAddr: 0x4928, symSize: 0x4 }
  - { offset: 0xC482, size: 0x8, addend: 0x0, symName: __ZNSt3__117bad_function_callD1Ev, symObjAddr: 0xA28, symBinAddr: 0x4928, symSize: 0x4 }
  - { offset: 0xC49C, size: 0x8, addend: 0x0, symName: __ZNSt3__117bad_function_callD0Ev, symObjAddr: 0xA2C, symBinAddr: 0x492C, symSize: 0x14 }
  - { offset: 0xC4FD, size: 0x8, addend: 0x0, symName: __ZN5folly6detail8function14FunctionTraitsIFvvEE10uninitCallERNS1_4DataE, symObjAddr: 0xA40, symBinAddr: 0x37C70, symSize: 0xC }
  - { offset: 0xC537, size: 0x8, addend: 0x0, symName: __ZNSt3__112construct_atB8ne200100IN5folly10AtForkList4TaskEJS3_EPS3_EEPT_S6_DpOT0_, symObjAddr: 0xA4C, symBinAddr: 0x4940, symSize: 0xBC }
  - { offset: 0xC75C, size: 0x8, addend: 0x0, symName: __ZNSt3__16__treeINS_12__value_typeIPKvNS_15__list_iteratorIN5folly10AtForkList4TaskEPvEEEENS_19__map_value_compareIS3_SA_NS_4lessIS3_EELb1EEENS_9allocatorISA_EEE16__insert_node_atEPNS_15__tree_end_nodeIPNS_16__tree_node_baseIS8_EEEERSL_SL_, symObjAddr: 0xBC8, symBinAddr: 0x4ABC, symSize: 0x54 }
  - { offset: 0xC850, size: 0x8, addend: 0x0, symName: __ZNSt12out_of_rangeC1B8ne200100ERKS_, symObjAddr: 0xE38, symBinAddr: 0x4CAC, symSize: 0x24 }
  - { offset: 0xC8EE, size: 0x8, addend: 0x0, symName: __GLOBAL__sub_I_AtFork.cpp, symObjAddr: 0x13FC, symBinAddr: 0x512C, symSize: 0x1C }
  - { offset: 0xEE9C, size: 0x8, addend: 0x0, symName: __ZN5folly6detail24AccessSpreaderStaticInit8instanceE, symObjAddr: 0xC1E68, symBinAddr: 0x54439, symSize: 0x0 }
  - { offset: 0xF0CE, size: 0x8, addend: 0x0, symName: __ZN5folly6detail16throw_exception_ISt9bad_allocJEEEvDpT0_, symObjAddr: 0x5920, symBinAddr: 0x37D4C, symSize: 0x38 }
  - { offset: 0xF10B, size: 0x8, addend: 0x0, symName: __ZN5folly6detail19coreMallocFromGuardEm, symObjAddr: 0x1E88, symBinAddr: 0x6EF4, symSize: 0x84 }
  - { offset: 0xF1CC, size: 0x8, addend: 0x0, symName: __ZN5folly10coreMallocEmmm, symObjAddr: 0x1AC8, symBinAddr: 0x6B34, symSize: 0x1EC }
  - { offset: 0xF1F8, size: 0x8, addend: 0x0, symName: __ZZN5folly10coreMallocEmmmE10allocators, symObjAddr: 0xC0050, symBinAddr: 0x544C8, symSize: 0x0 }
  - { offset: 0xF867, size: 0x8, addend: 0x0, symName: __ZN5folly12_GLOBAL__N_119gCoreAllocatorGuardE, symObjAddr: 0x6717, symBinAddr: 0x543C0, symSize: 0x0 }
  - { offset: 0xFACB, size: 0x8, addend: 0x0, symName: __ZN5follyL18parseLeadingNumberERKNSt3__112basic_stringIcNS0_11char_traitsIcEENS0_9allocatorIcEEEE, symObjAddr: 0x9A0, symBinAddr: 0x5AE8, symSize: 0x12C }
  - { offset: 0xFEE1, size: 0x8, addend: 0x0, symName: __ZN5folly8coreFreeEPv, symObjAddr: 0x1D40, symBinAddr: 0x6DAC, symSize: 0x64 }
  - { offset: 0x10020, size: 0x8, addend: 0x0, symName: __ZN5folly15throw_exceptionISt9bad_allocEEvOT_, symObjAddr: 0x5958, symBinAddr: 0x37D84, symSize: 0x34 }
  - { offset: 0x23F48, size: 0x8, addend: 0x0, symName: '__ZNSt3__111__introsortINS_17_ClassicAlgPolicyERZN5folly13CacheLocalityC1ENS_6vectorINS4_ImNS_9allocatorImEEEENS5_IS7_EEEEE3$_0PmLb0EEEvT1_SD_T0_NS_15iterator_traitsISD_E15difference_typeEb', symObjAddr: 0x20AC, symBinAddr: 0x7108, symSize: 0xFE0 }
  - { offset: 0x25934, size: 0x8, addend: 0x0, symName: '__ZNSt3__127__insertion_sort_incompleteB8ne200100INS_17_ClassicAlgPolicyERZN5folly13CacheLocalityC1ENS_6vectorINS4_ImNS_9allocatorImEEEENS5_IS7_EEEEE3$_0PmEEbT1_SD_T0_', symObjAddr: 0x371C, symBinAddr: 0x8778, symSize: 0x2B0 }
  - { offset: 0x275D5, size: 0x8, addend: 0x0, symName: __ZNSt3__111__introsortINS_17_ClassicAlgPolicyERNS_6__lessIvvEEPNS_5tupleIJmmmEEELb0EEEvT1_S8_T0_NS_15iterator_traitsIS8_E15difference_typeEb, symObjAddr: 0x3D7C, symBinAddr: 0x8D6C, symSize: 0x39C }
  - { offset: 0x27D9F, size: 0x8, addend: 0x0, symName: __ZNSt3__126__insertion_sort_unguardedB8ne200100INS_17_ClassicAlgPolicyERNS_6__lessIvvEEPNS_5tupleIJmmmEEEEEvT1_S8_T0_, symObjAddr: 0x45BC, symBinAddr: 0x95AC, symSize: 0xC8 }
  - { offset: 0x27FC8, size: 0x8, addend: 0x0, symName: __ZNSt3__111__sift_downB8ne200100INS_17_ClassicAlgPolicyERNS_6__lessIvvEEPNS_5tupleIJmmmEEEEEvT1_OT0_NS_15iterator_traitsIS8_E15difference_typeES8_, symObjAddr: 0x4E40, symBinAddr: 0x9E30, symSize: 0x1A4 }
  - { offset: 0x282C7, size: 0x8, addend: 0x0, symName: __ZNSt3__117__floyd_sift_downB8ne200100INS_17_ClassicAlgPolicyERNS_6__lessIvvEEPNS_5tupleIJmmmEEEEET1_S8_OT0_NS_15iterator_traitsIS8_E15difference_typeE, symObjAddr: 0x4FE4, symBinAddr: 0x9FD4, symSize: 0xB8 }
  - { offset: 0x28414, size: 0x8, addend: 0x0, symName: __ZNSt3__131__partition_with_equals_on_leftB8ne200100INS_17_ClassicAlgPolicyEPNS_5tupleIJmmmEEERNS_6__lessIvvEEEET0_S8_S8_T1_, symObjAddr: 0x4684, symBinAddr: 0x9674, symSize: 0x1F0 }
  - { offset: 0x28BB5, size: 0x8, addend: 0x0, symName: __ZNSt3__132__partition_with_equals_on_rightB8ne200100INS_17_ClassicAlgPolicyEPNS_5tupleIJmmmEEERNS_6__lessIvvEEEENS_4pairIT0_bEES9_S9_T1_, symObjAddr: 0x4874, symBinAddr: 0x9864, symSize: 0x1CC }
  - { offset: 0x29321, size: 0x8, addend: 0x0, symName: __ZNSt3__127__insertion_sort_incompleteB8ne200100INS_17_ClassicAlgPolicyERNS_6__lessIvvEEPNS_5tupleIJmmmEEEEEbT1_S8_T0_, symObjAddr: 0x4A40, symBinAddr: 0x9A30, symSize: 0x204 }
  - { offset: 0x2A96E, size: 0x8, addend: 0x0, symName: __ZNSt3__124__put_character_sequenceB8ne200100IcNS_11char_traitsIcEEEERNS_13basic_ostreamIT_T0_EES7_PKS4_m, symObjAddr: 0x5D80, symBinAddr: 0xAC18, symSize: 0x168 }
  - { offset: 0x2B878, size: 0x8, addend: 0x0, symName: __ZNSt3__119__allocate_at_leastB8ne200100INS_9allocatorImEEEENS_19__allocation_resultINS_16allocator_traitsIT_E7pointerEEERS5_m, symObjAddr: 0x1FA4, symBinAddr: 0x7000, symSize: 0x34 }
  - { offset: 0x2B91E, size: 0x8, addend: 0x0, symName: __ZSt28__throw_bad_array_new_lengthB8ne200100v, symObjAddr: 0x1FD8, symBinAddr: 0x7034, symSize: 0x28 }
  - { offset: 0x2BC73, size: 0x8, addend: 0x0, symName: __ZNSt3__119__allocate_at_leastB8ne200100INS_9allocatorINS_6vectorImNS1_ImEEEEEEEENS_19__allocation_resultINS_16allocator_traitsIT_E7pointerEEERS8_m, symObjAddr: 0x3C54, symBinAddr: 0x8C9C, symSize: 0x44 }
  - { offset: 0x2BD19, size: 0x8, addend: 0x0, symName: __ZNSt3__114__split_bufferINS_6vectorImNS_9allocatorImEEEERNS2_IS4_EEED2Ev, symObjAddr: 0x3C98, symBinAddr: 0x8CE0, symSize: 0x34 }
  - { offset: 0x2C4A7, size: 0x8, addend: 0x0, symName: __ZNSt3__111__introsortINS_17_ClassicAlgPolicyERNS_6__lessIvvEEPNS_5tupleIJmmmEEELb0EEEvT1_S8_T0_NS_15iterator_traitsIS8_E15difference_typeEb, symObjAddr: 0x3D7C, symBinAddr: 0x8D6C, symSize: 0x39C }
  - { offset: 0x2D9E3, size: 0x8, addend: 0x0, symName: __ZNSt3__114__split_bufferINS_12basic_stringIcNS_11char_traitsIcEENS_9allocatorIcEEEERNS4_IS6_EEED2Ev, symObjAddr: 0x5480, symBinAddr: 0xA418, symSize: 0x34 }
  - { offset: 0x2DC0F, size: 0x8, addend: 0x0, symName: __ZNSt3__120__throw_length_errorB8ne200100EPKc, symObjAddr: 0x1F30, symBinAddr: 0x6F8C, symSize: 0x50 }
  - { offset: 0x2E502, size: 0x8, addend: 0x0, symName: '__ZNSt3__17__sort3B8ne200100INS_17_ClassicAlgPolicyERZN5folly13CacheLocalityC1ENS_6vectorINS4_ImNS_9allocatorImEEEENS5_IS7_EEEEE3$_0PmLi0EEEbT1_SD_SD_T0_', symObjAddr: 0x308C, symBinAddr: 0x80E8, symSize: 0x258 }
  - { offset: 0x2EB36, size: 0x8, addend: 0x0, symName: '__ZNSt3__17__sort5B8ne200100INS_17_ClassicAlgPolicyERZN5folly13CacheLocalityC1ENS_6vectorINS4_ImNS_9allocatorImEEEENS5_IS7_EEEEE3$_0PmLi0EEEvT1_SD_SD_SD_SD_T0_', symObjAddr: 0x34BC, symBinAddr: 0x8518, symSize: 0x260 }
  - { offset: 0x2F137, size: 0x8, addend: 0x0, symName: '__ZNSt3__17__sort4B8ne200100INS_17_ClassicAlgPolicyERZN5folly13CacheLocalityC1ENS_6vectorINS4_ImNS_9allocatorImEEEENS5_IS7_EEEEE3$_0PmLi0EEEvT1_SD_SD_SD_T0_', symObjAddr: 0x32E4, symBinAddr: 0x8340, symSize: 0x1D8 }
  - { offset: 0x2FA17, size: 0x8, addend: 0x0, symName: __ZNSt3__17__sort3B8ne200100INS_17_ClassicAlgPolicyERNS_6__lessIvvEEPNS_5tupleIJmmmEEELi0EEEbT1_S8_S8_T0_, symObjAddr: 0x4118, symBinAddr: 0x9108, symSize: 0x170 }
  - { offset: 0x30602, size: 0x8, addend: 0x0, symName: __ZNSt3__125__tuple_compare_three_wayB8ne200100IJmmmEJmmmEJLm0ELm1ELm2EEEEDaRKNS_5tupleIJDpT_EEERKNS2_IJDpT0_EEENS_16integer_sequenceImJXspT1_EEEE, symObjAddr: 0x4C44, symBinAddr: 0x9C34, symSize: 0x4C }
  - { offset: 0x306A9, size: 0x8, addend: 0x0, symName: __ZNSt3__17__sort5B8ne200100INS_17_ClassicAlgPolicyERNS_6__lessIvvEEPNS_5tupleIJmmmEEELi0EEEvT1_S8_S8_S8_S8_T0_, symObjAddr: 0x4380, symBinAddr: 0x9370, symSize: 0x144 }
  - { offset: 0x31157, size: 0x8, addend: 0x0, symName: __ZNSt3__17__sort4B8ne200100INS_17_ClassicAlgPolicyERNS_6__lessIvvEEPNS_5tupleIJmmmEEELi0EEEvT1_S8_S8_S8_T0_, symObjAddr: 0x4288, symBinAddr: 0x9278, symSize: 0xF8 }
  - { offset: 0x31975, size: 0x8, addend: 0x0, symName: __ZNSt3__116__insertion_sortB8ne200100INS_17_ClassicAlgPolicyERNS_6__lessIvvEEPNS_5tupleIJmmmEEEEEvT1_S8_T0_, symObjAddr: 0x44C4, symBinAddr: 0x94B4, symSize: 0xF8 }
  - { offset: 0x31B7C, size: 0x8, addend: 0x0, symName: __ZNSt3__119__partial_sort_implB8ne200100INS_17_ClassicAlgPolicyERNS_6__lessIvvEEPNS_5tupleIJmmmEEES7_EET1_S8_S8_T2_OT0_, symObjAddr: 0x4C90, symBinAddr: 0x9C80, symSize: 0x1B0 }
  - { offset: 0x3235B, size: 0x8, addend: 0x0, symName: __ZNSt3__19__sift_upB8ne200100INS_17_ClassicAlgPolicyERNS_6__lessIvvEEPNS_5tupleIJmmmEEEEEvT1_S8_OT0_NS_15iterator_traitsIS8_E15difference_typeE, symObjAddr: 0x509C, symBinAddr: 0xA08C, symSize: 0xD0 }
  - { offset: 0x33382, size: 0x8, addend: 0x0, symName: __ZN5folly6detail16throw_exception_ISt9bad_allocJEEEvDpT0_, symObjAddr: 0x5920, symBinAddr: 0x37D4C, symSize: 0x38 }
  - { offset: 0x3361D, size: 0x8, addend: 0x0, symName: __ZNSt3__17getlineB8ne200100IcNS_11char_traitsIcEENS_9allocatorIcEEEERNS_13basic_istreamIT_T0_EES9_RNS_12basic_stringIS6_S7_T1_EES6_, symObjAddr: 0x5BAC, symBinAddr: 0xAA44, symSize: 0x188 }
  - { offset: 0x33917, size: 0x8, addend: 0x0, symName: __ZNSt3__116__pad_and_outputB8ne200100IcNS_11char_traitsIcEEEENS_19ostreambuf_iteratorIT_T0_EES6_PKS4_S8_S8_RNS_8ios_baseES4_, symObjAddr: 0x5EE8, symBinAddr: 0xAD80, symSize: 0x13C }
  - { offset: 0x35428, size: 0x8, addend: 0x0, symName: __ZSt28__throw_bad_array_new_lengthB8ne200100v, symObjAddr: 0x1FD8, symBinAddr: 0x7034, symSize: 0x28 }
  - { offset: 0x3587C, size: 0x8, addend: 0x0, symName: __ZN5folly13CacheLocality6systemINSt3__16atomicEEERKS0_v, symObjAddr: 0x0, symBinAddr: 0x5148, symSize: 0xDC }
  - { offset: 0x3589C, size: 0x8, addend: 0x0, symName: __ZZN5folly13CacheLocality6systemINSt3__16atomicEEERKS0_vE5cache, symObjAddr: 0xC0040, symBinAddr: 0x544B8, symSize: 0x0 }
  - { offset: 0x35CFC, size: 0x8, addend: 0x0, symName: __ZN5folly18SequentialThreadId3getEv, symObjAddr: 0x1950, symBinAddr: 0x69BC, symSize: 0x4C }
  - { offset: 0x35D20, size: 0x8, addend: 0x0, symName: __ZZN5folly18SequentialThreadId3getEvE6global, symObjAddr: 0xC0048, symBinAddr: 0x544C0, symSize: 0x0 }
  - { offset: 0x35D37, size: 0x8, addend: 0x0, symName: __ZZN5folly18SequentialThreadId3getEvE5local, symObjAddr: 0x66FF, symBinAddr: 0x543A8, symSize: 0x0 }
  - { offset: 0x37C49, size: 0x8, addend: 0x0, symName: __ZN5folly13CacheLocality13readFromSysfsEv, symObjAddr: 0xBA8, symBinAddr: 0x5C14, symSize: 0xC8 }
  - { offset: 0x382E0, size: 0x8, addend: 0x0, symName: __ZN5folly13CacheLocality7uniformEm, symObjAddr: 0x1824, symBinAddr: 0x6890, symSize: 0x124 }
  - { offset: 0x38933, size: 0x8, addend: 0x0, symName: __ZNSt3__16vectorINS0_ImNS_9allocatorImEEEENS1_IS3_EEE16__destroy_vectorclB8ne200100Ev, symObjAddr: 0x3B74, symBinAddr: 0x8BD0, symSize: 0x40 }
  - { offset: 0x38AA2, size: 0x8, addend: 0x0, symName: __ZN5folly13CacheLocalityC1ENSt3__16vectorINS2_ImNS1_9allocatorImEEEENS3_IS5_EEEE, symObjAddr: 0x468, symBinAddr: 0x55B0, symSize: 0x4 }
  - { offset: 0x38AFD, size: 0x8, addend: 0x0, symName: __ZN5folly13CacheLocalityC1ENSt3__16vectorINS2_ImNS1_9allocatorImEEEENS3_IS5_EEEE, symObjAddr: 0x468, symBinAddr: 0x55B0, symSize: 0x4 }
  - { offset: 0x38B75, size: 0x8, addend: 0x0, symName: __ZN5folly13CacheLocalityC2ENSt3__16vectorINS2_ImNS1_9allocatorImEEEENS3_IS5_EEEE, symObjAddr: 0xDC, symBinAddr: 0x5224, symSize: 0x280 }
  - { offset: 0x39321, size: 0x8, addend: 0x0, symName: __ZNSt3__16vectorImNS_9allocatorImEEE9push_backB8ne200100EOm, symObjAddr: 0x35C, symBinAddr: 0x54A4, symSize: 0xDC }
  - { offset: 0x396C8, size: 0x8, addend: 0x0, symName: __ZNSt3__16vectorImNS_9allocatorImEEE6resizeEm, symObjAddr: 0x438, symBinAddr: 0x5580, symSize: 0x30 }
  - { offset: 0x396D3, size: 0x8, addend: 0x0, symName: __ZNSt3__16vectorImNS_9allocatorImEEEC2B8ne200100Em, symObjAddr: 0x2000, symBinAddr: 0x705C, symSize: 0x74 }
  - { offset: 0x39937, size: 0x8, addend: 0x0, symName: __ZNSt3__16vectorImNS_9allocatorImEEE6resizeEm, symObjAddr: 0x438, symBinAddr: 0x5580, symSize: 0x30 }
  - { offset: 0x3997E, size: 0x8, addend: 0x0, symName: __ZNSt3__16vectorImNS_9allocatorImEEE6resizeEm, symObjAddr: 0x438, symBinAddr: 0x5580, symSize: 0x30 }
  - { offset: 0x399EF, size: 0x8, addend: 0x0, symName: __ZNSt3__16vectorINS0_ImNS_9allocatorImEEEENS1_IS3_EEE13__vdeallocateEv, symObjAddr: 0x3AE8, symBinAddr: 0x8B44, symSize: 0x38 }
  - { offset: 0x39D06, size: 0x8, addend: 0x0, symName: __ZNSt3__16vectorImNS_9allocatorImEEE20__throw_length_errorB8ne200100Ev, symObjAddr: 0x1F0C, symBinAddr: 0x6F78, symSize: 0x14 }
  - { offset: 0x39D59, size: 0x8, addend: 0x0, symName: __ZNSt3__16vectorImNS_9allocatorImEEE8__appendEm, symObjAddr: 0x39CC, symBinAddr: 0x8A28, symSize: 0x11C }
  - { offset: 0x3A0C7, size: 0x8, addend: 0x0, symName: __ZNSt3__16vectorINS0_ImNS_9allocatorImEEEENS1_IS3_EEE13__vdeallocateEv, symObjAddr: 0x3AE8, symBinAddr: 0x8B44, symSize: 0x38 }
  - { offset: 0x3A7C8, size: 0x8, addend: 0x0, symName: __ZN5folly13CacheLocality17readFromSysfsTreeERKNSt3__18functionIFNS1_12basic_stringIcNS1_11char_traitsIcEENS1_9allocatorIcEEEERKS8_EEE, symObjAddr: 0x46C, symBinAddr: 0x55B4, symSize: 0x534 }
  - { offset: 0x3C400, size: 0x8, addend: 0x0, symName: __ZNSt3__112basic_stringIcNS_11char_traitsIcEENS_9allocatorIcEEEC2B8ne200100ENS_24__uninitialized_size_tagEmRKS4_, symObjAddr: 0x3BB4, symBinAddr: 0x8C10, symSize: 0x78 }
  - { offset: 0x3C59C, size: 0x8, addend: 0x0, symName: __ZNSt3__112basic_stringIcNS_11char_traitsIcEENS_9allocatorIcEEE20__throw_length_errorB8ne200100Ev, symObjAddr: 0x3C2C, symBinAddr: 0x8C88, symSize: 0x14 }
  - { offset: 0x3C80B, size: 0x8, addend: 0x0, symName: __ZN5folly13CacheLocality13readFromSysfsEv, symObjAddr: 0xBA8, symBinAddr: 0x5C14, symSize: 0xC8 }
  - { offset: 0x3C816, size: 0x8, addend: 0x0, symName: __ZNSt3__114__split_bufferINS_6vectorImNS_9allocatorImEEEERNS2_IS4_EEED2Ev, symObjAddr: 0x3C98, symBinAddr: 0x8CE0, symSize: 0x34 }
  - { offset: 0x3C8F5, size: 0x8, addend: 0x0, symName: __ZNSt3__119__allocate_at_leastB8ne200100INS_9allocatorINS_6vectorImNS1_ImEEEEEEEENS_19__allocation_resultINS_16allocator_traitsIT_E7pointerEEERS8_m, symObjAddr: 0x3C54, symBinAddr: 0x8C9C, symSize: 0x44 }
  - { offset: 0x3D6C4, size: 0x8, addend: 0x0, symName: __ZN5folly13CacheLocality24readFromProcCpuinfoLinesERKNSt3__16vectorINS1_12basic_stringIcNS1_11char_traitsIcEENS1_9allocatorIcEEEENS6_IS8_EEEE, symObjAddr: 0xC70, symBinAddr: 0x5CDC, symSize: 0x688 }
  - { offset: 0x3EC29, size: 0x8, addend: 0x0, symName: __ZNSt3__16vectorINS0_ImNS_9allocatorImEEEENS1_IS3_EEEC2B8ne200100Em, symObjAddr: 0x516C, symBinAddr: 0xA15C, symSize: 0xA0 }
  - { offset: 0x3EE70, size: 0x8, addend: 0x0, symName: __ZNSt3__16vectorImNS_9allocatorImEEE18__assign_with_sizeB8ne200100IPKmS6_EEvT_T0_l, symObjAddr: 0x5254, symBinAddr: 0xA244, symSize: 0x130 }
  - { offset: 0x3F60C, size: 0x8, addend: 0x0, symName: __ZNSt3__112basic_stringIcNS_11char_traitsIcEENS_9allocatorIcEEEC2B8ne200100ILi0EEEPKc, symObjAddr: 0x5384, symBinAddr: 0xA374, symSize: 0xA4 }
  - { offset: 0x3FDEF, size: 0x8, addend: 0x0, symName: __ZN5folly13CacheLocality19readFromProcCpuinfoEv, symObjAddr: 0x12F8, symBinAddr: 0x6364, symSize: 0x3C8 }
  - { offset: 0x40866, size: 0x8, addend: 0x0, symName: __ZNSt3__114basic_ifstreamIcNS_11char_traitsIcEEEC1EPKcj, symObjAddr: 0x16C0, symBinAddr: 0x672C, symSize: 0x10C }
  - { offset: 0x4097E, size: 0x8, addend: 0x0, symName: __ZNSt3__112basic_stringIcNS_11char_traitsIcEENS_9allocatorIcEEEC2B8ne200100ILi0EEEPKc, symObjAddr: 0x5384, symBinAddr: 0xA374, symSize: 0xA4 }
  - { offset: 0x40BE6, size: 0x8, addend: 0x0, symName: __ZNSt3__114__split_bufferINS_12basic_stringIcNS_11char_traitsIcEENS_9allocatorIcEEEERNS4_IS6_EEED2Ev, symObjAddr: 0x5480, symBinAddr: 0xA418, symSize: 0x34 }
  - { offset: 0x40CBB, size: 0x8, addend: 0x0, symName: __ZNSt3__16vectorINS_12basic_stringIcNS_11char_traitsIcEENS_9allocatorIcEEEENS4_IS6_EEE16__destroy_vectorclB8ne200100Ev, symObjAddr: 0x5508, symBinAddr: 0xA4A0, symSize: 0x40 }
  - { offset: 0x40D7C, size: 0x8, addend: 0x0, symName: __ZNSt3__114basic_ifstreamIcNS_11char_traitsIcEEED1Ev, symObjAddr: 0x17CC, symBinAddr: 0x6838, symSize: 0x58 }
  - { offset: 0x40F52, size: 0x8, addend: 0x0, symName: __ZNSt3__16vectorImNS_9allocatorImEEE16__init_with_sizeB8ne200100IPKmS6_EEvT_T0_m, symObjAddr: 0x5594, symBinAddr: 0xA52C, symSize: 0x70 }
  - { offset: 0x41253, size: 0x8, addend: 0x0, symName: __ZNSt3__16vectorINS0_ImNS_9allocatorImEEEENS1_IS3_EEEC2B8ne200100EmRKS3_, symObjAddr: 0x5604, symBinAddr: 0xA59C, symSize: 0xB8 }
  - { offset: 0x41551, size: 0x8, addend: 0x0, symName: __ZN5folly6Getcpu15resolveVdsoFuncEv, symObjAddr: 0x1948, symBinAddr: 0x69B4, symSize: 0x8 }
  - { offset: 0x415B4, size: 0x8, addend: 0x0, symName: __ZN5folly15HashingThreadId3getEv, symObjAddr: 0x199C, symBinAddr: 0x6A08, symSize: 0x38 }
  - { offset: 0x415F6, size: 0x8, addend: 0x0, symName: __ZN5folly6detail18AccessSpreaderBase16degenerateGetcpuEPjS2_Pv, symObjAddr: 0x19D4, symBinAddr: 0x6A40, symSize: 0x18 }
  - { offset: 0x4175C, size: 0x8, addend: 0x0, symName: __ZN5folly6detail18AccessSpreaderBase10initializeERNS1_11GlobalStateERFPFiPjS4_PvEvERFRKNS_13CacheLocalityEvE, symObjAddr: 0x19EC, symBinAddr: 0x6A58, symSize: 0xDC }
  - { offset: 0x41CFA, size: 0x8, addend: 0x0, symName: __ZNSt3__16vectorIPvNS_9allocatorIS1_EEE9push_backB8ne200100EOS1_, symObjAddr: 0x5808, symBinAddr: 0xA7A0, symSize: 0xD0 }
  - { offset: 0x420CA, size: 0x8, addend: 0x0, symName: __ZN5folly10coreMallocEmmm.cold.1, symObjAddr: 0x60C0, symBinAddr: 0x37DB8, symSize: 0x58 }
  - { offset: 0x4227D, size: 0x8, addend: 0x0, symName: __ZN5folly14IndestructibleINS_12_GLOBAL__N_19AllocatorEEC1IS2_S2_EEv, symObjAddr: 0x1CB4, symBinAddr: 0x6D20, symSize: 0x8C }
  - { offset: 0x426A0, size: 0x8, addend: 0x0, symName: __ZN5folly18CoreAllocatorGuardC2Emm, symObjAddr: 0x1DA4, symBinAddr: 0x6E10, symSize: 0x88 }
  - { offset: 0x42770, size: 0x8, addend: 0x0, symName: __ZN5folly18CoreAllocatorGuardC1Emm, symObjAddr: 0x1E2C, symBinAddr: 0x6E98, symSize: 0x4 }
  - { offset: 0x427BB, size: 0x8, addend: 0x0, symName: __ZN5folly18CoreAllocatorGuardC1Emm, symObjAddr: 0x1E2C, symBinAddr: 0x6E98, symSize: 0x4 }
  - { offset: 0x427DC, size: 0x8, addend: 0x0, symName: __ZN5folly18CoreAllocatorGuardD2Ev, symObjAddr: 0x1E30, symBinAddr: 0x6E9C, symSize: 0x2C }
  - { offset: 0x42827, size: 0x8, addend: 0x0, symName: __ZN5folly18CoreAllocatorGuardD1Ev, symObjAddr: 0x1E5C, symBinAddr: 0x6EC8, symSize: 0x2C }
  - { offset: 0x42880, size: 0x8, addend: 0x0, symName: __ZNSt12length_errorC1B8ne200100EPKc, symObjAddr: 0x1F80, symBinAddr: 0x6FDC, symSize: 0x24 }
  - { offset: 0x42A81, size: 0x8, addend: 0x0, symName: __ZNSt3__16vectorImNS_9allocatorImEEE11__vallocateB8ne200100Em, symObjAddr: 0x2074, symBinAddr: 0x70D0, symSize: 0x38 }
  - { offset: 0x42AD9, size: 0x8, addend: 0x0, symName: '__ZNSt3__111__introsortINS_17_ClassicAlgPolicyERZN5folly13CacheLocalityC1ENS_6vectorINS4_ImNS_9allocatorImEEEENS5_IS7_EEEEE3$_0PmLb0EEEvT1_SD_T0_NS_15iterator_traitsISD_E15difference_typeEb', symObjAddr: 0x20AC, symBinAddr: 0x7108, symSize: 0xFE0 }
  - { offset: 0x42C6E, size: 0x8, addend: 0x0, symName: __ZNSt3__16vectorINS0_ImNS_9allocatorImEEEENS1_IS3_EEE5clearB8ne200100Ev, symObjAddr: 0x3B20, symBinAddr: 0x8B7C, symSize: 0x54 }
  - { offset: 0x42F87, size: 0x8, addend: 0x0, symName: __ZNSt3__112basic_stringIcNS_11char_traitsIcEENS_9allocatorIcEEE20__throw_length_errorB8ne200100Ev, symObjAddr: 0x3C2C, symBinAddr: 0x8C88, symSize: 0x14 }
  - { offset: 0x42FE1, size: 0x8, addend: 0x0, symName: __ZNSt3__114__split_bufferINS_6vectorImNS_9allocatorImEEEERNS2_IS4_EEE17__destruct_at_endB8ne200100EPS4_, symObjAddr: 0x3CCC, symBinAddr: 0x8D14, symSize: 0x58 }
  - { offset: 0x43019, size: 0x8, addend: 0x0, symName: __ZNSt3__114__split_bufferINS_6vectorImNS_9allocatorImEEEERNS2_IS4_EEE17__destruct_at_endB8ne200100EPS4_, symObjAddr: 0x3CCC, symBinAddr: 0x8D14, symSize: 0x58 }
  - { offset: 0x43500, size: 0x8, addend: 0x0, symName: __ZNSt3__16vectorINS0_ImNS_9allocatorImEEEENS1_IS3_EEE11__vallocateB8ne200100Em, symObjAddr: 0x520C, symBinAddr: 0xA1FC, symSize: 0x48 }
  - { offset: 0x43558, size: 0x8, addend: 0x0, symName: __ZNSt3__16vectorImNS_9allocatorImEEE18__assign_with_sizeB8ne200100IPKmS6_EEvT_T0_l, symObjAddr: 0x5254, symBinAddr: 0xA244, symSize: 0x130 }
  - { offset: 0x437BA, size: 0x8, addend: 0x0, symName: __ZNSt3__114__split_bufferINS_12basic_stringIcNS_11char_traitsIcEENS_9allocatorIcEEEERNS4_IS6_EEE17__destruct_at_endB8ne200100EPS6_, symObjAddr: 0x54B4, symBinAddr: 0xA44C, symSize: 0x54 }
  - { offset: 0x437F2, size: 0x8, addend: 0x0, symName: __ZNSt3__114__split_bufferINS_12basic_stringIcNS_11char_traitsIcEENS_9allocatorIcEEEERNS4_IS6_EEE17__destruct_at_endB8ne200100EPS6_, symObjAddr: 0x54B4, symBinAddr: 0xA44C, symSize: 0x54 }
  - { offset: 0x4396F, size: 0x8, addend: 0x0, symName: __ZNSt3__16vectorINS_12basic_stringIcNS_11char_traitsIcEENS_9allocatorIcEEEENS4_IS6_EEE5clearB8ne200100Ev, symObjAddr: 0x5548, symBinAddr: 0xA4E0, symSize: 0x4C }
  - { offset: 0x43C2C, size: 0x8, addend: 0x0, symName: __ZNSt3__16vectorImNS_9allocatorImEEE16__init_with_sizeB8ne200100IPmS5_EEvT_T0_m, symObjAddr: 0x56BC, symBinAddr: 0xA654, symSize: 0x78 }
  - { offset: 0x44130, size: 0x8, addend: 0x0, symName: __ZN5folly6detail24AccessSpreaderStaticInitC2Ev, symObjAddr: 0x5734, symBinAddr: 0xA6CC, symSize: 0x6C }
  - { offset: 0x442E0, size: 0x8, addend: 0x0, symName: __ZN5folly6detail24AccessSpreaderStaticInitC2Ev.cold.1, symObjAddr: 0x6118, symBinAddr: 0x37E10, symSize: 0x1C }
  - { offset: 0x442FB, size: 0x8, addend: 0x0, symName: __ZN5folly6detail24AccessSpreaderStaticInitC2Ev.cold.1, symObjAddr: 0x6118, symBinAddr: 0x37E10, symSize: 0x1C }
  - { offset: 0x44310, size: 0x8, addend: 0x0, symName: __ZN5folly6detail24AccessSpreaderStaticInitC2Ev.cold.1, symObjAddr: 0x6118, symBinAddr: 0x37E10, symSize: 0x1C }
  - { offset: 0x4432E, size: 0x8, addend: 0x0, symName: __ZN5folly14AccessSpreaderINSt3__16atomicEE14pickGetcpuFuncEv, symObjAddr: 0x57A0, symBinAddr: 0xA738, symSize: 0xC }
  - { offset: 0x4435B, size: 0x8, addend: 0x0, symName: __ZN5folly14FallbackGetcpuINS_15HashingThreadIdEE6getcpuEPjS3_Pv, symObjAddr: 0x57AC, symBinAddr: 0xA744, symSize: 0x5C }
  - { offset: 0x44785, size: 0x8, addend: 0x0, symName: '__ZNSt3__110__function6__funcIZN5folly13CacheLocality13readFromSysfsEvE3$_0NS_9allocatorIS4_EEFNS_12basic_stringIcNS_11char_traitsIcEENS5_IcEEEERKSB_EED1Ev', symObjAddr: 0x59D8, symBinAddr: 0xA870, symSize: 0x4 }
  - { offset: 0x447B1, size: 0x8, addend: 0x0, symName: '__ZNSt3__110__function6__funcIZN5folly13CacheLocality13readFromSysfsEvE3$_0NS_9allocatorIS4_EEFNS_12basic_stringIcNS_11char_traitsIcEENS5_IcEEEERKSB_EED0Ev', symObjAddr: 0x59DC, symBinAddr: 0xA874, symSize: 0x4 }
  - { offset: 0x4486B, size: 0x8, addend: 0x0, symName: '__ZNKSt3__110__function6__funcIZN5folly13CacheLocality13readFromSysfsEvE3$_0NS_9allocatorIS4_EEFNS_12basic_stringIcNS_11char_traitsIcEENS5_IcEEEERKSB_EE7__cloneEv', symObjAddr: 0x59E0, symBinAddr: 0xA878, symSize: 0x24 }
  - { offset: 0x449B8, size: 0x8, addend: 0x0, symName: '__ZNKSt3__110__function6__funcIZN5folly13CacheLocality13readFromSysfsEvE3$_0NS_9allocatorIS4_EEFNS_12basic_stringIcNS_11char_traitsIcEENS5_IcEEEERKSB_EE7__cloneEPNS0_6__baseISE_EE', symObjAddr: 0x5A04, symBinAddr: 0xA89C, symSize: 0x10 }
  - { offset: 0x449EB, size: 0x8, addend: 0x0, symName: '__ZNKSt3__110__function6__funcIZN5folly13CacheLocality13readFromSysfsEvE3$_0NS_9allocatorIS4_EEFNS_12basic_stringIcNS_11char_traitsIcEENS5_IcEEEERKSB_EE7__cloneEPNS0_6__baseISE_EE', symObjAddr: 0x5A04, symBinAddr: 0xA89C, symSize: 0x10 }
  - { offset: 0x44A07, size: 0x8, addend: 0x0, symName: '__ZNKSt3__110__function6__funcIZN5folly13CacheLocality13readFromSysfsEvE3$_0NS_9allocatorIS4_EEFNS_12basic_stringIcNS_11char_traitsIcEENS5_IcEEEERKSB_EE7__cloneEPNS0_6__baseISE_EE', symObjAddr: 0x5A04, symBinAddr: 0xA89C, symSize: 0x10 }
  - { offset: 0x44A23, size: 0x8, addend: 0x0, symName: '__ZNSt3__110__function6__funcIZN5folly13CacheLocality13readFromSysfsEvE3$_0NS_9allocatorIS4_EEFNS_12basic_stringIcNS_11char_traitsIcEENS5_IcEEEERKSB_EE7destroyEv', symObjAddr: 0x5A14, symBinAddr: 0xA8AC, symSize: 0x4 }
  - { offset: 0x44A77, size: 0x8, addend: 0x0, symName: '__ZNSt3__110__function6__funcIZN5folly13CacheLocality13readFromSysfsEvE3$_0NS_9allocatorIS4_EEFNS_12basic_stringIcNS_11char_traitsIcEENS5_IcEEEERKSB_EE18destroy_deallocateEv', symObjAddr: 0x5A18, symBinAddr: 0xA8B0, symSize: 0x4 }
  - { offset: 0x44AAB, size: 0x8, addend: 0x0, symName: '__ZNSt3__110__function6__funcIZN5folly13CacheLocality13readFromSysfsEvE3$_0NS_9allocatorIS4_EEFNS_12basic_stringIcNS_11char_traitsIcEENS5_IcEEEERKSB_EE18destroy_deallocateEv', symObjAddr: 0x5A18, symBinAddr: 0xA8B0, symSize: 0x4 }
  - { offset: 0x44ACD, size: 0x8, addend: 0x0, symName: '__ZNSt3__110__function6__funcIZN5folly13CacheLocality13readFromSysfsEvE3$_0NS_9allocatorIS4_EEFNS_12basic_stringIcNS_11char_traitsIcEENS5_IcEEEERKSB_EE18destroy_deallocateEv', symObjAddr: 0x5A18, symBinAddr: 0xA8B0, symSize: 0x4 }
  - { offset: 0x44AFE, size: 0x8, addend: 0x0, symName: '__ZNSt3__110__function6__funcIZN5folly13CacheLocality13readFromSysfsEvE3$_0NS_9allocatorIS4_EEFNS_12basic_stringIcNS_11char_traitsIcEENS5_IcEEEERKSB_EE18destroy_deallocateEv', symObjAddr: 0x5A18, symBinAddr: 0xA8B0, symSize: 0x4 }
  - { offset: 0x44BF8, size: 0x8, addend: 0x0, symName: '__ZNSt3__110__function6__funcIZN5folly13CacheLocality13readFromSysfsEvE3$_0NS_9allocatorIS4_EEFNS_12basic_stringIcNS_11char_traitsIcEENS5_IcEEEERKSB_EEclESD_', symObjAddr: 0x5A1C, symBinAddr: 0xA8B4, symSize: 0x148 }
  - { offset: 0x44F5E, size: 0x8, addend: 0x0, symName: '__ZNKSt3__110__function6__funcIZN5folly13CacheLocality13readFromSysfsEvE3$_0NS_9allocatorIS4_EEFNS_12basic_stringIcNS_11char_traitsIcEENS5_IcEEEERKSB_EE6targetERKSt9type_info', symObjAddr: 0x5B64, symBinAddr: 0xA9FC, symSize: 0x3C }
  - { offset: 0x44FAA, size: 0x8, addend: 0x0, symName: __ZNKSt9type_infoeqB8ne200100ERKS_, symObjAddr: 0x5D34, symBinAddr: 0xABCC, symSize: 0x4C }
  - { offset: 0x45047, size: 0x8, addend: 0x0, symName: '__ZNKSt3__110__function6__funcIZN5folly13CacheLocality13readFromSysfsEvE3$_0NS_9allocatorIS4_EEFNS_12basic_stringIcNS_11char_traitsIcEENS5_IcEEEERKSB_EE11target_typeEv', symObjAddr: 0x5BA0, symBinAddr: 0xAA38, symSize: 0xC }
  - { offset: 0x45359, size: 0x8, addend: 0x0, symName: __ZNSt3__112basic_stringIcNS_11char_traitsIcEENS_9allocatorIcEEEC2B8ne200100Emc, symObjAddr: 0x6024, symBinAddr: 0xAEBC, symSize: 0x9C }
  - { offset: 0x45589, size: 0x8, addend: 0x0, symName: __ZN5folly10coreMallocEmmm.cold.1, symObjAddr: 0x60C0, symBinAddr: 0x37DB8, symSize: 0x58 }
  - { offset: 0x45608, size: 0x8, addend: 0x0, symName: __GLOBAL__sub_I_CacheLocality.cpp, symObjAddr: 0x6470, symBinAddr: 0xAF58, symSize: 0xC }
  - { offset: 0x45620, size: 0x8, addend: 0x0, symName: __GLOBAL__sub_I_CacheLocality.cpp, symObjAddr: 0x6470, symBinAddr: 0xAF58, symSize: 0xC }
  - { offset: 0x45633, size: 0x8, addend: 0x0, symName: __GLOBAL__sub_I_CacheLocality.cpp, symObjAddr: 0x6470, symBinAddr: 0xAF58, symSize: 0xC }
  - { offset: 0x476EE, size: 0x8, addend: 0x0, symName: __ZN5folly6detail12_GLOBAL__N_16shift1E, symObjAddr: 0x6CD0, symBinAddr: 0x3AB50, symSize: 0x0 }
  - { offset: 0x47709, size: 0x8, addend: 0x0, symName: __ZN5folly6detail12_GLOBAL__N_17shift10E, symObjAddr: 0x6AD0, symBinAddr: 0x3A950, symSize: 0x0 }
  - { offset: 0x47724, size: 0x8, addend: 0x0, symName: __ZN5folly6detail12_GLOBAL__N_18shift100E, symObjAddr: 0x68D0, symBinAddr: 0x3A750, symSize: 0x0 }
  - { offset: 0x4773F, size: 0x8, addend: 0x0, symName: __ZN5folly6detail12_GLOBAL__N_19shift1000E, symObjAddr: 0x66D0, symBinAddr: 0x3A550, symSize: 0x0 }
  - { offset: 0x47759, size: 0x8, addend: 0x0, symName: __ZN5folly6detail12_GLOBAL__N_113kErrorStringsE, symObjAddr: 0x9FA0, symBinAddr: 0x48910, symSize: 0x0 }
  - { offset: 0x47E19, size: 0x8, addend: 0x0, symName: __ZN5folly6detail9digits_toIcEENS_8ExpectedIT_NS_14ConversionCodeEEEPKcS7_, symObjAddr: 0x2E8, symBinAddr: 0x37E2C, symSize: 0x264 }
  - { offset: 0x47EB0, size: 0x8, addend: 0x0, symName: __ZN5folly6detail9digits_toIcEENS_8ExpectedIT_NS_14ConversionCodeEEEPKcS7_, symObjAddr: 0x2E8, symBinAddr: 0x37E2C, symSize: 0x264 }
  - { offset: 0x48016, size: 0x8, addend: 0x0, symName: __ZN5folly6detail9digits_toIaEENS_8ExpectedIT_NS_14ConversionCodeEEEPKcS7_, symObjAddr: 0x54C, symBinAddr: 0x38090, symSize: 0x264 }
  - { offset: 0x480AD, size: 0x8, addend: 0x0, symName: __ZN5folly6detail9digits_toIaEENS_8ExpectedIT_NS_14ConversionCodeEEEPKcS7_, symObjAddr: 0x54C, symBinAddr: 0x38090, symSize: 0x264 }
  - { offset: 0x48213, size: 0x8, addend: 0x0, symName: __ZN5folly6detail9digits_toIhEENS_8ExpectedIT_NS_14ConversionCodeEEEPKcS7_, symObjAddr: 0x7B0, symBinAddr: 0xB23C, symSize: 0x22C }
  - { offset: 0x483AF, size: 0x8, addend: 0x0, symName: __ZN5folly6detail9digits_toIsEENS_8ExpectedIT_NS_14ConversionCodeEEEPKcS7_, symObjAddr: 0x9DC, symBinAddr: 0xB468, symSize: 0x2DC }
  - { offset: 0x485F8, size: 0x8, addend: 0x0, symName: __ZN5folly6detail9digits_toItEENS_8ExpectedIT_NS_14ConversionCodeEEEPKcS7_, symObjAddr: 0xCB8, symBinAddr: 0xB744, symSize: 0x224 }
  - { offset: 0x487AD, size: 0x8, addend: 0x0, symName: __ZN5folly6detail9digits_toIiEENS_8ExpectedIT_NS_14ConversionCodeEEEPKcS7_, symObjAddr: 0xEDC, symBinAddr: 0xB968, symSize: 0x2D8 }
  - { offset: 0x489F3, size: 0x8, addend: 0x0, symName: __ZN5folly6detail9digits_toIjEENS_8ExpectedIT_NS_14ConversionCodeEEEPKcS7_, symObjAddr: 0x11B4, symBinAddr: 0xBC40, symSize: 0x228 }
  - { offset: 0x48BA5, size: 0x8, addend: 0x0, symName: __ZN5folly6detail9digits_toIlEENS_8ExpectedIT_NS_14ConversionCodeEEEPKcS7_, symObjAddr: 0x13DC, symBinAddr: 0x382F4, symSize: 0x248 }
  - { offset: 0x48D8A, size: 0x8, addend: 0x0, symName: __ZN5folly6detail9digits_toImEENS_8ExpectedIT_NS_14ConversionCodeEEEPKcS7_, symObjAddr: 0x1624, symBinAddr: 0xBE68, symSize: 0x23C }
  - { offset: 0x48F3C, size: 0x8, addend: 0x0, symName: __ZN5folly6detail9digits_toIxEENS_8ExpectedIT_NS_14ConversionCodeEEEPKcS7_, symObjAddr: 0x1860, symBinAddr: 0x3853C, symSize: 0x248 }
  - { offset: 0x49121, size: 0x8, addend: 0x0, symName: __ZN5folly6detail9digits_toIyEENS_8ExpectedIT_NS_14ConversionCodeEEEPKcS7_, symObjAddr: 0x1AA8, symBinAddr: 0xC0A4, symSize: 0x23C }
  - { offset: 0x492F1, size: 0x8, addend: 0x0, symName: __ZN5folly6detail37str_to_floating_fast_float_from_charsIfEENS_8ExpectedIT_NS_14ConversionCodeEEEPNS_5RangeIPKcEE, symObjAddr: 0x0, symBinAddr: 0xAF64, symSize: 0x16C }
  - { offset: 0x49647, size: 0x8, addend: 0x0, symName: __ZN5folly6detail37str_to_floating_fast_float_from_charsIdEENS_8ExpectedIT_NS_14ConversionCodeEEEPNS_5RangeIPKcEE, symObjAddr: 0x17C, symBinAddr: 0xB0D0, symSize: 0x164 }
  - { offset: 0x49932, size: 0x8, addend: 0x0, symName: __ZN5folly6detail15str_to_floatingIfEENS_8ExpectedIT_NS_14ConversionCodeEEEPNS_5RangeIPKcEE, symObjAddr: 0x2E0, symBinAddr: 0xB234, symSize: 0x4 }
  - { offset: 0x49963, size: 0x8, addend: 0x0, symName: __ZN5folly6detail15str_to_floatingIfEENS_8ExpectedIT_NS_14ConversionCodeEEEPNS_5RangeIPKcEE, symObjAddr: 0x2E0, symBinAddr: 0xB234, symSize: 0x4 }
  - { offset: 0x4997F, size: 0x8, addend: 0x0, symName: __ZN5folly6detail15str_to_floatingIdEENS_8ExpectedIT_NS_14ConversionCodeEEEPNS_5RangeIPKcEE, symObjAddr: 0x2E4, symBinAddr: 0xB238, symSize: 0x4 }
  - { offset: 0x499B0, size: 0x8, addend: 0x0, symName: __ZN5folly6detail15str_to_floatingIdEENS_8ExpectedIT_NS_14ConversionCodeEEEPNS_5RangeIPKcEE, symObjAddr: 0x2E4, symBinAddr: 0xB238, symSize: 0x4 }
  - { offset: 0x499CC, size: 0x8, addend: 0x0, symName: __ZN5folly6detail15str_to_integralIcEENS_8ExpectedIT_NS_14ConversionCodeEEEPNS_5RangeIPKcEE, symObjAddr: 0x1CE4, symBinAddr: 0xC2E0, symSize: 0x1FC }
  - { offset: 0x49CEB, size: 0x8, addend: 0x0, symName: __ZN5folly6detail16throw_exception_INS_17BadExpectedAccessIvEEJEEEvDpT0_, symObjAddr: 0x6290, symBinAddr: 0x38784, symSize: 0x40 }
  - { offset: 0x49DA0, size: 0x8, addend: 0x0, symName: __ZN5folly6detail15str_to_integralIaEENS_8ExpectedIT_NS_14ConversionCodeEEEPNS_5RangeIPKcEE, symObjAddr: 0x1EE0, symBinAddr: 0xC4DC, symSize: 0x1FC }
  - { offset: 0x4A0C0, size: 0x8, addend: 0x0, symName: __ZN5folly6detail15str_to_integralIhEENS_8ExpectedIT_NS_14ConversionCodeEEEPNS_5RangeIPKcEE, symObjAddr: 0x20DC, symBinAddr: 0xC6D8, symSize: 0x164 }
  - { offset: 0x4A364, size: 0x8, addend: 0x0, symName: __ZN5folly6detail15str_to_integralIsEENS_8ExpectedIT_NS_14ConversionCodeEEEPNS_5RangeIPKcEE, symObjAddr: 0x2240, symBinAddr: 0xC83C, symSize: 0x1F8 }
  - { offset: 0x4A67C, size: 0x8, addend: 0x0, symName: __ZN5folly6detail15str_to_integralItEENS_8ExpectedIT_NS_14ConversionCodeEEEPNS_5RangeIPKcEE, symObjAddr: 0x2438, symBinAddr: 0xCA34, symSize: 0x150 }
  - { offset: 0x4A920, size: 0x8, addend: 0x0, symName: __ZN5folly6detail15str_to_integralIiEENS_8ExpectedIT_NS_14ConversionCodeEEEPNS_5RangeIPKcEE, symObjAddr: 0x2588, symBinAddr: 0xCB84, symSize: 0x204 }
  - { offset: 0x4AC33, size: 0x8, addend: 0x0, symName: __ZN5folly6detail15str_to_integralIjEENS_8ExpectedIT_NS_14ConversionCodeEEEPNS_5RangeIPKcEE, symObjAddr: 0x278C, symBinAddr: 0xCD88, symSize: 0x160 }
  - { offset: 0x4AED7, size: 0x8, addend: 0x0, symName: __ZN5folly6detail15str_to_integralIlEENS_8ExpectedIT_NS_14ConversionCodeEEEPNS_5RangeIPKcEE, symObjAddr: 0x28EC, symBinAddr: 0xCEE8, symSize: 0x1F4 }
  - { offset: 0x4B1FC, size: 0x8, addend: 0x0, symName: __ZN5folly6detail15str_to_integralImEENS_8ExpectedIT_NS_14ConversionCodeEEEPNS_5RangeIPKcEE, symObjAddr: 0x2AE0, symBinAddr: 0xD0DC, symSize: 0x158 }
  - { offset: 0x4B49C, size: 0x8, addend: 0x0, symName: __ZN5folly6detail15str_to_integralIxEENS_8ExpectedIT_NS_14ConversionCodeEEEPNS_5RangeIPKcEE, symObjAddr: 0x2C38, symBinAddr: 0xD234, symSize: 0x1F4 }
  - { offset: 0x4B7C1, size: 0x8, addend: 0x0, symName: __ZN5folly6detail15str_to_integralIyEENS_8ExpectedIT_NS_14ConversionCodeEEEPNS_5RangeIPKcEE, symObjAddr: 0x2E2C, symBinAddr: 0xD428, symSize: 0x158 }
  - { offset: 0x4BA61, size: 0x8, addend: 0x0, symName: __ZN5folly6detail11str_to_boolEPNS_5RangeIPKcEE, symObjAddr: 0x2F84, symBinAddr: 0xD580, symSize: 0x358 }
  - { offset: 0x4BAD0, size: 0x8, addend: 0x0, symName: __ZN5folly6detail11str_to_boolEPNS_5RangeIPKcEE, symObjAddr: 0x2F84, symBinAddr: 0xD580, symSize: 0x358 }
  - { offset: 0x4BCC8, size: 0x8, addend: 0x0, symName: __ZN5folly6detail16throw_exception_INS_17BadExpectedAccessINS_14ConversionCodeEEEJS3_EEEvDpT0_, symObjAddr: 0x6358, symBinAddr: 0x387F8, symSize: 0x44 }
  - { offset: 0x4BDA7, size: 0x8, addend: 0x0, symName: __ZN5folly19makeConversionErrorENS_14ConversionCodeENS_5RangeIPKcEE, symObjAddr: 0x32DC, symBinAddr: 0xD8D8, symSize: 0x158 }
  - { offset: 0x4BDE0, size: 0x8, addend: 0x0, symName: __ZZN5folly19makeConversionErrorENS_14ConversionCodeENS_5RangeIPKcEEE30__folly_detail_safe_assert_arg, symObjAddr: 0xA080, symBinAddr: 0x489F0, symSize: 0x0 }
  - { offset: 0x51009, size: 0x8, addend: 0x0, symName: __ZN5folly15throw_exceptionINS_17BadExpectedAccessIvEEEEvOT_, symObjAddr: 0x62D0, symBinAddr: 0x387C4, symSize: 0x34 }
  - { offset: 0x5109F, size: 0x8, addend: 0x0, symName: __ZN5folly15throw_exceptionINS_17BadExpectedAccessINS_14ConversionCodeEEEEEvOT_, symObjAddr: 0x639C, symBinAddr: 0x3883C, symSize: 0x44 }
  - { offset: 0x51506, size: 0x8, addend: 0x0, symName: __ZN10fast_float9space_lutIvE5valueE, symObjAddr: 0x6ED3, symBinAddr: 0x3AD53, symSize: 0x0 }
  - { offset: 0x51552, size: 0x8, addend: 0x0, symName: __ZN10fast_float6detail12parse_infnanIfcEENS_19from_chars_result_tIT0_EEPKS3_S6_RT_NS_12chars_formatE, symObjAddr: 0x3918, symBinAddr: 0xDF14, symSize: 0x1D4 }
  - { offset: 0x516BC, size: 0x8, addend: 0x0, symName: __ZN10fast_float6detail12parse_infnanIdcEENS_19from_chars_result_tIT0_EEPKS3_S6_RT_NS_12chars_formatE, symObjAddr: 0x5608, symBinAddr: 0xFC04, symSize: 0x1D4 }
  - { offset: 0x518E7, size: 0x8, addend: 0x0, symName: __ZN10fast_floatL20powers_of_ten_uint64E, symObjAddr: 0x9910, symBinAddr: 0x3D790, symSize: 0x0 }
  - { offset: 0x51BC0, size: 0x8, addend: 0x0, symName: __ZN10fast_float25from_chars_float_advancedIfcEENS_19from_chars_result_tIT0_EEPKS2_S5_RT_NS_15parse_options_tIS2_EE, symObjAddr: 0x3434, symBinAddr: 0xDA30, symSize: 0x4E4 }
  - { offset: 0x51FD7, size: 0x8, addend: 0x0, symName: __ZN10fast_float25from_chars_float_advancedIdcEENS_19from_chars_result_tIT0_EEPKS2_S5_RT_NS_15parse_options_tIS2_EE, symObjAddr: 0x5124, symBinAddr: 0xF720, symSize: 0x4E4 }
  - { offset: 0x52661, size: 0x8, addend: 0x0, symName: __ZN10fast_float19from_chars_advancedIfcEENS_19from_chars_result_tIT0_EERNS_22parsed_number_string_tIS2_EERT_, symObjAddr: 0x3AEC, symBinAddr: 0xE0E8, symSize: 0x440 }
  - { offset: 0x53021, size: 0x8, addend: 0x0, symName: __ZN10fast_float10digit_compIfcEENS_17adjusted_mantissaERNS_22parsed_number_string_tIT0_EES1_, symObjAddr: 0x3F2C, symBinAddr: 0xE528, symSize: 0x230 }
  - { offset: 0x539D2, size: 0x8, addend: 0x0, symName: __ZN10fast_float14parse_mantissaIcEEvRNS_6bigintERNS_22parsed_number_string_tIT_EEmRm, symObjAddr: 0x415C, symBinAddr: 0xE758, symSize: 0x6A8 }
  - { offset: 0x54571, size: 0x8, addend: 0x0, symName: __ZN10fast_float19negative_digit_compIfEENS_17adjusted_mantissaERNS_6bigintES1_i, symObjAddr: 0x4804, symBinAddr: 0xEE00, symSize: 0x24C }
  - { offset: 0x54F73, size: 0x8, addend: 0x0, symName: __ZN10fast_float9large_mulILt62EEEbRNS_8stackvecIXT_EEENS_4spanIyEE, symObjAddr: 0x4C98, symBinAddr: 0xF294, symSize: 0x80 }
  - { offset: 0x55065, size: 0x8, addend: 0x0, symName: __ZN10fast_float8long_mulILt62EEEbRNS_8stackvecIXT_EEENS_4spanIyEE, symObjAddr: 0x4D18, symBinAddr: 0xF314, symSize: 0x1F0 }
  - { offset: 0x557C9, size: 0x8, addend: 0x0, symName: __ZN10fast_float14large_add_fromILt62EEEbRNS_8stackvecIXT_EEENS_4spanIyEEm, symObjAddr: 0x4F08, symBinAddr: 0xF504, symSize: 0x114 }
  - { offset: 0x55A90, size: 0x8, addend: 0x0, symName: __ZN10fast_float19from_chars_advancedIdcEENS_19from_chars_result_tIT0_EERNS_22parsed_number_string_tIS2_EERT_, symObjAddr: 0x57DC, symBinAddr: 0xFDD8, symSize: 0x450 }
  - { offset: 0x562D4, size: 0x8, addend: 0x0, symName: __ZN10fast_float10digit_compIdcEENS_17adjusted_mantissaERNS_22parsed_number_string_tIT0_EES1_, symObjAddr: 0x5C2C, symBinAddr: 0x10228, symSize: 0x228 }
  - { offset: 0x567C4, size: 0x8, addend: 0x0, symName: __ZN10fast_float19negative_digit_compIdEENS_17adjusted_mantissaERNS_6bigintES1_i, symObjAddr: 0x5E54, symBinAddr: 0x10450, symSize: 0x254 }
  - { offset: 0x56E4B, size: 0x8, addend: 0x0, symName: __ZN10fast_float27binary_format_lookup_tablesIfvE13powers_of_tenE, symObjAddr: 0x6FD4, symBinAddr: 0x3AE54, symSize: 0x0 }
  - { offset: 0x56E84, size: 0x8, addend: 0x0, symName: __ZN10fast_float27binary_format_lookup_tablesIfvE12max_mantissaE, symObjAddr: 0x7000, symBinAddr: 0x3AE80, symSize: 0x0 }
  - { offset: 0x56E97, size: 0x8, addend: 0x0, symName: __ZN10fast_float15powers_templateIvE17power_of_five_128E, symObjAddr: 0x7060, symBinAddr: 0x3AEE0, symSize: 0x0 }
  - { offset: 0x56EDD, size: 0x8, addend: 0x0, symName: __ZN10fast_float11pow5_tablesIvE16large_power_of_5E, symObjAddr: 0x99B0, symBinAddr: 0x3D830, symSize: 0x0 }
  - { offset: 0x5AC11, size: 0x8, addend: 0x0, symName: __ZN10fast_float11pow5_tablesIvE16small_power_of_5E, symObjAddr: 0x99D8, symBinAddr: 0x3D858, symSize: 0x0 }
  - { offset: 0x5AC24, size: 0x8, addend: 0x0, symName: __ZN10fast_float27binary_format_lookup_tablesIdvE13powers_of_tenE, symObjAddr: 0x9AB8, symBinAddr: 0x3D938, symSize: 0x0 }
  - { offset: 0x5AC5F, size: 0x8, addend: 0x0, symName: __ZN10fast_float27binary_format_lookup_tablesIdvE12max_mantissaE, symObjAddr: 0x9B70, symBinAddr: 0x3D9F0, symSize: 0x0 }
  - { offset: 0x5ACC8, size: 0x8, addend: 0x0, symName: __ZN5folly6detail21safe_assert_msg_typesINS0_22safe_assert_msg_type_sIJLNS0_20safe_assert_msg_typeE1ELS3_2EEEEE5valueE, symObjAddr: 0x6ED0, symBinAddr: 0x3AD50, symSize: 0x0 }
  - { offset: 0x5B377, size: 0x8, addend: 0x0, symName: _OUTLINED_FUNCTION_6, symObjAddr: 0x6548, symBinAddr: 0x107B8, symSize: 0x2C }
  - { offset: 0x5B38F, size: 0x8, addend: 0x0, symName: _OUTLINED_FUNCTION_1, symObjAddr: 0x64E4, symBinAddr: 0x10754, symSize: 0x14 }
  - { offset: 0x5B776, size: 0x8, addend: 0x0, symName: _OUTLINED_FUNCTION_4, symObjAddr: 0x6530, symBinAddr: 0x107A0, symSize: 0xC }
  - { offset: 0x5B78E, size: 0x8, addend: 0x0, symName: _OUTLINED_FUNCTION_3, symObjAddr: 0x6518, symBinAddr: 0x10788, symSize: 0x18 }
  - { offset: 0x5B7A6, size: 0x8, addend: 0x0, symName: _OUTLINED_FUNCTION_0, symObjAddr: 0x64B8, symBinAddr: 0x10728, symSize: 0x2C }
  - { offset: 0x5B7BE, size: 0x8, addend: 0x0, symName: _OUTLINED_FUNCTION_2, symObjAddr: 0x64F8, symBinAddr: 0x10768, symSize: 0x20 }
  - { offset: 0x5B7D6, size: 0x8, addend: 0x0, symName: _OUTLINED_FUNCTION_5, symObjAddr: 0x653C, symBinAddr: 0x107AC, symSize: 0xC }
  - { offset: 0x5B9B0, size: 0x8, addend: 0x0, symName: __ZNK5folly8ExpectedIhNS_14ConversionCodeEE12requireValueEv, symObjAddr: 0x6328, symBinAddr: 0x106E0, symSize: 0x30 }
  - { offset: 0x5BA39, size: 0x8, addend: 0x0, symName: __ZN5folly6detail16throw_exception_INS_17BadExpectedAccessINS_14ConversionCodeEEEJS3_EEEvDpT0_, symObjAddr: 0x6358, symBinAddr: 0x387F8, symSize: 0x44 }
  - { offset: 0x5BEDA, size: 0x8, addend: 0x0, symName: _OUTLINED_FUNCTION_0, symObjAddr: 0x64B8, symBinAddr: 0x10728, symSize: 0x2C }
  - { offset: 0x5C702, size: 0x8, addend: 0x0, symName: __ZN10fast_float6bigint4pow5Ej, symObjAddr: 0x4B68, symBinAddr: 0xF164, symSize: 0x130 }
  - { offset: 0x5C8EE, size: 0x8, addend: 0x0, symName: __ZN10fast_float6bigint3shlEm, symObjAddr: 0x501C, symBinAddr: 0xF618, symSize: 0xA0 }
  - { offset: 0x5CB8A, size: 0x8, addend: 0x0, symName: __ZNK10fast_float6bigint4hi64ERb, symObjAddr: 0x4AAC, symBinAddr: 0xF0A8, symSize: 0xBC }
  - { offset: 0x5CBC1, size: 0x8, addend: 0x0, symName: __ZNK10fast_float6bigint4hi64ERb, symObjAddr: 0x4AAC, symBinAddr: 0xF0A8, symSize: 0xBC }
  - { offset: 0x5CDB4, size: 0x8, addend: 0x0, symName: __ZN10fast_float6bigint3mulEy, symObjAddr: 0x4A50, symBinAddr: 0xF04C, symSize: 0x5C }
  - { offset: 0x5D320, size: 0x8, addend: 0x0, symName: __ZN10fast_float6bigint8shl_bitsEm, symObjAddr: 0x50BC, symBinAddr: 0xF6B8, symSize: 0x68 }
  - { offset: 0x5D65F, size: 0x8, addend: 0x0, symName: __ZN5folly15ConversionErrorD1Ev, symObjAddr: 0x60A8, symBinAddr: 0x106A4, symSize: 0x4 }
  - { offset: 0x5D681, size: 0x8, addend: 0x0, symName: __ZN5folly15ConversionErrorD1Ev, symObjAddr: 0x60A8, symBinAddr: 0x106A4, symSize: 0x4 }
  - { offset: 0x5D69C, size: 0x8, addend: 0x0, symName: __ZN5folly15ConversionErrorD1Ev, symObjAddr: 0x60A8, symBinAddr: 0x106A4, symSize: 0x4 }
  - { offset: 0x5D6D3, size: 0x8, addend: 0x0, symName: __ZN5folly15ConversionErrorD0Ev, symObjAddr: 0x60AC, symBinAddr: 0x106A8, symSize: 0x14 }
  - { offset: 0x5DA9F, size: 0x8, addend: 0x0, symName: __ZN5folly17BadExpectedAccessIvED1Ev, symObjAddr: 0x6304, symBinAddr: 0x106BC, symSize: 0x4 }
  - { offset: 0x5DAC1, size: 0x8, addend: 0x0, symName: __ZN5folly17BadExpectedAccessIvED1Ev, symObjAddr: 0x6304, symBinAddr: 0x106BC, symSize: 0x4 }
  - { offset: 0x5DADB, size: 0x8, addend: 0x0, symName: __ZN5folly17BadExpectedAccessIvED0Ev, symObjAddr: 0x6308, symBinAddr: 0x106C0, symSize: 0x14 }
  - { offset: 0x5DB3E, size: 0x8, addend: 0x0, symName: __ZNK5folly17BadExpectedAccessIvE4whatEv, symObjAddr: 0x631C, symBinAddr: 0x106D4, symSize: 0xC }
  - { offset: 0x5DC34, size: 0x8, addend: 0x0, symName: __ZN5folly17BadExpectedAccessINS_14ConversionCodeEED1Ev, symObjAddr: 0x63E0, symBinAddr: 0x10710, symSize: 0x4 }
  - { offset: 0x5DC56, size: 0x8, addend: 0x0, symName: __ZN5folly17BadExpectedAccessINS_14ConversionCodeEED1Ev, symObjAddr: 0x63E0, symBinAddr: 0x10710, symSize: 0x4 }
  - { offset: 0x5DC71, size: 0x8, addend: 0x0, symName: __ZN5folly17BadExpectedAccessINS_14ConversionCodeEED1Ev, symObjAddr: 0x63E0, symBinAddr: 0x10710, symSize: 0x4 }
  - { offset: 0x5DC8C, size: 0x8, addend: 0x0, symName: __ZN5folly17BadExpectedAccessINS_14ConversionCodeEED0Ev, symObjAddr: 0x63E4, symBinAddr: 0x10714, symSize: 0x14 }
  - { offset: 0x5FD06, size: 0x8, addend: 0x0, symName: __ZN5folly6detail16memrchr_fallbackEPvim, symObjAddr: 0x0, symBinAddr: 0x107E4, symSize: 0x30 }
  - { offset: 0x5FDF1, size: 0x8, addend: 0x0, symName: __ZN5folly6detail16memrchr_fallbackEPvim, symObjAddr: 0x0, symBinAddr: 0x107E4, symSize: 0x30 }
  - { offset: 0x5FE66, size: 0x8, addend: 0x0, symName: __ZN5folly6detail16memrchr_fallbackEPKvim, symObjAddr: 0x30, symBinAddr: 0x10814, symSize: 0x30 }
  - { offset: 0x6000E, size: 0x8, addend: 0x0, symName: __ZN5folly7memrchrEPvim, symObjAddr: 0x60, symBinAddr: 0x10844, symSize: 0x30 }
  - { offset: 0x600F6, size: 0x8, addend: 0x0, symName: __ZN5folly7memrchrEPKvim, symObjAddr: 0x90, symBinAddr: 0x10874, symSize: 0x30 }
  - { offset: 0x601B3, size: 0x8, addend: 0x0, symName: __ZN5folly7strlcpyEPcPKcm, symObjAddr: 0xC0, symBinAddr: 0x108A4, symSize: 0x60 }
  - { offset: 0x62FED, size: 0x8, addend: 0x0, symName: __ZN5folly25demangle_build_has_cxxabiE, symObjAddr: 0x1FADB, symBinAddr: 0x5443A, symSize: 0x0 }
  - { offset: 0x63007, size: 0x8, addend: 0x0, symName: __ZN5folly26demangle_build_has_libertyE, symObjAddr: 0xAB4, symBinAddr: 0x3DB39, symSize: 0x0 }
  - { offset: 0x6301F, size: 0x8, addend: 0x0, symName: __ZN5folly6detail14FastStaticBoolIZNS0_23usingJEMallocOrTCMallocEvE11InitializerE5flag_E, symObjAddr: 0xB20, symBinAddr: 0x4C220, symSize: 0x0 }
  - { offset: 0x63097, size: 0x8, addend: 0x0, symName: __ZN5folly6detail14FastStaticBoolIZNS_13usingJEMallocEvE11InitializerE5flag_E, symObjAddr: 0xB30, symBinAddr: 0x4C230, symSize: 0x0 }
  - { offset: 0x630EE, size: 0x8, addend: 0x0, symName: __ZN5folly6detail14FastStaticBoolIZNS_13usingTCMallocEvE11InitializerE5flag_E, symObjAddr: 0xB50, symBinAddr: 0x4C250, symSize: 0x0 }
  - { offset: 0x6313F, size: 0x8, addend: 0x0, symName: __ZN5folly6detail16throw_exception_ISt11logic_errorJPKcEEEvDpT0_, symObjAddr: 0x12C, symBinAddr: 0x38880, symSize: 0x3C }
  - { offset: 0x64776, size: 0x8, addend: 0x0, symName: __ZN5folly8demangleEPKc, symObjAddr: 0x0, symBinAddr: 0x10904, symSize: 0xB4 }
  - { offset: 0x64909, size: 0x8, addend: 0x0, symName: __ZN5folly8demangleEPKcPcm, symObjAddr: 0xB8, symBinAddr: 0x109BC, symSize: 0x10 }
  - { offset: 0x649C2, size: 0x8, addend: 0x0, symName: __ZN5folly15throw_exceptionISt11logic_errorEEvOT_, symObjAddr: 0x168, symBinAddr: 0x388BC, symSize: 0x34 }
  - { offset: 0x64C0C, size: 0x8, addend: 0x0, symName: __ZN5folly15throw_exceptionISt12length_errorEEvOT_, symObjAddr: 0x928, symBinAddr: 0x38A88, symSize: 0x34 }
  - { offset: 0x68A2A, size: 0x8, addend: 0x0, symName: __ZN5folly6detail14FastStaticBoolIZNS0_23usingJEMallocOrTCMallocEvE11InitializerE7getSlowEv, symObjAddr: 0x38C, symBinAddr: 0x388F0, symSize: 0x90 }
  - { offset: 0x68A4A, size: 0x8, addend: 0x0, symName: __ZZN5folly6detail14FastStaticBoolIZNS0_23usingJEMallocOrTCMallocEvE11InitializerE7getSlowEvE2rv, symObjAddr: 0xB21, symBinAddr: 0x4C221, symSize: 0x0 }
  - { offset: 0x68AFB, size: 0x8, addend: 0x0, symName: __ZN5folly6detail14FastStaticBoolIZNS_13usingJEMallocEvE11InitializerE7getSlowEv, symObjAddr: 0x478, symBinAddr: 0x38980, symSize: 0x84 }
  - { offset: 0x68B1B, size: 0x8, addend: 0x0, symName: __ZZN5folly6detail14FastStaticBoolIZNS_13usingJEMallocEvE11InitializerE7getSlowEvE2rv, symObjAddr: 0xB31, symBinAddr: 0x4C231, symSize: 0x0 }
  - { offset: 0x68BC2, size: 0x8, addend: 0x0, symName: __ZZN5folly13usingJEMallocEvENK11InitializerclEv, symObjAddr: 0x4FC, symBinAddr: 0x10C6C, symSize: 0x150 }
  - { offset: 0x68BEA, size: 0x8, addend: 0x0, symName: __ZZZN5folly13usingJEMallocEvENK11InitializerclEvE3ptr, symObjAddr: 0xB40, symBinAddr: 0x4C240, symSize: 0x0 }
  - { offset: 0x68C82, size: 0x8, addend: 0x0, symName: __ZN5folly6detail14FastStaticBoolIZNS_13usingTCMallocEvE11InitializerE7getSlowEv, symObjAddr: 0x64C, symBinAddr: 0x38A04, symSize: 0x84 }
  - { offset: 0x68CA2, size: 0x8, addend: 0x0, symName: __ZZN5folly6detail14FastStaticBoolIZNS_13usingTCMallocEvE11InitializerE7getSlowEvE2rv, symObjAddr: 0xB51, symBinAddr: 0x4C251, symSize: 0x0 }
  - { offset: 0x68D49, size: 0x8, addend: 0x0, symName: __ZZN5folly13usingTCMallocEvENK11InitializerclEv, symObjAddr: 0x6D0, symBinAddr: 0x10DBC, symSize: 0xD4 }
  - { offset: 0x68D71, size: 0x8, addend: 0x0, symName: __ZZZN5folly13usingTCMallocEvENK11InitializerclEvE11kAllocBytes, symObjAddr: 0xAB5, symBinAddr: 0x3DB3A, symSize: 0x0 }
  - { offset: 0x68D87, size: 0x8, addend: 0x0, symName: __ZZZN5folly13usingTCMallocEvENK11InitializerclEvE3ptr, symObjAddr: 0xB60, symBinAddr: 0x4C260, symSize: 0x0 }
  - { offset: 0x691E6, size: 0x8, addend: 0x0, symName: __ZN5folly14basic_fbstringIcNSt3__111char_traitsIcEENS1_9allocatorIcEENS_13fbstring_coreIcEEEC1EPKcRKS5_, symObjAddr: 0xB4, symBinAddr: 0x109B8, symSize: 0x4 }
  - { offset: 0x6922B, size: 0x8, addend: 0x0, symName: __ZN5folly14basic_fbstringIcNSt3__111char_traitsIcEENS1_9allocatorIcEENS_13fbstring_coreIcEEEC1EPKcRKS5_, symObjAddr: 0xB4, symBinAddr: 0x109B8, symSize: 0x4 }
  - { offset: 0x6926B, size: 0x8, addend: 0x0, symName: __ZN5folly14basic_fbstringIcNSt3__111char_traitsIcEENS1_9allocatorIcEENS_13fbstring_coreIcEEEC2EPKcRKS5_, symObjAddr: 0xD8, symBinAddr: 0x109CC, symSize: 0x38 }
  - { offset: 0x69354, size: 0x8, addend: 0x0, symName: __ZN5folly14basic_fbstringIcNSt3__111char_traitsIcEENS1_9allocatorIcEENS_13fbstring_coreIcEEE12traitsLengthEPKc, symObjAddr: 0x110, symBinAddr: 0x10A04, symSize: 0x1C }
  - { offset: 0x693E4, size: 0x8, addend: 0x0, symName: __ZN5folly6detail16throw_exception_ISt11logic_errorJPKcEEEvDpT0_, symObjAddr: 0x12C, symBinAddr: 0x38880, symSize: 0x3C }
  - { offset: 0x693EF, size: 0x8, addend: 0x0, symName: __ZN5folly13fbstring_coreIcEC2EPKcmb, symObjAddr: 0x19C, symBinAddr: 0x10A20, symSize: 0xB4 }
  - { offset: 0x695AF, size: 0x8, addend: 0x0, symName: __ZN5folly13fbstring_coreIcE10initMediumEPKcm, symObjAddr: 0x250, symBinAddr: 0x10AD4, symSize: 0xCC }
  - { offset: 0x6977C, size: 0x8, addend: 0x0, symName: __ZN5folly13fbstring_coreIcE9initLargeEPKcm, symObjAddr: 0x31C, symBinAddr: 0x10BA0, symSize: 0x70 }
  - { offset: 0x69924, size: 0x8, addend: 0x0, symName: __ZN5folly13fbstring_coreIcE10RefCounted6createEPm, symObjAddr: 0x810, symBinAddr: 0x10E90, symSize: 0x118 }
  - { offset: 0x69C80, size: 0x8, addend: 0x0, symName: __ZZN5folly6detail23usingJEMallocOrTCMallocEvENK11InitializerclEv, symObjAddr: 0x41C, symBinAddr: 0x10C10, symSize: 0x5C }
  - { offset: 0x69CD8, size: 0x8, addend: 0x0, symName: __ZZN5folly6detail23usingJEMallocOrTCMallocEvENK11InitializerclEv, symObjAddr: 0x41C, symBinAddr: 0x10C10, symSize: 0x5C }
  - { offset: 0x69CFB, size: 0x8, addend: 0x0, symName: __ZZN5folly6detail23usingJEMallocOrTCMallocEvENK11InitializerclEv, symObjAddr: 0x41C, symBinAddr: 0x10C10, symSize: 0x5C }
  - { offset: 0x69E1F, size: 0x8, addend: 0x0, symName: __ZZN5folly13usingJEMallocEvENK11InitializerclEv.cold.1, symObjAddr: 0x980, symBinAddr: 0x38ABC, symSize: 0x40 }
  - { offset: 0x69E6B, size: 0x8, addend: 0x0, symName: __ZZN5folly13usingTCMallocEvENK11InitializerclEv.cold.1, symObjAddr: 0x9C0, symBinAddr: 0x38AFC, symSize: 0x40 }
  - { offset: 0x69F56, size: 0x8, addend: 0x0, symName: __ZNSt12length_errorC1B8ne200100ERKS_, symObjAddr: 0x95C, symBinAddr: 0x10FA8, symSize: 0x24 }
  - { offset: 0x69FD9, size: 0x8, addend: 0x0, symName: __GLOBAL__sub_I_Demangle.cpp, symObjAddr: 0xA98, symBinAddr: 0x10FCC, symSize: 0x1C }
  - { offset: 0x69FF1, size: 0x8, addend: 0x0, symName: __GLOBAL__sub_I_Demangle.cpp, symObjAddr: 0xA98, symBinAddr: 0x10FCC, symSize: 0x1C }
  - { offset: 0x6C001, size: 0x8, addend: 0x0, symName: __ZN5folly7dynamic8TypeInfoIDnE4nameE, symObjAddr: 0x9398, symBinAddr: 0x48AF0, symSize: 0x0 }
  - { offset: 0x6F46C, size: 0x8, addend: 0x0, symName: __ZN5folly6detail16throw_exception_INS_9TypeErrorEJPKcNS_7dynamic4TypeEEEEvDpT0_, symObjAddr: 0x2EE8, symBinAddr: 0x38B70, symSize: 0x68 }
  - { offset: 0x6F6F8, size: 0x8, addend: 0x0, symName: __ZN5folly6detail16throw_exception_ISt12out_of_rangeJONSt3__112basic_stringIcNS3_11char_traitsIcEENS3_9allocatorIcEEEEEEEvDpT0_, symObjAddr: 0x7E2C, symBinAddr: 0x38F24, symSize: 0x4C }
  - { offset: 0x6F8B3, size: 0x8, addend: 0x0, symName: __ZN5folly6detail22callWithKeyAndPairArgsINS_7dynamicES2_ZNS_3f146detail11F14BasicMapIS2_S2_NS0_13DynamicHasherENS0_15DynamicKeyEqualENSt3__19allocatorINS8_4pairIKS2_S2_EEEEE7emplaceIJRNS_5RangeIPKcEEDnEEENSA_INS8_19__hash_map_iteratorINS8_15__hash_iteratorIPNS8_11__hash_nodeINS8_17__hash_value_typeIS2_S2_EEPvEEEEEEbEEDpOT_EUlRT_DpOT0_E_SJ_SK_ODnLi0EEEDaOT1_RKT2_ONS8_5tupleIJT3_EEEONS1C_IJT4_EEE, symObjAddr: 0x7F44, symBinAddr: 0x18144, symSize: 0x70 }
  - { offset: 0x6FC88, size: 0x8, addend: 0x0, symName: __ZN5folly6detail22callWithKeyAndPairArgsINS_7dynamicES2_ZNS_3f146detail11F14BasicMapIS2_S2_NS0_13DynamicHasherENS0_15DynamicKeyEqualENSt3__19allocatorINS8_4pairIKS2_S2_EEEEE7emplaceIJRSB_DnEEENSA_INS8_19__hash_map_iteratorINS8_15__hash_iteratorIPNS8_11__hash_nodeINS8_17__hash_value_typeIS2_S2_EEPvEEEEEEbEEDpOT_EUlRT_DpOT0_E_S2_SG_ODnLi0EEEDaOT1_RKT2_ONS8_5tupleIJT3_EEEONS18_IJT4_EEE, symObjAddr: 0x5324, symBinAddr: 0x15D84, symSize: 0x58 }
  - { offset: 0x70009, size: 0x8, addend: 0x0, symName: __ZN5folly6detail9convertToIxdEENSt3__19enable_ifIXooaa13is_integral_vIT0_Esr3std17is_floating_pointIT_EE5valueaasr3std17is_floating_pointIS4_EE5value13is_integral_vIS5_EENS_8ExpectedIS5_NS_14ConversionCodeEEEE4typeERKS4_, symObjAddr: 0x21A8, symBinAddr: 0x13180, symSize: 0xD4 }
  - { offset: 0x704CB, size: 0x8, addend: 0x0, symName: __ZN5folly6detail24toAppendDoubleConversionINSt3__112basic_stringIcNS2_11char_traitsIcEENS2_9allocatorIcEEEEdEENS2_9enable_ifIXaasr3std17is_floating_pointIT0_EE5valuesr12IsSomeStringIT_EE5valueEvE4typeESA_PSB_NS_8DtoaModeEjNS_9DtoaFlagsE, symObjAddr: 0x2784, symBinAddr: 0x135C8, symSize: 0x130 }
  - { offset: 0x70D20, size: 0x8, addend: 0x0, symName: __ZN5folly6detail9convertToIdxEENSt3__19enable_ifIXooaa13is_integral_vIT0_Esr3std17is_floating_pointIT_EE5valueaasr3std17is_floating_pointIS4_EE5value13is_integral_vIS5_EENS_8ExpectedIS5_NS_14ConversionCodeEEEE4typeERKS4_, symObjAddr: 0x31E0, symBinAddr: 0x13E44, symSize: 0xDC }
  - { offset: 0x70FED, size: 0x8, addend: 0x0, symName: __ZN5folly6detail15reserveInTargetIxPNSt3__112basic_stringIcNS2_11char_traitsIcEENS2_9allocatorIcEEEEEEvRKT_RKT0_, symObjAddr: 0x4DD4, symBinAddr: 0x15A24, symSize: 0x50 }
  - { offset: 0x710C2, size: 0x8, addend: 0x0, symName: __ZN5folly6detail15reserveInTargetIbPNSt3__112basic_stringIcNS2_11char_traitsIcEENS2_9allocatorIcEEEEEEvRKT_RKT0_, symObjAddr: 0x4E9C, symBinAddr: 0x15AEC, symSize: 0x44 }
  - { offset: 0x711A7, size: 0x8, addend: 0x0, symName: __ZN5folly6detail16throw_exception_INS_17BadExpectedAccessINS_7dynamic29json_pointer_resolution_errorIKS3_EEEEJS6_EEEvDpT0_, symObjAddr: 0x4FD0, symBinAddr: 0x38C0C, symSize: 0x50 }
  - { offset: 0x71284, size: 0x8, addend: 0x0, symName: __ZN5folly6detail21baseFormatterCallImplILb0ELb0ENS0_27BaseFormatterAppendToStringINSt3__112basic_stringIcNS3_11char_traitsIcEENS3_9allocatorIcEEEEEEEEvRT1_mPKiPFNS3_17integral_constantIbXT0_EEERKNS0_17BaseFormatterBaseEmEPKPFvSJ_RNS_9FormatArgESC_ESJ_, symObjAddr: 0x5BBC, symBinAddr: 0x162DC, symSize: 0x418 }
  - { offset: 0x71DF3, size: 0x8, addend: 0x0, symName: __ZN5folly6detail16throw_exception_INS_12BadFormatArgEJNS2_11ErrorStrTagENS_5RangeIPKcEES6_cS6_EEEvDpT0_, symObjAddr: 0x63FC, symBinAddr: 0x38D18, symSize: 0x5C }
  - { offset: 0x720FB, size: 0x8, addend: 0x0, symName: __ZN5folly6detail16throw_exception_INS_12BadFormatArgEJPKcEEEvDpT0_, symObjAddr: 0x67A0, symBinAddr: 0x38DA8, symSize: 0x4C }
  - { offset: 0x721F1, size: 0x8, addend: 0x0, symName: __ZN5folly6detail16throw_exception_INS_12BadFormatArgEJNS2_11ErrorStrTagENS_5RangeIPKcEES6_EEEvDpT0_, symObjAddr: 0x69AC, symBinAddr: 0x38DF4, symSize: 0x4C }
  - { offset: 0x726D7, size: 0x8, addend: 0x0, symName: __ZN5folly6detail16throw_exception_INS_12BadFormatArgEJNS2_11ErrorStrTagENS_5RangeIPKcEES6_mEEEvDpT0_, symObjAddr: 0x7540, symBinAddr: 0x38ED4, symSize: 0x50 }
  - { offset: 0x743E2, size: 0x8, addend: 0x0, symName: __ZN5folly7dynamic8TypeInfoIbE4nameE, symObjAddr: 0x93A0, symBinAddr: 0x48AF8, symSize: 0x0 }
  - { offset: 0x743F5, size: 0x8, addend: 0x0, symName: __ZN5folly7dynamic8TypeInfoINSt3__112basic_stringIcNS2_11char_traitsIcEENS2_9allocatorIcEEEEE4nameE, symObjAddr: 0x93A8, symBinAddr: 0x48B00, symSize: 0x0 }
  - { offset: 0x74408, size: 0x8, addend: 0x0, symName: __ZN5folly7dynamic8TypeInfoINSt3__16vectorIS0_NS2_9allocatorIS0_EEEEE4nameE, symObjAddr: 0x93B0, symBinAddr: 0x48B08, symSize: 0x0 }
  - { offset: 0x7441B, size: 0x8, addend: 0x0, symName: __ZN5folly7dynamic8TypeInfoIdE4nameE, symObjAddr: 0x93B8, symBinAddr: 0x48B10, symSize: 0x0 }
  - { offset: 0x7442E, size: 0x8, addend: 0x0, symName: __ZN5folly7dynamic8TypeInfoIxE4nameE, symObjAddr: 0x93C0, symBinAddr: 0x48B18, symSize: 0x0 }
  - { offset: 0x74441, size: 0x8, addend: 0x0, symName: __ZN5folly7dynamic8TypeInfoINS0_10ObjectImplEE4nameE, symObjAddr: 0x93C8, symBinAddr: 0x48B20, symSize: 0x0 }
  - { offset: 0x744AD, size: 0x8, addend: 0x0, symName: __ZN5folly8identityE, symObjAddr: 0x960B, symBinAddr: 0x3DB93, symSize: 0x0 }
  - { offset: 0x766C4, size: 0x8, addend: 0x0, symName: __ZN5follyltERKNS_7dynamicES2_, symObjAddr: 0x1C4, symBinAddr: 0x111AC, symSize: 0x19C }
  - { offset: 0x76A81, size: 0x8, addend: 0x0, symName: __ZN5follyeqERKNS_7dynamicES2_, symObjAddr: 0x394, symBinAddr: 0x1137C, symSize: 0x210 }
  - { offset: 0x770E3, size: 0x8, addend: 0x0, symName: __ZN5folly7sformatIJNSt3__112basic_stringIcNS1_11char_traitsIcEENS1_9allocatorIcEEEEEEES7_NS_5RangeIPKcEEDpOT_, symObjAddr: 0xF54, symBinAddr: 0x11F2C, symSize: 0x70 }
  - { offset: 0x78484, size: 0x8, addend: 0x0, symName: __ZN5folly4hash10hash_rangeINSt3__111__wrap_iterIPKNS_7dynamicEEENS2_4hashIS4_EEEEyT_SA_yT0_, symObjAddr: 0x1768, symBinAddr: 0x12740, symSize: 0x78 }
  - { offset: 0x7932C, size: 0x8, addend: 0x0, symName: __ZN5folly2toIxdEENSt3__19enable_ifIXsr6detail14IsArithToArithIT_T0_EE5valueES3_E4typeERKS4_, symObjAddr: 0x2160, symBinAddr: 0x13138, symSize: 0x48 }
  - { offset: 0x79510, size: 0x8, addend: 0x0, symName: __ZN5folly15throw_exceptionINS_15ConversionErrorEEEvOT_, symObjAddr: 0x2374, symBinAddr: 0x38B3C, symSize: 0x34 }
  - { offset: 0x79598, size: 0x8, addend: 0x0, symName: __ZN5folly2toINSt3__112basic_stringIcNS1_11char_traitsIcEENS1_9allocatorIcEEEEJA2_cPKcA3_cdELi0EEET_DpRKT0_, symObjAddr: 0x24AC, symBinAddr: 0x133A0, symSize: 0x54 }
  - { offset: 0x797A1, size: 0x8, addend: 0x0, symName: __ZN5folly11toAppendFitIJA2_cPKcA3_cdPNSt3__112basic_stringIcNS5_11char_traitsIcEENS5_9allocatorIcEEEEELi0EEEvDpRKT_, symObjAddr: 0x2500, symBinAddr: 0x133F4, symSize: 0x64 }
  - { offset: 0x79ACC, size: 0x8, addend: 0x0, symName: __ZN5folly8toAppendINSt3__112basic_stringIcNS1_11char_traitsIcEENS1_9allocatorIcEEEEPKcEENS1_9enable_ifIXaasr3std14is_convertibleIT0_S9_EE5valuesr12IsSomeStringIT_EE5valueEvE4typeESB_PSC_, symObjAddr: 0x269C, symBinAddr: 0x13590, symSize: 0x38 }
  - { offset: 0x79B6B, size: 0x8, addend: 0x0, symName: __ZN5folly2toINSt3__112basic_stringIcNS1_11char_traitsIcEENS1_9allocatorIcEEEEJA2_cPKcA3_cbELi0EEET_DpRKT0_, symObjAddr: 0x29C8, symBinAddr: 0x1380C, symSize: 0x54 }
  - { offset: 0x79D5A, size: 0x8, addend: 0x0, symName: __ZN5folly11toAppendFitIJA2_cPKcA3_cbPNSt3__112basic_stringIcNS5_11char_traitsIcEENS5_9allocatorIcEEEEELi0EEEvDpRKT_, symObjAddr: 0x2A1C, symBinAddr: 0x13860, symSize: 0x64 }
  - { offset: 0x7A0BA, size: 0x8, addend: 0x0, symName: __ZN5folly13to_ascii_withILy10ENS_17to_ascii_alphabetILb0EEELm20EEEmRAT1__cy, symObjAddr: 0x2C0C, symBinAddr: 0x13A50, symSize: 0xB8 }
  - { offset: 0x7A280, size: 0x8, addend: 0x0, symName: __ZN5folly15throw_exceptionINS_9TypeErrorEEEvOT_, symObjAddr: 0x2F50, symBinAddr: 0x38BD8, symSize: 0x34 }
  - { offset: 0x7A8AD, size: 0x8, addend: 0x0, symName: __ZN5folly2toIdxEENSt3__19enable_ifIXsr6detail14IsArithToArithIT_T0_EE5valueES3_E4typeERKS4_, symObjAddr: 0x3198, symBinAddr: 0x13DFC, symSize: 0x48 }
  - { offset: 0x7A9CC, size: 0x8, addend: 0x0, symName: __ZN5folly2toINSt3__112basic_stringIcNS1_11char_traitsIcEENS1_9allocatorIcEEEEJA2_cPKcA3_cxELi0EEET_DpRKT0_, symObjAddr: 0x33D0, symBinAddr: 0x14034, symSize: 0x54 }
  - { offset: 0x7ABBB, size: 0x8, addend: 0x0, symName: __ZN5folly11toAppendFitIJA2_cPKcA3_cxPNSt3__112basic_stringIcNS5_11char_traitsIcEENS5_9allocatorIcEEEEELi0EEEvDpRKT_, symObjAddr: 0x3424, symBinAddr: 0x14088, symSize: 0x64 }
  - { offset: 0x7ADB2, size: 0x8, addend: 0x0, symName: __ZN5folly8toAppendINSt3__112basic_stringIcNS1_11char_traitsIcEENS1_9allocatorIcEEEExEENS1_9enable_ifIXaaaaaa13is_integral_vIT0_E11is_signed_vIS9_Esr12IsSomeStringIT_EE5valuegestS9_Li4EEvE4typeES9_PSA_, symObjAddr: 0x35D8, symBinAddr: 0x1423C, symSize: 0x84 }
  - { offset: 0x7AF35, size: 0x8, addend: 0x0, symName: __ZN5folly2toINSt3__112basic_stringIcNS1_11char_traitsIcEENS1_9allocatorIcEEEEdEENS1_9enable_ifIXaasr12IsSomeStringIT_EE5valuesr3std17is_floating_pointIT0_EE5valueES9_E4typeESA_, symObjAddr: 0x4D2C, symBinAddr: 0x1597C, symSize: 0x54 }
  - { offset: 0x7B136, size: 0x8, addend: 0x0, symName: __ZN5folly2toINSt3__112basic_stringIcNS1_11char_traitsIcEENS1_9allocatorIcEEEEJxELi0EEET_DpRKT0_, symObjAddr: 0x4CC8, symBinAddr: 0x15918, symSize: 0x64 }
  - { offset: 0x7B305, size: 0x8, addend: 0x0, symName: __ZN5folly2toINSt3__112basic_stringIcNS1_11char_traitsIcEENS1_9allocatorIcEEEEJbELi0EEET_DpRKT0_, symObjAddr: 0x4D80, symBinAddr: 0x159D0, symSize: 0x54 }
  - { offset: 0x7B4DF, size: 0x8, addend: 0x0, symName: __ZN5folly11toAppendFitIJbPNSt3__112basic_stringIcNS1_11char_traitsIcEENS1_9allocatorIcEEEEELi0EEEvDpRKT_, symObjAddr: 0x4E24, symBinAddr: 0x15A74, symSize: 0x78 }
  - { offset: 0x7B627, size: 0x8, addend: 0x0, symName: __ZN5folly15throw_exceptionINS_17BadExpectedAccessINS_7dynamic29json_pointer_resolution_errorIKS2_EEEEEEvOT_, symObjAddr: 0x5020, symBinAddr: 0x38C5C, symSize: 0x4C }
  - { offset: 0x7BC6E, size: 0x8, addend: 0x0, symName: __ZN5folly12format_value12formatStringINS_6detail27BaseFormatterAppendToStringINSt3__112basic_stringIcNS4_11char_traitsIcEENS4_9allocatorIcEEEEEEEEvNS_5RangeIPKcEERNS_9FormatArgERT_, symObjAddr: 0x60B4, symBinAddr: 0x167D4, symSize: 0x1B8 }
  - { offset: 0x7BED7, size: 0x8, addend: 0x0, symName: __ZN5folly9FormatArg11splitIntKeyEv, symObjAddr: 0x626C, symBinAddr: 0x1698C, symSize: 0x16C }
  - { offset: 0x7BEEB, size: 0x8, addend: 0x0, symName: __ZN5folly12format_value12formatNumberINS_6detail27BaseFormatterAppendToStringINSt3__112basic_stringIcNS4_11char_traitsIcEENS4_9allocatorIcEEEEEEEEvNS_5RangeIPKcEEiRNS_9FormatArgERT_, symObjAddr: 0x70FC, symBinAddr: 0x175D8, symSize: 0xB8 }
  - { offset: 0x7C0B2, size: 0x8, addend: 0x0, symName: __ZN5folly15throw_exceptionINS_12BadFormatArgEEEvOT_, symObjAddr: 0x6458, symBinAddr: 0x38D74, symSize: 0x34 }
  - { offset: 0x7C0F9, size: 0x8, addend: 0x0, symName: __ZN5folly2toINSt3__112basic_stringIcNS1_11char_traitsIcEENS1_9allocatorIcEEEEJNS_5RangeIPKcEESB_SB_SA_cSA_ELi0EEET_DpRKT0_, symObjAddr: 0x6580, symBinAddr: 0x16C10, symSize: 0x54 }
  - { offset: 0x7C320, size: 0x8, addend: 0x0, symName: __ZN5folly11toAppendFitIJNS_5RangeIPKcEES4_S4_S3_cS3_PNSt3__112basic_stringIcNS5_11char_traitsIcEENS5_9allocatorIcEEEEELi0EEEvDpRKT_, symObjAddr: 0x65D4, symBinAddr: 0x16C64, symSize: 0x7C }
  - { offset: 0x7C69A, size: 0x8, addend: 0x0, symName: __ZN5folly2toINSt3__112basic_stringIcNS1_11char_traitsIcEENS1_9allocatorIcEEEEJNS_5RangeIPKcEESB_SB_SA_ELi0EEET_DpRKT0_, symObjAddr: 0x6AB0, symBinAddr: 0x16FD4, symSize: 0x54 }
  - { offset: 0x7C889, size: 0x8, addend: 0x0, symName: __ZN5folly11toAppendFitIJNS_5RangeIPKcEES4_S4_S3_PNSt3__112basic_stringIcNS5_11char_traitsIcEENS5_9allocatorIcEEEEELi0EEEvDpRKT_, symObjAddr: 0x6B04, symBinAddr: 0x17028, symSize: 0x64 }
  - { offset: 0x7CB14, size: 0x8, addend: 0x0, symName: __ZN5folly13to_ascii_withILy10ENS_17to_ascii_alphabetILb0EEEEEmPcPKcy, symObjAddr: 0x71FC, symBinAddr: 0x38E40, symSize: 0x94 }
  - { offset: 0x7CED2, size: 0x8, addend: 0x0, symName: __ZN5folly2toINSt3__112basic_stringIcNS1_11char_traitsIcEENS1_9allocatorIcEEEEJNS_5RangeIPKcEESB_SB_SA_mELi0EEET_DpRKT0_, symObjAddr: 0x7648, symBinAddr: 0x178DC, symSize: 0x54 }
  - { offset: 0x7D0DD, size: 0x8, addend: 0x0, symName: __ZN5folly11toAppendFitIJNS_5RangeIPKcEES4_S4_S3_mPNSt3__112basic_stringIcNS5_11char_traitsIcEENS5_9allocatorIcEEEEELi0EEEvDpRKT_, symObjAddr: 0x769C, symBinAddr: 0x17930, symSize: 0x74 }
  - { offset: 0x8A688, size: 0x8, addend: 0x0, symName: __ZNSt3__1lsB8ne200100INS_11char_traitsIcEEEERNS_13basic_ostreamIcT_EES6_PKc, symObjAddr: 0x360, symBinAddr: 0x11348, symSize: 0x34 }
  - { offset: 0x8A846, size: 0x8, addend: 0x0, symName: __ZNSt3__1ssB8ne200100IcNS_11char_traitsIcEENS_9allocatorIcEEEEDaRKNS_12basic_stringIT_T0_T1_EESC_, symObjAddr: 0x7AC4, symBinAddr: 0x17D10, symSize: 0x38 }
  - { offset: 0x8A888, size: 0x8, addend: 0x0, symName: __ZNSt3__1ssB8ne200100IcNS_11char_traitsIcEENS_9allocatorIcEEEEDaRKNS_12basic_stringIT_T0_T1_EESC_, symObjAddr: 0x7AC4, symBinAddr: 0x17D10, symSize: 0x38 }
  - { offset: 0x8A8A6, size: 0x8, addend: 0x0, symName: __ZNSt3__1ssB8ne200100IcNS_11char_traitsIcEENS_9allocatorIcEEEEDaRKNS_12basic_stringIT_T0_T1_EESC_, symObjAddr: 0x7AC4, symBinAddr: 0x17D10, symSize: 0x38 }
  - { offset: 0x8A8C4, size: 0x8, addend: 0x0, symName: __ZNSt3__1ssB8ne200100IcNS_11char_traitsIcEENS_9allocatorIcEEEEDaRKNS_12basic_stringIT_T0_T1_EESC_, symObjAddr: 0x7AC4, symBinAddr: 0x17D10, symSize: 0x38 }
  - { offset: 0x8A8E2, size: 0x8, addend: 0x0, symName: __ZNSt3__1ssB8ne200100IcNS_11char_traitsIcEENS_9allocatorIcEEEEDaRKNS_12basic_stringIT_T0_T1_EESC_, symObjAddr: 0x7AC4, symBinAddr: 0x17D10, symSize: 0x38 }
  - { offset: 0x8A99C, size: 0x8, addend: 0x0, symName: __ZNSt3__145__lexicographical_compare_three_way_fast_pathB8ne200100INS_11__wrap_iterIPKN5folly7dynamicEEES6_NS_17__synth_three_wayMUlTyTyRKT_RKT0_E_EEEDTclfp3_defp_defp1_EES7_S7_SA_SA_RT1_, symObjAddr: 0x7A14, symBinAddr: 0x17C60, symSize: 0xB0 }
  - { offset: 0x8B1FE, size: 0x8, addend: 0x0, symName: __ZNSt3__119__allocate_at_leastB8ne200100INS_9allocatorIN5folly7dynamicEEEEENS_19__allocation_resultINS_16allocator_traitsIT_E7pointerEEERS7_m, symObjAddr: 0x3914, symBinAddr: 0x14564, symSize: 0x44 }
  - { offset: 0x8B2A4, size: 0x8, addend: 0x0, symName: __ZNSt3__135__uninitialized_allocator_copy_implB8ne200100INS_9allocatorIN5folly7dynamicEEEPS3_S5_S5_EET2_RT_T0_T1_S6_, symObjAddr: 0x3958, symBinAddr: 0x145A8, symSize: 0x84 }
  - { offset: 0x8B2B8, size: 0x8, addend: 0x0, symName: __ZNSt3__134__uninitialized_allocator_relocateB8ne200100INS_9allocatorIN5folly7dynamicEEEPS3_EEvRT_T0_S8_S8_, symObjAddr: 0x4EE0, symBinAddr: 0x15B30, symSize: 0x68 }
  - { offset: 0x8B313, size: 0x8, addend: 0x0, symName: __ZNSt3__134__uninitialized_allocator_relocateB8ne200100INS_9allocatorIN5folly7dynamicEEEPS3_EEvRT_T0_S8_S8_, symObjAddr: 0x4EE0, symBinAddr: 0x15B30, symSize: 0x68 }
  - { offset: 0x8B752, size: 0x8, addend: 0x0, symName: __ZNSt3__135__uninitialized_allocator_copy_implB8ne200100INS_9allocatorIN5folly7dynamicEEEPS3_S5_S5_EET2_RT_T0_T1_S6_, symObjAddr: 0x3958, symBinAddr: 0x145A8, symSize: 0x84 }
  - { offset: 0x8DA99, size: 0x8, addend: 0x0, symName: __ZNSt3__1ssB8ne200100IcNS_11char_traitsIcEEEEDaNS_17basic_string_viewIT_T0_EENS_13type_identityIS7_E4typeE, symObjAddr: 0x7AFC, symBinAddr: 0x17D48, symSize: 0x5C }
  - { offset: 0x8F77A, size: 0x8, addend: 0x0, symName: __ZN5folly6detail18pretty_name_zarrayIxNS0_14pretty_tag_gccEE6zarrayE, symObjAddr: 0x9663, symBinAddr: 0x3DB94, symSize: 0x0 }
  - { offset: 0x8F7CC, size: 0x8, addend: 0x0, symName: __ZN5folly6detail18pretty_name_zarrayIdNS0_14pretty_tag_gccEE6zarrayE, symObjAddr: 0x969F, symBinAddr: 0x3DB9E, symSize: 0x0 }
  - { offset: 0x9040C, size: 0x8, addend: 0x0, symName: __ZNK5folly11FormatValueIcvE8doFormatINS_6detail27BaseFormatterAppendToStringINSt3__112basic_stringIcNS5_11char_traitsIcEENS5_9allocatorIcEEEEEEEEvRNS_9FormatArgERT_, symObjAddr: 0x6CB8, symBinAddr: 0x17194, symSize: 0x444 }
  - { offset: 0x9092C, size: 0x8, addend: 0x0, symName: __ZN5folly12format_value12formatNumberINS_6detail27BaseFormatterAppendToStringINSt3__112basic_stringIcNS4_11char_traitsIcEENS4_9allocatorIcEEEEEEEEvNS_5RangeIPKcEEiRNS_9FormatArgERT_, symObjAddr: 0x70FC, symBinAddr: 0x175D8, symSize: 0xB8 }
  - { offset: 0x90C25, size: 0x8, addend: 0x0, symName: __ZNK5folly7dynamic8typeNameEv, symObjAddr: 0x0, symBinAddr: 0x10FE8, symSize: 0x8 }
  - { offset: 0x90C5C, size: 0x8, addend: 0x0, symName: __ZN5folly7dynamic8typeNameENS0_4TypeE, symObjAddr: 0x8, symBinAddr: 0x10FF0, symSize: 0x60 }
  - { offset: 0x90E76, size: 0x8, addend: 0x0, symName: __ZN5folly9TypeErrorC2ERKNSt3__112basic_stringIcNS1_11char_traitsIcEENS1_9allocatorIcEEEENS_7dynamic4TypeE, symObjAddr: 0x68, symBinAddr: 0x11050, symSize: 0x9C }
  - { offset: 0x911C7, size: 0x8, addend: 0x0, symName: __ZNK5folly17BaseFormatterImplINS_9FormatterILb0EJRKNSt3__112basic_stringIcNS2_11char_traitsIcEENS2_9allocatorIcEEEEPKcEEELb0ENS2_16integer_sequenceImJLm0ELm1EEEEJSA_SC_EE3strEv, symObjAddr: 0x5AA4, symBinAddr: 0x161C4, symSize: 0xA8 }
  - { offset: 0x913D4, size: 0x8, addend: 0x0, symName: __ZN5folly9TypeErrorC1ERKNSt3__112basic_stringIcNS1_11char_traitsIcEENS1_9allocatorIcEEEENS_7dynamic4TypeE, symObjAddr: 0x104, symBinAddr: 0x110EC, symSize: 0x4 }
  - { offset: 0x91405, size: 0x8, addend: 0x0, symName: __ZN5folly9TypeErrorC1ERKNSt3__112basic_stringIcNS1_11char_traitsIcEENS1_9allocatorIcEEEENS_7dynamic4TypeE, symObjAddr: 0x104, symBinAddr: 0x110EC, symSize: 0x4 }
  - { offset: 0x91566, size: 0x8, addend: 0x0, symName: __ZN5folly9TypeErrorC2ERKNSt3__112basic_stringIcNS1_11char_traitsIcEENS1_9allocatorIcEEEENS_7dynamic4TypeESB_, symObjAddr: 0x108, symBinAddr: 0x110F0, symSize: 0xB8 }
  - { offset: 0x918C2, size: 0x8, addend: 0x0, symName: __ZNK5folly17BaseFormatterImplINS_9FormatterILb0EJRKNSt3__112basic_stringIcNS2_11char_traitsIcEENS2_9allocatorIcEEEEPKcSC_EEELb0ENS2_16integer_sequenceImJLm0ELm1ELm2EEEEJSA_SC_SC_EE3strEv, symObjAddr: 0x78D8, symBinAddr: 0x17B24, symSize: 0xA8 }
  - { offset: 0x91AD1, size: 0x8, addend: 0x0, symName: __ZN5folly9TypeErrorC1ERKNSt3__112basic_stringIcNS1_11char_traitsIcEENS1_9allocatorIcEEEENS_7dynamic4TypeESB_, symObjAddr: 0x1C0, symBinAddr: 0x111A8, symSize: 0x4 }
  - { offset: 0x91B29, size: 0x8, addend: 0x0, symName: __ZN5folly9TypeErrorC1ERKNSt3__112basic_stringIcNS1_11char_traitsIcEENS1_9allocatorIcEEEENS_7dynamic4TypeESB_, symObjAddr: 0x1C0, symBinAddr: 0x111A8, symSize: 0x4 }
  - { offset: 0x91CC2, size: 0x8, addend: 0x0, symName: __ZNK5folly7dynamic6asImplIxEET_v, symObjAddr: 0x2028, symBinAddr: 0x13000, symSize: 0x138 }
  - { offset: 0x920C3, size: 0x8, addend: 0x0, symName: __ZN5folly2toIxdEENSt3__19enable_ifIXsr6detail14IsArithToArithIT_T0_EE5valueES3_E4typeERKS4_, symObjAddr: 0x2160, symBinAddr: 0x13138, symSize: 0x48 }
  - { offset: 0x920D7, size: 0x8, addend: 0x0, symName: __ZNK5folly7dynamic6asImplIdEET_v, symObjAddr: 0x304C, symBinAddr: 0x13CB0, symSize: 0x14C }
  - { offset: 0x924DA, size: 0x8, addend: 0x0, symName: __ZN5folly2toIdxEENSt3__19enable_ifIXsr6detail14IsArithToArithIT_T0_EE5valueES3_E4typeERKS4_, symObjAddr: 0x3198, symBinAddr: 0x13DFC, symSize: 0x48 }
  - { offset: 0x92722, size: 0x8, addend: 0x0, symName: __ZNK5folly3f146detail11F14BasicMapINS_7dynamicES3_NS_6detail13DynamicHasherENS4_15DynamicKeyEqualENSt3__19allocatorINS7_4pairIKS3_S3_EEEEE18containsEqualValueERKSB_, symObjAddr: 0x7B58, symBinAddr: 0x17DA4, symSize: 0xF8 }
  - { offset: 0x92BF9, size: 0x8, addend: 0x0, symName: __ZN5folly7dynamicC2ERKS0_, symObjAddr: 0x5A4, symBinAddr: 0x1158C, symSize: 0x134 }
  - { offset: 0x92DFC, size: 0x8, addend: 0x0, symName: __ZNSt3__16vectorIN5folly7dynamicENS_9allocatorIS2_EEE16__init_with_sizeB8ne200100IPS2_S7_EEvT_T0_m, symObjAddr: 0x3834, symBinAddr: 0x14498, symSize: 0x84 }
  - { offset: 0x93048, size: 0x8, addend: 0x0, symName: __ZNSt3__113unordered_mapIN5folly7dynamicES2_NS1_6detail13DynamicHasherENS3_15DynamicKeyEqualENS_9allocatorINS_4pairIKS2_S2_EEEEEC2ERKSB_, symObjAddr: 0x3A4C, symBinAddr: 0x1469C, symSize: 0x74 }
  - { offset: 0x932FE, size: 0x8, addend: 0x0, symName: __ZNSt3__112basic_stringIcNS_11char_traitsIcEENS_9allocatorIcEEE25__init_copy_ctor_externalEPKcm, symObjAddr: 0x40DC, symBinAddr: 0x14D2C, symSize: 0x80 }
  - { offset: 0x934CB, size: 0x8, addend: 0x0, symName: __ZNSt3__112__hash_tableINS_17__hash_value_typeIN5folly7dynamicES3_EENS_22__unordered_map_hasherIS3_S4_NS2_6detail13DynamicHasherENS6_15DynamicKeyEqualELb1EEENS_21__unordered_map_equalIS3_S4_S8_S7_Lb1EEENS_9allocatorIS4_EEEC2EOSE_, symObjAddr: 0x415C, symBinAddr: 0x14DAC, symSize: 0x70 }
  - { offset: 0x934D6, size: 0x8, addend: 0x0, symName: __ZN5folly7dynamicC1ERKS0_, symObjAddr: 0x6D8, symBinAddr: 0x116C0, symSize: 0x4 }
  - { offset: 0x93500, size: 0x8, addend: 0x0, symName: __ZN5folly7dynamicC1ERKS0_, symObjAddr: 0x6D8, symBinAddr: 0x116C0, symSize: 0x4 }
  - { offset: 0x936A9, size: 0x8, addend: 0x0, symName: __ZN5folly7dynamicC2EOS0_, symObjAddr: 0x6DC, symBinAddr: 0x116C4, symSize: 0x11C }
  - { offset: 0x93887, size: 0x8, addend: 0x0, symName: __ZNSt3__112__hash_tableINS_17__hash_value_typeIN5folly7dynamicES3_EENS_22__unordered_map_hasherIS3_S4_NS2_6detail13DynamicHasherENS6_15DynamicKeyEqualELb1EEENS_21__unordered_map_equalIS3_S4_S8_S7_Lb1EEENS_9allocatorIS4_EEEC2EOSE_, symObjAddr: 0x415C, symBinAddr: 0x14DAC, symSize: 0x70 }
  - { offset: 0x938FE, size: 0x8, addend: 0x0, symName: __ZNSt3__112__hash_tableINS_17__hash_value_typeIN5folly7dynamicES3_EENS_22__unordered_map_hasherIS3_S4_NS2_6detail13DynamicHasherENS6_15DynamicKeyEqualELb1EEENS_21__unordered_map_equalIS3_S4_S8_S7_Lb1EEENS_9allocatorIS4_EEEC2EOSE_, symObjAddr: 0x415C, symBinAddr: 0x14DAC, symSize: 0x70 }
  - { offset: 0x939D1, size: 0x8, addend: 0x0, symName: __ZN5folly7dynamicC1EOS0_, symObjAddr: 0x808, symBinAddr: 0x117E0, symSize: 0x4 }
  - { offset: 0x939FB, size: 0x8, addend: 0x0, symName: __ZN5folly7dynamicC1EOS0_, symObjAddr: 0x808, symBinAddr: 0x117E0, symSize: 0x4 }
  - { offset: 0x93B56, size: 0x8, addend: 0x0, symName: __ZN5folly7dynamicaSERKS0_, symObjAddr: 0x80C, symBinAddr: 0x117E4, symSize: 0x250 }
  - { offset: 0x93F53, size: 0x8, addend: 0x0, symName: __ZN5folly7dynamic7destroyEv, symObjAddr: 0xA5C, symBinAddr: 0x11A34, symSize: 0xB8 }
  - { offset: 0x9422B, size: 0x8, addend: 0x0, symName: __ZNSt3__16vectorIN5folly7dynamicENS_9allocatorIS2_EEE18__assign_with_sizeB8ne200100IPS2_S7_EEvT_T0_l, symObjAddr: 0x41CC, symBinAddr: 0x14E1C, symSize: 0x194 }
  - { offset: 0x94801, size: 0x8, addend: 0x0, symName: __ZNSt3__112__hash_tableINS_17__hash_value_typeIN5folly7dynamicES3_EENS_22__unordered_map_hasherIS3_S4_NS2_6detail13DynamicHasherENS6_15DynamicKeyEqualELb1EEENS_21__unordered_map_equalIS3_S4_S8_S7_Lb1EEENS_9allocatorIS4_EEE14__assign_multiINS_21__hash_const_iteratorIPNS_11__hash_nodeIS4_PvEEEEEEvT_SM_, symObjAddr: 0x43C4, symBinAddr: 0x15014, symSize: 0x104 }
  - { offset: 0x94C3A, size: 0x8, addend: 0x0, symName: __ZNSt3__16vectorIN5folly7dynamicENS_9allocatorIS2_EEE16__destroy_vectorclB8ne200100Ev, symObjAddr: 0x39DC, symBinAddr: 0x1462C, symSize: 0x70 }
  - { offset: 0x94DA5, size: 0x8, addend: 0x0, symName: __ZNSt3__112__hash_tableINS_17__hash_value_typeIN5folly7dynamicES3_EENS_22__unordered_map_hasherIS3_S4_NS2_6detail13DynamicHasherENS6_15DynamicKeyEqualELb1EEENS_21__unordered_map_equalIS3_S4_S8_S7_Lb1EEENS_9allocatorIS4_EEED2Ev, symObjAddr: 0x4060, symBinAddr: 0x14CB0, symSize: 0x38 }
  - { offset: 0x95098, size: 0x8, addend: 0x0, symName: __ZN5folly7dynamicaSEOS0_, symObjAddr: 0xB14, symBinAddr: 0x11AEC, symSize: 0x244 }
  - { offset: 0x95496, size: 0x8, addend: 0x0, symName: __ZNSt3__16vectorIN5folly7dynamicENS_9allocatorIS2_EEE13__vdeallocateEv, symObjAddr: 0x4360, symBinAddr: 0x14FB0, symSize: 0x64 }
  - { offset: 0x95611, size: 0x8, addend: 0x0, symName: __ZNSt3__112__hash_tableINS_17__hash_value_typeIN5folly7dynamicES3_EENS_22__unordered_map_hasherIS3_S4_NS2_6detail13DynamicHasherENS6_15DynamicKeyEqualELb1EEENS_21__unordered_map_equalIS3_S4_S8_S7_Lb1EEENS_9allocatorIS4_EEE13__move_assignERSE_NS_17integral_constantIbLb1EEE, symObjAddr: 0x4AD8, symBinAddr: 0x15728, symSize: 0xA0 }
  - { offset: 0x9580E, size: 0x8, addend: 0x0, symName: __ZN5folly7dynamicaSEDn, symObjAddr: 0xD58, symBinAddr: 0x11D30, symSize: 0x38 }
  - { offset: 0x95ADF, size: 0x8, addend: 0x0, symName: __ZNKR5folly7dynamic6atImplERKS0_, symObjAddr: 0xD90, symBinAddr: 0x11D68, symSize: 0x1C4 }
  - { offset: 0x961F1, size: 0x8, addend: 0x0, symName: __ZNKSt3__112__hash_tableINS_17__hash_value_typeIN5folly7dynamicES3_EENS_22__unordered_map_hasherIS3_S4_NS2_6detail13DynamicHasherENS6_15DynamicKeyEqualELb1EEENS_21__unordered_map_equalIS3_S4_S8_S7_Lb1EEENS_9allocatorIS4_EEE4findIS3_EENS_21__hash_const_iteratorIPNS_11__hash_nodeIS4_PvEEEERKT_, symObjAddr: 0x7C50, symBinAddr: 0x17E9C, symSize: 0xF8 }
  - { offset: 0x9642A, size: 0x8, addend: 0x0, symName: __ZNK5folly7dynamic6asImplINSt3__112basic_stringIcNS2_11char_traitsIcEENS2_9allocatorIcEEEEEET_v, symObjAddr: 0x4BCC, symBinAddr: 0x1581C, symSize: 0xFC }
  - { offset: 0x9678E, size: 0x8, addend: 0x0, symName: __ZNKR5folly7dynamic6atImplERKS0_.cold.1, symObjAddr: 0x86BC, symBinAddr: 0x38FEC, symSize: 0x14 }
  - { offset: 0x96961, size: 0x8, addend: 0x0, symName: __ZNK5folly17BaseFormatterImplINS_9FormatterILb0EJNSt3__112basic_stringIcNS2_11char_traitsIcEENS2_9allocatorIcEEEEEEELb0ENS2_16integer_sequenceImJLm0EEEEJS8_EE3strEv, symObjAddr: 0x7D48, symBinAddr: 0x17F94, symSize: 0xA0 }
  - { offset: 0x96D6C, size: 0x8, addend: 0x0, symName: __ZNKR5folly7dynamic2atENS_5RangeIPKcEE, symObjAddr: 0xFC4, symBinAddr: 0x11F9C, symSize: 0xB0 }
  - { offset: 0x970E6, size: 0x8, addend: 0x0, symName: __ZN5folly3f146detail11F14BasicMapINS_7dynamicES3_NS_6detail13DynamicHasherENS4_15DynamicKeyEqualENSt3__19allocatorINS7_4pairIKS3_S3_EEEEE9findLocalIKSD_NS_5RangeIPKcEEEENS_8OptionalIDTcldtfp_5beginLi0EEEEERT_RKT0_, symObjAddr: 0x5084, symBinAddr: 0x15C38, symSize: 0xE4 }
  - { offset: 0x97405, size: 0x8, addend: 0x0, symName: __ZNK5folly17BaseFormatterImplINS_9FormatterILb0EJRNS_5RangeIPKcEEEEELb0ENSt3__116integer_sequenceImJLm0EEEEJS6_EE3strEv, symObjAddr: 0x7E78, symBinAddr: 0x18078, symSize: 0xA0 }
  - { offset: 0x976C1, size: 0x8, addend: 0x0, symName: __ZNR5folly7dynamicixENS_5RangeIPKcEE, symObjAddr: 0x1074, symBinAddr: 0x1204C, symSize: 0x68 }
  - { offset: 0x9780D, size: 0x8, addend: 0x0, symName: __ZNKR5folly7dynamic10getDefaultENS_5RangeIPKcEERKS0_, symObjAddr: 0x10DC, symBinAddr: 0x120B4, symSize: 0x78 }
  - { offset: 0x9785E, size: 0x8, addend: 0x0, symName: __ZNKR5folly7dynamic10getDefaultENS_5RangeIPKcEERKS0_, symObjAddr: 0x10DC, symBinAddr: 0x120B4, symSize: 0x78 }
  - { offset: 0x979F2, size: 0x8, addend: 0x0, symName: __ZNKR5folly7dynamic10getDefaultENS_5RangeIPKcEEOS0_, symObjAddr: 0x1154, symBinAddr: 0x1212C, symSize: 0x84 }
  - { offset: 0x97A24, size: 0x8, addend: 0x0, symName: __ZNKR5folly7dynamic10getDefaultENS_5RangeIPKcEEOS0_, symObjAddr: 0x1154, symBinAddr: 0x1212C, symSize: 0x84 }
  - { offset: 0x97BE9, size: 0x8, addend: 0x0, symName: __ZNO5folly7dynamic10getDefaultENS_5RangeIPKcEERKS0_, symObjAddr: 0x11D8, symBinAddr: 0x121B0, symSize: 0x84 }
  - { offset: 0x97CE9, size: 0x8, addend: 0x0, symName: __ZNO5folly7dynamic10getDefaultENS_5RangeIPKcEERKS0_, symObjAddr: 0x11D8, symBinAddr: 0x121B0, symSize: 0x84 }
  - { offset: 0x97E97, size: 0x8, addend: 0x0, symName: __ZNO5folly7dynamic10getDefaultENS_5RangeIPKcEEOS0_, symObjAddr: 0x125C, symBinAddr: 0x12234, symSize: 0x78 }
  - { offset: 0x98096, size: 0x8, addend: 0x0, symName: __ZNO5folly7dynamic10getDefaultENS_5RangeIPKcEEOS0_, symObjAddr: 0x125C, symBinAddr: 0x12234, symSize: 0x78 }
  - { offset: 0x9821A, size: 0x8, addend: 0x0, symName: __ZNKR5folly7dynamic11get_ptrImplERKS0_, symObjAddr: 0x12D4, symBinAddr: 0x122AC, symSize: 0x16C }
  - { offset: 0x98225, size: 0x8, addend: 0x0, symName: __ZNKR5folly7dynamic11get_ptrImplERKS0_, symObjAddr: 0x12D4, symBinAddr: 0x122AC, symSize: 0x16C }
  - { offset: 0x98693, size: 0x8, addend: 0x0, symName: __ZNKR5folly7dynamic7get_ptrENS_5RangeIPKcEE, symObjAddr: 0x1440, symBinAddr: 0x12418, symSize: 0x60 }
  - { offset: 0x987DF, size: 0x8, addend: 0x0, symName: __ZNK5folly7dynamic4sizeEv, symObjAddr: 0x14A0, symBinAddr: 0x12478, symSize: 0x68 }
  - { offset: 0x98818, size: 0x8, addend: 0x0, symName: __ZNK5folly7dynamic4sizeEv, symObjAddr: 0x14A0, symBinAddr: 0x12478, symSize: 0x68 }
  - { offset: 0x98856, size: 0x8, addend: 0x0, symName: __ZNK5folly7dynamic4sizeEv, symObjAddr: 0x14A0, symBinAddr: 0x12478, symSize: 0x68 }
  - { offset: 0x98872, size: 0x8, addend: 0x0, symName: __ZNK5folly7dynamic4sizeEv, symObjAddr: 0x14A0, symBinAddr: 0x12478, symSize: 0x68 }
  - { offset: 0x98969, size: 0x8, addend: 0x0, symName: __ZN5folly7dynamic5eraseENSt3__111__wrap_iterIPKS0_EES5_, symObjAddr: 0x1508, symBinAddr: 0x124E0, symSize: 0x30 }
  - { offset: 0x989A2, size: 0x8, addend: 0x0, symName: __ZN5folly7dynamic5eraseENSt3__111__wrap_iterIPKS0_EES5_, symObjAddr: 0x1508, symBinAddr: 0x124E0, symSize: 0x30 }
  - { offset: 0x98A53, size: 0x8, addend: 0x0, symName: __ZNSt3__16vectorIN5folly7dynamicENS_9allocatorIS2_EEE5eraseENS_11__wrap_iterIPKS2_EES9_, symObjAddr: 0x1538, symBinAddr: 0x12510, symSize: 0x8C }
  - { offset: 0x98A5E, size: 0x8, addend: 0x0, symName: __ZNSt3__16vectorIN5folly7dynamicENS_9allocatorIS2_EEE5eraseENS_11__wrap_iterIPKS2_EES9_, symObjAddr: 0x1538, symBinAddr: 0x12510, symSize: 0x8C }
  - { offset: 0x98F79, size: 0x8, addend: 0x0, symName: __ZNK5folly7dynamic4hashEv, symObjAddr: 0x15C4, symBinAddr: 0x1259C, symSize: 0x1A4 }
  - { offset: 0x997D2, size: 0x8, addend: 0x0, symName: __ZN5folly7dynamic10merge_diffERKS0_S2_, symObjAddr: 0x17E0, symBinAddr: 0x127B8, symSize: 0x278 }
  - { offset: 0x9A031, size: 0x8, addend: 0x0, symName: __ZNK5folly7dynamic4findIRKS0_EENSt3__19enable_ifIXaantsr3std14is_convertibleIT_NS_5RangeIPKcEEEE5valuesr3std14is_convertibleIS6_S0_EE5valueENS0_19const_item_iteratorEE4typeEOS6_, symObjAddr: 0x1A58, symBinAddr: 0x12A30, symSize: 0x30 }
  - { offset: 0x9A113, size: 0x8, addend: 0x0, symName: __ZNR5folly7dynamicixIRKS0_EENSt3__19enable_ifIXaantsr3std14is_convertibleIT_NS_5RangeIPKcEEEE5valuesr3std14is_convertibleIS6_S0_EE5valueERS0_E4typeEOS6_, symObjAddr: 0x1A88, symBinAddr: 0x12A60, symSize: 0x70 }
  - { offset: 0x9A127, size: 0x8, addend: 0x0, symName: __ZNR5folly7dynamicixIRKS0_EENSt3__19enable_ifIXaantsr3std14is_convertibleIT_NS_5RangeIPKcEEEE5valuesr3std14is_convertibleIS6_S0_EE5valueERS0_E4typeEOS6_, symObjAddr: 0x1A88, symBinAddr: 0x12A60, symSize: 0x70 }
  - { offset: 0x9A2EB, size: 0x8, addend: 0x0, symName: __ZNKR5folly7dynamic11try_get_ptrERKNS_12json_pointerE, symObjAddr: 0x1AF8, symBinAddr: 0x12AD0, symSize: 0x2D4 }
  - { offset: 0x9A9F8, size: 0x8, addend: 0x0, symName: __ZNKR5folly7dynamic11try_get_ptrERKNS_12json_pointerE, symObjAddr: 0x1AF8, symBinAddr: 0x12AD0, symSize: 0x2D4 }
  - { offset: 0x9B30E, size: 0x8, addend: 0x0, symName: __ZN5folly3f146detail11F14BasicMapINS_7dynamicES3_NS_6detail13DynamicHasherENS4_15DynamicKeyEqualENSt3__19allocatorINS7_4pairIKS3_S3_EEEEE9findLocalIKSD_NS7_12basic_stringIcNS7_11char_traitsIcEENS8_IcEEEEEENS_8OptionalIDTcldtfp_5beginLi0EEEEERT_RKT0_, symObjAddr: 0x84E4, symBinAddr: 0x186B4, symSize: 0xE4 }
  - { offset: 0x9B633, size: 0x8, addend: 0x0, symName: __ZN5folly15expected_detail30expected_detail_ExpectedHelper14ExpectedHelper5then_INS0_15ExpectedStorageINS_5RangeIPKcEENS_14ConversionCodeELNS0_11StorageTypeE1EEENS_6detail18CheckTrailingSpaceEJZNS_5tryToImEENSt3__19enable_ifIXntsr3std7is_sameIS8_T_EE5valueENS_8ExpectedISH_NSF_16remove_referenceIDTclsr6detailE11parseToWraptlS8_Eclsr3stdE7declvalIRSH_EEEEE4type10error_typeEEEE4typeES8_EUlNS_4UnitEE_ES9_S2_EEDTclsrT3_5then_clsrST_7return_IT2_Ecmclclsr3stdE7declvalIT0_EEcldtclsr3stdE7declvalISH_EE5valueEEL_ZNS_L4unitEEEspclsr3stdE7declvalIT1_EEEEOSH_OSV_DpOSW_, symObjAddr: 0x83D8, symBinAddr: 0x185D8, symSize: 0x84 }
  - { offset: 0x9B776, size: 0x8, addend: 0x0, symName: __ZN5folly3f146detail11F14BasicMapINS_7dynamicES3_NS_6detail13DynamicHasherENS4_15DynamicKeyEqualENSt3__19allocatorINS7_4pairIKS3_S3_EEEEE9findLocalIKSD_NS7_12basic_stringIcNS7_11char_traitsIcEENS8_IcEEEEEENS_8OptionalIDTcldtfp_5beginLi0EEEEERT_RKT0_, symObjAddr: 0x84E4, symBinAddr: 0x186B4, symSize: 0xE4 }
  - { offset: 0x9B7E3, size: 0x8, addend: 0x0, symName: __ZNKR5folly7dynamic7get_ptrERKNS_12json_pointerE, symObjAddr: 0x1DCC, symBinAddr: 0x12DA4, symSize: 0xF4 }
  - { offset: 0x9B972, size: 0x8, addend: 0x0, symName: __ZNK5folly8ExpectedINS_7dynamic27json_pointer_resolved_valueIKS1_EENS1_29json_pointer_resolution_errorIS3_EEE12requireValueEv, symObjAddr: 0x4F94, symBinAddr: 0x15BE4, symSize: 0x3C }
  - { offset: 0x9B9F7, size: 0x8, addend: 0x0, symName: __ZN5folly6detail16throw_exception_INS_17BadExpectedAccessINS_7dynamic29json_pointer_resolution_errorIKS3_EEEEJS6_EEEvDpT0_, symObjAddr: 0x4FD0, symBinAddr: 0x38C0C, symSize: 0x50 }
  - { offset: 0x9BA02, size: 0x8, addend: 0x0, symName: __ZNSt16invalid_argumentC1B8ne200100EPKc, symObjAddr: 0x1EC0, symBinAddr: 0x12E98, symSize: 0x24 }
  - { offset: 0x9BAF2, size: 0x8, addend: 0x0, symName: __ZN5folly7dynamic7reserveEm, symObjAddr: 0x1EE4, symBinAddr: 0x12EBC, symSize: 0x54 }
  - { offset: 0x9BC4B, size: 0x8, addend: 0x0, symName: __ZNSt3__16vectorIN5folly7dynamicENS_9allocatorIS2_EEE7reserveEm, symObjAddr: 0x1F38, symBinAddr: 0x12F10, symSize: 0xD8 }
  - { offset: 0x9BC56, size: 0x8, addend: 0x0, symName: __ZNSt3__16vectorIN5folly7dynamicENS_9allocatorIS2_EEE7reserveEm, symObjAddr: 0x1F38, symBinAddr: 0x12F10, symSize: 0xD8 }
  - { offset: 0x9BE77, size: 0x8, addend: 0x0, symName: __ZNSt3__112__hash_tableINS_17__hash_value_typeIN5folly7dynamicES3_EENS_22__unordered_map_hasherIS3_S4_NS2_6detail13DynamicHasherENS6_15DynamicKeyEqualELb1EEENS_21__unordered_map_equalIS3_S4_S8_S7_Lb1EEENS_9allocatorIS4_EEE8__rehashILb1EEEvm, symObjAddr: 0x3AC0, symBinAddr: 0x14710, symSize: 0xDC }
  - { offset: 0x9C058, size: 0x8, addend: 0x0, symName: __ZNSt3__114__split_bufferIN5folly7dynamicERNS_9allocatorIS2_EEED2Ev, symObjAddr: 0x4F48, symBinAddr: 0x15B98, symSize: 0x4C }
  - { offset: 0x9C1E9, size: 0x8, addend: 0x0, symName: __ZNSt3__119__allocate_at_leastB8ne200100INS_9allocatorIN5folly7dynamicEEEEENS_19__allocation_resultINS_16allocator_traitsIT_E7pointerEEERS7_m, symObjAddr: 0x3914, symBinAddr: 0x14564, symSize: 0x44 }
  - { offset: 0x9C215, size: 0x8, addend: 0x0, symName: __ZN5folly9TypeErrorD1Ev, symObjAddr: 0x2010, symBinAddr: 0x12FE8, symSize: 0x4 }
  - { offset: 0x9C237, size: 0x8, addend: 0x0, symName: __ZN5folly9TypeErrorD1Ev, symObjAddr: 0x2010, symBinAddr: 0x12FE8, symSize: 0x4 }
  - { offset: 0x9C26D, size: 0x8, addend: 0x0, symName: __ZN5folly9TypeErrorD0Ev, symObjAddr: 0x2014, symBinAddr: 0x12FEC, symSize: 0x14 }
  - { offset: 0x9C5BE, size: 0x8, addend: 0x0, symName: __ZN5folly15expected_detail30expected_detail_ExpectedHelper14ExpectedHelper12thenOrThrow_INS0_15ExpectedStorageIxNS_14ConversionCodeELNS0_11StorageTypeE0EEERKNS_11identity_fnEZNS_2toIxbEENSt3__19enable_ifIXsr6detail14IsArithToArithIT_T0_EE5valueESE_E4typeERKSF_EUlS5_E_OxNS_15ConversionErrorELb0ELi0EEET2_OSE_OSF_OT1_, symObjAddr: 0x28B4, symBinAddr: 0x136F8, symSize: 0x60 }
  - { offset: 0x9C6E5, size: 0x8, addend: 0x0, symName: __ZN5folly15expected_detail30expected_detail_ExpectedHelper14ExpectedHelper12thenOrThrow_IRNS0_15ExpectedStorageINS_5RangeIPKcEENS_14ConversionCodeELNS0_11StorageTypeE1EEENS_6detail18CheckTrailingSpaceEZNS_2toIxEENSt3__19enable_ifIXntsr3std7is_sameIS8_T_EE5valueESI_E4typeES8_EUlS9_E_NS_8ExpectedINS_4UnitES9_EEvLb0ELi0EEET2_OSI_OT0_OT1_, symObjAddr: 0x2CC4, symBinAddr: 0x13B08, symSize: 0x2C }
  - { offset: 0x9C73B, size: 0x8, addend: 0x0, symName: __ZNK5folly6detail18CheckTrailingSpaceclENS_5RangeIPKcEE, symObjAddr: 0x2CF0, symBinAddr: 0x13B34, symSize: 0x90 }
  - { offset: 0x9C780, size: 0x8, addend: 0x0, symName: __ZNK5folly7dynamic6asImplIxEET_v.cold.1, symObjAddr: 0x86D0, symBinAddr: 0x39000, symSize: 0x24 }
  - { offset: 0x9C84E, size: 0x8, addend: 0x0, symName: __ZN5folly15expected_detail30expected_detail_ExpectedHelper14ExpectedHelper12thenOrThrow_INS0_15ExpectedStorageIxNS_14ConversionCodeELNS0_11StorageTypeE0EEERKNS_11identity_fnEZNS_2toIxdEENSt3__19enable_ifIXsr6detail14IsArithToArithIT_T0_EE5valueESE_E4typeERKSF_EUlS5_E_OxNS_15ConversionErrorELb0ELi0EEET2_OSE_OSF_OT1_, symObjAddr: 0x227C, symBinAddr: 0x13254, symSize: 0x60 }
  - { offset: 0x9CA10, size: 0x8, addend: 0x0, symName: __ZZN5folly2toIxdEENSt3__19enable_ifIXsr6detail14IsArithToArithIT_T0_EE5valueES3_E4typeERKS4_ENKUlNS_14ConversionCodeEE_clES9_, symObjAddr: 0x23A8, symBinAddr: 0x132B4, symSize: 0xB4 }
  - { offset: 0x9CDF9, size: 0x8, addend: 0x0, symName: __ZN5folly15ConversionErrorC1EOS0_, symObjAddr: 0x2460, symBinAddr: 0x13368, symSize: 0x38 }
  - { offset: 0x9CF74, size: 0x8, addend: 0x0, symName: __ZN5folly6detail25EstimateSpaceToReserveAllINSt3__116integer_sequenceImJLm0ELm1ELm2ELm3ELm4EEEEE4callIJA2_cPKcA3_cdPNS2_12basic_stringIcNS2_11char_traitsIcEENS2_9allocatorIcEEEEEEEmDpRKT_, symObjAddr: 0x2564, symBinAddr: 0x13458, symSize: 0xB0 }
  - { offset: 0x9D10C, size: 0x8, addend: 0x0, symName: __ZN5folly6detail18ToAppendStrImplAllINSt3__116integer_sequenceImJLm0ELm1ELm2ELm3ELm4EEEEE4callIJA2_cPKcA3_cdPNS2_12basic_stringIcNS2_11char_traitsIcEENS2_9allocatorIcEEEEEEEvDpRKT_, symObjAddr: 0x2614, symBinAddr: 0x13508, symSize: 0x88 }
  - { offset: 0x9D725, size: 0x8, addend: 0x0, symName: __ZZN5folly2toIxbEENSt3__19enable_ifIXsr6detail14IsArithToArithIT_T0_EE5valueES3_E4typeERKS4_ENKUlNS_14ConversionCodeEE_clES9_, symObjAddr: 0x2914, symBinAddr: 0x13758, symSize: 0xB4 }
  - { offset: 0x9DA53, size: 0x8, addend: 0x0, symName: __ZN5folly6detail25EstimateSpaceToReserveAllINSt3__116integer_sequenceImJLm0ELm1ELm2ELm3ELm4EEEEE4callIJA2_cPKcA3_cbPNS2_12basic_stringIcNS2_11char_traitsIcEENS2_9allocatorIcEEEEEEEmDpRKT_, symObjAddr: 0x2A80, symBinAddr: 0x138C4, symSize: 0xC8 }
  - { offset: 0x9DC4B, size: 0x8, addend: 0x0, symName: __ZN5folly6detail18ToAppendStrImplAllINSt3__116integer_sequenceImJLm0ELm1ELm2ELm3ELm4EEEEE4callIJA2_cPKcA3_cbPNS2_12basic_stringIcNS2_11char_traitsIcEENS2_9allocatorIcEEEEEEEvDpRKT_, symObjAddr: 0x2B48, symBinAddr: 0x1398C, symSize: 0xC4 }
  - { offset: 0x9DF83, size: 0x8, addend: 0x0, symName: __ZNK5folly6detail18CheckTrailingSpaceclENS_5RangeIPKcEE, symObjAddr: 0x2CF0, symBinAddr: 0x13B34, symSize: 0x90 }
  - { offset: 0x9DFC6, size: 0x8, addend: 0x0, symName: __ZNK5folly6detail18CheckTrailingSpaceclENS_5RangeIPKcEE, symObjAddr: 0x2CF0, symBinAddr: 0x13B34, symSize: 0x90 }
  - { offset: 0x9DFE1, size: 0x8, addend: 0x0, symName: __ZNK5folly6detail18CheckTrailingSpaceclENS_5RangeIPKcEE, symObjAddr: 0x2CF0, symBinAddr: 0x13B34, symSize: 0x90 }
  - { offset: 0x9E05F, size: 0x8, addend: 0x0, symName: __ZN5folly15expected_detail30expected_detail_ExpectedHelper14ExpectedHelper12thenOrThrow_IRNS0_15ExpectedStorageINS_5RangeIPKcEENS_14ConversionCodeELNS0_11StorageTypeE1EEENS_6detail18CheckTrailingSpaceEZNS_2toIxEENSt3__19enable_ifIXntsr3std7is_sameIS8_T_EE5valueESI_E4typeES8_EUlS9_E_NS_8ExpectedINS_4UnitES9_EEvLb0ELi0EEET2_OSI_OT0_OT1_.cold.1, symObjAddr: 0x86F4, symBinAddr: 0x39024, symSize: 0x28 }
  - { offset: 0x9E0F5, size: 0x8, addend: 0x0, symName: __ZZN5folly2toIxEENSt3__19enable_ifIXntsr3std7is_sameINS_5RangeIPKcEET_EE5valueES7_E4typeES6_ENKUlNS_14ConversionCodeEE_clESA_, symObjAddr: 0x2D80, symBinAddr: 0x13BC4, symSize: 0x48 }
  - { offset: 0x9E2A9, size: 0x8, addend: 0x0, symName: __ZZN5folly2toIxEENSt3__19enable_ifIXntsr3std7is_sameINS_5RangeIPKcEET_EE5valueES7_E4typeES6_ENKUlNS_14ConversionCodeEE0_clESA_, symObjAddr: 0x2E68, symBinAddr: 0x13C0C, symSize: 0x50 }
  - { offset: 0x9E39E, size: 0x8, addend: 0x0, symName: __ZNK5folly8ExpectedINS_5RangeIPKcEENS_14ConversionCodeEE12requireValueEv, symObjAddr: 0x2EB8, symBinAddr: 0x13C5C, symSize: 0x30 }
  - { offset: 0x9E427, size: 0x8, addend: 0x0, symName: __ZN5folly6detail16throw_exception_INS_9TypeErrorEJPKcNS_7dynamic4TypeEEEEvDpT0_, symObjAddr: 0x2EE8, symBinAddr: 0x38B70, symSize: 0x68 }
  - { offset: 0x9E62D, size: 0x8, addend: 0x0, symName: __ZNK5folly7dynamic6asImplIdEET_v, symObjAddr: 0x304C, symBinAddr: 0x13CB0, symSize: 0x14C }
  - { offset: 0x9E644, size: 0x8, addend: 0x0, symName: __ZN5folly9TypeErrorC1EOS0_, symObjAddr: 0x2F84, symBinAddr: 0x13C8C, symSize: 0x24 }
  - { offset: 0x9EA23, size: 0x8, addend: 0x0, symName: __ZN5folly15expected_detail30expected_detail_ExpectedHelper14ExpectedHelper12thenOrThrow_INS0_15ExpectedStorageIdNS_14ConversionCodeELNS0_11StorageTypeE0EEERKNS_11identity_fnEZNS_2toIdbEENSt3__19enable_ifIXsr6detail14IsArithToArithIT_T0_EE5valueESE_E4typeERKSF_EUlS5_E_OdNS_15ConversionErrorELb0ELi0EEET2_OSE_OSF_OT1_, symObjAddr: 0x365C, symBinAddr: 0x142C0, symSize: 0x60 }
  - { offset: 0x9EB45, size: 0x8, addend: 0x0, symName: __ZN5folly15expected_detail30expected_detail_ExpectedHelper14ExpectedHelper12thenOrThrow_IRNS0_15ExpectedStorageINS_5RangeIPKcEENS_14ConversionCodeELNS0_11StorageTypeE1EEENS_6detail18CheckTrailingSpaceEZNS_2toIdEENSt3__19enable_ifIXntsr3std7is_sameIS8_T_EE5valueESI_E4typeES8_EUlS9_E_NS_8ExpectedINS_4UnitES9_EEvLb0ELi0EEET2_OSI_OT0_OT1_, symObjAddr: 0x3770, symBinAddr: 0x143D4, symSize: 0x2C }
  - { offset: 0x9EB9B, size: 0x8, addend: 0x0, symName: __ZZN5folly2toIdEENSt3__19enable_ifIXntsr3std7is_sameINS_5RangeIPKcEET_EE5valueES7_E4typeES6_ENKUlNS_14ConversionCodeEE_clESA_, symObjAddr: 0x379C, symBinAddr: 0x14400, symSize: 0x48 }
  - { offset: 0x9EBE0, size: 0x8, addend: 0x0, symName: __ZNK5folly7dynamic6asImplIdEET_v.cold.1, symObjAddr: 0x871C, symBinAddr: 0x3904C, symSize: 0x24 }
  - { offset: 0x9ECAE, size: 0x8, addend: 0x0, symName: __ZN5folly15expected_detail30expected_detail_ExpectedHelper14ExpectedHelper12thenOrThrow_INS0_15ExpectedStorageIdNS_14ConversionCodeELNS0_11StorageTypeE0EEERKNS_11identity_fnEZNS_2toIdxEENSt3__19enable_ifIXsr6detail14IsArithToArithIT_T0_EE5valueESE_E4typeERKSF_EUlS5_E_OdNS_15ConversionErrorELb0ELi0EEET2_OSE_OSF_OT1_, symObjAddr: 0x32BC, symBinAddr: 0x13F20, symSize: 0x60 }
  - { offset: 0x9EDF5, size: 0x8, addend: 0x0, symName: __ZZN5folly2toIdxEENSt3__19enable_ifIXsr6detail14IsArithToArithIT_T0_EE5valueES3_E4typeERKS4_ENKUlNS_14ConversionCodeEE_clES9_, symObjAddr: 0x331C, symBinAddr: 0x13F80, symSize: 0xB4 }
  - { offset: 0x9F123, size: 0x8, addend: 0x0, symName: __ZN5folly6detail25EstimateSpaceToReserveAllINSt3__116integer_sequenceImJLm0ELm1ELm2ELm3ELm4EEEEE4callIJA2_cPKcA3_cxPNS2_12basic_stringIcNS2_11char_traitsIcEENS2_9allocatorIcEEEEEEEmDpRKT_, symObjAddr: 0x3488, symBinAddr: 0x140EC, symSize: 0xD4 }
  - { offset: 0x9F30D, size: 0x8, addend: 0x0, symName: __ZN5folly6detail18ToAppendStrImplAllINSt3__116integer_sequenceImJLm0ELm1ELm2ELm3ELm4EEEEE4callIJA2_cPKcA3_cxPNS2_12basic_stringIcNS2_11char_traitsIcEENS2_9allocatorIcEEEEEEEvDpRKT_, symObjAddr: 0x355C, symBinAddr: 0x141C0, symSize: 0x7C }
  - { offset: 0x9F59A, size: 0x8, addend: 0x0, symName: __ZZN5folly2toIdbEENSt3__19enable_ifIXsr6detail14IsArithToArithIT_T0_EE5valueES3_E4typeERKS4_ENKUlNS_14ConversionCodeEE_clES9_, symObjAddr: 0x36BC, symBinAddr: 0x14320, symSize: 0xB4 }
  - { offset: 0x9F8C8, size: 0x8, addend: 0x0, symName: __ZN5folly15expected_detail30expected_detail_ExpectedHelper14ExpectedHelper12thenOrThrow_IRNS0_15ExpectedStorageINS_5RangeIPKcEENS_14ConversionCodeELNS0_11StorageTypeE1EEENS_6detail18CheckTrailingSpaceEZNS_2toIdEENSt3__19enable_ifIXntsr3std7is_sameIS8_T_EE5valueESI_E4typeES8_EUlS9_E_NS_8ExpectedINS_4UnitES9_EEvLb0ELi0EEET2_OSI_OT0_OT1_.cold.1, symObjAddr: 0x8740, symBinAddr: 0x39070, symSize: 0x28 }
  - { offset: 0x9F900, size: 0x8, addend: 0x0, symName: __ZZN5folly2toIdEENSt3__19enable_ifIXntsr3std7is_sameINS_5RangeIPKcEET_EE5valueES7_E4typeES6_ENKUlNS_14ConversionCodeEE_clESA_, symObjAddr: 0x379C, symBinAddr: 0x14400, symSize: 0x48 }
  - { offset: 0x9F9CF, size: 0x8, addend: 0x0, symName: __ZZN5folly2toIdEENSt3__19enable_ifIXntsr3std7is_sameINS_5RangeIPKcEET_EE5valueES7_E4typeES6_ENKUlNS_14ConversionCodeEE0_clESA_, symObjAddr: 0x37E4, symBinAddr: 0x14448, symSize: 0x50 }
  - { offset: 0x9FC5D, size: 0x8, addend: 0x0, symName: __ZNSt3__16vectorIN5folly7dynamicENS_9allocatorIS2_EEE11__vallocateB8ne200100Em, symObjAddr: 0x38B8, symBinAddr: 0x1451C, symSize: 0x48 }
  - { offset: 0x9FFCB, size: 0x8, addend: 0x0, symName: __ZNSt3__112__hash_tableINS_17__hash_value_typeIN5folly7dynamicES3_EENS_22__unordered_map_hasherIS3_S4_NS2_6detail13DynamicHasherENS6_15DynamicKeyEqualELb1EEENS_21__unordered_map_equalIS3_S4_S8_S7_Lb1EEENS_9allocatorIS4_EEE25__emplace_unique_key_argsIS3_JRKNS_4pairIKS3_S3_EEEEENSG_INS_15__hash_iteratorIPNS_11__hash_nodeIS4_PvEEEEbEERKT_DpOT0_, symObjAddr: 0x3CEC, symBinAddr: 0x1493C, symSize: 0x25C }
  - { offset: 0xA04D1, size: 0x8, addend: 0x0, symName: __ZNSt3__112__hash_tableINS_17__hash_value_typeIN5folly7dynamicES3_EENS_22__unordered_map_hasherIS3_S4_NS2_6detail13DynamicHasherENS6_15DynamicKeyEqualELb1EEENS_21__unordered_map_equalIS3_S4_S8_S7_Lb1EEENS_9allocatorIS4_EEE11__do_rehashILb1EEEvm, symObjAddr: 0x3B9C, symBinAddr: 0x147EC, symSize: 0x150 }
  - { offset: 0xA08D1, size: 0x8, addend: 0x0, symName: __ZNSt3__112__hash_tableINS_17__hash_value_typeIN5folly7dynamicES3_EENS_22__unordered_map_hasherIS3_S4_NS2_6detail13DynamicHasherENS6_15DynamicKeyEqualELb1EEENS_21__unordered_map_equalIS3_S4_S8_S7_Lb1EEENS_9allocatorIS4_EEE25__emplace_unique_key_argsIS3_JRKNS_4pairIKS3_S3_EEEEENSG_INS_15__hash_iteratorIPNS_11__hash_nodeIS4_PvEEEEbEERKT_DpOT0_, symObjAddr: 0x3CEC, symBinAddr: 0x1493C, symSize: 0x25C }
  - { offset: 0xA0BCD, size: 0x8, addend: 0x0, symName: __ZNSt3__112__hash_tableINS_17__hash_value_typeIN5folly7dynamicES3_EENS_22__unordered_map_hasherIS3_S4_NS2_6detail13DynamicHasherENS6_15DynamicKeyEqualELb1EEENS_21__unordered_map_equalIS3_S4_S8_S7_Lb1EEENS_9allocatorIS4_EEE21__construct_node_hashIRKNS_4pairIKS3_S3_EEJEEENS_10unique_ptrINS_11__hash_nodeIS4_PvEENS_22__hash_node_destructorINSC_ISO_EEEEEEmOT_DpOT0_, symObjAddr: 0x3F48, symBinAddr: 0x14B98, symSize: 0x84 }
  - { offset: 0xA0EFF, size: 0x8, addend: 0x0, symName: __ZNSt3__122__hash_node_destructorINS_9allocatorINS_11__hash_nodeINS_17__hash_value_typeIN5folly7dynamicES5_EEPvEEEEEclB8ne200100EPS8_, symObjAddr: 0x4014, symBinAddr: 0x14C64, symSize: 0x4C }
  - { offset: 0xA1296, size: 0x8, addend: 0x0, symName: __ZNSt3__14pairIKN5folly7dynamicES2_EC2B8ne200100ERKS4_, symObjAddr: 0x3FCC, symBinAddr: 0x14C1C, symSize: 0x48 }
  - { offset: 0xA14A8, size: 0x8, addend: 0x0, symName: __ZNSt3__112__hash_tableINS_17__hash_value_typeIN5folly7dynamicES3_EENS_22__unordered_map_hasherIS3_S4_NS2_6detail13DynamicHasherENS6_15DynamicKeyEqualELb1EEENS_21__unordered_map_equalIS3_S4_S8_S7_Lb1EEENS_9allocatorIS4_EEE17__deallocate_nodeEPNS_16__hash_node_baseIPNS_11__hash_nodeIS4_PvEEEE, symObjAddr: 0x4098, symBinAddr: 0x14CE8, symSize: 0x44 }
  - { offset: 0xA18BE, size: 0x8, addend: 0x0, symName: __ZNSt3__112__hash_tableINS_17__hash_value_typeIN5folly7dynamicES3_EENS_22__unordered_map_hasherIS3_S4_NS2_6detail13DynamicHasherENS6_15DynamicKeyEqualELb1EEENS_21__unordered_map_equalIS3_S4_S8_S7_Lb1EEENS_9allocatorIS4_EEE19__node_insert_multiEPNS_11__hash_nodeIS4_PvEE, symObjAddr: 0x44C8, symBinAddr: 0x15118, symSize: 0x50 }
  - { offset: 0xA1998, size: 0x8, addend: 0x0, symName: __ZNSt3__112__hash_tableINS_17__hash_value_typeIN5folly7dynamicES3_EENS_22__unordered_map_hasherIS3_S4_NS2_6detail13DynamicHasherENS6_15DynamicKeyEqualELb1EEENS_21__unordered_map_equalIS3_S4_S8_S7_Lb1EEENS_9allocatorIS4_EEE15__emplace_multiIJRKNS_4pairIKS3_S3_EEEEENS_15__hash_iteratorIPNS_11__hash_nodeIS4_PvEEEEDpOT_, symObjAddr: 0x49F0, symBinAddr: 0x15640, symSize: 0x5C }
  - { offset: 0xA1AF2, size: 0x8, addend: 0x0, symName: __ZNSt3__112__hash_tableINS_17__hash_value_typeIN5folly7dynamicES3_EENS_22__unordered_map_hasherIS3_S4_NS2_6detail13DynamicHasherENS6_15DynamicKeyEqualELb1EEENS_21__unordered_map_equalIS3_S4_S8_S7_Lb1EEENS_9allocatorIS4_EEE27__node_insert_multi_prepareEmRS4_, symObjAddr: 0x4518, symBinAddr: 0x15168, symSize: 0x168 }
  - { offset: 0xA1D64, size: 0x8, addend: 0x0, symName: __ZNSt3__112__hash_tableINS_17__hash_value_typeIN5folly7dynamicES3_EENS_22__unordered_map_hasherIS3_S4_NS2_6detail13DynamicHasherENS6_15DynamicKeyEqualELb1EEENS_21__unordered_map_equalIS3_S4_S8_S7_Lb1EEENS_9allocatorIS4_EEE27__node_insert_multi_performEPNS_11__hash_nodeIS4_PvEEPNS_16__hash_node_baseISI_EE, symObjAddr: 0x4680, symBinAddr: 0x152D0, symSize: 0xE8 }
  - { offset: 0xA1DCB, size: 0x8, addend: 0x0, symName: __ZNSt3__112__hash_tableINS_17__hash_value_typeIN5folly7dynamicES3_EENS_22__unordered_map_hasherIS3_S4_NS2_6detail13DynamicHasherENS6_15DynamicKeyEqualELb1EEENS_21__unordered_map_equalIS3_S4_S8_S7_Lb1EEENS_9allocatorIS4_EEE27__node_insert_multi_performEPNS_11__hash_nodeIS4_PvEEPNS_16__hash_node_baseISI_EE, symObjAddr: 0x4680, symBinAddr: 0x152D0, symSize: 0xE8 }
  - { offset: 0xA1DE7, size: 0x8, addend: 0x0, symName: __ZNSt3__112__hash_tableINS_17__hash_value_typeIN5folly7dynamicES3_EENS_22__unordered_map_hasherIS3_S4_NS2_6detail13DynamicHasherENS6_15DynamicKeyEqualELb1EEENS_21__unordered_map_equalIS3_S4_S8_S7_Lb1EEENS_9allocatorIS4_EEE27__node_insert_multi_performEPNS_11__hash_nodeIS4_PvEEPNS_16__hash_node_baseISI_EE, symObjAddr: 0x4680, symBinAddr: 0x152D0, symSize: 0xE8 }
  - { offset: 0xA1F46, size: 0x8, addend: 0x0, symName: __ZNSt3__112__hash_tableINS_17__hash_value_typeIN5folly7dynamicES3_EENS_22__unordered_map_hasherIS3_S4_NS2_6detail13DynamicHasherENS6_15DynamicKeyEqualELb1EEENS_21__unordered_map_equalIS3_S4_S8_S7_Lb1EEENS_9allocatorIS4_EEE8__rehashILb0EEEvm, symObjAddr: 0x4768, symBinAddr: 0x153B8, symSize: 0xDC }
  - { offset: 0xA203D, size: 0x8, addend: 0x0, symName: __ZNSt3__112__hash_tableINS_17__hash_value_typeIN5folly7dynamicES3_EENS_22__unordered_map_hasherIS3_S4_NS2_6detail13DynamicHasherENS6_15DynamicKeyEqualELb1EEENS_21__unordered_map_equalIS3_S4_S8_S7_Lb1EEENS_9allocatorIS4_EEE11__do_rehashILb0EEEvm, symObjAddr: 0x4844, symBinAddr: 0x15494, symSize: 0x1AC }
  - { offset: 0xA24B2, size: 0x8, addend: 0x0, symName: __ZNSt3__112__hash_tableINS_17__hash_value_typeIN5folly7dynamicES3_EENS_22__unordered_map_hasherIS3_S4_NS2_6detail13DynamicHasherENS6_15DynamicKeyEqualELb1EEENS_21__unordered_map_equalIS3_S4_S8_S7_Lb1EEENS_9allocatorIS4_EEE15__emplace_multiIJRKNS_4pairIKS3_S3_EEEEENS_15__hash_iteratorIPNS_11__hash_nodeIS4_PvEEEEDpOT_, symObjAddr: 0x49F0, symBinAddr: 0x15640, symSize: 0x5C }
  - { offset: 0xA24DD, size: 0x8, addend: 0x0, symName: __ZNSt3__112__hash_tableINS_17__hash_value_typeIN5folly7dynamicES3_EENS_22__unordered_map_hasherIS3_S4_NS2_6detail13DynamicHasherENS6_15DynamicKeyEqualELb1EEENS_21__unordered_map_equalIS3_S4_S8_S7_Lb1EEENS_9allocatorIS4_EEE16__construct_nodeIJRKNS_4pairIKS3_S3_EEEEENS_10unique_ptrINS_11__hash_nodeIS4_PvEENS_22__hash_node_destructorINSC_ISO_EEEEEEDpOT_, symObjAddr: 0x4A4C, symBinAddr: 0x1569C, symSize: 0x8C }
  - { offset: 0xA283A, size: 0x8, addend: 0x0, symName: __ZNSt3__112__hash_tableINS_17__hash_value_typeIN5folly7dynamicES3_EENS_22__unordered_map_hasherIS3_S4_NS2_6detail13DynamicHasherENS6_15DynamicKeyEqualELb1EEENS_21__unordered_map_equalIS3_S4_S8_S7_Lb1EEENS_9allocatorIS4_EEE5clearEv, symObjAddr: 0x4B78, symBinAddr: 0x157C8, symSize: 0x54 }
  - { offset: 0xA2AB5, size: 0x8, addend: 0x0, symName: __ZNK5folly8ExpectedINS_7dynamic27json_pointer_resolved_valueIKS1_EENS1_29json_pointer_resolution_errorIS3_EEE12requireValueEv.cold.1, symObjAddr: 0x8768, symBinAddr: 0x39098, symSize: 0x1C }
  - { offset: 0xA2BB2, size: 0x8, addend: 0x0, symName: __ZN5folly17BadExpectedAccessINS_7dynamic29json_pointer_resolution_errorIKS1_EEED1Ev, symObjAddr: 0x506C, symBinAddr: 0x15C20, symSize: 0x4 }
  - { offset: 0xA2BD4, size: 0x8, addend: 0x0, symName: __ZN5folly17BadExpectedAccessINS_7dynamic29json_pointer_resolution_errorIKS1_EEED1Ev, symObjAddr: 0x506C, symBinAddr: 0x15C20, symSize: 0x4 }
  - { offset: 0xA2BEF, size: 0x8, addend: 0x0, symName: __ZN5folly17BadExpectedAccessINS_7dynamic29json_pointer_resolution_errorIKS1_EEED1Ev, symObjAddr: 0x506C, symBinAddr: 0x15C20, symSize: 0x4 }
  - { offset: 0xA2C0A, size: 0x8, addend: 0x0, symName: __ZN5folly17BadExpectedAccessINS_7dynamic29json_pointer_resolution_errorIKS1_EEED0Ev, symObjAddr: 0x5070, symBinAddr: 0x15C24, symSize: 0x14 }
  - { offset: 0xA2EF3, size: 0x8, addend: 0x0, symName: __ZNKSt3__112__hash_tableINS_17__hash_value_typeIN5folly5RangeIPKcEENS2_7dynamicEEENS_22__unordered_map_hasherIS6_S8_NS2_6detail13DynamicHasherENS2_3f146detail11F14BasicMapIS7_S7_SB_NSA_15DynamicKeyEqualENS_9allocatorINS_4pairIKS7_S7_EEEEE14BottomKeyEqualIS6_EELb1EEENS_21__unordered_map_equalIS6_S8_SN_SB_Lb1EEENSG_IS8_EEE6bucketB8ne200100IS6_EEmRKT_, symObjAddr: 0x51D8, symBinAddr: 0x15D1C, symSize: 0x68 }
  - { offset: 0xA3063, size: 0x8, addend: 0x0, symName: __ZNK5folly6detail15DynamicKeyEqualclINS_5RangeIPKcEEEENSt3__19enable_ifIXsr3std14is_convertibleIT_S6_EE5valueEbE4typeERKS9_RKNS_7dynamicE, symObjAddr: 0x5168, symBinAddr: 0x38CA8, symSize: 0x70 }
  - { offset: 0xA30AA, size: 0x8, addend: 0x0, symName: __ZNK5folly6detail15DynamicKeyEqualclINS_5RangeIPKcEEEENSt3__19enable_ifIXsr3std14is_convertibleIT_S6_EE5valueEbE4typeERKS9_RKNS_7dynamicE, symObjAddr: 0x5168, symBinAddr: 0x38CA8, symSize: 0x70 }
  - { offset: 0xA36F5, size: 0x8, addend: 0x0, symName: __ZNSt3__112__hash_tableINS_17__hash_value_typeIN5folly7dynamicES3_EENS_22__unordered_map_hasherIS3_S4_NS2_6detail13DynamicHasherENS6_15DynamicKeyEqualELb1EEENS_21__unordered_map_equalIS3_S4_S8_S7_Lb1EEENS_9allocatorIS4_EEE4findIS3_EENS_15__hash_iteratorIPNS_11__hash_nodeIS4_PvEEEERKT_, symObjAddr: 0x537C, symBinAddr: 0x15DDC, symSize: 0xF8 }
  - { offset: 0xA392E, size: 0x8, addend: 0x0, symName: __ZNSt3__112__hash_tableINS_17__hash_value_typeIN5folly7dynamicES3_EENS_22__unordered_map_hasherIS3_S4_NS2_6detail13DynamicHasherENS6_15DynamicKeyEqualELb1EEENS_21__unordered_map_equalIS3_S4_S8_S7_Lb1EEENS_9allocatorIS4_EEE25__emplace_unique_key_argsIS3_JRKS3_DnEEENS_4pairINS_15__hash_iteratorIPNS_11__hash_nodeIS4_PvEEEEbEERKT_DpOT0_, symObjAddr: 0x5474, symBinAddr: 0x15ED4, symSize: 0x264 }
  - { offset: 0xA3E4F, size: 0x8, addend: 0x0, symName: __ZNSt3__112__hash_tableINS_17__hash_value_typeIN5folly7dynamicES3_EENS_22__unordered_map_hasherIS3_S4_NS2_6detail13DynamicHasherENS6_15DynamicKeyEqualELb1EEENS_21__unordered_map_equalIS3_S4_S8_S7_Lb1EEENS_9allocatorIS4_EEE21__construct_node_hashIRKS3_JDnEEENS_10unique_ptrINS_11__hash_nodeIS4_PvEENS_22__hash_node_destructorINSC_ISL_EEEEEEmOT_DpOT0_, symObjAddr: 0x56D8, symBinAddr: 0x16138, symSize: 0x8C }
  - { offset: 0xA4791, size: 0x8, addend: 0x0, symName: __ZNK5folly17BaseFormatterImplINS_9FormatterILb0EJRKNSt3__112basic_stringIcNS2_11char_traitsIcEENS2_9allocatorIcEEEEPKcEEELb0ENS2_16integer_sequenceImJLm0ELm1EEEEJSA_SC_EE3strEv, symObjAddr: 0x5AA4, symBinAddr: 0x161C4, symSize: 0xA8 }
  - { offset: 0xA48ED, size: 0x8, addend: 0x0, symName: __ZN5folly6detail17BaseFormatterBase13recordUsedArgERKS1_m, symObjAddr: 0x5B4C, symBinAddr: 0x1626C, symSize: 0x4 }
  - { offset: 0xA495F, size: 0x8, addend: 0x0, symName: __ZN5folly9FormatterILb0EJRKNSt3__112basic_stringIcNS1_11char_traitsIcEENS1_9allocatorIcEEEEPKcEE11doFormatArgILm0ENS_6detail27BaseFormatterAppendToStringIS7_EEEEvRKNSE_17BaseFormatterBaseERNS_9FormatArgERT0_, symObjAddr: 0x5B50, symBinAddr: 0x16270, symSize: 0x44 }
  - { offset: 0xA4ABE, size: 0x8, addend: 0x0, symName: __ZNK5folly11FormatValueINSt3__112basic_stringIcNS1_11char_traitsIcEENS1_9allocatorIcEEEEvE6formatINS_6detail27BaseFormatterAppendToStringIS7_EEEEvRNS_9FormatArgERT_, symObjAddr: 0x5FD4, symBinAddr: 0x166F4, symSize: 0xE0 }
  - { offset: 0xA4C74, size: 0x8, addend: 0x0, symName: __ZN5folly12format_value12formatStringINS_6detail27BaseFormatterAppendToStringINSt3__112basic_stringIcNS4_11char_traitsIcEENS4_9allocatorIcEEEEEEEEvNS_5RangeIPKcEERNS_9FormatArgERT_, symObjAddr: 0x60B4, symBinAddr: 0x167D4, symSize: 0x1B8 }
  - { offset: 0xA4CD8, size: 0x8, addend: 0x0, symName: __ZN5folly9FormatterILb0EJRKNSt3__112basic_stringIcNS1_11char_traitsIcEENS1_9allocatorIcEEEEPKcEE11doFormatArgILm1ENS_6detail27BaseFormatterAppendToStringIS7_EEEEvRKNSE_17BaseFormatterBaseERNS_9FormatArgERT0_, symObjAddr: 0x5B94, symBinAddr: 0x162B4, symSize: 0x28 }
  - { offset: 0xA4D8E, size: 0x8, addend: 0x0, symName: __ZNK5folly11FormatValueIPKcvE6formatINS_6detail27BaseFormatterAppendToStringINSt3__112basic_stringIcNS7_11char_traitsIcEENS7_9allocatorIcEEEEEEEEvRNS_9FormatArgERT_, symObjAddr: 0x72B4, symBinAddr: 0x17690, symSize: 0xB4 }
  - { offset: 0xA5600, size: 0x8, addend: 0x0, symName: __ZN5folly9FormatArgC2ENS_5RangeIPKcEE, symObjAddr: 0x74AC, symBinAddr: 0x177A8, symSize: 0x5C }
  - { offset: 0xA56B6, size: 0x8, addend: 0x0, symName: __ZN5folly15expected_detail30expected_detail_ExpectedHelper14ExpectedHelper5then_INS0_15ExpectedStorageINS_5RangeIPKcEENS_14ConversionCodeELNS0_11StorageTypeE1EEENS_6detail18CheckTrailingSpaceEJZNS_5tryToIiEENSt3__19enable_ifIXntsr3std7is_sameIS8_T_EE5valueENS_8ExpectedISH_NSF_16remove_referenceIDTclsr6detailE11parseToWraptlS8_Eclsr3stdE7declvalIRSH_EEEEE4type10error_typeEEEE4typeES8_EUlNS_4UnitEE_ES9_S2_EEDTclsrT3_5then_clsrST_7return_IT2_Ecmclclsr3stdE7declvalIT0_EEcldtclsr3stdE7declvalISH_EE5valueEEL_ZNS_L4unitEEEspclsr3stdE7declvalIT1_EEEEOSH_OSV_DpOSW_, symObjAddr: 0x6890, symBinAddr: 0x16E30, symSize: 0x80 }
  - { offset: 0xA57F9, size: 0x8, addend: 0x0, symName: __ZNK5folly11FormatValueIcvE8doFormatINS_6detail27BaseFormatterAppendToStringINSt3__112basic_stringIcNS5_11char_traitsIcEENS5_9allocatorIcEEEEEEEEvRNS_9FormatArgERT_, symObjAddr: 0x6CB8, symBinAddr: 0x17194, symSize: 0x444 }
  - { offset: 0xA5804, size: 0x8, addend: 0x0, symName: __ZNK5folly9FormatArg5errorIJRA34_KcRmEEEvDpOT_, symObjAddr: 0x7520, symBinAddr: 0x17804, symSize: 0x20 }
  - { offset: 0xA587B, size: 0x8, addend: 0x0, symName: __ZN5folly6detail16throw_exception_INS_12BadFormatArgEJNS2_11ErrorStrTagENS_5RangeIPKcEES6_mEEEvDpT0_, symObjAddr: 0x7540, symBinAddr: 0x38ED4, symSize: 0x50 }
  - { offset: 0xA5980, size: 0x8, addend: 0x0, symName: __ZNK5folly17BaseFormatterImplINS_9FormatterILb0EJRKNSt3__112basic_stringIcNS2_11char_traitsIcEENS2_9allocatorIcEEEEPKcSC_EEELb0ENS2_16integer_sequenceImJLm0ELm1ELm2EEEEJSA_SC_SC_EE3strEv, symObjAddr: 0x78D8, symBinAddr: 0x17B24, symSize: 0xA8 }
  - { offset: 0xA5A2A, size: 0x8, addend: 0x0, symName: __ZNK5folly9FormatArg5errorIJRA34_KcRmEEEvDpOT_, symObjAddr: 0x7520, symBinAddr: 0x17804, symSize: 0x20 }
  - { offset: 0xA5A47, size: 0x8, addend: 0x0, symName: __ZNK5folly9FormatArg5errorIJRA14_KcEEEvDpOT_, symObjAddr: 0x6994, symBinAddr: 0x16F04, symSize: 0x18 }
  - { offset: 0xA5AA4, size: 0x8, addend: 0x0, symName: __ZN5folly6detail16throw_exception_INS_12BadFormatArgEJNS2_11ErrorStrTagENS_5RangeIPKcEES6_EEEvDpT0_, symObjAddr: 0x69AC, symBinAddr: 0x38DF4, symSize: 0x4C }
  - { offset: 0xA5AC2, size: 0x8, addend: 0x0, symName: __ZN5folly6detail21baseFormatterCallImplILb0ELb0ENS0_27BaseFormatterAppendToStringINSt3__112basic_stringIcNS3_11char_traitsIcEENS3_9allocatorIcEEEEEEEEvRT1_mPKiPFNS3_17integral_constantIbXT0_EEERKNS0_17BaseFormatterBaseEmEPKPFvSJ_RNS_9FormatArgESC_ESJ_.cold.1, symObjAddr: 0x8784, symBinAddr: 0x390B4, symSize: 0x14 }
  - { offset: 0xA5B0E, size: 0x8, addend: 0x0, symName: __ZN5folly6detail21baseFormatterCallImplILb0ELb0ENS0_27BaseFormatterAppendToStringINSt3__112basic_stringIcNS3_11char_traitsIcEENS3_9allocatorIcEEEEEEEEvRT1_mPKiPFNS3_17integral_constantIbXT0_EEERKNS0_17BaseFormatterBaseEmEPKPFvSJ_RNS_9FormatArgESC_ESJ_.cold.4, symObjAddr: 0x87C0, symBinAddr: 0x390F0, symSize: 0x14 }
  - { offset: 0xA5B6A, size: 0x8, addend: 0x0, symName: __ZN5folly6detail21baseFormatterCallImplILb0ELb0ENS0_27BaseFormatterAppendToStringINSt3__112basic_stringIcNS3_11char_traitsIcEENS3_9allocatorIcEEEEEEEEvRT1_mPKiPFNS3_17integral_constantIbXT0_EEERKNS0_17BaseFormatterBaseEmEPKPFvSJ_RNS_9FormatArgESC_ESJ_.cold.3, symObjAddr: 0x87AC, symBinAddr: 0x390DC, symSize: 0x14 }
  - { offset: 0xA5BA1, size: 0x8, addend: 0x0, symName: __ZN5folly6detail21baseFormatterCallImplILb0ELb0ENS0_27BaseFormatterAppendToStringINSt3__112basic_stringIcNS3_11char_traitsIcEENS3_9allocatorIcEEEEEEEEvRT1_mPKiPFNS3_17integral_constantIbXT0_EEERKNS0_17BaseFormatterBaseEmEPKPFvSJ_RNS_9FormatArgESC_ESJ_.cold.2, symObjAddr: 0x8798, symBinAddr: 0x390C8, symSize: 0x14 }
  - { offset: 0xA5D1B, size: 0x8, addend: 0x0, symName: __ZN5folly9FormatArg11splitIntKeyEv, symObjAddr: 0x626C, symBinAddr: 0x1698C, symSize: 0x16C }
  - { offset: 0xA60B0, size: 0x8, addend: 0x0, symName: __ZNK5folly11FormatValueINSt3__112basic_stringIcNS1_11char_traitsIcEENS1_9allocatorIcEEEEvE6formatINS_6detail27BaseFormatterAppendToStringIS7_EEEEvRNS_9FormatArgERT_.cold.1, symObjAddr: 0x87E8, symBinAddr: 0x39104, symSize: 0x14 }
  - { offset: 0xA60FE, size: 0x8, addend: 0x0, symName: __ZNK5folly9FormatArg5errorIJRA20_KcRcRA2_S2_EEEvDpOT_, symObjAddr: 0x63D8, symBinAddr: 0x16AF8, symSize: 0x24 }
  - { offset: 0xA618B, size: 0x8, addend: 0x0, symName: __ZN5folly6detail16throw_exception_INS_12BadFormatArgEJNS2_11ErrorStrTagENS_5RangeIPKcEES6_cS6_EEEvDpT0_, symObjAddr: 0x63FC, symBinAddr: 0x38D18, symSize: 0x5C }
  - { offset: 0xA6234, size: 0x8, addend: 0x0, symName: __ZN5folly12format_value12formatStringINS_6detail27BaseFormatterAppendToStringINSt3__112basic_stringIcNS4_11char_traitsIcEENS4_9allocatorIcEEEEEEEEvNS_5RangeIPKcEERNS_9FormatArgERT_.cold.2, symObjAddr: 0x8810, symBinAddr: 0x3912C, symSize: 0x14 }
  - { offset: 0xA626C, size: 0x8, addend: 0x0, symName: __ZN5folly12format_value12formatStringINS_6detail27BaseFormatterAppendToStringINSt3__112basic_stringIcNS4_11char_traitsIcEENS4_9allocatorIcEEEEEEEEvNS_5RangeIPKcEERNS_9FormatArgERT_.cold.1, symObjAddr: 0x87FC, symBinAddr: 0x39118, symSize: 0x14 }
  - { offset: 0xA6397, size: 0x8, addend: 0x0, symName: __ZN5folly12BadFormatArgC2IJPKccS3_EEENS0_11ErrorStrTagENS_5RangeIS3_EEDpRKT_, symObjAddr: 0x64C8, symBinAddr: 0x16B58, symSize: 0xB8 }
  - { offset: 0xA66B9, size: 0x8, addend: 0x0, symName: __ZN5folly12BadFormatArgC1EOS0_, symObjAddr: 0x6490, symBinAddr: 0x16B20, symSize: 0x24 }
  - { offset: 0xA6736, size: 0x8, addend: 0x0, symName: __ZN5folly12BadFormatArgD1Ev, symObjAddr: 0x648C, symBinAddr: 0x16B1C, symSize: 0x4 }
  - { offset: 0xA6758, size: 0x8, addend: 0x0, symName: __ZN5folly12BadFormatArgD1Ev, symObjAddr: 0x648C, symBinAddr: 0x16B1C, symSize: 0x4 }
  - { offset: 0xA67B5, size: 0x8, addend: 0x0, symName: __ZN5folly12BadFormatArgD0Ev, symObjAddr: 0x64B4, symBinAddr: 0x16B44, symSize: 0x14 }
  - { offset: 0xA6886, size: 0x8, addend: 0x0, symName: __ZN5folly6detail25EstimateSpaceToReserveAllINSt3__116integer_sequenceImJLm0ELm1ELm2ELm3ELm4ELm5ELm6EEEEE4callIJNS_5RangeIPKcEESA_SA_S9_cS9_PNS2_12basic_stringIcNS2_11char_traitsIcEENS2_9allocatorIcEEEEEEEmDpRKT_, symObjAddr: 0x6650, symBinAddr: 0x16CE0, symSize: 0xC0 }
  - { offset: 0xA6B38, size: 0x8, addend: 0x0, symName: __ZN5folly6detail18ToAppendStrImplAllINSt3__116integer_sequenceImJLm0ELm1ELm2ELm3ELm4ELm5ELm6EEEEE4callIJNS_5RangeIPKcEESA_SA_S9_cS9_PNS2_12basic_stringIcNS2_11char_traitsIcEENS2_9allocatorIcEEEEEEEvDpRKT_, symObjAddr: 0x6710, symBinAddr: 0x16DA0, symSize: 0x90 }
  - { offset: 0xA6EA4, size: 0x8, addend: 0x0, symName: __ZN5folly15expected_detail30expected_detail_ExpectedHelper14ExpectedHelper5then_INS_8ExpectedINS_4UnitENS_14ConversionCodeEEEZNS_5tryToIiEENSt3__19enable_ifIXntsr3std7is_sameINS_5RangeIPKcEET_EE5valueENS4_ISF_NS9_16remove_referenceIDTclsr6detailE11parseToWraptlSE_Eclsr3stdE7declvalIRSF_EEEEE4type10error_typeEEEE4typeESE_EUlS5_E_JES6_S2_EEDTclsrT3_5then_clsrSP_7return_IT2_Ecmclclsr3stdE7declvalIT0_EEcldtclsr3stdE7declvalISF_EE5valueEEL_ZNS_L4unitEEEspclsr3stdE7declvalIT1_EEEEOSF_OSR_DpOSS_, symObjAddr: 0x6910, symBinAddr: 0x16EB0, symSize: 0x54 }
  - { offset: 0xA70F1, size: 0x8, addend: 0x0, symName: __ZNK5folly9FormatArg5errorIJRA14_KcEEEvDpOT_, symObjAddr: 0x6994, symBinAddr: 0x16F04, symSize: 0x18 }
  - { offset: 0xA715E, size: 0x8, addend: 0x0, symName: __ZN5folly12BadFormatArgC2IJPKcEEENS0_11ErrorStrTagENS_5RangeIS3_EEDpRKT_, symObjAddr: 0x69F8, symBinAddr: 0x16F1C, symSize: 0xB8 }
  - { offset: 0xA745F, size: 0x8, addend: 0x0, symName: __ZN5folly6detail25EstimateSpaceToReserveAllINSt3__116integer_sequenceImJLm0ELm1ELm2ELm3ELm4EEEEE4callIJNS_5RangeIPKcEESA_SA_S9_PNS2_12basic_stringIcNS2_11char_traitsIcEENS2_9allocatorIcEEEEEEEmDpRKT_, symObjAddr: 0x6B68, symBinAddr: 0x1708C, symSize: 0xA0 }
  - { offset: 0xA769A, size: 0x8, addend: 0x0, symName: __ZN5folly6detail18ToAppendStrImplAllINSt3__116integer_sequenceImJLm0ELm1ELm2ELm3ELm4EEEEE4callIJNS_5RangeIPKcEESA_SA_S9_PNS2_12basic_stringIcNS2_11char_traitsIcEENS2_9allocatorIcEEEEEEEvDpRKT_, symObjAddr: 0x6C08, symBinAddr: 0x1712C, symSize: 0x68 }
  - { offset: 0xA7C39, size: 0x8, addend: 0x0, symName: __ZNK5folly11FormatValueIPKcvE6formatINS_6detail27BaseFormatterAppendToStringINSt3__112basic_stringIcNS7_11char_traitsIcEENS7_9allocatorIcEEEEEEEEvRNS_9FormatArgERT_, symObjAddr: 0x72B4, symBinAddr: 0x17690, symSize: 0xB4 }
  - { offset: 0xA7D47, size: 0x8, addend: 0x0, symName: __ZN5folly13to_ascii_withILy10ENS_17to_ascii_alphabetILb0EEEEEmPcPKcy, symObjAddr: 0x71FC, symBinAddr: 0x38E40, symSize: 0x94 }
  - { offset: 0xA8008, size: 0x8, addend: 0x0, symName: __ZN5folly9FormatArgC2ENS_5RangeIPKcEE, symObjAddr: 0x74AC, symBinAddr: 0x177A8, symSize: 0x5C }
  - { offset: 0xA802C, size: 0x8, addend: 0x0, symName: __ZNK5folly11FormatValueIDnvE6formatINS_6detail27BaseFormatterAppendToStringINSt3__112basic_stringIcNS5_11char_traitsIcEENS5_9allocatorIcEEEEEEEEvRNS_9FormatArgERT_, symObjAddr: 0x7368, symBinAddr: 0x17744, symSize: 0x64 }
  - { offset: 0xA816C, size: 0x8, addend: 0x0, symName: __ZN5folly12BadFormatArgC2IJPKcmEEENS0_11ErrorStrTagENS_5RangeIS3_EEDpRKT_, symObjAddr: 0x7590, symBinAddr: 0x17824, symSize: 0xB8 }
  - { offset: 0xA849F, size: 0x8, addend: 0x0, symName: __ZN5folly6detail25EstimateSpaceToReserveAllINSt3__116integer_sequenceImJLm0ELm1ELm2ELm3ELm4ELm5EEEEE4callIJNS_5RangeIPKcEESA_SA_S9_mPNS2_12basic_stringIcNS2_11char_traitsIcEENS2_9allocatorIcEEEEEEEmDpRKT_, symObjAddr: 0x7710, symBinAddr: 0x179A4, symSize: 0xB8 }
  - { offset: 0xA874E, size: 0x8, addend: 0x0, symName: __ZN5folly6detail18ToAppendStrImplAllINSt3__116integer_sequenceImJLm0ELm1ELm2ELm3ELm4ELm5EEEEE4callIJNS_5RangeIPKcEESA_SA_S9_mPNS2_12basic_stringIcNS2_11char_traitsIcEENS2_9allocatorIcEEEEEEEvDpRKT_, symObjAddr: 0x77C8, symBinAddr: 0x17A5C, symSize: 0xC8 }
  - { offset: 0xA8B06, size: 0x8, addend: 0x0, symName: __ZN5folly9FormatterILb0EJRKNSt3__112basic_stringIcNS1_11char_traitsIcEENS1_9allocatorIcEEEEPKcSB_EE11doFormatArgILm0ENS_6detail27BaseFormatterAppendToStringIS7_EEEEvRKNSE_17BaseFormatterBaseERNS_9FormatArgERT0_, symObjAddr: 0x7980, symBinAddr: 0x17BCC, symSize: 0x44 }
  - { offset: 0xA8CA4, size: 0x8, addend: 0x0, symName: __ZN5folly9FormatterILb0EJRKNSt3__112basic_stringIcNS1_11char_traitsIcEENS1_9allocatorIcEEEEPKcSB_EE11doFormatArgILm1ENS_6detail27BaseFormatterAppendToStringIS7_EEEEvRKNSE_17BaseFormatterBaseERNS_9FormatArgERT0_, symObjAddr: 0x79C4, symBinAddr: 0x17C10, symSize: 0x28 }
  - { offset: 0xA8D99, size: 0x8, addend: 0x0, symName: __ZN5folly9FormatterILb0EJRKNSt3__112basic_stringIcNS1_11char_traitsIcEENS1_9allocatorIcEEEEPKcSB_EE11doFormatArgILm2ENS_6detail27BaseFormatterAppendToStringIS7_EEEEvRKNSE_17BaseFormatterBaseERNS_9FormatArgERT0_, symObjAddr: 0x79EC, symBinAddr: 0x17C38, symSize: 0x28 }
  - { offset: 0xA9035, size: 0x8, addend: 0x0, symName: __ZN5folly9FormatterILb0EJNSt3__112basic_stringIcNS1_11char_traitsIcEENS1_9allocatorIcEEEEEE11doFormatArgILm0ENS_6detail27BaseFormatterAppendToStringIS7_EEEEvRKNSA_17BaseFormatterBaseERNS_9FormatArgERT0_, symObjAddr: 0x7DE8, symBinAddr: 0x18034, symSize: 0x44 }
  - { offset: 0xA92B0, size: 0x8, addend: 0x0, symName: __ZN5folly9FormatterILb0EJRNS_5RangeIPKcEEEE11doFormatArgILm0ENS_6detail27BaseFormatterAppendToStringINSt3__112basic_stringIcNSA_11char_traitsIcEENSA_9allocatorIcEEEEEEEEvRKNS8_17BaseFormatterBaseERNS_9FormatArgERT0_, symObjAddr: 0x7F18, symBinAddr: 0x18118, symSize: 0x2C }
  - { offset: 0xA9470, size: 0x8, addend: 0x0, symName: __ZNSt3__112__hash_tableINS_17__hash_value_typeIN5folly7dynamicES3_EENS_22__unordered_map_hasherIS3_S4_NS2_6detail13DynamicHasherENS6_15DynamicKeyEqualELb1EEENS_21__unordered_map_equalIS3_S4_S8_S7_Lb1EEENS_9allocatorIS4_EEE21__emplace_unique_implIJRNS2_5RangeIPKcEEDnEEENS_4pairINS_15__hash_iteratorIPNS_11__hash_nodeIS4_PvEEEEbEEDpOT_, symObjAddr: 0x7FB4, symBinAddr: 0x181B4, symSize: 0x88 }
  - { offset: 0xA9646, size: 0x8, addend: 0x0, symName: __ZNSt3__112__hash_tableINS_17__hash_value_typeIN5folly7dynamicES3_EENS_22__unordered_map_hasherIS3_S4_NS2_6detail13DynamicHasherENS6_15DynamicKeyEqualELb1EEENS_21__unordered_map_equalIS3_S4_S8_S7_Lb1EEENS_9allocatorIS4_EEE16__construct_nodeIJRNS2_5RangeIPKcEEDnEEENS_10unique_ptrINS_11__hash_nodeIS4_PvEENS_22__hash_node_destructorINSC_ISO_EEEEEEDpOT_, symObjAddr: 0x803C, symBinAddr: 0x1823C, symSize: 0xA8 }
  - { offset: 0xA9B15, size: 0x8, addend: 0x0, symName: __ZNSt3__112__hash_tableINS_17__hash_value_typeIN5folly7dynamicES3_EENS_22__unordered_map_hasherIS3_S4_NS2_6detail13DynamicHasherENS6_15DynamicKeyEqualELb1EEENS_21__unordered_map_equalIS3_S4_S8_S7_Lb1EEENS_9allocatorIS4_EEE20__node_insert_uniqueEPNS_11__hash_nodeIS4_PvEE, symObjAddr: 0x80E4, symBinAddr: 0x182E4, symSize: 0x60 }
  - { offset: 0xA9D93, size: 0x8, addend: 0x0, symName: __ZNSt3__112basic_stringIcNS_11char_traitsIcEENS_9allocatorIcEEEC2B8ne200100EPKcm, symObjAddr: 0x8144, symBinAddr: 0x18344, symSize: 0x9C }
  - { offset: 0xA9FB5, size: 0x8, addend: 0x0, symName: __ZNSt3__112__hash_tableINS_17__hash_value_typeIN5folly7dynamicES3_EENS_22__unordered_map_hasherIS3_S4_NS2_6detail13DynamicHasherENS6_15DynamicKeyEqualELb1EEENS_21__unordered_map_equalIS3_S4_S8_S7_Lb1EEENS_9allocatorIS4_EEE28__node_insert_unique_prepareB8ne200100EmRS4_, symObjAddr: 0x81E0, symBinAddr: 0x183E0, symSize: 0x144 }
  - { offset: 0xA9FC0, size: 0x8, addend: 0x0, symName: __ZNSt3__112__hash_tableINS_17__hash_value_typeIN5folly7dynamicES3_EENS_22__unordered_map_hasherIS3_S4_NS2_6detail13DynamicHasherENS6_15DynamicKeyEqualELb1EEENS_21__unordered_map_equalIS3_S4_S8_S7_Lb1EEENS_9allocatorIS4_EEE28__node_insert_unique_prepareB8ne200100EmRS4_, symObjAddr: 0x81E0, symBinAddr: 0x183E0, symSize: 0x144 }
  - { offset: 0xAA1F7, size: 0x8, addend: 0x0, symName: __ZNSt3__112__hash_tableINS_17__hash_value_typeIN5folly7dynamicES3_EENS_22__unordered_map_hasherIS3_S4_NS2_6detail13DynamicHasherENS6_15DynamicKeyEqualELb1EEENS_21__unordered_map_equalIS3_S4_S8_S7_Lb1EEENS_9allocatorIS4_EEE28__node_insert_unique_performB8ne200100EPNS_11__hash_nodeIS4_PvEE, symObjAddr: 0x8324, symBinAddr: 0x18524, symSize: 0xB4 }
  - { offset: 0xAA25E, size: 0x8, addend: 0x0, symName: __ZNSt3__112__hash_tableINS_17__hash_value_typeIN5folly7dynamicES3_EENS_22__unordered_map_hasherIS3_S4_NS2_6detail13DynamicHasherENS6_15DynamicKeyEqualELb1EEENS_21__unordered_map_equalIS3_S4_S8_S7_Lb1EEENS_9allocatorIS4_EEE28__node_insert_unique_performB8ne200100EPNS_11__hash_nodeIS4_PvEE, symObjAddr: 0x8324, symBinAddr: 0x18524, symSize: 0xB4 }
  - { offset: 0xAA27A, size: 0x8, addend: 0x0, symName: __ZNSt3__112__hash_tableINS_17__hash_value_typeIN5folly7dynamicES3_EENS_22__unordered_map_hasherIS3_S4_NS2_6detail13DynamicHasherENS6_15DynamicKeyEqualELb1EEENS_21__unordered_map_equalIS3_S4_S8_S7_Lb1EEENS_9allocatorIS4_EEE28__node_insert_unique_performB8ne200100EPNS_11__hash_nodeIS4_PvEE, symObjAddr: 0x8324, symBinAddr: 0x18524, symSize: 0xB4 }
  - { offset: 0xAA368, size: 0x8, addend: 0x0, symName: __ZN5folly15expected_detail30expected_detail_ExpectedHelper14ExpectedHelper5then_INS_8ExpectedINS_4UnitENS_14ConversionCodeEEEZNS_5tryToImEENSt3__19enable_ifIXntsr3std7is_sameINS_5RangeIPKcEET_EE5valueENS4_ISF_NS9_16remove_referenceIDTclsr6detailE11parseToWraptlSE_Eclsr3stdE7declvalIRSF_EEEEE4type10error_typeEEEE4typeESE_EUlS5_E_JES6_S2_EEDTclsrT3_5then_clsrSP_7return_IT2_Ecmclclsr3stdE7declvalIT0_EEcldtclsr3stdE7declvalISF_EE5valueEEL_ZNS_L4unitEEEspclsr3stdE7declvalIT1_EEEEOSF_OSR_DpOSS_, symObjAddr: 0x845C, symBinAddr: 0x1865C, symSize: 0x58 }
  - { offset: 0xAA533, size: 0x8, addend: 0x0, symName: __ZNKSt3__112__hash_tableINS_17__hash_value_typeINS_12basic_stringIcNS_11char_traitsIcEENS_9allocatorIcEEEEN5folly7dynamicEEENS_22__unordered_map_hasherIS7_SA_NS8_6detail13DynamicHasherENS8_3f146detail11F14BasicMapIS9_S9_SD_NSC_15DynamicKeyEqualENS5_INS_4pairIKS9_S9_EEEEE14BottomKeyEqualIS7_EELb1EEENS_21__unordered_map_equalIS7_SA_SO_SD_Lb1EEENS5_ISA_EEE6bucketB8ne200100IS7_EEmRKT_, symObjAddr: 0x8644, symBinAddr: 0x18798, symSize: 0x78 }
  - { offset: 0xAA737, size: 0x8, addend: 0x0, symName: __ZNK5folly6detail15DynamicKeyEqualclINSt3__112basic_stringIcNS3_11char_traitsIcEENS3_9allocatorIcEEEEEENS3_9enable_ifIXsr3std14is_convertibleIT_NS_5RangeIPKcEEEE5valueEbE4typeERKSB_RKNS_7dynamicE, symObjAddr: 0x85C8, symBinAddr: 0x38F70, symSize: 0x7C }
  - { offset: 0xAA77E, size: 0x8, addend: 0x0, symName: __ZNK5folly6detail15DynamicKeyEqualclINSt3__112basic_stringIcNS3_11char_traitsIcEENS3_9allocatorIcEEEEEENS3_9enable_ifIXsr3std14is_convertibleIT_NS_5RangeIPKcEEEE5valueEbE4typeERKSB_RKNS_7dynamicE, symObjAddr: 0x85C8, symBinAddr: 0x38F70, symSize: 0x7C }
  - { offset: 0xACBE1, size: 0x8, addend: 0x0, symName: __ZN5folly6detail30exception_ptr_access_rt_cache_E, symObjAddr: 0x1386C, symBinAddr: 0x5443C, symSize: 0x0 }
  - { offset: 0xACBEF, size: 0x8, addend: 0x0, symName: __ZN5folly6detail15cxa_get_globalsEv, symObjAddr: 0x110, symBinAddr: 0x188F4, symSize: 0x44 }
  - { offset: 0xACC1B, size: 0x8, addend: 0x0, symName: __ZZN5folly6detail15cxa_get_globalsEvE5cache, symObjAddr: 0x6A0, symBinAddr: 0x543D8, symSize: 0x0 }
  - { offset: 0xACC41, size: 0x8, addend: 0x0, symName: __ZN5folly6detailL33cxxabi_cxa_exception_sans_reserveEv, symObjAddr: 0x568, symBinAddr: 0x18D4C, symSize: 0x64 }
  - { offset: 0xACC6D, size: 0x8, addend: 0x0, symName: __ZZN5folly6detailL33cxxabi_cxa_exception_sans_reserveEvE5cache.0, symObjAddr: 0x13878, symBinAddr: 0x562D0, symSize: 0x0 }
  - { offset: 0xACDE2, size: 0x8, addend: 0x0, symName: __ZN5folly6detail23uncaught_exceptions_ptrEv, symObjAddr: 0x0, symBinAddr: 0x18810, symSize: 0x1C }
  - { offset: 0xACE0F, size: 0x8, addend: 0x0, symName: __ZN5folly6detail24exception_ptr_access_rt_Ev, symObjAddr: 0x2C, symBinAddr: 0x39140, symSize: 0x14 }
  - { offset: 0xACE4C, size: 0x8, addend: 0x0, symName: __ZN5folly6detail24exception_ptr_access_rt_Ev, symObjAddr: 0x2C, symBinAddr: 0x39140, symSize: 0x14 }
  - { offset: 0xACE6D, size: 0x8, addend: 0x0, symName: __ZN5folly6detail24exception_ptr_access_rt_Ev, symObjAddr: 0x2C, symBinAddr: 0x39140, symSize: 0x14 }
  - { offset: 0xACE8D, size: 0x8, addend: 0x0, symName: __ZN5folly6detail26exception_ptr_access_rt_v_Ev, symObjAddr: 0x40, symBinAddr: 0x39154, symSize: 0x8 }
  - { offset: 0xACEAC, size: 0x8, addend: 0x0, symName: __ZN5folly6detail30exception_ptr_exception_typeidERKSt9exception, symObjAddr: 0x48, symBinAddr: 0x1882C, symSize: 0xC }
  - { offset: 0xACEDE, size: 0x8, addend: 0x0, symName: __ZN5folly6detail30exception_ptr_exception_typeidERKSt9exception, symObjAddr: 0x48, symBinAddr: 0x1882C, symSize: 0xC }
  - { offset: 0xACF4D, size: 0x8, addend: 0x0, symName: __ZN5folly6detail23exception_ptr_get_type_ERKSt13exception_ptr, symObjAddr: 0x54, symBinAddr: 0x18838, symSize: 0x44 }
  - { offset: 0xACFF0, size: 0x8, addend: 0x0, symName: __ZN5folly6detail25exception_ptr_get_object_ERKSt13exception_ptrPKSt9type_info, symObjAddr: 0x98, symBinAddr: 0x1887C, symSize: 0x78 }
  - { offset: 0xAD12B, size: 0x8, addend: 0x0, symName: __ZN5folly6detail24make_exception_ptr_with_ERKNS0_28make_exception_ptr_with_arg_EPv, symObjAddr: 0x158, symBinAddr: 0x1893C, symSize: 0x110 }
  - { offset: 0xAD570, size: 0x8, addend: 0x0, symName: __ZN5folly6detailL18exception_cleanup_E19_Unwind_Reason_CodeP17_Unwind_Exception, symObjAddr: 0x5CC, symBinAddr: 0x18DB0, symSize: 0x68 }
  - { offset: 0xAD651, size: 0x8, addend: 0x0, symName: __ZN5folly13variadic_noopE, symObjAddr: 0x6B8, symBinAddr: 0x3DC0B, symSize: 0x0 }
  - { offset: 0xAD99E, size: 0x8, addend: 0x0, symName: __ZN5folly17current_exceptionEv, symObjAddr: 0x154, symBinAddr: 0x18938, symSize: 0x4 }
  - { offset: 0xAD9B6, size: 0x8, addend: 0x0, symName: __ZN5folly17current_exceptionEv, symObjAddr: 0x154, symBinAddr: 0x18938, symSize: 0x4 }
  - { offset: 0xADAB0, size: 0x8, addend: 0x0, symName: __ZN5folly11invoke_coldIRKNS_16variadic_noop_fnEJES1_Li0EvEET3_OT_DpOT0_, symObjAddr: 0x634, symBinAddr: 0x3915C, symSize: 0x4 }
  - { offset: 0xAF6B6, size: 0x8, addend: 0x0, symName: __ZN5folly23exception_shared_stringC2EmRFvPvPcmES1_, symObjAddr: 0x268, symBinAddr: 0x18A4C, symSize: 0x6C }
  - { offset: 0xAF950, size: 0x8, addend: 0x0, symName: __ZN5folly23exception_shared_stringC1EmRFvPvPcmES1_, symObjAddr: 0x2D4, symBinAddr: 0x18AB8, symSize: 0x6C }
  - { offset: 0xAFBF6, size: 0x8, addend: 0x0, symName: __ZN5folly23exception_shared_stringC2ERKNS0_18literal_state_baseE, symObjAddr: 0x340, symBinAddr: 0x18B24, symSize: 0xC }
  - { offset: 0xAFC47, size: 0x8, addend: 0x0, symName: __ZN5folly23exception_shared_stringC1ERKNS0_18literal_state_baseE, symObjAddr: 0x34C, symBinAddr: 0x18B30, symSize: 0xC }
  - { offset: 0xAFC83, size: 0x8, addend: 0x0, symName: __ZN5folly23exception_shared_stringC1ERKNS0_18literal_state_baseE, symObjAddr: 0x34C, symBinAddr: 0x18B30, symSize: 0xC }
  - { offset: 0xAFD80, size: 0x8, addend: 0x0, symName: __ZN5folly23exception_shared_stringC2EPKc, symObjAddr: 0x358, symBinAddr: 0x18B3C, symSize: 0x5C }
  - { offset: 0xAFFD7, size: 0x8, addend: 0x0, symName: __ZN5folly23exception_shared_stringC2EPKcm, symObjAddr: 0x3B4, symBinAddr: 0x18B98, symSize: 0x54 }
  - { offset: 0xB020B, size: 0x8, addend: 0x0, symName: __ZN5folly23exception_shared_stringC1EPKc, symObjAddr: 0x408, symBinAddr: 0x18BEC, symSize: 0x5C }
  - { offset: 0xB047B, size: 0x8, addend: 0x0, symName: __ZN5folly23exception_shared_stringC1EPKcm, symObjAddr: 0x464, symBinAddr: 0x18C48, symSize: 0x54 }
  - { offset: 0xB06E7, size: 0x8, addend: 0x0, symName: __ZN5folly23exception_shared_stringC2ERKS0_, symObjAddr: 0x4B8, symBinAddr: 0x18C9C, symSize: 0x24 }
  - { offset: 0xB0779, size: 0x8, addend: 0x0, symName: __ZN5folly23exception_shared_stringC1ERKS0_, symObjAddr: 0x4DC, symBinAddr: 0x18CC0, symSize: 0x24 }
  - { offset: 0xB07B5, size: 0x8, addend: 0x0, symName: __ZN5folly23exception_shared_stringC1ERKS0_, symObjAddr: 0x4DC, symBinAddr: 0x18CC0, symSize: 0x24 }
  - { offset: 0xB091E, size: 0x8, addend: 0x0, symName: __ZN5folly23exception_shared_stringD2Ev, symObjAddr: 0x500, symBinAddr: 0x18CE4, symSize: 0x4C }
  - { offset: 0xB0A63, size: 0x8, addend: 0x0, symName: __ZN5folly23exception_shared_stringD1Ev, symObjAddr: 0x54C, symBinAddr: 0x18D30, symSize: 0x4 }
  - { offset: 0xB0A92, size: 0x8, addend: 0x0, symName: __ZN5folly23exception_shared_stringD1Ev, symObjAddr: 0x54C, symBinAddr: 0x18D30, symSize: 0x4 }
  - { offset: 0xB0AA5, size: 0x8, addend: 0x0, symName: __ZNK5folly23exception_shared_string4whatEv, symObjAddr: 0x550, symBinAddr: 0x18D34, symSize: 0x18 }
  - { offset: 0xB2A76, size: 0x8, addend: 0x0, symName: __ZN5folly3f146detail12F14LinkCheckILNS1_17F14IntrinsicsModeE0EE5checkEv, symObjAddr: 0x0, symBinAddr: 0x18E18, symSize: 0x4 }
  - { offset: 0xB2A93, size: 0x8, addend: 0x0, symName: __ZN5folly3f146detail21tlsPendingSafeInsertsEl, symObjAddr: 0x4, symBinAddr: 0x18E1C, symSize: 0x40 }
  - { offset: 0xB2ABD, size: 0x8, addend: 0x0, symName: __ZZN5folly3f146detail21tlsPendingSafeInsertsElE12value_non_tl.0, symObjAddr: 0xA9A0, symBinAddr: 0x562D8, symSize: 0x0 }
  - { offset: 0xB2B00, size: 0x8, addend: 0x0, symName: __ZN5folly3f146detail21tlsPendingSafeInsertsEl, symObjAddr: 0x4, symBinAddr: 0x18E1C, symSize: 0x40 }
  - { offset: 0xB2B1A, size: 0x8, addend: 0x0, symName: __ZN5folly3f146detail21tlsPendingSafeInsertsEl, symObjAddr: 0x4, symBinAddr: 0x18E1C, symSize: 0x40 }
  - { offset: 0xB2B77, size: 0x8, addend: 0x0, symName: __ZN5folly3f146detail13tlsMinstdRandEm, symObjAddr: 0x44, symBinAddr: 0x18E5C, symSize: 0x84 }
  - { offset: 0xB2BA1, size: 0x8, addend: 0x0, symName: __ZZN5folly3f146detail13tlsMinstdRandEmE12state_non_tl.0, symObjAddr: 0xA9A8, symBinAddr: 0x562E0, symSize: 0x0 }
  - { offset: 0xB3AF4, size: 0x8, addend: 0x0, symName: __ZN5folly3f146detail12F14LinkCheckILNS1_17F14IntrinsicsModeE0EE5checkEv, symObjAddr: 0x0, symBinAddr: 0x18E18, symSize: 0x4 }
  - { offset: 0xB7DD7, size: 0x8, addend: 0x0, symName: __ZNSt3__1plB8ne200100IcNS_11char_traitsIcEENS_9allocatorIcEEEENS_12basic_stringIT_T0_T1_EEOS9_PKS6_, symObjAddr: 0x1398, symBinAddr: 0x1A1E0, symSize: 0x5C }
  - { offset: 0xB99A1, size: 0x8, addend: 0x0, symName: __ZN5folly12_GLOBAL__N_126writeFileAtomicNoThrowImplENS_5RangeIPKcEEP5ioveciRKNS_22WriteFileAtomicOptionsE, symObjAddr: 0xCD4, symBinAddr: 0x19BB4, symSize: 0x244 }
  - { offset: 0xBA478, size: 0x8, addend: 0x0, symName: __ZN5folly12_GLOBAL__N_128throwIfWriteFileAtomicFailedENS_5RangeIPKcEES4_x, symObjAddr: 0xFD8, symBinAddr: 0x19EB8, symSize: 0x178 }
  - { offset: 0xBACD0, size: 0x8, addend: 0x0, symName: __ZN5folly9openNoIntEPKcit, symObjAddr: 0x0, symBinAddr: 0x18EE0, symSize: 0x64 }
  - { offset: 0xBB58B, size: 0x8, addend: 0x0, symName: __ZN5folly10closeNoIntEi, symObjAddr: 0x64, symBinAddr: 0x18F44, symSize: 0x40 }
  - { offset: 0xBB5F7, size: 0x8, addend: 0x0, symName: __ZN5folly10closeNoIntENS_13NetworkSocketE, symObjAddr: 0xA4, symBinAddr: 0x18F84, symSize: 0x44 }
  - { offset: 0xBB6F6, size: 0x8, addend: 0x0, symName: __ZN5folly10fsyncNoIntEi, symObjAddr: 0xE8, symBinAddr: 0x18FC8, symSize: 0x44 }
  - { offset: 0xBB756, size: 0x8, addend: 0x0, symName: __ZN5folly8dupNoIntEi, symObjAddr: 0x12C, symBinAddr: 0x1900C, symSize: 0x44 }
  - { offset: 0xBB7B6, size: 0x8, addend: 0x0, symName: __ZN5folly9dup2NoIntEii, symObjAddr: 0x170, symBinAddr: 0x19050, symSize: 0x54 }
  - { offset: 0xBB82C, size: 0x8, addend: 0x0, symName: __ZN5folly14fdatasyncNoIntEi, symObjAddr: 0x1C4, symBinAddr: 0x190A4, symSize: 0x48 }
  - { offset: 0xBB892, size: 0x8, addend: 0x0, symName: __ZN5folly14ftruncateNoIntEix, symObjAddr: 0x20C, symBinAddr: 0x190EC, symSize: 0x54 }
  - { offset: 0xBB908, size: 0x8, addend: 0x0, symName: __ZN5folly13truncateNoIntEPKcx, symObjAddr: 0x260, symBinAddr: 0x19140, symSize: 0x54 }
  - { offset: 0xBB97E, size: 0x8, addend: 0x0, symName: __ZN5folly10flockNoIntEii, symObjAddr: 0x2B4, symBinAddr: 0x19194, symSize: 0x54 }
  - { offset: 0xBB9F4, size: 0x8, addend: 0x0, symName: __ZN5folly13shutdownNoIntENS_13NetworkSocketEi, symObjAddr: 0x308, symBinAddr: 0x191E8, symSize: 0x54 }
  - { offset: 0xBBA63, size: 0x8, addend: 0x0, symName: __ZN5folly9readNoIntEiPvm, symObjAddr: 0x35C, symBinAddr: 0x1923C, symSize: 0x5C }
  - { offset: 0xBBAEF, size: 0x8, addend: 0x0, symName: __ZN5folly10preadNoIntEiPvmx, symObjAddr: 0x3B8, symBinAddr: 0x19298, symSize: 0x6C }
  - { offset: 0xBBB91, size: 0x8, addend: 0x0, symName: __ZN5folly10readvNoIntEiPK5ioveci, symObjAddr: 0x424, symBinAddr: 0x19304, symSize: 0x5C }
  - { offset: 0xBBC1D, size: 0x8, addend: 0x0, symName: __ZN5folly11preadvNoIntEiPK5iovecix, symObjAddr: 0x480, symBinAddr: 0x19360, symSize: 0x6C }
  - { offset: 0xBBCBF, size: 0x8, addend: 0x0, symName: __ZN5folly10writeNoIntEiPKvm, symObjAddr: 0x4EC, symBinAddr: 0x193CC, symSize: 0x5C }
  - { offset: 0xBBD4B, size: 0x8, addend: 0x0, symName: __ZN5folly11pwriteNoIntEiPKvmx, symObjAddr: 0x548, symBinAddr: 0x19428, symSize: 0x6C }
  - { offset: 0xBBDED, size: 0x8, addend: 0x0, symName: __ZN5folly11writevNoIntEiPK5ioveci, symObjAddr: 0x5B4, symBinAddr: 0x19494, symSize: 0x5C }
  - { offset: 0xBBE79, size: 0x8, addend: 0x0, symName: __ZN5folly12pwritevNoIntEiPK5iovecix, symObjAddr: 0x610, symBinAddr: 0x194F0, symSize: 0x6C }
  - { offset: 0xBBF1B, size: 0x8, addend: 0x0, symName: __ZN5folly8readFullEiPvm, symObjAddr: 0x67C, symBinAddr: 0x1955C, symSize: 0x88 }
  - { offset: 0xBBFAE, size: 0x8, addend: 0x0, symName: __ZN5folly9preadFullEiPvmx, symObjAddr: 0x704, symBinAddr: 0x195E4, symSize: 0x94 }
  - { offset: 0xBC075, size: 0x8, addend: 0x0, symName: __ZN5folly9writeFullEiPKvm, symObjAddr: 0x798, symBinAddr: 0x19678, symSize: 0x88 }
  - { offset: 0xBC108, size: 0x8, addend: 0x0, symName: __ZN5folly10pwriteFullEiPKvmx, symObjAddr: 0x820, symBinAddr: 0x19700, symSize: 0x94 }
  - { offset: 0xBC1CF, size: 0x8, addend: 0x0, symName: __ZN5folly9readvFullEiP5ioveci, symObjAddr: 0x8B4, symBinAddr: 0x19794, symSize: 0xD0 }
  - { offset: 0xBC264, size: 0x8, addend: 0x0, symName: __ZN5folly10preadvFullEiP5iovecix, symObjAddr: 0x984, symBinAddr: 0x19864, symSize: 0xDC }
  - { offset: 0xBC311, size: 0x8, addend: 0x0, symName: __ZN5folly10writevFullEiP5ioveci, symObjAddr: 0xA60, symBinAddr: 0x19940, symSize: 0xD0 }
  - { offset: 0xBC3A6, size: 0x8, addend: 0x0, symName: __ZN5folly11pwritevFullEiP5iovecix, symObjAddr: 0xB30, symBinAddr: 0x19A10, symSize: 0xDC }
  - { offset: 0xBC4F1, size: 0x8, addend: 0x0, symName: __ZN5folly22writeFileAtomicNoThrowENS_5RangeIPKcEEP5iovecitNS_8SyncTypeE, symObjAddr: 0xC68, symBinAddr: 0x19B48, symSize: 0x6C }
  - { offset: 0xBD15A, size: 0x8, addend: 0x0, symName: __ZN5folly22writeFileAtomicNoThrowENS_5RangeIPKcEES3_RKNS_22WriteFileAtomicOptionsE, symObjAddr: 0xF18, symBinAddr: 0x19DF8, symSize: 0x2C }
  - { offset: 0xBD222, size: 0x8, addend: 0x0, symName: __ZN5folly15writeFileAtomicENS_5RangeIPKcEEP5iovecitNS_8SyncTypeE, symObjAddr: 0xF44, symBinAddr: 0x19E24, symSize: 0x94 }
  - { offset: 0xBD5E1, size: 0x8, addend: 0x0, symName: __ZN5folly15writeFileAtomicENS_5RangeIPKcEENS0_IPKhEEtNS_8SyncTypeE, symObjAddr: 0x1150, symBinAddr: 0x1A030, symSize: 0x2C }
  - { offset: 0xBD6DE, size: 0x8, addend: 0x0, symName: __ZN5folly15writeFileAtomicENS_5RangeIPKcEES3_tNS_8SyncTypeE, symObjAddr: 0x117C, symBinAddr: 0x1A05C, symSize: 0x2C }
  - { offset: 0xBD7D5, size: 0x8, addend: 0x0, symName: __ZN5folly15writeFileAtomicENS_5RangeIPKcEES3_RKNS_22WriteFileAtomicOptionsE, symObjAddr: 0x11A8, symBinAddr: 0x1A088, symSize: 0x58 }
  - { offset: 0xBDDAF, size: 0x8, addend: 0x0, symName: __ZN5folly22WriteFileAtomicOptions14setPermissionsEt, symObjAddr: 0xC0C, symBinAddr: 0x19AEC, symSize: 0x8 }
  - { offset: 0xBDDD6, size: 0x8, addend: 0x0, symName: __ZN5folly22WriteFileAtomicOptions11setSyncTypeENS_8SyncTypeE, symObjAddr: 0xC14, symBinAddr: 0x19AF4, symSize: 0x8 }
  - { offset: 0xBDF47, size: 0x8, addend: 0x0, symName: __ZN5folly22WriteFileAtomicOptions21setTemporaryDirectoryENSt3__112basic_stringIcNS1_11char_traitsIcEENS1_9allocatorIcEEEE, symObjAddr: 0xC1C, symBinAddr: 0x19AFC, symSize: 0x4C }
  - { offset: 0xBE53C, size: 0x8, addend: 0x0, symName: '__ZN5folly6detail14ScopeGuardImplIZNS_12_GLOBAL__N_126writeFileAtomicNoThrowImplENS_5RangeIPKcEEP5ioveciRKNS_22WriteFileAtomicOptionsEE3$_0Lb1EED1Ev', symObjAddr: 0x12A0, symBinAddr: 0x1A180, symSize: 0x60 }
  - { offset: 0xBE714, size: 0x8, addend: 0x0, symName: __ZNSt3__112basic_stringIcNS_11char_traitsIcEENS_9allocatorIcEEEC1IN5folly5RangeIPKcEELi0EEERKT_, symObjAddr: 0x1200, symBinAddr: 0x1A0E0, symSize: 0xA0 }
  - { offset: 0xBE9BD, size: 0x8, addend: 0x0, symName: '__ZN5folly6detail14ScopeGuardImplIZNS_12_GLOBAL__N_126writeFileAtomicNoThrowImplENS_5RangeIPKcEEP5ioveciRKNS_22WriteFileAtomicOptionsEE3$_0Lb1EED1Ev', symObjAddr: 0x12A0, symBinAddr: 0x1A180, symSize: 0x60 }
  - { offset: 0xC0E16, size: 0x8, addend: 0x0, symName: __ZN5folly15fileutil_detail26getTemporaryFilePathStringERKNSt3__112basic_stringIcNS1_11char_traitsIcEENS1_9allocatorIcEEEES9_, symObjAddr: 0x0, symBinAddr: 0x1A23C, symSize: 0xC4 }
  - { offset: 0xC3DE7, size: 0x8, addend: 0x0, symName: __ZN5folly15fileutil_detail26getTemporaryFilePathStringERKNSt3__112basic_stringIcNS1_11char_traitsIcEENS1_9allocatorIcEEEES9_, symObjAddr: 0x0, symBinAddr: 0x1A23C, symSize: 0xC4 }
  - { offset: 0xC661C, size: 0x8, addend: 0x0, symName: __ZN5folly6detail14formatHexLowerE, symObjAddr: 0x2408, symBinAddr: 0x3DC0C, symSize: 0x0 }
  - { offset: 0xC6636, size: 0x8, addend: 0x0, symName: __ZN5folly6detail14formatHexUpperE, symObjAddr: 0x2608, symBinAddr: 0x3DE0C, symSize: 0x0 }
  - { offset: 0xC6650, size: 0x8, addend: 0x0, symName: __ZN5folly6detail11formatOctalE, symObjAddr: 0x2808, symBinAddr: 0x3E00C, symSize: 0x0 }
  - { offset: 0xC666A, size: 0x8, addend: 0x0, symName: __ZN5folly6detail12formatBinaryE, symObjAddr: 0x2E08, symBinAddr: 0x3E60C, symSize: 0x0 }
  - { offset: 0xC6684, size: 0x8, addend: 0x0, symName: __ZN5folly6detailL16formatAlignTableE, symObjAddr: 0x3608, symBinAddr: 0x3EE0C, symSize: 0x0 }
  - { offset: 0xC669E, size: 0x8, addend: 0x0, symName: __ZN5folly6detailL15formatSignTableE, symObjAddr: 0x3708, symBinAddr: 0x3EF0C, symSize: 0x0 }
  - { offset: 0xC6971, size: 0x8, addend: 0x0, symName: __ZN5folly6detail29insertThousandsGroupingUnsafeEPcPS1_, symObjAddr: 0x98C, symBinAddr: 0x1AC50, symSize: 0x80 }
  - { offset: 0xC6C3B, size: 0x8, addend: 0x0, symName: __ZN5folly6detail16throw_exception_INS_12BadFormatArgEJNS2_11ErrorStrTagENS_5RangeIPKcEEEEEvDpT0_, symObjAddr: 0x17B0, symBinAddr: 0x39160, symSize: 0x40 }
  - { offset: 0xC6D0E, size: 0x8, addend: 0x0, symName: __ZN5folly6detail15reserveInTargetINS_5RangeIPKcEES5_JS5_PNSt3__112basic_stringIcNS6_11char_traitsIcEENS6_9allocatorIcEEEEEEEvRKT_RKT0_DpRKT1_, symObjAddr: 0x1924, symBinAddr: 0x1AFA8, symSize: 0x3C }
  - { offset: 0xC6DA3, size: 0x8, addend: 0x0, symName: __ZN5folly6detail15reserveInTargetINS_5RangeIPKcEES5_JS5_PNSt3__112basic_stringIcNS6_11char_traitsIcEENS6_9allocatorIcEEEEEEEvRKT_RKT0_DpRKT1_, symObjAddr: 0x1924, symBinAddr: 0x1AFA8, symSize: 0x3C }
  - { offset: 0xCA9DE, size: 0x8, addend: 0x0, symName: __ZN5folly2toINSt3__112basic_stringIcNS1_11char_traitsIcEENS1_9allocatorIcEEEEJNS_5RangeIPKcEESB_SB_ELi0EEET_DpRKT0_, symObjAddr: 0x18A8, symBinAddr: 0x1AF2C, symSize: 0x7C }
  - { offset: 0xD0A23, size: 0x8, addend: 0x0, symName: __ZNK5folly11FormatValueIdvE12formatHelperERNS_14basic_fbstringIcNSt3__111char_traitsIcEENS3_9allocatorIcEENS_13fbstring_coreIcEEEERiRNS_9FormatArgE, symObjAddr: 0x0, symBinAddr: 0x1A300, symSize: 0x414 }
  - { offset: 0xD1379, size: 0x8, addend: 0x0, symName: __ZNK5folly9FormatArg8validateENS0_4TypeE, symObjAddr: 0x414, symBinAddr: 0x1A714, symSize: 0xB8 }
  - { offset: 0xD1528, size: 0x8, addend: 0x0, symName: __ZNK5folly9FormatArg5errorIJEEEvDpOT_, symObjAddr: 0x179C, symBinAddr: 0x1AE60, symSize: 0x14 }
  - { offset: 0xD1570, size: 0x8, addend: 0x0, symName: __ZN5folly6detail16throw_exception_INS_12BadFormatArgEJNS2_11ErrorStrTagENS_5RangeIPKcEEEEEvDpT0_, symObjAddr: 0x17B0, symBinAddr: 0x39160, symSize: 0x40 }
  - { offset: 0xD1580, size: 0x8, addend: 0x0, symName: __ZN5folly14basic_fbstringIcNSt3__111char_traitsIcEENS1_9allocatorIcEENS_13fbstring_coreIcEEEC1EPKcmRKS5_, symObjAddr: 0x4F0, symBinAddr: 0x1A7CC, symSize: 0x4 }
  - { offset: 0xD15D3, size: 0x8, addend: 0x0, symName: __ZN5folly14basic_fbstringIcNSt3__111char_traitsIcEENS1_9allocatorIcEENS_13fbstring_coreIcEEEC1EPKcmRKS5_, symObjAddr: 0x4F0, symBinAddr: 0x1A7CC, symSize: 0x4 }
  - { offset: 0xD15FB, size: 0x8, addend: 0x0, symName: __ZN5folly13fbstring_coreIcE18destroyMediumLargeEv, symObjAddr: 0xBF8, symBinAddr: 0x1AE24, symSize: 0x34 }
  - { offset: 0xD1634, size: 0x8, addend: 0x0, symName: __ZN5folly13fbstring_coreIcE18destroyMediumLargeEv, symObjAddr: 0xBF8, symBinAddr: 0x1AE24, symSize: 0x34 }
  - { offset: 0xD176F, size: 0x8, addend: 0x0, symName: __ZN5folly14basic_fbstringIcNSt3__111char_traitsIcEENS1_9allocatorIcEENS_13fbstring_coreIcEEEC1EPKcmRKS5_, symObjAddr: 0x4F0, symBinAddr: 0x1A7CC, symSize: 0x4 }
  - { offset: 0xD1A10, size: 0x8, addend: 0x0, symName: __ZN5folly6detail29insertThousandsGroupingUnsafeEPcPS1_, symObjAddr: 0x98C, symBinAddr: 0x1AC50, symSize: 0x80 }
  - { offset: 0xD1BDC, size: 0x8, addend: 0x0, symName: __ZN5folly14basic_fbstringIcNSt3__111char_traitsIcEENS1_9allocatorIcEENS_13fbstring_coreIcEEEC2EPKcmRKS5_, symObjAddr: 0xC2C, symBinAddr: 0x1AE58, symSize: 0x8 }
  - { offset: 0xD1C30, size: 0x8, addend: 0x0, symName: __ZN5folly14basic_fbstringIcNSt3__111char_traitsIcEENS1_9allocatorIcEENS_13fbstring_coreIcEEEC2EPKcmRKS5_, symObjAddr: 0xC2C, symBinAddr: 0x1AE58, symSize: 0x8 }
  - { offset: 0xD1D52, size: 0x8, addend: 0x0, symName: __ZN5folly9FormatArg8initSlowEv, symObjAddr: 0x4F4, symBinAddr: 0x1A7D0, symSize: 0x480 }
  - { offset: 0xD275E, size: 0x8, addend: 0x0, symName: __ZN5folly15expected_detail30expected_detail_ExpectedHelper14ExpectedHelper12thenOrThrow_IRNS0_15ExpectedStorageINS_5RangeIPKcEENS_14ConversionCodeELNS0_11StorageTypeE1EEENS_6detail18CheckTrailingSpaceEZNS_2toIiEENSt3__19enable_ifIXntsr3std7is_sameIS8_T_EE5valueESI_E4typeES8_EUlS9_E_NS_8ExpectedINS_4UnitES9_EEvLb0ELi0EEET2_OSI_OT0_OT1_, symObjAddr: 0x1D9C, symBinAddr: 0x1B03C, symSize: 0x2C }
  - { offset: 0xD284E, size: 0x8, addend: 0x0, symName: __ZN5folly9FormatArg8initSlowEv.cold.1, symObjAddr: 0x2158, symBinAddr: 0x391A0, symSize: 0x14 }
  - { offset: 0xD2BBD, size: 0x8, addend: 0x0, symName: __ZN5folly26FormatKeyNotFoundExceptionC2ENS_5RangeIPKcEE, symObjAddr: 0xA0C, symBinAddr: 0x1ACD0, symSize: 0x138 }
  - { offset: 0xD369D, size: 0x8, addend: 0x0, symName: __ZN5folly9FormatArg8initSlowEv.cold.1, symObjAddr: 0x2158, symBinAddr: 0x391A0, symSize: 0x14 }
  - { offset: 0xD36A8, size: 0x8, addend: 0x0, symName: __ZN5folly26FormatKeyNotFoundExceptionC1ENS_5RangeIPKcEE, symObjAddr: 0xB44, symBinAddr: 0x1AE08, symSize: 0x4 }
  - { offset: 0xD36E4, size: 0x8, addend: 0x0, symName: __ZN5folly26FormatKeyNotFoundExceptionC1ENS_5RangeIPKcEE, symObjAddr: 0xB44, symBinAddr: 0x1AE08, symSize: 0x4 }
  - { offset: 0xD3727, size: 0x8, addend: 0x0, symName: __ZN5folly26FormatKeyNotFoundExceptionD1Ev, symObjAddr: 0xB48, symBinAddr: 0x1AE0C, symSize: 0x4 }
  - { offset: 0xD3749, size: 0x8, addend: 0x0, symName: __ZN5folly26FormatKeyNotFoundExceptionD1Ev, symObjAddr: 0xB48, symBinAddr: 0x1AE0C, symSize: 0x4 }
  - { offset: 0xD3781, size: 0x8, addend: 0x0, symName: __ZN5folly26FormatKeyNotFoundExceptionD0Ev, symObjAddr: 0xB4C, symBinAddr: 0x1AE10, symSize: 0x14 }
  - { offset: 0xD48E2, size: 0x8, addend: 0x0, symName: __ZN5folly12BadFormatArgC2IJEEENS0_11ErrorStrTagENS_5RangeIPKcEEDpRKT_, symObjAddr: 0x17F0, symBinAddr: 0x1AE74, symSize: 0xB8 }
  - { offset: 0xD4BAF, size: 0x8, addend: 0x0, symName: __ZN5folly6detail18ToAppendStrImplAllINSt3__116integer_sequenceImJLm0ELm1ELm2ELm3EEEEE4callIJNS_5RangeIPKcEESA_SA_PNS2_12basic_stringIcNS2_11char_traitsIcEENS2_9allocatorIcEEEEEEEvDpRKT_, symObjAddr: 0x1960, symBinAddr: 0x1AFE4, symSize: 0x58 }
  - { offset: 0xD5597, size: 0x8, addend: 0x0, symName: __ZN5folly15expected_detail30expected_detail_ExpectedHelper14ExpectedHelper12thenOrThrow_IRNS0_15ExpectedStorageINS_5RangeIPKcEENS_14ConversionCodeELNS0_11StorageTypeE1EEENS_6detail18CheckTrailingSpaceEZNS_2toIiEENSt3__19enable_ifIXntsr3std7is_sameIS8_T_EE5valueESI_E4typeES8_EUlS9_E_NS_8ExpectedINS_4UnitES9_EEvLb0ELi0EEET2_OSI_OT0_OT1_.cold.1, symObjAddr: 0x2214, symBinAddr: 0x391B4, symSize: 0x28 }
  - { offset: 0xD566B, size: 0x8, addend: 0x0, symName: __ZZN5folly2toIiEENSt3__19enable_ifIXntsr3std7is_sameINS_5RangeIPKcEET_EE5valueES7_E4typeES6_ENKUlNS_14ConversionCodeEE_clESA_, symObjAddr: 0x1E58, symBinAddr: 0x1B068, symSize: 0x48 }
  - { offset: 0xD58F6, size: 0x8, addend: 0x0, symName: __ZZN5folly2toIiEENSt3__19enable_ifIXntsr3std7is_sameINS_5RangeIPKcEET_EE5valueES7_E4typeES6_ENKUlNS_14ConversionCodeEE0_clESA_, symObjAddr: 0x1FC4, symBinAddr: 0x1B0B0, symSize: 0x50 }
  - { offset: 0xD5B21, size: 0x8, addend: 0x0, symName: _OUTLINED_FUNCTION_0, symObjAddr: 0x223C, symBinAddr: 0x1B100, symSize: 0x10 }
  - { offset: 0xD5B39, size: 0x8, addend: 0x0, symName: _OUTLINED_FUNCTION_1, symObjAddr: 0x224C, symBinAddr: 0x1B110, symSize: 0x8 }
  - { offset: 0xD7B4D, size: 0x8, addend: 0x0, symName: __ZN5folly6detail12_GLOBAL__N_110parkingLotE.0, symObjAddr: 0x1CBA8, symBinAddr: 0x562E8, symSize: 0x0 }
  - { offset: 0xD7B66, size: 0x8, addend: 0x0, symName: __ZN5folly6detail12_GLOBAL__N_117emulatedFutexWakeEPKvij, symObjAddr: 0x4, symBinAddr: 0x1B11C, symSize: 0x120 }
  - { offset: 0xD7FFC, size: 0x8, addend: 0x0, symName: __ZN5folly6detail13futexWakeImplEPKNSt3__16atomicIjEEij, symObjAddr: 0x0, symBinAddr: 0x1B118, symSize: 0x4 }
  - { offset: 0xD8048, size: 0x8, addend: 0x0, symName: __ZN5folly6detail13futexWakeImplEPKNSt3__16atomicIjEEij, symObjAddr: 0x0, symBinAddr: 0x1B118, symSize: 0x4 }
  - { offset: 0xD8069, size: 0x8, addend: 0x0, symName: __ZN5folly6detail13futexWakeImplEPKNS0_19EmulatedFutexAtomicIjEEij, symObjAddr: 0x124, symBinAddr: 0x1B23C, symSize: 0x4 }
  - { offset: 0xD80B5, size: 0x8, addend: 0x0, symName: __ZN5folly6detail13futexWakeImplEPKNS0_19EmulatedFutexAtomicIjEEij, symObjAddr: 0x124, symBinAddr: 0x1B23C, symSize: 0x4 }
  - { offset: 0xD80D5, size: 0x8, addend: 0x0, symName: __ZN5folly6detail13futexWaitImplEPKNSt3__16atomicIjEEjPKNS1_6chrono10time_pointINS6_12system_clockENS6_8durationIxNS1_5ratioILl1ELl1000000EEEEEEEPKNS7_INS6_12steady_clockENS9_IxNSA_ILl1ELl1000000000EEEEEEEj, symObjAddr: 0x128, symBinAddr: 0x1B240, symSize: 0x5A8 }
  - { offset: 0xD8DB1, size: 0x8, addend: 0x0, symName: __ZN5folly6detail13futexWaitImplEPKNS0_19EmulatedFutexAtomicIjEEjPKNSt3__16chrono10time_pointINS6_12system_clockENS6_8durationIxNS5_5ratioILl1ELl1000000EEEEEEEPKNS7_INS6_12steady_clockENS9_IxNSA_ILl1ELl1000000000EEEEEEEj, symObjAddr: 0x6D0, symBinAddr: 0x1B7E8, symSize: 0x5A8 }
  - { offset: 0xDC693, size: 0x8, addend: 0x0, symName: __ZN5folly18parking_lot_detail6Bucket5eraseEPNS0_12WaitNodeBaseE, symObjAddr: 0xC78, symBinAddr: 0x1BD90, symSize: 0x6C }
  - { offset: 0xDC70A, size: 0x8, addend: 0x0, symName: __ZN5folly18parking_lot_detail12WaitNodeBase4wakeEv, symObjAddr: 0xCE4, symBinAddr: 0x1BDFC, symSize: 0x38 }
  - { offset: 0xDCE62, size: 0x8, addend: 0x0, symName: __ZN5folly18parking_lot_detail12WaitNodeBase4waitINSt3__16chrono12system_clockENS4_8durationIxNS3_5ratioILl1ELl1000000EEEEEEENS3_9cv_statusENS4_10time_pointIT_T0_EE, symObjAddr: 0xD1C, symBinAddr: 0x1BE34, symSize: 0x134 }
  - { offset: 0xDCFD1, size: 0x8, addend: 0x0, symName: __ZN5folly18parking_lot_detail12WaitNodeBase4waitINSt3__16chrono12steady_clockENS4_8durationIxNS3_5ratioILl1ELl1000000000EEEEEEENS3_9cv_statusENS4_10time_pointIT_T0_EE, symObjAddr: 0xE50, symBinAddr: 0x1BF68, symSize: 0x164 }
  - { offset: 0xDD727, size: 0x8, addend: 0x0, symName: __GLOBAL__sub_I_Futex.cpp, symObjAddr: 0x1070, symBinAddr: 0x1C0CC, symSize: 0x24 }
  - { offset: 0xE7887, size: 0x8, addend: 0x0, symName: __ZNSt3__111__introsortINS_17_ClassicAlgPolicyERZZNK5folly4json12_GLOBAL__N_17Printer11printObjectERKNS2_7dynamicEPKNS5_7ContextEENKUlT_T0_RKT1_E_clINS_11__wrap_iterIPNS_17reference_wrapperIKNS_4pairIS7_S6_EEEEEESQ_NS2_8FunctionIKFbS8_S8_EEEEEDaSC_SD_SG_EUlSO_SO_E_SP_Lb0EEEvSE_SE_SD_NS_15iterator_traitsISE_E15difference_typeEb, symObjAddr: 0x55CC, symBinAddr: 0x1FBA4, symSize: 0xB74 }
  - { offset: 0xEA33F, size: 0x8, addend: 0x0, symName: __ZNSt3__127__insertion_sort_incompleteB8ne200100INS_17_ClassicAlgPolicyERZZNK5folly4json12_GLOBAL__N_17Printer11printObjectERKNS2_7dynamicEPKNS5_7ContextEENKUlT_T0_RKT1_E_clINS_11__wrap_iterIPNS_17reference_wrapperIKNS_4pairIS7_S6_EEEEEESQ_NS2_8FunctionIKFbS8_S8_EEEEEDaSC_SD_SG_EUlSO_SO_E_SP_EEbSE_SE_SD_, symObjAddr: 0x62AC, symBinAddr: 0x20884, symSize: 0x320 }
  - { offset: 0xEAFAA, size: 0x8, addend: 0x0, symName: __ZNSt3__111__introsortINS_17_ClassicAlgPolicyERZZNK5folly4json12_GLOBAL__N_17Printer11printObjectERKNS2_7dynamicEPKNS5_7ContextEENKUlT_T0_RKT1_E_clINS_11__wrap_iterIPNS_17reference_wrapperIKNS_4pairIS7_S6_EEEEEESQ_NS_4lessIvEEEEDaSC_SD_SG_EUlSO_SO_E_SP_Lb0EEEvSE_SE_SD_NS_15iterator_traitsISE_E15difference_typeEb, symObjAddr: 0x65CC, symBinAddr: 0x20BA4, symSize: 0x9B0 }
  - { offset: 0xED57E, size: 0x8, addend: 0x0, symName: __ZNSt3__127__insertion_sort_incompleteB8ne200100INS_17_ClassicAlgPolicyERZZNK5folly4json12_GLOBAL__N_17Printer11printObjectERKNS2_7dynamicEPKNS5_7ContextEENKUlT_T0_RKT1_E_clINS_11__wrap_iterIPNS_17reference_wrapperIKNS_4pairIS7_S6_EEEEEESQ_NS_4lessIvEEEEDaSC_SD_SG_EUlSO_SO_E_SP_EEbSE_SE_SD_, symObjAddr: 0x70AC, symBinAddr: 0x21684, symSize: 0x2A4 }
  - { offset: 0xF5186, size: 0x8, addend: 0x0, symName: __ZNSt3__1plB8ne200100IcNS_11char_traitsIcEENS_9allocatorIcEEEENS_12basic_stringIT_T0_T1_EEPKS6_OS9_, symObjAddr: 0x2B04, symBinAddr: 0x1EBF4, symSize: 0x5C }
  - { offset: 0xF6AC8, size: 0x8, addend: 0x0, symName: __ZNSt3__111__introsortINS_17_ClassicAlgPolicyERZZNK5folly4json12_GLOBAL__N_17Printer11printObjectERKNS2_7dynamicEPKNS5_7ContextEENKUlT_T0_RKT1_E_clINS_11__wrap_iterIPNS_17reference_wrapperIKNS_4pairIS7_S6_EEEEEESQ_NS2_8FunctionIKFbS8_S8_EEEEEDaSC_SD_SG_EUlSO_SO_E_SP_Lb0EEEvSE_SE_SD_NS_15iterator_traitsISE_E15difference_typeEb, symObjAddr: 0x55CC, symBinAddr: 0x1FBA4, symSize: 0xB74 }
  - { offset: 0xF73B3, size: 0x8, addend: 0x0, symName: __ZNSt3__17__sort4B8ne200100INS_17_ClassicAlgPolicyERZZNK5folly4json12_GLOBAL__N_17Printer11printObjectERKNS2_7dynamicEPKNS5_7ContextEENKUlT_T0_RKT1_E_clINS_11__wrap_iterIPNS_17reference_wrapperIKNS_4pairIS7_S6_EEEEEESQ_NS2_8FunctionIKFbS8_S8_EEEEEDaSC_SD_SG_EUlSO_SO_E_SP_Li0EEEvSE_SE_SE_SE_SD_, symObjAddr: 0x6140, symBinAddr: 0x20718, symSize: 0x16C }
  - { offset: 0xF8166, size: 0x8, addend: 0x0, symName: __ZNSt3__17__sort4B8ne200100INS_17_ClassicAlgPolicyERZZNK5folly4json12_GLOBAL__N_17Printer11printObjectERKNS2_7dynamicEPKNS5_7ContextEENKUlT_T0_RKT1_E_clINS_11__wrap_iterIPNS_17reference_wrapperIKNS_4pairIS7_S6_EEEEEESQ_NS_4lessIvEEEEDaSC_SD_SG_EUlSO_SO_E_SP_Li0EEEvSE_SE_SE_SE_SD_, symObjAddr: 0x6F7C, symBinAddr: 0x21554, symSize: 0x130 }
  - { offset: 0xF8C2A, size: 0x8, addend: 0x0, symName: __ZNSt3__119__allocate_at_leastB8ne200100INS_9allocatorIjEEEENS_19__allocation_resultINS_16allocator_traitsIT_E7pointerEEERS5_m, symObjAddr: 0x8788, symBinAddr: 0x22434, symSize: 0x34 }
  - { offset: 0xF8CD0, size: 0x8, addend: 0x0, symName: __ZNKR5folly7dynamic2atIRmEENSt3__19enable_ifIXaantsr3std14is_convertibleIT_NS_5RangeIPKcEEEE5valuesr3std14is_convertibleIS5_S0_EE5valueERKS0_E4typeEOS5_, symObjAddr: 0x87BC, symBinAddr: 0x22468, symSize: 0x88 }
  - { offset: 0xFB4E2, size: 0x8, addend: 0x0, symName: __ZN5folly6detail22callWithKeyAndPairArgsINS_7dynamicES2_ZNS_3f146detail11F14BasicMapIS2_S2_NS0_13DynamicHasherENS0_15DynamicKeyEqualENSt3__19allocatorINS8_4pairIKS2_S2_EEEEE7emplaceIJRKNS8_21piecewise_construct_tENS8_5tupleIJOS2_EEESL_EEENSA_INS8_19__hash_map_iteratorINS8_15__hash_iteratorIPNS8_11__hash_nodeINS8_17__hash_value_typeIS2_S2_EEPvEEEEEEbEEDpOT_EUlRT_DpOT0_E_S2_SK_SK_Li0EEEDaOT1_RKT2_ONSJ_IJT3_EEEONSJ_IJT4_EEE, symObjAddr: 0x96C4, symBinAddr: 0x22E04, symSize: 0x58 }
  - { offset: 0xFC483, size: 0x8, addend: 0x0, symName: __ZN5folly6detail15reserveInTargetIA87_cxJPNSt3__112basic_stringIcNS3_11char_traitsIcEENS3_9allocatorIcEEEEEEEvRKT_RKT0_DpRKT1_, symObjAddr: 0x7D6C, symBinAddr: 0x21E74, symSize: 0x50 }
  - { offset: 0xFC940, size: 0x8, addend: 0x0, symName: __ZN5folly6detail22callWithKeyAndPairArgsINS_7dynamicES2_ZNS_3f146detail11F14BasicMapIS2_S2_NS0_13DynamicHasherENS0_15DynamicKeyEqualENSt3__19allocatorINS8_4pairIKS2_S2_EEEEE7emplaceIJRmDnEEENSA_INS8_19__hash_map_iteratorINS8_15__hash_iteratorIPNS8_11__hash_nodeINS8_17__hash_value_typeIS2_S2_EEPvEEEEEEbEEDpOT_EUlRT_DpOT0_E_mSG_ODnLi0EEEDaOT1_RKT2_ONS8_5tupleIJT3_EEEONS18_IJT4_EEE, symObjAddr: 0x8844, symBinAddr: 0x224F0, symSize: 0x70 }
  - { offset: 0xFCBA5, size: 0x8, addend: 0x0, symName: __ZN5folly6detail15reserveInTargetIA8_cNSt3__112basic_stringIcNS3_11char_traitsIcEENS3_9allocatorIcEEEEJcPS9_EEEvRKT_RKT0_DpRKT1_, symObjAddr: 0x94C8, symBinAddr: 0x22CA4, symSize: 0x3C }
  - { offset: 0xFCC3A, size: 0x8, addend: 0x0, symName: __ZN5folly6detail15reserveInTargetIA8_cNSt3__112basic_stringIcNS3_11char_traitsIcEENS3_9allocatorIcEEEEJcPS9_EEEvRKT_RKT0_DpRKT1_, symObjAddr: 0x94C8, symBinAddr: 0x22CA4, symSize: 0x3C }
  - { offset: 0xFCC56, size: 0x8, addend: 0x0, symName: __ZN5folly6detail15reserveInTargetIA8_cNSt3__112basic_stringIcNS3_11char_traitsIcEENS3_9allocatorIcEEEEJcPS9_EEEvRKT_RKT0_DpRKT1_, symObjAddr: 0x94C8, symBinAddr: 0x22CA4, symSize: 0x3C }
  - { offset: 0xFCC72, size: 0x8, addend: 0x0, symName: __ZN5folly6detail15reserveInTargetIA8_cNSt3__112basic_stringIcNS3_11char_traitsIcEENS3_9allocatorIcEEEEJcPS9_EEEvRKT_RKT0_DpRKT1_, symObjAddr: 0x94C8, symBinAddr: 0x22CA4, symSize: 0x3C }
  - { offset: 0xFCC8E, size: 0x8, addend: 0x0, symName: __ZN5folly6detail15reserveInTargetIA8_cNSt3__112basic_stringIcNS3_11char_traitsIcEENS3_9allocatorIcEEEEJcPS9_EEEvRKT_RKT0_DpRKT1_, symObjAddr: 0x94C8, symBinAddr: 0x22CA4, symSize: 0x3C }
  - { offset: 0xFFD1A, size: 0x8, addend: 0x0, symName: __ZN5folly4json20firstEscapableInWordILb1EyEEmT0_RKNS0_18serialization_optsE, symObjAddr: 0xA764, symBinAddr: 0x23A28, symSize: 0xD0 }
  - { offset: 0xFFFFC, size: 0x8, addend: 0x0, symName: __ZN5folly4json13stripCommentsENS_5RangeIPKcEE, symObjAddr: 0x1210, symBinAddr: 0x1D300, symSize: 0x1F4 }
  - { offset: 0x1003D1, size: 0x8, addend: 0x0, symName: __ZN5folly4json29buildExtraAsciiToEscapeBitmapENS_5RangeIPKcEE, symObjAddr: 0x0, symBinAddr: 0x1C0F0, symSize: 0x64 }
  - { offset: 0x1009A8, size: 0x8, addend: 0x0, symName: __ZN5folly4json12_GLOBAL__N_110parseValueERNS1_5InputEPNSt3__113unordered_mapIPKNS_7dynamicENS0_14parse_metadataENS4_4hashIS8_EENS4_8equal_toIS8_EENS4_9allocatorINS4_4pairIKS8_S9_EEEEEE, symObjAddr: 0x15A0, symBinAddr: 0x1D690, symSize: 0xE50 }
  - { offset: 0x1032E9, size: 0x8, addend: 0x0, symName: __ZN5folly4json12_GLOBAL__N_116make_parse_errorEjRKNSt3__112basic_stringIcNS2_11char_traitsIcEENS2_9allocatorIcEEEESA_, symObjAddr: 0x9094, symBinAddr: 0x22870, symSize: 0x108 }
  - { offset: 0x10397D, size: 0x8, addend: 0x0, symName: __ZN5folly4json9serializeERKNS_7dynamicERKNS0_18serialization_optsE, symObjAddr: 0x64, symBinAddr: 0x1C154, symSize: 0x78 }
  - { offset: 0x103B95, size: 0x8, addend: 0x0, symName: __ZN5folly4json12escapeStringENS_5RangeIPKcEERNSt3__112basic_stringIcNS5_11char_traitsIcEENS5_9allocatorIcEEEERKNS0_18serialization_optsE, symObjAddr: 0x864, symBinAddr: 0x1C954, symSize: 0x14 }
  - { offset: 0x103BF6, size: 0x8, addend: 0x0, symName: __ZN5folly4json16escapeStringImplILb0EEEvNS_5RangeIPKcEERNSt3__112basic_stringIcNS6_11char_traitsIcEENS6_9allocatorIcEEEERKNS0_18serialization_optsE, symObjAddr: 0xD28, symBinAddr: 0x1CE18, symSize: 0x4E8 }
  - { offset: 0x104275, size: 0x8, addend: 0x0, symName: __ZN5folly4json16escapeStringImplILb1EEEvNS_5RangeIPKcEERNSt3__112basic_stringIcNS6_11char_traitsIcEENS6_9allocatorIcEEEERKNS0_18serialization_optsE, symObjAddr: 0x878, symBinAddr: 0x1C968, symSize: 0x4B0 }
  - { offset: 0x1051F2, size: 0x8, addend: 0x0, symName: __ZN5folly2toIdEENSt3__19enable_ifIXntsr3std7is_sameINS_5RangeIPKcEET_EE5valueES7_E4typeES6_, symObjAddr: 0x3508, symBinAddr: 0x1EDBC, symSize: 0xA0 }
  - { offset: 0x105BE8, size: 0x8, addend: 0x0, symName: __ZN5folly21parseJsonWithMetadataENS_5RangeIPKcEEPNSt3__113unordered_mapIPKNS_7dynamicENS_4json14parse_metadataENS4_4hashIS8_EENS4_8equal_toIS8_EENS4_9allocatorINS4_4pairIKS8_SA_EEEEEE, symObjAddr: 0x1404, symBinAddr: 0x1D4F4, symSize: 0xDC }
  - { offset: 0x105DE8, size: 0x8, addend: 0x0, symName: __ZN5folly21parseJsonWithMetadataENS_5RangeIPKcEERKNS_4json18serialization_optsEPNSt3__113unordered_mapIPKNS_7dynamicENS4_14parse_metadataENS8_4hashISC_EENS8_8equal_toISC_EENS8_9allocatorINS8_4pairIKSC_SD_EEEEEE, symObjAddr: 0x14E0, symBinAddr: 0x1D5D0, symSize: 0xC0 }
  - { offset: 0x106276, size: 0x8, addend: 0x0, symName: __ZN5folly2toINSt3__112basic_stringIcNS1_11char_traitsIcEENS1_9allocatorIcEEEEJA16_ciA11_cELi0EEET_DpRKT0_, symObjAddr: 0x9BEC, symBinAddr: 0x23234, symSize: 0x54 }
  - { offset: 0x106449, size: 0x8, addend: 0x0, symName: __ZN5follyleINS_5RangeIPKcEES3_EENSt3__19enable_ifIXsr6detail23ComparableAsStringPieceIT_T0_EE5valueEbE4typeERKS7_RKS8_, symObjAddr: 0xA0BC, symBinAddr: 0x23660, symSize: 0x54 }
  - { offset: 0x106576, size: 0x8, addend: 0x0, symName: __ZN5folly9parseJsonENS_5RangeIPKcEE, symObjAddr: 0x257C, symBinAddr: 0x1E66C, symSize: 0xD8 }
  - { offset: 0x10675F, size: 0x8, addend: 0x0, symName: __ZN5folly9parseJsonENS_5RangeIPKcEERKNS_4json18serialization_optsE, symObjAddr: 0x2654, symBinAddr: 0x1E744, symSize: 0xA0 }
  - { offset: 0x1068EC, size: 0x8, addend: 0x0, symName: __ZN5folly6toJsonERKNS_7dynamicE, symObjAddr: 0x26F4, symBinAddr: 0x1E7E4, symSize: 0xD8 }
  - { offset: 0x106AD1, size: 0x8, addend: 0x0, symName: __ZN5folly12toPrettyJsonERKNS_7dynamicE, symObjAddr: 0x27CC, symBinAddr: 0x1E8BC, symSize: 0xD4 }
  - { offset: 0x106CC6, size: 0x8, addend: 0x0, symName: __ZN5folly7PrintToERKNS_7dynamicEPNSt3__113basic_ostreamIcNS3_11char_traitsIcEEEE, symObjAddr: 0x29D0, symBinAddr: 0x1EAC0, symSize: 0x134 }
  - { offset: 0x1088B0, size: 0x8, addend: 0x0, symName: __ZN5folly2toINSt3__112basic_stringIcNS1_11char_traitsIcEENS1_9allocatorIcEEEEJcS7_ELi0EEET_DpRKT0_, symObjAddr: 0x5364, symBinAddr: 0x1FA58, symSize: 0x8C }
  - { offset: 0x109122, size: 0x8, addend: 0x0, symName: __ZN5folly2toINSt3__112basic_stringIcNS1_11char_traitsIcEENS1_9allocatorIcEEEEJA87_cxELi0EEET_DpRKT0_, symObjAddr: 0x7828, symBinAddr: 0x21E00, symSize: 0x74 }
  - { offset: 0x1099C7, size: 0x8, addend: 0x0, symName: __ZN5folly2toINSt3__112basic_stringIcNS1_11char_traitsIcEENS1_9allocatorIcEEEEJA11_cccELi0EEET_DpRKT0_, symObjAddr: 0x919C, symBinAddr: 0x22978, symSize: 0x54 }
  - { offset: 0x109FE9, size: 0x8, addend: 0x0, symName: __ZN5folly2toINSt3__112basic_stringIcNS1_11char_traitsIcEENS1_9allocatorIcEEEEJA8_cS7_cELi0EEET_DpRKT0_, symObjAddr: 0x9248, symBinAddr: 0x22A24, symSize: 0x7C }
  - { offset: 0x10A24A, size: 0x8, addend: 0x0, symName: __ZN5folly2toINSt3__112basic_stringIcNS1_11char_traitsIcEENS1_9allocatorIcEEEEJA26_cjS7_A3_cS7_ELi0EEET_DpRKT0_, symObjAddr: 0x91F4, symBinAddr: 0x229D0, symSize: 0x54 }
  - { offset: 0x10A455, size: 0x8, addend: 0x0, symName: __ZN5folly11toAppendFitIJA11_cccPNSt3__112basic_stringIcNS2_11char_traitsIcEENS2_9allocatorIcEEEEELi0EEEvDpRKT_, symObjAddr: 0x9620, symBinAddr: 0x22D60, symSize: 0x4C }
  - { offset: 0x10A551, size: 0x8, addend: 0x0, symName: __ZN5folly11toAppendFitIJA26_cjNSt3__112basic_stringIcNS2_11char_traitsIcEENS2_9allocatorIcEEEEA3_cS8_PS8_ELi0EEEvDpRKT_, symObjAddr: 0x92C4, symBinAddr: 0x22AA0, symSize: 0x74 }
  - { offset: 0x10A8EE, size: 0x8, addend: 0x0, symName: __ZN5folly11toAppendFitIJA16_ciA11_cPNSt3__112basic_stringIcNS3_11char_traitsIcEENS3_9allocatorIcEEEEELi0EEEvDpRKT_, symObjAddr: 0x9F10, symBinAddr: 0x234B4, symSize: 0x5C }
  - { offset: 0x10AADB, size: 0x8, addend: 0x0, symName: __ZN5folly8toAppendINSt3__112basic_stringIcNS1_11char_traitsIcEENS1_9allocatorIcEEEEiEENS1_9enable_ifIXaaaaaa13is_integral_vIT0_E11is_signed_vIS9_Esr12IsSomeStringIT_EE5valuegestS9_Li4EEvE4typeES9_PSA_, symObjAddr: 0xA038, symBinAddr: 0x235DC, symSize: 0x84 }
  - { offset: 0x10C8A8, size: 0x8, addend: 0x0, symName: __ZNK5folly4json12_GLOBAL__N_17PrinterclERKNS_7dynamicEPKNS2_7ContextE, symObjAddr: 0xDC, symBinAddr: 0x1C1CC, symSize: 0x788 }
  - { offset: 0x10EBBF, size: 0x8, addend: 0x0, symName: __ZNK5folly7dynamic6asImplIbEET_v, symObjAddr: 0x5038, symBinAddr: 0x1F72C, symSize: 0x114 }
  - { offset: 0x10EF0C, size: 0x8, addend: 0x0, symName: __ZN5folly15expected_detail30expected_detail_ExpectedHelper14ExpectedHelper12thenOrThrow_IRNS0_15ExpectedStorageINS_5RangeIPKcEENS_14ConversionCodeELNS0_11StorageTypeE1EEENS_6detail18CheckTrailingSpaceEZNS_2toIbEENSt3__19enable_ifIXntsr3std7is_sameIS8_T_EE5valueESI_E4typeES8_EUlS9_E_NS_8ExpectedINS_4UnitES9_EEvLb0ELi0EEET2_OSI_OT0_OT1_, symObjAddr: 0x514C, symBinAddr: 0x1F840, symSize: 0x2C }
  - { offset: 0x10EF20, size: 0x8, addend: 0x0, symName: __ZNK5folly4json12_GLOBAL__N_17Printer7newlineEv, symObjAddr: 0x5210, symBinAddr: 0x1F904, symSize: 0xD8 }
  - { offset: 0x10F48E, size: 0x8, addend: 0x0, symName: __ZNKR5folly7dynamic2atIiEENSt3__19enable_ifIXaantsr3std14is_convertibleIT_NS_5RangeIPKcEEEE5valuesr3std14is_convertibleIS4_S0_EE5valueERKS0_E4typeEOS4_, symObjAddr: 0x7E04, symBinAddr: 0x21F0C, symSize: 0x88 }
  - { offset: 0x10F864, size: 0x8, addend: 0x0, symName: __ZNSt3__16vectorINS_17reference_wrapperIKNS_4pairIKN5folly7dynamicES4_EEEENS_9allocatorIS8_EEE16__init_with_sizeB8ne200100INS4_19const_item_iteratorESD_EEvT_T0_m, symObjAddr: 0x54D4, symBinAddr: 0x1FB2C, symSize: 0x78 }
  - { offset: 0x10FC2F, size: 0x8, addend: 0x0, symName: __ZNK5folly4json12_GLOBAL__N_17Printer7printKVERKNS_7dynamicERKNSt3__14pairIS4_S3_EEPKNS2_7ContextE, symObjAddr: 0x7350, symBinAddr: 0x21928, symSize: 0x4D8 }
  - { offset: 0x111263, size: 0x8, addend: 0x0, symName: __ZNK5folly4json12_GLOBAL__N_17Printer12printKVPairsINS_7dynamic19const_item_iteratorEEEvRKS4_T_S8_PKNS2_7ContextE, symObjAddr: 0x52E8, symBinAddr: 0x1F9DC, symSize: 0x7C }
  - { offset: 0x111492, size: 0x8, addend: 0x0, symName: __ZNK5folly4json12_GLOBAL__N_17PrinterclERKNS_7dynamicEPKNS2_7ContextE.cold.1, symObjAddr: 0xA8E4, symBinAddr: 0x391E8, symSize: 0x1C }
  - { offset: 0x111567, size: 0x8, addend: 0x0, symName: __ZN5folly4json12_GLOBAL__N_17Printer18contextDescriptionEPKNS2_7ContextE, symObjAddr: 0x2B60, symBinAddr: 0x1EC50, symSize: 0x168 }
  - { offset: 0x111DCA, size: 0x8, addend: 0x0, symName: __ZNK5folly4json12_GLOBAL__N_17PrinterclERKNS_7dynamicEPKNS2_7ContextE.cold.4, symObjAddr: 0xA938, symBinAddr: 0x39204, symSize: 0x1C }
  - { offset: 0x111EEA, size: 0x8, addend: 0x0, symName: __ZN6google17MakeCheckOpStringIPKhS2_EEPNSt3__112basic_stringIcNS3_11char_traitsIcEENS3_9allocatorIcEEEERKT_RKT0_PKc, symObjAddr: 0xA834, symBinAddr: 0x23AF8, symSize: 0xB0 }
  - { offset: 0x11276D, size: 0x8, addend: 0x0, symName: __ZNSt3__112__hash_tableINS_17__hash_value_typeIPKN5folly7dynamicENS2_4json14parse_metadataEEENS_22__unordered_map_hasherIS5_S8_NS_4hashIS5_EENS_8equal_toIS5_EELb1EEENS_21__unordered_map_equalIS5_S8_SD_SB_Lb1EEENS_9allocatorIS8_EEE21__emplace_unique_implIJPS3_S7_EEENS_4pairINS_15__hash_iteratorIPNS_11__hash_nodeIS8_PvEEEEbEEDpOT_, symObjAddr: 0xA1DC, symBinAddr: 0x23780, symSize: 0x78 }
  - { offset: 0x112A95, size: 0x8, addend: 0x0, symName: __ZN5folly4json12_GLOBAL__N_15Input14skipWhitespaceEv, symObjAddr: 0x23F0, symBinAddr: 0x1E4E0, symSize: 0x9C }
  - { offset: 0x112B21, size: 0x8, addend: 0x0, symName: __ZNK5folly4json12_GLOBAL__N_15Input5errorEPKc, symObjAddr: 0x248C, symBinAddr: 0x1E57C, symSize: 0xF0 }
  - { offset: 0x112B2C, size: 0x8, addend: 0x0, symName: __ZNK5folly4json12_GLOBAL__N_15Input5errorEPKc, symObjAddr: 0x248C, symBinAddr: 0x1E57C, symSize: 0xF0 }
  - { offset: 0x113DDA, size: 0x8, addend: 0x0, symName: __ZN5folly4json12_GLOBAL__N_15Input7consumeENS_5RangeIPKcEE, symObjAddr: 0x81C8, symBinAddr: 0x21F94, symSize: 0xA0 }
  - { offset: 0x114025, size: 0x8, addend: 0x0, symName: __ZNSt3__16vectorIjNS_9allocatorIjEEE9push_backB8ne200100EOj, symObjAddr: 0x8268, symBinAddr: 0x22034, symSize: 0xDC }
  - { offset: 0x1143D1, size: 0x8, addend: 0x0, symName: __ZN5folly4json12_GLOBAL__N_15Input6expectEc, symObjAddr: 0x83B4, symBinAddr: 0x22180, symSize: 0x148 }
  - { offset: 0x11476D, size: 0x8, addend: 0x0, symName: __ZNSt3__112basic_stringIcNS_11char_traitsIcEENS_9allocatorIcEEE6appendB8ne200100IPKcLi0EEERS5_T_SA_, symObjAddr: 0x9A78, symBinAddr: 0x230C0, symSize: 0x174 }
  - { offset: 0x114E7E, size: 0x8, addend: 0x0, symName: '__ZZN5folly4json12_GLOBAL__N_119decodeUnicodeEscapeERNS1_5InputERNSt3__112basic_stringIcNS4_11char_traitsIcEENS4_9allocatorIcEEEEENK3$_1clEv', symObjAddr: 0x9D80, symBinAddr: 0x23324, symSize: 0x190 }
  - { offset: 0x11514E, size: 0x8, addend: 0x0, symName: __ZN5folly11toAppendFitIJA16_ciA11_cPNSt3__112basic_stringIcNS3_11char_traitsIcEENS3_9allocatorIcEEEEELi0EEEvDpRKT_, symObjAddr: 0x9F10, symBinAddr: 0x234B4, symSize: 0x5C }
  - { offset: 0x115159, size: 0x8, addend: 0x0, symName: __ZNSt3__16vectorIN5folly7dynamicENS_9allocatorIS2_EEE9push_backB8ne200100EOS2_, symObjAddr: 0x84FC, symBinAddr: 0x222C8, symSize: 0x44 }
  - { offset: 0x115274, size: 0x8, addend: 0x0, symName: __ZNSt3__16vectorIjNS_9allocatorIjEEE9push_backB8ne200100EOj, symObjAddr: 0x8268, symBinAddr: 0x22034, symSize: 0xDC }
  - { offset: 0x11561B, size: 0x8, addend: 0x0, symName: __ZNR5folly7dynamicixIRmEENSt3__19enable_ifIXaantsr3std14is_convertibleIT_NS_5RangeIPKcEEEE5valuesr3std14is_convertibleIS5_S0_EE5valueERS0_E4typeEOS5_, symObjAddr: 0x8344, symBinAddr: 0x22110, symSize: 0x70 }
  - { offset: 0x115626, size: 0x8, addend: 0x0, symName: __ZNR5folly7dynamicixIRmEENSt3__19enable_ifIXaantsr3std14is_convertibleIT_NS_5RangeIPKcEEEE5valuesr3std14is_convertibleIS5_S0_EE5valueERS0_E4typeEOS5_, symObjAddr: 0x8344, symBinAddr: 0x22110, symSize: 0x70 }
  - { offset: 0x1157C6, size: 0x8, addend: 0x0, symName: __ZN5folly4json12_GLOBAL__N_15Input6expectEc, symObjAddr: 0x83B4, symBinAddr: 0x22180, symSize: 0x148 }
  - { offset: 0x115934, size: 0x8, addend: 0x0, symName: __ZN5folly11toAppendFitIJA11_cccPNSt3__112basic_stringIcNS2_11char_traitsIcEENS2_9allocatorIcEEEEELi0EEEvDpRKT_, symObjAddr: 0x9620, symBinAddr: 0x22D60, symSize: 0x4C }
  - { offset: 0x1159C8, size: 0x8, addend: 0x0, symName: __ZN5folly4json12_GLOBAL__N_15Input10skipDigitsEv, symObjAddr: 0xA110, symBinAddr: 0x236B4, symSize: 0x74 }
  - { offset: 0x115A9A, size: 0x8, addend: 0x0, symName: __ZNK5folly5RangeIPKcE7compareERKS3_, symObjAddr: 0xA184, symBinAddr: 0x23728, symSize: 0x58 }
  - { offset: 0x115D2D, size: 0x8, addend: 0x0, symName: __ZNK5folly7dynamic20print_as_pseudo_jsonERNSt3__113basic_ostreamIcNS1_11char_traitsIcEEEE, symObjAddr: 0x28A0, symBinAddr: 0x1E990, symSize: 0x130 }
  - { offset: 0x116252, size: 0x8, addend: 0x0, symName: __ZNK5folly4json12_GLOBAL__N_17Printer7Context19locationDescriptionEv, symObjAddr: 0x39A4, symBinAddr: 0x1EE5C, symSize: 0x200 }
  - { offset: 0x116AEC, size: 0x8, addend: 0x0, symName: __ZN5folly4json11print_errorD1Ev, symObjAddr: 0x2CC8, symBinAddr: 0x1EDB8, symSize: 0x4 }
  - { offset: 0x116B0E, size: 0x8, addend: 0x0, symName: __ZN5folly4json11print_errorD1Ev, symObjAddr: 0x2CC8, symBinAddr: 0x1EDB8, symSize: 0x4 }
  - { offset: 0x117674, size: 0x8, addend: 0x0, symName: __ZN5folly2toIdEENSt3__19enable_ifIXntsr3std7is_sameINS_5RangeIPKcEET_EE5valueES7_E4typeES6_.cold.1, symObjAddr: 0xA998, symBinAddr: 0x39220, symSize: 0x14 }
  - { offset: 0x117D6C, size: 0x8, addend: 0x0, symName: __ZN5folly4json12_GLOBAL__N_17Printer10toStringOrERKNS_7dynamicEPKc, symObjAddr: 0x3EFC, symBinAddr: 0x1F2D4, symSize: 0x158 }
  - { offset: 0x118174, size: 0x8, addend: 0x0, symName: __ZNSt3__16vectorINS_12basic_stringIcNS_11char_traitsIcEENS_9allocatorIcEEEENS4_IS6_EEE9push_backB8ne200100EOS6_, symObjAddr: 0x3BA4, symBinAddr: 0x1F05C, symSize: 0x12C }
  - { offset: 0x118574, size: 0x8, addend: 0x0, symName: __ZNSt3__119basic_ostringstreamIcNS_11char_traitsIcEENS_9allocatorIcEEEC1B8ne200100Ev, symObjAddr: 0x3CD0, symBinAddr: 0x1F188, symSize: 0xC4 }
  - { offset: 0x11857F, size: 0x8, addend: 0x0, symName: __ZNSt3__119basic_ostringstreamIcNS_11char_traitsIcEENS_9allocatorIcEEEC1B8ne200100Ev, symObjAddr: 0x3CD0, symBinAddr: 0x1F188, symSize: 0xC4 }
  - { offset: 0x118673, size: 0x8, addend: 0x0, symName: __ZNSt3__116ostream_iteratorINS_12basic_stringIcNS_11char_traitsIcEENS_9allocatorIcEEEEcS3_EaSB8ne200100ERKS6_, symObjAddr: 0x41F8, symBinAddr: 0x1F5D0, symSize: 0x6C }
  - { offset: 0x1187C1, size: 0x8, addend: 0x0, symName: __ZNKSt3__115basic_stringbufIcNS_11char_traitsIcEENS_9allocatorIcEEE3strB8ne200100IS4_EENS_12basic_stringIcS2_T_EERKS8_, symObjAddr: 0x4264, symBinAddr: 0x1F63C, symSize: 0x90 }
  - { offset: 0x118A06, size: 0x8, addend: 0x0, symName: __ZNKSt3__115basic_stringbufIcNS_11char_traitsIcEENS_9allocatorIcEEE4viewB8ne200100Ev, symObjAddr: 0x42F4, symBinAddr: 0x1F6CC, symSize: 0x4C }
  - { offset: 0x118A84, size: 0x8, addend: 0x0, symName: __ZNSt3__119basic_ostringstreamIcNS_11char_traitsIcEENS_9allocatorIcEEED1Ev, symObjAddr: 0x3D94, symBinAddr: 0x1F24C, symSize: 0x88 }
  - { offset: 0x119004, size: 0x8, addend: 0x0, symName: __ZNSt3__115basic_stringbufIcNS_11char_traitsIcEENS_9allocatorIcEEEC2B8ne200100Ej, symObjAddr: 0x4054, symBinAddr: 0x1F42C, symSize: 0xA0 }
  - { offset: 0x11933C, size: 0x8, addend: 0x0, symName: __ZNSt3__115basic_stringbufIcNS_11char_traitsIcEENS_9allocatorIcEEE15__init_buf_ptrsB8ne200100Ev, symObjAddr: 0x40F4, symBinAddr: 0x1F4CC, symSize: 0x104 }
  - { offset: 0x1196F5, size: 0x8, addend: 0x0, symName: __ZNKSt3__115basic_stringbufIcNS_11char_traitsIcEENS_9allocatorIcEEE4viewB8ne200100Ev, symObjAddr: 0x42F4, symBinAddr: 0x1F6CC, symSize: 0x4C }
  - { offset: 0x119A49, size: 0x8, addend: 0x0, symName: __ZN5folly4json11print_errorD0Ev, symObjAddr: 0x43CC, symBinAddr: 0x1F718, symSize: 0x14 }
  - { offset: 0x11AE30, size: 0x8, addend: 0x0, symName: __ZN5folly15expected_detail30expected_detail_ExpectedHelper14ExpectedHelper12thenOrThrow_IRNS0_15ExpectedStorageINS_5RangeIPKcEENS_14ConversionCodeELNS0_11StorageTypeE1EEENS_6detail18CheckTrailingSpaceEZNS_2toIbEENSt3__19enable_ifIXntsr3std7is_sameIS8_T_EE5valueESI_E4typeES8_EUlS9_E_NS_8ExpectedINS_4UnitES9_EEvLb0ELi0EEET2_OSI_OT0_OT1_, symObjAddr: 0x514C, symBinAddr: 0x1F840, symSize: 0x2C }
  - { offset: 0x11AE86, size: 0x8, addend: 0x0, symName: __ZZN5folly2toIbEENSt3__19enable_ifIXntsr3std7is_sameINS_5RangeIPKcEET_EE5valueES7_E4typeES6_ENKUlNS_14ConversionCodeEE_clESA_, symObjAddr: 0x5178, symBinAddr: 0x1F86C, symSize: 0x48 }
  - { offset: 0x11AECB, size: 0x8, addend: 0x0, symName: __ZNK5folly7dynamic6asImplIbEET_v.cold.1, symObjAddr: 0xAA14, symBinAddr: 0x39234, symSize: 0x20 }
  - { offset: 0x11AF3B, size: 0x8, addend: 0x0, symName: __ZN5folly15expected_detail30expected_detail_ExpectedHelper14ExpectedHelper12thenOrThrow_IRNS0_15ExpectedStorageINS_5RangeIPKcEENS_14ConversionCodeELNS0_11StorageTypeE1EEENS_6detail18CheckTrailingSpaceEZNS_2toIbEENSt3__19enable_ifIXntsr3std7is_sameIS8_T_EE5valueESI_E4typeES8_EUlS9_E_NS_8ExpectedINS_4UnitES9_EEvLb0ELi0EEET2_OSI_OT0_OT1_.cold.1, symObjAddr: 0xAA34, symBinAddr: 0x39254, symSize: 0x24 }
  - { offset: 0x11AF5D, size: 0x8, addend: 0x0, symName: __ZZN5folly2toIbEENSt3__19enable_ifIXntsr3std7is_sameINS_5RangeIPKcEET_EE5valueES7_E4typeES6_ENKUlNS_14ConversionCodeEE_clESA_, symObjAddr: 0x5178, symBinAddr: 0x1F86C, symSize: 0x48 }
  - { offset: 0x11B02C, size: 0x8, addend: 0x0, symName: __ZZN5folly2toIbEENSt3__19enable_ifIXntsr3std7is_sameINS_5RangeIPKcEET_EE5valueES7_E4typeES6_ENKUlNS_14ConversionCodeEE0_clESA_, symObjAddr: 0x51C0, symBinAddr: 0x1F8B4, symSize: 0x50 }
  - { offset: 0x11B2DD, size: 0x8, addend: 0x0, symName: __ZNSt3__16vectorINS_17reference_wrapperIKNS_4pairIKN5folly7dynamicES4_EEEENS_9allocatorIS8_EEE16__init_with_sizeB8ne200100INS4_19const_item_iteratorESD_EEvT_T0_m, symObjAddr: 0x54D4, symBinAddr: 0x1FB2C, symSize: 0x78 }
  - { offset: 0x11B40F, size: 0x8, addend: 0x0, symName: __ZN5folly6detail18ToAppendStrImplAllINSt3__116integer_sequenceImJLm0ELm1ELm2EEEEE4callIJcNS2_12basic_stringIcNS2_11char_traitsIcEENS2_9allocatorIcEEEEPSC_EEEvDpRKT_, symObjAddr: 0x53F0, symBinAddr: 0x1FAE4, symSize: 0x48 }
  - { offset: 0x11BE19, size: 0x8, addend: 0x0, symName: __ZN5folly6detail18ToAppendStrImplAllINSt3__116integer_sequenceImJLm0ELm1ELm2EEEEE4callIJA87_cxPNS2_12basic_stringIcNS2_11char_traitsIcEENS2_9allocatorIcEEEEEEEvDpRKT_, symObjAddr: 0x7DBC, symBinAddr: 0x21EC4, symSize: 0x48 }
  - { offset: 0x11C946, size: 0x8, addend: 0x0, symName: __ZN5folly6detail8function14FunctionTraitsIKFbRKNS_7dynamicES5_EE10uninitCallES5_S5_RNS1_4DataE, symObjAddr: 0x8130, symBinAddr: 0x391DC, symSize: 0xC }
  - { offset: 0x11DE90, size: 0x8, addend: 0x0, symName: __ZNSt3__119__allocate_at_leastB8ne200100INS_9allocatorIjEEEENS_19__allocation_resultINS_16allocator_traitsIT_E7pointerEEERS5_m, symObjAddr: 0x8788, symBinAddr: 0x22434, symSize: 0x34 }
  - { offset: 0x11DFBA, size: 0x8, addend: 0x0, symName: __ZNKR5folly7dynamic2atIRmEENSt3__19enable_ifIXaantsr3std14is_convertibleIT_NS_5RangeIPKcEEEE5valuesr3std14is_convertibleIS5_S0_EE5valueERKS0_E4typeEOS5_, symObjAddr: 0x87BC, symBinAddr: 0x22468, symSize: 0x88 }
  - { offset: 0x11E197, size: 0x8, addend: 0x0, symName: __ZNSt3__16vectorIN5folly7dynamicENS_9allocatorIS2_EEE24__emplace_back_slow_pathIJS2_EEEPS2_DpOT_, symObjAddr: 0x8540, symBinAddr: 0x2230C, symSize: 0x128 }
  - { offset: 0x11EA77, size: 0x8, addend: 0x0, symName: __ZN5folly3f146detail11F14BasicMapINS_7dynamicES3_NS_6detail13DynamicHasherENS4_15DynamicKeyEqualENSt3__19allocatorINS7_4pairIKS3_S3_EEEEE9findLocalISD_mEENS_8OptionalIDTcldtfp_5beginLi0EEEEERT_RKT0_, symObjAddr: 0x88B4, symBinAddr: 0x22560, symSize: 0x168 }
  - { offset: 0x11EF19, size: 0x8, addend: 0x0, symName: __ZNSt3__112__hash_tableINS_17__hash_value_typeIN5folly7dynamicES3_EENS_22__unordered_map_hasherIS3_S4_NS2_6detail13DynamicHasherENS6_15DynamicKeyEqualELb1EEENS_21__unordered_map_equalIS3_S4_S8_S7_Lb1EEENS_9allocatorIS4_EEE21__emplace_unique_implIJRmDnEEENS_4pairINS_15__hash_iteratorIPNS_11__hash_nodeIS4_PvEEEEbEEDpOT_, symObjAddr: 0x8AA4, symBinAddr: 0x22750, symSize: 0x88 }
  - { offset: 0x11F410, size: 0x8, addend: 0x0, symName: __ZNKSt3__122__unordered_map_hasherImNS_17__hash_value_typeImN5folly7dynamicEEENS2_6detail13DynamicHasherENS2_3f146detail11F14BasicMapIS3_S3_S6_NS5_15DynamicKeyEqualENS_9allocatorINS_4pairIKS3_S3_EEEEE14BottomKeyEqualImEELb1EEclB8ne200100ERKm, symObjAddr: 0x8A1C, symBinAddr: 0x226C8, symSize: 0x88 }
  - { offset: 0x11F5D3, size: 0x8, addend: 0x0, symName: __ZNSt3__112__hash_tableINS_17__hash_value_typeIN5folly7dynamicES3_EENS_22__unordered_map_hasherIS3_S4_NS2_6detail13DynamicHasherENS6_15DynamicKeyEqualELb1EEENS_21__unordered_map_equalIS3_S4_S8_S7_Lb1EEENS_9allocatorIS4_EEE16__construct_nodeIJRmDnEEENS_10unique_ptrINS_11__hash_nodeIS4_PvEENS_22__hash_node_destructorINSC_ISK_EEEEEEDpOT_, symObjAddr: 0x8B2C, symBinAddr: 0x227D8, symSize: 0x98 }
  - { offset: 0x120693, size: 0x8, addend: 0x0, symName: __ZN5folly4json11parse_errorD1Ev, symObjAddr: 0x91F0, symBinAddr: 0x229CC, symSize: 0x4 }
  - { offset: 0x1206B5, size: 0x8, addend: 0x0, symName: __ZN5folly4json11parse_errorD1Ev, symObjAddr: 0x91F0, symBinAddr: 0x229CC, symSize: 0x4 }
  - { offset: 0x1206E7, size: 0x8, addend: 0x0, symName: __ZN5folly6detail18ToAppendStrImplAllINSt3__116integer_sequenceImJLm0ELm1ELm2ELm3EEEEE4callIJA8_cNS2_12basic_stringIcNS2_11char_traitsIcEENS2_9allocatorIcEEEEcPSD_EEEvDpRKT_, symObjAddr: 0x9504, symBinAddr: 0x22CE0, symSize: 0x6C }
  - { offset: 0x12096D, size: 0x8, addend: 0x0, symName: __ZN5folly6detail25EstimateSpaceToReserveAllINSt3__116integer_sequenceImJLm0ELm1ELm2ELm3ELm4ELm5EEEEE4callIJA26_cjNS2_12basic_stringIcNS2_11char_traitsIcEENS2_9allocatorIcEEEEA3_cSD_PSD_EEEmDpRKT_, symObjAddr: 0x9338, symBinAddr: 0x22B14, symSize: 0x94 }
  - { offset: 0x120BDC, size: 0x8, addend: 0x0, symName: __ZN5folly6detail18ToAppendStrImplAllINSt3__116integer_sequenceImJLm0ELm1ELm2ELm3ELm4ELm5EEEEE4callIJA26_cjNS2_12basic_stringIcNS2_11char_traitsIcEENS2_9allocatorIcEEEEA3_cSD_PSD_EEEvDpRKT_, symObjAddr: 0x93CC, symBinAddr: 0x22BA8, symSize: 0xFC }
  - { offset: 0x121107, size: 0x8, addend: 0x0, symName: __ZN5folly4json11parse_errorD0Ev, symObjAddr: 0x9570, symBinAddr: 0x22D4C, symSize: 0x14 }
  - { offset: 0x121182, size: 0x8, addend: 0x0, symName: __ZN5folly6detail18ToAppendStrImplAllINSt3__116integer_sequenceImJLm0ELm1ELm2ELm3EEEEE4callIJA11_cccPNS2_12basic_stringIcNS2_11char_traitsIcEENS2_9allocatorIcEEEEEEEvDpRKT_, symObjAddr: 0x966C, symBinAddr: 0x22DAC, symSize: 0x58 }
  - { offset: 0x121644, size: 0x8, addend: 0x0, symName: __ZNSt3__112__hash_tableINS_17__hash_value_typeIN5folly7dynamicES3_EENS_22__unordered_map_hasherIS3_S4_NS2_6detail13DynamicHasherENS6_15DynamicKeyEqualELb1EEENS_21__unordered_map_equalIS3_S4_S8_S7_Lb1EEENS_9allocatorIS4_EEE25__emplace_unique_key_argsIS3_JS3_S3_EEENS_4pairINS_15__hash_iteratorIPNS_11__hash_nodeIS4_PvEEEEbEERKT_DpOT0_, symObjAddr: 0x9814, symBinAddr: 0x22E5C, symSize: 0x264 }
  - { offset: 0x1220F7, size: 0x8, addend: 0x0, symName: __ZNSt3__112basic_stringIcNS_11char_traitsIcEENS_9allocatorIcEEE16__init_with_sizeB8ne200100IPKcS8_EEvT_T0_m, symObjAddr: 0x9CE4, symBinAddr: 0x23288, symSize: 0x9C }
  - { offset: 0x122358, size: 0x8, addend: 0x0, symName: '__ZZN5folly4json12_GLOBAL__N_119decodeUnicodeEscapeERNS1_5InputERNSt3__112basic_stringIcNS4_11char_traitsIcEENS4_9allocatorIcEEEEENK3$_1clEv', symObjAddr: 0x9D80, symBinAddr: 0x23324, symSize: 0x190 }
  - { offset: 0x122492, size: 0x8, addend: 0x0, symName: __ZN5folly6detail25EstimateSpaceToReserveAllINSt3__116integer_sequenceImJLm0ELm1ELm2ELm3EEEEE4callIJA16_ciA11_cPNS2_12basic_stringIcNS2_11char_traitsIcEENS2_9allocatorIcEEEEEEEmDpRKT_, symObjAddr: 0x9F6C, symBinAddr: 0x23510, symSize: 0x68 }
  - { offset: 0x122603, size: 0x8, addend: 0x0, symName: __ZN5folly6detail18ToAppendStrImplAllINSt3__116integer_sequenceImJLm0ELm1ELm2ELm3EEEEE4callIJA16_ciA11_cPNS2_12basic_stringIcNS2_11char_traitsIcEENS2_9allocatorIcEEEEEEEvDpRKT_, symObjAddr: 0x9FD4, symBinAddr: 0x23578, symSize: 0x64 }
  - { offset: 0x122897, size: 0x8, addend: 0x0, symName: __ZNK5folly5RangeIPKcE7compareERKS3_, symObjAddr: 0xA184, symBinAddr: 0x23728, symSize: 0x58 }
  - { offset: 0x122B72, size: 0x8, addend: 0x0, symName: __ZNSt3__112__hash_tableINS_17__hash_value_typeIPKN5folly7dynamicENS2_4json14parse_metadataEEENS_22__unordered_map_hasherIS5_S8_NS_4hashIS5_EENS_8equal_toIS5_EELb1EEENS_21__unordered_map_equalIS5_S8_SD_SB_Lb1EEENS_9allocatorIS8_EEE16__construct_nodeIJPS3_S7_EEENS_10unique_ptrINS_11__hash_nodeIS8_PvEENS_22__hash_node_destructorINSH_ISP_EEEEEEDpOT_, symObjAddr: 0xA254, symBinAddr: 0x237F8, symSize: 0x90 }
  - { offset: 0x122F50, size: 0x8, addend: 0x0, symName: __ZNSt3__112__hash_tableINS_17__hash_value_typeIPKN5folly7dynamicENS2_4json14parse_metadataEEENS_22__unordered_map_hasherIS5_S8_NS_4hashIS5_EENS_8equal_toIS5_EELb1EEENS_21__unordered_map_equalIS5_S8_SD_SB_Lb1EEENS_9allocatorIS8_EEE20__node_insert_uniqueEPNS_11__hash_nodeIS8_PvEE, symObjAddr: 0xA2E4, symBinAddr: 0x23888, symSize: 0x8C }
  - { offset: 0x1234E0, size: 0x8, addend: 0x0, symName: __ZNSt3__112__hash_tableINS_17__hash_value_typeIPKN5folly7dynamicENS2_4json14parse_metadataEEENS_22__unordered_map_hasherIS5_S8_NS_4hashIS5_EENS_8equal_toIS5_EELb1EEENS_21__unordered_map_equalIS5_S8_SD_SB_Lb1EEENS_9allocatorIS8_EEE28__node_insert_unique_prepareB8ne200100EmRS8_, symObjAddr: 0xA370, symBinAddr: 0x23914, symSize: 0x114 }
  - { offset: 0x123BE6, size: 0x8, addend: 0x0, symName: __ZN5folly4json20firstEscapableInWordILb1EyEEmT0_RKNS0_18serialization_optsE, symObjAddr: 0xA764, symBinAddr: 0x23A28, symSize: 0xD0 }
  - { offset: 0x123DB7, size: 0x8, addend: 0x0, symName: _OUTLINED_FUNCTION_1, symObjAddr: 0xAA88, symBinAddr: 0x23BA8, symSize: 0x10 }
  - { offset: 0x123DCF, size: 0x8, addend: 0x0, symName: _OUTLINED_FUNCTION_2, symObjAddr: 0xAA98, symBinAddr: 0x23BB8, symSize: 0x8 }
  - { offset: 0x129E88, size: 0x8, addend: 0x0, symName: __ZNSt3__135__uninitialized_allocator_copy_implB8ne200100INS_9allocatorINS_12basic_stringIcNS_11char_traitsIcEENS1_IcEEEEEEPS6_S8_S8_EET2_RT_T0_T1_S9_, symObjAddr: 0x784, symBinAddr: 0x2416C, symSize: 0xBC }
  - { offset: 0x12BFEC, size: 0x8, addend: 0x0, symName: __ZN5folly6detail13internalSplitINSt3__112basic_stringIcNS2_11char_traitsIcEENS2_9allocatorIcEEEENS_5RangeIPKcEENS2_15insert_iteratorINS2_6vectorIS8_NS6_IS8_EEEEEEEEvT0_SC_T1_b, symObjAddr: 0xA74, symBinAddr: 0x24324, symSize: 0x248 }
  - { offset: 0x12CA01, size: 0x8, addend: 0x0, symName: __ZN5folly6detail13internalSplitINSt3__112basic_stringIcNS2_11char_traitsIcEENS2_9allocatorIcEEEEcNS2_15insert_iteratorINS2_6vectorIS8_NS6_IS8_EEEEEEEEvT0_NS_5RangeIPKcEET1_b, symObjAddr: 0x11D4, symBinAddr: 0x24964, symSize: 0x1D4 }
  - { offset: 0x12D1EE, size: 0x8, addend: 0x0, symName: __ZN5folly6detail16throw_exception_INS_17BadExpectedAccessINS_12json_pointer11parse_errorEEEJS4_EEEvDpT0_, symObjAddr: 0x13D8, symBinAddr: 0x39278, symSize: 0x44 }
  - { offset: 0x12D715, size: 0x8, addend: 0x0, symName: __ZN5folly15throw_exceptionINS_17BadExpectedAccessINS_12json_pointer11parse_errorEEEEEvOT_, symObjAddr: 0x141C, symBinAddr: 0x392BC, symSize: 0x44 }
  - { offset: 0x12E1A9, size: 0x8, addend: 0x0, symName: __ZN5folly12json_pointer9try_parseENS_5RangeIPKcEE, symObjAddr: 0x0, symBinAddr: 0x23BC0, symSize: 0x1EC }
  - { offset: 0x12ED47, size: 0x8, addend: 0x0, symName: __ZNSt3__16vectorINS_12basic_stringIcNS_11char_traitsIcEENS_9allocatorIcEEEENS4_IS6_EEE16__init_with_sizeB8ne200100IPS6_SA_EEvT_T0_m, symObjAddr: 0x5C4, symBinAddr: 0x240E8, symSize: 0x84 }
  - { offset: 0x12EFAB, size: 0x8, addend: 0x0, symName: __ZNKSt3__111__move_implINS_17_ClassicAlgPolicyEEclB8ne200100IPNS_12basic_stringIcNS_11char_traitsIcEENS_9allocatorIcEEEESA_SA_EENS_4pairIT_T1_EESC_T0_SD_, symObjAddr: 0x4C8, symBinAddr: 0x24078, symSize: 0x70 }
  - { offset: 0x12F165, size: 0x8, addend: 0x0, symName: __ZN5folly12json_pointer8unescapeERNSt3__112basic_stringIcNS1_11char_traitsIcEENS1_9allocatorIcEEEE, symObjAddr: 0x1EC, symBinAddr: 0x23DAC, symSize: 0xB4 }
  - { offset: 0x12F30F, size: 0x8, addend: 0x0, symName: __ZN5folly12json_pointerC1ENSt3__16vectorINS1_12basic_stringIcNS1_11char_traitsIcEENS1_9allocatorIcEEEENS6_IS8_EEEE, symObjAddr: 0x2A0, symBinAddr: 0x23E60, symSize: 0x24 }
  - { offset: 0x12F339, size: 0x8, addend: 0x0, symName: __ZN5folly12json_pointerC1ENSt3__16vectorINS1_12basic_stringIcNS1_11char_traitsIcEENS1_9allocatorIcEEEENS6_IS8_EEEE, symObjAddr: 0x2A0, symBinAddr: 0x23E60, symSize: 0x24 }
  - { offset: 0x12F35C, size: 0x8, addend: 0x0, symName: __ZN5folly12json_pointerC1ENSt3__16vectorINS1_12basic_stringIcNS1_11char_traitsIcEENS1_9allocatorIcEEEENS6_IS8_EEEE, symObjAddr: 0x2A0, symBinAddr: 0x23E60, symSize: 0x24 }
  - { offset: 0x12F37E, size: 0x8, addend: 0x0, symName: __ZN5folly12json_pointerC1ENSt3__16vectorINS1_12basic_stringIcNS1_11char_traitsIcEENS1_9allocatorIcEEEENS6_IS8_EEEE, symObjAddr: 0x2A0, symBinAddr: 0x23E60, symSize: 0x24 }
  - { offset: 0x12F4B5, size: 0x8, addend: 0x0, symName: __ZN5folly12json_pointer5parseENS_5RangeIPKcEE, symObjAddr: 0x2C4, symBinAddr: 0x23E84, symSize: 0x134 }
  - { offset: 0x12F9DC, size: 0x8, addend: 0x0, symName: __ZNK5folly8ExpectedINS_12json_pointerENS1_11parse_errorEE12requireValueEv, symObjAddr: 0x13A8, symBinAddr: 0x24B38, symSize: 0x30 }
  - { offset: 0x12FA65, size: 0x8, addend: 0x0, symName: __ZN5folly6detail16throw_exception_INS_17BadExpectedAccessINS_12json_pointer11parse_errorEEEJS4_EEEvDpT0_, symObjAddr: 0x13D8, symBinAddr: 0x39278, symSize: 0x44 }
  - { offset: 0x12FA8C, size: 0x8, addend: 0x0, symName: __ZN5folly12json_pointer15parse_exceptionD1Ev, symObjAddr: 0x3F8, symBinAddr: 0x23FB8, symSize: 0x4 }
  - { offset: 0x12FAAE, size: 0x8, addend: 0x0, symName: __ZN5folly12json_pointer15parse_exceptionD1Ev, symObjAddr: 0x3F8, symBinAddr: 0x23FB8, symSize: 0x4 }
  - { offset: 0x12FB03, size: 0x8, addend: 0x0, symName: __ZNK5folly12json_pointer12is_prefix_ofERKS0_, symObjAddr: 0x3FC, symBinAddr: 0x23FBC, symSize: 0x94 }
  - { offset: 0x12FCC7, size: 0x8, addend: 0x0, symName: __ZNKSt3__110__equal_toclB8ne200100INS_12basic_stringIcNS_11char_traitsIcEENS_9allocatorIcEEEES7_EEbRKT_RKT0_, symObjAddr: 0x960, symBinAddr: 0x242B4, symSize: 0x70 }
  - { offset: 0x12FD0E, size: 0x8, addend: 0x0, symName: __ZNKSt3__110__equal_toclB8ne200100INS_12basic_stringIcNS_11char_traitsIcEENS_9allocatorIcEEEES7_EEbRKT_RKT0_, symObjAddr: 0x960, symBinAddr: 0x242B4, symSize: 0x70 }
  - { offset: 0x12FD3D, size: 0x8, addend: 0x0, symName: __ZNKSt3__110__equal_toclB8ne200100INS_12basic_stringIcNS_11char_traitsIcEENS_9allocatorIcEEEES7_EEbRKT_RKT0_, symObjAddr: 0x960, symBinAddr: 0x242B4, symSize: 0x70 }
  - { offset: 0x12FD59, size: 0x8, addend: 0x0, symName: __ZNKSt3__110__equal_toclB8ne200100INS_12basic_stringIcNS_11char_traitsIcEENS_9allocatorIcEEEES7_EEbRKT_RKT0_, symObjAddr: 0x960, symBinAddr: 0x242B4, symSize: 0x70 }
  - { offset: 0x12FE6F, size: 0x8, addend: 0x0, symName: __ZNK5folly12json_pointer6tokensEv, symObjAddr: 0x490, symBinAddr: 0x24050, symSize: 0x4 }
  - { offset: 0x12FE96, size: 0x8, addend: 0x0, symName: __ZN5folly12json_pointerC2ENSt3__16vectorINS1_12basic_stringIcNS1_11char_traitsIcEENS1_9allocatorIcEEEENS6_IS8_EEEE, symObjAddr: 0x4A4, symBinAddr: 0x24054, symSize: 0x24 }
  - { offset: 0x12FEC0, size: 0x8, addend: 0x0, symName: __ZN5folly12json_pointerC2ENSt3__16vectorINS1_12basic_stringIcNS1_11char_traitsIcEENS1_9allocatorIcEEEENS6_IS8_EEEE, symObjAddr: 0x4A4, symBinAddr: 0x24054, symSize: 0x24 }
  - { offset: 0x12FEE2, size: 0x8, addend: 0x0, symName: __ZN5folly12json_pointerC2ENSt3__16vectorINS1_12basic_stringIcNS1_11char_traitsIcEENS1_9allocatorIcEEEENS6_IS8_EEEE, symObjAddr: 0x4A4, symBinAddr: 0x24054, symSize: 0x24 }
  - { offset: 0x1305F2, size: 0x8, addend: 0x0, symName: __ZNSt3__128__exception_guard_exceptionsINS_29_AllocatorDestroyRangeReverseINS_9allocatorINS_12basic_stringIcNS_11char_traitsIcEENS2_IcEEEEEEPS7_EEED2B8ne200100Ev, symObjAddr: 0x8D4, symBinAddr: 0x24228, symSize: 0x34 }
  - { offset: 0x1306FF, size: 0x8, addend: 0x0, symName: __ZNSt3__128__exception_guard_exceptionsINS_29_AllocatorDestroyRangeReverseINS_9allocatorINS_12basic_stringIcNS_11char_traitsIcEENS2_IcEEEEEEPS7_EEED2B8ne200100Ev, symObjAddr: 0x8D4, symBinAddr: 0x24228, symSize: 0x34 }
  - { offset: 0x13070A, size: 0x8, addend: 0x0, symName: __ZNKSt3__129_AllocatorDestroyRangeReverseINS_9allocatorINS_12basic_stringIcNS_11char_traitsIcEENS1_IcEEEEEEPS6_EclB8ne200100Ev, symObjAddr: 0x908, symBinAddr: 0x2425C, symSize: 0x44 }
  - { offset: 0x130915, size: 0x8, addend: 0x0, symName: __ZN5folly12json_pointer15parse_exceptionD0Ev, symObjAddr: 0x94C, symBinAddr: 0x242A0, symSize: 0x14 }
  - { offset: 0x130BD9, size: 0x8, addend: 0x0, symName: __ZNSt3__16vectorINS_12basic_stringIcNS_11char_traitsIcEENS_9allocatorIcEEEENS4_IS6_EEE6insertENS_11__wrap_iterIPKS6_EEOS6_, symObjAddr: 0xD54, symBinAddr: 0x2456C, symSize: 0x1C0 }
  - { offset: 0x131403, size: 0x8, addend: 0x0, symName: __ZNSt3__16vectorINS_12basic_stringIcNS_11char_traitsIcEENS_9allocatorIcEEEENS4_IS6_EEE12__move_rangeEPS6_S9_S9_, symObjAddr: 0xF14, symBinAddr: 0x2472C, symSize: 0x6C }
  - { offset: 0x131654, size: 0x8, addend: 0x0, symName: __ZNSt3__114__split_bufferINS_12basic_stringIcNS_11char_traitsIcEENS_9allocatorIcEEEERNS4_IS6_EEE12emplace_backIJS6_EEEvDpOT_, symObjAddr: 0xF80, symBinAddr: 0x24798, symSize: 0x150 }
  - { offset: 0x131B8A, size: 0x8, addend: 0x0, symName: __ZNKSt3__120__move_backward_implINS_17_ClassicAlgPolicyEEclB8ne200100IPNS_12basic_stringIcNS_11char_traitsIcEENS_9allocatorIcEEEESA_SA_EENS_4pairIT_T1_EESC_T0_SD_, symObjAddr: 0x10D0, symBinAddr: 0x248E8, symSize: 0x7C }
  - { offset: 0x132007, size: 0x8, addend: 0x0, symName: __ZN5folly17BadExpectedAccessINS_12json_pointer11parse_errorEED1Ev, symObjAddr: 0x1460, symBinAddr: 0x24B68, symSize: 0x4 }
  - { offset: 0x132029, size: 0x8, addend: 0x0, symName: __ZN5folly17BadExpectedAccessINS_12json_pointer11parse_errorEED1Ev, symObjAddr: 0x1460, symBinAddr: 0x24B68, symSize: 0x4 }
  - { offset: 0x132044, size: 0x8, addend: 0x0, symName: __ZN5folly17BadExpectedAccessINS_12json_pointer11parse_errorEED1Ev, symObjAddr: 0x1460, symBinAddr: 0x24B68, symSize: 0x4 }
  - { offset: 0x13205F, size: 0x8, addend: 0x0, symName: __ZN5folly17BadExpectedAccessINS_12json_pointer11parse_errorEED0Ev, symObjAddr: 0x1464, symBinAddr: 0x24B6C, symSize: 0x14 }
  - { offset: 0x1340DF, size: 0x8, addend: 0x0, symName: _mallocx, symObjAddr: 0xAA8, symBinAddr: 0x54440, symSize: 0x0 }
  - { offset: 0x13411A, size: 0x8, addend: 0x0, symName: _rallocx, symObjAddr: 0xAB0, symBinAddr: 0x54448, symSize: 0x0 }
  - { offset: 0x13414B, size: 0x8, addend: 0x0, symName: _xallocx, symObjAddr: 0xAB8, symBinAddr: 0x54450, symSize: 0x0 }
  - { offset: 0x134181, size: 0x8, addend: 0x0, symName: _sallocx, symObjAddr: 0xAC0, symBinAddr: 0x54458, symSize: 0x0 }
  - { offset: 0x1341B3, size: 0x8, addend: 0x0, symName: _dallocx, symObjAddr: 0xAC8, symBinAddr: 0x54460, symSize: 0x0 }
  - { offset: 0x1341DB, size: 0x8, addend: 0x0, symName: _sdallocx, symObjAddr: 0xAD0, symBinAddr: 0x54468, symSize: 0x0 }
  - { offset: 0x134208, size: 0x8, addend: 0x0, symName: _nallocx, symObjAddr: 0xAD8, symBinAddr: 0x54470, symSize: 0x0 }
  - { offset: 0x134234, size: 0x8, addend: 0x0, symName: _mallctl, symObjAddr: 0xAE0, symBinAddr: 0x54478, symSize: 0x0 }
  - { offset: 0x134285, size: 0x8, addend: 0x0, symName: _mallctlnametomib, symObjAddr: 0xAE8, symBinAddr: 0x54480, symSize: 0x0 }
  - { offset: 0x1342B6, size: 0x8, addend: 0x0, symName: _mallctlbymib, symObjAddr: 0xAF0, symBinAddr: 0x54488, symSize: 0x0 }
  - { offset: 0x134300, size: 0x8, addend: 0x0, symName: _MallocExtension_Internal_GetNumericProperty, symObjAddr: 0xAF8, symBinAddr: 0x54490, symSize: 0x0 }
  - { offset: 0x13436D, size: 0x8, addend: 0x0, symName: __ZN5folly6netops6acceptENS_13NetworkSocketEP8sockaddrPj, symObjAddr: 0x0, symBinAddr: 0x24B80, symSize: 0x4 }
  - { offset: 0x1348D0, size: 0x8, addend: 0x0, symName: __ZN5folly6netops6acceptENS_13NetworkSocketEP8sockaddrPj, symObjAddr: 0x0, symBinAddr: 0x24B80, symSize: 0x4 }
  - { offset: 0x13491B, size: 0x8, addend: 0x0, symName: __ZN5folly6netops6acceptENS_13NetworkSocketEP8sockaddrPj, symObjAddr: 0x0, symBinAddr: 0x24B80, symSize: 0x4 }
  - { offset: 0x134943, size: 0x8, addend: 0x0, symName: __ZN5folly6netops4bindENS_13NetworkSocketEPK8sockaddrj, symObjAddr: 0x4, symBinAddr: 0x24B84, symSize: 0x4 }
  - { offset: 0x13498E, size: 0x8, addend: 0x0, symName: __ZN5folly6netops4bindENS_13NetworkSocketEPK8sockaddrj, symObjAddr: 0x4, symBinAddr: 0x24B84, symSize: 0x4 }
  - { offset: 0x134A04, size: 0x8, addend: 0x0, symName: __ZN5folly6netops5closeENS_13NetworkSocketE, symObjAddr: 0x8, symBinAddr: 0x24B88, symSize: 0x18 }
  - { offset: 0x134A56, size: 0x8, addend: 0x0, symName: __ZN5folly6netops7connectENS_13NetworkSocketEPK8sockaddrj, symObjAddr: 0x20, symBinAddr: 0x24BA0, symSize: 0x4 }
  - { offset: 0x134AAC, size: 0x8, addend: 0x0, symName: __ZN5folly6netops7connectENS_13NetworkSocketEPK8sockaddrj, symObjAddr: 0x20, symBinAddr: 0x24BA0, symSize: 0x4 }
  - { offset: 0x134AD4, size: 0x8, addend: 0x0, symName: __ZN5folly6netops11getpeernameENS_13NetworkSocketEP8sockaddrPj, symObjAddr: 0x24, symBinAddr: 0x24BA4, symSize: 0x4 }
  - { offset: 0x134B1F, size: 0x8, addend: 0x0, symName: __ZN5folly6netops11getpeernameENS_13NetworkSocketEP8sockaddrPj, symObjAddr: 0x24, symBinAddr: 0x24BA4, symSize: 0x4 }
  - { offset: 0x134B47, size: 0x8, addend: 0x0, symName: __ZN5folly6netops11getsocknameENS_13NetworkSocketEP8sockaddrPj, symObjAddr: 0x28, symBinAddr: 0x24BA8, symSize: 0x4 }
  - { offset: 0x134B92, size: 0x8, addend: 0x0, symName: __ZN5folly6netops11getsocknameENS_13NetworkSocketEP8sockaddrPj, symObjAddr: 0x28, symBinAddr: 0x24BA8, symSize: 0x4 }
  - { offset: 0x134BBA, size: 0x8, addend: 0x0, symName: __ZN5folly6netops10getsockoptENS_13NetworkSocketEiiPvPj, symObjAddr: 0x2C, symBinAddr: 0x24BAC, symSize: 0x4 }
  - { offset: 0x134C2C, size: 0x8, addend: 0x0, symName: __ZN5folly6netops10getsockoptENS_13NetworkSocketEiiPvPj, symObjAddr: 0x2C, symBinAddr: 0x24BAC, symSize: 0x4 }
  - { offset: 0x134C61, size: 0x8, addend: 0x0, symName: __ZN5folly6netops9inet_atonEPKcP7in_addr, symObjAddr: 0x30, symBinAddr: 0x24BB0, symSize: 0x2C }
  - { offset: 0x134CB3, size: 0x8, addend: 0x0, symName: __ZN5folly6netops6listenENS_13NetworkSocketEi, symObjAddr: 0x5C, symBinAddr: 0x24BDC, symSize: 0x4 }
  - { offset: 0x134CF0, size: 0x8, addend: 0x0, symName: __ZN5folly6netops6listenENS_13NetworkSocketEi, symObjAddr: 0x5C, symBinAddr: 0x24BDC, symSize: 0x4 }
  - { offset: 0x134D11, size: 0x8, addend: 0x0, symName: __ZN5folly6netops4pollEPNS0_14PollDescriptorEji, symObjAddr: 0x60, symBinAddr: 0x24BE0, symSize: 0x4 }
  - { offset: 0x134D6B, size: 0x8, addend: 0x0, symName: __ZN5folly6netops4pollEPNS0_14PollDescriptorEji, symObjAddr: 0x60, symBinAddr: 0x24BE0, symSize: 0x4 }
  - { offset: 0x134D8C, size: 0x8, addend: 0x0, symName: __ZN5folly6netops4recvENS_13NetworkSocketEPvmi, symObjAddr: 0x64, symBinAddr: 0x24BE4, symSize: 0x4 }
  - { offset: 0x134DE5, size: 0x8, addend: 0x0, symName: __ZN5folly6netops4recvENS_13NetworkSocketEPvmi, symObjAddr: 0x64, symBinAddr: 0x24BE4, symSize: 0x4 }
  - { offset: 0x134E15, size: 0x8, addend: 0x0, symName: __ZN5folly6netops8recvfromENS_13NetworkSocketEPvmiP8sockaddrPj, symObjAddr: 0x68, symBinAddr: 0x24BE8, symSize: 0x4 }
  - { offset: 0x134E8B, size: 0x8, addend: 0x0, symName: __ZN5folly6netops8recvfromENS_13NetworkSocketEPvmiP8sockaddrPj, symObjAddr: 0x68, symBinAddr: 0x24BE8, symSize: 0x4 }
  - { offset: 0x134EC9, size: 0x8, addend: 0x0, symName: __ZN5folly6netops7recvmsgENS_13NetworkSocketEP6msghdri, symObjAddr: 0x6C, symBinAddr: 0x24BEC, symSize: 0x4 }
  - { offset: 0x134EF5, size: 0x8, addend: 0x0, symName: __ZN5folly6netops7recvmsgENS_13NetworkSocketEP6msghdri, symObjAddr: 0x6C, symBinAddr: 0x24BEC, symSize: 0x4 }
  - { offset: 0x134F58, size: 0x8, addend: 0x0, symName: __ZN5folly6netops8recvmmsgENS_13NetworkSocketEP7mmsghdrjjP8timespec, symObjAddr: 0x70, symBinAddr: 0x24BF0, symSize: 0x7C }
  - { offset: 0x13503E, size: 0x8, addend: 0x0, symName: __ZN5folly6netops4sendENS_13NetworkSocketEPKvmi, symObjAddr: 0xEC, symBinAddr: 0x24C6C, symSize: 0x4 }
  - { offset: 0x135098, size: 0x8, addend: 0x0, symName: __ZN5folly6netops4sendENS_13NetworkSocketEPKvmi, symObjAddr: 0xEC, symBinAddr: 0x24C6C, symSize: 0x4 }
  - { offset: 0x1350C8, size: 0x8, addend: 0x0, symName: __ZN5folly6netops7sendmsgENS_13NetworkSocketEPK6msghdri, symObjAddr: 0xF0, symBinAddr: 0x24C70, symSize: 0x4 }
  - { offset: 0x1350F4, size: 0x8, addend: 0x0, symName: __ZN5folly6netops7sendmsgENS_13NetworkSocketEPK6msghdri, symObjAddr: 0xF0, symBinAddr: 0x24C70, symSize: 0x4 }
  - { offset: 0x135157, size: 0x8, addend: 0x0, symName: __ZN5folly6netops8sendmmsgENS_13NetworkSocketEP7mmsghdrji, symObjAddr: 0xF4, symBinAddr: 0x24C74, symSize: 0x7C }
  - { offset: 0x13522D, size: 0x8, addend: 0x0, symName: __ZN5folly6netops6sendtoENS_13NetworkSocketEPKvmiPK8sockaddrj, symObjAddr: 0x170, symBinAddr: 0x24CF0, symSize: 0x4 }
  - { offset: 0x1352A3, size: 0x8, addend: 0x0, symName: __ZN5folly6netops6sendtoENS_13NetworkSocketEPKvmiPK8sockaddrj, symObjAddr: 0x170, symBinAddr: 0x24CF0, symSize: 0x4 }
  - { offset: 0x1352E1, size: 0x8, addend: 0x0, symName: __ZN5folly6netops10setsockoptENS_13NetworkSocketEiiPKvj, symObjAddr: 0x174, symBinAddr: 0x24CF4, symSize: 0x4 }
  - { offset: 0x135349, size: 0x8, addend: 0x0, symName: __ZN5folly6netops10setsockoptENS_13NetworkSocketEiiPKvj, symObjAddr: 0x174, symBinAddr: 0x24CF4, symSize: 0x4 }
  - { offset: 0x135380, size: 0x8, addend: 0x0, symName: __ZN5folly6netops8shutdownENS_13NetworkSocketEi, symObjAddr: 0x178, symBinAddr: 0x24CF8, symSize: 0x4 }
  - { offset: 0x1353BE, size: 0x8, addend: 0x0, symName: __ZN5folly6netops8shutdownENS_13NetworkSocketEi, symObjAddr: 0x178, symBinAddr: 0x24CF8, symSize: 0x4 }
  - { offset: 0x1353E0, size: 0x8, addend: 0x0, symName: __ZN5folly6netops6socketEiii, symObjAddr: 0x17C, symBinAddr: 0x24CFC, symSize: 0x4 }
  - { offset: 0x13542D, size: 0x8, addend: 0x0, symName: __ZN5folly6netops6socketEiii, symObjAddr: 0x17C, symBinAddr: 0x24CFC, symSize: 0x4 }
  - { offset: 0x13544E, size: 0x8, addend: 0x0, symName: __ZN5folly6netops10socketpairEiiiPNS_13NetworkSocketE, symObjAddr: 0x180, symBinAddr: 0x24D00, symSize: 0x68 }
  - { offset: 0x1354F7, size: 0x8, addend: 0x0, symName: __ZN5folly6netops23set_socket_non_blockingENS_13NetworkSocketE, symObjAddr: 0x1E8, symBinAddr: 0x24D68, symSize: 0x4C }
  - { offset: 0x13556A, size: 0x8, addend: 0x0, symName: __ZN5folly6netops24set_socket_close_on_execENS_13NetworkSocketE, symObjAddr: 0x234, symBinAddr: 0x24DB4, symSize: 0x28 }
  - { offset: 0x135A79, size: 0x8, addend: 0x0, symName: __ZN5folly6netops9Msgheader7setNameEP16sockaddr_storagem, symObjAddr: 0x25C, symBinAddr: 0x24DDC, symSize: 0xC }
  - { offset: 0x135ABD, size: 0x8, addend: 0x0, symName: __ZN5folly6netops9Msgheader9setIovecsEPK5iovecm, symObjAddr: 0x268, symBinAddr: 0x24DE8, symSize: 0xC }
  - { offset: 0x135B01, size: 0x8, addend: 0x0, symName: __ZN5folly6netops9Msgheader10setCmsgPtrEPc, symObjAddr: 0x274, symBinAddr: 0x24DF4, symSize: 0x8 }
  - { offset: 0x135B37, size: 0x8, addend: 0x0, symName: __ZN5folly6netops9Msgheader10setCmsgLenEm, symObjAddr: 0x27C, symBinAddr: 0x24DFC, symSize: 0x8 }
  - { offset: 0x135B6D, size: 0x8, addend: 0x0, symName: __ZN5folly6netops9Msgheader8setFlagsEi, symObjAddr: 0x284, symBinAddr: 0x24E04, symSize: 0x8 }
  - { offset: 0x135BA3, size: 0x8, addend: 0x0, symName: __ZN5folly6netops9Msgheader11incrCmsgLenEm, symObjAddr: 0x28C, symBinAddr: 0x24E0C, symSize: 0x1C }
  - { offset: 0x135C1D, size: 0x8, addend: 0x0, symName: __ZN5folly6netops9Msgheader24getFirstOrNextCmsgHeaderEP7cmsghdr, symObjAddr: 0x2A8, symBinAddr: 0x24E28, symSize: 0x4C }
  - { offset: 0x135C96, size: 0x8, addend: 0x0, symName: __ZN5folly6netops9Msgheader11cmsgNextHrdEP7cmsghdr, symObjAddr: 0x2F4, symBinAddr: 0x24E74, symSize: 0x4C }
  - { offset: 0x135CBF, size: 0x8, addend: 0x0, symName: __ZN5folly6netops9Msgheader12cmsgFirstHrdEv, symObjAddr: 0x340, symBinAddr: 0x24EC0, symSize: 0x1C }
  - { offset: 0x135CE1, size: 0x8, addend: 0x0, symName: __ZN5folly6netops9Msgheader6getMsgEv, symObjAddr: 0x35C, symBinAddr: 0x24EDC, symSize: 0x4 }
  - { offset: 0x138900, size: 0x8, addend: 0x0, symName: __ZN5folly18parking_lot_detail6Bucket9bucketForEy, symObjAddr: 0x0, symBinAddr: 0x24EE0, symSize: 0x4C }
  - { offset: 0x1389AA, size: 0x8, addend: 0x0, symName: __ZN5folly18parking_lot_detail11idallocatorE, symObjAddr: 0x128B0, symBinAddr: 0x54498, symSize: 0x0 }
  - { offset: 0x139B66, size: 0x8, addend: 0x0, symName: __ZN5folly18parking_lot_detail6Bucket9bucketForEy, symObjAddr: 0x0, symBinAddr: 0x24EE0, symSize: 0x4C }
  - { offset: 0x139B88, size: 0x8, addend: 0x0, symName: __ZZN5folly18parking_lot_detail6Bucket9bucketForEyE8gBuckets, symObjAddr: 0xD0A8, symBinAddr: 0x562F0, symSize: 0x0 }
  - { offset: 0x139C87, size: 0x8, addend: 0x0, symName: __ZN5folly18parking_lot_detail6Bucket9bucketForEy.cold.1, symObjAddr: 0x4C, symBinAddr: 0x39300, symSize: 0x84 }
  - { offset: 0x13D792, size: 0x8, addend: 0x0, symName: __ZN5folly12_GLOBAL__N_118reentrant_allocateEm, symObjAddr: 0x4C, symBinAddr: 0x24F78, symSize: 0x44 }
  - { offset: 0x13D7C8, size: 0x8, addend: 0x0, symName: __ZZN5folly12_GLOBAL__N_118reentrant_allocateEmE30__folly_detail_safe_assert_arg, symObjAddr: 0x638, symBinAddr: 0x48DE0, symSize: 0x0 }
  - { offset: 0x13D7EA, size: 0x8, addend: 0x0, symName: __ZZN5folly12_GLOBAL__N_118reentrant_allocateEmE30__folly_detail_safe_assert_arg_0, symObjAddr: 0x660, symBinAddr: 0x48E08, symSize: 0x0 }
  - { offset: 0x13D8DE, size: 0x8, addend: 0x0, symName: __ZN5folly12_GLOBAL__N_15dummyE, symObjAddr: 0xEC00, symBinAddr: 0x5BAF8, symSize: 0x0 }
  - { offset: 0x13D8EC, size: 0x8, addend: 0x0, symName: __ZN5folly12_GLOBAL__N_120reentrant_deallocateEPvm, symObjAddr: 0x38C, symBinAddr: 0x252B8, symSize: 0x30 }
  - { offset: 0x13D91E, size: 0x8, addend: 0x0, symName: __ZZN5folly12_GLOBAL__N_120reentrant_deallocateEPvmE30__folly_detail_safe_assert_arg, symObjAddr: 0x688, symBinAddr: 0x48E30, symSize: 0x0 }
  - { offset: 0x13D940, size: 0x8, addend: 0x0, symName: __ZZN5folly12_GLOBAL__N_120reentrant_deallocateEPvmE30__folly_detail_safe_assert_arg_0, symObjAddr: 0x6B0, symBinAddr: 0x48E58, symSize: 0x0 }
  - { offset: 0x13D962, size: 0x8, addend: 0x0, symName: __ZZN5folly12_GLOBAL__N_120reentrant_deallocateEPvmE30__folly_detail_safe_assert_arg_1, symObjAddr: 0x6D8, symBinAddr: 0x48E80, symSize: 0x0 }
  - { offset: 0x13DB62, size: 0x8, addend: 0x0, symName: __ZN5folly6detail24reentrant_allocator_base10deallocateEPvm, symObjAddr: 0x3BC, symBinAddr: 0x252E8, symSize: 0x48 }
  - { offset: 0x13DB94, size: 0x8, addend: 0x0, symName: __ZZN5folly6detail24reentrant_allocator_base10deallocateEPvmE30__folly_detail_safe_assert_arg, symObjAddr: 0x610, symBinAddr: 0x48DB8, symSize: 0x0 }
  - { offset: 0x13DC31, size: 0x8, addend: 0x0, symName: __ZN5folly6detail21safe_assert_msg_typesINS0_22safe_assert_msg_type_sIJLNS0_20safe_assert_msg_typeE1EEEEE5valueE, symObjAddr: 0x700, symBinAddr: 0x3F11B, symSize: 0x0 }
  - { offset: 0x13DDD8, size: 0x8, addend: 0x0, symName: __ZN5folly6detail24reentrant_allocator_baseC2ERKNS_27reentrant_allocator_optionsE, symObjAddr: 0x0, symBinAddr: 0x24F2C, symSize: 0x4C }
  - { offset: 0x13E02F, size: 0x8, addend: 0x0, symName: __ZN5folly12_GLOBAL__N_118reentrant_allocateEm.cold.2, symObjAddr: 0x438, symBinAddr: 0x393A8, symSize: 0x24 }
  - { offset: 0x13E085, size: 0x8, addend: 0x0, symName: __ZN5folly12_GLOBAL__N_118reentrant_allocateEm.cold.1, symObjAddr: 0x414, symBinAddr: 0x39384, symSize: 0x24 }
  - { offset: 0x13E107, size: 0x8, addend: 0x0, symName: __ZN5folly6detail24reentrant_allocator_baseC1ERKNS_27reentrant_allocator_optionsE, symObjAddr: 0x90, symBinAddr: 0x24FBC, symSize: 0x4C }
  - { offset: 0x13E304, size: 0x8, addend: 0x0, symName: __ZN5folly6detail24reentrant_allocator_baseC2ERKS1_, symObjAddr: 0xDC, symBinAddr: 0x25008, symSize: 0x24 }
  - { offset: 0x13E3A2, size: 0x8, addend: 0x0, symName: __ZN5folly6detail24reentrant_allocator_baseC1ERKS1_, symObjAddr: 0x100, symBinAddr: 0x2502C, symSize: 0x24 }
  - { offset: 0x13E3DD, size: 0x8, addend: 0x0, symName: __ZN5folly6detail24reentrant_allocator_baseC1ERKS1_, symObjAddr: 0x100, symBinAddr: 0x2502C, symSize: 0x24 }
  - { offset: 0x13E47A, size: 0x8, addend: 0x0, symName: __ZN5folly6detail24reentrant_allocator_baseaSERKS1_, symObjAddr: 0x124, symBinAddr: 0x25050, symSize: 0x6C }
  - { offset: 0x13E566, size: 0x8, addend: 0x0, symName: __ZN5folly6detail24reentrant_allocator_base10obliterateEv, symObjAddr: 0x190, symBinAddr: 0x250BC, symSize: 0x54 }
  - { offset: 0x13E676, size: 0x8, addend: 0x0, symName: __ZN5folly6detail24reentrant_allocator_baseD2Ev, symObjAddr: 0x1E4, symBinAddr: 0x25110, symSize: 0x44 }
  - { offset: 0x13E718, size: 0x8, addend: 0x0, symName: __ZN5folly6detail24reentrant_allocator_baseD1Ev, symObjAddr: 0x228, symBinAddr: 0x25154, symSize: 0x44 }
  - { offset: 0x13E8D7, size: 0x8, addend: 0x0, symName: __ZN5folly6detail24reentrant_allocator_base8allocateEmm, symObjAddr: 0x26C, symBinAddr: 0x25198, symSize: 0x120 }
  - { offset: 0x13EBD2, size: 0x8, addend: 0x0, symName: __ZN5folly12_GLOBAL__N_120reentrant_deallocateEPvm.cold.3, symObjAddr: 0x4A4, symBinAddr: 0x39414, symSize: 0x24 }
  - { offset: 0x13EC28, size: 0x8, addend: 0x0, symName: __ZN5folly12_GLOBAL__N_120reentrant_deallocateEPvm.cold.2, symObjAddr: 0x480, symBinAddr: 0x393F0, symSize: 0x24 }
  - { offset: 0x13EC7E, size: 0x8, addend: 0x0, symName: __ZN5folly12_GLOBAL__N_120reentrant_deallocateEPvm.cold.1, symObjAddr: 0x45C, symBinAddr: 0x393CC, symSize: 0x24 }
  - { offset: 0x13ECD4, size: 0x8, addend: 0x0, symName: __ZN5folly6detail24reentrant_allocator_base10deallocateEPvm.cold.1, symObjAddr: 0x4C8, symBinAddr: 0x39438, symSize: 0x24 }
  - { offset: 0x140D17, size: 0x8, addend: 0x0, symName: __ZN5folly6detail12_GLOBAL__N_16errorsE, symObjAddr: 0x770, symBinAddr: 0x48EA8, symSize: 0x0 }
  - { offset: 0x140D25, size: 0x8, addend: 0x0, symName: __ZN5folly6detail12_GLOBAL__N_123safe_assert_terminate_vEPKNS0_15safe_assert_argEiPc, symObjAddr: 0x20, symBinAddr: 0x3947C, symSize: 0x214 }
  - { offset: 0x141295, size: 0x8, addend: 0x0, symName: __ZN5folly6detail12_GLOBAL__N_111writeStderrEPKcm, symObjAddr: 0x278, symBinAddr: 0x25330, symSize: 0x68 }
  - { offset: 0x141312, size: 0x8, addend: 0x0, symName: __ZN5folly6detail12_GLOBAL__N_111flushStderrEv, symObjAddr: 0x2E0, symBinAddr: 0x25398, symSize: 0x30 }
  - { offset: 0x141362, size: 0x8, addend: 0x0, symName: __ZN5folly6detail21safe_assert_terminateILb0EEEvPKNS0_15safe_assert_argEz, symObjAddr: 0x0, symBinAddr: 0x3945C, symSize: 0x20 }
  - { offset: 0x1413A2, size: 0x8, addend: 0x0, symName: __ZN5folly6detail12_GLOBAL__N_123safe_assert_terminate_vEPKNS0_15safe_assert_argEiPc, symObjAddr: 0x20, symBinAddr: 0x3947C, symSize: 0x214 }
  - { offset: 0x1413CA, size: 0x8, addend: 0x0, symName: __ZN5folly6detail21safe_assert_terminateILb1EEEvPKNS0_15safe_assert_argEz, symObjAddr: 0x234, symBinAddr: 0x39690, symSize: 0x34 }
  - { offset: 0x1425A6, size: 0x8, addend: 0x0, symName: _OUTLINED_FUNCTION_1, symObjAddr: 0x3D0, symBinAddr: 0x253D0, symSize: 0x8 }
  - { offset: 0x1425BE, size: 0x8, addend: 0x0, symName: _OUTLINED_FUNCTION_2, symObjAddr: 0x3D8, symBinAddr: 0x253D8, symSize: 0x8 }
  - { offset: 0x1425D6, size: 0x8, addend: 0x0, symName: _OUTLINED_FUNCTION_0, symObjAddr: 0x3C8, symBinAddr: 0x253C8, symSize: 0x8 }
  - { offset: 0x144578, size: 0x8, addend: 0x0, symName: __ZN5folly6detail24annotate_rwlock_create_vE, symObjAddr: 0x0, symBinAddr: 0x3F120, symSize: 0x0 }
  - { offset: 0x14459D, size: 0x8, addend: 0x0, symName: __ZN5folly6detail31annotate_rwlock_create_static_vE, symObjAddr: 0x8, symBinAddr: 0x3F128, symSize: 0x0 }
  - { offset: 0x1445B7, size: 0x8, addend: 0x0, symName: __ZN5folly6detail25annotate_rwlock_destroy_vE, symObjAddr: 0x10, symBinAddr: 0x3F130, symSize: 0x0 }
  - { offset: 0x1445D1, size: 0x8, addend: 0x0, symName: __ZN5folly6detail26annotate_rwlock_acquired_vE, symObjAddr: 0x18, symBinAddr: 0x3F138, symSize: 0x0 }
  - { offset: 0x1445F6, size: 0x8, addend: 0x0, symName: __ZN5folly6detail26annotate_rwlock_released_vE, symObjAddr: 0x20, symBinAddr: 0x3F140, symSize: 0x0 }
  - { offset: 0x144610, size: 0x8, addend: 0x0, symName: __ZN5folly6detail28annotate_benign_race_sized_vE, symObjAddr: 0x28, symBinAddr: 0x3F148, symSize: 0x0 }
  - { offset: 0x144635, size: 0x8, addend: 0x0, symName: __ZN5folly6detail29annotate_ignore_reads_begin_vE, symObjAddr: 0x30, symBinAddr: 0x3F150, symSize: 0x0 }
  - { offset: 0x14465A, size: 0x8, addend: 0x0, symName: __ZN5folly6detail27annotate_ignore_reads_end_vE, symObjAddr: 0x38, symBinAddr: 0x3F158, symSize: 0x0 }
  - { offset: 0x144674, size: 0x8, addend: 0x0, symName: __ZN5folly6detail30annotate_ignore_writes_begin_vE, symObjAddr: 0x40, symBinAddr: 0x3F160, symSize: 0x0 }
  - { offset: 0x14468E, size: 0x8, addend: 0x0, symName: __ZN5folly6detail28annotate_ignore_writes_end_vE, symObjAddr: 0x48, symBinAddr: 0x3F168, symSize: 0x0 }
  - { offset: 0x1446A8, size: 0x8, addend: 0x0, symName: __ZN5folly6detail28annotate_ignore_sync_begin_vE, symObjAddr: 0x50, symBinAddr: 0x3F170, symSize: 0x0 }
  - { offset: 0x1446C2, size: 0x8, addend: 0x0, symName: __ZN5folly6detail26annotate_ignore_sync_end_vE, symObjAddr: 0x58, symBinAddr: 0x3F178, symSize: 0x0 }
  - { offset: 0x148D1B, size: 0x8, addend: 0x0, symName: __ZN5folly6detail18ScopeGuardImplBase9terminateEv, symObjAddr: 0x0, symBinAddr: 0x253E0, symSize: 0x44 }
  - { offset: 0x14D597, size: 0x8, addend: 0x0, symName: __ZNSt3__115make_error_codeB8ne200100ENS_4errcE, symObjAddr: 0x17EC, symBinAddr: 0x26B04, symSize: 0x28 }
  - { offset: 0x14ED8A, size: 0x8, addend: 0x0, symName: __ZN5folly19shared_mutex_detail25getMaxDeferredReadersSlowERNS_14relaxed_atomicIjEE, symObjAddr: 0x177C, symBinAddr: 0x396C4, symSize: 0x54 }
  - { offset: 0x14EEA3, size: 0x8, addend: 0x0, symName: __ZN5folly19shared_mutex_detail15annotationGuardEPv, symObjAddr: 0x1770, symBinAddr: 0x26ADC, symSize: 0xC }
  - { offset: 0x14EED2, size: 0x8, addend: 0x0, symName: __ZN5folly19shared_mutex_detail15annotationGuardEPv, symObjAddr: 0x1770, symBinAddr: 0x26ADC, symSize: 0xC }
  - { offset: 0x14EEED, size: 0x8, addend: 0x0, symName: __ZN5folly19shared_mutex_detail15annotationGuardEPv, symObjAddr: 0x1770, symBinAddr: 0x26ADC, symSize: 0xC }
  - { offset: 0x14EF08, size: 0x8, addend: 0x0, symName: __ZN5folly19shared_mutex_detail45getCurrentThreadInvoluntaryContextSwitchCountEv, symObjAddr: 0x17D0, symBinAddr: 0x26AE8, symSize: 0x8 }
  - { offset: 0x14EF25, size: 0x8, addend: 0x0, symName: __ZN5folly19shared_mutex_detail26throwOperationNotPermittedEv, symObjAddr: 0x17D8, symBinAddr: 0x26AF0, symSize: 0x14 }
  - { offset: 0x14EF6B, size: 0x8, addend: 0x0, symName: __ZNSt3__115make_error_codeB8ne200100ENS_4errcE, symObjAddr: 0x17EC, symBinAddr: 0x26B04, symSize: 0x28 }
  - { offset: 0x14EF75, size: 0x8, addend: 0x0, symName: __ZN5folly19shared_mutex_detail23throwDeadlockWouldOccurEv, symObjAddr: 0x1814, symBinAddr: 0x26B2C, symSize: 0x14 }
  - { offset: 0x14EFBB, size: 0x8, addend: 0x0, symName: __ZN5folly15SharedMutexImplILb1EvNSt3__16atomicENS_24SharedMutexPolicyDefaultEE17lockExclusiveImplINS4_11WaitForeverEEEbRjjRT_, symObjAddr: 0x1828, symBinAddr: 0x26B40, symSize: 0x168 }
  - { offset: 0x14F525, size: 0x8, addend: 0x0, symName: __ZN5folly6detail16throw_exception_INSt3__112system_errorEJNS2_10error_codeEEEEvDpT0_, symObjAddr: 0x3494, symBinAddr: 0x39790, symSize: 0x40 }
  - { offset: 0x14F61D, size: 0x8, addend: 0x0, symName: __ZN5folly15SharedMutexImplILb1EvNSt3__16atomicENS_24SharedMutexPolicyDefaultEE15deferredReadersE, symObjAddr: 0x3900, symBinAddr: 0x4C300, symSize: 0x0 }
  - { offset: 0x14FFC0, size: 0x8, addend: 0x0, symName: __ZN5folly15SharedMutexImplILb0EvNSt3__16atomicENS_24SharedMutexPolicyDefaultEE15deferredReadersE, symObjAddr: 0x7980, symBinAddr: 0x50380, symSize: 0x0 }
  - { offset: 0x15006C, size: 0x8, addend: 0x0, symName: __ZN5folly15throw_exceptionINSt3__112system_errorEEEvOT_, symObjAddr: 0x34D4, symBinAddr: 0x397D0, symSize: 0x34 }
  - { offset: 0x1501E5, size: 0x8, addend: 0x0, symName: __ZN5folly15SharedMutexImplILb1EvNSt3__16atomicENS_24SharedMutexPolicyDefaultEE21tls_lastTokenlessSlotEv, symObjAddr: 0xAF0, symBinAddr: 0x25F04, symSize: 0xC }
  - { offset: 0x150206, size: 0x8, addend: 0x0, symName: __ZZN5folly15SharedMutexImplILb1EvNSt3__16atomicENS_24SharedMutexPolicyDefaultEE21tls_lastTokenlessSlotEvE6non_tl, symObjAddr: 0x3880, symBinAddr: 0x4C280, symSize: 0x0 }
  - { offset: 0x15021E, size: 0x8, addend: 0x0, symName: __ZN5folly15SharedMutexImplILb1EvNSt3__16atomicENS_24SharedMutexPolicyDefaultEE26tls_lastDeferredReaderSlotEv, symObjAddr: 0xAFC, symBinAddr: 0x25F10, symSize: 0xC }
  - { offset: 0x15023F, size: 0x8, addend: 0x0, symName: __ZZN5folly15SharedMutexImplILb1EvNSt3__16atomicENS_24SharedMutexPolicyDefaultEE26tls_lastDeferredReaderSlotEvE6non_tl, symObjAddr: 0x3884, symBinAddr: 0x4C284, symSize: 0x0 }
  - { offset: 0x15028A, size: 0x8, addend: 0x0, symName: __ZN5folly15SharedMutexImplILb0EvNSt3__16atomicENS_24SharedMutexPolicyDefaultEE21tls_lastTokenlessSlotEv, symObjAddr: 0x16A0, symBinAddr: 0x26A0C, symSize: 0xC }
  - { offset: 0x1502AB, size: 0x8, addend: 0x0, symName: __ZZN5folly15SharedMutexImplILb0EvNSt3__16atomicENS_24SharedMutexPolicyDefaultEE21tls_lastTokenlessSlotEvE6non_tl, symObjAddr: 0x7900, symBinAddr: 0x50300, symSize: 0x0 }
  - { offset: 0x1502C3, size: 0x8, addend: 0x0, symName: __ZN5folly15SharedMutexImplILb0EvNSt3__16atomicENS_24SharedMutexPolicyDefaultEE26tls_lastDeferredReaderSlotEv, symObjAddr: 0x16AC, symBinAddr: 0x26A18, symSize: 0xC }
  - { offset: 0x1502E4, size: 0x8, addend: 0x0, symName: __ZZN5folly15SharedMutexImplILb0EvNSt3__16atomicENS_24SharedMutexPolicyDefaultEE26tls_lastDeferredReaderSlotEvE6non_tl, symObjAddr: 0x7904, symBinAddr: 0x50304, symSize: 0x0 }
  - { offset: 0x150301, size: 0x8, addend: 0x0, symName: __ZN5folly15SharedMutexImplILb1EvNSt3__16atomicENS_24SharedMutexPolicyDefaultEE26AnnotateForThreadSanitizerE, symObjAddr: 0x3738, symBinAddr: 0x3F180, symSize: 0x0 }
  - { offset: 0x150314, size: 0x8, addend: 0x0, symName: __ZN5folly15SharedMutexImplILb1EvNSt3__16atomicENS_24SharedMutexPolicyDefaultEE15kReaderPriorityE, symObjAddr: 0x3739, symBinAddr: 0x3F181, symSize: 0x0 }
  - { offset: 0x150327, size: 0x8, addend: 0x0, symName: __ZN5folly15SharedMutexImplILb1EvNSt3__16atomicENS_24SharedMutexPolicyDefaultEE9kIncrHasSE, symObjAddr: 0x373C, symBinAddr: 0x3F184, symSize: 0x0 }
  - { offset: 0x15033A, size: 0x8, addend: 0x0, symName: __ZN5folly15SharedMutexImplILb1EvNSt3__16atomicENS_24SharedMutexPolicyDefaultEE5kHasSE, symObjAddr: 0x3740, symBinAddr: 0x3F188, symSize: 0x0 }
  - { offset: 0x15034D, size: 0x8, addend: 0x0, symName: __ZN5folly15SharedMutexImplILb1EvNSt3__16atomicENS_24SharedMutexPolicyDefaultEE18kAnnotationCreatedE, symObjAddr: 0x3744, symBinAddr: 0x3F18C, symSize: 0x0 }
  - { offset: 0x150360, size: 0x8, addend: 0x0, symName: __ZN5folly15SharedMutexImplILb1EvNSt3__16atomicENS_24SharedMutexPolicyDefaultEE9kMayDeferE, symObjAddr: 0x3748, symBinAddr: 0x3F190, symSize: 0x0 }
  - { offset: 0x150373, size: 0x8, addend: 0x0, symName: __ZN5folly15SharedMutexImplILb1EvNSt3__16atomicENS_24SharedMutexPolicyDefaultEE10kPrevDeferE, symObjAddr: 0x374C, symBinAddr: 0x3F194, symSize: 0x0 }
  - { offset: 0x150386, size: 0x8, addend: 0x0, symName: __ZN5folly15SharedMutexImplILb1EvNSt3__16atomicENS_24SharedMutexPolicyDefaultEE5kHasEE, symObjAddr: 0x3750, symBinAddr: 0x3F198, symSize: 0x0 }
  - { offset: 0x150399, size: 0x8, addend: 0x0, symName: __ZN5folly15SharedMutexImplILb1EvNSt3__16atomicENS_24SharedMutexPolicyDefaultEE7kBegunEE, symObjAddr: 0x3754, symBinAddr: 0x3F19C, symSize: 0x0 }
  - { offset: 0x1503AC, size: 0x8, addend: 0x0, symName: __ZN5folly15SharedMutexImplILb1EvNSt3__16atomicENS_24SharedMutexPolicyDefaultEE5kHasUE, symObjAddr: 0x3758, symBinAddr: 0x3F1A0, symSize: 0x0 }
  - { offset: 0x1503BF, size: 0x8, addend: 0x0, symName: __ZN5folly15SharedMutexImplILb1EvNSt3__16atomicENS_24SharedMutexPolicyDefaultEE8kHasSoloE, symObjAddr: 0x375C, symBinAddr: 0x3F1A4, symSize: 0x0 }
  - { offset: 0x1503D2, size: 0x8, addend: 0x0, symName: __ZN5folly15SharedMutexImplILb1EvNSt3__16atomicENS_24SharedMutexPolicyDefaultEE12kWaitingNotSE, symObjAddr: 0x3760, symBinAddr: 0x3F1A8, symSize: 0x0 }
  - { offset: 0x1503E5, size: 0x8, addend: 0x0, symName: __ZN5folly15SharedMutexImplILb1EvNSt3__16atomicENS_24SharedMutexPolicyDefaultEE15kWaitingESingleE, symObjAddr: 0x3764, symBinAddr: 0x3F1AC, symSize: 0x0 }
  - { offset: 0x1503F8, size: 0x8, addend: 0x0, symName: __ZN5folly15SharedMutexImplILb1EvNSt3__16atomicENS_24SharedMutexPolicyDefaultEE17kWaitingEMultipleE, symObjAddr: 0x3768, symBinAddr: 0x3F1B0, symSize: 0x0 }
  - { offset: 0x15040B, size: 0x8, addend: 0x0, symName: __ZN5folly15SharedMutexImplILb1EvNSt3__16atomicENS_24SharedMutexPolicyDefaultEE9kWaitingEE, symObjAddr: 0x376C, symBinAddr: 0x3F1B4, symSize: 0x0 }
  - { offset: 0x15041E, size: 0x8, addend: 0x0, symName: __ZN5folly15SharedMutexImplILb1EvNSt3__16atomicENS_24SharedMutexPolicyDefaultEE9kWaitingUE, symObjAddr: 0x3770, symBinAddr: 0x3F1B8, symSize: 0x0 }
  - { offset: 0x150431, size: 0x8, addend: 0x0, symName: __ZN5folly15SharedMutexImplILb1EvNSt3__16atomicENS_24SharedMutexPolicyDefaultEE9kWaitingSE, symObjAddr: 0x3774, symBinAddr: 0x3F1BC, symSize: 0x0 }
  - { offset: 0x150444, size: 0x8, addend: 0x0, symName: __ZN5folly15SharedMutexImplILb1EvNSt3__16atomicENS_24SharedMutexPolicyDefaultEE11kWaitingAnyE, symObjAddr: 0x3778, symBinAddr: 0x3F1C0, symSize: 0x0 }
  - { offset: 0x150457, size: 0x8, addend: 0x0, symName: __ZN5folly15SharedMutexImplILb1EvNSt3__16atomicENS_24SharedMutexPolicyDefaultEE26kNumSharedToStartDeferringE, symObjAddr: 0x377C, symBinAddr: 0x3F1C4, symSize: 0x0 }
  - { offset: 0x15046A, size: 0x8, addend: 0x0, symName: __ZN5folly15SharedMutexImplILb1EvNSt3__16atomicENS_24SharedMutexPolicyDefaultEE14kMaxSpinCyclesE, symObjAddr: 0x3780, symBinAddr: 0x3F1C8, symSize: 0x0 }
  - { offset: 0x15047D, size: 0x8, addend: 0x0, symName: __ZN5folly15SharedMutexImplILb1EvNSt3__16atomicENS_24SharedMutexPolicyDefaultEE18kMaxSoftYieldCountE, symObjAddr: 0x3788, symBinAddr: 0x3F1D0, symSize: 0x0 }
  - { offset: 0x150490, size: 0x8, addend: 0x0, symName: __ZN5folly15SharedMutexImplILb1EvNSt3__16atomicENS_24SharedMutexPolicyDefaultEE23kDeferredSearchDistanceE, symObjAddr: 0x378C, symBinAddr: 0x3F1D4, symSize: 0x0 }
  - { offset: 0x1504A3, size: 0x8, addend: 0x0, symName: __ZN5folly15SharedMutexImplILb1EvNSt3__16atomicENS_24SharedMutexPolicyDefaultEE25kDeferredSeparationFactorE, symObjAddr: 0x3790, symBinAddr: 0x3F1D8, symSize: 0x0 }
  - { offset: 0x1504B6, size: 0x8, addend: 0x0, symName: __ZN5folly15SharedMutexImplILb1EvNSt3__16atomicENS_24SharedMutexPolicyDefaultEE10kTokenlessE, symObjAddr: 0x3798, symBinAddr: 0x3F1E0, symSize: 0x0 }
  - { offset: 0x1504C9, size: 0x8, addend: 0x0, symName: __ZN5folly15SharedMutexImplILb0EvNSt3__16atomicENS_24SharedMutexPolicyDefaultEE26AnnotateForThreadSanitizerE, symObjAddr: 0x37A0, symBinAddr: 0x3F1E8, symSize: 0x0 }
  - { offset: 0x1504DC, size: 0x8, addend: 0x0, symName: __ZN5folly15SharedMutexImplILb0EvNSt3__16atomicENS_24SharedMutexPolicyDefaultEE15kReaderPriorityE, symObjAddr: 0x37A1, symBinAddr: 0x3F1E9, symSize: 0x0 }
  - { offset: 0x1504EF, size: 0x8, addend: 0x0, symName: __ZN5folly15SharedMutexImplILb0EvNSt3__16atomicENS_24SharedMutexPolicyDefaultEE9kIncrHasSE, symObjAddr: 0x37A4, symBinAddr: 0x3F1EC, symSize: 0x0 }
  - { offset: 0x150502, size: 0x8, addend: 0x0, symName: __ZN5folly15SharedMutexImplILb0EvNSt3__16atomicENS_24SharedMutexPolicyDefaultEE5kHasSE, symObjAddr: 0x37A8, symBinAddr: 0x3F1F0, symSize: 0x0 }
  - { offset: 0x150515, size: 0x8, addend: 0x0, symName: __ZN5folly15SharedMutexImplILb0EvNSt3__16atomicENS_24SharedMutexPolicyDefaultEE18kAnnotationCreatedE, symObjAddr: 0x37AC, symBinAddr: 0x3F1F4, symSize: 0x0 }
  - { offset: 0x150528, size: 0x8, addend: 0x0, symName: __ZN5folly15SharedMutexImplILb0EvNSt3__16atomicENS_24SharedMutexPolicyDefaultEE9kMayDeferE, symObjAddr: 0x37B0, symBinAddr: 0x3F1F8, symSize: 0x0 }
  - { offset: 0x15053B, size: 0x8, addend: 0x0, symName: __ZN5folly15SharedMutexImplILb0EvNSt3__16atomicENS_24SharedMutexPolicyDefaultEE10kPrevDeferE, symObjAddr: 0x37B4, symBinAddr: 0x3F1FC, symSize: 0x0 }
  - { offset: 0x15054E, size: 0x8, addend: 0x0, symName: __ZN5folly15SharedMutexImplILb0EvNSt3__16atomicENS_24SharedMutexPolicyDefaultEE5kHasEE, symObjAddr: 0x37B8, symBinAddr: 0x3F200, symSize: 0x0 }
  - { offset: 0x150561, size: 0x8, addend: 0x0, symName: __ZN5folly15SharedMutexImplILb0EvNSt3__16atomicENS_24SharedMutexPolicyDefaultEE7kBegunEE, symObjAddr: 0x37BC, symBinAddr: 0x3F204, symSize: 0x0 }
  - { offset: 0x150574, size: 0x8, addend: 0x0, symName: __ZN5folly15SharedMutexImplILb0EvNSt3__16atomicENS_24SharedMutexPolicyDefaultEE5kHasUE, symObjAddr: 0x37C0, symBinAddr: 0x3F208, symSize: 0x0 }
  - { offset: 0x150587, size: 0x8, addend: 0x0, symName: __ZN5folly15SharedMutexImplILb0EvNSt3__16atomicENS_24SharedMutexPolicyDefaultEE8kHasSoloE, symObjAddr: 0x37C4, symBinAddr: 0x3F20C, symSize: 0x0 }
  - { offset: 0x15059A, size: 0x8, addend: 0x0, symName: __ZN5folly15SharedMutexImplILb0EvNSt3__16atomicENS_24SharedMutexPolicyDefaultEE12kWaitingNotSE, symObjAddr: 0x37C8, symBinAddr: 0x3F210, symSize: 0x0 }
  - { offset: 0x1505AD, size: 0x8, addend: 0x0, symName: __ZN5folly15SharedMutexImplILb0EvNSt3__16atomicENS_24SharedMutexPolicyDefaultEE15kWaitingESingleE, symObjAddr: 0x37CC, symBinAddr: 0x3F214, symSize: 0x0 }
  - { offset: 0x1505C0, size: 0x8, addend: 0x0, symName: __ZN5folly15SharedMutexImplILb0EvNSt3__16atomicENS_24SharedMutexPolicyDefaultEE17kWaitingEMultipleE, symObjAddr: 0x37D0, symBinAddr: 0x3F218, symSize: 0x0 }
  - { offset: 0x1505D3, size: 0x8, addend: 0x0, symName: __ZN5folly15SharedMutexImplILb0EvNSt3__16atomicENS_24SharedMutexPolicyDefaultEE9kWaitingEE, symObjAddr: 0x37D4, symBinAddr: 0x3F21C, symSize: 0x0 }
  - { offset: 0x1505E6, size: 0x8, addend: 0x0, symName: __ZN5folly15SharedMutexImplILb0EvNSt3__16atomicENS_24SharedMutexPolicyDefaultEE9kWaitingUE, symObjAddr: 0x37D8, symBinAddr: 0x3F220, symSize: 0x0 }
  - { offset: 0x1505F9, size: 0x8, addend: 0x0, symName: __ZN5folly15SharedMutexImplILb0EvNSt3__16atomicENS_24SharedMutexPolicyDefaultEE9kWaitingSE, symObjAddr: 0x37DC, symBinAddr: 0x3F224, symSize: 0x0 }
  - { offset: 0x15060C, size: 0x8, addend: 0x0, symName: __ZN5folly15SharedMutexImplILb0EvNSt3__16atomicENS_24SharedMutexPolicyDefaultEE11kWaitingAnyE, symObjAddr: 0x37E0, symBinAddr: 0x3F228, symSize: 0x0 }
  - { offset: 0x15061F, size: 0x8, addend: 0x0, symName: __ZN5folly15SharedMutexImplILb0EvNSt3__16atomicENS_24SharedMutexPolicyDefaultEE26kNumSharedToStartDeferringE, symObjAddr: 0x37E4, symBinAddr: 0x3F22C, symSize: 0x0 }
  - { offset: 0x150632, size: 0x8, addend: 0x0, symName: __ZN5folly15SharedMutexImplILb0EvNSt3__16atomicENS_24SharedMutexPolicyDefaultEE14kMaxSpinCyclesE, symObjAddr: 0x37E8, symBinAddr: 0x3F230, symSize: 0x0 }
  - { offset: 0x150645, size: 0x8, addend: 0x0, symName: __ZN5folly15SharedMutexImplILb0EvNSt3__16atomicENS_24SharedMutexPolicyDefaultEE18kMaxSoftYieldCountE, symObjAddr: 0x37F0, symBinAddr: 0x3F238, symSize: 0x0 }
  - { offset: 0x150658, size: 0x8, addend: 0x0, symName: __ZN5folly15SharedMutexImplILb0EvNSt3__16atomicENS_24SharedMutexPolicyDefaultEE23kDeferredSearchDistanceE, symObjAddr: 0x37F4, symBinAddr: 0x3F23C, symSize: 0x0 }
  - { offset: 0x15066B, size: 0x8, addend: 0x0, symName: __ZN5folly15SharedMutexImplILb0EvNSt3__16atomicENS_24SharedMutexPolicyDefaultEE25kDeferredSeparationFactorE, symObjAddr: 0x37F8, symBinAddr: 0x3F240, symSize: 0x0 }
  - { offset: 0x15067E, size: 0x8, addend: 0x0, symName: __ZN5folly15SharedMutexImplILb0EvNSt3__16atomicENS_24SharedMutexPolicyDefaultEE10kTokenlessE, symObjAddr: 0x3800, symBinAddr: 0x3F248, symSize: 0x0 }
  - { offset: 0x1508D4, size: 0x8, addend: 0x0, symName: __ZN5folly15SharedMutexImplILb1EvNSt3__16atomicENS_24SharedMutexPolicyDefaultEEC2Ev, symObjAddr: 0x0, symBinAddr: 0x25424, symSize: 0x8 }
  - { offset: 0x1508F6, size: 0x8, addend: 0x0, symName: __ZN5folly15SharedMutexImplILb1EvNSt3__16atomicENS_24SharedMutexPolicyDefaultEEC2Ev, symObjAddr: 0x0, symBinAddr: 0x25424, symSize: 0x8 }
  - { offset: 0x150918, size: 0x8, addend: 0x0, symName: __ZN5folly15SharedMutexImplILb1EvNSt3__16atomicENS_24SharedMutexPolicyDefaultEEC2Ev, symObjAddr: 0x0, symBinAddr: 0x25424, symSize: 0x8 }
  - { offset: 0x150939, size: 0x8, addend: 0x0, symName: __ZN5folly15SharedMutexImplILb1EvNSt3__16atomicENS_24SharedMutexPolicyDefaultEEC2Ev, symObjAddr: 0x0, symBinAddr: 0x25424, symSize: 0x8 }
  - { offset: 0x15095A, size: 0x8, addend: 0x0, symName: __ZN5folly15SharedMutexImplILb1EvNSt3__16atomicENS_24SharedMutexPolicyDefaultEEC2Ev, symObjAddr: 0x0, symBinAddr: 0x25424, symSize: 0x8 }
  - { offset: 0x15097B, size: 0x8, addend: 0x0, symName: __ZN5folly15SharedMutexImplILb1EvNSt3__16atomicENS_24SharedMutexPolicyDefaultEEC2Ev, symObjAddr: 0x0, symBinAddr: 0x25424, symSize: 0x8 }
  - { offset: 0x15099C, size: 0x8, addend: 0x0, symName: __ZN5folly15SharedMutexImplILb1EvNSt3__16atomicENS_24SharedMutexPolicyDefaultEEC2Ev, symObjAddr: 0x0, symBinAddr: 0x25424, symSize: 0x8 }
  - { offset: 0x1509BD, size: 0x8, addend: 0x0, symName: __ZN5folly15SharedMutexImplILb1EvNSt3__16atomicENS_24SharedMutexPolicyDefaultEEC2Ev, symObjAddr: 0x0, symBinAddr: 0x25424, symSize: 0x8 }
  - { offset: 0x150A02, size: 0x8, addend: 0x0, symName: __ZN5folly15SharedMutexImplILb1EvNSt3__16atomicENS_24SharedMutexPolicyDefaultEEC1Ev, symObjAddr: 0x8, symBinAddr: 0x2542C, symSize: 0x8 }
  - { offset: 0x150A2D, size: 0x8, addend: 0x0, symName: __ZN5folly15SharedMutexImplILb1EvNSt3__16atomicENS_24SharedMutexPolicyDefaultEEC1Ev, symObjAddr: 0x8, symBinAddr: 0x2542C, symSize: 0x8 }
  - { offset: 0x150A49, size: 0x8, addend: 0x0, symName: __ZN5folly15SharedMutexImplILb1EvNSt3__16atomicENS_24SharedMutexPolicyDefaultEEC1Ev, symObjAddr: 0x8, symBinAddr: 0x2542C, symSize: 0x8 }
  - { offset: 0x150A6B, size: 0x8, addend: 0x0, symName: __ZN5folly15SharedMutexImplILb1EvNSt3__16atomicENS_24SharedMutexPolicyDefaultEEC1Ev, symObjAddr: 0x8, symBinAddr: 0x2542C, symSize: 0x8 }
  - { offset: 0x150A8C, size: 0x8, addend: 0x0, symName: __ZN5folly15SharedMutexImplILb1EvNSt3__16atomicENS_24SharedMutexPolicyDefaultEEC1Ev, symObjAddr: 0x8, symBinAddr: 0x2542C, symSize: 0x8 }
  - { offset: 0x150AAD, size: 0x8, addend: 0x0, symName: __ZN5folly15SharedMutexImplILb1EvNSt3__16atomicENS_24SharedMutexPolicyDefaultEEC1Ev, symObjAddr: 0x8, symBinAddr: 0x2542C, symSize: 0x8 }
  - { offset: 0x150ACE, size: 0x8, addend: 0x0, symName: __ZN5folly15SharedMutexImplILb1EvNSt3__16atomicENS_24SharedMutexPolicyDefaultEEC1Ev, symObjAddr: 0x8, symBinAddr: 0x2542C, symSize: 0x8 }
  - { offset: 0x150AEF, size: 0x8, addend: 0x0, symName: __ZN5folly15SharedMutexImplILb1EvNSt3__16atomicENS_24SharedMutexPolicyDefaultEEC1Ev, symObjAddr: 0x8, symBinAddr: 0x2542C, symSize: 0x8 }
  - { offset: 0x150B10, size: 0x8, addend: 0x0, symName: __ZN5folly15SharedMutexImplILb1EvNSt3__16atomicENS_24SharedMutexPolicyDefaultEEC1Ev, symObjAddr: 0x8, symBinAddr: 0x2542C, symSize: 0x8 }
  - { offset: 0x150B67, size: 0x8, addend: 0x0, symName: __ZN5folly15SharedMutexImplILb1EvNSt3__16atomicENS_24SharedMutexPolicyDefaultEED2Ev, symObjAddr: 0x10, symBinAddr: 0x25434, symSize: 0x4C }
  - { offset: 0x150C07, size: 0x8, addend: 0x0, symName: __ZN5folly15SharedMutexImplILb1EvNSt3__16atomicENS_24SharedMutexPolicyDefaultEE30cleanupTokenlessSharedDeferredERj, symObjAddr: 0x5C, symBinAddr: 0x25480, symSize: 0x94 }
  - { offset: 0x150E8B, size: 0x8, addend: 0x0, symName: __ZN5folly15SharedMutexImplILb1EvNSt3__16atomicENS_24SharedMutexPolicyDefaultEE15annotateDestroyEv, symObjAddr: 0x100, symBinAddr: 0x25514, symSize: 0x4 }
  - { offset: 0x150EB0, size: 0x8, addend: 0x0, symName: __ZN5folly15SharedMutexImplILb1EvNSt3__16atomicENS_24SharedMutexPolicyDefaultEED1Ev, symObjAddr: 0x104, symBinAddr: 0x25518, symSize: 0x4 }
  - { offset: 0x150EDC, size: 0x8, addend: 0x0, symName: __ZN5folly15SharedMutexImplILb1EvNSt3__16atomicENS_24SharedMutexPolicyDefaultEED1Ev, symObjAddr: 0x104, symBinAddr: 0x25518, symSize: 0x4 }
  - { offset: 0x150EEF, size: 0x8, addend: 0x0, symName: __ZNK5folly15SharedMutexImplILb1EvNSt3__16atomicENS_24SharedMutexPolicyDefaultEE25eligible_for_lock_elisionEv, symObjAddr: 0x108, symBinAddr: 0x2551C, symSize: 0x14 }
  - { offset: 0x150F28, size: 0x8, addend: 0x0, symName: __ZNK5folly15SharedMutexImplILb1EvNSt3__16atomicENS_24SharedMutexPolicyDefaultEE25eligible_for_lock_elisionEv, symObjAddr: 0x108, symBinAddr: 0x2551C, symSize: 0x14 }
  - { offset: 0x150F4A, size: 0x8, addend: 0x0, symName: __ZNK5folly15SharedMutexImplILb1EvNSt3__16atomicENS_24SharedMutexPolicyDefaultEE25eligible_for_lock_elisionEv, symObjAddr: 0x108, symBinAddr: 0x2551C, symSize: 0x14 }
  - { offset: 0x150F6B, size: 0x8, addend: 0x0, symName: __ZNK5folly15SharedMutexImplILb1EvNSt3__16atomicENS_24SharedMutexPolicyDefaultEE33eligible_for_lock_upgrade_elisionEv, symObjAddr: 0x11C, symBinAddr: 0x25530, symSize: 0x14 }
  - { offset: 0x150FA4, size: 0x8, addend: 0x0, symName: __ZNK5folly15SharedMutexImplILb1EvNSt3__16atomicENS_24SharedMutexPolicyDefaultEE33eligible_for_lock_upgrade_elisionEv, symObjAddr: 0x11C, symBinAddr: 0x25530, symSize: 0x14 }
  - { offset: 0x150FC6, size: 0x8, addend: 0x0, symName: __ZNK5folly15SharedMutexImplILb1EvNSt3__16atomicENS_24SharedMutexPolicyDefaultEE33eligible_for_lock_upgrade_elisionEv, symObjAddr: 0x11C, symBinAddr: 0x25530, symSize: 0x14 }
  - { offset: 0x150FE7, size: 0x8, addend: 0x0, symName: __ZNK5folly15SharedMutexImplILb1EvNSt3__16atomicENS_24SharedMutexPolicyDefaultEE32eligible_for_lock_shared_elisionEv, symObjAddr: 0x130, symBinAddr: 0x25544, symSize: 0x10 }
  - { offset: 0x151020, size: 0x8, addend: 0x0, symName: __ZNK5folly15SharedMutexImplILb1EvNSt3__16atomicENS_24SharedMutexPolicyDefaultEE32eligible_for_lock_shared_elisionEv, symObjAddr: 0x130, symBinAddr: 0x25544, symSize: 0x10 }
  - { offset: 0x151042, size: 0x8, addend: 0x0, symName: __ZNK5folly15SharedMutexImplILb1EvNSt3__16atomicENS_24SharedMutexPolicyDefaultEE32eligible_for_lock_shared_elisionEv, symObjAddr: 0x130, symBinAddr: 0x25544, symSize: 0x10 }
  - { offset: 0x151063, size: 0x8, addend: 0x0, symName: __ZN5folly15SharedMutexImplILb1EvNSt3__16atomicENS_24SharedMutexPolicyDefaultEE4lockEv, symObjAddr: 0x140, symBinAddr: 0x25554, symSize: 0x24 }
  - { offset: 0x1510CB, size: 0x8, addend: 0x0, symName: __ZN5folly15SharedMutexImplILb1EvNSt3__16atomicENS_24SharedMutexPolicyDefaultEE17lockExclusiveImplINS4_11WaitForeverEEEbjRT_, symObjAddr: 0x164, symBinAddr: 0x25578, symSize: 0x7C }
  - { offset: 0x151227, size: 0x8, addend: 0x0, symName: __ZN5folly15SharedMutexImplILb1EvNSt3__16atomicENS_24SharedMutexPolicyDefaultEE17lockExclusiveImplINS4_11WaitForeverEEEbRjjRT_, symObjAddr: 0x1828, symBinAddr: 0x26B40, symSize: 0x168 }
  - { offset: 0x1513F1, size: 0x8, addend: 0x0, symName: __ZN5folly15SharedMutexImplILb1EvNSt3__16atomicENS_24SharedMutexPolicyDefaultEE16annotateAcquiredENS_21annotate_rwlock_levelE, symObjAddr: 0x1E0, symBinAddr: 0x255F4, symSize: 0x4 }
  - { offset: 0x151424, size: 0x8, addend: 0x0, symName: __ZN5folly15SharedMutexImplILb1EvNSt3__16atomicENS_24SharedMutexPolicyDefaultEE8try_lockEv, symObjAddr: 0x1E4, symBinAddr: 0x255F8, symSize: 0x24 }
  - { offset: 0x151497, size: 0x8, addend: 0x0, symName: __ZN5folly15SharedMutexImplILb1EvNSt3__16atomicENS_24SharedMutexPolicyDefaultEE17lockExclusiveImplINS4_9WaitNeverEEEbjRT_, symObjAddr: 0x208, symBinAddr: 0x2561C, symSize: 0x7C }
  - { offset: 0x1515BC, size: 0x8, addend: 0x0, symName: __ZN5folly15SharedMutexImplILb1EvNSt3__16atomicENS_24SharedMutexPolicyDefaultEE17lockExclusiveImplINS4_9WaitNeverEEEbRjjRT_, symObjAddr: 0x1D90, symBinAddr: 0x270A8, symSize: 0x1B4 }
  - { offset: 0x15180F, size: 0x8, addend: 0x0, symName: __ZN5folly15SharedMutexImplILb1EvNSt3__16atomicENS_24SharedMutexPolicyDefaultEE19annotateTryAcquiredEbNS_21annotate_rwlock_levelE, symObjAddr: 0x284, symBinAddr: 0x25698, symSize: 0x4 }
  - { offset: 0x1518D2, size: 0x8, addend: 0x0, symName: __ZN5folly15SharedMutexImplILb1EvNSt3__16atomicENS_24SharedMutexPolicyDefaultEE6unlockEv, symObjAddr: 0x288, symBinAddr: 0x2569C, symSize: 0x50 }
  - { offset: 0x1519C4, size: 0x8, addend: 0x0, symName: __ZN5folly15SharedMutexImplILb1EvNSt3__16atomicENS_24SharedMutexPolicyDefaultEE25wakeRegisteredWaitersImplERjj, symObjAddr: 0xB08, symBinAddr: 0x25F1C, symSize: 0xA8 }
  - { offset: 0x151B30, size: 0x8, addend: 0x0, symName: __ZN5folly15SharedMutexImplILb1EvNSt3__16atomicENS_24SharedMutexPolicyDefaultEE16annotateReleasedENS_21annotate_rwlock_levelE, symObjAddr: 0x2D8, symBinAddr: 0x256EC, symSize: 0x4 }
  - { offset: 0x151B63, size: 0x8, addend: 0x0, symName: __ZN5folly15SharedMutexImplILb1EvNSt3__16atomicENS_24SharedMutexPolicyDefaultEE21wakeRegisteredWaitersERjj, symObjAddr: 0x2DC, symBinAddr: 0x256F0, symSize: 0x14 }
  - { offset: 0x151B9F, size: 0x8, addend: 0x0, symName: __ZN5folly15SharedMutexImplILb1EvNSt3__16atomicENS_24SharedMutexPolicyDefaultEE11lock_sharedEv, symObjAddr: 0x2F0, symBinAddr: 0x25704, symSize: 0x24 }
  - { offset: 0x151BFB, size: 0x8, addend: 0x0, symName: __ZN5folly15SharedMutexImplILb1EvNSt3__16atomicENS_24SharedMutexPolicyDefaultEE14lockSharedImplINS4_11WaitForeverEEEbPNS_16SharedMutexTokenERT_, symObjAddr: 0x314, symBinAddr: 0x25728, symSize: 0x80 }
  - { offset: 0x151D20, size: 0x8, addend: 0x0, symName: __ZN5folly15SharedMutexImplILb1EvNSt3__16atomicENS_24SharedMutexPolicyDefaultEE14lockSharedImplINS4_11WaitForeverEEEbRjPNS_16SharedMutexTokenERT_, symObjAddr: 0x219C, symBinAddr: 0x2743C, symSize: 0x290 }
  - { offset: 0x1524B5, size: 0x8, addend: 0x0, symName: __ZN5folly15SharedMutexImplILb1EvNSt3__16atomicENS_24SharedMutexPolicyDefaultEE11lock_sharedERNS_16SharedMutexTokenE, symObjAddr: 0x394, symBinAddr: 0x257A8, symSize: 0x20 }
  - { offset: 0x15251E, size: 0x8, addend: 0x0, symName: __ZN5folly15SharedMutexImplILb1EvNSt3__16atomicENS_24SharedMutexPolicyDefaultEE15try_lock_sharedEv, symObjAddr: 0x3B4, symBinAddr: 0x257C8, symSize: 0x24 }
  - { offset: 0x152585, size: 0x8, addend: 0x0, symName: __ZN5folly15SharedMutexImplILb1EvNSt3__16atomicENS_24SharedMutexPolicyDefaultEE14lockSharedImplINS4_9WaitNeverEEEbPNS_16SharedMutexTokenERT_, symObjAddr: 0x3D8, symBinAddr: 0x257EC, symSize: 0x80 }
  - { offset: 0x1526AA, size: 0x8, addend: 0x0, symName: __ZN5folly15SharedMutexImplILb1EvNSt3__16atomicENS_24SharedMutexPolicyDefaultEE14lockSharedImplINS4_9WaitNeverEEEbRjPNS_16SharedMutexTokenERT_, symObjAddr: 0x2488, symBinAddr: 0x276CC, symSize: 0x294 }
  - { offset: 0x152E3F, size: 0x8, addend: 0x0, symName: __ZN5folly15SharedMutexImplILb1EvNSt3__16atomicENS_24SharedMutexPolicyDefaultEE15try_lock_sharedERNS_16SharedMutexTokenE, symObjAddr: 0x458, symBinAddr: 0x2586C, symSize: 0x20 }
  - { offset: 0x152EB8, size: 0x8, addend: 0x0, symName: __ZN5folly15SharedMutexImplILb1EvNSt3__16atomicENS_24SharedMutexPolicyDefaultEE13unlock_sharedEv, symObjAddr: 0x478, symBinAddr: 0x2588C, symSize: 0x44 }
  - { offset: 0x152F56, size: 0x8, addend: 0x0, symName: __ZN5folly15SharedMutexImplILb1EvNSt3__16atomicENS_24SharedMutexPolicyDefaultEE32tryUnlockTokenlessSharedDeferredEv, symObjAddr: 0x4BC, symBinAddr: 0x258D0, symSize: 0xB4 }
  - { offset: 0x153218, size: 0x8, addend: 0x0, symName: __ZN5folly15SharedMutexImplILb1EvNSt3__16atomicENS_24SharedMutexPolicyDefaultEE18unlockSharedInlineEv, symObjAddr: 0x570, symBinAddr: 0x25984, symSize: 0x54 }
  - { offset: 0x15341C, size: 0x8, addend: 0x0, symName: __ZN5folly15SharedMutexImplILb1EvNSt3__16atomicENS_24SharedMutexPolicyDefaultEE13unlock_sharedERNS_16SharedMutexTokenE, symObjAddr: 0x5C4, symBinAddr: 0x259D8, symSize: 0x48 }
  - { offset: 0x153502, size: 0x8, addend: 0x0, symName: __ZN5folly15SharedMutexImplILb1EvNSt3__16atomicENS_24SharedMutexPolicyDefaultEE23tryUnlockSharedDeferredEj, symObjAddr: 0x60C, symBinAddr: 0x25A20, symSize: 0x38 }
  - { offset: 0x153536, size: 0x8, addend: 0x0, symName: __ZN5folly15SharedMutexImplILb1EvNSt3__16atomicENS_24SharedMutexPolicyDefaultEE23tryUnlockSharedDeferredEj, symObjAddr: 0x60C, symBinAddr: 0x25A20, symSize: 0x38 }
  - { offset: 0x1535C8, size: 0x8, addend: 0x0, symName: __ZN5folly15SharedMutexImplILb1EvNSt3__16atomicENS_24SharedMutexPolicyDefaultEE13release_tokenERNS_16SharedMutexTokenE, symObjAddr: 0x644, symBinAddr: 0x25A58, symSize: 0x40 }
  - { offset: 0x1536AC, size: 0x8, addend: 0x0, symName: __ZN5folly15SharedMutexImplILb1EvNSt3__16atomicENS_24SharedMutexPolicyDefaultEE17tokenfulSlotValueEv, symObjAddr: 0x684, symBinAddr: 0x25A98, symSize: 0x4 }
  - { offset: 0x1536D1, size: 0x8, addend: 0x0, symName: __ZN5folly15SharedMutexImplILb1EvNSt3__16atomicENS_24SharedMutexPolicyDefaultEE14deferredReaderEj, symObjAddr: 0x688, symBinAddr: 0x25A9C, symSize: 0x14 }
  - { offset: 0x1536FA, size: 0x8, addend: 0x0, symName: __ZN5folly15SharedMutexImplILb1EvNSt3__16atomicENS_24SharedMutexPolicyDefaultEE18tokenlessSlotValueEv, symObjAddr: 0x69C, symBinAddr: 0x25AB0, symSize: 0x8 }
  - { offset: 0x153744, size: 0x8, addend: 0x0, symName: __ZN5folly15SharedMutexImplILb1EvNSt3__16atomicENS_24SharedMutexPolicyDefaultEE22unlock_and_lock_sharedEv, symObjAddr: 0x6A4, symBinAddr: 0x25AB8, symSize: 0x90 }
  - { offset: 0x15377B, size: 0x8, addend: 0x0, symName: __ZN5folly15SharedMutexImplILb1EvNSt3__16atomicENS_24SharedMutexPolicyDefaultEE22unlock_and_lock_sharedEv, symObjAddr: 0x6A4, symBinAddr: 0x25AB8, symSize: 0x90 }
  - { offset: 0x15379D, size: 0x8, addend: 0x0, symName: __ZN5folly15SharedMutexImplILb1EvNSt3__16atomicENS_24SharedMutexPolicyDefaultEE22unlock_and_lock_sharedEv, symObjAddr: 0x6A4, symBinAddr: 0x25AB8, symSize: 0x90 }
  - { offset: 0x153886, size: 0x8, addend: 0x0, symName: __ZN5folly15SharedMutexImplILb1EvNSt3__16atomicENS_24SharedMutexPolicyDefaultEE12futexWakeAllEj, symObjAddr: 0x734, symBinAddr: 0x25B48, symSize: 0xC }
  - { offset: 0x1538FA, size: 0x8, addend: 0x0, symName: __ZN5folly15SharedMutexImplILb1EvNSt3__16atomicENS_24SharedMutexPolicyDefaultEE22unlock_and_lock_sharedERNS_16SharedMutexTokenE, symObjAddr: 0x740, symBinAddr: 0x25B54, symSize: 0x28 }
  - { offset: 0x153946, size: 0x8, addend: 0x0, symName: __ZN5folly15SharedMutexImplILb1EvNSt3__16atomicENS_24SharedMutexPolicyDefaultEE12lock_upgradeEv, symObjAddr: 0x768, symBinAddr: 0x25B7C, symSize: 0x20 }
  - { offset: 0x153998, size: 0x8, addend: 0x0, symName: __ZN5folly15SharedMutexImplILb1EvNSt3__16atomicENS_24SharedMutexPolicyDefaultEE15lockUpgradeImplINS4_11WaitForeverEEEbRT_, symObjAddr: 0x788, symBinAddr: 0x25B9C, symSize: 0xA8 }
  - { offset: 0x153AAC, size: 0x8, addend: 0x0, symName: __ZN5folly15SharedMutexImplILb1EvNSt3__16atomicENS_24SharedMutexPolicyDefaultEE15waitForZeroBitsINS4_11WaitForeverEEEbRjjjRT_, symObjAddr: 0x1990, symBinAddr: 0x26CA8, symSize: 0xA4 }
  - { offset: 0x153BD4, size: 0x8, addend: 0x0, symName: __ZN5folly15SharedMutexImplILb1EvNSt3__16atomicENS_24SharedMutexPolicyDefaultEE16try_lock_upgradeEv, symObjAddr: 0x830, symBinAddr: 0x25C44, symSize: 0x20 }
  - { offset: 0x153C36, size: 0x8, addend: 0x0, symName: __ZN5folly15SharedMutexImplILb1EvNSt3__16atomicENS_24SharedMutexPolicyDefaultEE15lockUpgradeImplINS4_9WaitNeverEEEbRT_, symObjAddr: 0x850, symBinAddr: 0x25C64, symSize: 0xA8 }
  - { offset: 0x153D4A, size: 0x8, addend: 0x0, symName: __ZN5folly15SharedMutexImplILb1EvNSt3__16atomicENS_24SharedMutexPolicyDefaultEE15waitForZeroBitsINS4_9WaitNeverEEEbRjjjRT_, symObjAddr: 0x1F44, symBinAddr: 0x39718, symSize: 0x78 }
  - { offset: 0x153E76, size: 0x8, addend: 0x0, symName: __ZN5folly15SharedMutexImplILb1EvNSt3__16atomicENS_24SharedMutexPolicyDefaultEE14unlock_upgradeEv, symObjAddr: 0x8F8, symBinAddr: 0x25D0C, symSize: 0x44 }
  - { offset: 0x153F4D, size: 0x8, addend: 0x0, symName: __ZN5folly15SharedMutexImplILb1EvNSt3__16atomicENS_24SharedMutexPolicyDefaultEE23unlock_upgrade_and_lockEv, symObjAddr: 0x93C, symBinAddr: 0x25D50, symSize: 0x24 }
  - { offset: 0x153FA4, size: 0x8, addend: 0x0, symName: __ZN5folly15SharedMutexImplILb1EvNSt3__16atomicENS_24SharedMutexPolicyDefaultEE30unlock_upgrade_and_lock_sharedEv, symObjAddr: 0x960, symBinAddr: 0x25D74, symSize: 0x44 }
  - { offset: 0x1540AD, size: 0x8, addend: 0x0, symName: __ZN5folly15SharedMutexImplILb1EvNSt3__16atomicENS_24SharedMutexPolicyDefaultEE30unlock_upgrade_and_lock_sharedERNS_16SharedMutexTokenE, symObjAddr: 0x9A4, symBinAddr: 0x25DB8, symSize: 0x58 }
  - { offset: 0x1541B6, size: 0x8, addend: 0x0, symName: __ZN5folly15SharedMutexImplILb1EvNSt3__16atomicENS_24SharedMutexPolicyDefaultEE23unlock_and_lock_upgradeEv, symObjAddr: 0x9FC, symBinAddr: 0x25E10, symSize: 0x8C }
  - { offset: 0x1541ED, size: 0x8, addend: 0x0, symName: __ZN5folly15SharedMutexImplILb1EvNSt3__16atomicENS_24SharedMutexPolicyDefaultEE23unlock_and_lock_upgradeEv, symObjAddr: 0x9FC, symBinAddr: 0x25E10, symSize: 0x8C }
  - { offset: 0x15420F, size: 0x8, addend: 0x0, symName: __ZN5folly15SharedMutexImplILb1EvNSt3__16atomicENS_24SharedMutexPolicyDefaultEE23unlock_and_lock_upgradeEv, symObjAddr: 0x9FC, symBinAddr: 0x25E10, symSize: 0x8C }
  - { offset: 0x154304, size: 0x8, addend: 0x0, symName: __ZN5folly15SharedMutexImplILb1EvNSt3__16atomicENS_24SharedMutexPolicyDefaultEE11WaitForever8canBlockEv, symObjAddr: 0xA88, symBinAddr: 0x25E9C, symSize: 0x8 }
  - { offset: 0x15432B, size: 0x8, addend: 0x0, symName: __ZN5folly15SharedMutexImplILb1EvNSt3__16atomicENS_24SharedMutexPolicyDefaultEE11WaitForever10canTimeOutEv, symObjAddr: 0xA90, symBinAddr: 0x25EA4, symSize: 0x8 }
  - { offset: 0x154352, size: 0x8, addend: 0x0, symName: __ZN5folly15SharedMutexImplILb1EvNSt3__16atomicENS_24SharedMutexPolicyDefaultEE11WaitForever13shouldTimeOutEv, symObjAddr: 0xA98, symBinAddr: 0x25EAC, symSize: 0x8 }
  - { offset: 0x154379, size: 0x8, addend: 0x0, symName: __ZN5folly15SharedMutexImplILb1EvNSt3__16atomicENS_24SharedMutexPolicyDefaultEE11WaitForever6doWaitERNS2_IjEEjj, symObjAddr: 0xAA0, symBinAddr: 0x25EB4, symSize: 0x2C }
  - { offset: 0x15442B, size: 0x8, addend: 0x0, symName: __ZN5folly15SharedMutexImplILb1EvNSt3__16atomicENS_24SharedMutexPolicyDefaultEE9WaitNever8canBlockEv, symObjAddr: 0xACC, symBinAddr: 0x25EE0, symSize: 0x8 }
  - { offset: 0x154452, size: 0x8, addend: 0x0, symName: __ZN5folly15SharedMutexImplILb1EvNSt3__16atomicENS_24SharedMutexPolicyDefaultEE9WaitNever10canTimeOutEv, symObjAddr: 0xAD4, symBinAddr: 0x25EE8, symSize: 0x8 }
  - { offset: 0x154479, size: 0x8, addend: 0x0, symName: __ZN5folly15SharedMutexImplILb1EvNSt3__16atomicENS_24SharedMutexPolicyDefaultEE9WaitNever13shouldTimeOutEv, symObjAddr: 0xADC, symBinAddr: 0x25EF0, symSize: 0x8 }
  - { offset: 0x1544A0, size: 0x8, addend: 0x0, symName: __ZN5folly15SharedMutexImplILb1EvNSt3__16atomicENS_24SharedMutexPolicyDefaultEE9WaitNever6doWaitERNS2_IjEEjj, symObjAddr: 0xAE4, symBinAddr: 0x25EF8, symSize: 0x8 }
  - { offset: 0x1544E8, size: 0x8, addend: 0x0, symName: __ZN5folly15SharedMutexImplILb1EvNSt3__16atomicENS_24SharedMutexPolicyDefaultEE18annotateLazyCreateEv, symObjAddr: 0xAEC, symBinAddr: 0x25F00, symSize: 0x4 }
  - { offset: 0x15450D, size: 0x8, addend: 0x0, symName: __ZN5folly15SharedMutexImplILb1EvNSt3__16atomicENS_24SharedMutexPolicyDefaultEE15slotValueIsThisEm, symObjAddr: 0xBB0, symBinAddr: 0x25FC4, symSize: 0x10 }
  - { offset: 0x154536, size: 0x8, addend: 0x0, symName: __ZN5folly15SharedMutexImplILb0EvNSt3__16atomicENS_24SharedMutexPolicyDefaultEEC2Ev, symObjAddr: 0xBC0, symBinAddr: 0x25FD4, symSize: 0x8 }
  - { offset: 0x154558, size: 0x8, addend: 0x0, symName: __ZN5folly15SharedMutexImplILb0EvNSt3__16atomicENS_24SharedMutexPolicyDefaultEEC2Ev, symObjAddr: 0xBC0, symBinAddr: 0x25FD4, symSize: 0x8 }
  - { offset: 0x15457A, size: 0x8, addend: 0x0, symName: __ZN5folly15SharedMutexImplILb0EvNSt3__16atomicENS_24SharedMutexPolicyDefaultEEC2Ev, symObjAddr: 0xBC0, symBinAddr: 0x25FD4, symSize: 0x8 }
  - { offset: 0x15459B, size: 0x8, addend: 0x0, symName: __ZN5folly15SharedMutexImplILb0EvNSt3__16atomicENS_24SharedMutexPolicyDefaultEEC2Ev, symObjAddr: 0xBC0, symBinAddr: 0x25FD4, symSize: 0x8 }
  - { offset: 0x1545BC, size: 0x8, addend: 0x0, symName: __ZN5folly15SharedMutexImplILb0EvNSt3__16atomicENS_24SharedMutexPolicyDefaultEEC2Ev, symObjAddr: 0xBC0, symBinAddr: 0x25FD4, symSize: 0x8 }
  - { offset: 0x1545DD, size: 0x8, addend: 0x0, symName: __ZN5folly15SharedMutexImplILb0EvNSt3__16atomicENS_24SharedMutexPolicyDefaultEEC2Ev, symObjAddr: 0xBC0, symBinAddr: 0x25FD4, symSize: 0x8 }
  - { offset: 0x1545FE, size: 0x8, addend: 0x0, symName: __ZN5folly15SharedMutexImplILb0EvNSt3__16atomicENS_24SharedMutexPolicyDefaultEEC2Ev, symObjAddr: 0xBC0, symBinAddr: 0x25FD4, symSize: 0x8 }
  - { offset: 0x15461F, size: 0x8, addend: 0x0, symName: __ZN5folly15SharedMutexImplILb0EvNSt3__16atomicENS_24SharedMutexPolicyDefaultEEC2Ev, symObjAddr: 0xBC0, symBinAddr: 0x25FD4, symSize: 0x8 }
  - { offset: 0x154664, size: 0x8, addend: 0x0, symName: __ZN5folly15SharedMutexImplILb0EvNSt3__16atomicENS_24SharedMutexPolicyDefaultEEC1Ev, symObjAddr: 0xBC8, symBinAddr: 0x25FDC, symSize: 0x8 }
  - { offset: 0x15468F, size: 0x8, addend: 0x0, symName: __ZN5folly15SharedMutexImplILb0EvNSt3__16atomicENS_24SharedMutexPolicyDefaultEEC1Ev, symObjAddr: 0xBC8, symBinAddr: 0x25FDC, symSize: 0x8 }
  - { offset: 0x1546AB, size: 0x8, addend: 0x0, symName: __ZN5folly15SharedMutexImplILb0EvNSt3__16atomicENS_24SharedMutexPolicyDefaultEEC1Ev, symObjAddr: 0xBC8, symBinAddr: 0x25FDC, symSize: 0x8 }
  - { offset: 0x1546CD, size: 0x8, addend: 0x0, symName: __ZN5folly15SharedMutexImplILb0EvNSt3__16atomicENS_24SharedMutexPolicyDefaultEEC1Ev, symObjAddr: 0xBC8, symBinAddr: 0x25FDC, symSize: 0x8 }
  - { offset: 0x1546EE, size: 0x8, addend: 0x0, symName: __ZN5folly15SharedMutexImplILb0EvNSt3__16atomicENS_24SharedMutexPolicyDefaultEEC1Ev, symObjAddr: 0xBC8, symBinAddr: 0x25FDC, symSize: 0x8 }
  - { offset: 0x15470F, size: 0x8, addend: 0x0, symName: __ZN5folly15SharedMutexImplILb0EvNSt3__16atomicENS_24SharedMutexPolicyDefaultEEC1Ev, symObjAddr: 0xBC8, symBinAddr: 0x25FDC, symSize: 0x8 }
  - { offset: 0x154730, size: 0x8, addend: 0x0, symName: __ZN5folly15SharedMutexImplILb0EvNSt3__16atomicENS_24SharedMutexPolicyDefaultEEC1Ev, symObjAddr: 0xBC8, symBinAddr: 0x25FDC, symSize: 0x8 }
  - { offset: 0x154751, size: 0x8, addend: 0x0, symName: __ZN5folly15SharedMutexImplILb0EvNSt3__16atomicENS_24SharedMutexPolicyDefaultEEC1Ev, symObjAddr: 0xBC8, symBinAddr: 0x25FDC, symSize: 0x8 }
  - { offset: 0x154772, size: 0x8, addend: 0x0, symName: __ZN5folly15SharedMutexImplILb0EvNSt3__16atomicENS_24SharedMutexPolicyDefaultEEC1Ev, symObjAddr: 0xBC8, symBinAddr: 0x25FDC, symSize: 0x8 }
  - { offset: 0x154799, size: 0x8, addend: 0x0, symName: __ZN5folly15SharedMutexImplILb0EvNSt3__16atomicENS_24SharedMutexPolicyDefaultEED2Ev, symObjAddr: 0xBD0, symBinAddr: 0x25FE4, symSize: 0x4C }
  - { offset: 0x154839, size: 0x8, addend: 0x0, symName: __ZN5folly15SharedMutexImplILb0EvNSt3__16atomicENS_24SharedMutexPolicyDefaultEE30cleanupTokenlessSharedDeferredERj, symObjAddr: 0xC1C, symBinAddr: 0x26030, symSize: 0x94 }
  - { offset: 0x154A26, size: 0x8, addend: 0x0, symName: __ZN5folly15SharedMutexImplILb0EvNSt3__16atomicENS_24SharedMutexPolicyDefaultEE15annotateDestroyEv, symObjAddr: 0xCB0, symBinAddr: 0x260C4, symSize: 0x4 }
  - { offset: 0x154A4B, size: 0x8, addend: 0x0, symName: __ZN5folly15SharedMutexImplILb0EvNSt3__16atomicENS_24SharedMutexPolicyDefaultEED1Ev, symObjAddr: 0xCB4, symBinAddr: 0x260C8, symSize: 0x4 }
  - { offset: 0x154A77, size: 0x8, addend: 0x0, symName: __ZN5folly15SharedMutexImplILb0EvNSt3__16atomicENS_24SharedMutexPolicyDefaultEED1Ev, symObjAddr: 0xCB4, symBinAddr: 0x260C8, symSize: 0x4 }
  - { offset: 0x154A8A, size: 0x8, addend: 0x0, symName: __ZNK5folly15SharedMutexImplILb0EvNSt3__16atomicENS_24SharedMutexPolicyDefaultEE25eligible_for_lock_elisionEv, symObjAddr: 0xCB8, symBinAddr: 0x260CC, symSize: 0x14 }
  - { offset: 0x154AC3, size: 0x8, addend: 0x0, symName: __ZNK5folly15SharedMutexImplILb0EvNSt3__16atomicENS_24SharedMutexPolicyDefaultEE25eligible_for_lock_elisionEv, symObjAddr: 0xCB8, symBinAddr: 0x260CC, symSize: 0x14 }
  - { offset: 0x154AE5, size: 0x8, addend: 0x0, symName: __ZNK5folly15SharedMutexImplILb0EvNSt3__16atomicENS_24SharedMutexPolicyDefaultEE25eligible_for_lock_elisionEv, symObjAddr: 0xCB8, symBinAddr: 0x260CC, symSize: 0x14 }
  - { offset: 0x154B06, size: 0x8, addend: 0x0, symName: __ZNK5folly15SharedMutexImplILb0EvNSt3__16atomicENS_24SharedMutexPolicyDefaultEE33eligible_for_lock_upgrade_elisionEv, symObjAddr: 0xCCC, symBinAddr: 0x260E0, symSize: 0x14 }
  - { offset: 0x154B3F, size: 0x8, addend: 0x0, symName: __ZNK5folly15SharedMutexImplILb0EvNSt3__16atomicENS_24SharedMutexPolicyDefaultEE33eligible_for_lock_upgrade_elisionEv, symObjAddr: 0xCCC, symBinAddr: 0x260E0, symSize: 0x14 }
  - { offset: 0x154B61, size: 0x8, addend: 0x0, symName: __ZNK5folly15SharedMutexImplILb0EvNSt3__16atomicENS_24SharedMutexPolicyDefaultEE33eligible_for_lock_upgrade_elisionEv, symObjAddr: 0xCCC, symBinAddr: 0x260E0, symSize: 0x14 }
  - { offset: 0x154B82, size: 0x8, addend: 0x0, symName: __ZNK5folly15SharedMutexImplILb0EvNSt3__16atomicENS_24SharedMutexPolicyDefaultEE32eligible_for_lock_shared_elisionEv, symObjAddr: 0xCE0, symBinAddr: 0x260F4, symSize: 0x10 }
  - { offset: 0x154BBB, size: 0x8, addend: 0x0, symName: __ZNK5folly15SharedMutexImplILb0EvNSt3__16atomicENS_24SharedMutexPolicyDefaultEE32eligible_for_lock_shared_elisionEv, symObjAddr: 0xCE0, symBinAddr: 0x260F4, symSize: 0x10 }
  - { offset: 0x154BDD, size: 0x8, addend: 0x0, symName: __ZNK5folly15SharedMutexImplILb0EvNSt3__16atomicENS_24SharedMutexPolicyDefaultEE32eligible_for_lock_shared_elisionEv, symObjAddr: 0xCE0, symBinAddr: 0x260F4, symSize: 0x10 }
  - { offset: 0x154BFE, size: 0x8, addend: 0x0, symName: __ZN5folly15SharedMutexImplILb0EvNSt3__16atomicENS_24SharedMutexPolicyDefaultEE4lockEv, symObjAddr: 0xCF0, symBinAddr: 0x26104, symSize: 0x24 }
  - { offset: 0x154C66, size: 0x8, addend: 0x0, symName: __ZN5folly15SharedMutexImplILb0EvNSt3__16atomicENS_24SharedMutexPolicyDefaultEE17lockExclusiveImplINS4_11WaitForeverEEEbjRT_, symObjAddr: 0xD14, symBinAddr: 0x26128, symSize: 0x7C }
  - { offset: 0x154D8B, size: 0x8, addend: 0x0, symName: __ZN5folly15SharedMutexImplILb0EvNSt3__16atomicENS_24SharedMutexPolicyDefaultEE17lockExclusiveImplINS4_11WaitForeverEEEbRjjRT_, symObjAddr: 0x271C, symBinAddr: 0x27960, symSize: 0x100 }
  - { offset: 0x154EEE, size: 0x8, addend: 0x0, symName: __ZN5folly15SharedMutexImplILb0EvNSt3__16atomicENS_24SharedMutexPolicyDefaultEE16annotateAcquiredENS_21annotate_rwlock_levelE, symObjAddr: 0xD90, symBinAddr: 0x261A4, symSize: 0x4 }
  - { offset: 0x154F21, size: 0x8, addend: 0x0, symName: __ZN5folly15SharedMutexImplILb0EvNSt3__16atomicENS_24SharedMutexPolicyDefaultEE8try_lockEv, symObjAddr: 0xD94, symBinAddr: 0x261A8, symSize: 0x24 }
  - { offset: 0x154F94, size: 0x8, addend: 0x0, symName: __ZN5folly15SharedMutexImplILb0EvNSt3__16atomicENS_24SharedMutexPolicyDefaultEE17lockExclusiveImplINS4_9WaitNeverEEEbjRT_, symObjAddr: 0xDB8, symBinAddr: 0x261CC, symSize: 0x7C }
  - { offset: 0x1550B9, size: 0x8, addend: 0x0, symName: __ZN5folly15SharedMutexImplILb0EvNSt3__16atomicENS_24SharedMutexPolicyDefaultEE17lockExclusiveImplINS4_9WaitNeverEEEbRjjRT_, symObjAddr: 0x2C1C, symBinAddr: 0x27D98, symSize: 0x10C }
  - { offset: 0x15521D, size: 0x8, addend: 0x0, symName: __ZN5folly15SharedMutexImplILb0EvNSt3__16atomicENS_24SharedMutexPolicyDefaultEE19annotateTryAcquiredEbNS_21annotate_rwlock_levelE, symObjAddr: 0xE34, symBinAddr: 0x26248, symSize: 0x4 }
  - { offset: 0x155293, size: 0x8, addend: 0x0, symName: __ZN5folly15SharedMutexImplILb0EvNSt3__16atomicENS_24SharedMutexPolicyDefaultEE6unlockEv, symObjAddr: 0xE38, symBinAddr: 0x2624C, symSize: 0x50 }
  - { offset: 0x155385, size: 0x8, addend: 0x0, symName: __ZN5folly15SharedMutexImplILb0EvNSt3__16atomicENS_24SharedMutexPolicyDefaultEE25wakeRegisteredWaitersImplERjj, symObjAddr: 0x16B8, symBinAddr: 0x26A24, symSize: 0xA8 }
  - { offset: 0x1554F1, size: 0x8, addend: 0x0, symName: __ZN5folly15SharedMutexImplILb0EvNSt3__16atomicENS_24SharedMutexPolicyDefaultEE16annotateReleasedENS_21annotate_rwlock_levelE, symObjAddr: 0xE88, symBinAddr: 0x2629C, symSize: 0x4 }
  - { offset: 0x155524, size: 0x8, addend: 0x0, symName: __ZN5folly15SharedMutexImplILb0EvNSt3__16atomicENS_24SharedMutexPolicyDefaultEE21wakeRegisteredWaitersERjj, symObjAddr: 0xE8C, symBinAddr: 0x262A0, symSize: 0x14 }
  - { offset: 0x155560, size: 0x8, addend: 0x0, symName: __ZN5folly15SharedMutexImplILb0EvNSt3__16atomicENS_24SharedMutexPolicyDefaultEE11lock_sharedEv, symObjAddr: 0xEA0, symBinAddr: 0x262B4, symSize: 0x24 }
  - { offset: 0x1555B7, size: 0x8, addend: 0x0, symName: __ZN5folly15SharedMutexImplILb0EvNSt3__16atomicENS_24SharedMutexPolicyDefaultEE14lockSharedImplINS4_11WaitForeverEEEbPNS_16SharedMutexTokenERT_, symObjAddr: 0xEC4, symBinAddr: 0x262D8, symSize: 0x80 }
  - { offset: 0x1556DC, size: 0x8, addend: 0x0, symName: __ZN5folly15SharedMutexImplILb0EvNSt3__16atomicENS_24SharedMutexPolicyDefaultEE14lockSharedImplINS4_11WaitForeverEEEbRjPNS_16SharedMutexTokenERT_, symObjAddr: 0x2F80, symBinAddr: 0x28084, symSize: 0x288 }
  - { offset: 0x155E74, size: 0x8, addend: 0x0, symName: __ZN5folly15SharedMutexImplILb0EvNSt3__16atomicENS_24SharedMutexPolicyDefaultEE11lock_sharedERNS_16SharedMutexTokenE, symObjAddr: 0xF44, symBinAddr: 0x26358, symSize: 0x20 }
  - { offset: 0x155EDD, size: 0x8, addend: 0x0, symName: __ZN5folly15SharedMutexImplILb0EvNSt3__16atomicENS_24SharedMutexPolicyDefaultEE15try_lock_sharedEv, symObjAddr: 0xF64, symBinAddr: 0x26378, symSize: 0x24 }
  - { offset: 0x155F44, size: 0x8, addend: 0x0, symName: __ZN5folly15SharedMutexImplILb0EvNSt3__16atomicENS_24SharedMutexPolicyDefaultEE14lockSharedImplINS4_9WaitNeverEEEbPNS_16SharedMutexTokenERT_, symObjAddr: 0xF88, symBinAddr: 0x2639C, symSize: 0x80 }
  - { offset: 0x156069, size: 0x8, addend: 0x0, symName: __ZN5folly15SharedMutexImplILb0EvNSt3__16atomicENS_24SharedMutexPolicyDefaultEE14lockSharedImplINS4_9WaitNeverEEEbRjPNS_16SharedMutexTokenERT_, symObjAddr: 0x3208, symBinAddr: 0x2830C, symSize: 0x28C }
  - { offset: 0x156801, size: 0x8, addend: 0x0, symName: __ZN5folly15SharedMutexImplILb0EvNSt3__16atomicENS_24SharedMutexPolicyDefaultEE15try_lock_sharedERNS_16SharedMutexTokenE, symObjAddr: 0x1008, symBinAddr: 0x2641C, symSize: 0x20 }
  - { offset: 0x15687A, size: 0x8, addend: 0x0, symName: __ZN5folly15SharedMutexImplILb0EvNSt3__16atomicENS_24SharedMutexPolicyDefaultEE13unlock_sharedEv, symObjAddr: 0x1028, symBinAddr: 0x2643C, symSize: 0x44 }
  - { offset: 0x156918, size: 0x8, addend: 0x0, symName: __ZN5folly15SharedMutexImplILb0EvNSt3__16atomicENS_24SharedMutexPolicyDefaultEE32tryUnlockTokenlessSharedDeferredEv, symObjAddr: 0x106C, symBinAddr: 0x26480, symSize: 0xB4 }
  - { offset: 0x156BDA, size: 0x8, addend: 0x0, symName: __ZN5folly15SharedMutexImplILb0EvNSt3__16atomicENS_24SharedMutexPolicyDefaultEE18unlockSharedInlineEv, symObjAddr: 0x1120, symBinAddr: 0x26534, symSize: 0x54 }
  - { offset: 0x156CE7, size: 0x8, addend: 0x0, symName: __ZN5folly15SharedMutexImplILb0EvNSt3__16atomicENS_24SharedMutexPolicyDefaultEE13unlock_sharedERNS_16SharedMutexTokenE, symObjAddr: 0x1174, symBinAddr: 0x26588, symSize: 0x48 }
  - { offset: 0x156DCD, size: 0x8, addend: 0x0, symName: __ZN5folly15SharedMutexImplILb0EvNSt3__16atomicENS_24SharedMutexPolicyDefaultEE23tryUnlockSharedDeferredEj, symObjAddr: 0x11BC, symBinAddr: 0x265D0, symSize: 0x38 }
  - { offset: 0x156E01, size: 0x8, addend: 0x0, symName: __ZN5folly15SharedMutexImplILb0EvNSt3__16atomicENS_24SharedMutexPolicyDefaultEE23tryUnlockSharedDeferredEj, symObjAddr: 0x11BC, symBinAddr: 0x265D0, symSize: 0x38 }
  - { offset: 0x156E93, size: 0x8, addend: 0x0, symName: __ZN5folly15SharedMutexImplILb0EvNSt3__16atomicENS_24SharedMutexPolicyDefaultEE13release_tokenERNS_16SharedMutexTokenE, symObjAddr: 0x11F4, symBinAddr: 0x26608, symSize: 0x40 }
  - { offset: 0x156F77, size: 0x8, addend: 0x0, symName: __ZN5folly15SharedMutexImplILb0EvNSt3__16atomicENS_24SharedMutexPolicyDefaultEE17tokenfulSlotValueEv, symObjAddr: 0x1234, symBinAddr: 0x26648, symSize: 0x4 }
  - { offset: 0x156F9C, size: 0x8, addend: 0x0, symName: __ZN5folly15SharedMutexImplILb0EvNSt3__16atomicENS_24SharedMutexPolicyDefaultEE14deferredReaderEj, symObjAddr: 0x1238, symBinAddr: 0x2664C, symSize: 0x14 }
  - { offset: 0x156FC5, size: 0x8, addend: 0x0, symName: __ZN5folly15SharedMutexImplILb0EvNSt3__16atomicENS_24SharedMutexPolicyDefaultEE18tokenlessSlotValueEv, symObjAddr: 0x124C, symBinAddr: 0x26660, symSize: 0x8 }
  - { offset: 0x15700A, size: 0x8, addend: 0x0, symName: __ZN5folly15SharedMutexImplILb0EvNSt3__16atomicENS_24SharedMutexPolicyDefaultEE22unlock_and_lock_sharedEv, symObjAddr: 0x1254, symBinAddr: 0x26668, symSize: 0x90 }
  - { offset: 0x157041, size: 0x8, addend: 0x0, symName: __ZN5folly15SharedMutexImplILb0EvNSt3__16atomicENS_24SharedMutexPolicyDefaultEE22unlock_and_lock_sharedEv, symObjAddr: 0x1254, symBinAddr: 0x26668, symSize: 0x90 }
  - { offset: 0x157063, size: 0x8, addend: 0x0, symName: __ZN5folly15SharedMutexImplILb0EvNSt3__16atomicENS_24SharedMutexPolicyDefaultEE22unlock_and_lock_sharedEv, symObjAddr: 0x1254, symBinAddr: 0x26668, symSize: 0x90 }
  - { offset: 0x157142, size: 0x8, addend: 0x0, symName: __ZN5folly15SharedMutexImplILb0EvNSt3__16atomicENS_24SharedMutexPolicyDefaultEE12futexWakeAllEj, symObjAddr: 0x12E4, symBinAddr: 0x266F8, symSize: 0xC }
  - { offset: 0x1571B6, size: 0x8, addend: 0x0, symName: __ZN5folly15SharedMutexImplILb0EvNSt3__16atomicENS_24SharedMutexPolicyDefaultEE22unlock_and_lock_sharedERNS_16SharedMutexTokenE, symObjAddr: 0x12F0, symBinAddr: 0x26704, symSize: 0x28 }
  - { offset: 0x157202, size: 0x8, addend: 0x0, symName: __ZN5folly15SharedMutexImplILb0EvNSt3__16atomicENS_24SharedMutexPolicyDefaultEE12lock_upgradeEv, symObjAddr: 0x1318, symBinAddr: 0x2672C, symSize: 0x20 }
  - { offset: 0x157254, size: 0x8, addend: 0x0, symName: __ZN5folly15SharedMutexImplILb0EvNSt3__16atomicENS_24SharedMutexPolicyDefaultEE15lockUpgradeImplINS4_11WaitForeverEEEbRT_, symObjAddr: 0x1338, symBinAddr: 0x2674C, symSize: 0xA8 }
  - { offset: 0x157368, size: 0x8, addend: 0x0, symName: __ZN5folly15SharedMutexImplILb0EvNSt3__16atomicENS_24SharedMutexPolicyDefaultEE15waitForZeroBitsINS4_11WaitForeverEEEbRjjjRT_, symObjAddr: 0x281C, symBinAddr: 0x27A60, symSize: 0xA4 }
  - { offset: 0x157490, size: 0x8, addend: 0x0, symName: __ZN5folly15SharedMutexImplILb0EvNSt3__16atomicENS_24SharedMutexPolicyDefaultEE16try_lock_upgradeEv, symObjAddr: 0x13E0, symBinAddr: 0x267F4, symSize: 0x20 }
  - { offset: 0x15767F, size: 0x8, addend: 0x0, symName: __ZN5folly15SharedMutexImplILb0EvNSt3__16atomicENS_24SharedMutexPolicyDefaultEE14unlock_upgradeEv, symObjAddr: 0x14A8, symBinAddr: 0x26814, symSize: 0x44 }
  - { offset: 0x157756, size: 0x8, addend: 0x0, symName: __ZN5folly15SharedMutexImplILb0EvNSt3__16atomicENS_24SharedMutexPolicyDefaultEE23unlock_upgrade_and_lockEv, symObjAddr: 0x14EC, symBinAddr: 0x26858, symSize: 0x24 }
  - { offset: 0x1577AD, size: 0x8, addend: 0x0, symName: __ZN5folly15SharedMutexImplILb0EvNSt3__16atomicENS_24SharedMutexPolicyDefaultEE30unlock_upgrade_and_lock_sharedEv, symObjAddr: 0x1510, symBinAddr: 0x2687C, symSize: 0x44 }
  - { offset: 0x1578B6, size: 0x8, addend: 0x0, symName: __ZN5folly15SharedMutexImplILb0EvNSt3__16atomicENS_24SharedMutexPolicyDefaultEE30unlock_upgrade_and_lock_sharedERNS_16SharedMutexTokenE, symObjAddr: 0x1554, symBinAddr: 0x268C0, symSize: 0x58 }
  - { offset: 0x1579BF, size: 0x8, addend: 0x0, symName: __ZN5folly15SharedMutexImplILb0EvNSt3__16atomicENS_24SharedMutexPolicyDefaultEE23unlock_and_lock_upgradeEv, symObjAddr: 0x15AC, symBinAddr: 0x26918, symSize: 0x8C }
  - { offset: 0x1579F6, size: 0x8, addend: 0x0, symName: __ZN5folly15SharedMutexImplILb0EvNSt3__16atomicENS_24SharedMutexPolicyDefaultEE23unlock_and_lock_upgradeEv, symObjAddr: 0x15AC, symBinAddr: 0x26918, symSize: 0x8C }
  - { offset: 0x157A18, size: 0x8, addend: 0x0, symName: __ZN5folly15SharedMutexImplILb0EvNSt3__16atomicENS_24SharedMutexPolicyDefaultEE23unlock_and_lock_upgradeEv, symObjAddr: 0x15AC, symBinAddr: 0x26918, symSize: 0x8C }
  - { offset: 0x157B0D, size: 0x8, addend: 0x0, symName: __ZN5folly15SharedMutexImplILb0EvNSt3__16atomicENS_24SharedMutexPolicyDefaultEE11WaitForever8canBlockEv, symObjAddr: 0x1638, symBinAddr: 0x269A4, symSize: 0x8 }
  - { offset: 0x157B34, size: 0x8, addend: 0x0, symName: __ZN5folly15SharedMutexImplILb0EvNSt3__16atomicENS_24SharedMutexPolicyDefaultEE11WaitForever10canTimeOutEv, symObjAddr: 0x1640, symBinAddr: 0x269AC, symSize: 0x8 }
  - { offset: 0x157B5B, size: 0x8, addend: 0x0, symName: __ZN5folly15SharedMutexImplILb0EvNSt3__16atomicENS_24SharedMutexPolicyDefaultEE11WaitForever13shouldTimeOutEv, symObjAddr: 0x1648, symBinAddr: 0x269B4, symSize: 0x8 }
  - { offset: 0x157B82, size: 0x8, addend: 0x0, symName: __ZN5folly15SharedMutexImplILb0EvNSt3__16atomicENS_24SharedMutexPolicyDefaultEE11WaitForever6doWaitERNS2_IjEEjj, symObjAddr: 0x1650, symBinAddr: 0x269BC, symSize: 0x2C }
  - { offset: 0x157C19, size: 0x8, addend: 0x0, symName: __ZN5folly15SharedMutexImplILb0EvNSt3__16atomicENS_24SharedMutexPolicyDefaultEE9WaitNever8canBlockEv, symObjAddr: 0x167C, symBinAddr: 0x269E8, symSize: 0x8 }
  - { offset: 0x157C40, size: 0x8, addend: 0x0, symName: __ZN5folly15SharedMutexImplILb0EvNSt3__16atomicENS_24SharedMutexPolicyDefaultEE9WaitNever10canTimeOutEv, symObjAddr: 0x1684, symBinAddr: 0x269F0, symSize: 0x8 }
  - { offset: 0x157C67, size: 0x8, addend: 0x0, symName: __ZN5folly15SharedMutexImplILb0EvNSt3__16atomicENS_24SharedMutexPolicyDefaultEE9WaitNever13shouldTimeOutEv, symObjAddr: 0x168C, symBinAddr: 0x269F8, symSize: 0x8 }
  - { offset: 0x157C8E, size: 0x8, addend: 0x0, symName: __ZN5folly15SharedMutexImplILb0EvNSt3__16atomicENS_24SharedMutexPolicyDefaultEE9WaitNever6doWaitERNS2_IjEEjj, symObjAddr: 0x1694, symBinAddr: 0x26A00, symSize: 0x8 }
  - { offset: 0x157CD6, size: 0x8, addend: 0x0, symName: __ZN5folly15SharedMutexImplILb0EvNSt3__16atomicENS_24SharedMutexPolicyDefaultEE18annotateLazyCreateEv, symObjAddr: 0x169C, symBinAddr: 0x26A08, symSize: 0x4 }
  - { offset: 0x157CFB, size: 0x8, addend: 0x0, symName: __ZN5folly15SharedMutexImplILb0EvNSt3__16atomicENS_24SharedMutexPolicyDefaultEE15slotValueIsThisEm, symObjAddr: 0x1760, symBinAddr: 0x26ACC, symSize: 0x10 }
  - { offset: 0x157D63, size: 0x8, addend: 0x0, symName: __ZN5folly15SharedMutexImplILb1EvNSt3__16atomicENS_24SharedMutexPolicyDefaultEE20applyDeferredReadersINS4_11WaitForeverEEEvRjRT_, symObjAddr: 0x1A34, symBinAddr: 0x26D4C, symSize: 0xD8 }
  - { offset: 0x157F51, size: 0x8, addend: 0x0, symName: __ZN5folly15SharedMutexImplILb1EvNSt3__16atomicENS_24SharedMutexPolicyDefaultEE20yieldWaitForZeroBitsINS4_11WaitForeverEEEbRjjjRT_, symObjAddr: 0x1B0C, symBinAddr: 0x26E24, symSize: 0x94 }
  - { offset: 0x1580AC, size: 0x8, addend: 0x0, symName: __ZN5folly15SharedMutexImplILb1EvNSt3__16atomicENS_24SharedMutexPolicyDefaultEE20applyDeferredReadersINS4_11WaitForeverEEEvRjRT_j, symObjAddr: 0x1C68, symBinAddr: 0x26F80, symSize: 0x128 }
  - { offset: 0x158444, size: 0x8, addend: 0x0, symName: __ZN5folly15SharedMutexImplILb1EvNSt3__16atomicENS_24SharedMutexPolicyDefaultEE20futexWaitForZeroBitsINS4_11WaitForeverEEEbRjjjRT_, symObjAddr: 0x1BA0, symBinAddr: 0x26EB8, symSize: 0xC8 }
  - { offset: 0x158646, size: 0x8, addend: 0x0, symName: __ZN5folly15SharedMutexImplILb1EvNSt3__16atomicENS_24SharedMutexPolicyDefaultEE20applyDeferredReadersINS4_9WaitNeverEEEvRjRT_, symObjAddr: 0x1FBC, symBinAddr: 0x2725C, symSize: 0xD8 }
  - { offset: 0x158834, size: 0x8, addend: 0x0, symName: __ZN5folly15SharedMutexImplILb1EvNSt3__16atomicENS_24SharedMutexPolicyDefaultEE20applyDeferredReadersINS4_9WaitNeverEEEvRjRT_j, symObjAddr: 0x2094, symBinAddr: 0x27334, symSize: 0x108 }
  - { offset: 0x158CA8, size: 0x8, addend: 0x0, symName: __ZN5folly15SharedMutexImplILb1EvNSt3__16atomicENS_24SharedMutexPolicyDefaultEE14lockSharedImplINS4_11WaitForeverEEEbRjPNS_16SharedMutexTokenERT_.cold.1, symObjAddr: 0x3540, symBinAddr: 0x39804, symSize: 0x2C }
  - { offset: 0x158D1D, size: 0x8, addend: 0x0, symName: __ZN5folly15SharedMutexImplILb0EvNSt3__16atomicENS_24SharedMutexPolicyDefaultEE20applyDeferredReadersINS4_11WaitForeverEEEvRjRT_, symObjAddr: 0x28C0, symBinAddr: 0x27B04, symSize: 0xD8 }
  - { offset: 0x158F0B, size: 0x8, addend: 0x0, symName: __ZN5folly15SharedMutexImplILb0EvNSt3__16atomicENS_24SharedMutexPolicyDefaultEE20yieldWaitForZeroBitsINS4_11WaitForeverEEEbRjjjRT_, symObjAddr: 0x2998, symBinAddr: 0x27BDC, symSize: 0x94 }
  - { offset: 0x159066, size: 0x8, addend: 0x0, symName: __ZN5folly15SharedMutexImplILb0EvNSt3__16atomicENS_24SharedMutexPolicyDefaultEE20applyDeferredReadersINS4_11WaitForeverEEEvRjRT_j, symObjAddr: 0x2AF4, symBinAddr: 0x27C70, symSize: 0x128 }
  - { offset: 0x159530, size: 0x8, addend: 0x0, symName: __ZN5folly15SharedMutexImplILb0EvNSt3__16atomicENS_24SharedMutexPolicyDefaultEE20applyDeferredReadersINS4_9WaitNeverEEEvRjRT_, symObjAddr: 0x2DA0, symBinAddr: 0x27EA4, symSize: 0xD8 }
  - { offset: 0x15971E, size: 0x8, addend: 0x0, symName: __ZN5folly15SharedMutexImplILb0EvNSt3__16atomicENS_24SharedMutexPolicyDefaultEE17lockExclusiveImplINS4_9WaitNeverEEEbRjjRT_.cold.1, symObjAddr: 0x3598, symBinAddr: 0x39830, symSize: 0x8C }
  - { offset: 0x159796, size: 0x8, addend: 0x0, symName: __ZN5folly15SharedMutexImplILb0EvNSt3__16atomicENS_24SharedMutexPolicyDefaultEE20applyDeferredReadersINS4_9WaitNeverEEEvRjRT_j, symObjAddr: 0x2E78, symBinAddr: 0x27F7C, symSize: 0x108 }
  - { offset: 0x159B70, size: 0x8, addend: 0x0, symName: __ZNSt3__112system_errorC1B8ne200100ERKS0_, symObjAddr: 0x3508, symBinAddr: 0x28598, symSize: 0x38 }
  - { offset: 0x1661F1, size: 0x8, addend: 0x0, symName: __ZN5folly6detail16throw_exception_ISt12length_errorJPKcEEEvDpT0_, symObjAddr: 0x8028, symBinAddr: 0x398BC, symSize: 0x4C }
  - { offset: 0x17BB48, size: 0x8, addend: 0x0, symName: __ZNSt3__119__allocate_at_leastB8ne200100INS_9allocatorIN5folly5RangeIPKcEEEEEENS_19__allocation_resultINS_16allocator_traitsIT_E7pointerEEERSA_m, symObjAddr: 0x75C0, symBinAddr: 0x2FAF8, symSize: 0x34 }
  - { offset: 0x17BE59, size: 0x8, addend: 0x0, symName: __ZN5folly8fbvectorINSt3__117basic_string_viewIcNS1_11char_traitsIcEEEENS1_9allocatorIS5_EEE12emplace_backIJPKclEEERS5_DpOT_, symObjAddr: 0x94FC, symBinAddr: 0x311B4, symSize: 0x4C }
  - { offset: 0x17C5AE, size: 0x8, addend: 0x0, symName: __ZNSt3__134__uninitialized_allocator_relocateB8ne200100INS_9allocatorIN5folly14basic_fbstringIcNS_11char_traitsIcEENS1_IcEENS2_13fbstring_coreIcEEEEEEPS9_EEvRT_T0_SE_SE_, symObjAddr: 0xB558, symBinAddr: 0x328E0, symSize: 0xB0 }
  - { offset: 0x17C5C2, size: 0x8, addend: 0x0, symName: __ZNSt3__134__uninitialized_allocator_relocateB8ne200100INS_9allocatorIN5folly14basic_fbstringIcNS_11char_traitsIcEENS1_IcEENS2_13fbstring_coreIcEEEEEEPS9_EEvRT_T0_SE_SE_, symObjAddr: 0xB558, symBinAddr: 0x328E0, symSize: 0xB0 }
  - { offset: 0x17DFE2, size: 0x8, addend: 0x0, symName: __ZN5folly8fbvectorINS_5RangeIPKcEENSt3__19allocatorIS4_EEE16emplace_back_auxIJS3_lEEEvDpOT_, symObjAddr: 0x766C, symBinAddr: 0x2FB7C, symSize: 0x230 }
  - { offset: 0x17ED31, size: 0x8, addend: 0x0, symName: __ZN5folly12small_vectorINS_5RangeIPKcEELm1EvE12emplace_backIJS3_lEEERS4_DpOT_, symObjAddr: 0x7D20, symBinAddr: 0x2FDAC, symSize: 0xC0 }
  - { offset: 0x17F021, size: 0x8, addend: 0x0, symName: __ZN5folly12small_vectorINS_5RangeIPKcEELm1EvE16makeSizeInternalIZNS5_12emplace_backIJS3_lEEERS4_DpOT_EUlPvE_EEvmbOT_m, symObjAddr: 0x7DE0, symBinAddr: 0x2FE6C, symSize: 0x178 }
  - { offset: 0x17F769, size: 0x8, addend: 0x0, symName: __ZN5folly12small_vectorINS_5RangeIPKcEELm2EvE12emplace_backIJS3_lEEERS4_DpOT_, symObjAddr: 0x80CC, symBinAddr: 0x300B4, symSize: 0xBC }
  - { offset: 0x17FA5D, size: 0x8, addend: 0x0, symName: __ZN5folly12small_vectorINS_5RangeIPKcEELm2EvE16makeSizeInternalIZNS5_12emplace_backIJS3_lEEERS4_DpOT_EUlPvE_EEvmbOT_m, symObjAddr: 0x8188, symBinAddr: 0x30170, symSize: 0x1A0 }
  - { offset: 0x18023B, size: 0x8, addend: 0x0, symName: __ZN5folly12small_vectorINS_5RangeIPKcEELm3EvE12emplace_backIJS3_lEEERS4_DpOT_, symObjAddr: 0x83A4, symBinAddr: 0x3038C, symSize: 0xBC }
  - { offset: 0x18052F, size: 0x8, addend: 0x0, symName: __ZN5folly12small_vectorINS_5RangeIPKcEELm3EvE16makeSizeInternalIZNS5_12emplace_backIJS3_lEEERS4_DpOT_EUlPvE_EEvmbOT_m, symObjAddr: 0x8460, symBinAddr: 0x30448, symSize: 0x1A0 }
  - { offset: 0x180D0D, size: 0x8, addend: 0x0, symName: __ZN5folly12small_vectorINS_5RangeIPKcEELm4EvE12emplace_backIJS3_lEEERS4_DpOT_, symObjAddr: 0x867C, symBinAddr: 0x305E8, symSize: 0xBC }
  - { offset: 0x181001, size: 0x8, addend: 0x0, symName: __ZN5folly12small_vectorINS_5RangeIPKcEELm4EvE16makeSizeInternalIZNS5_12emplace_backIJS3_lEEERS4_DpOT_EUlPvE_EEvmbOT_m, symObjAddr: 0x8738, symBinAddr: 0x306A4, symSize: 0x1A0 }
  - { offset: 0x1817DF, size: 0x8, addend: 0x0, symName: __ZN5folly12small_vectorINS_5RangeIPKcEELm5EvE12emplace_backIJS3_lEEERS4_DpOT_, symObjAddr: 0x8954, symBinAddr: 0x30844, symSize: 0xBC }
  - { offset: 0x181AD3, size: 0x8, addend: 0x0, symName: __ZN5folly12small_vectorINS_5RangeIPKcEELm5EvE16makeSizeInternalIZNS5_12emplace_backIJS3_lEEERS4_DpOT_EUlPvE_EEvmbOT_m, symObjAddr: 0x8A10, symBinAddr: 0x30900, symSize: 0x1A0 }
  - { offset: 0x1822B1, size: 0x8, addend: 0x0, symName: __ZN5folly12small_vectorINS_5RangeIPKcEELm6EvE12emplace_backIJS3_lEEERS4_DpOT_, symObjAddr: 0x8C2C, symBinAddr: 0x30AA0, symSize: 0xBC }
  - { offset: 0x1825A5, size: 0x8, addend: 0x0, symName: __ZN5folly12small_vectorINS_5RangeIPKcEELm6EvE16makeSizeInternalIZNS5_12emplace_backIJS3_lEEERS4_DpOT_EUlPvE_EEvmbOT_m, symObjAddr: 0x8CE8, symBinAddr: 0x30B5C, symSize: 0x1A0 }
  - { offset: 0x182D83, size: 0x8, addend: 0x0, symName: __ZN5folly12small_vectorINS_5RangeIPKcEELm7EvE12emplace_backIJS3_lEEERS4_DpOT_, symObjAddr: 0x8F04, symBinAddr: 0x30CFC, symSize: 0xBC }
  - { offset: 0x183077, size: 0x8, addend: 0x0, symName: __ZN5folly12small_vectorINS_5RangeIPKcEELm7EvE16makeSizeInternalIZNS5_12emplace_backIJS3_lEEERS4_DpOT_EUlPvE_EEvmbOT_m, symObjAddr: 0x8FC0, symBinAddr: 0x30DB8, symSize: 0x1A0 }
  - { offset: 0x183855, size: 0x8, addend: 0x0, symName: __ZN5folly12small_vectorINS_5RangeIPKcEELm8EvE12emplace_backIJS3_lEEERS4_DpOT_, symObjAddr: 0x91DC, symBinAddr: 0x30F58, symSize: 0xBC }
  - { offset: 0x183B49, size: 0x8, addend: 0x0, symName: __ZN5folly12small_vectorINS_5RangeIPKcEELm8EvE16makeSizeInternalIZNS5_12emplace_backIJS3_lEEERS4_DpOT_EUlPvE_EEvmbOT_m, symObjAddr: 0x9298, symBinAddr: 0x31014, symSize: 0x1A0 }
  - { offset: 0x1843CD, size: 0x8, addend: 0x0, symName: __ZN5folly8fbvectorINSt3__117basic_string_viewIcNS1_11char_traitsIcEEEENS1_9allocatorIS5_EEE16emplace_back_auxIJPKclEEEvDpOT_, symObjAddr: 0x9548, symBinAddr: 0x31200, symSize: 0x228 }
  - { offset: 0x184A5E, size: 0x8, addend: 0x0, symName: __ZN5folly12small_vectorINSt3__117basic_string_viewIcNS1_11char_traitsIcEEEELm1EvE12emplace_backIJPKclEEERS5_DpOT_, symObjAddr: 0x9770, symBinAddr: 0x31428, symSize: 0xB8 }
  - { offset: 0x184D49, size: 0x8, addend: 0x0, symName: __ZN5folly12small_vectorINSt3__117basic_string_viewIcNS1_11char_traitsIcEEEELm1EvE16makeSizeInternalIZNS6_12emplace_backIJPKclEEERS5_DpOT_EUlPvE_EEvmbOT_m, symObjAddr: 0x9828, symBinAddr: 0x314E0, symSize: 0x174 }
  - { offset: 0x18546B, size: 0x8, addend: 0x0, symName: __ZN5folly12small_vectorINSt3__117basic_string_viewIcNS1_11char_traitsIcEEEELm2EvE12emplace_backIJPKclEEERS5_DpOT_, symObjAddr: 0x9A6C, symBinAddr: 0x31654, symSize: 0xB4 }
  - { offset: 0x18575F, size: 0x8, addend: 0x0, symName: __ZN5folly12small_vectorINSt3__117basic_string_viewIcNS1_11char_traitsIcEEEELm2EvE16makeSizeInternalIZNS6_12emplace_backIJPKclEEERS5_DpOT_EUlPvE_EEvmbOT_m, symObjAddr: 0x9B20, symBinAddr: 0x31708, symSize: 0x19C }
  - { offset: 0x185F2B, size: 0x8, addend: 0x0, symName: __ZN5folly12small_vectorINSt3__117basic_string_viewIcNS1_11char_traitsIcEEEELm3EvE12emplace_backIJPKclEEERS5_DpOT_, symObjAddr: 0x9D38, symBinAddr: 0x318A4, symSize: 0xB4 }
  - { offset: 0x18621F, size: 0x8, addend: 0x0, symName: __ZN5folly12small_vectorINSt3__117basic_string_viewIcNS1_11char_traitsIcEEEELm3EvE16makeSizeInternalIZNS6_12emplace_backIJPKclEEERS5_DpOT_EUlPvE_EEvmbOT_m, symObjAddr: 0x9DEC, symBinAddr: 0x31958, symSize: 0x19C }
  - { offset: 0x1869EB, size: 0x8, addend: 0x0, symName: __ZN5folly12small_vectorINSt3__117basic_string_viewIcNS1_11char_traitsIcEEEELm4EvE12emplace_backIJPKclEEERS5_DpOT_, symObjAddr: 0xA004, symBinAddr: 0x31AF4, symSize: 0xB4 }
  - { offset: 0x186CDF, size: 0x8, addend: 0x0, symName: __ZN5folly12small_vectorINSt3__117basic_string_viewIcNS1_11char_traitsIcEEEELm4EvE16makeSizeInternalIZNS6_12emplace_backIJPKclEEERS5_DpOT_EUlPvE_EEvmbOT_m, symObjAddr: 0xA0B8, symBinAddr: 0x31BA8, symSize: 0x19C }
  - { offset: 0x1874AB, size: 0x8, addend: 0x0, symName: __ZN5folly12small_vectorINSt3__117basic_string_viewIcNS1_11char_traitsIcEEEELm5EvE12emplace_backIJPKclEEERS5_DpOT_, symObjAddr: 0xA2D0, symBinAddr: 0x31D44, symSize: 0xB4 }
  - { offset: 0x18779F, size: 0x8, addend: 0x0, symName: __ZN5folly12small_vectorINSt3__117basic_string_viewIcNS1_11char_traitsIcEEEELm5EvE16makeSizeInternalIZNS6_12emplace_backIJPKclEEERS5_DpOT_EUlPvE_EEvmbOT_m, symObjAddr: 0xA384, symBinAddr: 0x31DF8, symSize: 0x19C }
  - { offset: 0x187F6B, size: 0x8, addend: 0x0, symName: __ZN5folly12small_vectorINSt3__117basic_string_viewIcNS1_11char_traitsIcEEEELm6EvE12emplace_backIJPKclEEERS5_DpOT_, symObjAddr: 0xA59C, symBinAddr: 0x31F94, symSize: 0xB4 }
  - { offset: 0x18825F, size: 0x8, addend: 0x0, symName: __ZN5folly12small_vectorINSt3__117basic_string_viewIcNS1_11char_traitsIcEEEELm6EvE16makeSizeInternalIZNS6_12emplace_backIJPKclEEERS5_DpOT_EUlPvE_EEvmbOT_m, symObjAddr: 0xA650, symBinAddr: 0x32048, symSize: 0x19C }
  - { offset: 0x188A2B, size: 0x8, addend: 0x0, symName: __ZN5folly12small_vectorINSt3__117basic_string_viewIcNS1_11char_traitsIcEEEELm7EvE12emplace_backIJPKclEEERS5_DpOT_, symObjAddr: 0xA868, symBinAddr: 0x321E4, symSize: 0xB4 }
  - { offset: 0x188D1F, size: 0x8, addend: 0x0, symName: __ZN5folly12small_vectorINSt3__117basic_string_viewIcNS1_11char_traitsIcEEEELm7EvE16makeSizeInternalIZNS6_12emplace_backIJPKclEEERS5_DpOT_EUlPvE_EEvmbOT_m, symObjAddr: 0xA91C, symBinAddr: 0x32298, symSize: 0x19C }
  - { offset: 0x1894EB, size: 0x8, addend: 0x0, symName: __ZN5folly12small_vectorINSt3__117basic_string_viewIcNS1_11char_traitsIcEEEELm8EvE12emplace_backIJPKclEEERS5_DpOT_, symObjAddr: 0xAB34, symBinAddr: 0x32434, symSize: 0xB4 }
  - { offset: 0x1897DF, size: 0x8, addend: 0x0, symName: __ZN5folly12small_vectorINSt3__117basic_string_viewIcNS1_11char_traitsIcEEEELm8EvE16makeSizeInternalIZNS6_12emplace_backIJPKclEEERS5_DpOT_EUlPvE_EEvmbOT_m, symObjAddr: 0xABE8, symBinAddr: 0x324E8, symSize: 0x19C }
  - { offset: 0x18A1D5, size: 0x8, addend: 0x0, symName: __ZN5folly8fbvectorINSt3__112basic_stringIcNS1_11char_traitsIcEENS1_9allocatorIcEEEENS5_IS7_EEE16emplace_back_auxIJPKclEEEvDpOT_, symObjAddr: 0xB790, symBinAddr: 0x32AE4, symSize: 0x274 }
  - { offset: 0x18AAF7, size: 0x8, addend: 0x0, symName: __ZN5folly8fbvectorINS_14basic_fbstringIcNSt3__111char_traitsIcEENS2_9allocatorIcEENS_13fbstring_coreIcEEEENS5_IS9_EEE16emplace_back_auxIJPKclEEEvDpOT_, symObjAddr: 0xBB4C, symBinAddr: 0x32EA0, symSize: 0x26C }
  - { offset: 0x18BB39, size: 0x8, addend: 0x0, symName: __ZN5folly6detail19SimdSplitByCharImplINSt3__16vectorINS_5RangeIPKcEENS2_9allocatorIS7_EEEEE9keepEmptyEcS7_RSA_, symObjAddr: 0x0, symBinAddr: 0x285D0, symSize: 0x4C4 }
  - { offset: 0x18D32D, size: 0x8, addend: 0x0, symName: __ZN5folly6detail19SimdSplitByCharImplINSt3__16vectorINS_5RangeIPKcEENS2_9allocatorIS7_EEEEE9dropEmptyEcS7_RSA_, symObjAddr: 0x4C4, symBinAddr: 0x28A94, symSize: 0x4E4 }
  - { offset: 0x18D5C0, size: 0x8, addend: 0x0, symName: __ZN5folly6detail19SimdSplitByCharImplINSt3__16vectorINS_5RangeIPKcEENS2_9allocatorIS7_EEEEE9dropEmptyEcS7_RSA_, symObjAddr: 0x4C4, symBinAddr: 0x28A94, symSize: 0x4E4 }
  - { offset: 0x18EDC2, size: 0x8, addend: 0x0, symName: __ZN5folly6detail19SimdSplitByCharImplINS_8fbvectorINS_5RangeIPKcEENSt3__19allocatorIS6_EEEEE9keepEmptyEcS6_RSA_, symObjAddr: 0x9A8, symBinAddr: 0x28F78, symSize: 0x218 }
  - { offset: 0x18F02C, size: 0x8, addend: 0x0, symName: __ZN5folly6detail19SimdSplitByCharImplINS_8fbvectorINS_5RangeIPKcEENSt3__19allocatorIS6_EEEEE9keepEmptyEcS6_RSA_, symObjAddr: 0x9A8, symBinAddr: 0x28F78, symSize: 0x218 }
  - { offset: 0x18F8C5, size: 0x8, addend: 0x0, symName: __ZN5folly8fbvectorINS_5RangeIPKcEENSt3__19allocatorIS4_EEE12emplace_backIJS3_lEEERS4_DpOT_, symObjAddr: 0x761C, symBinAddr: 0x2FB2C, symSize: 0x50 }
  - { offset: 0x18FC2F, size: 0x8, addend: 0x0, symName: __ZN5folly6detail19SimdSplitByCharImplINS_8fbvectorINS_5RangeIPKcEENSt3__19allocatorIS6_EEEEE9dropEmptyEcS6_RSA_, symObjAddr: 0xBC0, symBinAddr: 0x29190, symSize: 0x238 }
  - { offset: 0x19071B, size: 0x8, addend: 0x0, symName: __ZN5folly6detail19SimdSplitByCharImplINS_12small_vectorINS_5RangeIPKcEELm1EvEEE9keepEmptyEcS6_RS7_, symObjAddr: 0xDF8, symBinAddr: 0x293C8, symSize: 0x218 }
  - { offset: 0x191213, size: 0x8, addend: 0x0, symName: __ZN5folly6detail19SimdSplitByCharImplINS_12small_vectorINS_5RangeIPKcEELm1EvEEE9dropEmptyEcS6_RS7_, symObjAddr: 0x1010, symBinAddr: 0x295E0, symSize: 0x238 }
  - { offset: 0x191CFF, size: 0x8, addend: 0x0, symName: __ZN5folly6detail19SimdSplitByCharImplINS_12small_vectorINS_5RangeIPKcEELm2EvEEE9keepEmptyEcS6_RS7_, symObjAddr: 0x1248, symBinAddr: 0x29818, symSize: 0x218 }
  - { offset: 0x1927F7, size: 0x8, addend: 0x0, symName: __ZN5folly6detail19SimdSplitByCharImplINS_12small_vectorINS_5RangeIPKcEELm2EvEEE9dropEmptyEcS6_RS7_, symObjAddr: 0x1460, symBinAddr: 0x29A30, symSize: 0x238 }
  - { offset: 0x1932E3, size: 0x8, addend: 0x0, symName: __ZN5folly6detail19SimdSplitByCharImplINS_12small_vectorINS_5RangeIPKcEELm3EvEEE9keepEmptyEcS6_RS7_, symObjAddr: 0x1698, symBinAddr: 0x29C68, symSize: 0x218 }
  - { offset: 0x193DDB, size: 0x8, addend: 0x0, symName: __ZN5folly6detail19SimdSplitByCharImplINS_12small_vectorINS_5RangeIPKcEELm3EvEEE9dropEmptyEcS6_RS7_, symObjAddr: 0x18B0, symBinAddr: 0x29E80, symSize: 0x238 }
  - { offset: 0x1948C7, size: 0x8, addend: 0x0, symName: __ZN5folly6detail19SimdSplitByCharImplINS_12small_vectorINS_5RangeIPKcEELm4EvEEE9keepEmptyEcS6_RS7_, symObjAddr: 0x1AE8, symBinAddr: 0x2A0B8, symSize: 0x218 }
  - { offset: 0x1953BF, size: 0x8, addend: 0x0, symName: __ZN5folly6detail19SimdSplitByCharImplINS_12small_vectorINS_5RangeIPKcEELm4EvEEE9dropEmptyEcS6_RS7_, symObjAddr: 0x1D00, symBinAddr: 0x2A2D0, symSize: 0x238 }
  - { offset: 0x195EAB, size: 0x8, addend: 0x0, symName: __ZN5folly6detail19SimdSplitByCharImplINS_12small_vectorINS_5RangeIPKcEELm5EvEEE9keepEmptyEcS6_RS7_, symObjAddr: 0x1F38, symBinAddr: 0x2A508, symSize: 0x218 }
  - { offset: 0x1969A3, size: 0x8, addend: 0x0, symName: __ZN5folly6detail19SimdSplitByCharImplINS_12small_vectorINS_5RangeIPKcEELm5EvEEE9dropEmptyEcS6_RS7_, symObjAddr: 0x2150, symBinAddr: 0x2A720, symSize: 0x238 }
  - { offset: 0x19748F, size: 0x8, addend: 0x0, symName: __ZN5folly6detail19SimdSplitByCharImplINS_12small_vectorINS_5RangeIPKcEELm6EvEEE9keepEmptyEcS6_RS7_, symObjAddr: 0x2388, symBinAddr: 0x2A958, symSize: 0x218 }
  - { offset: 0x197F87, size: 0x8, addend: 0x0, symName: __ZN5folly6detail19SimdSplitByCharImplINS_12small_vectorINS_5RangeIPKcEELm6EvEEE9dropEmptyEcS6_RS7_, symObjAddr: 0x25A0, symBinAddr: 0x2AB70, symSize: 0x238 }
  - { offset: 0x198A73, size: 0x8, addend: 0x0, symName: __ZN5folly6detail19SimdSplitByCharImplINS_12small_vectorINS_5RangeIPKcEELm7EvEEE9keepEmptyEcS6_RS7_, symObjAddr: 0x27D8, symBinAddr: 0x2ADA8, symSize: 0x218 }
  - { offset: 0x19956B, size: 0x8, addend: 0x0, symName: __ZN5folly6detail19SimdSplitByCharImplINS_12small_vectorINS_5RangeIPKcEELm7EvEEE9dropEmptyEcS6_RS7_, symObjAddr: 0x29F0, symBinAddr: 0x2AFC0, symSize: 0x238 }
  - { offset: 0x19A057, size: 0x8, addend: 0x0, symName: __ZN5folly6detail19SimdSplitByCharImplINS_12small_vectorINS_5RangeIPKcEELm8EvEEE9keepEmptyEcS6_RS7_, symObjAddr: 0x2C28, symBinAddr: 0x2B1F8, symSize: 0x218 }
  - { offset: 0x19AB4F, size: 0x8, addend: 0x0, symName: __ZN5folly6detail19SimdSplitByCharImplINS_12small_vectorINS_5RangeIPKcEELm8EvEEE9dropEmptyEcS6_RS7_, symObjAddr: 0x2E40, symBinAddr: 0x2B410, symSize: 0x238 }
  - { offset: 0x19B9D2, size: 0x8, addend: 0x0, symName: __ZN5folly6detail19SimdSplitByCharImplINSt3__16vectorINS2_17basic_string_viewIcNS2_11char_traitsIcEEEENS2_9allocatorIS7_EEEEE9keepEmptyEcNS_5RangeIPKcEERSA_, symObjAddr: 0x3078, symBinAddr: 0x2B648, symSize: 0x4A4 }
  - { offset: 0x19D1C6, size: 0x8, addend: 0x0, symName: __ZN5folly6detail19SimdSplitByCharImplINSt3__16vectorINS2_17basic_string_viewIcNS2_11char_traitsIcEEEENS2_9allocatorIS7_EEEEE9dropEmptyEcNS_5RangeIPKcEERSA_, symObjAddr: 0x351C, symBinAddr: 0x2BAEC, symSize: 0x4C4 }
  - { offset: 0x19D445, size: 0x8, addend: 0x0, symName: __ZN5folly6detail19SimdSplitByCharImplINSt3__16vectorINS2_17basic_string_viewIcNS2_11char_traitsIcEEEENS2_9allocatorIS7_EEEEE9dropEmptyEcNS_5RangeIPKcEERSA_, symObjAddr: 0x351C, symBinAddr: 0x2BAEC, symSize: 0x4C4 }
  - { offset: 0x19EC47, size: 0x8, addend: 0x0, symName: __ZN5folly6detail19SimdSplitByCharImplINS_8fbvectorINSt3__117basic_string_viewIcNS3_11char_traitsIcEEEENS3_9allocatorIS7_EEEEE9keepEmptyEcNS_5RangeIPKcEERSA_, symObjAddr: 0x39E0, symBinAddr: 0x2BFB0, symSize: 0x218 }
  - { offset: 0x19EEB1, size: 0x8, addend: 0x0, symName: __ZN5folly6detail19SimdSplitByCharImplINS_8fbvectorINSt3__117basic_string_viewIcNS3_11char_traitsIcEEEENS3_9allocatorIS7_EEEEE9keepEmptyEcNS_5RangeIPKcEERSA_, symObjAddr: 0x39E0, symBinAddr: 0x2BFB0, symSize: 0x218 }
  - { offset: 0x19F74A, size: 0x8, addend: 0x0, symName: __ZN5folly8fbvectorINSt3__117basic_string_viewIcNS1_11char_traitsIcEEEENS1_9allocatorIS5_EEE12emplace_backIJPKclEEERS5_DpOT_, symObjAddr: 0x94FC, symBinAddr: 0x311B4, symSize: 0x4C }
  - { offset: 0x19FAB0, size: 0x8, addend: 0x0, symName: __ZN5folly6detail19SimdSplitByCharImplINS_8fbvectorINSt3__117basic_string_viewIcNS3_11char_traitsIcEEEENS3_9allocatorIS7_EEEEE9dropEmptyEcNS_5RangeIPKcEERSA_, symObjAddr: 0x3BF8, symBinAddr: 0x2C1C8, symSize: 0x238 }
  - { offset: 0x1A059C, size: 0x8, addend: 0x0, symName: __ZN5folly6detail19SimdSplitByCharImplINS_12small_vectorINSt3__117basic_string_viewIcNS3_11char_traitsIcEEEELm1EvEEE9keepEmptyEcNS_5RangeIPKcEERS8_, symObjAddr: 0x3E30, symBinAddr: 0x2C400, symSize: 0x218 }
  - { offset: 0x1A1094, size: 0x8, addend: 0x0, symName: __ZN5folly6detail19SimdSplitByCharImplINS_12small_vectorINSt3__117basic_string_viewIcNS3_11char_traitsIcEEEELm1EvEEE9dropEmptyEcNS_5RangeIPKcEERS8_, symObjAddr: 0x4048, symBinAddr: 0x2C618, symSize: 0x238 }
  - { offset: 0x1A1B80, size: 0x8, addend: 0x0, symName: __ZN5folly6detail19SimdSplitByCharImplINS_12small_vectorINSt3__117basic_string_viewIcNS3_11char_traitsIcEEEELm2EvEEE9keepEmptyEcNS_5RangeIPKcEERS8_, symObjAddr: 0x4280, symBinAddr: 0x2C850, symSize: 0x218 }
  - { offset: 0x1A2678, size: 0x8, addend: 0x0, symName: __ZN5folly6detail19SimdSplitByCharImplINS_12small_vectorINSt3__117basic_string_viewIcNS3_11char_traitsIcEEEELm2EvEEE9dropEmptyEcNS_5RangeIPKcEERS8_, symObjAddr: 0x4498, symBinAddr: 0x2CA68, symSize: 0x238 }
  - { offset: 0x1A3164, size: 0x8, addend: 0x0, symName: __ZN5folly6detail19SimdSplitByCharImplINS_12small_vectorINSt3__117basic_string_viewIcNS3_11char_traitsIcEEEELm3EvEEE9keepEmptyEcNS_5RangeIPKcEERS8_, symObjAddr: 0x46D0, symBinAddr: 0x2CCA0, symSize: 0x218 }
  - { offset: 0x1A3C5C, size: 0x8, addend: 0x0, symName: __ZN5folly6detail19SimdSplitByCharImplINS_12small_vectorINSt3__117basic_string_viewIcNS3_11char_traitsIcEEEELm3EvEEE9dropEmptyEcNS_5RangeIPKcEERS8_, symObjAddr: 0x48E8, symBinAddr: 0x2CEB8, symSize: 0x238 }
  - { offset: 0x1A4748, size: 0x8, addend: 0x0, symName: __ZN5folly6detail19SimdSplitByCharImplINS_12small_vectorINSt3__117basic_string_viewIcNS3_11char_traitsIcEEEELm4EvEEE9keepEmptyEcNS_5RangeIPKcEERS8_, symObjAddr: 0x4B20, symBinAddr: 0x2D0F0, symSize: 0x218 }
  - { offset: 0x1A5240, size: 0x8, addend: 0x0, symName: __ZN5folly6detail19SimdSplitByCharImplINS_12small_vectorINSt3__117basic_string_viewIcNS3_11char_traitsIcEEEELm4EvEEE9dropEmptyEcNS_5RangeIPKcEERS8_, symObjAddr: 0x4D38, symBinAddr: 0x2D308, symSize: 0x238 }
  - { offset: 0x1A5D2C, size: 0x8, addend: 0x0, symName: __ZN5folly6detail19SimdSplitByCharImplINS_12small_vectorINSt3__117basic_string_viewIcNS3_11char_traitsIcEEEELm5EvEEE9keepEmptyEcNS_5RangeIPKcEERS8_, symObjAddr: 0x4F70, symBinAddr: 0x2D540, symSize: 0x218 }
  - { offset: 0x1A6824, size: 0x8, addend: 0x0, symName: __ZN5folly6detail19SimdSplitByCharImplINS_12small_vectorINSt3__117basic_string_viewIcNS3_11char_traitsIcEEEELm5EvEEE9dropEmptyEcNS_5RangeIPKcEERS8_, symObjAddr: 0x5188, symBinAddr: 0x2D758, symSize: 0x238 }
  - { offset: 0x1A7310, size: 0x8, addend: 0x0, symName: __ZN5folly6detail19SimdSplitByCharImplINS_12small_vectorINSt3__117basic_string_viewIcNS3_11char_traitsIcEEEELm6EvEEE9keepEmptyEcNS_5RangeIPKcEERS8_, symObjAddr: 0x53C0, symBinAddr: 0x2D990, symSize: 0x218 }
  - { offset: 0x1A7E08, size: 0x8, addend: 0x0, symName: __ZN5folly6detail19SimdSplitByCharImplINS_12small_vectorINSt3__117basic_string_viewIcNS3_11char_traitsIcEEEELm6EvEEE9dropEmptyEcNS_5RangeIPKcEERS8_, symObjAddr: 0x55D8, symBinAddr: 0x2DBA8, symSize: 0x238 }
  - { offset: 0x1A88F4, size: 0x8, addend: 0x0, symName: __ZN5folly6detail19SimdSplitByCharImplINS_12small_vectorINSt3__117basic_string_viewIcNS3_11char_traitsIcEEEELm7EvEEE9keepEmptyEcNS_5RangeIPKcEERS8_, symObjAddr: 0x5810, symBinAddr: 0x2DDE0, symSize: 0x218 }
  - { offset: 0x1A93EC, size: 0x8, addend: 0x0, symName: __ZN5folly6detail19SimdSplitByCharImplINS_12small_vectorINSt3__117basic_string_viewIcNS3_11char_traitsIcEEEELm7EvEEE9dropEmptyEcNS_5RangeIPKcEERS8_, symObjAddr: 0x5A28, symBinAddr: 0x2DFF8, symSize: 0x238 }
  - { offset: 0x1A9ED8, size: 0x8, addend: 0x0, symName: __ZN5folly6detail19SimdSplitByCharImplINS_12small_vectorINSt3__117basic_string_viewIcNS3_11char_traitsIcEEEELm8EvEEE9keepEmptyEcNS_5RangeIPKcEERS8_, symObjAddr: 0x5C60, symBinAddr: 0x2E230, symSize: 0x218 }
  - { offset: 0x1AA9D0, size: 0x8, addend: 0x0, symName: __ZN5folly6detail19SimdSplitByCharImplINS_12small_vectorINSt3__117basic_string_viewIcNS3_11char_traitsIcEEEELm8EvEEE9dropEmptyEcNS_5RangeIPKcEERS8_, symObjAddr: 0x5E78, symBinAddr: 0x2E448, symSize: 0x238 }
  - { offset: 0x1AB639, size: 0x8, addend: 0x0, symName: __ZN5folly6detail28SimdSplitByCharImplToStringsINSt3__16vectorINS2_12basic_stringIcNS2_11char_traitsIcEENS2_9allocatorIcEEEENS7_IS9_EEEEE9keepEmptyEcNS_5RangeIPKcEERSB_, symObjAddr: 0x60B0, symBinAddr: 0x2E680, symSize: 0x2E8 }
  - { offset: 0x1AC616, size: 0x8, addend: 0x0, symName: __ZNSt3__16vectorINS_12basic_stringIcNS_11char_traitsIcEENS_9allocatorIcEEEENS4_IS6_EEE24__emplace_back_slow_pathIJPKclEEEPS6_DpOT_, symObjAddr: 0xAE00, symBinAddr: 0x32684, symSize: 0x124 }
  - { offset: 0x1ACBBB, size: 0x8, addend: 0x0, symName: __ZN5folly6detail28SimdSplitByCharImplToStringsINSt3__16vectorINS2_12basic_stringIcNS2_11char_traitsIcEENS2_9allocatorIcEEEENS7_IS9_EEEEE9dropEmptyEcNS_5RangeIPKcEERSB_, symObjAddr: 0x6398, symBinAddr: 0x2E968, symSize: 0x2F4 }
  - { offset: 0x1ADDE1, size: 0x8, addend: 0x0, symName: __ZN5folly6detail28SimdSplitByCharImplToStringsINSt3__16vectorINS_14basic_fbstringIcNS2_11char_traitsIcEENS2_9allocatorIcEENS_13fbstring_coreIcEEEENS7_ISB_EEEEE9keepEmptyEcNS_5RangeIPKcEERSD_, symObjAddr: 0x668C, symBinAddr: 0x2EC5C, symSize: 0x2F8 }
  - { offset: 0x1AEC2C, size: 0x8, addend: 0x0, symName: __ZNSt3__16vectorIN5folly14basic_fbstringIcNS_11char_traitsIcEENS_9allocatorIcEENS1_13fbstring_coreIcEEEENS5_IS9_EEE24__emplace_back_slow_pathIJPKclEEEPS9_DpOT_, symObjAddr: 0xB0B4, symBinAddr: 0x327A8, symSize: 0x138 }
  - { offset: 0x1AF19D, size: 0x8, addend: 0x0, symName: __ZN5folly6detail28SimdSplitByCharImplToStringsINSt3__16vectorINS_14basic_fbstringIcNS2_11char_traitsIcEENS2_9allocatorIcEENS_13fbstring_coreIcEEEENS7_ISB_EEEEE9dropEmptyEcNS_5RangeIPKcEERSD_, symObjAddr: 0x6984, symBinAddr: 0x2EF54, symSize: 0x304 }
  - { offset: 0x1B01EA, size: 0x8, addend: 0x0, symName: __ZN5folly6detail28SimdSplitByCharImplToStringsINS_8fbvectorINSt3__112basic_stringIcNS3_11char_traitsIcEENS3_9allocatorIcEEEENS7_IS9_EEEEE9keepEmptyEcNS_5RangeIPKcEERSB_, symObjAddr: 0x6C88, symBinAddr: 0x2F258, symSize: 0x218 }
  - { offset: 0x1B0A83, size: 0x8, addend: 0x0, symName: __ZN5folly8fbvectorINSt3__112basic_stringIcNS1_11char_traitsIcEENS1_9allocatorIcEEEENS5_IS7_EEE12emplace_backIJPKclEEERS7_DpOT_, symObjAddr: 0xB738, symBinAddr: 0x32A8C, symSize: 0x58 }
  - { offset: 0x1B0DD0, size: 0x8, addend: 0x0, symName: __ZN5folly6detail28SimdSplitByCharImplToStringsINS_8fbvectorINSt3__112basic_stringIcNS3_11char_traitsIcEENS3_9allocatorIcEEEENS7_IS9_EEEEE9dropEmptyEcNS_5RangeIPKcEERSB_, symObjAddr: 0x6EA0, symBinAddr: 0x2F470, symSize: 0x238 }
  - { offset: 0x1B18BC, size: 0x8, addend: 0x0, symName: __ZN5folly6detail28SimdSplitByCharImplToStringsINS_8fbvectorINS_14basic_fbstringIcNSt3__111char_traitsIcEENS4_9allocatorIcEENS_13fbstring_coreIcEEEENS7_ISB_EEEEE9keepEmptyEcNS_5RangeIPKcEERSD_, symObjAddr: 0x70D8, symBinAddr: 0x2F6A8, symSize: 0x218 }
  - { offset: 0x1B2155, size: 0x8, addend: 0x0, symName: __ZN5folly8fbvectorINS_14basic_fbstringIcNSt3__111char_traitsIcEENS2_9allocatorIcEENS_13fbstring_coreIcEEEENS5_IS9_EEE12emplace_backIJPKclEEERS9_DpOT_, symObjAddr: 0xBAE8, symBinAddr: 0x32E3C, symSize: 0x64 }
  - { offset: 0x1B247E, size: 0x8, addend: 0x0, symName: __ZN5folly6detail28SimdSplitByCharImplToStringsINS_8fbvectorINS_14basic_fbstringIcNSt3__111char_traitsIcEENS4_9allocatorIcEENS_13fbstring_coreIcEEEENS7_ISB_EEEEE9dropEmptyEcNS_5RangeIPKcEERSD_, symObjAddr: 0x72F0, symBinAddr: 0x2F8C0, symSize: 0x238 }
  - { offset: 0x1B355D, size: 0x8, addend: 0x0, symName: __ZNK5folly12small_vectorINS_5RangeIPKcEELm1EvE14computeNewSizeEv, symObjAddr: 0x7F58, symBinAddr: 0x2FFE4, symSize: 0x54 }
  - { offset: 0x1B3596, size: 0x8, addend: 0x0, symName: __ZNK5folly12small_vectorINS_5RangeIPKcEELm1EvE14computeNewSizeEv, symObjAddr: 0x7F58, symBinAddr: 0x2FFE4, symSize: 0x54 }
  - { offset: 0x1B35B2, size: 0x8, addend: 0x0, symName: __ZNK5folly12small_vectorINS_5RangeIPKcEELm1EvE14computeNewSizeEv, symObjAddr: 0x7F58, symBinAddr: 0x2FFE4, symSize: 0x54 }
  - { offset: 0x1B3647, size: 0x8, addend: 0x0, symName: __ZN5folly12small_vectorINS_5RangeIPKcEELm1EvE8freeHeapEv, symObjAddr: 0x7FAC, symBinAddr: 0x30038, symSize: 0x7C }
  - { offset: 0x1B3652, size: 0x8, addend: 0x0, symName: __ZN5folly12small_vectorINS_5RangeIPKcEELm1EvE8freeHeapEv, symObjAddr: 0x7FAC, symBinAddr: 0x30038, symSize: 0x7C }
  - { offset: 0x1B367B, size: 0x8, addend: 0x0, symName: __ZN5folly12small_vectorINS_5RangeIPKcEELm1EvE8freeHeapEv, symObjAddr: 0x7FAC, symBinAddr: 0x30038, symSize: 0x7C }
  - { offset: 0x1B37B6, size: 0x8, addend: 0x0, symName: __ZN5folly12small_vectorINS_5RangeIPKcEELm1EvE16makeSizeInternalIZNS5_12emplace_backIJS3_lEEERS4_DpOT_EUlPvE_EEvmbOT_m.cold.1, symObjAddr: 0xBE38, symBinAddr: 0x39908, symSize: 0x14 }
  - { offset: 0x1B37EE, size: 0x8, addend: 0x0, symName: __ZN5folly12small_vectorINS_5RangeIPKcEELm1EvE16makeSizeInternalIZNS5_12emplace_backIJS3_lEEERS4_DpOT_EUlPvE_EEvmbOT_m.cold.2, symObjAddr: 0xBE4C, symBinAddr: 0x3991C, symSize: 0x14 }
  - { offset: 0x1B3B33, size: 0x8, addend: 0x0, symName: __ZN5folly12small_vectorINS_5RangeIPKcEELm2EvE8freeHeapEv, symObjAddr: 0x8328, symBinAddr: 0x30310, symSize: 0x7C }
  - { offset: 0x1B3B5C, size: 0x8, addend: 0x0, symName: __ZN5folly12small_vectorINS_5RangeIPKcEELm2EvE8freeHeapEv, symObjAddr: 0x8328, symBinAddr: 0x30310, symSize: 0x7C }
  - { offset: 0x1B7B15, size: 0x8, addend: 0x0, symName: __ZNSt3__114__split_bufferIN5folly14basic_fbstringIcNS_11char_traitsIcEENS_9allocatorIcEENS1_13fbstring_coreIcEEEERNS5_IS9_EEED2Ev, symObjAddr: 0xB6B8, symBinAddr: 0x32A0C, symSize: 0x30 }
  - { offset: 0x1B854F, size: 0x8, addend: 0x0, symName: __ZNSt3__128__exception_guard_exceptionsINS_29_AllocatorDestroyRangeReverseINS_9allocatorIN5folly14basic_fbstringIcNS_11char_traitsIcEENS2_IcEENS3_13fbstring_coreIcEEEEEEPSA_EEED2B8ne200100Ev, symObjAddr: 0xB63C, symBinAddr: 0x32990, symSize: 0x34 }
  - { offset: 0x1B8608, size: 0x8, addend: 0x0, symName: __ZNKSt3__129_AllocatorDestroyRangeReverseINS_9allocatorIN5folly14basic_fbstringIcNS_11char_traitsIcEENS1_IcEENS2_13fbstring_coreIcEEEEEEPS9_EclB8ne200100Ev, symObjAddr: 0xB670, symBinAddr: 0x329C4, symSize: 0x48 }
  - { offset: 0x1B87EE, size: 0x8, addend: 0x0, symName: __ZNSt3__114__split_bufferIN5folly14basic_fbstringIcNS_11char_traitsIcEENS_9allocatorIcEENS1_13fbstring_coreIcEEEERNS5_IS9_EEE5clearB8ne200100Ev, symObjAddr: 0xB6E8, symBinAddr: 0x32A3C, symSize: 0x50 }
  - { offset: 0x1B8BB3, size: 0x8, addend: 0x0, symName: __ZN5folly8fbvectorINSt3__112basic_stringIcNS1_11char_traitsIcEENS1_9allocatorIcEEEENS5_IS7_EEE10M_relocateEPS7_, symObjAddr: 0xBA04, symBinAddr: 0x32D58, symSize: 0x40 }
  - { offset: 0x1B905D, size: 0x8, addend: 0x0, symName: __ZN5folly8fbvectorINSt3__112basic_stringIcNS1_11char_traitsIcEENS1_9allocatorIcEEEENS5_IS7_EEE15S_destroy_rangeEPS7_SA_, symObjAddr: 0xBA44, symBinAddr: 0x32D98, symSize: 0xA4 }
  - { offset: 0x1BB794, size: 0x8, addend: 0x0, symName: __ZN5folly4hash12SpookyHashV25ShortEPKvmPyS4_, symObjAddr: 0x0, symBinAddr: 0x3310C, symSize: 0x360 }
  - { offset: 0x1BB8C1, size: 0x8, addend: 0x0, symName: __ZN5folly4hash12SpookyHashV25ShortEPKvmPyS4_, symObjAddr: 0x0, symBinAddr: 0x3310C, symSize: 0x360 }
  - { offset: 0x1BC14F, size: 0x8, addend: 0x0, symName: __ZN5folly4hash12SpookyHashV27Hash128EPKvmPyS4_, symObjAddr: 0x360, symBinAddr: 0x3346C, symSize: 0x598 }
  - { offset: 0x1BCA9A, size: 0x8, addend: 0x0, symName: __ZN5folly4hash12SpookyHashV24InitEyy, symObjAddr: 0x8F8, symBinAddr: 0x33A04, symSize: 0x10 }
  - { offset: 0x1BCADD, size: 0x8, addend: 0x0, symName: __ZN5folly4hash12SpookyHashV26UpdateEPKvm, symObjAddr: 0x908, symBinAddr: 0x33A14, symSize: 0x540 }
  - { offset: 0x1BD30B, size: 0x8, addend: 0x0, symName: __ZNK5folly4hash12SpookyHashV25FinalEPyS2_, symObjAddr: 0xE48, symBinAddr: 0x33F54, symSize: 0x44C }
  - { offset: 0x1C1ED6, size: 0x8, addend: 0x0, symName: __ZN5folly6detail12_GLOBAL__N_134StaticSingletonManagerWithRttiImpl8instanceEv, symObjAddr: 0x28C, symBinAddr: 0x3461C, symSize: 0x28 }
  - { offset: 0x1C1EF6, size: 0x8, addend: 0x0, symName: __ZZN5folly6detail12_GLOBAL__N_134StaticSingletonManagerWithRttiImpl8instanceEvE8instance, symObjAddr: 0x245D0, symBinAddr: 0x5BB00, symSize: 0x0 }
  - { offset: 0x1C1FD7, size: 0x8, addend: 0x0, symName: __ZN5folly6detail30StaticSingletonManagerWithRtti7create_ILb0EEEPvRNS1_3ArgE, symObjAddr: 0x0, symBinAddr: 0x343A0, symSize: 0x4 }
  - { offset: 0x1C1FFD, size: 0x8, addend: 0x0, symName: __ZN5folly6detail30StaticSingletonManagerWithRtti7create_ILb0EEEPvRNS1_3ArgE, symObjAddr: 0x0, symBinAddr: 0x343A0, symSize: 0x4 }
  - { offset: 0x1C201A, size: 0x8, addend: 0x0, symName: __ZN5folly6detail12_GLOBAL__N_134StaticSingletonManagerWithRttiImpl6createINS0_30StaticSingletonManagerWithRtti3ArgEEEPvRT_, symObjAddr: 0x4, symBinAddr: 0x343A4, symSize: 0x198 }
  - { offset: 0x1C2EF2, size: 0x8, addend: 0x0, symName: __ZNKSt9type_info6beforeB8ne200100ERKS_, symObjAddr: 0x370, symBinAddr: 0x34700, symSize: 0x3C }
  - { offset: 0x1C2F89, size: 0x8, addend: 0x0, symName: __ZN5folly6detail30StaticSingletonManagerWithRtti7create_ILb1EEEPvRNS1_3ArgE, symObjAddr: 0x19C, symBinAddr: 0x3453C, symSize: 0x18 }
  - { offset: 0x1C30FC, size: 0x8, addend: 0x0, symName: __ZN5folly6detail30StaticSingletonManagerWithRtti13get_existing_ERNS1_3ArgE, symObjAddr: 0x1C4, symBinAddr: 0x34554, symSize: 0xC8 }
  - { offset: 0x1C33D0, size: 0x8, addend: 0x0, symName: __ZN5folly6detail12_GLOBAL__N_134StaticSingletonManagerWithRttiImpl8instanceEv.cold.1, symObjAddr: 0x548, symBinAddr: 0x39930, symSize: 0x34 }
  - { offset: 0x1C3766, size: 0x8, addend: 0x0, symName: __ZN5folly14IndestructibleINS_6detail12_GLOBAL__N_134StaticSingletonManagerWithRttiImplEEC1IS3_S3_EEv, symObjAddr: 0x2B4, symBinAddr: 0x34644, symSize: 0xBC }
  - { offset: 0x1C5A4A, size: 0x8, addend: 0x0, symName: __ZN5folly6detail12cEscapeTableE, symObjAddr: 0x29C0, symBinAddr: 0x3F290, symSize: 0x0 }
  - { offset: 0x1C5A64, size: 0x8, addend: 0x0, symName: __ZN5folly6detail14cUnescapeTableE, symObjAddr: 0x2AC0, symBinAddr: 0x3F390, symSize: 0x0 }
  - { offset: 0x1C5A7E, size: 0x8, addend: 0x0, symName: __ZN5folly6detail8hexTableE, symObjAddr: 0x2BC0, symBinAddr: 0x3F490, symSize: 0x0 }
  - { offset: 0x1C5A98, size: 0x8, addend: 0x0, symName: __ZN5folly6detail14uriEscapeTableE, symObjAddr: 0x2CC0, symBinAddr: 0x3F590, symSize: 0x0 }
  - { offset: 0x1C5AA6, size: 0x8, addend: 0x0, symName: __ZN5folly6detail11hexDumpLineEPKvmmRNSt3__112basic_stringIcNS3_11char_traitsIcEENS3_9allocatorIcEEEE, symObjAddr: 0xEB8, symBinAddr: 0x354A8, symSize: 0x22C }
  - { offset: 0x1C6342, size: 0x8, addend: 0x0, symName: __ZN5folly6detail15reserveInTargetIA25_cNS_5RangeIPKcEEJA2_cPNSt3__112basic_stringIcNS8_11char_traitsIcEENS8_9allocatorIcEEEEEEEvRKT_RKT0_DpRKT1_, symObjAddr: 0x1F84, symBinAddr: 0x35E34, symSize: 0x30 }
  - { offset: 0x1C63D7, size: 0x8, addend: 0x0, symName: __ZN5folly6detail15reserveInTargetIA25_cNS_5RangeIPKcEEJA2_cPNSt3__112basic_stringIcNS8_11char_traitsIcEENS8_9allocatorIcEEEEEEEvRKT_RKT0_DpRKT1_, symObjAddr: 0x1F84, symBinAddr: 0x35E34, symSize: 0x30 }
  - { offset: 0x1C652F, size: 0x8, addend: 0x0, symName: __ZN5folly6detail13internalSplitINS_5RangeIPKcEES5_NSt3__120back_insert_iteratorINS6_6vectorIS5_NS6_9allocatorIS5_EEEEEEEEvT0_S5_T1_b, symObjAddr: 0x22FC, symBinAddr: 0x35F2C, symSize: 0x180 }
  - { offset: 0x1C6837, size: 0x8, addend: 0x0, symName: __ZNSt3__16vectorIN5folly5RangeIPKcEENS_9allocatorIS5_EEE9push_backB8ne200100EOS5_, symObjAddr: 0x247C, symBinAddr: 0x360AC, symSize: 0xD4 }
  - { offset: 0x1C685D, size: 0x8, addend: 0x0, symName: __ZN5folly6detail12internalJoinINS_5RangeIPKcEEPS5_NSt3__112basic_stringIcNS7_11char_traitsIcEENS7_9allocatorIcEEEEEENS7_9enable_ifIXsr32IsSizableStringContainerIteratorIT0_EE5valueEvE4typeET_SF_SF_RT1_, symObjAddr: 0x2598, symBinAddr: 0x36180, symSize: 0xC4 }
  - { offset: 0x1C6A72, size: 0x8, addend: 0x0, symName: __ZN5folly6detail15reserveInTargetIA71_cPKcJPNSt3__112basic_stringIcNS5_11char_traitsIcEENS5_9allocatorIcEEEEEEEvRKT_RKT0_DpRKT1_, symObjAddr: 0x13E8, symBinAddr: 0x359D8, symSize: 0x38 }
  - { offset: 0x1C723B, size: 0x8, addend: 0x0, symName: __ZN5folly6detail18internalJoinAppendINS_5RangeIPKcEEPS5_NSt3__112basic_stringIcNS7_11char_traitsIcEENS7_9allocatorIcEEEEEEvT_T0_SF_RT1_, symObjAddr: 0x265C, symBinAddr: 0x36244, symSize: 0x94 }
  - { offset: 0x1C7397, size: 0x8, addend: 0x0, symName: __ZN5folly6detail18internalJoinAppendIcPNS_5RangeIPKcEENSt3__112basic_stringIcNS7_11char_traitsIcEENS7_9allocatorIcEEEEEEvT_T0_SF_RT1_, symObjAddr: 0x26F0, symBinAddr: 0x362D8, symSize: 0x6C }
  - { offset: 0x1C7596, size: 0x8, addend: 0x0, symName: __ZN5folly12toLowerAsciiEPcm, symObjAddr: 0xCEC, symBinAddr: 0x352DC, symSize: 0x1CC }
  - { offset: 0x1C76EA, size: 0x8, addend: 0x0, symName: __ZN5folly12_GLOBAL__N_115kPrettySuffixesE, symObjAddr: 0x2DF8, symBinAddr: 0x49428, symSize: 0x0 }
  - { offset: 0x1C772A, size: 0x8, addend: 0x0, symName: __ZN5folly12_GLOBAL__N_119kPrettyTimeSuffixesE, symObjAddr: 0x2E40, symBinAddr: 0x49470, symSize: 0x0 }
  - { offset: 0x1C7745, size: 0x8, addend: 0x0, symName: __ZN5folly12_GLOBAL__N_122kPrettyTimeHmsSuffixesE, symObjAddr: 0x2EB0, symBinAddr: 0x494E0, symSize: 0x0 }
  - { offset: 0x1C7760, size: 0x8, addend: 0x0, symName: __ZN5folly12_GLOBAL__N_126kPrettyBytesMetricSuffixesE, symObjAddr: 0x2F40, symBinAddr: 0x49570, symSize: 0x0 }
  - { offset: 0x1C777B, size: 0x8, addend: 0x0, symName: __ZN5folly12_GLOBAL__N_126kPrettyBytesBinarySuffixesE, symObjAddr: 0x2FC0, symBinAddr: 0x495F0, symSize: 0x0 }
  - { offset: 0x1C7796, size: 0x8, addend: 0x0, symName: __ZN5folly12_GLOBAL__N_129kPrettyBytesBinaryIECSuffixesE, symObjAddr: 0x3040, symBinAddr: 0x49670, symSize: 0x0 }
  - { offset: 0x1C77B1, size: 0x8, addend: 0x0, symName: __ZN5folly12_GLOBAL__N_126kPrettyUnitsMetricSuffixesE, symObjAddr: 0x30C0, symBinAddr: 0x496F0, symSize: 0x0 }
  - { offset: 0x1C77CC, size: 0x8, addend: 0x0, symName: __ZN5folly12_GLOBAL__N_126kPrettyUnitsBinarySuffixesE, symObjAddr: 0x3140, symBinAddr: 0x49770, symSize: 0x0 }
  - { offset: 0x1C77E7, size: 0x8, addend: 0x0, symName: __ZN5folly12_GLOBAL__N_129kPrettyUnitsBinaryIECSuffixesE, symObjAddr: 0x31C0, symBinAddr: 0x497F0, symSize: 0x0 }
  - { offset: 0x1C7802, size: 0x8, addend: 0x0, symName: __ZN5folly12_GLOBAL__N_117kPrettySISuffixesE, symObjAddr: 0x3240, symBinAddr: 0x49870, symSize: 0x0 }
  - { offset: 0x1C7810, size: 0x8, addend: 0x0, symName: __ZN5folly12_GLOBAL__N_117stringAppendfImplERNSt3__112basic_stringIcNS1_11char_traitsIcEENS1_9allocatorIcEEEEPKcPc, symObjAddr: 0x108, symBinAddr: 0x34844, symSize: 0x1C8 }
  - { offset: 0x1C8663, size: 0x8, addend: 0x0, symName: __ZN5folly12stringPrintfEPKcz, symObjAddr: 0x8C, symBinAddr: 0x347C8, symSize: 0x2C }
  - { offset: 0x1C86E7, size: 0x8, addend: 0x0, symName: __ZN5folly13stringAppendfEPNSt3__112basic_stringIcNS0_11char_traitsIcEENS0_9allocatorIcEEEEPKcz, symObjAddr: 0x2D0, symBinAddr: 0x34A0C, symSize: 0x3C }
  - { offset: 0x1C87A4, size: 0x8, addend: 0x0, symName: __ZN5folly12stringPrintfEPNSt3__112basic_stringIcNS0_11char_traitsIcEENS0_9allocatorIcEEEEPKcz, symObjAddr: 0x330, symBinAddr: 0x34A6C, symSize: 0x4C }
  - { offset: 0x1C8D38, size: 0x8, addend: 0x0, symName: __ZN5folly2toIdEET_PNS_5RangeIPKcEE, symObjAddr: 0x694, symBinAddr: 0x34DD0, symSize: 0x80 }
  - { offset: 0x1C8F84, size: 0x8, addend: 0x0, symName: __ZN5folly8errnoStrEi, symObjAddr: 0xBB0, symBinAddr: 0x351A0, symSize: 0xFC }
  - { offset: 0x1C9231, size: 0x8, addend: 0x0, symName: __ZN5folly15ltrimWhitespaceENS_5RangeIPKcEE, symObjAddr: 0x0, symBinAddr: 0x3473C, symSize: 0x4C }
  - { offset: 0x1C925F, size: 0x8, addend: 0x0, symName: __ZN5folly15rtrimWhitespaceENS_5RangeIPKcEE, symObjAddr: 0x4C, symBinAddr: 0x34788, symSize: 0x40 }
  - { offset: 0x1C928C, size: 0x8, addend: 0x0, symName: __ZN5folly13stringVPrintfEPKcPc, symObjAddr: 0xB8, symBinAddr: 0x347F4, symSize: 0x50 }
  - { offset: 0x1C9420, size: 0x8, addend: 0x0, symName: __ZN5folly2toINSt3__112basic_stringIcNS1_11char_traitsIcEENS1_9allocatorIcEEEEJA71_cPKcELi0EEET_DpRKT0_, symObjAddr: 0x1374, symBinAddr: 0x35964, symSize: 0x74 }
  - { offset: 0x1C9683, size: 0x8, addend: 0x0, symName: __ZN5folly14stringVAppendfEPNSt3__112basic_stringIcNS0_11char_traitsIcEENS0_9allocatorIcEEEEPKcPc, symObjAddr: 0x30C, symBinAddr: 0x34A48, symSize: 0x24 }
  - { offset: 0x1C970C, size: 0x8, addend: 0x0, symName: __ZN5folly13stringVPrintfEPNSt3__112basic_stringIcNS0_11char_traitsIcEENS0_9allocatorIcEEEEPKcPc, symObjAddr: 0x37C, symBinAddr: 0x34AB8, symSize: 0x24 }
  - { offset: 0x1C974C, size: 0x8, addend: 0x0, symName: __ZN5folly13stringVPrintfEPNSt3__112basic_stringIcNS0_11char_traitsIcEENS0_9allocatorIcEEEEPKcPc, symObjAddr: 0x37C, symBinAddr: 0x34AB8, symSize: 0x24 }
  - { offset: 0x1C9768, size: 0x8, addend: 0x0, symName: __ZN5folly13stringVPrintfEPNSt3__112basic_stringIcNS0_11char_traitsIcEENS0_9allocatorIcEEEEPKcPc, symObjAddr: 0x37C, symBinAddr: 0x34AB8, symSize: 0x24 }
  - { offset: 0x1C983E, size: 0x8, addend: 0x0, symName: __ZN5folly11prettyPrintEdNS_10PrettyTypeEb, symObjAddr: 0x3A0, symBinAddr: 0x34ADC, symSize: 0xE8 }
  - { offset: 0x1C996D, size: 0x8, addend: 0x0, symName: __ZN5folly14prettyToDoubleEPNS_5RangeIPKcEENS_10PrettyTypeE, symObjAddr: 0x488, symBinAddr: 0x34BC4, symSize: 0x20C }
  - { offset: 0x1C9DAB, size: 0x8, addend: 0x0, symName: __ZN5folly2toINSt3__112basic_stringIcNS1_11char_traitsIcEENS1_9allocatorIcEEEEJA25_cNS_5RangeIPKcEEA2_cELi0EEET_DpRKT0_, symObjAddr: 0x760, symBinAddr: 0x34E9C, symSize: 0x7C }
  - { offset: 0x1CA273, size: 0x8, addend: 0x0, symName: __ZN5folly14prettyToDoubleENS_5RangeIPKcEENS_10PrettyTypeE, symObjAddr: 0x7DC, symBinAddr: 0x34F18, symSize: 0xC8 }
  - { offset: 0x1CA46F, size: 0x8, addend: 0x0, symName: __ZN5folly7hexDumpEPKvm, symObjAddr: 0x8A4, symBinAddr: 0x34FE0, symSize: 0xF0 }
  - { offset: 0x1CA6E5, size: 0x8, addend: 0x0, symName: __ZN5folly7hexDumpINSt3__116ostream_iteratorINS_5RangeIPKcEEcNS1_11char_traitsIcEEEEEEvPKvmT_, symObjAddr: 0xA58, symBinAddr: 0x350D0, symSize: 0xD0 }
  - { offset: 0x1CAB15, size: 0x8, addend: 0x0, symName: __ZN5folly2toINSt3__112basic_stringIcNS1_11char_traitsIcEENS1_9allocatorIcEEEEJA15_ciA32_ciA2_cELi0EEET_DpRKT0_, symObjAddr: 0x19C8, symBinAddr: 0x35A58, symSize: 0x54 }
  - { offset: 0x1CB66B, size: 0x8, addend: 0x0, symName: __ZN5folly15stripLeftMarginENSt3__112basic_stringIcNS0_11char_traitsIcEENS0_9allocatorIcEEEE, symObjAddr: 0x10E4, symBinAddr: 0x356D4, symSize: 0x1C4 }
  - { offset: 0x1CBBB6, size: 0x8, addend: 0x0, symName: __ZN5folly5splitIA2_cNSt3__112basic_stringIcNS2_11char_traitsIcEENS2_9allocatorIcEEEENS2_6vectorINS_5RangeIPKcEENS6_ISD_EEEEEENS2_9enable_ifIXaaoontsr6detail20IsSimdSupportedDelimIT_EE5valuentsr6detail31HasSimdSplitCompatibleValueTypeIT1_EE5valuesr6detail25IsSplitSupportedContainerISI_EE5valueEvE4typeERKSH_RKT0_RSI_b, symObjAddr: 0x12A8, symBinAddr: 0x35898, symSize: 0x60 }
  - { offset: 0x1CBD68, size: 0x8, addend: 0x0, symName: __ZN5folly4joinIA2_cNS_5RangeIPNS2_IPKcEEEEEENSt3__112basic_stringIcNS8_11char_traitsIcEENS8_9allocatorIcEEEERKT_RKT0_, symObjAddr: 0x1308, symBinAddr: 0x358F8, symSize: 0x6C }
  - { offset: 0x1CC1F1, size: 0x8, addend: 0x0, symName: __ZN5folly11toAppendFitIJA15_ciA32_ciA2_cPNSt3__112basic_stringIcNS4_11char_traitsIcEENS4_9allocatorIcEEEEELi0EEEvDpRKT_, symObjAddr: 0x1A1C, symBinAddr: 0x35AAC, symSize: 0x74 }
  - { offset: 0x1D18E7, size: 0x8, addend: 0x0, symName: __ZN5folly6detail12internalJoinINS_5RangeIPKcEEPS5_NSt3__112basic_stringIcNS7_11char_traitsIcEENS7_9allocatorIcEEEEEENS7_9enable_ifIXsr32IsSizableStringContainerIteratorIT0_EE5valueEvE4typeET_SF_SF_RT1_, symObjAddr: 0x2598, symBinAddr: 0x36180, symSize: 0xC4 }
  - { offset: 0x1D365A, size: 0x8, addend: 0x0, symName: __ZNK5folly5RangeIPKcE10startsWithERKS3_, symObjAddr: 0x714, symBinAddr: 0x34E50, symSize: 0x4C }
  - { offset: 0x1D3693, size: 0x8, addend: 0x0, symName: __ZNK5folly5RangeIPKcE10startsWithERKS3_, symObjAddr: 0x714, symBinAddr: 0x34E50, symSize: 0x4C }
  - { offset: 0x1D39B0, size: 0x8, addend: 0x0, symName: __ZN5folly15expected_detail30expected_detail_ExpectedHelper14ExpectedHelper12thenOrThrow_INS0_15ExpectedStorageINS_5RangeIPKcEENS_14ConversionCodeELNS0_11StorageTypeE1EEEZNS_2toIdEET_PS8_EUlS8_E_ZNSC_IdEESD_SE_EUlS9_E_dNS_15ConversionErrorELb0ELi0EEET2_OSD_OT0_OT1_, symObjAddr: 0x1E6C, symBinAddr: 0x35DC0, symSize: 0x74 }
  - { offset: 0x1D3B44, size: 0x8, addend: 0x0, symName: __ZN5folly6detail18ToAppendStrImplAllINSt3__116integer_sequenceImJLm0ELm1ELm2ELm3EEEEE4callIJA25_cNS_5RangeIPKcEEA2_cPNS2_12basic_stringIcNS2_11char_traitsIcEENS2_9allocatorIcEEEEEEEvDpRKT_, symObjAddr: 0x1FB4, symBinAddr: 0x35E64, symSize: 0x68 }
  - { offset: 0x1D44CE, size: 0x8, addend: 0x0, symName: __ZNSt3__116ostream_iteratorIN5folly5RangeIPKcEEcNS_11char_traitsIcEEEaSB8ne200100ERKS5_, symObjAddr: 0x21C0, symBinAddr: 0x35ECC, symSize: 0x60 }
  - { offset: 0x1D4747, size: 0x8, addend: 0x0, symName: '__ZN5folly6detail14ScopeGuardImplIZNS_8errnoStrEiE3$_0Lb1EED1Ev', symObjAddr: 0xCAC, symBinAddr: 0x3529C, symSize: 0x40 }
  - { offset: 0x1D48D5, size: 0x8, addend: 0x0, symName: __ZNSt3__112basic_stringIcNS_11char_traitsIcEENS_9allocatorIcEEE18__shrink_or_extendB8ne200100Em, symObjAddr: 0x1D18, symBinAddr: 0x35C6C, symSize: 0x154 }
  - { offset: 0x1D502C, size: 0x8, addend: 0x0, symName: __ZN5folly6detail18ToAppendStrImplAllINSt3__116integer_sequenceImJLm0ELm1ELm2EEEEE4callIJA71_cPKcPNS2_12basic_stringIcNS2_11char_traitsIcEENS2_9allocatorIcEEEEEEEvDpRKT_, symObjAddr: 0x1420, symBinAddr: 0x35A10, symSize: 0x48 }
  - { offset: 0x1D5951, size: 0x8, addend: 0x0, symName: __ZN5folly6detail25EstimateSpaceToReserveAllINSt3__116integer_sequenceImJLm0ELm1ELm2ELm3ELm4ELm5EEEEE4callIJA15_ciA32_ciA2_cPNS2_12basic_stringIcNS2_11char_traitsIcEENS2_9allocatorIcEEEEEEEmDpRKT_, symObjAddr: 0x1A90, symBinAddr: 0x35B20, symSize: 0xB4 }
  - { offset: 0x1D5B8B, size: 0x8, addend: 0x0, symName: __ZN5folly6detail18ToAppendStrImplAllINSt3__116integer_sequenceImJLm0ELm1ELm2ELm3ELm4ELm5EEEEE4callIJA15_ciA32_ciA2_cPNS2_12basic_stringIcNS2_11char_traitsIcEENS2_9allocatorIcEEEEEEEvDpRKT_, symObjAddr: 0x1B44, symBinAddr: 0x35BD4, symSize: 0x98 }
  - { offset: 0x1D6553, size: 0x8, addend: 0x0, symName: __ZNSt3__16vectorIN5folly5RangeIPKcEENS_9allocatorIS5_EEE9push_backB8ne200100EOS5_, symObjAddr: 0x247C, symBinAddr: 0x360AC, symSize: 0xD4 }
  - { offset: 0x1D8E33, size: 0x8, addend: 0x0, symName: __ZN5folly6preadvEiPK5iovecix, symObjAddr: 0x0, symBinAddr: 0x36344, symSize: 0x48 }
  - { offset: 0x1D8E45, size: 0x8, addend: 0x0, symName: __ZN5folly6preadvEiPK5iovecix, symObjAddr: 0x0, symBinAddr: 0x36344, symSize: 0x48 }
  - { offset: 0x1D8EC4, size: 0x8, addend: 0x0, symName: __ZN5folly7pwritevEiPK5iovecix, symObjAddr: 0x48, symBinAddr: 0x3638C, symSize: 0x48 }
  - { offset: 0x1D9068, size: 0x8, addend: 0x0, symName: __ZN5folly6preadvEiPK5iovecix.cold.1, symObjAddr: 0x90, symBinAddr: 0x39964, symSize: 0x30 }
  - { offset: 0x1D9080, size: 0x8, addend: 0x0, symName: __ZN5folly7pwritevEiPK5iovecix.cold.1, symObjAddr: 0xC0, symBinAddr: 0x39994, symSize: 0x30 }
  - { offset: 0x1DBF68, size: 0x8, addend: 0x0, symName: __ZN5folly12_GLOBAL__N_111gCacheStateE, symObjAddr: 0xCE02, symBinAddr: 0x5BB78, symSize: 0x0 }
  - { offset: 0x1DBFAA, size: 0x8, addend: 0x0, symName: __ZN5folly12_GLOBAL__N_110CacheState5epochE, symObjAddr: 0x300, symBinAddr: 0x54388, symSize: 0x0 }
  - { offset: 0x1DC5EB, size: 0x8, addend: 0x0, symName: __ZN5folly6detail8function5call_IZNS_12_GLOBAL__N_110CacheStateC1EvEUlvE_Lb1ELb0EbJEEET2_DpT3_RNS1_4DataE, symObjAddr: 0xD0, symBinAddr: 0x364A4, symSize: 0x8 }
  - { offset: 0x1DC650, size: 0x8, addend: 0x0, symName: __ZN5folly6detail8function5call_IZNS_12_GLOBAL__N_110CacheStateC1EvEUlvE0_Lb1ELb0EvJEEET2_DpT3_RNS1_4DataE, symObjAddr: 0xEC, symBinAddr: 0x364C0, symSize: 0x4 }
  - { offset: 0x1DC6AE, size: 0x8, addend: 0x0, symName: __ZN5folly6detail8function5call_IZNS_12_GLOBAL__N_110CacheStateC1EvEUlvE1_Lb1ELb0EvJEEET2_DpT3_RNS1_4DataE, symObjAddr: 0xF0, symBinAddr: 0x364C4, symSize: 0x1C }
  - { offset: 0x1DC79F, size: 0x8, addend: 0x0, symName: __ZN5folly6detail17getOSThreadIDSlowEv, symObjAddr: 0x1C, symBinAddr: 0x363F0, symSize: 0x28 }
  - { offset: 0x1DC7F2, size: 0x8, addend: 0x0, symName: __ZN5folly13getOSThreadIDEv, symObjAddr: 0x6C, symBinAddr: 0x36440, symSize: 0x64 }
  - { offset: 0x1DC81C, size: 0x8, addend: 0x0, symName: __ZZN5folly13getOSThreadIDEvE5cache, symObjAddr: 0x2E8, symBinAddr: 0x543F0, symSize: 0x0 }
  - { offset: 0x1DC8E1, size: 0x8, addend: 0x0, symName: __ZN5folly18getCurrentThreadIDEv, symObjAddr: 0x0, symBinAddr: 0x363D4, symSize: 0x1C }
  - { offset: 0x1DDD6A, size: 0x8, addend: 0x0, symName: __ZN5folly12_GLOBAL__N_110CacheStateD1Ev, symObjAddr: 0x44, symBinAddr: 0x36418, symSize: 0x28 }
  - { offset: 0x1DDE1C, size: 0x8, addend: 0x0, symName: __ZN5folly6detail8function20DispatchSmallTrivial5exec_ILm8EEEmNS1_2OpEPNS1_4DataES6_, symObjAddr: 0xD8, symBinAddr: 0x364AC, symSize: 0x14 }
  - { offset: 0x1DE1A9, size: 0x8, addend: 0x0, symName: __GLOBAL__sub_I_ThreadId.cpp, symObjAddr: 0x148, symBinAddr: 0x364E0, symSize: 0x150 }
  - { offset: 0x1DE53C, size: 0x8, addend: 0x0, symName: __GLOBAL__sub_I_ThreadId.cpp.cold.1, symObjAddr: 0x298, symBinAddr: 0x399C4, symSize: 0x50 }
  - { offset: 0x1E05F8, size: 0x8, addend: 0x0, symName: __ZN5folly6detail14to_ascii_arrayILy8ENS_17to_ascii_alphabetILb0EEEE4dataE, symObjAddr: 0x0, symBinAddr: 0x3F6C0, symSize: 0x0 }
  - { offset: 0x1E066A, size: 0x8, addend: 0x0, symName: __ZN5folly6detail14to_ascii_arrayILy10ENS_17to_ascii_alphabetILb0EEEE4dataE, symObjAddr: 0x8, symBinAddr: 0x3F6C8, symSize: 0x0 }
  - { offset: 0x1E067F, size: 0x8, addend: 0x0, symName: __ZN5folly6detail14to_ascii_arrayILy16ENS_17to_ascii_alphabetILb0EEEE4dataE, symObjAddr: 0x18, symBinAddr: 0x3F6D8, symSize: 0x0 }
  - { offset: 0x1E06F1, size: 0x8, addend: 0x0, symName: __ZN5folly6detail14to_ascii_arrayILy8ENS_17to_ascii_alphabetILb1EEEE4dataE, symObjAddr: 0x28, symBinAddr: 0x3F6E8, symSize: 0x0 }
  - { offset: 0x1E0763, size: 0x8, addend: 0x0, symName: __ZN5folly6detail14to_ascii_arrayILy10ENS_17to_ascii_alphabetILb1EEEE4dataE, symObjAddr: 0x30, symBinAddr: 0x3F6F0, symSize: 0x0 }
  - { offset: 0x1E07D5, size: 0x8, addend: 0x0, symName: __ZN5folly6detail14to_ascii_arrayILy16ENS_17to_ascii_alphabetILb1EEEE4dataE, symObjAddr: 0x40, symBinAddr: 0x3F700, symSize: 0x0 }
  - { offset: 0x1E0847, size: 0x8, addend: 0x0, symName: __ZN5folly6detail14to_ascii_tableILy8ENS_17to_ascii_alphabetILb0EEEE4dataE, symObjAddr: 0x80, symBinAddr: 0x3F740, symSize: 0x0 }
  - { offset: 0x1E089F, size: 0x8, addend: 0x0, symName: __ZN5folly6detail14to_ascii_tableILy10ENS_17to_ascii_alphabetILb0EEEE4dataE, symObjAddr: 0x100, symBinAddr: 0x3F7C0, symSize: 0x0 }
  - { offset: 0x1E08F7, size: 0x8, addend: 0x0, symName: __ZN5folly6detail14to_ascii_tableILy16ENS_17to_ascii_alphabetILb0EEEE4dataE, symObjAddr: 0x200, symBinAddr: 0x3F8C0, symSize: 0x0 }
  - { offset: 0x1E094F, size: 0x8, addend: 0x0, symName: __ZN5folly6detail14to_ascii_tableILy8ENS_17to_ascii_alphabetILb1EEEE4dataE, symObjAddr: 0x400, symBinAddr: 0x3FAC0, symSize: 0x0 }
  - { offset: 0x1E09A7, size: 0x8, addend: 0x0, symName: __ZN5folly6detail14to_ascii_tableILy10ENS_17to_ascii_alphabetILb1EEEE4dataE, symObjAddr: 0x480, symBinAddr: 0x3FB40, symSize: 0x0 }
  - { offset: 0x1E09FF, size: 0x8, addend: 0x0, symName: __ZN5folly6detail14to_ascii_tableILy16ENS_17to_ascii_alphabetILb1EEEE4dataE, symObjAddr: 0x580, symBinAddr: 0x3FC40, symSize: 0x0 }
  - { offset: 0x1E0A57, size: 0x8, addend: 0x0, symName: __ZN5folly6detail15to_ascii_powersILy8EyE4dataE, symObjAddr: 0x780, symBinAddr: 0x3FE40, symSize: 0x0 }
  - { offset: 0x1E0AD0, size: 0x8, addend: 0x0, symName: __ZN5folly6detail15to_ascii_powersILy10EyE4dataE, symObjAddr: 0x840, symBinAddr: 0x3FF00, symSize: 0x0 }
  - { offset: 0x1E0B49, size: 0x8, addend: 0x0, symName: __ZN5folly6detail15to_ascii_powersILy16EyE4dataE, symObjAddr: 0x900, symBinAddr: 0x3FFC0, symSize: 0x0 }
  - { offset: 0x1E3A37, size: 0x8, addend: 0x0, symName: __ZN5folly15codePointToUtf8EDi, symObjAddr: 0x0, symBinAddr: 0x36630, symSize: 0x144 }
  - { offset: 0x1E3A5C, size: 0x8, addend: 0x0, symName: __ZN5folly15utf8ToCodePointERPKhS1_b, symObjAddr: 0x234, symBinAddr: 0x36864, symSize: 0x36C }
  - { offset: 0x1E3A86, size: 0x8, addend: 0x0, symName: __ZZN5folly15utf8ToCodePointERPKhS1_bE7bitMask, symObjAddr: 0x118C, symBinAddr: 0x40040, symSize: 0x0 }
  - { offset: 0x1E434E, size: 0x8, addend: 0x0, symName: __ZN5folly15codePointToUtf8EDi, symObjAddr: 0x0, symBinAddr: 0x36630, symSize: 0x144 }
  - { offset: 0x1E46FC, size: 0x8, addend: 0x0, symName: __ZN5folly21appendCodePointToUtf8EDiRNSt3__112basic_stringIcNS0_11char_traitsIcEENS0_9allocatorIcEEEE, symObjAddr: 0x144, symBinAddr: 0x36774, symSize: 0xF0 }
  - { offset: 0x1E4868, size: 0x8, addend: 0x0, symName: __ZN5folly2toINSt3__112basic_stringIcNS1_11char_traitsIcEENS1_9allocatorIcEEEEJA30_cjELi0EEET_DpRKT0_, symObjAddr: 0x5A0, symBinAddr: 0x36BD0, symSize: 0xB0 }
  - { offset: 0x1E4B42, size: 0x8, addend: 0x0, symName: __ZN5folly2toINSt3__112basic_stringIcNS1_11char_traitsIcEENS1_9allocatorIcEEEEJA26_cjA6_cjELi0EEET_DpRKT0_, symObjAddr: 0x650, symBinAddr: 0x36C80, symSize: 0x54 }
  - { offset: 0x1E4D31, size: 0x8, addend: 0x0, symName: __ZN5folly2toINSt3__112basic_stringIcNS1_11char_traitsIcEENS1_9allocatorIcEEEEJA26_cjA4_cjELi0EEET_DpRKT0_, symObjAddr: 0x6A4, symBinAddr: 0x36CD4, symSize: 0x54 }
  - { offset: 0x1E5035, size: 0x8, addend: 0x0, symName: __ZN5folly11toAppendFitIJA26_cjA6_cjPNSt3__112basic_stringIcNS3_11char_traitsIcEENS3_9allocatorIcEEEEELi0EEEvDpRKT_, symObjAddr: 0xBA0, symBinAddr: 0x36E80, symSize: 0x64 }
  - { offset: 0x1E5181, size: 0x8, addend: 0x0, symName: __ZN5folly11toAppendFitIJA26_cjA4_cjPNSt3__112basic_stringIcNS3_11char_traitsIcEENS3_9allocatorIcEEEEELi0EEEvDpRKT_, symObjAddr: 0xDB8, symBinAddr: 0x37098, symSize: 0x64 }
  - { offset: 0x1E892D, size: 0x8, addend: 0x0, symName: __ZNSt3__112basic_stringIcNS_11char_traitsIcEENS_9allocatorIcEEE16__assign_trivialB8ne200100IPKcS8_EEvT_T0_m, symObjAddr: 0x6F8, symBinAddr: 0x36D28, symSize: 0xC8 }
  - { offset: 0x1E91B8, size: 0x8, addend: 0x0, symName: __ZN5folly6detail18ToAppendStrImplAllINSt3__116integer_sequenceImJLm0ELm1ELm2EEEEE4callIJA30_cjPNS2_12basic_stringIcNS2_11char_traitsIcEENS2_9allocatorIcEEEEEEEvDpRKT_, symObjAddr: 0xA58, symBinAddr: 0x36DF0, symSize: 0x90 }
  - { offset: 0x1E98B3, size: 0x8, addend: 0x0, symName: __ZN5folly6detail18ToAppendStrImplAllINSt3__116integer_sequenceImJLm0ELm1ELm2EEEEE4callIJA30_cjPNS2_12basic_stringIcNS2_11char_traitsIcEENS2_9allocatorIcEEEEEEEvDpRKT_, symObjAddr: 0xA58, symBinAddr: 0x36DF0, symSize: 0x90 }
  - { offset: 0x1E9A0A, size: 0x8, addend: 0x0, symName: __ZN5folly6detail25EstimateSpaceToReserveAllINSt3__116integer_sequenceImJLm0ELm1ELm2ELm3ELm4EEEEE4callIJA26_cjA6_cjPNS2_12basic_stringIcNS2_11char_traitsIcEENS2_9allocatorIcEEEEEEEmDpRKT_, symObjAddr: 0xC04, symBinAddr: 0x36EE4, symSize: 0xE0 }
  - { offset: 0x1E9C22, size: 0x8, addend: 0x0, symName: __ZN5folly6detail18ToAppendStrImplAllINSt3__116integer_sequenceImJLm0ELm1ELm2ELm3ELm4EEEEE4callIJA26_cjA6_cjPNS2_12basic_stringIcNS2_11char_traitsIcEENS2_9allocatorIcEEEEEEEvDpRKT_, symObjAddr: 0xCE4, symBinAddr: 0x36FC4, symSize: 0xD4 }
  - { offset: 0x1E9FA9, size: 0x8, addend: 0x0, symName: __ZN5folly6detail25EstimateSpaceToReserveAllINSt3__116integer_sequenceImJLm0ELm1ELm2ELm3ELm4EEEEE4callIJA26_cjA4_cjPNS2_12basic_stringIcNS2_11char_traitsIcEENS2_9allocatorIcEEEEEEEmDpRKT_, symObjAddr: 0xE1C, symBinAddr: 0x370FC, symSize: 0xE0 }
  - { offset: 0x1EF99E, size: 0x8, addend: 0x0, symName: __ZNSt3__120__throw_out_of_rangeB8ne200100EPKc, symObjAddr: 0xEC8, symBinAddr: 0x379A8, symSize: 0x50 }
  - { offset: 0x1F0EEB, size: 0x8, addend: 0x0, symName: __ZN5folly6detail12_GLOBAL__N_15equalENS1_8PtrRangeES2_, symObjAddr: 0x254, symBinAddr: 0x37420, symSize: 0xB0 }
  - { offset: 0x1F0F9B, size: 0x8, addend: 0x0, symName: __ZN5folly6detail12_GLOBAL__N_15equalENS1_8PtrRangeES2_, symObjAddr: 0x254, symBinAddr: 0x37420, symSize: 0xB0 }
  - { offset: 0x1F0FBD, size: 0x8, addend: 0x0, symName: __ZN5folly6detail12_GLOBAL__N_15equalENS1_8PtrRangeES2_, symObjAddr: 0x254, symBinAddr: 0x37420, symSize: 0xB0 }
  - { offset: 0x1F1161, size: 0x8, addend: 0x0, symName: __ZN5folly6detail12_GLOBAL__N_14joinENS1_8PtrRangeE, symObjAddr: 0x338, symBinAddr: 0x374D0, symSize: 0x1AC }
  - { offset: 0x1F16CC, size: 0x8, addend: 0x0, symName: __ZN5folly6detail12_GLOBAL__N_16renderINS0_14UniqueInstance5ValueEEENSt3__112basic_stringIcNS5_11char_traitsIcEENS5_9allocatorIcEEEET_, symObjAddr: 0x4E4, symBinAddr: 0x3767C, symSize: 0x27C }
  - { offset: 0x1F2421, size: 0x8, addend: 0x0, symName: __ZN5folly6detail12_GLOBAL__N_124parse_demangled_tag_nameENSt3__117basic_string_viewIcNS2_11char_traitsIcEEEE, symObjAddr: 0x824, symBinAddr: 0x378F8, symSize: 0xB0 }
  - { offset: 0x1F3C95, size: 0x8, addend: 0x0, symName: __ZN5follylsIcNSt3__111char_traitsIcEENS1_9allocatorIcEENS_13fbstring_coreIcEEEERNS1_13basic_ostreamINS_14basic_fbstringIT_T0_T1_T2_E10value_typeENSE_11traits_typeEEESI_RKSE_, symObjAddr: 0x10BC, symBinAddr: 0x37A1C, symSize: 0x154 }
  - { offset: 0x1F4A36, size: 0x8, addend: 0x0, symName: __ZN5folly6detail14UniqueInstance7enforceERNS1_3ArgE, symObjAddr: 0x0, symBinAddr: 0x371DC, symSize: 0x244 }
  - { offset: 0x1F618B, size: 0x8, addend: 0x0, symName: __ZNSt3__120__throw_out_of_rangeB8ne200100EPKc, symObjAddr: 0xEC8, symBinAddr: 0x379A8, symSize: 0x50 }
  - { offset: 0x1F62EF, size: 0x8, addend: 0x0, symName: __ZNSt12out_of_rangeC1B8ne200100EPKc, symObjAddr: 0xF18, symBinAddr: 0x379F8, symSize: 0x24 }
...
