---
triple:          'arm64-apple-darwin'
binary-path:     '/Users/uk-aplatts/Development/InjuryIQ/ios/DerivedData/Build/Intermediates.noindex/ArchiveIntermediates/InjuryIQ/IntermediateBuildFilesPath/UninstalledProducts/iphoneos/react_native_safe_area_context.framework/react_native_safe_area_context'
relocations:
  - { offset: 0x968D3, size: 0x8, addend: 0x0, symName: _react_native_safe_area_contextVersionString, symObjAddr: 0x0, symBinAddr: 0xF410, symSize: 0x0 }
  - { offset: 0x96908, size: 0x8, addend: 0x0, symName: _react_native_safe_area_contextVersionNumber, symObjAddr: 0x40, symBinAddr: 0xF450, symSize: 0x0 }
  - { offset: 0x96945, size: 0x8, addend: 0x0, symName: '-[RNCOnInsetsChangeEvent initWithEventName:reactTag:insets:frame:coalescingKey:]', symObjAddr: 0x0, symBinAddr: 0x4000, symSize: 0xF0 }
  - { offset: 0x969B9, size: 0x8, addend: 0x0, symName: '-[RNCOnInsetsChangeEvent initWithEventName:reactTag:insets:frame:coalescingKey:]', symObjAddr: 0x0, symBinAddr: 0x4000, symSize: 0xF0 }
  - { offset: 0x96A40, size: 0x8, addend: 0x0, symName: '-[RNCOnInsetsChangeEvent init]', symObjAddr: 0xF0, symBinAddr: 0x40F0, symSize: 0x2C }
  - { offset: 0x96AD3, size: 0x8, addend: 0x0, symName: '-[RNCOnInsetsChangeEvent coalescingKey]', symObjAddr: 0x11C, symBinAddr: 0x411C, symSize: 0x8 }
  - { offset: 0x96B0A, size: 0x8, addend: 0x0, symName: '-[RNCOnInsetsChangeEvent body]', symObjAddr: 0x124, symBinAddr: 0x4124, symSize: 0x23C }
  - { offset: 0x96B51, size: 0x8, addend: 0x0, symName: '-[RNCOnInsetsChangeEvent canCoalesce]', symObjAddr: 0x360, symBinAddr: 0x4360, symSize: 0x8 }
  - { offset: 0x96B84, size: 0x8, addend: 0x0, symName: '-[RNCOnInsetsChangeEvent coalesceWithEvent:]', symObjAddr: 0x368, symBinAddr: 0x4368, symSize: 0x8 }
  - { offset: 0x96B9E, size: 0x8, addend: 0x0, symName: '+[RNCOnInsetsChangeEvent moduleDotMethod]', symObjAddr: 0x370, symBinAddr: 0x4370, symSize: 0xC }
  - { offset: 0x96BD1, size: 0x8, addend: 0x0, symName: '-[RNCOnInsetsChangeEvent arguments]', symObjAddr: 0x37C, symBinAddr: 0x437C, symSize: 0xD4 }
  - { offset: 0x96C28, size: 0x8, addend: 0x0, symName: '-[RNCOnInsetsChangeEvent eventName]', symObjAddr: 0x450, symBinAddr: 0x4450, symSize: 0x8 }
  - { offset: 0x96C5F, size: 0x8, addend: 0x0, symName: '-[RNCOnInsetsChangeEvent viewTag]', symObjAddr: 0x458, symBinAddr: 0x4458, symSize: 0x8 }
  - { offset: 0x96C96, size: 0x8, addend: 0x0, symName: '-[RNCOnInsetsChangeEvent .cxx_destruct]', symObjAddr: 0x460, symBinAddr: 0x4460, symSize: 0x30 }
  - { offset: 0x96D2C, size: 0x8, addend: 0x0, symName: '+[RNCSafeAreaContext moduleName]', symObjAddr: 0x0, symBinAddr: 0x4490, symSize: 0xC }
  - { offset: 0xA6869, size: 0x8, addend: 0x0, symName: __ZNSt3__115allocate_sharedB8ne200100IN8facebook5react28NativeSafeAreaContextSpecJSIENS_9allocatorIS3_EEJRKNS2_15ObjCTurboModule10InitParamsEELi0EEENS_10shared_ptrIT_EERKT0_DpOT1_, symObjAddr: 0x54C, symBinAddr: 0x49DC, symSize: 0x58 }
  - { offset: 0xA9745, size: 0x8, addend: 0x0, symName: '+[RNCSafeAreaContext moduleName]', symObjAddr: 0x0, symBinAddr: 0x4490, symSize: 0xC }
  - { offset: 0xA9778, size: 0x8, addend: 0x0, symName: '+[RNCSafeAreaContext load]', symObjAddr: 0xC, symBinAddr: 0x449C, symSize: 0x4 }
  - { offset: 0xA97AC, size: 0x8, addend: 0x0, symName: '+[RNCSafeAreaContext load]', symObjAddr: 0xC, symBinAddr: 0x449C, symSize: 0x4 }
  - { offset: 0xA97CE, size: 0x8, addend: 0x0, symName: '+[RNCSafeAreaContext requiresMainQueueSetup]', symObjAddr: 0x10, symBinAddr: 0x44A0, symSize: 0x8 }
  - { offset: 0xA9801, size: 0x8, addend: 0x0, symName: '-[RNCSafeAreaContext constantsToExport]', symObjAddr: 0x18, symBinAddr: 0x44A8, symSize: 0x4 }
  - { offset: 0xA9836, size: 0x8, addend: 0x0, symName: '-[RNCSafeAreaContext getConstants]', symObjAddr: 0x1C, symBinAddr: 0x44AC, symSize: 0xCC }
  - { offset: 0xA9913, size: 0x8, addend: 0x0, symName: ___Block_byref_object_copy_, symObjAddr: 0xE8, symBinAddr: 0x4578, symSize: 0x10 }
  - { offset: 0xA9938, size: 0x8, addend: 0x0, symName: ___Block_byref_object_dispose_, symObjAddr: 0xF8, symBinAddr: 0x4588, symSize: 0x8 }
  - { offset: 0xA9957, size: 0x8, addend: 0x0, symName: '___34-[RNCSafeAreaContext getConstants]_block_invoke', symObjAddr: 0x100, symBinAddr: 0x4590, symSize: 0x3F4 }
  - { offset: 0xAB20E, size: 0x8, addend: 0x0, symName: ___copy_helper_block_ea8_32r, symObjAddr: 0x4F4, symBinAddr: 0x4984, symSize: 0x10 }
  - { offset: 0xAB237, size: 0x8, addend: 0x0, symName: ___destroy_helper_block_ea8_32r, symObjAddr: 0x504, symBinAddr: 0x4994, symSize: 0xC }
  - { offset: 0xAB31D, size: 0x8, addend: 0x0, symName: '-[RNCSafeAreaContext getTurboModule:]', symObjAddr: 0x510, symBinAddr: 0x49A0, symSize: 0x3C }
  - { offset: 0xAB641, size: 0x8, addend: 0x0, symName: __ZNSt3__120__shared_ptr_emplaceIN8facebook5react28NativeSafeAreaContextSpecJSIENS_9allocatorIS3_EEEC2B8ne200100IJRKNS2_15ObjCTurboModule10InitParamsEES5_Li0EEES5_DpOT_, symObjAddr: 0x5A4, symBinAddr: 0x4A34, symSize: 0x4C }
  - { offset: 0xAB817, size: 0x8, addend: 0x0, symName: __ZNSt3__120__shared_ptr_emplaceIN8facebook5react28NativeSafeAreaContextSpecJSIENS_9allocatorIS3_EEED1Ev, symObjAddr: 0x5F0, symBinAddr: 0x4A80, symSize: 0x14 }
  - { offset: 0xAB83B, size: 0x8, addend: 0x0, symName: __ZNSt3__120__shared_ptr_emplaceIN8facebook5react28NativeSafeAreaContextSpecJSIENS_9allocatorIS3_EEED1Ev, symObjAddr: 0x5F0, symBinAddr: 0x4A80, symSize: 0x14 }
  - { offset: 0xAB872, size: 0x8, addend: 0x0, symName: __ZNSt3__120__shared_ptr_emplaceIN8facebook5react28NativeSafeAreaContextSpecJSIENS_9allocatorIS3_EEED0Ev, symObjAddr: 0x604, symBinAddr: 0x4A94, symSize: 0x24 }
  - { offset: 0xAB948, size: 0x8, addend: 0x0, symName: __ZNSt3__120__shared_ptr_emplaceIN8facebook5react28NativeSafeAreaContextSpecJSIENS_9allocatorIS3_EEE16__on_zero_sharedEv, symObjAddr: 0x628, symBinAddr: 0x4AB8, symSize: 0xC }
  - { offset: 0xAB972, size: 0x8, addend: 0x0, symName: __ZNSt3__120__shared_ptr_emplaceIN8facebook5react28NativeSafeAreaContextSpecJSIENS_9allocatorIS3_EEE16__on_zero_sharedEv, symObjAddr: 0x628, symBinAddr: 0x4AB8, symSize: 0xC }
  - { offset: 0xAB991, size: 0x8, addend: 0x0, symName: __ZNSt3__120__shared_ptr_emplaceIN8facebook5react28NativeSafeAreaContextSpecJSIENS_9allocatorIS3_EEE16__on_zero_sharedEv, symObjAddr: 0x628, symBinAddr: 0x4AB8, symSize: 0xC }
  - { offset: 0xAB9B0, size: 0x8, addend: 0x0, symName: __ZNSt3__120__shared_ptr_emplaceIN8facebook5react28NativeSafeAreaContextSpecJSIENS_9allocatorIS3_EEE16__on_zero_sharedEv, symObjAddr: 0x628, symBinAddr: 0x4AB8, symSize: 0xC }
  - { offset: 0xAB9DC, size: 0x8, addend: 0x0, symName: __ZNSt3__120__shared_ptr_emplaceIN8facebook5react28NativeSafeAreaContextSpecJSIENS_9allocatorIS3_EEE21__on_zero_shared_weakEv, symObjAddr: 0x634, symBinAddr: 0x4AC4, symSize: 0x4 }
  - { offset: 0xABA10, size: 0x8, addend: 0x0, symName: __ZNSt3__120__shared_ptr_emplaceIN8facebook5react28NativeSafeAreaContextSpecJSIENS_9allocatorIS3_EEE21__on_zero_shared_weakEv, symObjAddr: 0x634, symBinAddr: 0x4AC4, symSize: 0x4 }
  - { offset: 0xABA34, size: 0x8, addend: 0x0, symName: __ZNSt3__120__shared_ptr_emplaceIN8facebook5react28NativeSafeAreaContextSpecJSIENS_9allocatorIS3_EEE21__on_zero_shared_weakEv, symObjAddr: 0x634, symBinAddr: 0x4AC4, symSize: 0x4 }
  - { offset: 0xABA59, size: 0x8, addend: 0x0, symName: __ZNSt3__120__shared_ptr_emplaceIN8facebook5react28NativeSafeAreaContextSpecJSIENS_9allocatorIS3_EEE21__on_zero_shared_weakEv, symObjAddr: 0x634, symBinAddr: 0x4AC4, symSize: 0x4 }
  - { offset: 0xABA91, size: 0x8, addend: 0x0, symName: __ZNSt3__120__shared_ptr_emplaceIN8facebook5react28NativeSafeAreaContextSpecJSIENS_9allocatorIS3_EEE21__on_zero_shared_weakEv, symObjAddr: 0x634, symBinAddr: 0x4AC4, symSize: 0x4 }
  - { offset: 0xADF6B, size: 0x8, addend: 0x0, symName: '-[RNCSafeAreaProvider initWithEventDispatcher:]', symObjAddr: 0x0, symBinAddr: 0x4AC8, symSize: 0x15C }
  - { offset: 0xAE01A, size: 0x8, addend: 0x0, symName: '-[RNCSafeAreaProvider initWithEventDispatcher:]', symObjAddr: 0x0, symBinAddr: 0x4AC8, symSize: 0x15C }
  - { offset: 0xAE061, size: 0x8, addend: 0x0, symName: '-[RNCSafeAreaProvider safeAreaInsetsDidChange]', symObjAddr: 0x15C, symBinAddr: 0x4C24, symSize: 0x4 }
  - { offset: 0xAE092, size: 0x8, addend: 0x0, symName: '-[RNCSafeAreaProvider invalidateSafeAreaInsets]', symObjAddr: 0x160, symBinAddr: 0x4C28, symSize: 0x258 }
  - { offset: 0xAE197, size: 0x8, addend: 0x0, symName: '-[RNCSafeAreaProvider layoutSubviews]', symObjAddr: 0x3B8, symBinAddr: 0x4E80, symSize: 0x48 }
  - { offset: 0xAE1CA, size: 0x8, addend: 0x0, symName: '-[RNCSafeAreaProvider initWithFrame:]', symObjAddr: 0x400, symBinAddr: 0x4EC8, symSize: 0x2C }
  - { offset: 0xAE25F, size: 0x8, addend: 0x0, symName: '-[RNCSafeAreaProvider initWithCoder:]', symObjAddr: 0x42C, symBinAddr: 0x4EF4, symSize: 0x38 }
  - { offset: 0xAE2C0, size: 0x8, addend: 0x0, symName: '-[RNCSafeAreaProvider dealloc]', symObjAddr: 0x464, symBinAddr: 0x4F2C, symSize: 0x8C }
  - { offset: 0xAE2F3, size: 0x8, addend: 0x0, symName: '-[RNCSafeAreaProvider onInsetsChange]', symObjAddr: 0x4F0, symBinAddr: 0x4FB8, symSize: 0x10 }
  - { offset: 0xAE32A, size: 0x8, addend: 0x0, symName: '-[RNCSafeAreaProvider setOnInsetsChange:]', symObjAddr: 0x500, symBinAddr: 0x4FC8, symSize: 0xC }
  - { offset: 0xAE369, size: 0x8, addend: 0x0, symName: '-[RNCSafeAreaProvider .cxx_destruct]', symObjAddr: 0x50C, symBinAddr: 0x4FD4, symSize: 0x40 }
  - { offset: 0xAE45B, size: 0x8, addend: 0x0, symName: __ZN8facebook5react17HostPlatformColorL14UndefinedColorE, symObjAddr: 0x16E1F8, symBinAddr: 0x19D18, symSize: 0x0 }
  - { offset: 0xB46FB, size: 0x8, addend: 0x0, symName: __ZN8facebook5react38concreteComponentDescriptorConstructorINS0_27ConcreteComponentDescriptorINS0_22ConcreteViewShadowNodeIXadL_ZNS0_32RNCSafeAreaProviderComponentNameEEENS0_24RNCSafeAreaProviderPropsENS0_31RNCSafeAreaProviderEventEmitterENS0_9StateDataEEEEEEENSt3__110unique_ptrIKNS0_19ComponentDescriptorENS9_14default_deleteISC_EEEERKNS0_29ComponentDescriptorParametersE, symObjAddr: 0x15C0, symBinAddr: 0x6524, symSize: 0x34 }
  - { offset: 0xE83F3, size: 0x8, addend: 0x0, symName: __ZNSt3__115allocate_sharedB8ne200100IKN8facebook5react24RNCSafeAreaProviderPropsENS_9allocatorIS3_EEJELi0EEENS_10shared_ptrIT_EERKT0_DpOT1_, symObjAddr: 0x720, symBinAddr: 0x5734, symSize: 0x48 }
  - { offset: 0xE94D4, size: 0x8, addend: 0x0, symName: __ZNSt3__112__destroy_atB8ne200100IN8facebook5react19AccessibilityActionELi0EEEvPT_, symObjAddr: 0x1320, symBinAddr: 0x6334, symSize: 0x50 }
  - { offset: 0xE9B1A, size: 0x8, addend: 0x0, symName: __ZNSt3__111make_uniqueB8ne200100IKN8facebook5react27ConcreteComponentDescriptorINS2_22ConcreteViewShadowNodeIXadL_ZNS2_32RNCSafeAreaProviderComponentNameEEENS2_24RNCSafeAreaProviderPropsENS2_31RNCSafeAreaProviderEventEmitterENS2_9StateDataEEEEEJRKNS2_29ComponentDescriptorParametersEELi0EEENS_10unique_ptrIT_NS_14default_deleteISF_EEEEDpOT0_, symObjAddr: 0x15F4, symBinAddr: 0x6558, symSize: 0xD4 }
  - { offset: 0xEA531, size: 0x8, addend: 0x0, symName: __ZNSt3__115allocate_sharedB8ne200100IN8facebook5react22ConcreteViewShadowNodeIXadL_ZNS2_32RNCSafeAreaProviderComponentNameEEENS2_24RNCSafeAreaProviderPropsENS2_31RNCSafeAreaProviderEventEmitterENS2_9StateDataEEENS_9allocatorIS7_EEJRKNS2_18ShadowNodeFragmentERKNS_10shared_ptrIKNS2_16ShadowNodeFamilyEEENS2_16ShadowNodeTraitsEELi0EEENSD_IT_EERKT0_DpOT1_, symObjAddr: 0x210C, symBinAddr: 0x6FB8, symSize: 0x70 }
  - { offset: 0xEA870, size: 0x8, addend: 0x0, symName: __ZNSt3__115allocate_sharedB8ne200100IN8facebook5react22ConcreteViewShadowNodeIXadL_ZNS2_32RNCSafeAreaProviderComponentNameEEENS2_24RNCSafeAreaProviderPropsENS2_31RNCSafeAreaProviderEventEmitterENS2_9StateDataEEENS_9allocatorIS7_EEJRKNS2_10ShadowNodeERKNS2_18ShadowNodeFragmentEELi0EEENS_10shared_ptrIT_EERKT0_DpOT1_, symObjAddr: 0x26C8, symBinAddr: 0x7364, symSize: 0x60 }
  - { offset: 0xEB08A, size: 0x8, addend: 0x0, symName: __ZNSt3__115allocate_sharedB8ne200100IN8facebook5react11EventTargetENS_9allocatorIS3_EEJRKNS_10shared_ptrIKNS2_14InstanceHandleEEERKiELi0EEENS6_IT_EERKT0_DpOT1_, symObjAddr: 0x30A8, symBinAddr: 0x7B48, symSize: 0x60 }
  - { offset: 0xEB350, size: 0x8, addend: 0x0, symName: __ZNSt3__115allocate_sharedB8ne200100IKN8facebook5react31RNCSafeAreaProviderEventEmitterENS_9allocatorIS3_EEJNS_10shared_ptrINS2_11EventTargetEEERKNS_8weak_ptrIKNS2_15EventDispatcherEEEELi0EEENS7_IT_EERKT0_DpOT1_, symObjAddr: 0x2C40, symBinAddr: 0x7790, symSize: 0x60 }
  - { offset: 0xEB616, size: 0x8, addend: 0x0, symName: __ZNSt3__115allocate_sharedB8ne200100IN8facebook5react16ShadowNodeFamilyENS_9allocatorIS3_EEJRKNS2_24ShadowNodeFamilyFragmentERNS_10shared_ptrIKNS2_31RNCSafeAreaProviderEventEmitterEEERKNS_8weak_ptrIKNS2_15EventDispatcherEEERKNS2_27ConcreteComponentDescriptorINS2_22ConcreteViewShadowNodeIXadL_ZNS2_32RNCSafeAreaProviderComponentNameEEENS2_24RNCSafeAreaProviderPropsESA_NS2_9StateDataEEEEEELi0EEENS9_IT_EERKT0_DpOT1_, symObjAddr: 0x330C, symBinAddr: 0x7CFC, symSize: 0x78 }
  - { offset: 0xEBA76, size: 0x8, addend: 0x0, symName: __ZNSt3__112__destroy_atB8ne200100INS_4pairIKNS_12basic_stringIcNS_11char_traitsIcEENS_9allocatorIcEEEENS_10shared_ptrIvEEEELi0EEEvPT_, symObjAddr: 0x1EC8, symBinAddr: 0x6E2C, symSize: 0x3C }
  - { offset: 0xEC5C5, size: 0x8, addend: 0x0, symName: __ZNSt3__115allocate_sharedB8ne200100IN8facebook5react24RNCSafeAreaProviderPropsENS_9allocatorIS3_EEJRKNS2_18PropsParserContextERKS3_RKNS2_8RawPropsEELi0EEENS_10shared_ptrIT_EERKT0_DpOT1_, symObjAddr: 0x28D8, symBinAddr: 0x751C, symSize: 0x70 }
  - { offset: 0xECE5B, size: 0x8, addend: 0x0, symName: __ZNSt3__120__throw_length_errorB8ne200100EPKc, symObjAddr: 0x2B74, symBinAddr: 0x771C, symSize: 0x50 }
  - { offset: 0xED330, size: 0x8, addend: 0x0, symName: __ZNSt3__112construct_atB8ne200100IN8facebook5react31RNCSafeAreaProviderEventEmitterEJNS_10shared_ptrINS2_11EventTargetEEERKNS_8weak_ptrIKNS2_15EventDispatcherEEEEPS3_EEPT_SF_DpOT0_, symObjAddr: 0x2D34, symBinAddr: 0x7884, symSize: 0x140 }
  - { offset: 0xEE330, size: 0x8, addend: 0x0, symName: __ZNSt3__112construct_atB8ne200100IN8facebook5react11EventTargetEJRKNS_10shared_ptrIKNS2_14InstanceHandleEEERKiEPS3_EEPT_SE_DpOT0_, symObjAddr: 0x31B8, symBinAddr: 0x7C58, symSize: 0xA4 }
  - { offset: 0xEEA32, size: 0x8, addend: 0x0, symName: __ZNSt3__112construct_atB8ne200100IN8facebook5react16ShadowNodeFamilyEJRKNS2_24ShadowNodeFamilyFragmentERNS_10shared_ptrIKNS2_31RNCSafeAreaProviderEventEmitterEEERKNS_8weak_ptrIKNS2_15EventDispatcherEEERKNS2_27ConcreteComponentDescriptorINS2_22ConcreteViewShadowNodeIXadL_ZNS2_32RNCSafeAreaProviderComponentNameEEENS2_24RNCSafeAreaProviderPropsES8_NS2_9StateDataEEEEEEPS3_EEPT_SS_DpOT0_, symObjAddr: 0x3414, symBinAddr: 0x7E04, symSize: 0xDC }
  - { offset: 0xF044C, size: 0x8, addend: 0x0, symName: '-[RNCSafeAreaProviderComponentView initWithFrame:]', symObjAddr: 0x34, symBinAddr: 0x5048, symSize: 0xDC }
  - { offset: 0xF0476, size: 0x8, addend: 0x0, symName: '__ZZ50-[RNCSafeAreaProviderComponentView initWithFrame:]E12defaultProps', symObjAddr: 0x16E210, symBinAddr: 0x19D30, symSize: 0x0 }
  - { offset: 0xF36EE, size: 0x8, addend: 0x0, symName: __ZN5folly6detail16throw_exception_INS_9TypeErrorEJPKcNS_7dynamic4TypeEEEEvDpT0_, symObjAddr: 0x29E4, symBinAddr: 0xDECC, symSize: 0x68 }
  - { offset: 0xF48A3, size: 0x8, addend: 0x0, symName: __ZN5folly15throw_exceptionINS_9TypeErrorEEEvOT_, symObjAddr: 0x2A4C, symBinAddr: 0xDF34, symSize: 0x34 }
  - { offset: 0xF829F, size: 0x8, addend: 0x0, symName: __ZN8facebook5react18ConcreteShadowNodeIXadL_ZNS0_32RNCSafeAreaProviderComponentNameEEENS0_24YogaLayoutableShadowNodeENS0_24RNCSafeAreaProviderPropsENS0_31RNCSafeAreaProviderEventEmitterENS0_9StateDataEE18defaultSharedPropsEv, symObjAddr: 0x27E4, symBinAddr: 0x7428, symSize: 0x9C }
  - { offset: 0xF82BF, size: 0x8, addend: 0x0, symName: __ZZN8facebook5react18ConcreteShadowNodeIXadL_ZNS0_32RNCSafeAreaProviderComponentNameEEENS0_24YogaLayoutableShadowNodeENS0_24RNCSafeAreaProviderPropsENS0_31RNCSafeAreaProviderEventEmitterENS0_9StateDataEE18defaultSharedPropsEvE18defaultSharedProps, symObjAddr: 0x4400, symBinAddr: 0x19C88, symSize: 0x0 }
  - { offset: 0xF86DB, size: 0x8, addend: 0x0, symName: '+[RNCSafeAreaProviderComponentView load]', symObjAddr: 0x0, symBinAddr: 0x5014, symSize: 0x34 }
  - { offset: 0xF870E, size: 0x8, addend: 0x0, symName: __ZNSt3__110shared_ptrIKN8facebook5react13BaseViewPropsEEaSB8ne200100IKNS2_24RNCSafeAreaProviderPropsELi0EEERS5_RKNS0_IT_EE, symObjAddr: 0x114, symBinAddr: 0x5128, symSize: 0x78 }
  - { offset: 0xF88E9, size: 0x8, addend: 0x0, symName: __ZNSt3__110shared_ptrIKN8facebook5react24RNCSafeAreaProviderPropsEED1B8ne200100Ev, symObjAddr: 0x110, symBinAddr: 0x5124, symSize: 0x4 }
  - { offset: 0xF8915, size: 0x8, addend: 0x0, symName: __ZNSt3__110shared_ptrIKN8facebook5react24RNCSafeAreaProviderPropsEED1B8ne200100Ev, symObjAddr: 0x110, symBinAddr: 0x5124, symSize: 0x4 }
  - { offset: 0xF8ABF, size: 0x8, addend: 0x0, symName: '-[RNCSafeAreaProviderComponentView willMoveToSuperview:]', symObjAddr: 0x18C, symBinAddr: 0x51A0, symSize: 0x84 }
  - { offset: 0xF8B02, size: 0x8, addend: 0x0, symName: '-[RNCSafeAreaProviderComponentView registerNotifications]', symObjAddr: 0x210, symBinAddr: 0x5224, symSize: 0xEC }
  - { offset: 0xF8B35, size: 0x8, addend: 0x0, symName: '-[RNCSafeAreaProviderComponentView safeAreaInsetsDidChange]', symObjAddr: 0x2FC, symBinAddr: 0x5310, symSize: 0x4 }
  - { offset: 0xF8C4C, size: 0x8, addend: 0x0, symName: '-[RNCSafeAreaProviderComponentView invalidateSafeAreaInsets]', symObjAddr: 0x300, symBinAddr: 0x5314, symSize: 0x2EC }
  - { offset: 0xF8FAA, size: 0x8, addend: 0x0, symName: '-[RNCSafeAreaProviderComponentView layoutSubviews]', symObjAddr: 0x5EC, symBinAddr: 0x5600, symSize: 0x48 }
  - { offset: 0xF9079, size: 0x8, addend: 0x0, symName: '+[RNCSafeAreaProviderComponentView componentDescriptorProvider]', symObjAddr: 0x634, symBinAddr: 0x5648, symSize: 0x20 }
  - { offset: 0xF90AF, size: 0x8, addend: 0x0, symName: '+[RNCSafeAreaProviderComponentView componentDescriptorProvider]', symObjAddr: 0x634, symBinAddr: 0x5648, symSize: 0x20 }
  - { offset: 0xF9112, size: 0x8, addend: 0x0, symName: '-[RNCSafeAreaProviderComponentView prepareForRecycle]', symObjAddr: 0x654, symBinAddr: 0x5668, symSize: 0xC0 }
  - { offset: 0xF9145, size: 0x8, addend: 0x0, symName: __Z22RNCSafeAreaProviderClsv, symObjAddr: 0x714, symBinAddr: 0x5728, symSize: 0xC }
  - { offset: 0xF93A5, size: 0x8, addend: 0x0, symName: __ZNSt3__120__shared_ptr_emplaceIKN8facebook5react24RNCSafeAreaProviderPropsENS_9allocatorIS3_EEEC2B8ne200100IJES6_Li0EEES6_DpOT_, symObjAddr: 0x768, symBinAddr: 0x577C, symSize: 0x74 }
  - { offset: 0xF955C, size: 0x8, addend: 0x0, symName: __ZN8facebook5react13BaseViewPropsC2Ev, symObjAddr: 0x82C, symBinAddr: 0x5840, symSize: 0x2E4 }
  - { offset: 0xFBDA8, size: 0x8, addend: 0x0, symName: __ZNSt3__120__shared_ptr_emplaceIKN8facebook5react24RNCSafeAreaProviderPropsENS_9allocatorIS3_EEED1Ev, symObjAddr: 0x7DC, symBinAddr: 0x57F0, symSize: 0x14 }
  - { offset: 0xFBDCC, size: 0x8, addend: 0x0, symName: __ZNSt3__120__shared_ptr_emplaceIKN8facebook5react24RNCSafeAreaProviderPropsENS_9allocatorIS3_EEED1Ev, symObjAddr: 0x7DC, symBinAddr: 0x57F0, symSize: 0x14 }
  - { offset: 0xFBE03, size: 0x8, addend: 0x0, symName: __ZNSt3__120__shared_ptr_emplaceIKN8facebook5react24RNCSafeAreaProviderPropsENS_9allocatorIS3_EEED0Ev, symObjAddr: 0x7F0, symBinAddr: 0x5804, symSize: 0x24 }
  - { offset: 0xFBF1B, size: 0x8, addend: 0x0, symName: __ZNSt3__120__shared_ptr_emplaceIKN8facebook5react24RNCSafeAreaProviderPropsENS_9allocatorIS3_EEE16__on_zero_sharedEv, symObjAddr: 0x814, symBinAddr: 0x5828, symSize: 0x14 }
  - { offset: 0xFBF45, size: 0x8, addend: 0x0, symName: __ZNSt3__120__shared_ptr_emplaceIKN8facebook5react24RNCSafeAreaProviderPropsENS_9allocatorIS3_EEE16__on_zero_sharedEv, symObjAddr: 0x814, symBinAddr: 0x5828, symSize: 0x14 }
  - { offset: 0xFBFD2, size: 0x8, addend: 0x0, symName: __ZN8facebook5react13BaseViewPropsD2Ev, symObjAddr: 0x1440, symBinAddr: 0x6454, symSize: 0xD0 }
  - { offset: 0xFC7F0, size: 0x8, addend: 0x0, symName: __ZNSt3__120__shared_ptr_emplaceIKN8facebook5react24RNCSafeAreaProviderPropsENS_9allocatorIS3_EEE21__on_zero_shared_weakEv, symObjAddr: 0x828, symBinAddr: 0x583C, symSize: 0x4 }
  - { offset: 0xFC824, size: 0x8, addend: 0x0, symName: __ZNSt3__120__shared_ptr_emplaceIKN8facebook5react24RNCSafeAreaProviderPropsENS_9allocatorIS3_EEE21__on_zero_shared_weakEv, symObjAddr: 0x828, symBinAddr: 0x583C, symSize: 0x4 }
  - { offset: 0xFC848, size: 0x8, addend: 0x0, symName: __ZNSt3__120__shared_ptr_emplaceIKN8facebook5react24RNCSafeAreaProviderPropsENS_9allocatorIS3_EEE21__on_zero_shared_weakEv, symObjAddr: 0x828, symBinAddr: 0x583C, symSize: 0x4 }
  - { offset: 0xFC86D, size: 0x8, addend: 0x0, symName: __ZNSt3__120__shared_ptr_emplaceIKN8facebook5react24RNCSafeAreaProviderPropsENS_9allocatorIS3_EEE21__on_zero_shared_weakEv, symObjAddr: 0x828, symBinAddr: 0x583C, symSize: 0x4 }
  - { offset: 0xFC8A5, size: 0x8, addend: 0x0, symName: __ZNSt3__120__shared_ptr_emplaceIKN8facebook5react24RNCSafeAreaProviderPropsENS_9allocatorIS3_EEE21__on_zero_shared_weakEv, symObjAddr: 0x828, symBinAddr: 0x583C, symSize: 0x4 }
  - { offset: 0xFD1B6, size: 0x8, addend: 0x0, symName: __ZN8facebook5react17YogaStylablePropsC2Ev, symObjAddr: 0xCA8, symBinAddr: 0x5CBC, symSize: 0xF0 }
  - { offset: 0xFD1EE, size: 0x8, addend: 0x0, symName: __ZN8facebook5react17YogaStylablePropsC2Ev, symObjAddr: 0xCA8, symBinAddr: 0x5CBC, symSize: 0xF0 }
  - { offset: 0xFDC2A, size: 0x8, addend: 0x0, symName: __ZN8facebook5react13BaseViewPropsD1Ev, symObjAddr: 0xB10, symBinAddr: 0x5B24, symSize: 0xC }
  - { offset: 0xFDC83, size: 0x8, addend: 0x0, symName: __ZN8facebook5react13BaseViewPropsD0Ev, symObjAddr: 0xB1C, symBinAddr: 0x5B30, symSize: 0x1C }
  - { offset: 0xFDF1E, size: 0x8, addend: 0x0, symName: __ZN8facebook5react17YogaStylablePropsD1Ev, symObjAddr: 0xB38, symBinAddr: 0x5B4C, symSize: 0x60 }
  - { offset: 0xFE1D7, size: 0x8, addend: 0x0, symName: __ZNKSt3__114default_deleteIN8facebook4yoga16SmallValueBufferILm4EE8OverflowEEclB8ne200100EPS5_, symObjAddr: 0x13FC, symBinAddr: 0x6410, symSize: 0x44 }
  - { offset: 0xFE47B, size: 0x8, addend: 0x0, symName: __ZN8facebook5react17YogaStylablePropsD0Ev, symObjAddr: 0xB98, symBinAddr: 0x5BAC, symSize: 0x60 }
  - { offset: 0xFE75C, size: 0x8, addend: 0x0, symName: __ZN8facebook5react5PropsD1Ev, symObjAddr: 0xBF8, symBinAddr: 0x5C0C, symSize: 0x40 }
  - { offset: 0xFE8D0, size: 0x8, addend: 0x0, symName: __ZN8facebook5react5PropsD0Ev, symObjAddr: 0xC38, symBinAddr: 0x5C4C, symSize: 0x40 }
  - { offset: 0xFEA50, size: 0x8, addend: 0x0, symName: __ZN8facebook5react24RNCSafeAreaProviderPropsD1Ev, symObjAddr: 0xC78, symBinAddr: 0x5C8C, symSize: 0x10 }
  - { offset: 0xFEA74, size: 0x8, addend: 0x0, symName: __ZN8facebook5react24RNCSafeAreaProviderPropsD1Ev, symObjAddr: 0xC78, symBinAddr: 0x5C8C, symSize: 0x10 }
  - { offset: 0xFEAB0, size: 0x8, addend: 0x0, symName: __ZN8facebook5react24RNCSafeAreaProviderPropsD0Ev, symObjAddr: 0xC88, symBinAddr: 0x5C9C, symSize: 0x20 }
  - { offset: 0xFEF75, size: 0x8, addend: 0x0, symName: __ZN8facebook5react18AccessibilityPropsD2Ev, symObjAddr: 0xD98, symBinAddr: 0x5DAC, symSize: 0xD4 }
  - { offset: 0xFFAEF, size: 0x8, addend: 0x0, symName: __ZNSt3__16vectorIN8facebook5react19AccessibilityActionENS_9allocatorIS3_EEE16__destroy_vectorclB8ne200100Ev, symObjAddr: 0x12B0, symBinAddr: 0x62C4, symSize: 0x70 }
  - { offset: 0xFFC42, size: 0x8, addend: 0x0, symName: __ZNSt3__16vectorINS_12basic_stringIcNS_11char_traitsIcEENS_9allocatorIcEEEENS4_IS6_EEE16__destroy_vectorclB8ne200100Ev, symObjAddr: 0x1370, symBinAddr: 0x6384, symSize: 0x40 }
  - { offset: 0xFFF5F, size: 0x8, addend: 0x0, symName: __ZNSt3__16vectorINS_7variantIJN8facebook5react14LinearGradientENS3_14RadialGradientEEEENS_9allocatorIS6_EEE16__destroy_vectorclB8ne200100Ev, symObjAddr: 0xE7C, symBinAddr: 0x5E90, symSize: 0x70 }
  - { offset: 0x100226, size: 0x8, addend: 0x0, symName: __ZNSt3__116__variant_detail6__dtorINS0_8__traitsIJN8facebook5react14LinearGradientENS4_14RadialGradientEEEELNS0_6_TraitE1EE9__destroyB8ne200100Ev, symObjAddr: 0xEEC, symBinAddr: 0x5F00, symSize: 0x54 }
  - { offset: 0x1005DE, size: 0x8, addend: 0x0, symName: __ZNSt3__116__variant_detail12__visitation6__base12__dispatcherIJLm0EEE10__dispatchB8ne200100IOZNS0_6__dtorINS0_8__traitsIJN8facebook5react14LinearGradientENS9_14RadialGradientEEEELNS0_6_TraitE1EE9__destroyB8ne200100EvEUlRT_E_JRNS0_6__baseILSD_1EJSA_SB_EEEEEEDcSF_DpT0_, symObjAddr: 0xF40, symBinAddr: 0x5F54, symSize: 0x28 }
  - { offset: 0x100789, size: 0x8, addend: 0x0, symName: __ZNSt3__16vectorIN8facebook5react9ColorStopENS_9allocatorIS3_EEE16__destroy_vectorclB8ne200100Ev, symObjAddr: 0xF90, symBinAddr: 0x5FA4, symSize: 0x70 }
  - { offset: 0x100A83, size: 0x8, addend: 0x0, symName: __ZNSt3__116__variant_detail12__visitation6__base12__dispatcherIJLm1EEE10__dispatchB8ne200100IOZNS0_6__dtorINS0_8__traitsIJN8facebook5react14LinearGradientENS9_14RadialGradientEEEELNS0_6_TraitE1EE9__destroyB8ne200100EvEUlRT_E_JRNS0_6__baseILSD_1EJSA_SB_EEEEEEDcSF_DpT0_, symObjAddr: 0xF68, symBinAddr: 0x5F7C, symSize: 0x28 }
  - { offset: 0x100DFB, size: 0x8, addend: 0x0, symName: __ZNSt3__110shared_ptrIvED2B8ne200100Ev, symObjAddr: 0x1148, symBinAddr: 0x615C, symSize: 0x58 }
  - { offset: 0x10113E, size: 0x8, addend: 0x0, symName: __ZNSt3__16vectorIN8facebook5react14FilterFunctionENS_9allocatorIS3_EEE16__destroy_vectorclB8ne200100Ev, symObjAddr: 0x1000, symBinAddr: 0x6014, symSize: 0x74 }
  - { offset: 0x101457, size: 0x8, addend: 0x0, symName: __ZNSt3__116__variant_detail6__dtorINS0_8__traitsIJdN8facebook5react16DropShadowParamsEEEELNS0_6_TraitE1EE9__destroyB8ne200100Ev, symObjAddr: 0x1074, symBinAddr: 0x6088, symSize: 0x54 }
  - { offset: 0x101699, size: 0x8, addend: 0x0, symName: __ZNSt3__116__variant_detail12__visitation6__base12__dispatcherIJLm0EEE10__dispatchB8ne200100IOZNS0_6__dtorINS0_8__traitsIJdN8facebook5react16DropShadowParamsEEEELNS0_6_TraitE1EE9__destroyB8ne200100EvEUlRT_E_JRNS0_6__baseILSC_1EJdSA_EEEEEEDcSE_DpT0_, symObjAddr: 0x10C8, symBinAddr: 0x60DC, symSize: 0x4 }
  - { offset: 0x1017AF, size: 0x8, addend: 0x0, symName: __ZNSt3__116__variant_detail12__visitation6__base12__dispatcherIJLm1EEE10__dispatchB8ne200100IOZNS0_6__dtorINS0_8__traitsIJdN8facebook5react16DropShadowParamsEEEELNS0_6_TraitE1EE9__destroyB8ne200100EvEUlRT_E_JRNS0_6__baseILSC_1EJdSA_EEEEEEDcSE_DpT0_, symObjAddr: 0x10CC, symBinAddr: 0x60E0, symSize: 0x8 }
  - { offset: 0x1017E7, size: 0x8, addend: 0x0, symName: __ZNSt3__116__variant_detail12__visitation6__base12__dispatcherIJLm1EEE10__dispatchB8ne200100IOZNS0_6__dtorINS0_8__traitsIJdN8facebook5react16DropShadowParamsEEEELNS0_6_TraitE1EE9__destroyB8ne200100EvEUlRT_E_JRNS0_6__baseILSC_1EJdSA_EEEEEEDcSE_DpT0_, symObjAddr: 0x10CC, symBinAddr: 0x60E0, symSize: 0x8 }
  - { offset: 0x10180F, size: 0x8, addend: 0x0, symName: __ZNSt3__116__variant_detail12__visitation6__base12__dispatcherIJLm1EEE10__dispatchB8ne200100IOZNS0_6__dtorINS0_8__traitsIJdN8facebook5react16DropShadowParamsEEEELNS0_6_TraitE1EE9__destroyB8ne200100EvEUlRT_E_JRNS0_6__baseILSC_1EJdSA_EEEEEEDcSE_DpT0_, symObjAddr: 0x10CC, symBinAddr: 0x60E0, symSize: 0x8 }
  - { offset: 0x101837, size: 0x8, addend: 0x0, symName: __ZNSt3__116__variant_detail12__visitation6__base12__dispatcherIJLm1EEE10__dispatchB8ne200100IOZNS0_6__dtorINS0_8__traitsIJdN8facebook5react16DropShadowParamsEEEELNS0_6_TraitE1EE9__destroyB8ne200100EvEUlRT_E_JRNS0_6__baseILSC_1EJdSA_EEEEEEDcSE_DpT0_, symObjAddr: 0x10CC, symBinAddr: 0x60E0, symSize: 0x8 }
  - { offset: 0x101855, size: 0x8, addend: 0x0, symName: __ZNSt3__116__variant_detail12__visitation6__base12__dispatcherIJLm1EEE10__dispatchB8ne200100IOZNS0_6__dtorINS0_8__traitsIJdN8facebook5react16DropShadowParamsEEEELNS0_6_TraitE1EE9__destroyB8ne200100EvEUlRT_E_JRNS0_6__baseILSC_1EJdSA_EEEEEEDcSE_DpT0_, symObjAddr: 0x10CC, symBinAddr: 0x60E0, symSize: 0x8 }
  - { offset: 0x101873, size: 0x8, addend: 0x0, symName: __ZNSt3__116__variant_detail12__visitation6__base12__dispatcherIJLm1EEE10__dispatchB8ne200100IOZNS0_6__dtorINS0_8__traitsIJdN8facebook5react16DropShadowParamsEEEELNS0_6_TraitE1EE9__destroyB8ne200100EvEUlRT_E_JRNS0_6__baseILSC_1EJdSA_EEEEEEDcSE_DpT0_, symObjAddr: 0x10CC, symBinAddr: 0x60E0, symSize: 0x8 }
  - { offset: 0x101891, size: 0x8, addend: 0x0, symName: __ZNSt3__116__variant_detail12__visitation6__base12__dispatcherIJLm1EEE10__dispatchB8ne200100IOZNS0_6__dtorINS0_8__traitsIJdN8facebook5react16DropShadowParamsEEEELNS0_6_TraitE1EE9__destroyB8ne200100EvEUlRT_E_JRNS0_6__baseILSC_1EJdSA_EEEEEEDcSE_DpT0_, symObjAddr: 0x10CC, symBinAddr: 0x60E0, symSize: 0x8 }
  - { offset: 0x101A86, size: 0x8, addend: 0x0, symName: __ZNSt3__16vectorIN8facebook5react9BoxShadowENS_9allocatorIS3_EEE16__destroy_vectorclB8ne200100Ev, symObjAddr: 0x10D4, symBinAddr: 0x60E8, symSize: 0x74 }
  - { offset: 0x101DB5, size: 0x8, addend: 0x0, symName: __ZN8facebook5react22CascadedRectangleEdgesINS0_11SharedColorEED2Ev, symObjAddr: 0x11A0, symBinAddr: 0x61B4, symSize: 0x110 }
  - { offset: 0x102F73, size: 0x8, addend: 0x0, symName: __ZNSt3__16vectorINS_12basic_stringIcNS_11char_traitsIcEENS_9allocatorIcEEEENS4_IS6_EEE5clearB8ne200100Ev, symObjAddr: 0x13B0, symBinAddr: 0x63C4, symSize: 0x4C }
  - { offset: 0x103C17, size: 0x8, addend: 0x0, symName: __ZN8facebook5react14RawPropsParser7prepareINS0_24RNCSafeAreaProviderPropsEEEvv, symObjAddr: 0x1718, symBinAddr: 0x667C, symSize: 0x1C4 }
  - { offset: 0x104369, size: 0x8, addend: 0x0, symName: __ZN8facebook5react14RawPropsParserD1Ev, symObjAddr: 0x16C8, symBinAddr: 0x662C, symSize: 0x50 }
  - { offset: 0x104C87, size: 0x8, addend: 0x0, symName: __ZNSt3__112__hash_tableINS_17__hash_value_typeINS_12basic_stringIcNS_11char_traitsIcEENS_9allocatorIcEEEENS_10shared_ptrIvEEEENS_22__unordered_map_hasherIS7_SA_NS_4hashIS7_EENS_8equal_toIS7_EELb1EEENS_21__unordered_map_equalIS7_SA_SF_SD_Lb1EEENS5_ISA_EEED2Ev, symObjAddr: 0x1E54, symBinAddr: 0x6DB8, symSize: 0x38 }
  - { offset: 0x104DF8, size: 0x8, addend: 0x0, symName: __ZNSt3__16vectorIN8facebook5react8RawValueENS_9allocatorIS3_EEE16__destroy_vectorclB8ne200100Ev, symObjAddr: 0x1F04, symBinAddr: 0x6E68, symSize: 0x70 }
  - { offset: 0x105117, size: 0x8, addend: 0x0, symName: __ZN8facebook5react27ConcreteComponentDescriptorINS0_22ConcreteViewShadowNodeIXadL_ZNS0_32RNCSafeAreaProviderComponentNameEEENS0_24RNCSafeAreaProviderPropsENS0_31RNCSafeAreaProviderEventEmitterENS0_9StateDataEEEED1Ev, symObjAddr: 0x18DC, symBinAddr: 0x6840, symSize: 0x4 }
  - { offset: 0x10513B, size: 0x8, addend: 0x0, symName: __ZN8facebook5react27ConcreteComponentDescriptorINS0_22ConcreteViewShadowNodeIXadL_ZNS0_32RNCSafeAreaProviderComponentNameEEENS0_24RNCSafeAreaProviderPropsENS0_31RNCSafeAreaProviderEventEmitterENS0_9StateDataEEEED1Ev, symObjAddr: 0x18DC, symBinAddr: 0x6840, symSize: 0x4 }
  - { offset: 0x105159, size: 0x8, addend: 0x0, symName: __ZN8facebook5react27ConcreteComponentDescriptorINS0_22ConcreteViewShadowNodeIXadL_ZNS0_32RNCSafeAreaProviderComponentNameEEENS0_24RNCSafeAreaProviderPropsENS0_31RNCSafeAreaProviderEventEmitterENS0_9StateDataEEEED1Ev, symObjAddr: 0x18DC, symBinAddr: 0x6840, symSize: 0x4 }
  - { offset: 0x10516D, size: 0x8, addend: 0x0, symName: __ZN8facebook5react19ComponentDescriptorD2Ev, symObjAddr: 0x1FD8, symBinAddr: 0x6F3C, symSize: 0x7C }
  - { offset: 0x105681, size: 0x8, addend: 0x0, symName: __ZN8facebook5react27ConcreteComponentDescriptorINS0_22ConcreteViewShadowNodeIXadL_ZNS0_32RNCSafeAreaProviderComponentNameEEENS0_24RNCSafeAreaProviderPropsENS0_31RNCSafeAreaProviderEventEmitterENS0_9StateDataEEEED0Ev, symObjAddr: 0x18E0, symBinAddr: 0x6844, symSize: 0x14 }
  - { offset: 0x1056FF, size: 0x8, addend: 0x0, symName: __ZNK8facebook5react27ConcreteComponentDescriptorINS0_22ConcreteViewShadowNodeIXadL_ZNS0_32RNCSafeAreaProviderComponentNameEEENS0_24RNCSafeAreaProviderPropsENS0_31RNCSafeAreaProviderEventEmitterENS0_9StateDataEEEE18getComponentHandleEv, symObjAddr: 0x18F4, symBinAddr: 0x6858, symSize: 0xC }
  - { offset: 0x105726, size: 0x8, addend: 0x0, symName: __ZNK8facebook5react27ConcreteComponentDescriptorINS0_22ConcreteViewShadowNodeIXadL_ZNS0_32RNCSafeAreaProviderComponentNameEEENS0_24RNCSafeAreaProviderPropsENS0_31RNCSafeAreaProviderEventEmitterENS0_9StateDataEEEE16getComponentNameEv, symObjAddr: 0x1900, symBinAddr: 0x6864, symSize: 0xC }
  - { offset: 0x10574D, size: 0x8, addend: 0x0, symName: __ZNK8facebook5react27ConcreteComponentDescriptorINS0_22ConcreteViewShadowNodeIXadL_ZNS0_32RNCSafeAreaProviderComponentNameEEENS0_24RNCSafeAreaProviderPropsENS0_31RNCSafeAreaProviderEventEmitterENS0_9StateDataEEEE9getTraitsEv, symObjAddr: 0x190C, symBinAddr: 0x6870, symSize: 0x8 }
  - { offset: 0x105855, size: 0x8, addend: 0x0, symName: __ZNK8facebook5react27ConcreteComponentDescriptorINS0_22ConcreteViewShadowNodeIXadL_ZNS0_32RNCSafeAreaProviderComponentNameEEENS0_24RNCSafeAreaProviderPropsENS0_31RNCSafeAreaProviderEventEmitterENS0_9StateDataEEEE16createShadowNodeERKNS0_18ShadowNodeFragmentERKNSt3__110shared_ptrIKNS0_16ShadowNodeFamilyEEE, symObjAddr: 0x1914, symBinAddr: 0x6878, symSize: 0x90 }
  - { offset: 0x105AF8, size: 0x8, addend: 0x0, symName: __ZNK8facebook5react27ConcreteComponentDescriptorINS0_22ConcreteViewShadowNodeIXadL_ZNS0_32RNCSafeAreaProviderComponentNameEEENS0_24RNCSafeAreaProviderPropsENS0_31RNCSafeAreaProviderEventEmitterENS0_9StateDataEEEE15cloneShadowNodeERKNS0_10ShadowNodeERKNS0_18ShadowNodeFragmentE, symObjAddr: 0x19A4, symBinAddr: 0x6908, symSize: 0x104 }
  - { offset: 0x105E96, size: 0x8, addend: 0x0, symName: __ZNK8facebook5react27ConcreteComponentDescriptorINS0_22ConcreteViewShadowNodeIXadL_ZNS0_32RNCSafeAreaProviderComponentNameEEENS0_24RNCSafeAreaProviderPropsENS0_31RNCSafeAreaProviderEventEmitterENS0_9StateDataEEEE11appendChildERKNSt3__110shared_ptrIKNS0_10ShadowNodeEEESE_, symObjAddr: 0x1AA8, symBinAddr: 0x6A0C, symSize: 0x14 }
  - { offset: 0x105EF0, size: 0x8, addend: 0x0, symName: __ZNK8facebook5react27ConcreteComponentDescriptorINS0_22ConcreteViewShadowNodeIXadL_ZNS0_32RNCSafeAreaProviderComponentNameEEENS0_24RNCSafeAreaProviderPropsENS0_31RNCSafeAreaProviderEventEmitterENS0_9StateDataEEEE11appendChildERKNSt3__110shared_ptrIKNS0_10ShadowNodeEEESE_, symObjAddr: 0x1AA8, symBinAddr: 0x6A0C, symSize: 0x14 }
  - { offset: 0x106841, size: 0x8, addend: 0x0, symName: __ZNK8facebook5react27ConcreteComponentDescriptorINS0_22ConcreteViewShadowNodeIXadL_ZNS0_32RNCSafeAreaProviderComponentNameEEENS0_24RNCSafeAreaProviderPropsENS0_31RNCSafeAreaProviderEventEmitterENS0_9StateDataEEEE10clonePropsERKNS0_18PropsParserContextERKNSt3__110shared_ptrIKNS0_5PropsEEENS0_8RawPropsE, symObjAddr: 0x1ABC, symBinAddr: 0x6A20, symSize: 0x21C }
  - { offset: 0x1073F7, size: 0x8, addend: 0x0, symName: __ZN8facebook5react18ConcreteShadowNodeIXadL_ZNS0_32RNCSafeAreaProviderComponentNameEEENS0_24YogaLayoutableShadowNodeENS0_24RNCSafeAreaProviderPropsENS0_31RNCSafeAreaProviderEventEmitterENS0_9StateDataEE5PropsERKNS0_18PropsParserContextERKNS0_8RawPropsERKNSt3__110shared_ptrIKNS0_5PropsEEE, symObjAddr: 0x2880, symBinAddr: 0x74C4, symSize: 0x58 }
  - { offset: 0x1074FE, size: 0x8, addend: 0x0, symName: __ZNSt3__116__variant_detail6__dtorINS0_8__traitsIJN5folly7dynamicENS_4pairIPN8facebook3jsi7RuntimeENS7_5ValueEEEEEELNS0_6_TraitE1EE9__destroyB8ne200100Ev, symObjAddr: 0x1F74, symBinAddr: 0x6ED8, symSize: 0x54 }
  - { offset: 0x1076D4, size: 0x8, addend: 0x0, symName: __ZNK8facebook5react27ConcreteComponentDescriptorINS0_22ConcreteViewShadowNodeIXadL_ZNS0_32RNCSafeAreaProviderComponentNameEEENS0_24RNCSafeAreaProviderPropsENS0_31RNCSafeAreaProviderEventEmitterENS0_9StateDataEEEE18createInitialStateERKNSt3__110shared_ptrIKNS0_5PropsEEERKNS9_IKNS0_16ShadowNodeFamilyEEE, symObjAddr: 0x1CD8, symBinAddr: 0x6C3C, symSize: 0x8 }
  - { offset: 0x107718, size: 0x8, addend: 0x0, symName: __ZNK8facebook5react27ConcreteComponentDescriptorINS0_22ConcreteViewShadowNodeIXadL_ZNS0_32RNCSafeAreaProviderComponentNameEEENS0_24RNCSafeAreaProviderPropsENS0_31RNCSafeAreaProviderEventEmitterENS0_9StateDataEEEE18createInitialStateERKNSt3__110shared_ptrIKNS0_5PropsEEERKNS9_IKNS0_16ShadowNodeFamilyEEE, symObjAddr: 0x1CD8, symBinAddr: 0x6C3C, symSize: 0x8 }
  - { offset: 0x10773C, size: 0x8, addend: 0x0, symName: __ZNK8facebook5react27ConcreteComponentDescriptorINS0_22ConcreteViewShadowNodeIXadL_ZNS0_32RNCSafeAreaProviderComponentNameEEENS0_24RNCSafeAreaProviderPropsENS0_31RNCSafeAreaProviderEventEmitterENS0_9StateDataEEEE18createInitialStateERKNSt3__110shared_ptrIKNS0_5PropsEEERKNS9_IKNS0_16ShadowNodeFamilyEEE, symObjAddr: 0x1CD8, symBinAddr: 0x6C3C, symSize: 0x8 }
  - { offset: 0x107760, size: 0x8, addend: 0x0, symName: __ZNK8facebook5react27ConcreteComponentDescriptorINS0_22ConcreteViewShadowNodeIXadL_ZNS0_32RNCSafeAreaProviderComponentNameEEENS0_24RNCSafeAreaProviderPropsENS0_31RNCSafeAreaProviderEventEmitterENS0_9StateDataEEEE11createStateERKNS0_16ShadowNodeFamilyERKNSt3__110shared_ptrIKvEE, symObjAddr: 0x1CE0, symBinAddr: 0x6C44, symSize: 0x8 }
  - { offset: 0x1077A4, size: 0x8, addend: 0x0, symName: __ZNK8facebook5react27ConcreteComponentDescriptorINS0_22ConcreteViewShadowNodeIXadL_ZNS0_32RNCSafeAreaProviderComponentNameEEENS0_24RNCSafeAreaProviderPropsENS0_31RNCSafeAreaProviderEventEmitterENS0_9StateDataEEEE11createStateERKNS0_16ShadowNodeFamilyERKNSt3__110shared_ptrIKvEE, symObjAddr: 0x1CE0, symBinAddr: 0x6C44, symSize: 0x8 }
  - { offset: 0x1077C8, size: 0x8, addend: 0x0, symName: __ZNK8facebook5react27ConcreteComponentDescriptorINS0_22ConcreteViewShadowNodeIXadL_ZNS0_32RNCSafeAreaProviderComponentNameEEENS0_24RNCSafeAreaProviderPropsENS0_31RNCSafeAreaProviderEventEmitterENS0_9StateDataEEEE11createStateERKNS0_16ShadowNodeFamilyERKNSt3__110shared_ptrIKvEE, symObjAddr: 0x1CE0, symBinAddr: 0x6C44, symSize: 0x8 }
  - { offset: 0x1079EF, size: 0x8, addend: 0x0, symName: __ZNK8facebook5react27ConcreteComponentDescriptorINS0_22ConcreteViewShadowNodeIXadL_ZNS0_32RNCSafeAreaProviderComponentNameEEENS0_24RNCSafeAreaProviderPropsENS0_31RNCSafeAreaProviderEventEmitterENS0_9StateDataEEEE12createFamilyERKNS0_24ShadowNodeFamilyFragmentE, symObjAddr: 0x1CE8, symBinAddr: 0x6C4C, symSize: 0x168 }
  - { offset: 0x107F46, size: 0x8, addend: 0x0, symName: __ZNK8facebook5react27ConcreteComponentDescriptorINS0_22ConcreteViewShadowNodeIXadL_ZNS0_32RNCSafeAreaProviderComponentNameEEENS0_24RNCSafeAreaProviderPropsENS0_31RNCSafeAreaProviderEventEmitterENS0_9StateDataEEEE5adoptERNS0_10ShadowNodeE, symObjAddr: 0x1E50, symBinAddr: 0x6DB4, symSize: 0x4 }
  - { offset: 0x10806D, size: 0x8, addend: 0x0, symName: __ZNSt3__112__hash_tableINS_17__hash_value_typeINS_12basic_stringIcNS_11char_traitsIcEENS_9allocatorIcEEEENS_10shared_ptrIvEEEENS_22__unordered_map_hasherIS7_SA_NS_4hashIS7_EENS_8equal_toIS7_EELb1EEENS_21__unordered_map_equalIS7_SA_SF_SD_Lb1EEENS5_ISA_EEE17__deallocate_nodeEPNS_16__hash_node_baseIPNS_11__hash_nodeISA_PvEEEE, symObjAddr: 0x1E8C, symBinAddr: 0x6DF0, symSize: 0x3C }
  - { offset: 0x108542, size: 0x8, addend: 0x0, symName: __ZNSt3__116__variant_detail12__visitation6__base12__dispatcherIJLm0EEE10__dispatchB8ne200100IOZNS0_6__dtorINS0_8__traitsIJN5folly7dynamicENS_4pairIPN8facebook3jsi7RuntimeENSC_5ValueEEEEEELNS0_6_TraitE1EE9__destroyB8ne200100EvEUlRT_E_JRNS0_6__baseILSI_1EJS9_SG_EEEEEEDcSK_DpT0_, symObjAddr: 0x1FC8, symBinAddr: 0x6F2C, symSize: 0x8 }
  - { offset: 0x108702, size: 0x8, addend: 0x0, symName: __ZNSt3__116__variant_detail12__visitation6__base12__dispatcherIJLm1EEE10__dispatchB8ne200100IOZNS0_6__dtorINS0_8__traitsIJN5folly7dynamicENS_4pairIPN8facebook3jsi7RuntimeENSC_5ValueEEEEEELNS0_6_TraitE1EE9__destroyB8ne200100EvEUlRT_E_JRNS0_6__baseILSI_1EJS9_SG_EEEEEEDcSK_DpT0_, symObjAddr: 0x1FD0, symBinAddr: 0x6F34, symSize: 0x8 }
  - { offset: 0x10873A, size: 0x8, addend: 0x0, symName: __ZNSt3__116__variant_detail12__visitation6__base12__dispatcherIJLm1EEE10__dispatchB8ne200100IOZNS0_6__dtorINS0_8__traitsIJN5folly7dynamicENS_4pairIPN8facebook3jsi7RuntimeENSC_5ValueEEEEEELNS0_6_TraitE1EE9__destroyB8ne200100EvEUlRT_E_JRNS0_6__baseILSI_1EJS9_SG_EEEEEEDcSK_DpT0_, symObjAddr: 0x1FD0, symBinAddr: 0x6F34, symSize: 0x8 }
  - { offset: 0x108762, size: 0x8, addend: 0x0, symName: __ZNSt3__116__variant_detail12__visitation6__base12__dispatcherIJLm1EEE10__dispatchB8ne200100IOZNS0_6__dtorINS0_8__traitsIJN5folly7dynamicENS_4pairIPN8facebook3jsi7RuntimeENSC_5ValueEEEEEELNS0_6_TraitE1EE9__destroyB8ne200100EvEUlRT_E_JRNS0_6__baseILSI_1EJS9_SG_EEEEEEDcSK_DpT0_, symObjAddr: 0x1FD0, symBinAddr: 0x6F34, symSize: 0x8 }
  - { offset: 0x10878A, size: 0x8, addend: 0x0, symName: __ZNSt3__116__variant_detail12__visitation6__base12__dispatcherIJLm1EEE10__dispatchB8ne200100IOZNS0_6__dtorINS0_8__traitsIJN5folly7dynamicENS_4pairIPN8facebook3jsi7RuntimeENSC_5ValueEEEEEELNS0_6_TraitE1EE9__destroyB8ne200100EvEUlRT_E_JRNS0_6__baseILSI_1EJS9_SG_EEEEEEDcSK_DpT0_, symObjAddr: 0x1FD0, symBinAddr: 0x6F34, symSize: 0x8 }
  - { offset: 0x1087A8, size: 0x8, addend: 0x0, symName: __ZNSt3__116__variant_detail12__visitation6__base12__dispatcherIJLm1EEE10__dispatchB8ne200100IOZNS0_6__dtorINS0_8__traitsIJN5folly7dynamicENS_4pairIPN8facebook3jsi7RuntimeENSC_5ValueEEEEEELNS0_6_TraitE1EE9__destroyB8ne200100EvEUlRT_E_JRNS0_6__baseILSI_1EJS9_SG_EEEEEEDcSK_DpT0_, symObjAddr: 0x1FD0, symBinAddr: 0x6F34, symSize: 0x8 }
  - { offset: 0x1087C6, size: 0x8, addend: 0x0, symName: __ZNSt3__116__variant_detail12__visitation6__base12__dispatcherIJLm1EEE10__dispatchB8ne200100IOZNS0_6__dtorINS0_8__traitsIJN5folly7dynamicENS_4pairIPN8facebook3jsi7RuntimeENSC_5ValueEEEEEELNS0_6_TraitE1EE9__destroyB8ne200100EvEUlRT_E_JRNS0_6__baseILSI_1EJS9_SG_EEEEEEDcSK_DpT0_, symObjAddr: 0x1FD0, symBinAddr: 0x6F34, symSize: 0x8 }
  - { offset: 0x1087E4, size: 0x8, addend: 0x0, symName: __ZNSt3__116__variant_detail12__visitation6__base12__dispatcherIJLm1EEE10__dispatchB8ne200100IOZNS0_6__dtorINS0_8__traitsIJN5folly7dynamicENS_4pairIPN8facebook3jsi7RuntimeENSC_5ValueEEEEEELNS0_6_TraitE1EE9__destroyB8ne200100EvEUlRT_E_JRNS0_6__baseILSI_1EJS9_SG_EEEEEEDcSK_DpT0_, symObjAddr: 0x1FD0, symBinAddr: 0x6F34, symSize: 0x8 }
  - { offset: 0x108949, size: 0x8, addend: 0x0, symName: __ZN8facebook5react19ComponentDescriptorD1Ev, symObjAddr: 0x2054, symBinAddr: 0xDEC4, symSize: 0x4 }
  - { offset: 0x108972, size: 0x8, addend: 0x0, symName: __ZN8facebook5react19ComponentDescriptorD0Ev, symObjAddr: 0x2058, symBinAddr: 0xDEC8, symSize: 0x4 }
  - { offset: 0x108C0F, size: 0x8, addend: 0x0, symName: __ZNSt3__120__shared_ptr_emplaceIN8facebook5react22ConcreteViewShadowNodeIXadL_ZNS2_32RNCSafeAreaProviderComponentNameEEENS2_24RNCSafeAreaProviderPropsENS2_31RNCSafeAreaProviderEventEmitterENS2_9StateDataEEENS_9allocatorIS7_EEEC2B8ne200100IJRKNS2_18ShadowNodeFragmentERKNS_10shared_ptrIKNS2_16ShadowNodeFamilyEEENS2_16ShadowNodeTraitsEES9_Li0EEES9_DpOT_, symObjAddr: 0x217C, symBinAddr: 0x7028, symSize: 0x68 }
  - { offset: 0x108F5F, size: 0x8, addend: 0x0, symName: __ZN8facebook5react22ConcreteViewShadowNodeIXadL_ZNS0_32RNCSafeAreaProviderComponentNameEEENS0_24RNCSafeAreaProviderPropsENS0_31RNCSafeAreaProviderEventEmitterENS0_9StateDataEE10initializeEv, symObjAddr: 0x222C, symBinAddr: 0x70D8, symSize: 0x6C }
  - { offset: 0x108FA7, size: 0x8, addend: 0x0, symName: __ZN8facebook5react22ConcreteViewShadowNodeIXadL_ZNS0_32RNCSafeAreaProviderComponentNameEEENS0_24RNCSafeAreaProviderPropsENS0_31RNCSafeAreaProviderEventEmitterENS0_9StateDataEE10initializeEv, symObjAddr: 0x222C, symBinAddr: 0x70D8, symSize: 0x6C }
  - { offset: 0x108FC4, size: 0x8, addend: 0x0, symName: __ZN8facebook5react22ConcreteViewShadowNodeIXadL_ZNS0_32RNCSafeAreaProviderComponentNameEEENS0_24RNCSafeAreaProviderPropsENS0_31RNCSafeAreaProviderEventEmitterENS0_9StateDataEE10initializeEv, symObjAddr: 0x222C, symBinAddr: 0x70D8, symSize: 0x6C }
  - { offset: 0x109061, size: 0x8, addend: 0x0, symName: __ZNSt3__120__shared_ptr_emplaceIN8facebook5react22ConcreteViewShadowNodeIXadL_ZNS2_32RNCSafeAreaProviderComponentNameEEENS2_24RNCSafeAreaProviderPropsENS2_31RNCSafeAreaProviderEventEmitterENS2_9StateDataEEENS_9allocatorIS7_EEED1Ev, symObjAddr: 0x21E4, symBinAddr: 0x7090, symSize: 0x14 }
  - { offset: 0x109085, size: 0x8, addend: 0x0, symName: __ZNSt3__120__shared_ptr_emplaceIN8facebook5react22ConcreteViewShadowNodeIXadL_ZNS2_32RNCSafeAreaProviderComponentNameEEENS2_24RNCSafeAreaProviderPropsENS2_31RNCSafeAreaProviderEventEmitterENS2_9StateDataEEENS_9allocatorIS7_EEED1Ev, symObjAddr: 0x21E4, symBinAddr: 0x7090, symSize: 0x14 }
  - { offset: 0x1090BC, size: 0x8, addend: 0x0, symName: __ZNSt3__120__shared_ptr_emplaceIN8facebook5react22ConcreteViewShadowNodeIXadL_ZNS2_32RNCSafeAreaProviderComponentNameEEENS2_24RNCSafeAreaProviderPropsENS2_31RNCSafeAreaProviderEventEmitterENS2_9StateDataEEENS_9allocatorIS7_EEED0Ev, symObjAddr: 0x21F8, symBinAddr: 0x70A4, symSize: 0x24 }
  - { offset: 0x109192, size: 0x8, addend: 0x0, symName: __ZNSt3__120__shared_ptr_emplaceIN8facebook5react22ConcreteViewShadowNodeIXadL_ZNS2_32RNCSafeAreaProviderComponentNameEEENS2_24RNCSafeAreaProviderPropsENS2_31RNCSafeAreaProviderEventEmitterENS2_9StateDataEEENS_9allocatorIS7_EEE16__on_zero_sharedEv, symObjAddr: 0x221C, symBinAddr: 0x70C8, symSize: 0xC }
  - { offset: 0x1091BC, size: 0x8, addend: 0x0, symName: __ZNSt3__120__shared_ptr_emplaceIN8facebook5react22ConcreteViewShadowNodeIXadL_ZNS2_32RNCSafeAreaProviderComponentNameEEENS2_24RNCSafeAreaProviderPropsENS2_31RNCSafeAreaProviderEventEmitterENS2_9StateDataEEENS_9allocatorIS7_EEE16__on_zero_sharedEv, symObjAddr: 0x221C, symBinAddr: 0x70C8, symSize: 0xC }
  - { offset: 0x1091DB, size: 0x8, addend: 0x0, symName: __ZNSt3__120__shared_ptr_emplaceIN8facebook5react22ConcreteViewShadowNodeIXadL_ZNS2_32RNCSafeAreaProviderComponentNameEEENS2_24RNCSafeAreaProviderPropsENS2_31RNCSafeAreaProviderEventEmitterENS2_9StateDataEEENS_9allocatorIS7_EEE16__on_zero_sharedEv, symObjAddr: 0x221C, symBinAddr: 0x70C8, symSize: 0xC }
  - { offset: 0x1091FA, size: 0x8, addend: 0x0, symName: __ZNSt3__120__shared_ptr_emplaceIN8facebook5react22ConcreteViewShadowNodeIXadL_ZNS2_32RNCSafeAreaProviderComponentNameEEENS2_24RNCSafeAreaProviderPropsENS2_31RNCSafeAreaProviderEventEmitterENS2_9StateDataEEENS_9allocatorIS7_EEE16__on_zero_sharedEv, symObjAddr: 0x221C, symBinAddr: 0x70C8, symSize: 0xC }
  - { offset: 0x109226, size: 0x8, addend: 0x0, symName: __ZNSt3__120__shared_ptr_emplaceIN8facebook5react22ConcreteViewShadowNodeIXadL_ZNS2_32RNCSafeAreaProviderComponentNameEEENS2_24RNCSafeAreaProviderPropsENS2_31RNCSafeAreaProviderEventEmitterENS2_9StateDataEEENS_9allocatorIS7_EEE21__on_zero_shared_weakEv, symObjAddr: 0x2228, symBinAddr: 0x70D4, symSize: 0x4 }
  - { offset: 0x10925A, size: 0x8, addend: 0x0, symName: __ZNSt3__120__shared_ptr_emplaceIN8facebook5react22ConcreteViewShadowNodeIXadL_ZNS2_32RNCSafeAreaProviderComponentNameEEENS2_24RNCSafeAreaProviderPropsENS2_31RNCSafeAreaProviderEventEmitterENS2_9StateDataEEENS_9allocatorIS7_EEE21__on_zero_shared_weakEv, symObjAddr: 0x2228, symBinAddr: 0x70D4, symSize: 0x4 }
  - { offset: 0x10927E, size: 0x8, addend: 0x0, symName: __ZNSt3__120__shared_ptr_emplaceIN8facebook5react22ConcreteViewShadowNodeIXadL_ZNS2_32RNCSafeAreaProviderComponentNameEEENS2_24RNCSafeAreaProviderPropsENS2_31RNCSafeAreaProviderEventEmitterENS2_9StateDataEEENS_9allocatorIS7_EEE21__on_zero_shared_weakEv, symObjAddr: 0x2228, symBinAddr: 0x70D4, symSize: 0x4 }
  - { offset: 0x1092A3, size: 0x8, addend: 0x0, symName: __ZNSt3__120__shared_ptr_emplaceIN8facebook5react22ConcreteViewShadowNodeIXadL_ZNS2_32RNCSafeAreaProviderComponentNameEEENS2_24RNCSafeAreaProviderPropsENS2_31RNCSafeAreaProviderEventEmitterENS2_9StateDataEEENS_9allocatorIS7_EEE21__on_zero_shared_weakEv, symObjAddr: 0x2228, symBinAddr: 0x70D4, symSize: 0x4 }
  - { offset: 0x1092DB, size: 0x8, addend: 0x0, symName: __ZNSt3__120__shared_ptr_emplaceIN8facebook5react22ConcreteViewShadowNodeIXadL_ZNS2_32RNCSafeAreaProviderComponentNameEEENS2_24RNCSafeAreaProviderPropsENS2_31RNCSafeAreaProviderEventEmitterENS2_9StateDataEEENS_9allocatorIS7_EEE21__on_zero_shared_weakEv, symObjAddr: 0x2228, symBinAddr: 0x70D4, symSize: 0x4 }
  - { offset: 0x1095EE, size: 0x8, addend: 0x0, symName: __ZN8facebook5react22ConcreteViewShadowNodeIXadL_ZNS0_32RNCSafeAreaProviderComponentNameEEENS0_24RNCSafeAreaProviderPropsENS0_31RNCSafeAreaProviderEventEmitterENS0_9StateDataEED1Ev, symObjAddr: 0x2298, symBinAddr: 0x7144, symSize: 0x70 }
  - { offset: 0x1099DB, size: 0x8, addend: 0x0, symName: __ZNSt3__16vectorINS_10shared_ptrIKN8facebook5react24YogaLayoutableShadowNodeEEENS_9allocatorIS6_EEE16__destroy_vectorclB8ne200100Ev, symObjAddr: 0x23EC, symBinAddr: 0x7298, symSize: 0x70 }
  - { offset: 0x109B64, size: 0x8, addend: 0x0, symName: __ZN8facebook5react10ShadowNodeD2Ev, symObjAddr: 0x24B4, symBinAddr: 0x7308, symSize: 0x5C }
  - { offset: 0x109C9B, size: 0x8, addend: 0x0, symName: __ZN8facebook5react22ConcreteViewShadowNodeIXadL_ZNS0_32RNCSafeAreaProviderComponentNameEEENS0_24RNCSafeAreaProviderPropsENS0_31RNCSafeAreaProviderEventEmitterENS0_9StateDataEED0Ev, symObjAddr: 0x2308, symBinAddr: 0x71B4, symSize: 0x74 }
  - { offset: 0x10A0B0, size: 0x8, addend: 0x0, symName: __ZNK8facebook5react22ConcreteViewShadowNodeIXadL_ZNS0_32RNCSafeAreaProviderComponentNameEEENS0_24RNCSafeAreaProviderPropsENS0_31RNCSafeAreaProviderEventEmitterENS0_9StateDataEE12getTransformEv, symObjAddr: 0x237C, symBinAddr: 0x7228, symSize: 0x40 }
  - { offset: 0x10A124, size: 0x8, addend: 0x0, symName: __ZNK8facebook5react22ConcreteViewShadowNodeIXadL_ZNS0_32RNCSafeAreaProviderComponentNameEEENS0_24RNCSafeAreaProviderPropsENS0_31RNCSafeAreaProviderEventEmitterENS0_9StateDataEE16canBeTouchTargetEv, symObjAddr: 0x23BC, symBinAddr: 0x7268, symSize: 0x18 }
  - { offset: 0x10A15E, size: 0x8, addend: 0x0, symName: __ZNK8facebook5react22ConcreteViewShadowNodeIXadL_ZNS0_32RNCSafeAreaProviderComponentNameEEENS0_24RNCSafeAreaProviderPropsENS0_31RNCSafeAreaProviderEventEmitterENS0_9StateDataEE16canBeTouchTargetEv, symObjAddr: 0x23BC, symBinAddr: 0x7268, symSize: 0x18 }
  - { offset: 0x10A17B, size: 0x8, addend: 0x0, symName: __ZNK8facebook5react22ConcreteViewShadowNodeIXadL_ZNS0_32RNCSafeAreaProviderComponentNameEEENS0_24RNCSafeAreaProviderPropsENS0_31RNCSafeAreaProviderEventEmitterENS0_9StateDataEE16canBeTouchTargetEv, symObjAddr: 0x23BC, symBinAddr: 0x7268, symSize: 0x18 }
  - { offset: 0x10A199, size: 0x8, addend: 0x0, symName: __ZNK8facebook5react22ConcreteViewShadowNodeIXadL_ZNS0_32RNCSafeAreaProviderComponentNameEEENS0_24RNCSafeAreaProviderPropsENS0_31RNCSafeAreaProviderEventEmitterENS0_9StateDataEE24canChildrenBeTouchTargetEv, symObjAddr: 0x23D4, symBinAddr: 0x7280, symSize: 0x18 }
  - { offset: 0x10A1CF, size: 0x8, addend: 0x0, symName: __ZNK8facebook5react22ConcreteViewShadowNodeIXadL_ZNS0_32RNCSafeAreaProviderComponentNameEEENS0_24RNCSafeAreaProviderPropsENS0_31RNCSafeAreaProviderEventEmitterENS0_9StateDataEE24canChildrenBeTouchTargetEv, symObjAddr: 0x23D4, symBinAddr: 0x7280, symSize: 0x18 }
  - { offset: 0x10A1EC, size: 0x8, addend: 0x0, symName: __ZNK8facebook5react22ConcreteViewShadowNodeIXadL_ZNS0_32RNCSafeAreaProviderComponentNameEEENS0_24RNCSafeAreaProviderPropsENS0_31RNCSafeAreaProviderEventEmitterENS0_9StateDataEE24canChildrenBeTouchTargetEv, symObjAddr: 0x23D4, symBinAddr: 0x7280, symSize: 0x18 }
  - { offset: 0x10A602, size: 0x8, addend: 0x0, symName: __ZNSt3__120__shared_ptr_emplaceIN8facebook5react22ConcreteViewShadowNodeIXadL_ZNS2_32RNCSafeAreaProviderComponentNameEEENS2_24RNCSafeAreaProviderPropsENS2_31RNCSafeAreaProviderEventEmitterENS2_9StateDataEEENS_9allocatorIS7_EEEC2B8ne200100IJRKNS2_10ShadowNodeERKNS2_18ShadowNodeFragmentEES9_Li0EEES9_DpOT_, symObjAddr: 0x2728, symBinAddr: 0x73C4, symSize: 0x64 }
  - { offset: 0x10AB55, size: 0x8, addend: 0x0, symName: __ZNSt3__120__shared_ptr_emplaceIN8facebook5react24RNCSafeAreaProviderPropsENS_9allocatorIS3_EEEC2B8ne200100IJRKNS2_18PropsParserContextERKS3_RKNS2_8RawPropsEES5_Li0EEES5_DpOT_, symObjAddr: 0x2948, symBinAddr: 0x758C, symSize: 0x4C }
  - { offset: 0x10AD57, size: 0x8, addend: 0x0, symName: __ZNSt3__120__shared_ptr_emplaceIN8facebook5react24RNCSafeAreaProviderPropsENS_9allocatorIS3_EEED1Ev, symObjAddr: 0x2994, symBinAddr: 0x75D8, symSize: 0x14 }
  - { offset: 0x10AD7B, size: 0x8, addend: 0x0, symName: __ZNSt3__120__shared_ptr_emplaceIN8facebook5react24RNCSafeAreaProviderPropsENS_9allocatorIS3_EEED1Ev, symObjAddr: 0x2994, symBinAddr: 0x75D8, symSize: 0x14 }
  - { offset: 0x10ADB2, size: 0x8, addend: 0x0, symName: __ZNSt3__120__shared_ptr_emplaceIN8facebook5react24RNCSafeAreaProviderPropsENS_9allocatorIS3_EEED0Ev, symObjAddr: 0x29A8, symBinAddr: 0x75EC, symSize: 0x24 }
  - { offset: 0x10AE57, size: 0x8, addend: 0x0, symName: __ZNSt3__120__shared_ptr_emplaceIN8facebook5react24RNCSafeAreaProviderPropsENS_9allocatorIS3_EEE16__on_zero_sharedEv, symObjAddr: 0x29CC, symBinAddr: 0x7610, symSize: 0x14 }
  - { offset: 0x10AE81, size: 0x8, addend: 0x0, symName: __ZNSt3__120__shared_ptr_emplaceIN8facebook5react24RNCSafeAreaProviderPropsENS_9allocatorIS3_EEE16__on_zero_sharedEv, symObjAddr: 0x29CC, symBinAddr: 0x7610, symSize: 0x14 }
  - { offset: 0x10AF0E, size: 0x8, addend: 0x0, symName: __ZNSt3__120__shared_ptr_emplaceIN8facebook5react24RNCSafeAreaProviderPropsENS_9allocatorIS3_EEE21__on_zero_shared_weakEv, symObjAddr: 0x29E0, symBinAddr: 0x7624, symSize: 0x4 }
  - { offset: 0x10AF42, size: 0x8, addend: 0x0, symName: __ZNSt3__120__shared_ptr_emplaceIN8facebook5react24RNCSafeAreaProviderPropsENS_9allocatorIS3_EEE21__on_zero_shared_weakEv, symObjAddr: 0x29E0, symBinAddr: 0x7624, symSize: 0x4 }
  - { offset: 0x10AF66, size: 0x8, addend: 0x0, symName: __ZNSt3__120__shared_ptr_emplaceIN8facebook5react24RNCSafeAreaProviderPropsENS_9allocatorIS3_EEE21__on_zero_shared_weakEv, symObjAddr: 0x29E0, symBinAddr: 0x7624, symSize: 0x4 }
  - { offset: 0x10AF8B, size: 0x8, addend: 0x0, symName: __ZNSt3__120__shared_ptr_emplaceIN8facebook5react24RNCSafeAreaProviderPropsENS_9allocatorIS3_EEE21__on_zero_shared_weakEv, symObjAddr: 0x29E0, symBinAddr: 0x7624, symSize: 0x4 }
  - { offset: 0x10AFC3, size: 0x8, addend: 0x0, symName: __ZNSt3__120__shared_ptr_emplaceIN8facebook5react24RNCSafeAreaProviderPropsENS_9allocatorIS3_EEE21__on_zero_shared_weakEv, symObjAddr: 0x29E0, symBinAddr: 0x7624, symSize: 0x4 }
  - { offset: 0x10B05D, size: 0x8, addend: 0x0, symName: __ZNSt3__112basic_stringIcNS_11char_traitsIcEENS_9allocatorIcEEEC2B8ne200100ILi0EEEPKc, symObjAddr: 0x2ABC, symBinAddr: 0x7664, symSize: 0xA4 }
  - { offset: 0x10B2E3, size: 0x8, addend: 0x0, symName: __ZNSt3__112basic_stringIcNS_11char_traitsIcEENS_9allocatorIcEEE20__throw_length_errorB8ne200100Ev, symObjAddr: 0x2B60, symBinAddr: 0x7708, symSize: 0x14 }
  - { offset: 0x10B2FB, size: 0x8, addend: 0x0, symName: __ZN5folly9TypeErrorC1EOS0_, symObjAddr: 0x2A84, symBinAddr: 0x762C, symSize: 0x24 }
  - { offset: 0x10B358, size: 0x8, addend: 0x0, symName: __ZN5folly9TypeErrorD1Ev, symObjAddr: 0x2A80, symBinAddr: 0x7628, symSize: 0x4 }
  - { offset: 0x10B37C, size: 0x8, addend: 0x0, symName: __ZN5folly9TypeErrorD1Ev, symObjAddr: 0x2A80, symBinAddr: 0x7628, symSize: 0x4 }
  - { offset: 0x10B3B8, size: 0x8, addend: 0x0, symName: __ZN5folly9TypeErrorD0Ev, symObjAddr: 0x2AA8, symBinAddr: 0x7650, symSize: 0x14 }
  - { offset: 0x10B59F, size: 0x8, addend: 0x0, symName: __ZNSt3__112basic_stringIcNS_11char_traitsIcEENS_9allocatorIcEEE20__throw_length_errorB8ne200100Ev, symObjAddr: 0x2B60, symBinAddr: 0x7708, symSize: 0x14 }
  - { offset: 0x10B5B7, size: 0x8, addend: 0x0, symName: __ZNSt3__120__throw_length_errorB8ne200100EPKc, symObjAddr: 0x2B74, symBinAddr: 0x771C, symSize: 0x50 }
  - { offset: 0x10B5C2, size: 0x8, addend: 0x0, symName: __ZNSt12length_errorC1B8ne200100EPKc, symObjAddr: 0x2BC4, symBinAddr: 0x776C, symSize: 0x24 }
  - { offset: 0x10B8B0, size: 0x8, addend: 0x0, symName: __ZNSt3__120__shared_ptr_emplaceIKN8facebook5react31RNCSafeAreaProviderEventEmitterENS_9allocatorIS3_EEEC2B8ne200100IJNS_10shared_ptrINS2_11EventTargetEEERKNS_8weak_ptrIKNS2_15EventDispatcherEEEES6_Li0EEES6_DpOT_, symObjAddr: 0x2CA0, symBinAddr: 0x77F0, symSize: 0x4C }
  - { offset: 0x10BA6F, size: 0x8, addend: 0x0, symName: __ZNSt3__120__shared_ptr_emplaceIKN8facebook5react31RNCSafeAreaProviderEventEmitterENS_9allocatorIS3_EEED1Ev, symObjAddr: 0x2CEC, symBinAddr: 0x783C, symSize: 0x14 }
  - { offset: 0x10BA93, size: 0x8, addend: 0x0, symName: __ZNSt3__120__shared_ptr_emplaceIKN8facebook5react31RNCSafeAreaProviderEventEmitterENS_9allocatorIS3_EEED1Ev, symObjAddr: 0x2CEC, symBinAddr: 0x783C, symSize: 0x14 }
  - { offset: 0x10BACA, size: 0x8, addend: 0x0, symName: __ZNSt3__120__shared_ptr_emplaceIKN8facebook5react31RNCSafeAreaProviderEventEmitterENS_9allocatorIS3_EEED0Ev, symObjAddr: 0x2D00, symBinAddr: 0x7850, symSize: 0x24 }
  - { offset: 0x10BBA0, size: 0x8, addend: 0x0, symName: __ZNSt3__120__shared_ptr_emplaceIKN8facebook5react31RNCSafeAreaProviderEventEmitterENS_9allocatorIS3_EEE16__on_zero_sharedEv, symObjAddr: 0x2D24, symBinAddr: 0x7874, symSize: 0xC }
  - { offset: 0x10BBCA, size: 0x8, addend: 0x0, symName: __ZNSt3__120__shared_ptr_emplaceIKN8facebook5react31RNCSafeAreaProviderEventEmitterENS_9allocatorIS3_EEE16__on_zero_sharedEv, symObjAddr: 0x2D24, symBinAddr: 0x7874, symSize: 0xC }
  - { offset: 0x10BBE9, size: 0x8, addend: 0x0, symName: __ZNSt3__120__shared_ptr_emplaceIKN8facebook5react31RNCSafeAreaProviderEventEmitterENS_9allocatorIS3_EEE16__on_zero_sharedEv, symObjAddr: 0x2D24, symBinAddr: 0x7874, symSize: 0xC }
  - { offset: 0x10BC08, size: 0x8, addend: 0x0, symName: __ZNSt3__120__shared_ptr_emplaceIKN8facebook5react31RNCSafeAreaProviderEventEmitterENS_9allocatorIS3_EEE16__on_zero_sharedEv, symObjAddr: 0x2D24, symBinAddr: 0x7874, symSize: 0xC }
  - { offset: 0x10BC34, size: 0x8, addend: 0x0, symName: __ZNSt3__120__shared_ptr_emplaceIKN8facebook5react31RNCSafeAreaProviderEventEmitterENS_9allocatorIS3_EEE21__on_zero_shared_weakEv, symObjAddr: 0x2D30, symBinAddr: 0x7880, symSize: 0x4 }
  - { offset: 0x10BC68, size: 0x8, addend: 0x0, symName: __ZNSt3__120__shared_ptr_emplaceIKN8facebook5react31RNCSafeAreaProviderEventEmitterENS_9allocatorIS3_EEE21__on_zero_shared_weakEv, symObjAddr: 0x2D30, symBinAddr: 0x7880, symSize: 0x4 }
  - { offset: 0x10BC8C, size: 0x8, addend: 0x0, symName: __ZNSt3__120__shared_ptr_emplaceIKN8facebook5react31RNCSafeAreaProviderEventEmitterENS_9allocatorIS3_EEE21__on_zero_shared_weakEv, symObjAddr: 0x2D30, symBinAddr: 0x7880, symSize: 0x4 }
  - { offset: 0x10BCB1, size: 0x8, addend: 0x0, symName: __ZNSt3__120__shared_ptr_emplaceIKN8facebook5react31RNCSafeAreaProviderEventEmitterENS_9allocatorIS3_EEE21__on_zero_shared_weakEv, symObjAddr: 0x2D30, symBinAddr: 0x7880, symSize: 0x4 }
  - { offset: 0x10BCE8, size: 0x8, addend: 0x0, symName: __ZNSt3__120__shared_ptr_emplaceIKN8facebook5react31RNCSafeAreaProviderEventEmitterENS_9allocatorIS3_EEE21__on_zero_shared_weakEv, symObjAddr: 0x2D30, symBinAddr: 0x7880, symSize: 0x4 }
  - { offset: 0x10C172, size: 0x8, addend: 0x0, symName: __ZN8facebook5react12EventEmitterD2Ev, symObjAddr: 0x2FE8, symBinAddr: 0x7AE0, symSize: 0x50 }
  - { offset: 0x10C2F5, size: 0x8, addend: 0x0, symName: __ZN8facebook5react31RNCSafeAreaProviderEventEmitterD1Ev, symObjAddr: 0x2E74, symBinAddr: 0x79C4, symSize: 0x34 }
  - { offset: 0x10C42A, size: 0x8, addend: 0x0, symName: __ZN8facebook5react31RNCSafeAreaProviderEventEmitterD0Ev, symObjAddr: 0x2EA8, symBinAddr: 0x79F8, symSize: 0x38 }
  - { offset: 0x10C511, size: 0x8, addend: 0x0, symName: __ZN8facebook5react20BaseViewEventEmitterD1Ev, symObjAddr: 0x2EE0, symBinAddr: 0x7A30, symSize: 0x34 }
  - { offset: 0x10C5CA, size: 0x8, addend: 0x0, symName: __ZN8facebook5react20BaseViewEventEmitterD0Ev, symObjAddr: 0x2F14, symBinAddr: 0x7A64, symSize: 0x38 }
  - { offset: 0x10C6AF, size: 0x8, addend: 0x0, symName: __ZNSt3__120__shared_ptr_emplaceIN8facebook5react20BaseViewEventEmitter16LayoutEventStateENS_9allocatorIS4_EEED1Ev, symObjAddr: 0x2F4C, symBinAddr: 0x7A9C, symSize: 0x14 }
  - { offset: 0x10C6D3, size: 0x8, addend: 0x0, symName: __ZNSt3__120__shared_ptr_emplaceIN8facebook5react20BaseViewEventEmitter16LayoutEventStateENS_9allocatorIS4_EEED1Ev, symObjAddr: 0x2F4C, symBinAddr: 0x7A9C, symSize: 0x14 }
  - { offset: 0x10C70A, size: 0x8, addend: 0x0, symName: __ZNSt3__120__shared_ptr_emplaceIN8facebook5react20BaseViewEventEmitter16LayoutEventStateENS_9allocatorIS4_EEED0Ev, symObjAddr: 0x2F60, symBinAddr: 0x7AB0, symSize: 0x24 }
  - { offset: 0x10C82E, size: 0x8, addend: 0x0, symName: __ZNSt3__120__shared_ptr_emplaceIN8facebook5react20BaseViewEventEmitter16LayoutEventStateENS_9allocatorIS4_EEE16__on_zero_sharedEv, symObjAddr: 0x2F84, symBinAddr: 0x7AD4, symSize: 0x8 }
  - { offset: 0x10C858, size: 0x8, addend: 0x0, symName: __ZNSt3__120__shared_ptr_emplaceIN8facebook5react20BaseViewEventEmitter16LayoutEventStateENS_9allocatorIS4_EEE16__on_zero_sharedEv, symObjAddr: 0x2F84, symBinAddr: 0x7AD4, symSize: 0x8 }
  - { offset: 0x10C877, size: 0x8, addend: 0x0, symName: __ZNSt3__120__shared_ptr_emplaceIN8facebook5react20BaseViewEventEmitter16LayoutEventStateENS_9allocatorIS4_EEE16__on_zero_sharedEv, symObjAddr: 0x2F84, symBinAddr: 0x7AD4, symSize: 0x8 }
  - { offset: 0x10C94E, size: 0x8, addend: 0x0, symName: __ZNSt3__120__shared_ptr_emplaceIN8facebook5react20BaseViewEventEmitter16LayoutEventStateENS_9allocatorIS4_EEE21__on_zero_shared_weakEv, symObjAddr: 0x2F8C, symBinAddr: 0x7ADC, symSize: 0x4 }
  - { offset: 0x10C982, size: 0x8, addend: 0x0, symName: __ZNSt3__120__shared_ptr_emplaceIN8facebook5react20BaseViewEventEmitter16LayoutEventStateENS_9allocatorIS4_EEE21__on_zero_shared_weakEv, symObjAddr: 0x2F8C, symBinAddr: 0x7ADC, symSize: 0x4 }
  - { offset: 0x10C9A6, size: 0x8, addend: 0x0, symName: __ZNSt3__120__shared_ptr_emplaceIN8facebook5react20BaseViewEventEmitter16LayoutEventStateENS_9allocatorIS4_EEE21__on_zero_shared_weakEv, symObjAddr: 0x2F8C, symBinAddr: 0x7ADC, symSize: 0x4 }
  - { offset: 0x10C9CB, size: 0x8, addend: 0x0, symName: __ZNSt3__120__shared_ptr_emplaceIN8facebook5react20BaseViewEventEmitter16LayoutEventStateENS_9allocatorIS4_EEE21__on_zero_shared_weakEv, symObjAddr: 0x2F8C, symBinAddr: 0x7ADC, symSize: 0x4 }
  - { offset: 0x10CA03, size: 0x8, addend: 0x0, symName: __ZNSt3__120__shared_ptr_emplaceIN8facebook5react20BaseViewEventEmitter16LayoutEventStateENS_9allocatorIS4_EEE21__on_zero_shared_weakEv, symObjAddr: 0x2F8C, symBinAddr: 0x7ADC, symSize: 0x4 }
  - { offset: 0x10CA2D, size: 0x8, addend: 0x0, symName: __ZN8facebook5react12EventEmitterD1Ev, symObjAddr: 0x3038, symBinAddr: 0x7B30, symSize: 0x4 }
  - { offset: 0x10CA51, size: 0x8, addend: 0x0, symName: __ZN8facebook5react12EventEmitterD1Ev, symObjAddr: 0x3038, symBinAddr: 0x7B30, symSize: 0x4 }
  - { offset: 0x10CA84, size: 0x8, addend: 0x0, symName: __ZN8facebook5react12EventEmitterD0Ev, symObjAddr: 0x303C, symBinAddr: 0x7B34, symSize: 0x14 }
  - { offset: 0x10CD44, size: 0x8, addend: 0x0, symName: __ZNSt3__120__shared_ptr_emplaceIN8facebook5react11EventTargetENS_9allocatorIS3_EEEC2B8ne200100IJRKNS_10shared_ptrIKNS2_14InstanceHandleEEERKiES5_Li0EEES5_DpOT_, symObjAddr: 0x3108, symBinAddr: 0x7BA8, symSize: 0x4C }
  - { offset: 0x10CF03, size: 0x8, addend: 0x0, symName: __ZNSt3__120__shared_ptr_emplaceIN8facebook5react11EventTargetENS_9allocatorIS3_EEED1Ev, symObjAddr: 0x3154, symBinAddr: 0x7BF4, symSize: 0x14 }
  - { offset: 0x10CF27, size: 0x8, addend: 0x0, symName: __ZNSt3__120__shared_ptr_emplaceIN8facebook5react11EventTargetENS_9allocatorIS3_EEED1Ev, symObjAddr: 0x3154, symBinAddr: 0x7BF4, symSize: 0x14 }
  - { offset: 0x10CF5E, size: 0x8, addend: 0x0, symName: __ZNSt3__120__shared_ptr_emplaceIN8facebook5react11EventTargetENS_9allocatorIS3_EEED0Ev, symObjAddr: 0x3168, symBinAddr: 0x7C08, symSize: 0x24 }
  - { offset: 0x10D08B, size: 0x8, addend: 0x0, symName: __ZNSt3__120__shared_ptr_emplaceIN8facebook5react11EventTargetENS_9allocatorIS3_EEE16__on_zero_sharedEv, symObjAddr: 0x318C, symBinAddr: 0x7C2C, symSize: 0x28 }
  - { offset: 0x10D1A1, size: 0x8, addend: 0x0, symName: __ZNSt3__120__shared_ptr_emplaceIN8facebook5react11EventTargetENS_9allocatorIS3_EEE21__on_zero_shared_weakEv, symObjAddr: 0x31B4, symBinAddr: 0x7C54, symSize: 0x4 }
  - { offset: 0x10D1D5, size: 0x8, addend: 0x0, symName: __ZNSt3__120__shared_ptr_emplaceIN8facebook5react11EventTargetENS_9allocatorIS3_EEE21__on_zero_shared_weakEv, symObjAddr: 0x31B4, symBinAddr: 0x7C54, symSize: 0x4 }
  - { offset: 0x10D1F9, size: 0x8, addend: 0x0, symName: __ZNSt3__120__shared_ptr_emplaceIN8facebook5react11EventTargetENS_9allocatorIS3_EEE21__on_zero_shared_weakEv, symObjAddr: 0x31B4, symBinAddr: 0x7C54, symSize: 0x4 }
  - { offset: 0x10D21E, size: 0x8, addend: 0x0, symName: __ZNSt3__120__shared_ptr_emplaceIN8facebook5react11EventTargetENS_9allocatorIS3_EEE21__on_zero_shared_weakEv, symObjAddr: 0x31B4, symBinAddr: 0x7C54, symSize: 0x4 }
  - { offset: 0x10D255, size: 0x8, addend: 0x0, symName: __ZNSt3__120__shared_ptr_emplaceIN8facebook5react11EventTargetENS_9allocatorIS3_EEE21__on_zero_shared_weakEv, symObjAddr: 0x31B4, symBinAddr: 0x7C54, symSize: 0x4 }
  - { offset: 0x10D56D, size: 0x8, addend: 0x0, symName: __ZNSt3__120__shared_ptr_emplaceIN8facebook5react16ShadowNodeFamilyENS_9allocatorIS3_EEEC2B8ne200100IJRKNS2_24ShadowNodeFamilyFragmentERNS_10shared_ptrIKNS2_31RNCSafeAreaProviderEventEmitterEEERKNS_8weak_ptrIKNS2_15EventDispatcherEEERKNS2_27ConcreteComponentDescriptorINS2_22ConcreteViewShadowNodeIXadL_ZNS2_32RNCSafeAreaProviderComponentNameEEENS2_24RNCSafeAreaProviderPropsESC_NS2_9StateDataEEEEEES5_Li0EEES5_DpOT_, symObjAddr: 0x3384, symBinAddr: 0x7D74, symSize: 0x4C }
  - { offset: 0x10D7AE, size: 0x8, addend: 0x0, symName: __ZNSt3__120__shared_ptr_emplaceIN8facebook5react16ShadowNodeFamilyENS_9allocatorIS3_EEED1Ev, symObjAddr: 0x33D0, symBinAddr: 0x7DC0, symSize: 0x14 }
  - { offset: 0x10D7D2, size: 0x8, addend: 0x0, symName: __ZNSt3__120__shared_ptr_emplaceIN8facebook5react16ShadowNodeFamilyENS_9allocatorIS3_EEED1Ev, symObjAddr: 0x33D0, symBinAddr: 0x7DC0, symSize: 0x14 }
  - { offset: 0x10D809, size: 0x8, addend: 0x0, symName: __ZNSt3__120__shared_ptr_emplaceIN8facebook5react16ShadowNodeFamilyENS_9allocatorIS3_EEED0Ev, symObjAddr: 0x33E4, symBinAddr: 0x7DD4, symSize: 0x24 }
  - { offset: 0x10D8DF, size: 0x8, addend: 0x0, symName: __ZNSt3__120__shared_ptr_emplaceIN8facebook5react16ShadowNodeFamilyENS_9allocatorIS3_EEE16__on_zero_sharedEv, symObjAddr: 0x3408, symBinAddr: 0x7DF8, symSize: 0x8 }
  - { offset: 0x10D909, size: 0x8, addend: 0x0, symName: __ZNSt3__120__shared_ptr_emplaceIN8facebook5react16ShadowNodeFamilyENS_9allocatorIS3_EEE16__on_zero_sharedEv, symObjAddr: 0x3408, symBinAddr: 0x7DF8, symSize: 0x8 }
  - { offset: 0x10D928, size: 0x8, addend: 0x0, symName: __ZNSt3__120__shared_ptr_emplaceIN8facebook5react16ShadowNodeFamilyENS_9allocatorIS3_EEE16__on_zero_sharedEv, symObjAddr: 0x3408, symBinAddr: 0x7DF8, symSize: 0x8 }
  - { offset: 0x10D970, size: 0x8, addend: 0x0, symName: __ZNSt3__120__shared_ptr_emplaceIN8facebook5react16ShadowNodeFamilyENS_9allocatorIS3_EEE21__on_zero_shared_weakEv, symObjAddr: 0x3410, symBinAddr: 0x7E00, symSize: 0x4 }
  - { offset: 0x10D9A4, size: 0x8, addend: 0x0, symName: __ZNSt3__120__shared_ptr_emplaceIN8facebook5react16ShadowNodeFamilyENS_9allocatorIS3_EEE21__on_zero_shared_weakEv, symObjAddr: 0x3410, symBinAddr: 0x7E00, symSize: 0x4 }
  - { offset: 0x10D9C8, size: 0x8, addend: 0x0, symName: __ZNSt3__120__shared_ptr_emplaceIN8facebook5react16ShadowNodeFamilyENS_9allocatorIS3_EEE21__on_zero_shared_weakEv, symObjAddr: 0x3410, symBinAddr: 0x7E00, symSize: 0x4 }
  - { offset: 0x10D9ED, size: 0x8, addend: 0x0, symName: __ZNSt3__120__shared_ptr_emplaceIN8facebook5react16ShadowNodeFamilyENS_9allocatorIS3_EEE21__on_zero_shared_weakEv, symObjAddr: 0x3410, symBinAddr: 0x7E00, symSize: 0x4 }
  - { offset: 0x10DA25, size: 0x8, addend: 0x0, symName: __ZNSt3__120__shared_ptr_emplaceIN8facebook5react16ShadowNodeFamilyENS_9allocatorIS3_EEE21__on_zero_shared_weakEv, symObjAddr: 0x3410, symBinAddr: 0x7E00, symSize: 0x4 }
  - { offset: 0x10DBCD, size: 0x8, addend: 0x0, symName: __GLOBAL__sub_I_RNCSafeAreaProviderComponentView.mm, symObjAddr: 0x38A8, symBinAddr: 0x7EE0, symSize: 0x20 }
  - { offset: 0x10FE90, size: 0x8, addend: 0x0, symName: '+[RNCSafeAreaProviderManager moduleName]', symObjAddr: 0x0, symBinAddr: 0x7F00, symSize: 0xC }
  - { offset: 0x10FEAF, size: 0x8, addend: 0x0, symName: '+[RNCSafeAreaProviderManager moduleName]', symObjAddr: 0x0, symBinAddr: 0x7F00, symSize: 0xC }
  - { offset: 0x10FEE2, size: 0x8, addend: 0x0, symName: '+[RNCSafeAreaProviderManager load]', symObjAddr: 0xC, symBinAddr: 0x7F0C, symSize: 0x4 }
  - { offset: 0x10FF16, size: 0x8, addend: 0x0, symName: '+[RNCSafeAreaProviderManager load]', symObjAddr: 0xC, symBinAddr: 0x7F0C, symSize: 0x4 }
  - { offset: 0x10FF4B, size: 0x8, addend: 0x0, symName: '+[RNCSafeAreaProviderManager propConfig_onInsetsChange]', symObjAddr: 0x10, symBinAddr: 0x7F10, symSize: 0xC }
  - { offset: 0x10FF7E, size: 0x8, addend: 0x0, symName: '-[RNCSafeAreaProviderManager view]', symObjAddr: 0x1C, symBinAddr: 0x7F1C, symSize: 0x6C }
  - { offset: 0x110029, size: 0x8, addend: 0x0, symName: '-[RNCSafeAreaShadowView init]', symObjAddr: 0x0, symBinAddr: 0x7F88, symSize: 0x80 }
  - { offset: 0x11017A, size: 0x8, addend: 0x0, symName: '-[RNCSafeAreaShadowView init]', symObjAddr: 0x0, symBinAddr: 0x7F88, symSize: 0x80 }
  - { offset: 0x1101D0, size: 0x8, addend: 0x0, symName: '-[RNCSafeAreaShadowView extractEdges:top:right:bottom:left:]', symObjAddr: 0x80, symBinAddr: 0x8008, symSize: 0xC0 }
  - { offset: 0x110245, size: 0x8, addend: 0x0, symName: '-[RNCSafeAreaShadowView resetInsetsForMode:]', symObjAddr: 0x140, symBinAddr: 0x80C8, symSize: 0x138 }
  - { offset: 0x110288, size: 0x8, addend: 0x0, symName: '-[RNCSafeAreaShadowView updateInsets]', symObjAddr: 0x278, symBinAddr: 0x8200, symSize: 0x2A4 }
  - { offset: 0x11032B, size: 0x8, addend: 0x0, symName: '-[RNCSafeAreaShadowView getEdgeValue:insetValue:edgeValue:]', symObjAddr: 0x51C, symBinAddr: 0x84A4, symSize: 0x20 }
  - { offset: 0x1103B9, size: 0x8, addend: 0x0, symName: '-[RNCSafeAreaShadowView didSetProps:]', symObjAddr: 0x53C, symBinAddr: 0x84C4, symSize: 0x70 }
  - { offset: 0x1103FC, size: 0x8, addend: 0x0, symName: '-[RNCSafeAreaShadowView setLocalData:]', symObjAddr: 0x5AC, symBinAddr: 0x8534, symSize: 0xEC }
  - { offset: 0x11043F, size: 0x8, addend: 0x0, symName: '-[RNCSafeAreaShadowView setPadding:]', symObjAddr: 0x698, symBinAddr: 0x8620, symSize: 0x64 }
  - { offset: 0x110482, size: 0x8, addend: 0x0, symName: '-[RNCSafeAreaShadowView setMargin:]', symObjAddr: 0x6FC, symBinAddr: 0x8684, symSize: 0x64 }
  - { offset: 0x1104C5, size: 0x8, addend: 0x0, symName: '-[RNCSafeAreaShadowView setPaddingVertical:]', symObjAddr: 0x760, symBinAddr: 0x86E8, symSize: 0x64 }
  - { offset: 0x110508, size: 0x8, addend: 0x0, symName: '-[RNCSafeAreaShadowView setMarginVertical:]', symObjAddr: 0x7C4, symBinAddr: 0x874C, symSize: 0x64 }
  - { offset: 0x11054B, size: 0x8, addend: 0x0, symName: '-[RNCSafeAreaShadowView setPaddingHorizontal:]', symObjAddr: 0x828, symBinAddr: 0x87B0, symSize: 0x64 }
  - { offset: 0x11058E, size: 0x8, addend: 0x0, symName: '-[RNCSafeAreaShadowView setMarginHorizontal:]', symObjAddr: 0x88C, symBinAddr: 0x8814, symSize: 0x64 }
  - { offset: 0x1105D1, size: 0x8, addend: 0x0, symName: '-[RNCSafeAreaShadowView setPaddingTop:]', symObjAddr: 0x8F0, symBinAddr: 0x8878, symSize: 0x64 }
  - { offset: 0x110614, size: 0x8, addend: 0x0, symName: '-[RNCSafeAreaShadowView setMarginTop:]', symObjAddr: 0x954, symBinAddr: 0x88DC, symSize: 0x64 }
  - { offset: 0x110657, size: 0x8, addend: 0x0, symName: '-[RNCSafeAreaShadowView setPaddingRight:]', symObjAddr: 0x9B8, symBinAddr: 0x8940, symSize: 0x64 }
  - { offset: 0x11069A, size: 0x8, addend: 0x0, symName: '-[RNCSafeAreaShadowView setMarginRight:]', symObjAddr: 0xA1C, symBinAddr: 0x89A4, symSize: 0x64 }
  - { offset: 0x1106DD, size: 0x8, addend: 0x0, symName: '-[RNCSafeAreaShadowView setPaddingBottom:]', symObjAddr: 0xA80, symBinAddr: 0x8A08, symSize: 0x64 }
  - { offset: 0x110720, size: 0x8, addend: 0x0, symName: '-[RNCSafeAreaShadowView setMarginBottom:]', symObjAddr: 0xAE4, symBinAddr: 0x8A6C, symSize: 0x64 }
  - { offset: 0x110763, size: 0x8, addend: 0x0, symName: '-[RNCSafeAreaShadowView setPaddingLeft:]', symObjAddr: 0xB48, symBinAddr: 0x8AD0, symSize: 0x60 }
  - { offset: 0x1107A6, size: 0x8, addend: 0x0, symName: '-[RNCSafeAreaShadowView setMarginLeft:]', symObjAddr: 0xBA8, symBinAddr: 0x8B30, symSize: 0x60 }
  - { offset: 0x1107E9, size: 0x8, addend: 0x0, symName: '-[RNCSafeAreaShadowView .cxx_destruct]', symObjAddr: 0xC08, symBinAddr: 0x8B90, symSize: 0x14 }
  - { offset: 0x1108A0, size: 0x8, addend: 0x0, symName: _UIEdgeInsetsEqualToEdgeInsetsWithThreshold, symObjAddr: 0x0, symBinAddr: 0x8BA4, symSize: 0x70 }
  - { offset: 0x1108BA, size: 0x8, addend: 0x0, symName: _RNCSafeAreaDidChange, symObjAddr: 0x118, symBinAddr: 0x14D28, symSize: 0x0 }
  - { offset: 0x1108CE, size: 0x8, addend: 0x0, symName: _UIEdgeInsetsEqualToEdgeInsetsWithThreshold, symObjAddr: 0x0, symBinAddr: 0x8BA4, symSize: 0x70 }
  - { offset: 0x110994, size: 0x8, addend: 0x0, symName: _RNCParentViewController, symObjAddr: 0x70, symBinAddr: 0x8C14, symSize: 0x6C }
  - { offset: 0x110A2F, size: 0x8, addend: 0x0, symName: '-[RNCSafeAreaView initWithBridge:]', symObjAddr: 0x0, symBinAddr: 0x8C80, symSize: 0xBC }
  - { offset: 0x110B80, size: 0x8, addend: 0x0, symName: '-[RNCSafeAreaView initWithBridge:]', symObjAddr: 0x0, symBinAddr: 0x8C80, symSize: 0xBC }
  - { offset: 0x110C16, size: 0x8, addend: 0x0, symName: '-[RNCSafeAreaView initWithCoder:]', symObjAddr: 0xBC, symBinAddr: 0x8D3C, symSize: 0x38 }
  - { offset: 0x110CB9, size: 0x8, addend: 0x0, symName: '-[RNCSafeAreaView initWithFrame:]', symObjAddr: 0xF4, symBinAddr: 0x8D74, symSize: 0x2C }
  - { offset: 0x110D16, size: 0x8, addend: 0x0, symName: '-[RNCSafeAreaView description]', symObjAddr: 0x120, symBinAddr: 0x8DA0, symSize: 0x114 }
  - { offset: 0x110DB0, size: 0x8, addend: 0x0, symName: '-[RNCSafeAreaView didMoveToWindow]', symObjAddr: 0x234, symBinAddr: 0x8EB4, symSize: 0x124 }
  - { offset: 0x110DF3, size: 0x8, addend: 0x0, symName: '-[RNCSafeAreaView safeAreaProviderInsetsDidChange:]', symObjAddr: 0x358, symBinAddr: 0x8FD8, symSize: 0x4 }
  - { offset: 0x110E30, size: 0x8, addend: 0x0, symName: '-[RNCSafeAreaView invalidateSafeAreaInsets]', symObjAddr: 0x35C, symBinAddr: 0x8FDC, symSize: 0xE0 }
  - { offset: 0x110EC5, size: 0x8, addend: 0x0, symName: '-[RNCSafeAreaView findNearestProvider]', symObjAddr: 0x43C, symBinAddr: 0x90BC, symSize: 0x6C }
  - { offset: 0x110F0C, size: 0x8, addend: 0x0, symName: '-[RNCSafeAreaView updateLocalData]', symObjAddr: 0x4A8, symBinAddr: 0x9128, symSize: 0xCC }
  - { offset: 0x110F4F, size: 0x8, addend: 0x0, symName: '-[RNCSafeAreaView setMode:]', symObjAddr: 0x574, symBinAddr: 0x91F4, symSize: 0x10 }
  - { offset: 0x110F8E, size: 0x8, addend: 0x0, symName: '-[RNCSafeAreaView setEdges:]', symObjAddr: 0x584, symBinAddr: 0x9204, symSize: 0x18 }
  - { offset: 0x110FCE, size: 0x8, addend: 0x0, symName: '-[RNCSafeAreaView mode]', symObjAddr: 0x59C, symBinAddr: 0x921C, symSize: 0x10 }
  - { offset: 0x111005, size: 0x8, addend: 0x0, symName: '-[RNCSafeAreaView edges]', symObjAddr: 0x5AC, symBinAddr: 0x922C, symSize: 0x18 }
  - { offset: 0x11103A, size: 0x8, addend: 0x0, symName: '-[RNCSafeAreaView .cxx_destruct]', symObjAddr: 0x5C4, symBinAddr: 0x9244, symSize: 0x38 }
  - { offset: 0x111175, size: 0x8, addend: 0x0, symName: __ZN8facebook5react17HostPlatformColorL14UndefinedColorE, symObjAddr: 0x1949F8, symBinAddr: 0x19D48, symSize: 0x0 }
  - { offset: 0x1149F3, size: 0x8, addend: 0x0, symName: __ZN8facebook5react38concreteComponentDescriptorConstructorINS0_34RNCSafeAreaViewComponentDescriptorEEENSt3__110unique_ptrIKNS0_19ComponentDescriptorENS3_14default_deleteIS6_EEEERKNS0_29ComponentDescriptorParametersE, symObjAddr: 0x210C, symBinAddr: 0xA554, symSize: 0x34 }
  - { offset: 0x134D1B, size: 0x8, addend: 0x0, symName: __ZNSt3__115allocate_sharedB8ne200100IKN8facebook5react20RNCSafeAreaViewPropsENS_9allocatorIS3_EEJELi0EEENS_10shared_ptrIT_EERKT0_DpOT1_, symObjAddr: 0xB48, symBinAddr: 0x9D4C, symSize: 0x48 }
  - { offset: 0x135CD4, size: 0x8, addend: 0x0, symName: __ZNSt3__112__destroy_atB8ne200100IN8facebook5react20RNCSafeAreaViewPropsELi0EEEvPT_, symObjAddr: 0x19F0, symBinAddr: 0x9F40, symSize: 0x6C }
  - { offset: 0x136CC1, size: 0x8, addend: 0x0, symName: __ZNSt3__125__throw_bad_function_callB8ne200100Ev, symObjAddr: 0x1DD0, symBinAddr: 0xA2C8, symSize: 0x34 }
  - { offset: 0x13749F, size: 0x8, addend: 0x0, symName: __ZNSt3__111make_uniqueB8ne200100IKN8facebook5react34RNCSafeAreaViewComponentDescriptorEJRKNS2_29ComponentDescriptorParametersEELi0EEENS_10unique_ptrIT_NS_14default_deleteIS9_EEEEDpOT0_, symObjAddr: 0x2140, symBinAddr: 0xA588, symSize: 0xE4 }
  - { offset: 0x137E6B, size: 0x8, addend: 0x0, symName: __ZNSt3__115allocate_sharedB8ne200100IN8facebook5react25RNCSafeAreaViewShadowNodeENS_9allocatorIS3_EEJRKNS2_18ShadowNodeFragmentERKNS_10shared_ptrIKNS2_16ShadowNodeFamilyEEENS2_16ShadowNodeTraitsEELi0EEENS9_IT_EERKT0_DpOT1_, symObjAddr: 0x2ECC, symBinAddr: 0xB00C, symSize: 0x70 }
  - { offset: 0x1381A8, size: 0x8, addend: 0x0, symName: __ZNSt3__115allocate_sharedB8ne200100IN8facebook5react25RNCSafeAreaViewShadowNodeENS_9allocatorIS3_EEJRKNS2_10ShadowNodeERKNS2_18ShadowNodeFragmentEELi0EEENS_10shared_ptrIT_EERKT0_DpOT1_, symObjAddr: 0x3590, symBinAddr: 0xB3E0, symSize: 0x60 }
  - { offset: 0x138817, size: 0x8, addend: 0x0, symName: __ZNSt3__115allocate_sharedB8ne200100IN8facebook5react13ConcreteStateINS2_20RNCSafeAreaViewStateEEENS_9allocatorIS5_EEJNS_10shared_ptrIKS4_EERKNS8_IKNS2_16ShadowNodeFamilyEEEELi0EEENS8_IT_EERKT0_DpOT1_, symObjAddr: 0x3B0C, symBinAddr: 0xB6A8, symSize: 0x60 }
  - { offset: 0x138B60, size: 0x8, addend: 0x0, symName: __ZNSt3__115allocate_sharedB8ne200100IKN8facebook5react13ConcreteStateINS2_20RNCSafeAreaViewStateEEENS_9allocatorIS5_EEJNS_10shared_ptrIKS4_EERKNS2_5StateEELi0EEENS9_IT_EERKT0_DpOT1_, symObjAddr: 0x3DF4, symBinAddr: 0xB990, symSize: 0x60 }
  - { offset: 0x139104, size: 0x8, addend: 0x0, symName: __ZNSt3__115allocate_sharedB8ne200100IKN8facebook5react20BaseViewEventEmitterENS_9allocatorIS3_EEJNS_10shared_ptrINS2_11EventTargetEEERKNS_8weak_ptrIKNS2_15EventDispatcherEEEELi0EEENS7_IT_EERKT0_DpOT1_, symObjAddr: 0x4008, symBinAddr: 0xBBA4, symSize: 0x60 }
  - { offset: 0x1393C8, size: 0x8, addend: 0x0, symName: __ZNSt3__115allocate_sharedB8ne200100IN8facebook5react16ShadowNodeFamilyENS_9allocatorIS3_EEJRKNS2_24ShadowNodeFamilyFragmentERNS_10shared_ptrIKNS2_20BaseViewEventEmitterEEERKNS_8weak_ptrIKNS2_15EventDispatcherEEERKNS2_27ConcreteComponentDescriptorINS2_25RNCSafeAreaViewShadowNodeEEEELi0EEENS9_IT_EERKT0_DpOT1_, symObjAddr: 0x4658, symBinAddr: 0xBDC8, symSize: 0x78 }
  - { offset: 0x139F0C, size: 0x8, addend: 0x0, symName: __ZNSt3__112__destroy_atB8ne200100IN8facebook5react25RNCSafeAreaViewShadowNodeELi0EEEvPT_, symObjAddr: 0x34C8, symBinAddr: 0xB370, symSize: 0x70 }
  - { offset: 0x13A5B7, size: 0x8, addend: 0x0, symName: __ZNSt3__115allocate_sharedB8ne200100IN8facebook5react20RNCSafeAreaViewPropsENS_9allocatorIS3_EEJRKNS2_18PropsParserContextERKS3_RKNS2_8RawPropsEELi0EEENS_10shared_ptrIT_EERKT0_DpOT1_, symObjAddr: 0x37B0, symBinAddr: 0xB5A8, symSize: 0x70 }
  - { offset: 0x13B2FD, size: 0x8, addend: 0x0, symName: __ZNSt3__112construct_atB8ne200100IN8facebook5react13ConcreteStateINS2_20RNCSafeAreaViewStateEEEJNS_10shared_ptrIKS4_EERKNS6_IKNS2_16ShadowNodeFamilyEEEEPS5_EEPT_SG_DpOT0_, symObjAddr: 0x3C00, symBinAddr: 0xB79C, symSize: 0xC8 }
  - { offset: 0x13B9DB, size: 0x8, addend: 0x0, symName: __ZNSt3__112construct_atB8ne200100IN8facebook5react13ConcreteStateINS2_20RNCSafeAreaViewStateEEEJNS_10shared_ptrIKS4_EERKNS2_5StateEEPS5_EEPT_SE_DpOT0_, symObjAddr: 0x3EE8, symBinAddr: 0xBA84, symSize: 0x88 }
  - { offset: 0x13C05C, size: 0x8, addend: 0x0, symName: __ZNSt3__112construct_atB8ne200100IN8facebook5react20BaseViewEventEmitterEJNS_10shared_ptrINS2_11EventTargetEEERKNS_8weak_ptrIKNS2_15EventDispatcherEEEEPS3_EEPT_SF_DpOT0_, symObjAddr: 0x40FC, symBinAddr: 0xBC98, symSize: 0x130 }
  - { offset: 0x13CCCC, size: 0x8, addend: 0x0, symName: __ZNSt3__112construct_atB8ne200100IN8facebook5react16ShadowNodeFamilyEJRKNS2_24ShadowNodeFamilyFragmentERNS_10shared_ptrIKNS2_20BaseViewEventEmitterEEERKNS_8weak_ptrIKNS2_15EventDispatcherEEERKNS2_27ConcreteComponentDescriptorINS2_25RNCSafeAreaViewShadowNodeEEEEPS3_EEPT_SP_DpOT0_, symObjAddr: 0x4760, symBinAddr: 0xBE8C, symSize: 0xDC }
  - { offset: 0x13E214, size: 0x8, addend: 0x0, symName: '-[RNCSafeAreaViewComponentView initWithFrame:]', symObjAddr: 0x34, symBinAddr: 0x92B0, symSize: 0xDC }
  - { offset: 0x13E23E, size: 0x8, addend: 0x0, symName: '__ZZ46-[RNCSafeAreaViewComponentView initWithFrame:]E12defaultProps', symObjAddr: 0x194A10, symBinAddr: 0x19D60, symSize: 0x0 }
  - { offset: 0x14202B, size: 0x8, addend: 0x0, symName: __ZN8facebook5react18ConcreteShadowNodeIXadL_ZNS0_28RNCSafeAreaViewComponentNameEEENS0_24YogaLayoutableShadowNodeENS0_20RNCSafeAreaViewPropsENS0_20BaseViewEventEmitterENS0_20RNCSafeAreaViewStateEE18defaultSharedPropsEv, symObjAddr: 0x36BC, symBinAddr: 0xB4B4, symSize: 0x9C }
  - { offset: 0x14204B, size: 0x8, addend: 0x0, symName: __ZZN8facebook5react18ConcreteShadowNodeIXadL_ZNS0_28RNCSafeAreaViewComponentNameEEENS0_24YogaLayoutableShadowNodeENS0_20RNCSafeAreaViewPropsENS0_20BaseViewEventEmitterENS0_20RNCSafeAreaViewStateEE18defaultSharedPropsEvE18defaultSharedProps, symObjAddr: 0x5A58, symBinAddr: 0x19D00, symSize: 0x0 }
  - { offset: 0x1421CF, size: 0x8, addend: 0x0, symName: __ZNK8facebook5react13ConcreteStateINS0_20RNCSafeAreaViewStateEE11updateStateENSt3__18functionIFNS4_10shared_ptrIKvEERKS2_EEE, symObjAddr: 0x688, symBinAddr: 0x988C, symSize: 0x204 }
  - { offset: 0x142AD5, size: 0x8, addend: 0x0, symName: '-[RNCSafeAreaViewComponentView updateState]', symObjAddr: 0x5AC, symBinAddr: 0x97B0, symSize: 0xDC }
  - { offset: 0x14309E, size: 0x8, addend: 0x0, symName: '+[RNCSafeAreaViewComponentView load]', symObjAddr: 0x0, symBinAddr: 0x927C, symSize: 0x34 }
  - { offset: 0x1431E2, size: 0x8, addend: 0x0, symName: __ZNSt3__110shared_ptrIKN8facebook5react20RNCSafeAreaViewPropsEED1B8ne200100Ev, symObjAddr: 0x110, symBinAddr: 0x938C, symSize: 0x4 }
  - { offset: 0x14320E, size: 0x8, addend: 0x0, symName: __ZNSt3__110shared_ptrIKN8facebook5react20RNCSafeAreaViewPropsEED1B8ne200100Ev, symObjAddr: 0x110, symBinAddr: 0x938C, symSize: 0x4 }
  - { offset: 0x1433B8, size: 0x8, addend: 0x0, symName: '-[RNCSafeAreaViewComponentView description]', symObjAddr: 0x18C, symBinAddr: 0x9390, symSize: 0x148 }
  - { offset: 0x14344D, size: 0x8, addend: 0x0, symName: '-[RNCSafeAreaViewComponentView didMoveToWindow]', symObjAddr: 0x2D4, symBinAddr: 0x94D8, symSize: 0x134 }
  - { offset: 0x143490, size: 0x8, addend: 0x0, symName: '-[RNCSafeAreaViewComponentView safeAreaProviderInsetsDidChange:]', symObjAddr: 0x408, symBinAddr: 0x960C, symSize: 0x4 }
  - { offset: 0x1434CD, size: 0x8, addend: 0x0, symName: '-[RNCSafeAreaViewComponentView updateStateIfNecessary]', symObjAddr: 0x40C, symBinAddr: 0x9610, symSize: 0x118 }
  - { offset: 0x143554, size: 0x8, addend: 0x0, symName: '-[RNCSafeAreaViewComponentView findNearestProvider]', symObjAddr: 0x524, symBinAddr: 0x9728, symSize: 0x88 }
  - { offset: 0x143D78, size: 0x8, addend: 0x0, symName: __ZNSt3__110__function12__value_funcIFNS_10shared_ptrIKvEERKN8facebook5react20RNCSafeAreaViewStateEEEC2B8ne200100ERKSB_, symObjAddr: 0x1B00, symBinAddr: 0x9FF8, symSize: 0x64 }
  - { offset: 0x143DD4, size: 0x8, addend: 0x0, symName: __ZNSt3__110__function12__value_funcIFNS_10shared_ptrIKvEERKN8facebook5react20RNCSafeAreaViewStateEEEC2B8ne200100EOSB_, symObjAddr: 0x1D6C, symBinAddr: 0xA264, symSize: 0x64 }
  - { offset: 0x143E24, size: 0x8, addend: 0x0, symName: __ZN8facebook5react11StateUpdateD1Ev, symObjAddr: 0x1AB4, symBinAddr: 0x9FAC, symSize: 0x4C }
  - { offset: 0x143FF4, size: 0x8, addend: 0x0, symName: '+[RNCSafeAreaViewComponentView componentDescriptorProvider]', symObjAddr: 0x88C, symBinAddr: 0x9A90, symSize: 0x20 }
  - { offset: 0x14402A, size: 0x8, addend: 0x0, symName: '+[RNCSafeAreaViewComponentView componentDescriptorProvider]', symObjAddr: 0x88C, symBinAddr: 0x9A90, symSize: 0x20 }
  - { offset: 0x14415C, size: 0x8, addend: 0x0, symName: '-[RNCSafeAreaViewComponentView updateState:oldState:]', symObjAddr: 0x8AC, symBinAddr: 0x9AB0, symSize: 0x8C }
  - { offset: 0x14436B, size: 0x8, addend: 0x0, symName: __ZNSt3__110shared_ptrIKN8facebook5react13ConcreteStateINS2_20RNCSafeAreaViewStateEEEEaSB8ne200100EOS7_, symObjAddr: 0x938, symBinAddr: 0x9B3C, symSize: 0x64 }
  - { offset: 0x144559, size: 0x8, addend: 0x0, symName: '-[RNCSafeAreaViewComponentView finalizeUpdates:]', symObjAddr: 0x99C, symBinAddr: 0x9BA0, symSize: 0x48 }
  - { offset: 0x14459C, size: 0x8, addend: 0x0, symName: '-[RNCSafeAreaViewComponentView prepareForRecycle]', symObjAddr: 0x9E4, symBinAddr: 0x9BE8, symSize: 0xB0 }
  - { offset: 0x1445DD, size: 0x8, addend: 0x0, symName: __ZNSt3__110shared_ptrIKN8facebook5react13ConcreteStateINS2_20RNCSafeAreaViewStateEEEE5resetB8ne200100Ev, symObjAddr: 0xA94, symBinAddr: 0x9C98, symSize: 0x5C }
  - { offset: 0x1446F2, size: 0x8, addend: 0x0, symName: '-[RNCSafeAreaViewComponentView .cxx_destruct]', symObjAddr: 0xAF0, symBinAddr: 0x9CF4, symSize: 0x38 }
  - { offset: 0x1447D0, size: 0x8, addend: 0x0, symName: '-[RNCSafeAreaViewComponentView .cxx_construct]', symObjAddr: 0xB28, symBinAddr: 0x9D2C, symSize: 0x14 }
  - { offset: 0x144842, size: 0x8, addend: 0x0, symName: __Z18RNCSafeAreaViewClsv, symObjAddr: 0xB3C, symBinAddr: 0x9D40, symSize: 0xC }
  - { offset: 0x144A9D, size: 0x8, addend: 0x0, symName: __ZNSt3__120__shared_ptr_emplaceIKN8facebook5react20RNCSafeAreaViewPropsENS_9allocatorIS3_EEEC2B8ne200100IJES6_Li0EEES6_DpOT_, symObjAddr: 0xB90, symBinAddr: 0x9D94, symSize: 0x8C }
  - { offset: 0x146156, size: 0x8, addend: 0x0, symName: __ZNSt3__120__shared_ptr_emplaceIKN8facebook5react20RNCSafeAreaViewPropsENS_9allocatorIS3_EEED1Ev, symObjAddr: 0xC1C, symBinAddr: 0x9E20, symSize: 0x14 }
  - { offset: 0x14617A, size: 0x8, addend: 0x0, symName: __ZNSt3__120__shared_ptr_emplaceIKN8facebook5react20RNCSafeAreaViewPropsENS_9allocatorIS3_EEED1Ev, symObjAddr: 0xC1C, symBinAddr: 0x9E20, symSize: 0x14 }
  - { offset: 0x1461B1, size: 0x8, addend: 0x0, symName: __ZNSt3__120__shared_ptr_emplaceIKN8facebook5react20RNCSafeAreaViewPropsENS_9allocatorIS3_EEED0Ev, symObjAddr: 0xC30, symBinAddr: 0x9E34, symSize: 0x24 }
  - { offset: 0x146287, size: 0x8, addend: 0x0, symName: __ZNSt3__120__shared_ptr_emplaceIKN8facebook5react20RNCSafeAreaViewPropsENS_9allocatorIS3_EEE16__on_zero_sharedEv, symObjAddr: 0xC54, symBinAddr: 0x9E58, symSize: 0x8 }
  - { offset: 0x1462B1, size: 0x8, addend: 0x0, symName: __ZNSt3__120__shared_ptr_emplaceIKN8facebook5react20RNCSafeAreaViewPropsENS_9allocatorIS3_EEE16__on_zero_sharedEv, symObjAddr: 0xC54, symBinAddr: 0x9E58, symSize: 0x8 }
  - { offset: 0x1462D0, size: 0x8, addend: 0x0, symName: __ZNSt3__120__shared_ptr_emplaceIKN8facebook5react20RNCSafeAreaViewPropsENS_9allocatorIS3_EEE16__on_zero_sharedEv, symObjAddr: 0xC54, symBinAddr: 0x9E58, symSize: 0x8 }
  - { offset: 0x14630F, size: 0x8, addend: 0x0, symName: __ZNSt3__120__shared_ptr_emplaceIKN8facebook5react20RNCSafeAreaViewPropsENS_9allocatorIS3_EEE21__on_zero_shared_weakEv, symObjAddr: 0xC5C, symBinAddr: 0x9E60, symSize: 0x4 }
  - { offset: 0x146343, size: 0x8, addend: 0x0, symName: __ZNSt3__120__shared_ptr_emplaceIKN8facebook5react20RNCSafeAreaViewPropsENS_9allocatorIS3_EEE21__on_zero_shared_weakEv, symObjAddr: 0xC5C, symBinAddr: 0x9E60, symSize: 0x4 }
  - { offset: 0x146367, size: 0x8, addend: 0x0, symName: __ZNSt3__120__shared_ptr_emplaceIKN8facebook5react20RNCSafeAreaViewPropsENS_9allocatorIS3_EEE21__on_zero_shared_weakEv, symObjAddr: 0xC5C, symBinAddr: 0x9E60, symSize: 0x4 }
  - { offset: 0x14638C, size: 0x8, addend: 0x0, symName: __ZNSt3__120__shared_ptr_emplaceIKN8facebook5react20RNCSafeAreaViewPropsENS_9allocatorIS3_EEE21__on_zero_shared_weakEv, symObjAddr: 0xC5C, symBinAddr: 0x9E60, symSize: 0x4 }
  - { offset: 0x1463C4, size: 0x8, addend: 0x0, symName: __ZNSt3__120__shared_ptr_emplaceIKN8facebook5react20RNCSafeAreaViewPropsENS_9allocatorIS3_EEE21__on_zero_shared_weakEv, symObjAddr: 0xC5C, symBinAddr: 0x9E60, symSize: 0x4 }
  - { offset: 0x147A6B, size: 0x8, addend: 0x0, symName: __ZN8facebook5react20RNCSafeAreaViewPropsD1Ev, symObjAddr: 0x10AC, symBinAddr: 0x9E64, symSize: 0x6C }
  - { offset: 0x147F92, size: 0x8, addend: 0x0, symName: __ZN8facebook5react20RNCSafeAreaViewPropsD0Ev, symObjAddr: 0x1118, symBinAddr: 0x9ED0, symSize: 0x70 }
  - { offset: 0x14B36F, size: 0x8, addend: 0x0, symName: __ZNSt3__110__function6__funcIZNK8facebook5react13ConcreteStateINS3_20RNCSafeAreaViewStateEE11updateStateENS_8functionIFNS_10shared_ptrIKvEERKS5_EEEEUlRKSA_E_NS_9allocatorISH_EEFSA_SG_EED1Ev, symObjAddr: 0x1B64, symBinAddr: 0xA05C, symSize: 0x58 }
  - { offset: 0x14B4DE, size: 0x8, addend: 0x0, symName: __ZNSt3__110__function6__funcIZNK8facebook5react13ConcreteStateINS3_20RNCSafeAreaViewStateEE11updateStateENS_8functionIFNS_10shared_ptrIKvEERKS5_EEEEUlRKSA_E_NS_9allocatorISH_EEFSA_SG_EED0Ev, symObjAddr: 0x1BBC, symBinAddr: 0xA0B4, symSize: 0x58 }
  - { offset: 0x14B88C, size: 0x8, addend: 0x0, symName: __ZNKSt3__110__function6__funcIZNK8facebook5react13ConcreteStateINS3_20RNCSafeAreaViewStateEE11updateStateENS_8functionIFNS_10shared_ptrIKvEERKS5_EEEEUlRKSA_E_NS_9allocatorISH_EEFSA_SG_EE7__cloneEv, symObjAddr: 0x1C14, symBinAddr: 0xA10C, symSize: 0x54 }
  - { offset: 0x14BC1B, size: 0x8, addend: 0x0, symName: __ZNKSt3__110__function6__funcIZNK8facebook5react13ConcreteStateINS3_20RNCSafeAreaViewStateEE11updateStateENS_8functionIFNS_10shared_ptrIKvEERKS5_EEEEUlRKSA_E_NS_9allocatorISH_EEFSA_SG_EE7__cloneEPNS0_6__baseISK_EE, symObjAddr: 0x1C68, symBinAddr: 0xA160, symSize: 0x1C }
  - { offset: 0x14BD7E, size: 0x8, addend: 0x0, symName: __ZNSt3__110__function6__funcIZNK8facebook5react13ConcreteStateINS3_20RNCSafeAreaViewStateEE11updateStateENS_8functionIFNS_10shared_ptrIKvEERKS5_EEEEUlRKSA_E_NS_9allocatorISH_EEFSA_SG_EE7destroyEv, symObjAddr: 0x1C84, symBinAddr: 0xA17C, symSize: 0x30 }
  - { offset: 0x14BE95, size: 0x8, addend: 0x0, symName: __ZNSt3__110__function6__funcIZNK8facebook5react13ConcreteStateINS3_20RNCSafeAreaViewStateEE11updateStateENS_8functionIFNS_10shared_ptrIKvEERKS5_EEEEUlRKSA_E_NS_9allocatorISH_EEFSA_SG_EE18destroy_deallocateEv, symObjAddr: 0x1CB4, symBinAddr: 0xA1AC, symSize: 0x4C }
  - { offset: 0x14C13C, size: 0x8, addend: 0x0, symName: __ZNSt3__110__function6__funcIZNK8facebook5react13ConcreteStateINS3_20RNCSafeAreaViewStateEE11updateStateENS_8functionIFNS_10shared_ptrIKvEERKS5_EEEEUlRKSA_E_NS_9allocatorISH_EEFSA_SG_EEclESG_, symObjAddr: 0x1D00, symBinAddr: 0xA1F8, symSize: 0x24 }
  - { offset: 0x14C177, size: 0x8, addend: 0x0, symName: __ZNSt3__110__function6__funcIZNK8facebook5react13ConcreteStateINS3_20RNCSafeAreaViewStateEE11updateStateENS_8functionIFNS_10shared_ptrIKvEERKS5_EEEEUlRKSA_E_NS_9allocatorISH_EEFSA_SG_EEclESG_, symObjAddr: 0x1D00, symBinAddr: 0xA1F8, symSize: 0x24 }
  - { offset: 0x14C1A1, size: 0x8, addend: 0x0, symName: __ZNSt3__110__function6__funcIZNK8facebook5react13ConcreteStateINS3_20RNCSafeAreaViewStateEE11updateStateENS_8functionIFNS_10shared_ptrIKvEERKS5_EEEEUlRKSA_E_NS_9allocatorISH_EEFSA_SG_EEclESG_, symObjAddr: 0x1D00, symBinAddr: 0xA1F8, symSize: 0x24 }
  - { offset: 0x14C1CA, size: 0x8, addend: 0x0, symName: __ZNSt3__110__function6__funcIZNK8facebook5react13ConcreteStateINS3_20RNCSafeAreaViewStateEE11updateStateENS_8functionIFNS_10shared_ptrIKvEERKS5_EEEEUlRKSA_E_NS_9allocatorISH_EEFSA_SG_EEclESG_, symObjAddr: 0x1D00, symBinAddr: 0xA1F8, symSize: 0x24 }
  - { offset: 0x14C1F5, size: 0x8, addend: 0x0, symName: __ZNSt3__110__function6__funcIZNK8facebook5react13ConcreteStateINS3_20RNCSafeAreaViewStateEE11updateStateENS_8functionIFNS_10shared_ptrIKvEERKS5_EEEEUlRKSA_E_NS_9allocatorISH_EEFSA_SG_EEclESG_, symObjAddr: 0x1D00, symBinAddr: 0xA1F8, symSize: 0x24 }
  - { offset: 0x14C21F, size: 0x8, addend: 0x0, symName: __ZNSt3__110__function6__funcIZNK8facebook5react13ConcreteStateINS3_20RNCSafeAreaViewStateEE11updateStateENS_8functionIFNS_10shared_ptrIKvEERKS5_EEEEUlRKSA_E_NS_9allocatorISH_EEFSA_SG_EEclESG_, symObjAddr: 0x1D00, symBinAddr: 0xA1F8, symSize: 0x24 }
  - { offset: 0x14C2BD, size: 0x8, addend: 0x0, symName: __ZNKSt3__110__function6__funcIZNK8facebook5react13ConcreteStateINS3_20RNCSafeAreaViewStateEE11updateStateENS_8functionIFNS_10shared_ptrIKvEERKS5_EEEEUlRKSA_E_NS_9allocatorISH_EEFSA_SG_EE6targetERKSt9type_info, symObjAddr: 0x1D24, symBinAddr: 0xA21C, symSize: 0x3C }
  - { offset: 0x14C2C8, size: 0x8, addend: 0x0, symName: __ZNKSt3__110__function6__funcIZNK8facebook5react13ConcreteStateINS3_20RNCSafeAreaViewStateEE11updateStateENS_8functionIFNS_10shared_ptrIKvEERKS5_EEEEUlRKSA_E_NS_9allocatorISH_EEFSA_SG_EE6targetERKSt9type_info, symObjAddr: 0x1D24, symBinAddr: 0xA21C, symSize: 0x3C }
  - { offset: 0x14C317, size: 0x8, addend: 0x0, symName: __ZNKSt9type_infoeqB8ne200100ERKS_, symObjAddr: 0x1E1C, symBinAddr: 0xA314, symSize: 0x4C }
  - { offset: 0x14C3BC, size: 0x8, addend: 0x0, symName: __ZNKSt3__110__function6__funcIZNK8facebook5react13ConcreteStateINS3_20RNCSafeAreaViewStateEE11updateStateENS_8functionIFNS_10shared_ptrIKvEERKS5_EEEEUlRKSA_E_NS_9allocatorISH_EEFSA_SG_EE11target_typeEv, symObjAddr: 0x1D60, symBinAddr: 0xA258, symSize: 0xC }
  - { offset: 0x14C44C, size: 0x8, addend: 0x0, symName: __ZNSt3__117bad_function_callD1Ev, symObjAddr: 0x1E04, symBinAddr: 0xA2FC, symSize: 0x4 }
  - { offset: 0x14C470, size: 0x8, addend: 0x0, symName: __ZNSt3__117bad_function_callD1Ev, symObjAddr: 0x1E04, symBinAddr: 0xA2FC, symSize: 0x4 }
  - { offset: 0x14C4A5, size: 0x8, addend: 0x0, symName: __ZNSt3__117bad_function_callD0Ev, symObjAddr: 0x1E08, symBinAddr: 0xA300, symSize: 0x14 }
  - { offset: 0x14C5E7, size: 0x8, addend: 0x0, symName: '__ZNSt3__110__function6__funcIZ43-[RNCSafeAreaViewComponentView updateState]E3$_0NS_9allocatorIS2_EEFNS_10shared_ptrIKvEERKN8facebook5react20RNCSafeAreaViewStateEEED1Ev', symObjAddr: 0x1EC0, symBinAddr: 0xA360, symSize: 0x28 }
  - { offset: 0x14C6C7, size: 0x8, addend: 0x0, symName: '__ZNSt3__110__function6__funcIZ43-[RNCSafeAreaViewComponentView updateState]E3$_0NS_9allocatorIS2_EEFNS_10shared_ptrIKvEERKN8facebook5react20RNCSafeAreaViewStateEEED0Ev', symObjAddr: 0x1EE8, symBinAddr: 0xA388, symSize: 0x28 }
  - { offset: 0x14C8E9, size: 0x8, addend: 0x0, symName: '__ZNKSt3__110__function6__funcIZ43-[RNCSafeAreaViewComponentView updateState]E3$_0NS_9allocatorIS2_EEFNS_10shared_ptrIKvEERKN8facebook5react20RNCSafeAreaViewStateEEE7__cloneEv', symObjAddr: 0x1F10, symBinAddr: 0xA3B0, symSize: 0x44 }
  - { offset: 0x14CB67, size: 0x8, addend: 0x0, symName: '__ZNKSt3__110__function6__funcIZ43-[RNCSafeAreaViewComponentView updateState]E3$_0NS_9allocatorIS2_EEFNS_10shared_ptrIKvEERKN8facebook5react20RNCSafeAreaViewStateEEE7__cloneEPNS0_6__baseISD_EE', symObjAddr: 0x1F54, symBinAddr: 0xA3F4, symSize: 0x34 }
  - { offset: 0x14CCD8, size: 0x8, addend: 0x0, symName: '__ZNSt3__110__function6__funcIZ43-[RNCSafeAreaViewComponentView updateState]E3$_0NS_9allocatorIS2_EEFNS_10shared_ptrIKvEERKN8facebook5react20RNCSafeAreaViewStateEEE7destroyEv', symObjAddr: 0x1F88, symBinAddr: 0xA428, symSize: 0x8 }
  - { offset: 0x14CD02, size: 0x8, addend: 0x0, symName: '__ZNSt3__110__function6__funcIZ43-[RNCSafeAreaViewComponentView updateState]E3$_0NS_9allocatorIS2_EEFNS_10shared_ptrIKvEERKN8facebook5react20RNCSafeAreaViewStateEEE7destroyEv', symObjAddr: 0x1F88, symBinAddr: 0xA428, symSize: 0x8 }
  - { offset: 0x14CD22, size: 0x8, addend: 0x0, symName: '__ZNSt3__110__function6__funcIZ43-[RNCSafeAreaViewComponentView updateState]E3$_0NS_9allocatorIS2_EEFNS_10shared_ptrIKvEERKN8facebook5react20RNCSafeAreaViewStateEEE7destroyEv', symObjAddr: 0x1F88, symBinAddr: 0xA428, symSize: 0x8 }
  - { offset: 0x14CD41, size: 0x8, addend: 0x0, symName: '__ZNSt3__110__function6__funcIZ43-[RNCSafeAreaViewComponentView updateState]E3$_0NS_9allocatorIS2_EEFNS_10shared_ptrIKvEERKN8facebook5react20RNCSafeAreaViewStateEEE7destroyEv', symObjAddr: 0x1F88, symBinAddr: 0xA428, symSize: 0x8 }
  - { offset: 0x14CD93, size: 0x8, addend: 0x0, symName: '__ZNSt3__110__function6__funcIZ43-[RNCSafeAreaViewComponentView updateState]E3$_0NS_9allocatorIS2_EEFNS_10shared_ptrIKvEERKN8facebook5react20RNCSafeAreaViewStateEEE18destroy_deallocateEv', symObjAddr: 0x1F90, symBinAddr: 0xA430, symSize: 0x28 }
  - { offset: 0x14D1F7, size: 0x8, addend: 0x0, symName: '__ZNSt3__110__function6__funcIZ43-[RNCSafeAreaViewComponentView updateState]E3$_0NS_9allocatorIS2_EEFNS_10shared_ptrIKvEERKN8facebook5react20RNCSafeAreaViewStateEEEclESC_', symObjAddr: 0x1FB8, symBinAddr: 0xA458, symSize: 0x74 }
  - { offset: 0x14D47E, size: 0x8, addend: 0x0, symName: '__ZNKSt3__110__function6__funcIZ43-[RNCSafeAreaViewComponentView updateState]E3$_0NS_9allocatorIS2_EEFNS_10shared_ptrIKvEERKN8facebook5react20RNCSafeAreaViewStateEEE6targetERKSt9type_info', symObjAddr: 0x202C, symBinAddr: 0xA4CC, symSize: 0x3C }
  - { offset: 0x14D4CD, size: 0x8, addend: 0x0, symName: '__ZNKSt3__110__function6__funcIZ43-[RNCSafeAreaViewComponentView updateState]E3$_0NS_9allocatorIS2_EEFNS_10shared_ptrIKvEERKN8facebook5react20RNCSafeAreaViewStateEEE11target_typeEv', symObjAddr: 0x2068, symBinAddr: 0xA508, symSize: 0xC }
  - { offset: 0x14D50C, size: 0x8, addend: 0x0, symName: __ZNSt3__120__shared_ptr_emplaceIKN8facebook5react20RNCSafeAreaViewStateENS_9allocatorIS3_EEED1Ev, symObjAddr: 0x2074, symBinAddr: 0xA514, symSize: 0x14 }
  - { offset: 0x14D530, size: 0x8, addend: 0x0, symName: __ZNSt3__120__shared_ptr_emplaceIKN8facebook5react20RNCSafeAreaViewStateENS_9allocatorIS3_EEED1Ev, symObjAddr: 0x2074, symBinAddr: 0xA514, symSize: 0x14 }
  - { offset: 0x14D567, size: 0x8, addend: 0x0, symName: __ZNSt3__120__shared_ptr_emplaceIKN8facebook5react20RNCSafeAreaViewStateENS_9allocatorIS3_EEED0Ev, symObjAddr: 0x2088, symBinAddr: 0xA528, symSize: 0x24 }
  - { offset: 0x14D5CE, size: 0x8, addend: 0x0, symName: __ZNSt3__120__shared_ptr_emplaceIKN8facebook5react20RNCSafeAreaViewStateENS_9allocatorIS3_EEE16__on_zero_sharedEv, symObjAddr: 0x20AC, symBinAddr: 0xA54C, symSize: 0x4 }
  - { offset: 0x14D655, size: 0x8, addend: 0x0, symName: __ZNSt3__120__shared_ptr_emplaceIKN8facebook5react20RNCSafeAreaViewStateENS_9allocatorIS3_EEE21__on_zero_shared_weakEv, symObjAddr: 0x20B0, symBinAddr: 0xA550, symSize: 0x4 }
  - { offset: 0x14D689, size: 0x8, addend: 0x0, symName: __ZNSt3__120__shared_ptr_emplaceIKN8facebook5react20RNCSafeAreaViewStateENS_9allocatorIS3_EEE21__on_zero_shared_weakEv, symObjAddr: 0x20B0, symBinAddr: 0xA550, symSize: 0x4 }
  - { offset: 0x14D6AD, size: 0x8, addend: 0x0, symName: __ZNSt3__120__shared_ptr_emplaceIKN8facebook5react20RNCSafeAreaViewStateENS_9allocatorIS3_EEE21__on_zero_shared_weakEv, symObjAddr: 0x20B0, symBinAddr: 0xA550, symSize: 0x4 }
  - { offset: 0x14D6D2, size: 0x8, addend: 0x0, symName: __ZNSt3__120__shared_ptr_emplaceIKN8facebook5react20RNCSafeAreaViewStateENS_9allocatorIS3_EEE21__on_zero_shared_weakEv, symObjAddr: 0x20B0, symBinAddr: 0xA550, symSize: 0x4 }
  - { offset: 0x14D709, size: 0x8, addend: 0x0, symName: __ZNSt3__120__shared_ptr_emplaceIKN8facebook5react20RNCSafeAreaViewStateENS_9allocatorIS3_EEE21__on_zero_shared_weakEv, symObjAddr: 0x20B0, symBinAddr: 0xA550, symSize: 0x4 }
  - { offset: 0x14DD16, size: 0x8, addend: 0x0, symName: __ZN8facebook5react14RawPropsParser7prepareINS0_20RNCSafeAreaViewPropsEEEvv, symObjAddr: 0x2998, symBinAddr: 0xAD90, symSize: 0x260 }
  - { offset: 0x14EFED, size: 0x8, addend: 0x0, symName: __ZN8facebook5react34RNCSafeAreaViewComponentDescriptorD1Ev, symObjAddr: 0x2274, symBinAddr: 0xA66C, symSize: 0x4 }
  - { offset: 0x14F011, size: 0x8, addend: 0x0, symName: __ZN8facebook5react34RNCSafeAreaViewComponentDescriptorD1Ev, symObjAddr: 0x2274, symBinAddr: 0xA66C, symSize: 0x4 }
  - { offset: 0x14F02E, size: 0x8, addend: 0x0, symName: __ZN8facebook5react34RNCSafeAreaViewComponentDescriptorD1Ev, symObjAddr: 0x2274, symBinAddr: 0xA66C, symSize: 0x4 }
  - { offset: 0x14F04D, size: 0x8, addend: 0x0, symName: __ZN8facebook5react34RNCSafeAreaViewComponentDescriptorD1Ev, symObjAddr: 0x2274, symBinAddr: 0xA66C, symSize: 0x4 }
  - { offset: 0x14F326, size: 0x8, addend: 0x0, symName: __ZN8facebook5react34RNCSafeAreaViewComponentDescriptorD0Ev, symObjAddr: 0x2278, symBinAddr: 0xA670, symSize: 0x14 }
  - { offset: 0x14F3C2, size: 0x8, addend: 0x0, symName: __ZNK8facebook5react27ConcreteComponentDescriptorINS0_25RNCSafeAreaViewShadowNodeEE18getComponentHandleEv, symObjAddr: 0x228C, symBinAddr: 0xA684, symSize: 0xC }
  - { offset: 0x14F3E9, size: 0x8, addend: 0x0, symName: __ZNK8facebook5react27ConcreteComponentDescriptorINS0_25RNCSafeAreaViewShadowNodeEE16getComponentNameEv, symObjAddr: 0x2298, symBinAddr: 0xA690, symSize: 0xC }
  - { offset: 0x14F410, size: 0x8, addend: 0x0, symName: __ZNK8facebook5react27ConcreteComponentDescriptorINS0_25RNCSafeAreaViewShadowNodeEE9getTraitsEv, symObjAddr: 0x22A4, symBinAddr: 0xA69C, symSize: 0x8 }
  - { offset: 0x14F518, size: 0x8, addend: 0x0, symName: __ZNK8facebook5react27ConcreteComponentDescriptorINS0_25RNCSafeAreaViewShadowNodeEE16createShadowNodeERKNS0_18ShadowNodeFragmentERKNSt3__110shared_ptrIKNS0_16ShadowNodeFamilyEEE, symObjAddr: 0x22AC, symBinAddr: 0xA6A4, symSize: 0x90 }
  - { offset: 0x14F7BB, size: 0x8, addend: 0x0, symName: __ZNK8facebook5react27ConcreteComponentDescriptorINS0_25RNCSafeAreaViewShadowNodeEE15cloneShadowNodeERKNS0_10ShadowNodeERKNS0_18ShadowNodeFragmentE, symObjAddr: 0x233C, symBinAddr: 0xA734, symSize: 0xFC }
  - { offset: 0x14FB3E, size: 0x8, addend: 0x0, symName: __ZNK8facebook5react27ConcreteComponentDescriptorINS0_25RNCSafeAreaViewShadowNodeEE11appendChildERKNSt3__110shared_ptrIKNS0_10ShadowNodeEEESA_, symObjAddr: 0x2438, symBinAddr: 0xA830, symSize: 0xC }
  - { offset: 0x14FB98, size: 0x8, addend: 0x0, symName: __ZNK8facebook5react27ConcreteComponentDescriptorINS0_25RNCSafeAreaViewShadowNodeEE11appendChildERKNSt3__110shared_ptrIKNS0_10ShadowNodeEEESA_, symObjAddr: 0x2438, symBinAddr: 0xA830, symSize: 0xC }
  - { offset: 0x1504F3, size: 0x8, addend: 0x0, symName: __ZNK8facebook5react27ConcreteComponentDescriptorINS0_25RNCSafeAreaViewShadowNodeEE10clonePropsERKNS0_18PropsParserContextERKNSt3__110shared_ptrIKNS0_5PropsEEENS0_8RawPropsE, symObjAddr: 0x2444, symBinAddr: 0xA83C, symSize: 0x21C }
  - { offset: 0x1510A9, size: 0x8, addend: 0x0, symName: __ZN8facebook5react18ConcreteShadowNodeIXadL_ZNS0_28RNCSafeAreaViewComponentNameEEENS0_24YogaLayoutableShadowNodeENS0_20RNCSafeAreaViewPropsENS0_20BaseViewEventEmitterENS0_20RNCSafeAreaViewStateEE5PropsERKNS0_18PropsParserContextERKNS0_8RawPropsERKNSt3__110shared_ptrIKNS0_5PropsEEE, symObjAddr: 0x3758, symBinAddr: 0xB550, symSize: 0x58 }
  - { offset: 0x151503, size: 0x8, addend: 0x0, symName: __ZNK8facebook5react27ConcreteComponentDescriptorINS0_25RNCSafeAreaViewShadowNodeEE18createInitialStateERKNSt3__110shared_ptrIKNS0_5PropsEEERKNS5_IKNS0_16ShadowNodeFamilyEEE, symObjAddr: 0x2660, symBinAddr: 0xAA58, symSize: 0xC4 }
  - { offset: 0x1519A8, size: 0x8, addend: 0x0, symName: __ZNK8facebook5react27ConcreteComponentDescriptorINS0_25RNCSafeAreaViewShadowNodeEE11createStateERKNS0_16ShadowNodeFamilyERKNSt3__110shared_ptrIKvEE, symObjAddr: 0x2724, symBinAddr: 0xAB1C, symSize: 0x104 }
  - { offset: 0x151FCC, size: 0x8, addend: 0x0, symName: __ZNK8facebook5react27ConcreteComponentDescriptorINS0_25RNCSafeAreaViewShadowNodeEE12createFamilyERKNS0_24ShadowNodeFamilyFragmentE, symObjAddr: 0x2828, symBinAddr: 0xAC20, symSize: 0x168 }
  - { offset: 0x152577, size: 0x8, addend: 0x0, symName: __ZNK8facebook5react34RNCSafeAreaViewComponentDescriptor5adoptERNS0_10ShadowNodeE, symObjAddr: 0x2990, symBinAddr: 0xAD88, symSize: 0x8 }
  - { offset: 0x152D13, size: 0x8, addend: 0x0, symName: __ZN8facebook5react27ConcreteComponentDescriptorINS0_25RNCSafeAreaViewShadowNodeEED1Ev, symObjAddr: 0x2BF8, symBinAddr: 0xAFF0, symSize: 0x4 }
  - { offset: 0x152D37, size: 0x8, addend: 0x0, symName: __ZN8facebook5react27ConcreteComponentDescriptorINS0_25RNCSafeAreaViewShadowNodeEED1Ev, symObjAddr: 0x2BF8, symBinAddr: 0xAFF0, symSize: 0x4 }
  - { offset: 0x152D55, size: 0x8, addend: 0x0, symName: __ZN8facebook5react27ConcreteComponentDescriptorINS0_25RNCSafeAreaViewShadowNodeEED1Ev, symObjAddr: 0x2BF8, symBinAddr: 0xAFF0, symSize: 0x4 }
  - { offset: 0x152D85, size: 0x8, addend: 0x0, symName: __ZN8facebook5react27ConcreteComponentDescriptorINS0_25RNCSafeAreaViewShadowNodeEED0Ev, symObjAddr: 0x2BFC, symBinAddr: 0xAFF4, symSize: 0x14 }
  - { offset: 0x152E03, size: 0x8, addend: 0x0, symName: __ZNK8facebook5react27ConcreteComponentDescriptorINS0_25RNCSafeAreaViewShadowNodeEE5adoptERNS0_10ShadowNodeE, symObjAddr: 0x2C10, symBinAddr: 0xB008, symSize: 0x4 }
  - { offset: 0x15369C, size: 0x8, addend: 0x0, symName: __ZNSt3__120__shared_ptr_emplaceIN8facebook5react25RNCSafeAreaViewShadowNodeENS_9allocatorIS3_EEEC2B8ne200100IJRKNS2_18ShadowNodeFragmentERKNS_10shared_ptrIKNS2_16ShadowNodeFamilyEEENS2_16ShadowNodeTraitsEES5_Li0EEES5_DpOT_, symObjAddr: 0x2F3C, symBinAddr: 0xB07C, symSize: 0x78 }
  - { offset: 0x153AD5, size: 0x8, addend: 0x0, symName: __ZNSt3__120__shared_ptr_emplaceIN8facebook5react25RNCSafeAreaViewShadowNodeENS_9allocatorIS3_EEED1Ev, symObjAddr: 0x2FB4, symBinAddr: 0xB0F4, symSize: 0x14 }
  - { offset: 0x153AF9, size: 0x8, addend: 0x0, symName: __ZNSt3__120__shared_ptr_emplaceIN8facebook5react25RNCSafeAreaViewShadowNodeENS_9allocatorIS3_EEED1Ev, symObjAddr: 0x2FB4, symBinAddr: 0xB0F4, symSize: 0x14 }
  - { offset: 0x153B30, size: 0x8, addend: 0x0, symName: __ZNSt3__120__shared_ptr_emplaceIN8facebook5react25RNCSafeAreaViewShadowNodeENS_9allocatorIS3_EEED0Ev, symObjAddr: 0x2FC8, symBinAddr: 0xB108, symSize: 0x24 }
  - { offset: 0x153C06, size: 0x8, addend: 0x0, symName: __ZNSt3__120__shared_ptr_emplaceIN8facebook5react25RNCSafeAreaViewShadowNodeENS_9allocatorIS3_EEE16__on_zero_sharedEv, symObjAddr: 0x2FEC, symBinAddr: 0xB12C, symSize: 0x8 }
  - { offset: 0x153C30, size: 0x8, addend: 0x0, symName: __ZNSt3__120__shared_ptr_emplaceIN8facebook5react25RNCSafeAreaViewShadowNodeENS_9allocatorIS3_EEE16__on_zero_sharedEv, symObjAddr: 0x2FEC, symBinAddr: 0xB12C, symSize: 0x8 }
  - { offset: 0x153C4F, size: 0x8, addend: 0x0, symName: __ZNSt3__120__shared_ptr_emplaceIN8facebook5react25RNCSafeAreaViewShadowNodeENS_9allocatorIS3_EEE16__on_zero_sharedEv, symObjAddr: 0x2FEC, symBinAddr: 0xB12C, symSize: 0x8 }
  - { offset: 0x153C8E, size: 0x8, addend: 0x0, symName: __ZNSt3__120__shared_ptr_emplaceIN8facebook5react25RNCSafeAreaViewShadowNodeENS_9allocatorIS3_EEE21__on_zero_shared_weakEv, symObjAddr: 0x2FF4, symBinAddr: 0xB134, symSize: 0x4 }
  - { offset: 0x153CC2, size: 0x8, addend: 0x0, symName: __ZNSt3__120__shared_ptr_emplaceIN8facebook5react25RNCSafeAreaViewShadowNodeENS_9allocatorIS3_EEE21__on_zero_shared_weakEv, symObjAddr: 0x2FF4, symBinAddr: 0xB134, symSize: 0x4 }
  - { offset: 0x153CE6, size: 0x8, addend: 0x0, symName: __ZNSt3__120__shared_ptr_emplaceIN8facebook5react25RNCSafeAreaViewShadowNodeENS_9allocatorIS3_EEE21__on_zero_shared_weakEv, symObjAddr: 0x2FF4, symBinAddr: 0xB134, symSize: 0x4 }
  - { offset: 0x153D0B, size: 0x8, addend: 0x0, symName: __ZNSt3__120__shared_ptr_emplaceIN8facebook5react25RNCSafeAreaViewShadowNodeENS_9allocatorIS3_EEE21__on_zero_shared_weakEv, symObjAddr: 0x2FF4, symBinAddr: 0xB134, symSize: 0x4 }
  - { offset: 0x153D43, size: 0x8, addend: 0x0, symName: __ZNSt3__120__shared_ptr_emplaceIN8facebook5react25RNCSafeAreaViewShadowNodeENS_9allocatorIS3_EEE21__on_zero_shared_weakEv, symObjAddr: 0x2FF4, symBinAddr: 0xB134, symSize: 0x4 }
  - { offset: 0x153FD2, size: 0x8, addend: 0x0, symName: __ZN8facebook5react25RNCSafeAreaViewShadowNodeD1Ev, symObjAddr: 0x2FF8, symBinAddr: 0xB138, symSize: 0x70 }
  - { offset: 0x15458F, size: 0x8, addend: 0x0, symName: __ZN8facebook5react25RNCSafeAreaViewShadowNodeD0Ev, symObjAddr: 0x3068, symBinAddr: 0xB1A8, symSize: 0x74 }
  - { offset: 0x1549F2, size: 0x8, addend: 0x0, symName: __ZNK8facebook5react22ConcreteViewShadowNodeIXadL_ZNS0_28RNCSafeAreaViewComponentNameEEENS0_20RNCSafeAreaViewPropsENS0_20BaseViewEventEmitterENS0_20RNCSafeAreaViewStateEE12getTransformEv, symObjAddr: 0x30DC, symBinAddr: 0xB21C, symSize: 0x40 }
  - { offset: 0x154A66, size: 0x8, addend: 0x0, symName: __ZNK8facebook5react22ConcreteViewShadowNodeIXadL_ZNS0_28RNCSafeAreaViewComponentNameEEENS0_20RNCSafeAreaViewPropsENS0_20BaseViewEventEmitterENS0_20RNCSafeAreaViewStateEE16canBeTouchTargetEv, symObjAddr: 0x311C, symBinAddr: 0xB25C, symSize: 0x18 }
  - { offset: 0x154AA0, size: 0x8, addend: 0x0, symName: __ZNK8facebook5react22ConcreteViewShadowNodeIXadL_ZNS0_28RNCSafeAreaViewComponentNameEEENS0_20RNCSafeAreaViewPropsENS0_20BaseViewEventEmitterENS0_20RNCSafeAreaViewStateEE16canBeTouchTargetEv, symObjAddr: 0x311C, symBinAddr: 0xB25C, symSize: 0x18 }
  - { offset: 0x154ABD, size: 0x8, addend: 0x0, symName: __ZNK8facebook5react22ConcreteViewShadowNodeIXadL_ZNS0_28RNCSafeAreaViewComponentNameEEENS0_20RNCSafeAreaViewPropsENS0_20BaseViewEventEmitterENS0_20RNCSafeAreaViewStateEE16canBeTouchTargetEv, symObjAddr: 0x311C, symBinAddr: 0xB25C, symSize: 0x18 }
  - { offset: 0x154ADB, size: 0x8, addend: 0x0, symName: __ZNK8facebook5react22ConcreteViewShadowNodeIXadL_ZNS0_28RNCSafeAreaViewComponentNameEEENS0_20RNCSafeAreaViewPropsENS0_20BaseViewEventEmitterENS0_20RNCSafeAreaViewStateEE24canChildrenBeTouchTargetEv, symObjAddr: 0x3134, symBinAddr: 0xB274, symSize: 0x18 }
  - { offset: 0x154B11, size: 0x8, addend: 0x0, symName: __ZNK8facebook5react22ConcreteViewShadowNodeIXadL_ZNS0_28RNCSafeAreaViewComponentNameEEENS0_20RNCSafeAreaViewPropsENS0_20BaseViewEventEmitterENS0_20RNCSafeAreaViewStateEE24canChildrenBeTouchTargetEv, symObjAddr: 0x3134, symBinAddr: 0xB274, symSize: 0x18 }
  - { offset: 0x154B2E, size: 0x8, addend: 0x0, symName: __ZNK8facebook5react22ConcreteViewShadowNodeIXadL_ZNS0_28RNCSafeAreaViewComponentNameEEENS0_20RNCSafeAreaViewPropsENS0_20BaseViewEventEmitterENS0_20RNCSafeAreaViewStateEE24canChildrenBeTouchTargetEv, symObjAddr: 0x3134, symBinAddr: 0xB274, symSize: 0x18 }
  - { offset: 0x154BBA, size: 0x8, addend: 0x0, symName: __ZN8facebook5react22ConcreteViewShadowNodeIXadL_ZNS0_28RNCSafeAreaViewComponentNameEEENS0_20RNCSafeAreaViewPropsENS0_20BaseViewEventEmitterENS0_20RNCSafeAreaViewStateEED1Ev, symObjAddr: 0x31B8, symBinAddr: 0xB28C, symSize: 0x70 }
  - { offset: 0x154FC2, size: 0x8, addend: 0x0, symName: __ZN8facebook5react22ConcreteViewShadowNodeIXadL_ZNS0_28RNCSafeAreaViewComponentNameEEENS0_20RNCSafeAreaViewPropsENS0_20BaseViewEventEmitterENS0_20RNCSafeAreaViewStateEED0Ev, symObjAddr: 0x3228, symBinAddr: 0xB2FC, symSize: 0x74 }
  - { offset: 0x1556E2, size: 0x8, addend: 0x0, symName: __ZNSt3__120__shared_ptr_emplaceIN8facebook5react25RNCSafeAreaViewShadowNodeENS_9allocatorIS3_EEEC2B8ne200100IJRKNS2_10ShadowNodeERKNS2_18ShadowNodeFragmentEES5_Li0EEES5_DpOT_, symObjAddr: 0x35F0, symBinAddr: 0xB440, symSize: 0x74 }
  - { offset: 0x155C75, size: 0x8, addend: 0x0, symName: __ZNSt3__120__shared_ptr_emplaceIN8facebook5react20RNCSafeAreaViewPropsENS_9allocatorIS3_EEEC2B8ne200100IJRKNS2_18PropsParserContextERKS3_RKNS2_8RawPropsEES5_Li0EEES5_DpOT_, symObjAddr: 0x3820, symBinAddr: 0xB618, symSize: 0x4C }
  - { offset: 0x155E77, size: 0x8, addend: 0x0, symName: __ZNSt3__120__shared_ptr_emplaceIN8facebook5react20RNCSafeAreaViewPropsENS_9allocatorIS3_EEED1Ev, symObjAddr: 0x386C, symBinAddr: 0xB664, symSize: 0x14 }
  - { offset: 0x155E9B, size: 0x8, addend: 0x0, symName: __ZNSt3__120__shared_ptr_emplaceIN8facebook5react20RNCSafeAreaViewPropsENS_9allocatorIS3_EEED1Ev, symObjAddr: 0x386C, symBinAddr: 0xB664, symSize: 0x14 }
  - { offset: 0x155ED2, size: 0x8, addend: 0x0, symName: __ZNSt3__120__shared_ptr_emplaceIN8facebook5react20RNCSafeAreaViewPropsENS_9allocatorIS3_EEED0Ev, symObjAddr: 0x3880, symBinAddr: 0xB678, symSize: 0x24 }
  - { offset: 0x155F77, size: 0x8, addend: 0x0, symName: __ZNSt3__120__shared_ptr_emplaceIN8facebook5react20RNCSafeAreaViewPropsENS_9allocatorIS3_EEE16__on_zero_sharedEv, symObjAddr: 0x38A4, symBinAddr: 0xB69C, symSize: 0x8 }
  - { offset: 0x155FA1, size: 0x8, addend: 0x0, symName: __ZNSt3__120__shared_ptr_emplaceIN8facebook5react20RNCSafeAreaViewPropsENS_9allocatorIS3_EEE16__on_zero_sharedEv, symObjAddr: 0x38A4, symBinAddr: 0xB69C, symSize: 0x8 }
  - { offset: 0x155FC0, size: 0x8, addend: 0x0, symName: __ZNSt3__120__shared_ptr_emplaceIN8facebook5react20RNCSafeAreaViewPropsENS_9allocatorIS3_EEE16__on_zero_sharedEv, symObjAddr: 0x38A4, symBinAddr: 0xB69C, symSize: 0x8 }
  - { offset: 0x155FFF, size: 0x8, addend: 0x0, symName: __ZNSt3__120__shared_ptr_emplaceIN8facebook5react20RNCSafeAreaViewPropsENS_9allocatorIS3_EEE21__on_zero_shared_weakEv, symObjAddr: 0x38AC, symBinAddr: 0xB6A4, symSize: 0x4 }
  - { offset: 0x156033, size: 0x8, addend: 0x0, symName: __ZNSt3__120__shared_ptr_emplaceIN8facebook5react20RNCSafeAreaViewPropsENS_9allocatorIS3_EEE21__on_zero_shared_weakEv, symObjAddr: 0x38AC, symBinAddr: 0xB6A4, symSize: 0x4 }
  - { offset: 0x156057, size: 0x8, addend: 0x0, symName: __ZNSt3__120__shared_ptr_emplaceIN8facebook5react20RNCSafeAreaViewPropsENS_9allocatorIS3_EEE21__on_zero_shared_weakEv, symObjAddr: 0x38AC, symBinAddr: 0xB6A4, symSize: 0x4 }
  - { offset: 0x15607C, size: 0x8, addend: 0x0, symName: __ZNSt3__120__shared_ptr_emplaceIN8facebook5react20RNCSafeAreaViewPropsENS_9allocatorIS3_EEE21__on_zero_shared_weakEv, symObjAddr: 0x38AC, symBinAddr: 0xB6A4, symSize: 0x4 }
  - { offset: 0x1560B4, size: 0x8, addend: 0x0, symName: __ZNSt3__120__shared_ptr_emplaceIN8facebook5react20RNCSafeAreaViewPropsENS_9allocatorIS3_EEE21__on_zero_shared_weakEv, symObjAddr: 0x38AC, symBinAddr: 0xB6A4, symSize: 0x4 }
  - { offset: 0x156799, size: 0x8, addend: 0x0, symName: __ZNSt3__120__shared_ptr_emplaceIN8facebook5react13ConcreteStateINS2_20RNCSafeAreaViewStateEEENS_9allocatorIS5_EEEC2B8ne200100IJNS_10shared_ptrIKS4_EERKNSA_IKNS2_16ShadowNodeFamilyEEEES7_Li0EEES7_DpOT_, symObjAddr: 0x3B6C, symBinAddr: 0xB708, symSize: 0x4C }
  - { offset: 0x156958, size: 0x8, addend: 0x0, symName: __ZNSt3__120__shared_ptr_emplaceIN8facebook5react13ConcreteStateINS2_20RNCSafeAreaViewStateEEENS_9allocatorIS5_EEED1Ev, symObjAddr: 0x3BB8, symBinAddr: 0xB754, symSize: 0x14 }
  - { offset: 0x15697C, size: 0x8, addend: 0x0, symName: __ZNSt3__120__shared_ptr_emplaceIN8facebook5react13ConcreteStateINS2_20RNCSafeAreaViewStateEEENS_9allocatorIS5_EEED1Ev, symObjAddr: 0x3BB8, symBinAddr: 0xB754, symSize: 0x14 }
  - { offset: 0x1569B3, size: 0x8, addend: 0x0, symName: __ZNSt3__120__shared_ptr_emplaceIN8facebook5react13ConcreteStateINS2_20RNCSafeAreaViewStateEEENS_9allocatorIS5_EEED0Ev, symObjAddr: 0x3BCC, symBinAddr: 0xB768, symSize: 0x24 }
  - { offset: 0x156A89, size: 0x8, addend: 0x0, symName: __ZNSt3__120__shared_ptr_emplaceIN8facebook5react13ConcreteStateINS2_20RNCSafeAreaViewStateEEENS_9allocatorIS5_EEE16__on_zero_sharedEv, symObjAddr: 0x3BF0, symBinAddr: 0xB78C, symSize: 0xC }
  - { offset: 0x156AB3, size: 0x8, addend: 0x0, symName: __ZNSt3__120__shared_ptr_emplaceIN8facebook5react13ConcreteStateINS2_20RNCSafeAreaViewStateEEENS_9allocatorIS5_EEE16__on_zero_sharedEv, symObjAddr: 0x3BF0, symBinAddr: 0xB78C, symSize: 0xC }
  - { offset: 0x156AD2, size: 0x8, addend: 0x0, symName: __ZNSt3__120__shared_ptr_emplaceIN8facebook5react13ConcreteStateINS2_20RNCSafeAreaViewStateEEENS_9allocatorIS5_EEE16__on_zero_sharedEv, symObjAddr: 0x3BF0, symBinAddr: 0xB78C, symSize: 0xC }
  - { offset: 0x156AF1, size: 0x8, addend: 0x0, symName: __ZNSt3__120__shared_ptr_emplaceIN8facebook5react13ConcreteStateINS2_20RNCSafeAreaViewStateEEENS_9allocatorIS5_EEE16__on_zero_sharedEv, symObjAddr: 0x3BF0, symBinAddr: 0xB78C, symSize: 0xC }
  - { offset: 0x156B1D, size: 0x8, addend: 0x0, symName: __ZNSt3__120__shared_ptr_emplaceIN8facebook5react13ConcreteStateINS2_20RNCSafeAreaViewStateEEENS_9allocatorIS5_EEE21__on_zero_shared_weakEv, symObjAddr: 0x3BFC, symBinAddr: 0xB798, symSize: 0x4 }
  - { offset: 0x156B51, size: 0x8, addend: 0x0, symName: __ZNSt3__120__shared_ptr_emplaceIN8facebook5react13ConcreteStateINS2_20RNCSafeAreaViewStateEEENS_9allocatorIS5_EEE21__on_zero_shared_weakEv, symObjAddr: 0x3BFC, symBinAddr: 0xB798, symSize: 0x4 }
  - { offset: 0x156B75, size: 0x8, addend: 0x0, symName: __ZNSt3__120__shared_ptr_emplaceIN8facebook5react13ConcreteStateINS2_20RNCSafeAreaViewStateEEENS_9allocatorIS5_EEE21__on_zero_shared_weakEv, symObjAddr: 0x3BFC, symBinAddr: 0xB798, symSize: 0x4 }
  - { offset: 0x156B9A, size: 0x8, addend: 0x0, symName: __ZNSt3__120__shared_ptr_emplaceIN8facebook5react13ConcreteStateINS2_20RNCSafeAreaViewStateEEENS_9allocatorIS5_EEE21__on_zero_shared_weakEv, symObjAddr: 0x3BFC, symBinAddr: 0xB798, symSize: 0x4 }
  - { offset: 0x156BD1, size: 0x8, addend: 0x0, symName: __ZNSt3__120__shared_ptr_emplaceIN8facebook5react13ConcreteStateINS2_20RNCSafeAreaViewStateEEENS_9allocatorIS5_EEE21__on_zero_shared_weakEv, symObjAddr: 0x3BFC, symBinAddr: 0xB798, symSize: 0x4 }
  - { offset: 0x156CEA, size: 0x8, addend: 0x0, symName: __ZN8facebook5react13ConcreteStateINS0_20RNCSafeAreaViewStateEEC2ENSt3__110shared_ptrIKS2_EENS4_8weak_ptrIKNS0_16ShadowNodeFamilyEEE, symObjAddr: 0x3CC8, symBinAddr: 0xB864, symSize: 0xBC }
  - { offset: 0x156F99, size: 0x8, addend: 0x0, symName: __ZN8facebook5react13ConcreteStateINS0_20RNCSafeAreaViewStateEED1Ev, symObjAddr: 0x3D84, symBinAddr: 0xB920, symSize: 0x4 }
  - { offset: 0x156FBD, size: 0x8, addend: 0x0, symName: __ZN8facebook5react13ConcreteStateINS0_20RNCSafeAreaViewStateEED1Ev, symObjAddr: 0x3D84, symBinAddr: 0xB920, symSize: 0x4 }
  - { offset: 0x156FDB, size: 0x8, addend: 0x0, symName: __ZN8facebook5react13ConcreteStateINS0_20RNCSafeAreaViewStateEED1Ev, symObjAddr: 0x3D84, symBinAddr: 0xB920, symSize: 0x4 }
  - { offset: 0x156FEF, size: 0x8, addend: 0x0, symName: __ZN8facebook5react5StateD2Ev, symObjAddr: 0x3D9C, symBinAddr: 0xB938, symSize: 0x40 }
  - { offset: 0x157098, size: 0x8, addend: 0x0, symName: __ZN8facebook5react13ConcreteStateINS0_20RNCSafeAreaViewStateEED0Ev, symObjAddr: 0x3D88, symBinAddr: 0xB924, symSize: 0x14 }
  - { offset: 0x157114, size: 0x8, addend: 0x0, symName: __ZN8facebook5react5StateD1Ev, symObjAddr: 0x3DDC, symBinAddr: 0xB978, symSize: 0x4 }
  - { offset: 0x157138, size: 0x8, addend: 0x0, symName: __ZN8facebook5react5StateD1Ev, symObjAddr: 0x3DDC, symBinAddr: 0xB978, symSize: 0x4 }
  - { offset: 0x15716B, size: 0x8, addend: 0x0, symName: __ZN8facebook5react5StateD0Ev, symObjAddr: 0x3DE0, symBinAddr: 0xB97C, symSize: 0x14 }
  - { offset: 0x15742B, size: 0x8, addend: 0x0, symName: __ZNSt3__120__shared_ptr_emplaceIKN8facebook5react13ConcreteStateINS2_20RNCSafeAreaViewStateEEENS_9allocatorIS5_EEEC2B8ne200100IJNS_10shared_ptrIKS4_EERKNS2_5StateEES8_Li0EEES8_DpOT_, symObjAddr: 0x3E54, symBinAddr: 0xB9F0, symSize: 0x4C }
  - { offset: 0x1575E4, size: 0x8, addend: 0x0, symName: __ZNSt3__120__shared_ptr_emplaceIKN8facebook5react13ConcreteStateINS2_20RNCSafeAreaViewStateEEENS_9allocatorIS5_EEED1Ev, symObjAddr: 0x3EA0, symBinAddr: 0xBA3C, symSize: 0x14 }
  - { offset: 0x157608, size: 0x8, addend: 0x0, symName: __ZNSt3__120__shared_ptr_emplaceIKN8facebook5react13ConcreteStateINS2_20RNCSafeAreaViewStateEEENS_9allocatorIS5_EEED1Ev, symObjAddr: 0x3EA0, symBinAddr: 0xBA3C, symSize: 0x14 }
  - { offset: 0x15763F, size: 0x8, addend: 0x0, symName: __ZNSt3__120__shared_ptr_emplaceIKN8facebook5react13ConcreteStateINS2_20RNCSafeAreaViewStateEEENS_9allocatorIS5_EEED0Ev, symObjAddr: 0x3EB4, symBinAddr: 0xBA50, symSize: 0x24 }
  - { offset: 0x1576E4, size: 0x8, addend: 0x0, symName: __ZNSt3__120__shared_ptr_emplaceIKN8facebook5react13ConcreteStateINS2_20RNCSafeAreaViewStateEEENS_9allocatorIS5_EEE16__on_zero_sharedEv, symObjAddr: 0x3ED8, symBinAddr: 0xBA74, symSize: 0xC }
  - { offset: 0x15770E, size: 0x8, addend: 0x0, symName: __ZNSt3__120__shared_ptr_emplaceIKN8facebook5react13ConcreteStateINS2_20RNCSafeAreaViewStateEEENS_9allocatorIS5_EEE16__on_zero_sharedEv, symObjAddr: 0x3ED8, symBinAddr: 0xBA74, symSize: 0xC }
  - { offset: 0x15772D, size: 0x8, addend: 0x0, symName: __ZNSt3__120__shared_ptr_emplaceIKN8facebook5react13ConcreteStateINS2_20RNCSafeAreaViewStateEEENS_9allocatorIS5_EEE16__on_zero_sharedEv, symObjAddr: 0x3ED8, symBinAddr: 0xBA74, symSize: 0xC }
  - { offset: 0x15774C, size: 0x8, addend: 0x0, symName: __ZNSt3__120__shared_ptr_emplaceIKN8facebook5react13ConcreteStateINS2_20RNCSafeAreaViewStateEEENS_9allocatorIS5_EEE16__on_zero_sharedEv, symObjAddr: 0x3ED8, symBinAddr: 0xBA74, symSize: 0xC }
  - { offset: 0x157778, size: 0x8, addend: 0x0, symName: __ZNSt3__120__shared_ptr_emplaceIKN8facebook5react13ConcreteStateINS2_20RNCSafeAreaViewStateEEENS_9allocatorIS5_EEE21__on_zero_shared_weakEv, symObjAddr: 0x3EE4, symBinAddr: 0xBA80, symSize: 0x4 }
  - { offset: 0x1577AC, size: 0x8, addend: 0x0, symName: __ZNSt3__120__shared_ptr_emplaceIKN8facebook5react13ConcreteStateINS2_20RNCSafeAreaViewStateEEENS_9allocatorIS5_EEE21__on_zero_shared_weakEv, symObjAddr: 0x3EE4, symBinAddr: 0xBA80, symSize: 0x4 }
  - { offset: 0x1577D0, size: 0x8, addend: 0x0, symName: __ZNSt3__120__shared_ptr_emplaceIKN8facebook5react13ConcreteStateINS2_20RNCSafeAreaViewStateEEENS_9allocatorIS5_EEE21__on_zero_shared_weakEv, symObjAddr: 0x3EE4, symBinAddr: 0xBA80, symSize: 0x4 }
  - { offset: 0x1577F5, size: 0x8, addend: 0x0, symName: __ZNSt3__120__shared_ptr_emplaceIKN8facebook5react13ConcreteStateINS2_20RNCSafeAreaViewStateEEENS_9allocatorIS5_EEE21__on_zero_shared_weakEv, symObjAddr: 0x3EE4, symBinAddr: 0xBA80, symSize: 0x4 }
  - { offset: 0x15782C, size: 0x8, addend: 0x0, symName: __ZNSt3__120__shared_ptr_emplaceIKN8facebook5react13ConcreteStateINS2_20RNCSafeAreaViewStateEEENS_9allocatorIS5_EEE21__on_zero_shared_weakEv, symObjAddr: 0x3EE4, symBinAddr: 0xBA80, symSize: 0x4 }
  - { offset: 0x157887, size: 0x8, addend: 0x0, symName: __ZN8facebook5react13ConcreteStateINS0_20RNCSafeAreaViewStateEEC2ENSt3__110shared_ptrIKS2_EERKNS0_5StateE, symObjAddr: 0x3F70, symBinAddr: 0xBB0C, symSize: 0x98 }
  - { offset: 0x157C61, size: 0x8, addend: 0x0, symName: __ZNSt3__120__shared_ptr_emplaceIKN8facebook5react20BaseViewEventEmitterENS_9allocatorIS3_EEEC2B8ne200100IJNS_10shared_ptrINS2_11EventTargetEEERKNS_8weak_ptrIKNS2_15EventDispatcherEEEES6_Li0EEES6_DpOT_, symObjAddr: 0x4068, symBinAddr: 0xBC04, symSize: 0x4C }
  - { offset: 0x157E20, size: 0x8, addend: 0x0, symName: __ZNSt3__120__shared_ptr_emplaceIKN8facebook5react20BaseViewEventEmitterENS_9allocatorIS3_EEED1Ev, symObjAddr: 0x40B4, symBinAddr: 0xBC50, symSize: 0x14 }
  - { offset: 0x157E44, size: 0x8, addend: 0x0, symName: __ZNSt3__120__shared_ptr_emplaceIKN8facebook5react20BaseViewEventEmitterENS_9allocatorIS3_EEED1Ev, symObjAddr: 0x40B4, symBinAddr: 0xBC50, symSize: 0x14 }
  - { offset: 0x157E7B, size: 0x8, addend: 0x0, symName: __ZNSt3__120__shared_ptr_emplaceIKN8facebook5react20BaseViewEventEmitterENS_9allocatorIS3_EEED0Ev, symObjAddr: 0x40C8, symBinAddr: 0xBC64, symSize: 0x24 }
  - { offset: 0x157F51, size: 0x8, addend: 0x0, symName: __ZNSt3__120__shared_ptr_emplaceIKN8facebook5react20BaseViewEventEmitterENS_9allocatorIS3_EEE16__on_zero_sharedEv, symObjAddr: 0x40EC, symBinAddr: 0xBC88, symSize: 0xC }
  - { offset: 0x157F7B, size: 0x8, addend: 0x0, symName: __ZNSt3__120__shared_ptr_emplaceIKN8facebook5react20BaseViewEventEmitterENS_9allocatorIS3_EEE16__on_zero_sharedEv, symObjAddr: 0x40EC, symBinAddr: 0xBC88, symSize: 0xC }
  - { offset: 0x157F9A, size: 0x8, addend: 0x0, symName: __ZNSt3__120__shared_ptr_emplaceIKN8facebook5react20BaseViewEventEmitterENS_9allocatorIS3_EEE16__on_zero_sharedEv, symObjAddr: 0x40EC, symBinAddr: 0xBC88, symSize: 0xC }
  - { offset: 0x157FB9, size: 0x8, addend: 0x0, symName: __ZNSt3__120__shared_ptr_emplaceIKN8facebook5react20BaseViewEventEmitterENS_9allocatorIS3_EEE16__on_zero_sharedEv, symObjAddr: 0x40EC, symBinAddr: 0xBC88, symSize: 0xC }
  - { offset: 0x157FE5, size: 0x8, addend: 0x0, symName: __ZNSt3__120__shared_ptr_emplaceIKN8facebook5react20BaseViewEventEmitterENS_9allocatorIS3_EEE21__on_zero_shared_weakEv, symObjAddr: 0x40F8, symBinAddr: 0xBC94, symSize: 0x4 }
  - { offset: 0x158019, size: 0x8, addend: 0x0, symName: __ZNSt3__120__shared_ptr_emplaceIKN8facebook5react20BaseViewEventEmitterENS_9allocatorIS3_EEE21__on_zero_shared_weakEv, symObjAddr: 0x40F8, symBinAddr: 0xBC94, symSize: 0x4 }
  - { offset: 0x15803D, size: 0x8, addend: 0x0, symName: __ZNSt3__120__shared_ptr_emplaceIKN8facebook5react20BaseViewEventEmitterENS_9allocatorIS3_EEE21__on_zero_shared_weakEv, symObjAddr: 0x40F8, symBinAddr: 0xBC94, symSize: 0x4 }
  - { offset: 0x158062, size: 0x8, addend: 0x0, symName: __ZNSt3__120__shared_ptr_emplaceIKN8facebook5react20BaseViewEventEmitterENS_9allocatorIS3_EEE21__on_zero_shared_weakEv, symObjAddr: 0x40F8, symBinAddr: 0xBC94, symSize: 0x4 }
  - { offset: 0x158099, size: 0x8, addend: 0x0, symName: __ZNSt3__120__shared_ptr_emplaceIKN8facebook5react20BaseViewEventEmitterENS_9allocatorIS3_EEE21__on_zero_shared_weakEv, symObjAddr: 0x40F8, symBinAddr: 0xBC94, symSize: 0x4 }
  - { offset: 0x158C58, size: 0x8, addend: 0x0, symName: __ZNSt3__120__shared_ptr_emplaceIN8facebook5react16ShadowNodeFamilyENS_9allocatorIS3_EEEC2B8ne200100IJRKNS2_24ShadowNodeFamilyFragmentERNS_10shared_ptrIKNS2_20BaseViewEventEmitterEEERKNS_8weak_ptrIKNS2_15EventDispatcherEEERKNS2_27ConcreteComponentDescriptorINS2_25RNCSafeAreaViewShadowNodeEEEES5_Li0EEES5_DpOT_, symObjAddr: 0x46D0, symBinAddr: 0xBE40, symSize: 0x4C }
  - { offset: 0x158FFB, size: 0x8, addend: 0x0, symName: __GLOBAL__sub_I_RNCSafeAreaViewComponentView.mm, symObjAddr: 0x4DB8, symBinAddr: 0xBF68, symSize: 0x20 }
  - { offset: 0x15B2F2, size: 0x8, addend: 0x0, symName: '+[RCTConvert(RNCSafeAreaViewEdgeMode) RNCSafeAreaViewEdgeMode:]', symObjAddr: 0x0, symBinAddr: 0xBF88, symSize: 0x78 }
  - { offset: 0x15B300, size: 0x8, addend: 0x0, symName: '+[RCTConvert(RNCSafeAreaViewEdgeMode) RNCSafeAreaViewEdgeMode:]', symObjAddr: 0x0, symBinAddr: 0xBF88, symSize: 0x78 }
  - { offset: 0x15B32A, size: 0x8, addend: 0x0, symName: '_RNCSafeAreaViewEdgeMode:.mapping', symObjAddr: 0x1F98, symBinAddr: 0x19D78, symSize: 0x0 }
  - { offset: 0x15B340, size: 0x8, addend: 0x0, symName: '_RNCSafeAreaViewEdgeMode:.onceToken', symObjAddr: 0x1FA0, symBinAddr: 0x19D80, symSize: 0x0 }
  - { offset: 0x15B46F, size: 0x8, addend: 0x0, symName: '+[RCTConvert(RNCSafeAreaViewEdgeMode) RNCSafeAreaViewEdgeMode:].cold.1', symObjAddr: 0x90, symBinAddr: 0xDF68, symSize: 0x14 }
  - { offset: 0x15B48B, size: 0x8, addend: 0x0, symName: '+[RCTConvert(RNCSafeAreaViewEdgeMode) RNCSafeAreaViewEdgeMode:].cold.1', symObjAddr: 0x90, symBinAddr: 0xDF68, symSize: 0x14 }
  - { offset: 0x15B49D, size: 0x8, addend: 0x0, symName: '___63+[RCTConvert(RNCSafeAreaViewEdgeMode) RNCSafeAreaViewEdgeMode:]_block_invoke', symObjAddr: 0x78, symBinAddr: 0xC000, symSize: 0x18 }
  - { offset: 0x15B59F, size: 0x8, addend: 0x0, symName: _RNCSafeAreaViewEdgesMake, symObjAddr: 0x0, symBinAddr: 0xC018, symSize: 0xC }
  - { offset: 0x15B5D4, size: 0x8, addend: 0x0, symName: _RNCSafeAreaViewEdgesMake, symObjAddr: 0x0, symBinAddr: 0xC018, symSize: 0xC }
  - { offset: 0x15B636, size: 0x8, addend: 0x0, symName: _RNCSafeAreaViewEdgesMakeString, symObjAddr: 0xC, symBinAddr: 0xC024, symSize: 0xB8 }
  - { offset: 0x15B6A1, size: 0x8, addend: 0x0, symName: '+[RCTConvert(RNCSafeAreaViewEdges) RNCSafeAreaViewEdges:]', symObjAddr: 0xC4, symBinAddr: 0xC0DC, symSize: 0xC4 }
  - { offset: 0x15B7F2, size: 0x8, addend: 0x0, symName: '-[RNCSafeAreaViewLocalData initWithInsets:mode:edges:]', symObjAddr: 0x0, symBinAddr: 0xC1A0, symSize: 0x7C }
  - { offset: 0x15B901, size: 0x8, addend: 0x0, symName: '-[RNCSafeAreaViewLocalData initWithInsets:mode:edges:]', symObjAddr: 0x0, symBinAddr: 0xC1A0, symSize: 0x7C }
  - { offset: 0x15B968, size: 0x8, addend: 0x0, symName: '-[RNCSafeAreaViewLocalData insets]', symObjAddr: 0x7C, symBinAddr: 0xC21C, symSize: 0x3C }
  - { offset: 0x15B99F, size: 0x8, addend: 0x0, symName: '-[RNCSafeAreaViewLocalData mode]', symObjAddr: 0xB8, symBinAddr: 0xC258, symSize: 0x8 }
  - { offset: 0x15B9D6, size: 0x8, addend: 0x0, symName: '-[RNCSafeAreaViewLocalData edges]', symObjAddr: 0xC0, symBinAddr: 0xC260, symSize: 0x18 }
  - { offset: 0x15BA98, size: 0x8, addend: 0x0, symName: '+[RNCSafeAreaViewManager moduleName]', symObjAddr: 0x0, symBinAddr: 0xC278, symSize: 0xC }
  - { offset: 0x15BAB7, size: 0x8, addend: 0x0, symName: '+[RNCSafeAreaViewManager moduleName]', symObjAddr: 0x0, symBinAddr: 0xC278, symSize: 0xC }
  - { offset: 0x15BAEA, size: 0x8, addend: 0x0, symName: '+[RNCSafeAreaViewManager load]', symObjAddr: 0xC, symBinAddr: 0xC284, symSize: 0x4 }
  - { offset: 0x15BB1E, size: 0x8, addend: 0x0, symName: '+[RNCSafeAreaViewManager load]', symObjAddr: 0xC, symBinAddr: 0xC284, symSize: 0x4 }
  - { offset: 0x15BB53, size: 0x8, addend: 0x0, symName: '-[RNCSafeAreaViewManager view]', symObjAddr: 0x10, symBinAddr: 0xC288, symSize: 0x54 }
  - { offset: 0x15BB8A, size: 0x8, addend: 0x0, symName: '-[RNCSafeAreaViewManager shadowView]', symObjAddr: 0x64, symBinAddr: 0xC2DC, symSize: 0x1C }
  - { offset: 0x15BBBD, size: 0x8, addend: 0x0, symName: '+[RNCSafeAreaViewManager propConfig_mode]', symObjAddr: 0x80, symBinAddr: 0xC2F8, symSize: 0xC }
  - { offset: 0x15BBF0, size: 0x8, addend: 0x0, symName: '+[RNCSafeAreaViewManager propConfig_edges]', symObjAddr: 0x8C, symBinAddr: 0xC304, symSize: 0xC }
  - { offset: 0x15BCC1, size: 0x8, addend: 0x0, symName: '+[RCTConvert(RNCSafeAreaView) RNCSafeAreaViewMode:]', symObjAddr: 0x0, symBinAddr: 0xC310, symSize: 0x78 }
  - { offset: 0x15BCCF, size: 0x8, addend: 0x0, symName: '+[RCTConvert(RNCSafeAreaView) RNCSafeAreaViewMode:]', symObjAddr: 0x0, symBinAddr: 0xC310, symSize: 0x78 }
  - { offset: 0x15BCF9, size: 0x8, addend: 0x0, symName: '_RNCSafeAreaViewMode:.mapping', symObjAddr: 0x1EE0, symBinAddr: 0x19D88, symSize: 0x0 }
  - { offset: 0x15BD0F, size: 0x8, addend: 0x0, symName: '_RNCSafeAreaViewMode:.onceToken', symObjAddr: 0x1EE8, symBinAddr: 0x19D90, symSize: 0x0 }
  - { offset: 0x15BE3E, size: 0x8, addend: 0x0, symName: '+[RCTConvert(RNCSafeAreaView) RNCSafeAreaViewMode:].cold.1', symObjAddr: 0x90, symBinAddr: 0xDF7C, symSize: 0x14 }
  - { offset: 0x15BE5A, size: 0x8, addend: 0x0, symName: '+[RCTConvert(RNCSafeAreaView) RNCSafeAreaViewMode:].cold.1', symObjAddr: 0x90, symBinAddr: 0xDF7C, symSize: 0x14 }
  - { offset: 0x15BE6C, size: 0x8, addend: 0x0, symName: '___51+[RCTConvert(RNCSafeAreaView) RNCSafeAreaViewMode:]_block_invoke', symObjAddr: 0x78, symBinAddr: 0xC388, symSize: 0x18 }
  - { offset: 0x15BF6D, size: 0x8, addend: 0x0, symName: __ZN8facebook5react25RNCSafeAreaViewShadowNode21adjustLayoutWithStateEv, symObjAddr: 0x0, symBinAddr: 0xC3A0, symSize: 0xDC4 }
  - { offset: 0x15BF93, size: 0x8, addend: 0x0, symName: __ZN8facebook5react28RNCSafeAreaViewComponentNameE, symObjAddr: 0x1DBC, symBinAddr: 0x104DD, symSize: 0x0 }
  - { offset: 0x15CF45, size: 0x8, addend: 0x0, symName: __ZN8facebook5react28RNCSafeAreaViewComponentNameE, symObjAddr: 0x1DBC, symBinAddr: 0x104DD, symSize: 0x0 }
  - { offset: 0x175D4A, size: 0x8, addend: 0x0, symName: __ZNSt3__120__throw_out_of_rangeB8ne200100EPKc, symObjAddr: 0x1034, symBinAddr: 0xD3D4, symSize: 0x50 }
  - { offset: 0x1763B7, size: 0x8, addend: 0x0, symName: __ZNSt3__119__allocate_at_leastB8ne200100INS_9allocatorIjEEEENS_19__allocation_resultINS_16allocator_traitsIT_E7pointerEEERS5_m, symObjAddr: 0x13B8, symBinAddr: 0xD6D0, symSize: 0x34 }
  - { offset: 0x176468, size: 0x8, addend: 0x0, symName: __ZNSt3__16vectorIbNS_9allocatorIbEEEC2ERKS3_, symObjAddr: 0x13EC, symBinAddr: 0xD704, symSize: 0x58 }
  - { offset: 0x1764F4, size: 0x8, addend: 0x0, symName: __ZNSt3__119__allocate_at_leastB8ne200100INS_9allocatorImEEEENS_19__allocation_resultINS_16allocator_traitsIT_E7pointerEEERS5_m, symObjAddr: 0x151C, symBinAddr: 0xD820, symSize: 0x34 }
  - { offset: 0x1765A5, size: 0x8, addend: 0x0, symName: __ZNKSt3__111__copy_implclB8ne200100INS_14__bit_iteratorINS_6vectorIbNS_9allocatorIbEEEELb1ELm0EEES7_NS2_IS6_Lb0ELm0EEEEENS_4pairIT_T1_EESA_T0_SB_, symObjAddr: 0x1550, symBinAddr: 0xD854, symSize: 0xA4 }
  - { offset: 0x176E4F, size: 0x8, addend: 0x0, symName: __ZNSt3__124__copy_move_unwrap_itersB8ne200100INS_11__copy_implENS_14__bit_iteratorINS_6vectorIbNS_9allocatorIbEEEELb0ELm0EEES7_S7_Li0EEENS_4pairIT0_T2_EES9_T1_SA_, symObjAddr: 0x1AA8, symBinAddr: 0xDD68, symSize: 0x8C }
  - { offset: 0x17807E, size: 0x8, addend: 0x0, symName: __ZSt28__throw_bad_array_new_lengthB8ne200100v, symObjAddr: 0x11B0, symBinAddr: 0xD4C8, symSize: 0x28 }
  - { offset: 0x17BA39, size: 0x8, addend: 0x0, symName: __ZN8facebook5react25RNCSafeAreaViewShadowNode21adjustLayoutWithStateEv, symObjAddr: 0x0, symBinAddr: 0xC3A0, symSize: 0xDC4 }
  - { offset: 0x17E587, size: 0x8, addend: 0x0, symName: __ZN8facebook5react26RNCSafeAreaViewEdgesStructC2ERKS1_, symObjAddr: 0xE24, symBinAddr: 0xD1C4, symSize: 0x110 }
  - { offset: 0x17EA3D, size: 0x8, addend: 0x0, symName: __ZNK8facebook4yoga14StyleValuePool9getLengthENS0_16StyleValueHandleE, symObjAddr: 0xF34, symBinAddr: 0xD2D4, symSize: 0xEC }
  - { offset: 0x17EA77, size: 0x8, addend: 0x0, symName: __ZNK8facebook4yoga14StyleValuePool9getLengthENS0_16StyleValueHandleE, symObjAddr: 0xF34, symBinAddr: 0xD2D4, symSize: 0xEC }
  - { offset: 0x17EBA7, size: 0x8, addend: 0x0, symName: __ZNSt3__16vectorIjNS_9allocatorIjEEE20__throw_out_of_rangeB8ne200100Ev, symObjAddr: 0x1020, symBinAddr: 0xD3C0, symSize: 0x14 }
  - { offset: 0x17EBB2, size: 0x8, addend: 0x0, symName: __ZNSt3__112basic_stringIcNS_11char_traitsIcEENS_9allocatorIcEEE25__init_copy_ctor_externalEPKcm, symObjAddr: 0x10A8, symBinAddr: 0xD448, symSize: 0x80 }
  - { offset: 0x17EDAB, size: 0x8, addend: 0x0, symName: __ZN8facebook4yoga16SmallValueBufferILm4EEC2ERKS2_, symObjAddr: 0x11D8, symBinAddr: 0xD4F0, symSize: 0x5C }
  - { offset: 0x17EEEA, size: 0x8, addend: 0x0, symName: __ZN8facebook4yoga14StyleValuePool5storeERNS0_16StyleValueHandleENS0_11StyleLengthE, symObjAddr: 0x1638, symBinAddr: 0xD8F8, symSize: 0x44 }
  - { offset: 0x17EFB4, size: 0x8, addend: 0x0, symName: __ZN8facebook4yoga16SmallValueBufferILm4EEaSERKS2_, symObjAddr: 0x1234, symBinAddr: 0xD54C, symSize: 0xC0 }
  - { offset: 0x17F3FA, size: 0x8, addend: 0x0, symName: __ZN8facebook5react26RNCSafeAreaViewEdgesStructD1Ev, symObjAddr: 0xDC4, symBinAddr: 0xD164, symSize: 0x60 }
  - { offset: 0x17F9FD, size: 0x8, addend: 0x0, symName: __ZNSt3__16vectorIjNS_9allocatorIjEEE20__throw_out_of_rangeB8ne200100Ev, symObjAddr: 0x1020, symBinAddr: 0xD3C0, symSize: 0x14 }
  - { offset: 0x17FA15, size: 0x8, addend: 0x0, symName: __ZNSt3__120__throw_out_of_rangeB8ne200100EPKc, symObjAddr: 0x1034, symBinAddr: 0xD3D4, symSize: 0x50 }
  - { offset: 0x17FA20, size: 0x8, addend: 0x0, symName: __ZNSt12out_of_rangeC1B8ne200100EPKc, symObjAddr: 0x1084, symBinAddr: 0xD424, symSize: 0x24 }
  - { offset: 0x17FE79, size: 0x8, addend: 0x0, symName: __ZNSt3__16vectorIjNS_9allocatorIjEEE16__init_with_sizeB8ne200100IPjS5_EEvT_T0_m, symObjAddr: 0x12F4, symBinAddr: 0xD60C, symSize: 0x78 }
  - { offset: 0x180273, size: 0x8, addend: 0x0, symName: __ZNSt3__16vectorIbNS_9allocatorIbEEEC2ERKS3_, symObjAddr: 0x13EC, symBinAddr: 0xD704, symSize: 0x58 }
  - { offset: 0x180555, size: 0x8, addend: 0x0, symName: __ZNSt3__16vectorIjNS_9allocatorIjEEE11__vallocateB8ne200100Em, symObjAddr: 0x136C, symBinAddr: 0xD684, symSize: 0x38 }
  - { offset: 0x1805AF, size: 0x8, addend: 0x0, symName: __ZNSt3__16vectorIjNS_9allocatorIjEEE20__throw_length_errorB8ne200100Ev, symObjAddr: 0x13A4, symBinAddr: 0xD6BC, symSize: 0x14 }
  - { offset: 0x1805BA, size: 0x8, addend: 0x0, symName: __ZNSt3__16vectorIjNS_9allocatorIjEEE20__throw_length_errorB8ne200100Ev, symObjAddr: 0x13A4, symBinAddr: 0xD6BC, symSize: 0x14 }
  - { offset: 0x1805D2, size: 0x8, addend: 0x0, symName: __ZNSt3__119__allocate_at_leastB8ne200100INS_9allocatorIjEEEENS_19__allocation_resultINS_16allocator_traitsIT_E7pointerEEERS5_m, symObjAddr: 0x13B8, symBinAddr: 0xD6D0, symSize: 0x34 }
  - { offset: 0x180669, size: 0x8, addend: 0x0, symName: __ZNSt3__16vectorIbNS_9allocatorIbEEE11__vallocateB8ne200100Em, symObjAddr: 0x1444, symBinAddr: 0xD75C, symSize: 0x40 }
  - { offset: 0x1806E2, size: 0x8, addend: 0x0, symName: __ZNSt3__16vectorIbNS_9allocatorIbEEE18__construct_at_endINS_14__bit_iteratorIS3_Lb1ELm0EEES6_EEvT_T0_m, symObjAddr: 0x1484, symBinAddr: 0xD79C, symSize: 0x84 }
  - { offset: 0x1806ED, size: 0x8, addend: 0x0, symName: __ZNSt3__16vectorIbNS_9allocatorIbEEE18__construct_at_endINS_14__bit_iteratorIS3_Lb1ELm0EEES6_EEvT_T0_m, symObjAddr: 0x1484, symBinAddr: 0xD79C, symSize: 0x84 }
  - { offset: 0x1808F9, size: 0x8, addend: 0x0, symName: __ZNSt3__119__allocate_at_leastB8ne200100INS_9allocatorImEEEENS_19__allocation_resultINS_16allocator_traitsIT_E7pointerEEERS5_m, symObjAddr: 0x151C, symBinAddr: 0xD820, symSize: 0x34 }
  - { offset: 0x180A8B, size: 0x8, addend: 0x0, symName: __ZNKSt3__111__copy_implclB8ne200100INS_14__bit_iteratorINS_6vectorIbNS_9allocatorIbEEEELb1ELm0EEES7_NS2_IS6_Lb0ELm0EEEEENS_4pairIT_T1_EESA_T0_SB_, symObjAddr: 0x1550, symBinAddr: 0xD854, symSize: 0xA4 }
  - { offset: 0x180AE2, size: 0x8, addend: 0x0, symName: __ZNKSt3__111__copy_implclB8ne200100INS_14__bit_iteratorINS_6vectorIbNS_9allocatorIbEEEELb1ELm0EEES7_NS2_IS6_Lb0ELm0EEEEENS_4pairIT_T1_EESA_T0_SB_, symObjAddr: 0x1550, symBinAddr: 0xD854, symSize: 0xA4 }
  - { offset: 0x180E6D, size: 0x8, addend: 0x0, symName: __ZN8facebook4yoga14StyleValuePool10storeValueERNS0_16StyleValueHandleEfNS2_4TypeE, symObjAddr: 0x167C, symBinAddr: 0xD93C, symSize: 0xCC }
  - { offset: 0x1810B4, size: 0x8, addend: 0x0, symName: __ZN8facebook4yoga16SmallValueBufferILm4EE4pushEj, symObjAddr: 0x1748, symBinAddr: 0xDA08, symSize: 0x88 }
  - { offset: 0x1811B5, size: 0x8, addend: 0x0, symName: __ZN8facebook4yoga16SmallValueBufferILm4EE4pushEj, symObjAddr: 0x1748, symBinAddr: 0xDA08, symSize: 0x88 }
  - { offset: 0x1813EA, size: 0x8, addend: 0x0, symName: __ZNSt3__16vectorIjNS_9allocatorIjEEE9push_backB8ne200100ERKj, symObjAddr: 0x17D0, symBinAddr: 0xDA90, symSize: 0xDC }
  - { offset: 0x1817DD, size: 0x8, addend: 0x0, symName: __ZNSt3__16vectorIbNS_9allocatorIbEEE9push_backERKb, symObjAddr: 0x18AC, symBinAddr: 0xDB6C, symSize: 0xA4 }
  - { offset: 0x1817E8, size: 0x8, addend: 0x0, symName: __ZNSt3__16vectorIbNS_9allocatorIbEEE9push_backERKb, symObjAddr: 0x18AC, symBinAddr: 0xDB6C, symSize: 0xA4 }
  - { offset: 0x1818E5, size: 0x8, addend: 0x0, symName: __ZNSt3__16vectorIbNS_9allocatorIbEEE7reserveEm, symObjAddr: 0x1950, symBinAddr: 0xDC10, symSize: 0xB8 }
  - { offset: 0x181BE9, size: 0x8, addend: 0x0, symName: __ZNSt3__16vectorIbNS_9allocatorIbEEE7reserveEm, symObjAddr: 0x1950, symBinAddr: 0xDC10, symSize: 0xB8 }
  - { offset: 0x1821A5, size: 0x8, addend: 0x0, symName: __ZNSt3__16vectorIbNS_9allocatorIbEEE18__construct_at_endINS_14__bit_iteratorIS3_Lb0ELm0EEES6_EEvT_T0_m, symObjAddr: 0x1A08, symBinAddr: 0xDCC8, symSize: 0xA0 }
  - { offset: 0x1824A5, size: 0x8, addend: 0x0, symName: __ZNKSt3__111__copy_implclB8ne200100INS_14__bit_iteratorINS_6vectorIbNS_9allocatorIbEEEELb0ELm0EEES7_S7_EENS_4pairIT_T1_EES9_T0_SA_, symObjAddr: 0x1B34, symBinAddr: 0xDDF4, symSize: 0xD0 }
...
