---
triple:          'arm64-apple-darwin'
binary-path:     '/Users/uk-aplatts/Development/InjuryIQ/ios/DerivedData/Build/Intermediates.noindex/ArchiveIntermediates/InjuryIQ/IntermediateBuildFilesPath/UninstalledProducts/iphoneos/DoubleConversion.framework/DoubleConversion'
relocations:
  - { offset: 0x33, size: 0x8, addend: 0x0, symName: _DoubleConversionVersionString, symObjAddr: 0x0, symBinAddr: 0x8EC0, symSize: 0x0 }
  - { offset: 0x67, size: 0x8, addend: 0x0, symName: _DoubleConversionVersionNumber, symObjAddr: 0x30, symBinAddr: 0x8EF0, symSize: 0x0 }
  - { offset: 0xA2, size: 0x8, addend: 0x0, symName: __ZN17double_conversion6BignumC2Ev, symObjAddr: 0x0, symBinAddr: 0x4000, symSize: 0x58 }
  - { offset: 0x914, size: 0x8, addend: 0x0, symName: __ZN17double_conversion6BignumC2Ev, symObjAddr: 0x0, symBinAddr: 0x4000, symSize: 0x58 }
  - { offset: 0x936, size: 0x8, addend: 0x0, symName: __ZN17double_conversion6BignumC2Ev, symObjAddr: 0x0, symBinAddr: 0x4000, symSize: 0x58 }
  - { offset: 0x962, size: 0x8, addend: 0x0, symName: __ZN17double_conversion6BignumC2Ev, symObjAddr: 0x0, symBinAddr: 0x4000, symSize: 0x58 }
  - { offset: 0x9D0, size: 0x8, addend: 0x0, symName: __ZN17double_conversion6BignumC1Ev, symObjAddr: 0x58, symBinAddr: 0x4058, symSize: 0x58 }
  - { offset: 0x9F2, size: 0x8, addend: 0x0, symName: __ZN17double_conversion6BignumC1Ev, symObjAddr: 0x58, symBinAddr: 0x4058, symSize: 0x58 }
  - { offset: 0xA0D, size: 0x8, addend: 0x0, symName: __ZN17double_conversion6BignumC1Ev, symObjAddr: 0x58, symBinAddr: 0x4058, symSize: 0x58 }
  - { offset: 0xA39, size: 0x8, addend: 0x0, symName: __ZN17double_conversion6BignumC1Ev, symObjAddr: 0x58, symBinAddr: 0x4058, symSize: 0x58 }
  - { offset: 0xAC5, size: 0x8, addend: 0x0, symName: __ZN17double_conversion6Bignum12AssignUInt16Et, symObjAddr: 0xB0, symBinAddr: 0x40B0, symSize: 0x48 }
  - { offset: 0xAEE, size: 0x8, addend: 0x0, symName: __ZN17double_conversion6Bignum12AssignUInt16Et, symObjAddr: 0xB0, symBinAddr: 0x40B0, symSize: 0x48 }
  - { offset: 0xB05, size: 0x8, addend: 0x0, symName: __ZN17double_conversion6Bignum12AssignUInt16Et, symObjAddr: 0xB0, symBinAddr: 0x40B0, symSize: 0x48 }
  - { offset: 0xB43, size: 0x8, addend: 0x0, symName: __ZN17double_conversion6Bignum4ZeroEv, symObjAddr: 0xF8, symBinAddr: 0x40F8, symSize: 0x34 }
  - { offset: 0xB61, size: 0x8, addend: 0x0, symName: __ZN17double_conversion6Bignum4ZeroEv, symObjAddr: 0xF8, symBinAddr: 0x40F8, symSize: 0x34 }
  - { offset: 0xB90, size: 0x8, addend: 0x0, symName: __ZN17double_conversion6Bignum12AssignUInt64Ey, symObjAddr: 0x12C, symBinAddr: 0x412C, symSize: 0x84 }
  - { offset: 0xBDF, size: 0x8, addend: 0x0, symName: __ZN17double_conversion6Bignum12AssignUInt64Ey, symObjAddr: 0x12C, symBinAddr: 0x412C, symSize: 0x84 }
  - { offset: 0xBF6, size: 0x8, addend: 0x0, symName: __ZN17double_conversion6Bignum12AssignUInt64Ey, symObjAddr: 0x12C, symBinAddr: 0x412C, symSize: 0x84 }
  - { offset: 0xC48, size: 0x8, addend: 0x0, symName: __ZN17double_conversion6Bignum5ClampEv, symObjAddr: 0x1B0, symBinAddr: 0x41B0, symSize: 0x4C }
  - { offset: 0xC67, size: 0x8, addend: 0x0, symName: __ZN17double_conversion6Bignum12AssignBignumERKS0_, symObjAddr: 0x1FC, symBinAddr: 0x41FC, symSize: 0x70 }
  - { offset: 0xCD3, size: 0x8, addend: 0x0, symName: __ZN17double_conversion6Bignum19AssignDecimalStringENS_6VectorIKcEE, symObjAddr: 0x26C, symBinAddr: 0x426C, symSize: 0x16C }
  - { offset: 0xE93, size: 0x8, addend: 0x0, symName: __ZN17double_conversion6Bignum20MultiplyByPowerOfTenEi, symObjAddr: 0x3D8, symBinAddr: 0x43D8, symSize: 0xE0 }
  - { offset: 0x100A, size: 0x8, addend: 0x0, symName: __ZN17double_conversion6Bignum9AddUInt64Ey, symObjAddr: 0x4B8, symBinAddr: 0x44B8, symSize: 0x94 }
  - { offset: 0x1123, size: 0x8, addend: 0x0, symName: __ZN17double_conversion6Bignum16MultiplyByUInt64Ey, symObjAddr: 0xAB4, symBinAddr: 0x4AB4, symSize: 0xD4 }
  - { offset: 0x1255, size: 0x8, addend: 0x0, symName: __ZN17double_conversion6Bignum6SquareEv, symObjAddr: 0xB88, symBinAddr: 0x4B88, symSize: 0x190 }
  - { offset: 0x125F, size: 0x8, addend: 0x0, symName: __ZN17double_conversion6Bignum16MultiplyByUInt32Ej, symObjAddr: 0x9F4, symBinAddr: 0x49F4, symSize: 0xC0 }
  - { offset: 0x135C, size: 0x8, addend: 0x0, symName: __ZN17double_conversion6Bignum16MultiplyByUInt64Ey, symObjAddr: 0xAB4, symBinAddr: 0x4AB4, symSize: 0xD4 }
  - { offset: 0x1366, size: 0x8, addend: 0x0, symName: __ZN17double_conversion6Bignum9ShiftLeftEi, symObjAddr: 0x93C, symBinAddr: 0x493C, symSize: 0x54 }
  - { offset: 0x13DA, size: 0x8, addend: 0x0, symName: __ZN17double_conversion6Bignum15BigitsShiftLeftEi, symObjAddr: 0x990, symBinAddr: 0x4990, symSize: 0x64 }
  - { offset: 0x13FE, size: 0x8, addend: 0x0, symName: __ZN17double_conversion6Bignum9AddBignumERKS0_, symObjAddr: 0x6C8, symBinAddr: 0x46C8, symSize: 0xE0 }
  - { offset: 0x1565, size: 0x8, addend: 0x0, symName: __ZN17double_conversion6Bignum5AlignERKS0_, symObjAddr: 0x7A8, symBinAddr: 0x47A8, symSize: 0xB4 }
  - { offset: 0x158E, size: 0x8, addend: 0x0, symName: __ZN17double_conversion6Bignum15AssignHexStringENS_6VectorIKcEE, symObjAddr: 0x54C, symBinAddr: 0x454C, symSize: 0x17C }
  - { offset: 0x1736, size: 0x8, addend: 0x0, symName: __ZN17double_conversion6Bignum9AddBignumERKS0_, symObjAddr: 0x6C8, symBinAddr: 0x46C8, symSize: 0xE0 }
  - { offset: 0x1760, size: 0x8, addend: 0x0, symName: __ZN17double_conversion6Bignum5AlignERKS0_, symObjAddr: 0x7A8, symBinAddr: 0x47A8, symSize: 0xB4 }
  - { offset: 0x180D, size: 0x8, addend: 0x0, symName: __ZN17double_conversion6Bignum14SubtractBignumERKS0_, symObjAddr: 0x85C, symBinAddr: 0x485C, symSize: 0xE0 }
  - { offset: 0x1817, size: 0x8, addend: 0x0, symName: __ZN17double_conversion6Bignum14SubtractBignumERKS0_, symObjAddr: 0x85C, symBinAddr: 0x485C, symSize: 0xE0 }
  - { offset: 0x18E8, size: 0x8, addend: 0x0, symName: __ZN17double_conversion6Bignum15BigitsShiftLeftEi, symObjAddr: 0x990, symBinAddr: 0x4990, symSize: 0x64 }
  - { offset: 0x192B, size: 0x8, addend: 0x0, symName: __ZN17double_conversion6Bignum15BigitsShiftLeftEi, symObjAddr: 0x990, symBinAddr: 0x4990, symSize: 0x64 }
  - { offset: 0x1988, size: 0x8, addend: 0x0, symName: __ZN17double_conversion6Bignum6SquareEv, symObjAddr: 0xB88, symBinAddr: 0x4B88, symSize: 0x190 }
  - { offset: 0x1B11, size: 0x8, addend: 0x0, symName: __ZN17double_conversion6Bignum17AssignPowerUInt16Eti, symObjAddr: 0xD18, symBinAddr: 0x4D18, symSize: 0x1C4 }
  - { offset: 0x1B3C, size: 0x8, addend: 0x0, symName: __ZN17double_conversion6Bignum17AssignPowerUInt16Eti, symObjAddr: 0xD18, symBinAddr: 0x4D18, symSize: 0x1C4 }
  - { offset: 0x1D5B, size: 0x8, addend: 0x0, symName: __ZN17double_conversion6Bignum21DivideModuloIntBignumERKS0_, symObjAddr: 0xEDC, symBinAddr: 0x4EDC, symSize: 0x198 }
  - { offset: 0x1D82, size: 0x8, addend: 0x0, symName: __ZN17double_conversion6Bignum21DivideModuloIntBignumERKS0_, symObjAddr: 0xEDC, symBinAddr: 0x4EDC, symSize: 0x198 }
  - { offset: 0x1FBB, size: 0x8, addend: 0x0, symName: __ZN17double_conversion6Bignum13SubtractTimesERKS0_i, symObjAddr: 0x1074, symBinAddr: 0x5074, symSize: 0x144 }
  - { offset: 0x2137, size: 0x8, addend: 0x0, symName: __ZN17double_conversion6Bignum7CompareERKS0_S2_, symObjAddr: 0x1348, symBinAddr: 0x5348, symSize: 0xB4 }
  - { offset: 0x218F, size: 0x8, addend: 0x0, symName: __ZN17double_conversion6Bignum7CompareERKS0_S2_, symObjAddr: 0x1348, symBinAddr: 0x5348, symSize: 0xB4 }
  - { offset: 0x223C, size: 0x8, addend: 0x0, symName: __ZNK17double_conversion6Bignum11ToHexStringEPci, symObjAddr: 0x11B8, symBinAddr: 0x51B8, symSize: 0x164 }
  - { offset: 0x2431, size: 0x8, addend: 0x0, symName: __ZNK17double_conversion6Bignum7BigitAtEi, symObjAddr: 0x131C, symBinAddr: 0x531C, symSize: 0x2C }
  - { offset: 0x245C, size: 0x8, addend: 0x0, symName: __ZNK17double_conversion6Bignum7BigitAtEi, symObjAddr: 0x131C, symBinAddr: 0x531C, symSize: 0x2C }
  - { offset: 0x24C0, size: 0x8, addend: 0x0, symName: __ZN17double_conversion6Bignum11PlusCompareERKS0_S2_S2_, symObjAddr: 0x13FC, symBinAddr: 0x53FC, symSize: 0x154 }
  - { offset: 0x2526, size: 0x8, addend: 0x0, symName: __ZN17double_conversion6Bignum11PlusCompareERKS0_S2_S2_, symObjAddr: 0x13FC, symBinAddr: 0x53FC, symSize: 0x154 }
  - { offset: 0x26BC, size: 0x8, addend: 0x0, symName: __ZNK17double_conversion6Bignum9IsClampedEv, symObjAddr: 0x1550, symBinAddr: 0x5550, symSize: 0x28 }
  - { offset: 0x2745, size: 0x8, addend: 0x0, symName: __ZN17double_conversion10BignumDtoaEdNS_14BignumDtoaModeEiNS_6VectorIcEEPiS3_, symObjAddr: 0x0, symBinAddr: 0x5578, symSize: 0x528 }
  - { offset: 0x32CA, size: 0x8, addend: 0x0, symName: __ZN17double_conversion10BignumDtoaEdNS_14BignumDtoaModeEiNS_6VectorIcEEPiS3_, symObjAddr: 0x0, symBinAddr: 0x5578, symSize: 0x528 }
  - { offset: 0x38E1, size: 0x8, addend: 0x0, symName: __ZN17double_conversionL21GenerateCountedDigitsEiPiPNS_6BignumES2_NS_6VectorIcEES0_, symObjAddr: 0x528, symBinAddr: 0x5AA0, symSize: 0x150 }
  - { offset: 0x38EB, size: 0x8, addend: 0x0, symName: __ZN17double_conversionL21GenerateCountedDigitsEiPiPNS_6BignumES2_NS_6VectorIcEES0_, symObjAddr: 0x528, symBinAddr: 0x5AA0, symSize: 0x150 }
  - { offset: 0x3F76, size: 0x8, addend: 0x0, symName: __ZN17double_conversion16PowersOfTenCache36GetCachedPowerForBinaryExponentRangeEiiPNS_5DiyFpEPi, symObjAddr: 0x0, symBinAddr: 0x5BF0, symSize: 0x50 }
  - { offset: 0x3F8E, size: 0x8, addend: 0x0, symName: __ZN17double_conversion16PowersOfTenCache24kDecimalExponentDistanceE, symObjAddr: 0x90, symBinAddr: 0x8F38, symSize: 0x0 }
  - { offset: 0x400C, size: 0x8, addend: 0x0, symName: __ZN17double_conversion16PowersOfTenCache19kMinDecimalExponentE, symObjAddr: 0x94, symBinAddr: 0x8F3C, symSize: 0x0 }
  - { offset: 0x401F, size: 0x8, addend: 0x0, symName: __ZN17double_conversion16PowersOfTenCache19kMaxDecimalExponentE, symObjAddr: 0x98, symBinAddr: 0x8F40, symSize: 0x0 }
  - { offset: 0x4059, size: 0x8, addend: 0x0, symName: __ZN17double_conversionL13kCachedPowersE, symObjAddr: 0xA0, symBinAddr: 0x8F48, symSize: 0x0 }
  - { offset: 0x40DD, size: 0x8, addend: 0x0, symName: __ZN17double_conversion16PowersOfTenCache36GetCachedPowerForBinaryExponentRangeEiiPNS_5DiyFpEPi, symObjAddr: 0x0, symBinAddr: 0x5BF0, symSize: 0x50 }
  - { offset: 0x4168, size: 0x8, addend: 0x0, symName: __ZN17double_conversion16PowersOfTenCache32GetCachedPowerForDecimalExponentEiPNS_5DiyFpEPi, symObjAddr: 0x50, symBinAddr: 0x5C40, symSize: 0x38 }
  - { offset: 0x4399, size: 0x8, addend: 0x0, symName: __ZN17double_conversion5DiyFp8MultiplyERKS0_, symObjAddr: 0x0, symBinAddr: 0x5C78, symSize: 0x64 }
  - { offset: 0x43C3, size: 0x8, addend: 0x0, symName: __ZN17double_conversion5DiyFp8MultiplyERKS0_, symObjAddr: 0x0, symBinAddr: 0x5C78, symSize: 0x64 }
  - { offset: 0x44C2, size: 0x8, addend: 0x0, symName: __ZN17double_conversion23DoubleToStringConverter19EcmaScriptConverterEv, symObjAddr: 0x0, symBinAddr: 0x5CDC, symSize: 0x30 }
  - { offset: 0x4D95, size: 0x8, addend: 0x0, symName: __ZN17double_conversionL17RadixStringToIeeeILi4EEEdPKcS2_bbdbPS2_, symObjAddr: 0x152C, symBinAddr: 0x7208, symSize: 0x218 }
  - { offset: 0x50EE, size: 0x8, addend: 0x0, symName: __ZN17double_conversion23DoubleToStringConverter19EcmaScriptConverterEv, symObjAddr: 0x0, symBinAddr: 0x5CDC, symSize: 0x30 }
  - { offset: 0x510F, size: 0x8, addend: 0x0, symName: __MergedGlobals, symObjAddr: 0xD2A0, symBinAddr: 0x100E0, symSize: 0x0 }
  - { offset: 0x5161, size: 0x8, addend: 0x0, symName: __ZN17double_conversion23DoubleToStringConverter19EcmaScriptConverterEv.cold.1, symObjAddr: 0x17DC, symBinAddr: 0x8DE4, symSize: 0x6C }
  - { offset: 0x535A, size: 0x8, addend: 0x0, symName: __ZNK17double_conversion23DoubleToStringConverter19HandleSpecialValuesEdPNS_13StringBuilderE, symObjAddr: 0x30, symBinAddr: 0x5D0C, symSize: 0xCC }
  - { offset: 0x54D6, size: 0x8, addend: 0x0, symName: __ZNK17double_conversion23DoubleToStringConverter31CreateExponentialRepresentationEPKciiPNS_13StringBuilderE, symObjAddr: 0xFC, symBinAddr: 0x5DD8, symSize: 0x178 }
  - { offset: 0x5799, size: 0x8, addend: 0x0, symName: __ZNK17double_conversion23DoubleToStringConverter27CreateDecimalRepresentationEPKciiiPNS_13StringBuilderE, symObjAddr: 0x274, symBinAddr: 0x5F50, symSize: 0x26C }
  - { offset: 0x5D6F, size: 0x8, addend: 0x0, symName: __ZNK17double_conversion23DoubleToStringConverter20ToShortestIeeeNumberEdPNS_13StringBuilderENS0_8DtoaModeE, symObjAddr: 0x4E0, symBinAddr: 0x61BC, symSize: 0x168 }
  - { offset: 0x5F29, size: 0x8, addend: 0x0, symName: __ZN17double_conversion23DoubleToStringConverter13DoubleToAsciiEdNS0_8DtoaModeEiPciPbPiS4_, symObjAddr: 0x648, symBinAddr: 0x6324, symSize: 0x144 }
  - { offset: 0x60B2, size: 0x8, addend: 0x0, symName: __ZNK17double_conversion23DoubleToStringConverter7ToFixedEdiPNS_13StringBuilderE, symObjAddr: 0x78C, symBinAddr: 0x6468, symSize: 0x15C }
  - { offset: 0x60C3, size: 0x8, addend: 0x0, symName: __ZNK17double_conversion23DoubleToStringConverter7ToFixedEdiPNS_13StringBuilderE, symObjAddr: 0x78C, symBinAddr: 0x6468, symSize: 0x15C }
  - { offset: 0x624C, size: 0x8, addend: 0x0, symName: __ZNK17double_conversion23DoubleToStringConverter13ToExponentialEdiPNS_13StringBuilderE, symObjAddr: 0x8E8, symBinAddr: 0x65C4, symSize: 0x1B8 }
  - { offset: 0x6421, size: 0x8, addend: 0x0, symName: __ZNK17double_conversion23DoubleToStringConverter11ToPrecisionEdiPNS_13StringBuilderE, symObjAddr: 0xAA0, symBinAddr: 0x677C, symSize: 0x1CC }
  - { offset: 0x66E9, size: 0x8, addend: 0x0, symName: __ZNK17double_conversion23StringToDoubleConverter12StringToIeeeEPKciPib, symObjAddr: 0xC6C, symBinAddr: 0x6948, symSize: 0x8C0 }
  - { offset: 0x6BE2, size: 0x8, addend: 0x0, symName: __ZN17double_conversion6Double13DiyFpToUint64ENS_5DiyFpE, symObjAddr: 0x1744, symBinAddr: 0x7420, symSize: 0x98 }
  - { offset: 0x6F25, size: 0x8, addend: 0x0, symName: __ZN17double_conversion8FastDtoaEdNS_12FastDtoaModeEiNS_6VectorIcEEPiS3_, symObjAddr: 0x0, symBinAddr: 0x74B8, symSize: 0x46C }
  - { offset: 0x6F6D, size: 0x8, addend: 0x0, symName: __ZN17double_conversionL17kSmallPowersOfTenE, symObjAddr: 0x78C, symBinAddr: 0x94D0, symSize: 0x0 }
  - { offset: 0x7307, size: 0x8, addend: 0x0, symName: __ZN17double_conversion8FastDtoaEdNS_12FastDtoaModeEiNS_6VectorIcEEPiS3_, symObjAddr: 0x0, symBinAddr: 0x74B8, symSize: 0x46C }
  - { offset: 0x7A3C, size: 0x8, addend: 0x0, symName: __ZNK17double_conversion6Double17AsNormalizedDiyFpEv, symObjAddr: 0x46C, symBinAddr: 0x7924, symSize: 0x54 }
  - { offset: 0x7A47, size: 0x8, addend: 0x0, symName: __ZN17double_conversionL9RoundWeedENS_6VectorIcEEiyyyyy, symObjAddr: 0x600, symBinAddr: 0x7AB8, symSize: 0xC4 }
  - { offset: 0x7AE3, size: 0x8, addend: 0x0, symName: __ZN17double_conversionL16RoundWeedCountedENS_6VectorIcEEiyyyPi, symObjAddr: 0x6C4, symBinAddr: 0x7B7C, symSize: 0xC8 }
  - { offset: 0x7D1F, size: 0x8, addend: 0x0, symName: __ZNK17double_conversion6Double17AsNormalizedDiyFpEv, symObjAddr: 0x46C, symBinAddr: 0x7924, symSize: 0x54 }
  - { offset: 0x7DD1, size: 0x8, addend: 0x0, symName: __ZNK17double_conversion6Single20NormalizedBoundariesEPNS_5DiyFpES2_, symObjAddr: 0x560, symBinAddr: 0x7A18, symSize: 0xA0 }
  - { offset: 0x7E43, size: 0x8, addend: 0x0, symName: __ZNK17double_conversion6Single20NormalizedBoundariesEPNS_5DiyFpES2_, symObjAddr: 0x560, symBinAddr: 0x7A18, symSize: 0xA0 }
  - { offset: 0x7E85, size: 0x8, addend: 0x0, symName: __ZNK17double_conversion6Single20NormalizedBoundariesEPNS_5DiyFpES2_, symObjAddr: 0x560, symBinAddr: 0x7A18, symSize: 0xA0 }
  - { offset: 0x7F20, size: 0x8, addend: 0x0, symName: __ZNK17double_conversion6Double20NormalizedBoundariesEPNS_5DiyFpES2_, symObjAddr: 0x4C0, symBinAddr: 0x7978, symSize: 0xA0 }
  - { offset: 0x7FC5, size: 0x8, addend: 0x0, symName: __ZNK17double_conversion6Double20NormalizedBoundariesEPNS_5DiyFpES2_, symObjAddr: 0x4C0, symBinAddr: 0x7978, symSize: 0xA0 }
  - { offset: 0x8231, size: 0x8, addend: 0x0, symName: __ZN17double_conversion13FastFixedDtoaEdiNS_6VectorIcEEPiS2_, symObjAddr: 0x0, symBinAddr: 0x7C44, symSize: 0x3D8 }
  - { offset: 0x840E, size: 0x8, addend: 0x0, symName: __ZN17double_conversion13FastFixedDtoaEdiNS_6VectorIcEEPiS2_, symObjAddr: 0x0, symBinAddr: 0x7C44, symSize: 0x3D8 }
  - { offset: 0x87D7, size: 0x8, addend: 0x0, symName: __ZN17double_conversionL12FillDigits32EjNS_6VectorIcEEPi, symObjAddr: 0x3D8, symBinAddr: 0x801C, symSize: 0x8C }
  - { offset: 0x8880, size: 0x8, addend: 0x0, symName: __ZN17double_conversionL12FillDigits64EyNS_6VectorIcEEPi, symObjAddr: 0x464, symBinAddr: 0x80A8, symSize: 0x1A4 }
  - { offset: 0x8A3B, size: 0x8, addend: 0x0, symName: __ZN17double_conversionL15FillFractionalsEyiiNS_6VectorIcEEPiS2_, symObjAddr: 0x608, symBinAddr: 0x824C, symSize: 0x1E4 }
  - { offset: 0x8CD9, size: 0x8, addend: 0x0, symName: __ZN17double_conversionL7RoundUpENS_6VectorIcEEPiS2_, symObjAddr: 0x7EC, symBinAddr: 0x8430, symSize: 0x94 }
  - { offset: 0x8F8B, size: 0x8, addend: 0x0, symName: __ZN17double_conversion7UInt1285ShiftEi, symObjAddr: 0x880, symBinAddr: 0x84C4, symSize: 0x74 }
  - { offset: 0x918A, size: 0x8, addend: 0x0, symName: __ZN17double_conversion6StrtodENS_6VectorIKcEEi, symObjAddr: 0x0, symBinAddr: 0x8538, symSize: 0x124 }
  - { offset: 0x9204, size: 0x8, addend: 0x0, symName: __ZN17double_conversionL19exact_powers_of_tenE, symObjAddr: 0x948, symBinAddr: 0x9500, symSize: 0x0 }
  - { offset: 0x921E, size: 0x8, addend: 0x0, symName: __ZN17double_conversion6StrtodENS_6VectorIKcEEi, symObjAddr: 0x0, symBinAddr: 0x8538, symSize: 0x124 }
  - { offset: 0x942F, size: 0x8, addend: 0x0, symName: __ZN17double_conversionL10TrimAndCutENS_6VectorIKcEEiPciPS2_Pi, symObjAddr: 0x124, symBinAddr: 0x865C, symSize: 0xD0 }
  - { offset: 0x94B3, size: 0x8, addend: 0x0, symName: __ZN17double_conversionL10TrimAndCutENS_6VectorIKcEEiPciPS2_Pi, symObjAddr: 0x124, symBinAddr: 0x865C, symSize: 0xD0 }
  - { offset: 0x94CC, size: 0x8, addend: 0x0, symName: __ZN17double_conversionL10TrimAndCutENS_6VectorIKcEEiPciPS2_Pi, symObjAddr: 0x124, symBinAddr: 0x865C, symSize: 0xD0 }
  - { offset: 0x9544, size: 0x8, addend: 0x0, symName: __ZN17double_conversionL12ComputeGuessENS_6VectorIKcEEiPd, symObjAddr: 0x1F4, symBinAddr: 0x872C, symSize: 0x434 }
  - { offset: 0x9924, size: 0x8, addend: 0x0, symName: __ZN17double_conversionL22CompareBufferWithDiyFpENS_6VectorIKcEEiNS_5DiyFpE, symObjAddr: 0x628, symBinAddr: 0x8B60, symSize: 0xB8 }
  - { offset: 0x992E, size: 0x8, addend: 0x0, symName: __ZN17double_conversionL22CompareBufferWithDiyFpENS_6VectorIKcEEiNS_5DiyFpE, symObjAddr: 0x628, symBinAddr: 0x8B60, symSize: 0xB8 }
  - { offset: 0x9C74, size: 0x8, addend: 0x0, symName: __ZN17double_conversion6StrtofENS_6VectorIKcEEi, symObjAddr: 0x6E0, symBinAddr: 0x8C18, symSize: 0x1CC }
...
