---
triple:          'arm64-apple-darwin'
binary-path:     '/Users/uk-aplatts/Development/InjuryIQ/ios/DerivedData/Build/Intermediates.noindex/ArchiveIntermediates/InjuryIQ/IntermediateBuildFilesPath/UninstalledProducts/iphoneos/React_featureflagsnativemodule.framework/React_featureflagsnativemodule'
relocations:
  - { offset: 0x33, size: 0x8, addend: 0x0, symName: _React_featureflagsnativemoduleVersionString, symObjAddr: 0x0, symBinAddr: 0x5A60, symSize: 0x0 }
  - { offset: 0x67, size: 0x8, addend: 0x0, symName: _React_featureflagsnativemoduleVersionNumber, symObjAddr: 0x40, symBinAddr: 0x5AA0, symSize: 0x0 }
  - { offset: 0x104E5, size: 0x8, addend: 0x0, symName: __ZNSt3__115allocate_sharedB8ne200100IN8facebook5react29NativeReactNativeFeatureFlagsENS_9allocatorIS3_EEJNS_10shared_ptrINS2_11CallInvokerEEEELi0EEENS6_IT_EERKT0_DpOT1_, symObjAddr: 0x1688, symBinAddr: 0x5538, symSize: 0x58 }
  - { offset: 0x10DB1, size: 0x8, addend: 0x0, symName: __ZNSt3__112__destroy_atB8ne200100INS_4pairIKNS_12basic_stringIcNS_11char_traitsIcEENS_9allocatorIcEEEENS_10shared_ptrIN8facebook5react18IAsyncEventEmitterEEEEELi0EEEvPT_, symObjAddr: 0x830, symBinAddr: 0x4830, symSize: 0x3C }
  - { offset: 0x11121, size: 0x8, addend: 0x0, symName: __ZNSt3__119__allocate_at_leastB8ne200100INS_9allocatorIN8facebook3jsi10PropNameIDEEEEENS_19__allocation_resultINS_16allocator_traitsIT_E7pointerEEERS8_m, symObjAddr: 0xC78, symBinAddr: 0x4C78, symSize: 0x34 }
  - { offset: 0x111CA, size: 0x8, addend: 0x0, symName: __ZSt28__throw_bad_array_new_lengthB8ne200100v, symObjAddr: 0xCAC, symBinAddr: 0x4CAC, symSize: 0x28 }
  - { offset: 0x1125E, size: 0x8, addend: 0x0, symName: __ZNSt3__120__throw_length_errorB8ne200100EPKc, symObjAddr: 0xC04, symBinAddr: 0x4C04, symSize: 0x50 }
  - { offset: 0x11BBF, size: 0x8, addend: 0x0, symName: __ZNSt3__112construct_atB8ne200100IN8facebook5react29NativeReactNativeFeatureFlagsEJNS_10shared_ptrINS2_11CallInvokerEEEEPS3_EEPT_S9_DpOT0_, symObjAddr: 0x1774, symBinAddr: 0x5624, symSize: 0x88 }
  - { offset: 0x131EB, size: 0x8, addend: 0x0, symName: __ZSt28__throw_bad_array_new_lengthB8ne200100v, symObjAddr: 0xCAC, symBinAddr: 0x4CAC, symSize: 0x28 }
  - { offset: 0x140E4, size: 0x8, addend: 0x0, symName: __ZN8facebook5react11TurboModule6createERNS_3jsi7RuntimeERKNS2_10PropNameIDE, symObjAddr: 0x460, symBinAddr: 0x4460, symSize: 0x240 }
  - { offset: 0x14D55, size: 0x8, addend: 0x0, symName: __Z43NativeReactNativeFeatureFlagsModuleProviderNSt3__110shared_ptrIN8facebook5react11CallInvokerEEE, symObjAddr: 0x0, symBinAddr: 0x4000, symSize: 0x3C }
  - { offset: 0x14EC2, size: 0x8, addend: 0x0, symName: __ZN8facebook5react29NativeReactNativeFeatureFlagsC2ENSt3__110shared_ptrINS0_11CallInvokerEEE, symObjAddr: 0x3C, symBinAddr: 0x403C, symSize: 0x94 }
  - { offset: 0x1506A, size: 0x8, addend: 0x0, symName: __ZN8facebook5react29NativeReactNativeFeatureFlagsC1ENSt3__110shared_ptrINS0_11CallInvokerEEE, symObjAddr: 0xD0, symBinAddr: 0x40D0, symSize: 0x4 }
  - { offset: 0x15095, size: 0x8, addend: 0x0, symName: __ZN8facebook5react29NativeReactNativeFeatureFlagsC1ENSt3__110shared_ptrINS0_11CallInvokerEEE, symObjAddr: 0xD0, symBinAddr: 0x40D0, symSize: 0x4 }
  - { offset: 0x150AF, size: 0x8, addend: 0x0, symName: __ZN8facebook5react29NativeReactNativeFeatureFlags14commonTestFlagERNS_3jsi7RuntimeE, symObjAddr: 0xD4, symBinAddr: 0x40D4, symSize: 0x4 }
  - { offset: 0x150DC, size: 0x8, addend: 0x0, symName: __ZN8facebook5react29NativeReactNativeFeatureFlags41commonTestFlagWithoutNativeImplementationERNS_3jsi7RuntimeE, symObjAddr: 0xD8, symBinAddr: 0x40D8, symSize: 0x8 }
  - { offset: 0x15109, size: 0x8, addend: 0x0, symName: __ZN8facebook5react29NativeReactNativeFeatureFlags25animatedShouldSignalBatchERNS_3jsi7RuntimeE, symObjAddr: 0xE0, symBinAddr: 0x40E0, symSize: 0x4 }
  - { offset: 0x15136, size: 0x8, addend: 0x0, symName: __ZN8facebook5react29NativeReactNativeFeatureFlags24cxxNativeAnimatedEnabledERNS_3jsi7RuntimeE, symObjAddr: 0xE4, symBinAddr: 0x40E4, symSize: 0x4 }
  - { offset: 0x15163, size: 0x8, addend: 0x0, symName: __ZN8facebook5react29NativeReactNativeFeatureFlags29cxxNativeAnimatedRemoveJsSyncERNS_3jsi7RuntimeE, symObjAddr: 0xE8, symBinAddr: 0x40E8, symSize: 0x4 }
  - { offset: 0x15190, size: 0x8, addend: 0x0, symName: __ZN8facebook5react29NativeReactNativeFeatureFlags31disableMainQueueSyncDispatchIOSERNS_3jsi7RuntimeE, symObjAddr: 0xEC, symBinAddr: 0x40EC, symSize: 0x4 }
  - { offset: 0x151BD, size: 0x8, addend: 0x0, symName: __ZN8facebook5react29NativeReactNativeFeatureFlags33disableMountItemReorderingAndroidERNS_3jsi7RuntimeE, symObjAddr: 0xF0, symBinAddr: 0x40F0, symSize: 0x4 }
  - { offset: 0x151EA, size: 0x8, addend: 0x0, symName: __ZN8facebook5react29NativeReactNativeFeatureFlags36disableTextLayoutManagerCacheAndroidERNS_3jsi7RuntimeE, symObjAddr: 0xF4, symBinAddr: 0x40F4, symSize: 0x4 }
  - { offset: 0x15217, size: 0x8, addend: 0x0, symName: __ZN8facebook5react29NativeReactNativeFeatureFlags24enableAccessibilityOrderERNS_3jsi7RuntimeE, symObjAddr: 0xF8, symBinAddr: 0x40F8, symSize: 0x4 }
  - { offset: 0x15244, size: 0x8, addend: 0x0, symName: __ZN8facebook5react29NativeReactNativeFeatureFlags41enableAccumulatedUpdatesInRawPropsAndroidERNS_3jsi7RuntimeE, symObjAddr: 0xFC, symBinAddr: 0x40FC, symSize: 0x4 }
  - { offset: 0x15271, size: 0x8, addend: 0x0, symName: __ZN8facebook5react29NativeReactNativeFeatureFlags41enableAndroidTextMeasurementOptimizationsERNS_3jsi7RuntimeE, symObjAddr: 0x100, symBinAddr: 0x4100, symSize: 0x4 }
  - { offset: 0x1529E, size: 0x8, addend: 0x0, symName: __ZN8facebook5react29NativeReactNativeFeatureFlags28enableBridgelessArchitectureERNS_3jsi7RuntimeE, symObjAddr: 0x104, symBinAddr: 0x4104, symSize: 0x4 }
  - { offset: 0x152CB, size: 0x8, addend: 0x0, symName: __ZN8facebook5react29NativeReactNativeFeatureFlags28enableCppPropsIteratorSetterERNS_3jsi7RuntimeE, symObjAddr: 0x108, symBinAddr: 0x4108, symSize: 0x4 }
  - { offset: 0x152F8, size: 0x8, addend: 0x0, symName: __ZN8facebook5react29NativeReactNativeFeatureFlags47enableCustomFocusSearchOnClippedElementsAndroidERNS_3jsi7RuntimeE, symObjAddr: 0x10C, symBinAddr: 0x410C, symSize: 0x4 }
  - { offset: 0x15325, size: 0x8, addend: 0x0, symName: __ZN8facebook5react29NativeReactNativeFeatureFlags36enableDestroyShadowTreeRevisionAsyncERNS_3jsi7RuntimeE, symObjAddr: 0x110, symBinAddr: 0x4110, symSize: 0x4 }
  - { offset: 0x15352, size: 0x8, addend: 0x0, symName: __ZN8facebook5react29NativeReactNativeFeatureFlags33enableDoubleMeasurementFixAndroidERNS_3jsi7RuntimeE, symObjAddr: 0x114, symBinAddr: 0x4114, symSize: 0x4 }
  - { offset: 0x1537F, size: 0x8, addend: 0x0, symName: __ZN8facebook5react29NativeReactNativeFeatureFlags29enableEagerRootViewAttachmentERNS_3jsi7RuntimeE, symObjAddr: 0x118, symBinAddr: 0x4118, symSize: 0x4 }
  - { offset: 0x153AC, size: 0x8, addend: 0x0, symName: __ZN8facebook5react29NativeReactNativeFeatureFlags16enableFabricLogsERNS_3jsi7RuntimeE, symObjAddr: 0x11C, symBinAddr: 0x411C, symSize: 0x4 }
  - { offset: 0x153D9, size: 0x8, addend: 0x0, symName: __ZN8facebook5react29NativeReactNativeFeatureFlags20enableFabricRendererERNS_3jsi7RuntimeE, symObjAddr: 0x120, symBinAddr: 0x4120, symSize: 0x4 }
  - { offset: 0x15406, size: 0x8, addend: 0x0, symName: __ZN8facebook5react29NativeReactNativeFeatureFlags38enableFixForParentTagDuringReparentingERNS_3jsi7RuntimeE, symObjAddr: 0x124, symBinAddr: 0x4124, symSize: 0x4 }
  - { offset: 0x15433, size: 0x8, addend: 0x0, symName: __ZN8facebook5react29NativeReactNativeFeatureFlags36enableFontScaleChangesUpdatingLayoutERNS_3jsi7RuntimeE, symObjAddr: 0x128, symBinAddr: 0x4128, symSize: 0x4 }
  - { offset: 0x15460, size: 0x8, addend: 0x0, symName: __ZN8facebook5react29NativeReactNativeFeatureFlags34enableIOSTextBaselineOffsetPerLineERNS_3jsi7RuntimeE, symObjAddr: 0x12C, symBinAddr: 0x412C, symSize: 0x4 }
  - { offset: 0x1548D, size: 0x8, addend: 0x0, symName: __ZN8facebook5react29NativeReactNativeFeatureFlags29enableIOSViewClipToPaddingBoxERNS_3jsi7RuntimeE, symObjAddr: 0x130, symBinAddr: 0x4130, symSize: 0x4 }
  - { offset: 0x154BA, size: 0x8, addend: 0x0, symName: __ZN8facebook5react29NativeReactNativeFeatureFlags50enableInteropViewManagerClassLookUpOptimizationIOSERNS_3jsi7RuntimeE, symObjAddr: 0x134, symBinAddr: 0x4134, symSize: 0x4 }
  - { offset: 0x154E7, size: 0x8, addend: 0x0, symName: __ZN8facebook5react29NativeReactNativeFeatureFlags31enableLayoutAnimationsOnAndroidERNS_3jsi7RuntimeE, symObjAddr: 0x138, symBinAddr: 0x4138, symSize: 0x4 }
  - { offset: 0x15514, size: 0x8, addend: 0x0, symName: __ZN8facebook5react29NativeReactNativeFeatureFlags27enableLayoutAnimationsOnIOSERNS_3jsi7RuntimeE, symObjAddr: 0x13C, symBinAddr: 0x413C, symSize: 0x4 }
  - { offset: 0x15541, size: 0x8, addend: 0x0, symName: __ZN8facebook5react29NativeReactNativeFeatureFlags31enableMainQueueCoordinatorOnIOSERNS_3jsi7RuntimeE, symObjAddr: 0x140, symBinAddr: 0x4140, symSize: 0x4 }
  - { offset: 0x1556E, size: 0x8, addend: 0x0, symName: __ZN8facebook5react29NativeReactNativeFeatureFlags27enableMainQueueModulesOnIOSERNS_3jsi7RuntimeE, symObjAddr: 0x144, symBinAddr: 0x4144, symSize: 0x4 }
  - { offset: 0x1559B, size: 0x8, addend: 0x0, symName: __ZN8facebook5react29NativeReactNativeFeatureFlags39enableModuleArgumentNSNullConversionIOSERNS_3jsi7RuntimeE, symObjAddr: 0x148, symBinAddr: 0x4148, symSize: 0x4 }
  - { offset: 0x155C8, size: 0x8, addend: 0x0, symName: __ZN8facebook5react29NativeReactNativeFeatureFlags22enableNativeCSSParsingERNS_3jsi7RuntimeE, symObjAddr: 0x14C, symBinAddr: 0x414C, symSize: 0x4 }
  - { offset: 0x155F5, size: 0x8, addend: 0x0, symName: __ZN8facebook5react29NativeReactNativeFeatureFlags27enableNetworkEventReportingERNS_3jsi7RuntimeE, symObjAddr: 0x150, symBinAddr: 0x4150, symSize: 0x4 }
  - { offset: 0x15622, size: 0x8, addend: 0x0, symName: __ZN8facebook5react29NativeReactNativeFeatureFlags37enableNewBackgroundAndBorderDrawablesERNS_3jsi7RuntimeE, symObjAddr: 0x154, symBinAddr: 0x4154, symSize: 0x4 }
  - { offset: 0x1564F, size: 0x8, addend: 0x0, symName: __ZN8facebook5react29NativeReactNativeFeatureFlags24enablePreparedTextLayoutERNS_3jsi7RuntimeE, symObjAddr: 0x158, symBinAddr: 0x4158, symSize: 0x4 }
  - { offset: 0x1567C, size: 0x8, addend: 0x0, symName: __ZN8facebook5react29NativeReactNativeFeatureFlags38enablePropsUpdateReconciliationAndroidERNS_3jsi7RuntimeE, symObjAddr: 0x15C, symBinAddr: 0x415C, symSize: 0x4 }
  - { offset: 0x156A9, size: 0x8, addend: 0x0, symName: __ZN8facebook5react29NativeReactNativeFeatureFlags23enableResourceTimingAPIERNS_3jsi7RuntimeE, symObjAddr: 0x160, symBinAddr: 0x4160, symSize: 0x4 }
  - { offset: 0x156D6, size: 0x8, addend: 0x0, symName: __ZN8facebook5react29NativeReactNativeFeatureFlags29enableSynchronousStateUpdatesERNS_3jsi7RuntimeE, symObjAddr: 0x164, symBinAddr: 0x4164, symSize: 0x4 }
  - { offset: 0x15703, size: 0x8, addend: 0x0, symName: __ZN8facebook5react29NativeReactNativeFeatureFlags17enableViewCullingERNS_3jsi7RuntimeE, symObjAddr: 0x168, symBinAddr: 0x4168, symSize: 0x4 }
  - { offset: 0x15730, size: 0x8, addend: 0x0, symName: __ZN8facebook5react29NativeReactNativeFeatureFlags19enableViewRecyclingERNS_3jsi7RuntimeE, symObjAddr: 0x16C, symBinAddr: 0x416C, symSize: 0x4 }
  - { offset: 0x1575D, size: 0x8, addend: 0x0, symName: __ZN8facebook5react29NativeReactNativeFeatureFlags26enableViewRecyclingForTextERNS_3jsi7RuntimeE, symObjAddr: 0x170, symBinAddr: 0x4170, symSize: 0x4 }
  - { offset: 0x1578A, size: 0x8, addend: 0x0, symName: __ZN8facebook5react29NativeReactNativeFeatureFlags26enableViewRecyclingForViewERNS_3jsi7RuntimeE, symObjAddr: 0x174, symBinAddr: 0x4174, symSize: 0x4 }
  - { offset: 0x157B7, size: 0x8, addend: 0x0, symName: __ZN8facebook5react29NativeReactNativeFeatureFlags30enableVirtualViewDebugFeaturesERNS_3jsi7RuntimeE, symObjAddr: 0x178, symBinAddr: 0x4178, symSize: 0x4 }
  - { offset: 0x157E4, size: 0x8, addend: 0x0, symName: __ZN8facebook5react29NativeReactNativeFeatureFlags28enableVirtualViewRenderStateERNS_3jsi7RuntimeE, symObjAddr: 0x17C, symBinAddr: 0x417C, symSize: 0x4 }
  - { offset: 0x15811, size: 0x8, addend: 0x0, symName: __ZN8facebook5react29NativeReactNativeFeatureFlags37enableVirtualViewWindowFocusDetectionERNS_3jsi7RuntimeE, symObjAddr: 0x180, symBinAddr: 0x4180, symSize: 0x4 }
  - { offset: 0x1583E, size: 0x8, addend: 0x0, symName: __ZN8facebook5react29NativeReactNativeFeatureFlags48fixMappingOfEventPrioritiesBetweenFabricAndReactERNS_3jsi7RuntimeE, symObjAddr: 0x184, symBinAddr: 0x4184, symSize: 0x4 }
  - { offset: 0x1586D, size: 0x8, addend: 0x0, symName: __ZN8facebook5react29NativeReactNativeFeatureFlags21fuseboxEnabledReleaseERNS_3jsi7RuntimeE, symObjAddr: 0x188, symBinAddr: 0x4188, symSize: 0x4 }
  - { offset: 0x1589C, size: 0x8, addend: 0x0, symName: __ZN8facebook5react29NativeReactNativeFeatureFlags31fuseboxNetworkInspectionEnabledERNS_3jsi7RuntimeE, symObjAddr: 0x18C, symBinAddr: 0x418C, symSize: 0x4 }
  - { offset: 0x158CB, size: 0x8, addend: 0x0, symName: __ZN8facebook5react29NativeReactNativeFeatureFlags30hideOffscreenVirtualViewsOnIOSERNS_3jsi7RuntimeE, symObjAddr: 0x190, symBinAddr: 0x4190, symSize: 0x4 }
  - { offset: 0x158FA, size: 0x8, addend: 0x0, symName: __ZN8facebook5react29NativeReactNativeFeatureFlags21preparedTextCacheSizeERNS_3jsi7RuntimeE, symObjAddr: 0x194, symBinAddr: 0x4194, symSize: 0x4 }
  - { offset: 0x15929, size: 0x8, addend: 0x0, symName: __ZN8facebook5react29NativeReactNativeFeatureFlags33preventShadowTreeCommitExhaustionERNS_3jsi7RuntimeE, symObjAddr: 0x198, symBinAddr: 0x4198, symSize: 0x4 }
  - { offset: 0x15958, size: 0x8, addend: 0x0, symName: __ZN8facebook5react29NativeReactNativeFeatureFlags42traceTurboModulePromiseRejectionsOnAndroidERNS_3jsi7RuntimeE, symObjAddr: 0x19C, symBinAddr: 0x419C, symSize: 0x4 }
  - { offset: 0x15987, size: 0x8, addend: 0x0, symName: __ZN8facebook5react29NativeReactNativeFeatureFlags41updateRuntimeShadowNodeReferencesOnCommitERNS_3jsi7RuntimeE, symObjAddr: 0x1A0, symBinAddr: 0x41A0, symSize: 0x4 }
  - { offset: 0x159B6, size: 0x8, addend: 0x0, symName: __ZN8facebook5react29NativeReactNativeFeatureFlags33useAlwaysAvailableJSErrorHandlingERNS_3jsi7RuntimeE, symObjAddr: 0x1A4, symBinAddr: 0x41A4, symSize: 0x4 }
  - { offset: 0x159E5, size: 0x8, addend: 0x0, symName: __ZN8facebook5react29NativeReactNativeFeatureFlags16useFabricInteropERNS_3jsi7RuntimeE, symObjAddr: 0x1A8, symBinAddr: 0x41A8, symSize: 0x4 }
  - { offset: 0x15A14, size: 0x8, addend: 0x0, symName: __ZN8facebook5react29NativeReactNativeFeatureFlags36useNativeViewConfigsInBridgelessModeERNS_3jsi7RuntimeE, symObjAddr: 0x1AC, symBinAddr: 0x41AC, symSize: 0x4 }
  - { offset: 0x15A43, size: 0x8, addend: 0x0, symName: __ZN8facebook5react29NativeReactNativeFeatureFlags34useOptimizedEventBatchingOnAndroidERNS_3jsi7RuntimeE, symObjAddr: 0x1B0, symBinAddr: 0x41B0, symSize: 0x4 }
  - { offset: 0x15A72, size: 0x8, addend: 0x0, symName: __ZN8facebook5react29NativeReactNativeFeatureFlags19useRawPropsJsiValueERNS_3jsi7RuntimeE, symObjAddr: 0x1B4, symBinAddr: 0x41B4, symSize: 0x4 }
  - { offset: 0x15AA1, size: 0x8, addend: 0x0, symName: __ZN8facebook5react29NativeReactNativeFeatureFlags25useShadowNodeStateOnCloneERNS_3jsi7RuntimeE, symObjAddr: 0x1B8, symBinAddr: 0x41B8, symSize: 0x4 }
  - { offset: 0x15AD0, size: 0x8, addend: 0x0, symName: __ZN8facebook5react29NativeReactNativeFeatureFlags21useTurboModuleInteropERNS_3jsi7RuntimeE, symObjAddr: 0x1BC, symBinAddr: 0x41BC, symSize: 0x4 }
  - { offset: 0x15AFF, size: 0x8, addend: 0x0, symName: __ZN8facebook5react29NativeReactNativeFeatureFlags15useTurboModulesERNS_3jsi7RuntimeE, symObjAddr: 0x1C0, symBinAddr: 0x41C0, symSize: 0x4 }
  - { offset: 0x15B2E, size: 0x8, addend: 0x0, symName: __ZN8facebook5react29NativeReactNativeFeatureFlags25virtualViewPrerenderRatioERNS_3jsi7RuntimeE, symObjAddr: 0x1C4, symBinAddr: 0x41C4, symSize: 0x4 }
  - { offset: 0x15D75, size: 0x8, addend: 0x0, symName: __ZN8facebook5react29NativeReactNativeFeatureFlagsD1Ev, symObjAddr: 0x1C8, symBinAddr: 0x41C8, symSize: 0x60 }
  - { offset: 0x1600D, size: 0x8, addend: 0x0, symName: __ZNSt3__110unique_ptrIN8facebook3jsi10WeakObjectENS_14default_deleteIS3_EEE5resetB8ne200100EPS3_, symObjAddr: 0x764, symBinAddr: 0x4764, symSize: 0x48 }
  - { offset: 0x160D6, size: 0x8, addend: 0x0, symName: __ZNSt3__112__hash_tableINS_17__hash_value_typeINS_12basic_stringIcNS_11char_traitsIcEENS_9allocatorIcEEEENS_10shared_ptrIN8facebook5react18IAsyncEventEmitterEEEEENS_22__unordered_map_hasherIS7_SD_NS_4hashIS7_EENS_8equal_toIS7_EELb1EEENS_21__unordered_map_equalIS7_SD_SI_SG_Lb1EEENS5_ISD_EEED2Ev, symObjAddr: 0x7AC, symBinAddr: 0x47AC, symSize: 0x38 }
  - { offset: 0x1622F, size: 0x8, addend: 0x0, symName: __ZNSt3__112__hash_tableINS_17__hash_value_typeINS_12basic_stringIcNS_11char_traitsIcEENS_9allocatorIcEEEEN8facebook5react11TurboModule14MethodMetadataEEENS_22__unordered_map_hasherIS7_SC_NS_4hashIS7_EENS_8equal_toIS7_EELb1EEENS_21__unordered_map_equalIS7_SC_SH_SF_Lb1EEENS5_ISC_EEED2Ev, symObjAddr: 0x8C4, symBinAddr: 0x48C4, symSize: 0x38 }
  - { offset: 0x163A4, size: 0x8, addend: 0x0, symName: __ZN8facebook5react29NativeReactNativeFeatureFlagsD0Ev, symObjAddr: 0x228, symBinAddr: 0x4228, symSize: 0x64 }
  - { offset: 0x166FC, size: 0x8, addend: 0x0, symName: __ZN8facebook5react11TurboModule3getERNS_3jsi7RuntimeERKNS2_10PropNameIDE, symObjAddr: 0x28C, symBinAddr: 0x428C, symSize: 0xF0 }
  - { offset: 0x168CA, size: 0x8, addend: 0x0, symName: __ZNK8facebook3jsi6Object11setPropertyIRNS0_5ValueEEEvRNS0_7RuntimeERKNS0_10PropNameIDEOT_, symObjAddr: 0x940, symBinAddr: 0x4940, symSize: 0x78 }
  - { offset: 0x16B18, size: 0x8, addend: 0x0, symName: __ZN8facebook5react11TurboModule16getPropertyNamesERNS_3jsi7RuntimeE, symObjAddr: 0x37C, symBinAddr: 0x437C, symSize: 0xE4 }
  - { offset: 0x16E20, size: 0x8, addend: 0x0, symName: __ZNSt3__16vectorIN8facebook3jsi10PropNameIDENS_9allocatorIS3_EEE7reserveEm, symObjAddr: 0x9B8, symBinAddr: 0x49B8, symSize: 0x8C }
  - { offset: 0x16FB7, size: 0x8, addend: 0x0, symName: __ZNSt3__16vectorIN8facebook3jsi10PropNameIDENS_9allocatorIS3_EEE9push_backB8ne200100EOS3_, symObjAddr: 0xA44, symBinAddr: 0x4A44, symSize: 0xF0 }
  - { offset: 0x17363, size: 0x8, addend: 0x0, symName: __ZNSt3__16vectorIN8facebook3jsi10PropNameIDENS_9allocatorIS3_EEE16__destroy_vectorclB8ne200100Ev, symObjAddr: 0xD2C, symBinAddr: 0x4D2C, symSize: 0x78 }
  - { offset: 0x17ACD, size: 0x8, addend: 0x0, symName: __ZNSt3__112__hash_tableINS_17__hash_value_typeINS_12basic_stringIcNS_11char_traitsIcEENS_9allocatorIcEEEEN8facebook5react11TurboModule14MethodMetadataEEENS_22__unordered_map_hasherIS7_SC_NS_4hashIS7_EENS_8equal_toIS7_EELb1EEENS_21__unordered_map_equalIS7_SC_SH_SF_Lb1EEENS5_ISC_EEE4findIS7_EENS_15__hash_iteratorIPNS_11__hash_nodeISC_PvEEEERKT_, symObjAddr: 0xDA4, symBinAddr: 0x4DA4, symSize: 0xF8 }
  - { offset: 0x17CBE, size: 0x8, addend: 0x0, symName: __ZNSt3__110__function12__value_funcIFN8facebook3jsi5ValueERNS3_7RuntimeERKS4_PS7_mEEC2B8ne200100EOSB_, symObjAddr: 0x13B4, symBinAddr: 0x53B4, symSize: 0x64 }
  - { offset: 0x17E54, size: 0x8, addend: 0x0, symName: __ZN8facebook5react11TurboModuleD1Ev, symObjAddr: 0x6A0, symBinAddr: 0x46A0, symSize: 0x60 }
  - { offset: 0x180C9, size: 0x8, addend: 0x0, symName: __ZN8facebook5react11TurboModuleD0Ev, symObjAddr: 0x700, symBinAddr: 0x4700, symSize: 0x64 }
  - { offset: 0x18493, size: 0x8, addend: 0x0, symName: __ZNSt3__112__hash_tableINS_17__hash_value_typeINS_12basic_stringIcNS_11char_traitsIcEENS_9allocatorIcEEEENS_10shared_ptrIN8facebook5react18IAsyncEventEmitterEEEEENS_22__unordered_map_hasherIS7_SD_NS_4hashIS7_EENS_8equal_toIS7_EELb1EEENS_21__unordered_map_equalIS7_SD_SI_SG_Lb1EEENS5_ISD_EEE17__deallocate_nodeEPNS_16__hash_node_baseIPNS_11__hash_nodeISD_PvEEEE, symObjAddr: 0x7E4, symBinAddr: 0x47E4, symSize: 0x3C }
  - { offset: 0x186B6, size: 0x8, addend: 0x0, symName: __ZNSt3__110shared_ptrIN8facebook5react18IAsyncEventEmitterEED2B8ne200100Ev, symObjAddr: 0x86C, symBinAddr: 0x486C, symSize: 0x58 }
  - { offset: 0x18837, size: 0x8, addend: 0x0, symName: __ZNSt3__112__hash_tableINS_17__hash_value_typeINS_12basic_stringIcNS_11char_traitsIcEENS_9allocatorIcEEEEN8facebook5react11TurboModule14MethodMetadataEEENS_22__unordered_map_hasherIS7_SC_NS_4hashIS7_EENS_8equal_toIS7_EELb1EEENS_21__unordered_map_equalIS7_SC_SH_SF_Lb1EEENS5_ISC_EEE17__deallocate_nodeEPNS_16__hash_node_baseIPNS_11__hash_nodeISC_PvEEEE, symObjAddr: 0x8FC, symBinAddr: 0x48FC, symSize: 0x44 }
  - { offset: 0x18CA3, size: 0x8, addend: 0x0, symName: __ZNSt3__16vectorIN8facebook3jsi10PropNameIDENS_9allocatorIS3_EEE26__swap_out_circular_bufferERNS_14__split_bufferIS3_RS5_EE, symObjAddr: 0xB48, symBinAddr: 0x4B48, symSize: 0xBC }
  - { offset: 0x18F8C, size: 0x8, addend: 0x0, symName: __ZNSt3__114__split_bufferIN8facebook3jsi10PropNameIDERNS_9allocatorIS3_EEED2Ev, symObjAddr: 0xCD4, symBinAddr: 0x4CD4, symSize: 0x58 }
  - { offset: 0x19119, size: 0x8, addend: 0x0, symName: __ZNSt3__16vectorIN8facebook3jsi10PropNameIDENS_9allocatorIS3_EEE20__throw_length_errorB8ne200100Ev, symObjAddr: 0xB34, symBinAddr: 0x4B34, symSize: 0x14 }
  - { offset: 0x19131, size: 0x8, addend: 0x0, symName: __ZNSt3__16vectorIN8facebook3jsi10PropNameIDENS_9allocatorIS3_EEE26__swap_out_circular_bufferERNS_14__split_bufferIS3_RS5_EE, symObjAddr: 0xB48, symBinAddr: 0x4B48, symSize: 0xBC }
  - { offset: 0x1933A, size: 0x8, addend: 0x0, symName: __ZNSt12length_errorC1B8ne200100EPKc, symObjAddr: 0xC54, symBinAddr: 0x4C54, symSize: 0x24 }
  - { offset: 0x195DA, size: 0x8, addend: 0x0, symName: __ZNKSt3__113__string_hashIcNS_9allocatorIcEEEclB8ne200100ERKNS_12basic_stringIcNS_11char_traitsIcEES2_EE, symObjAddr: 0xE9C, symBinAddr: 0x4E9C, symSize: 0x3C }
  - { offset: 0x196AB, size: 0x8, addend: 0x0, symName: __ZNKSt3__18equal_toINS_12basic_stringIcNS_11char_traitsIcEENS_9allocatorIcEEEEEclB8ne200100ERKS6_S9_, symObjAddr: 0x1344, symBinAddr: 0x5344, symSize: 0x70 }
  - { offset: 0x196F4, size: 0x8, addend: 0x0, symName: __ZNKSt3__18equal_toINS_12basic_stringIcNS_11char_traitsIcEENS_9allocatorIcEEEEEclB8ne200100ERKS6_S9_, symObjAddr: 0x1344, symBinAddr: 0x5344, symSize: 0x70 }
  - { offset: 0x19727, size: 0x8, addend: 0x0, symName: __ZNKSt3__18equal_toINS_12basic_stringIcNS_11char_traitsIcEENS_9allocatorIcEEEEEclB8ne200100ERKS6_S9_, symObjAddr: 0x1344, symBinAddr: 0x5344, symSize: 0x70 }
  - { offset: 0x19743, size: 0x8, addend: 0x0, symName: __ZNKSt3__18equal_toINS_12basic_stringIcNS_11char_traitsIcEENS_9allocatorIcEEEEEclB8ne200100ERKS6_S9_, symObjAddr: 0x1344, symBinAddr: 0x5344, symSize: 0x70 }
  - { offset: 0x19847, size: 0x8, addend: 0x0, symName: __ZNKSt3__121__murmur2_or_cityhashImLm64EEclB8ne200100EPKvm, symObjAddr: 0xED8, symBinAddr: 0x4ED8, symSize: 0x208 }
  - { offset: 0x19EC2, size: 0x8, addend: 0x0, symName: __ZNSt3__121__murmur2_or_cityhashImLm64EE18__hash_len_0_to_16B8ne200100EPKcm, symObjAddr: 0x10E0, symBinAddr: 0x50E0, symSize: 0xF8 }
  - { offset: 0x1A0D1, size: 0x8, addend: 0x0, symName: __ZNSt3__121__murmur2_or_cityhashImLm64EE19__hash_len_33_to_64B8ne200100EPKcm, symObjAddr: 0x1284, symBinAddr: 0x5284, symSize: 0xC0 }
  - { offset: 0x1A33F, size: 0x8, addend: 0x0, symName: __ZNSt3__121__murmur2_or_cityhashImLm64EE19__hash_len_17_to_32B8ne200100EPKcm, symObjAddr: 0x11D8, symBinAddr: 0x51D8, symSize: 0xAC }
  - { offset: 0x1A50A, size: 0x8, addend: 0x0, symName: __ZNSt3__110__function6__funcIZN8facebook5react11TurboModule6createERNS2_3jsi7RuntimeERKNS5_10PropNameIDEEUlS7_RKNS5_5ValueEPSC_mE_NS_9allocatorISF_EEFSB_S7_SD_SE_mEED1Ev, symObjAddr: 0x1418, symBinAddr: 0x5418, symSize: 0x4 }
  - { offset: 0x1A536, size: 0x8, addend: 0x0, symName: __ZNSt3__110__function6__funcIZN8facebook5react11TurboModule6createERNS2_3jsi7RuntimeERKNS5_10PropNameIDEEUlS7_RKNS5_5ValueEPSC_mE_NS_9allocatorISF_EEFSB_S7_SD_SE_mEED0Ev, symObjAddr: 0x141C, symBinAddr: 0x541C, symSize: 0x4 }
  - { offset: 0x1A626, size: 0x8, addend: 0x0, symName: __ZNKSt3__110__function6__funcIZN8facebook5react11TurboModule6createERNS2_3jsi7RuntimeERKNS5_10PropNameIDEEUlS7_RKNS5_5ValueEPSC_mE_NS_9allocatorISF_EEFSB_S7_SD_SE_mEE7__cloneEv, symObjAddr: 0x1420, symBinAddr: 0x5420, symSize: 0x40 }
  - { offset: 0x1A833, size: 0x8, addend: 0x0, symName: __ZNKSt3__110__function6__funcIZN8facebook5react11TurboModule6createERNS2_3jsi7RuntimeERKNS5_10PropNameIDEEUlS7_RKNS5_5ValueEPSC_mE_NS_9allocatorISF_EEFSB_S7_SD_SE_mEE7__cloneEPNS0_6__baseISI_EE, symObjAddr: 0x1460, symBinAddr: 0x5460, symSize: 0x20 }
  - { offset: 0x1A869, size: 0x8, addend: 0x0, symName: __ZNKSt3__110__function6__funcIZN8facebook5react11TurboModule6createERNS2_3jsi7RuntimeERKNS5_10PropNameIDEEUlS7_RKNS5_5ValueEPSC_mE_NS_9allocatorISF_EEFSB_S7_SD_SE_mEE7__cloneEPNS0_6__baseISI_EE, symObjAddr: 0x1460, symBinAddr: 0x5460, symSize: 0x20 }
  - { offset: 0x1A897, size: 0x8, addend: 0x0, symName: __ZNKSt3__110__function6__funcIZN8facebook5react11TurboModule6createERNS2_3jsi7RuntimeERKNS5_10PropNameIDEEUlS7_RKNS5_5ValueEPSC_mE_NS_9allocatorISF_EEFSB_S7_SD_SE_mEE7__cloneEPNS0_6__baseISI_EE, symObjAddr: 0x1460, symBinAddr: 0x5460, symSize: 0x20 }
  - { offset: 0x1A926, size: 0x8, addend: 0x0, symName: __ZNSt3__110__function6__funcIZN8facebook5react11TurboModule6createERNS2_3jsi7RuntimeERKNS5_10PropNameIDEEUlS7_RKNS5_5ValueEPSC_mE_NS_9allocatorISF_EEFSB_S7_SD_SE_mEE7destroyEv, symObjAddr: 0x1480, symBinAddr: 0x5480, symSize: 0x4 }
  - { offset: 0x1A97C, size: 0x8, addend: 0x0, symName: __ZNSt3__110__function6__funcIZN8facebook5react11TurboModule6createERNS2_3jsi7RuntimeERKNS5_10PropNameIDEEUlS7_RKNS5_5ValueEPSC_mE_NS_9allocatorISF_EEFSB_S7_SD_SE_mEE18destroy_deallocateEv, symObjAddr: 0x1484, symBinAddr: 0x5484, symSize: 0x4 }
  - { offset: 0x1A9B0, size: 0x8, addend: 0x0, symName: __ZNSt3__110__function6__funcIZN8facebook5react11TurboModule6createERNS2_3jsi7RuntimeERKNS5_10PropNameIDEEUlS7_RKNS5_5ValueEPSC_mE_NS_9allocatorISF_EEFSB_S7_SD_SE_mEE18destroy_deallocateEv, symObjAddr: 0x1484, symBinAddr: 0x5484, symSize: 0x4 }
  - { offset: 0x1A9D2, size: 0x8, addend: 0x0, symName: __ZNSt3__110__function6__funcIZN8facebook5react11TurboModule6createERNS2_3jsi7RuntimeERKNS5_10PropNameIDEEUlS7_RKNS5_5ValueEPSC_mE_NS_9allocatorISF_EEFSB_S7_SD_SE_mEE18destroy_deallocateEv, symObjAddr: 0x1484, symBinAddr: 0x5484, symSize: 0x4 }
  - { offset: 0x1AA04, size: 0x8, addend: 0x0, symName: __ZNSt3__110__function6__funcIZN8facebook5react11TurboModule6createERNS2_3jsi7RuntimeERKNS5_10PropNameIDEEUlS7_RKNS5_5ValueEPSC_mE_NS_9allocatorISF_EEFSB_S7_SD_SE_mEE18destroy_deallocateEv, symObjAddr: 0x1484, symBinAddr: 0x5484, symSize: 0x4 }
  - { offset: 0x1AB21, size: 0x8, addend: 0x0, symName: __ZNSt3__110__function6__funcIZN8facebook5react11TurboModule6createERNS2_3jsi7RuntimeERKNS5_10PropNameIDEEUlS7_RKNS5_5ValueEPSC_mE_NS_9allocatorISF_EEFSB_S7_SD_SE_mEEclES7_SD_OSE_Om, symObjAddr: 0x1488, symBinAddr: 0x5488, symSize: 0x1C }
  - { offset: 0x1ACC1, size: 0x8, addend: 0x0, symName: __ZNKSt3__110__function6__funcIZN8facebook5react11TurboModule6createERNS2_3jsi7RuntimeERKNS5_10PropNameIDEEUlS7_RKNS5_5ValueEPSC_mE_NS_9allocatorISF_EEFSB_S7_SD_SE_mEE6targetERKSt9type_info, symObjAddr: 0x14A4, symBinAddr: 0x54A4, symSize: 0x3C }
  - { offset: 0x1AD0D, size: 0x8, addend: 0x0, symName: __ZNKSt9type_infoeqB8ne200100ERKS_, symObjAddr: 0x14EC, symBinAddr: 0x54EC, symSize: 0x4C }
  - { offset: 0x1ADAD, size: 0x8, addend: 0x0, symName: __ZNKSt3__110__function6__funcIZN8facebook5react11TurboModule6createERNS2_3jsi7RuntimeERKNS5_10PropNameIDEEUlS7_RKNS5_5ValueEPSC_mE_NS_9allocatorISF_EEFSB_S7_SD_SE_mEE11target_typeEv, symObjAddr: 0x14E0, symBinAddr: 0x54E0, symSize: 0xC }
  - { offset: 0x1B135, size: 0x8, addend: 0x0, symName: __ZNSt3__120__shared_ptr_emplaceIN8facebook5react29NativeReactNativeFeatureFlagsENS_9allocatorIS3_EEEC2B8ne200100IJNS_10shared_ptrINS2_11CallInvokerEEEES5_Li0EEES5_DpOT_, symObjAddr: 0x16E0, symBinAddr: 0x5590, symSize: 0x4C }
  - { offset: 0x1B2E4, size: 0x8, addend: 0x0, symName: __ZNSt3__120__shared_ptr_emplaceIN8facebook5react29NativeReactNativeFeatureFlagsENS_9allocatorIS3_EEED1Ev, symObjAddr: 0x172C, symBinAddr: 0x55DC, symSize: 0x14 }
  - { offset: 0x1B306, size: 0x8, addend: 0x0, symName: __ZNSt3__120__shared_ptr_emplaceIN8facebook5react29NativeReactNativeFeatureFlagsENS_9allocatorIS3_EEED1Ev, symObjAddr: 0x172C, symBinAddr: 0x55DC, symSize: 0x14 }
  - { offset: 0x1B33C, size: 0x8, addend: 0x0, symName: __ZNSt3__120__shared_ptr_emplaceIN8facebook5react29NativeReactNativeFeatureFlagsENS_9allocatorIS3_EEED0Ev, symObjAddr: 0x1740, symBinAddr: 0x55F0, symSize: 0x24 }
  - { offset: 0x1B407, size: 0x8, addend: 0x0, symName: __ZNSt3__120__shared_ptr_emplaceIN8facebook5react29NativeReactNativeFeatureFlagsENS_9allocatorIS3_EEE16__on_zero_sharedEv, symObjAddr: 0x1764, symBinAddr: 0x5614, symSize: 0xC }
  - { offset: 0x1B430, size: 0x8, addend: 0x0, symName: __ZNSt3__120__shared_ptr_emplaceIN8facebook5react29NativeReactNativeFeatureFlagsENS_9allocatorIS3_EEE16__on_zero_sharedEv, symObjAddr: 0x1764, symBinAddr: 0x5614, symSize: 0xC }
  - { offset: 0x1B44E, size: 0x8, addend: 0x0, symName: __ZNSt3__120__shared_ptr_emplaceIN8facebook5react29NativeReactNativeFeatureFlagsENS_9allocatorIS3_EEE16__on_zero_sharedEv, symObjAddr: 0x1764, symBinAddr: 0x5614, symSize: 0xC }
  - { offset: 0x1B46C, size: 0x8, addend: 0x0, symName: __ZNSt3__120__shared_ptr_emplaceIN8facebook5react29NativeReactNativeFeatureFlagsENS_9allocatorIS3_EEE16__on_zero_sharedEv, symObjAddr: 0x1764, symBinAddr: 0x5614, symSize: 0xC }
  - { offset: 0x1B498, size: 0x8, addend: 0x0, symName: __ZNSt3__120__shared_ptr_emplaceIN8facebook5react29NativeReactNativeFeatureFlagsENS_9allocatorIS3_EEE21__on_zero_shared_weakEv, symObjAddr: 0x1770, symBinAddr: 0x5620, symSize: 0x4 }
  - { offset: 0x1B4CA, size: 0x8, addend: 0x0, symName: __ZNSt3__120__shared_ptr_emplaceIN8facebook5react29NativeReactNativeFeatureFlagsENS_9allocatorIS3_EEE21__on_zero_shared_weakEv, symObjAddr: 0x1770, symBinAddr: 0x5620, symSize: 0x4 }
  - { offset: 0x1B4EB, size: 0x8, addend: 0x0, symName: __ZNSt3__120__shared_ptr_emplaceIN8facebook5react29NativeReactNativeFeatureFlagsENS_9allocatorIS3_EEE21__on_zero_shared_weakEv, symObjAddr: 0x1770, symBinAddr: 0x5620, symSize: 0x4 }
  - { offset: 0x1B50D, size: 0x8, addend: 0x0, symName: __ZNSt3__120__shared_ptr_emplaceIN8facebook5react29NativeReactNativeFeatureFlagsENS_9allocatorIS3_EEE21__on_zero_shared_weakEv, symObjAddr: 0x1770, symBinAddr: 0x5620, symSize: 0x4 }
  - { offset: 0x1B540, size: 0x8, addend: 0x0, symName: __ZNSt3__120__shared_ptr_emplaceIN8facebook5react29NativeReactNativeFeatureFlagsENS_9allocatorIS3_EEE21__on_zero_shared_weakEv, symObjAddr: 0x1770, symBinAddr: 0x5620, symSize: 0x4 }
...
