---
triple:          'arm64-apple-darwin'
binary-path:     '/Users/uk-aplatts/Development/InjuryIQ/ios/DerivedData/Build/Intermediates.noindex/ArchiveIntermediates/InjuryIQ/IntermediateBuildFilesPath/UninstalledProducts/iphoneos/RCTFabric.framework/RCTFabric'
relocations:
  - { offset: 0x33, size: 0x8, addend: 0x0, symName: _RCTFabricVersionString, symObjAddr: 0x0, symBinAddr: 0x641F0, symSize: 0x0 }
  - { offset: 0x67, size: 0x8, addend: 0x0, symName: _RCTFabricVersionNumber, symObjAddr: 0x28, symBinAddr: 0x64218, symSize: 0x0 }
  - { offset: 0xB481, size: 0x8, addend: 0x0, symName: __ZN8facebook5react14AppleEventBeatC2ENSt3__110shared_ptrINS0_9EventBeat8OwnerBoxEEENS2_10unique_ptrIKNS0_15RunLoopObserverENS2_14default_deleteIS9_EEEERNS0_16RuntimeSchedulerE, symObjAddr: 0x0, symBinAddr: 0x4000, symSize: 0xC8 }
  - { offset: 0xB682, size: 0x8, addend: 0x0, symName: __ZNSt3__110shared_ptrIN8facebook5react9EventBeat8OwnerBoxEED2B8ne200100Ev, symObjAddr: 0x2C4, symBinAddr: 0x42C4, symSize: 0x58 }
  - { offset: 0xB70C, size: 0x8, addend: 0x0, symName: __ZN8facebook5react14AppleEventBeatC1ENSt3__110shared_ptrINS0_9EventBeat8OwnerBoxEEENS2_10unique_ptrIKNS0_15RunLoopObserverENS2_14default_deleteIS9_EEEERNS0_16RuntimeSchedulerE, symObjAddr: 0xC8, symBinAddr: 0x40C8, symSize: 0x4 }
  - { offset: 0xB766, size: 0x8, addend: 0x0, symName: __ZN8facebook5react14AppleEventBeatC1ENSt3__110shared_ptrINS0_9EventBeat8OwnerBoxEEENS2_10unique_ptrIKNS0_15RunLoopObserverENS2_14default_deleteIS9_EEEERNS0_16RuntimeSchedulerE, symObjAddr: 0xC8, symBinAddr: 0x40C8, symSize: 0x4 }
  - { offset: 0xB78E, size: 0x8, addend: 0x0, symName: __ZNK8facebook5react14AppleEventBeat17activityDidChangeEPKNS0_15RunLoopObserver8DelegateENS2_8ActivityE, symObjAddr: 0xCC, symBinAddr: 0x40CC, symSize: 0x18 }
  - { offset: 0xB7EC, size: 0x8, addend: 0x0, symName: __ZThn112_NK8facebook5react14AppleEventBeat17activityDidChangeEPKNS0_15RunLoopObserver8DelegateENS2_8ActivityE, symObjAddr: 0xF4, symBinAddr: 0x40F4, symSize: 0x1C }
  - { offset: 0xB8BA, size: 0x8, addend: 0x0, symName: __ZN8facebook5react14AppleEventBeatD1Ev, symObjAddr: 0x110, symBinAddr: 0x4110, symSize: 0x48 }
  - { offset: 0xB99A, size: 0x8, addend: 0x0, symName: __ZN8facebook5react9EventBeatD2Ev, symObjAddr: 0x238, symBinAddr: 0x4238, symSize: 0x8C }
  - { offset: 0xBB18, size: 0x8, addend: 0x0, symName: __ZN8facebook5react14AppleEventBeatD0Ev, symObjAddr: 0x158, symBinAddr: 0x4158, symSize: 0x4C }
  - { offset: 0xBC18, size: 0x8, addend: 0x0, symName: __ZThn112_N8facebook5react14AppleEventBeatD1Ev, symObjAddr: 0x1A4, symBinAddr: 0x41A4, symSize: 0x48 }
  - { offset: 0xBCFE, size: 0x8, addend: 0x0, symName: __ZThn112_N8facebook5react14AppleEventBeatD0Ev, symObjAddr: 0x1EC, symBinAddr: 0x41EC, symSize: 0x4C }
  - { offset: 0xF23B, size: 0x8, addend: 0x0, symName: __ZN8facebook5react23PlatformRunLoopObserverC2ENS0_15RunLoopObserver8ActivityENSt3__18weak_ptrIKvEEP11__CFRunLoop, symObjAddr: 0x0, symBinAddr: 0x431C, symSize: 0x11C }
  - { offset: 0xF575, size: 0x8, addend: 0x0, symName: __ZN8facebook5react23PlatformRunLoopObserverC2ENS0_15RunLoopObserver8ActivityENSt3__18weak_ptrIKvEEP11__CFRunLoop.cold.1, symObjAddr: 0x2F4, symBinAddr: 0x5A684, symSize: 0x2C }
  - { offset: 0xF590, size: 0x8, addend: 0x0, symName: __ZN8facebook5react23PlatformRunLoopObserverC2ENS0_15RunLoopObserver8ActivityENSt3__18weak_ptrIKvEEP11__CFRunLoop.cold.1, symObjAddr: 0x2F4, symBinAddr: 0x5A684, symSize: 0x2C }
  - { offset: 0xF658, size: 0x8, addend: 0x0, symName: ____ZN8facebook5react23PlatformRunLoopObserverC2ENS0_15RunLoopObserver8ActivityENSt3__18weak_ptrIKvEEP11__CFRunLoop_block_invoke, symObjAddr: 0x11C, symBinAddr: 0x4438, symSize: 0x90 }
  - { offset: 0xF77C, size: 0x8, addend: 0x0, symName: ___copy_helper_block_ea8_40c25_ZTSNSt3__18weak_ptrIKvEE, symObjAddr: 0x1AC, symBinAddr: 0x44C8, symSize: 0x24 }
  - { offset: 0xF7A4, size: 0x8, addend: 0x0, symName: ___copy_helper_block_ea8_40c25_ZTSNSt3__18weak_ptrIKvEE, symObjAddr: 0x1AC, symBinAddr: 0x44C8, symSize: 0x24 }
  - { offset: 0xF7C9, size: 0x8, addend: 0x0, symName: ___copy_helper_block_ea8_40c25_ZTSNSt3__18weak_ptrIKvEE, symObjAddr: 0x1AC, symBinAddr: 0x44C8, symSize: 0x24 }
  - { offset: 0xF82C, size: 0x8, addend: 0x0, symName: ___destroy_helper_block_ea8_40c25_ZTSNSt3__18weak_ptrIKvEE, symObjAddr: 0x1D0, symBinAddr: 0x44EC, symSize: 0x10 }
  - { offset: 0xF84E, size: 0x8, addend: 0x0, symName: ___destroy_helper_block_ea8_40c25_ZTSNSt3__18weak_ptrIKvEE, symObjAddr: 0x1D0, symBinAddr: 0x44EC, symSize: 0x10 }
  - { offset: 0xF86B, size: 0x8, addend: 0x0, symName: ___destroy_helper_block_ea8_40c25_ZTSNSt3__18weak_ptrIKvEE, symObjAddr: 0x1D0, symBinAddr: 0x44EC, symSize: 0x10 }
  - { offset: 0xF88A, size: 0x8, addend: 0x0, symName: __ZN8facebook5react23PlatformRunLoopObserverC1ENS0_15RunLoopObserver8ActivityENSt3__18weak_ptrIKvEEP11__CFRunLoop, symObjAddr: 0x1E0, symBinAddr: 0x44FC, symSize: 0x4 }
  - { offset: 0xF8E3, size: 0x8, addend: 0x0, symName: __ZN8facebook5react23PlatformRunLoopObserverC1ENS0_15RunLoopObserver8ActivityENSt3__18weak_ptrIKvEEP11__CFRunLoop, symObjAddr: 0x1E0, symBinAddr: 0x44FC, symSize: 0x4 }
  - { offset: 0xF90A, size: 0x8, addend: 0x0, symName: __ZN8facebook5react23PlatformRunLoopObserverD2Ev, symObjAddr: 0x1E4, symBinAddr: 0x4500, symSize: 0x58 }
  - { offset: 0xF9B3, size: 0x8, addend: 0x0, symName: __ZNK8facebook5react23PlatformRunLoopObserver13stopObservingEv, symObjAddr: 0x290, symBinAddr: 0x459C, symSize: 0x2C }
  - { offset: 0xFA03, size: 0x8, addend: 0x0, symName: __ZN8facebook5react23PlatformRunLoopObserverD1Ev, symObjAddr: 0x24C, symBinAddr: 0x4558, symSize: 0x4 }
  - { offset: 0xFA26, size: 0x8, addend: 0x0, symName: __ZN8facebook5react23PlatformRunLoopObserverD1Ev, symObjAddr: 0x24C, symBinAddr: 0x4558, symSize: 0x4 }
  - { offset: 0xFA58, size: 0x8, addend: 0x0, symName: __ZN8facebook5react23PlatformRunLoopObserverD0Ev, symObjAddr: 0x250, symBinAddr: 0x455C, symSize: 0x14 }
  - { offset: 0xFAB5, size: 0x8, addend: 0x0, symName: __ZNK8facebook5react23PlatformRunLoopObserver14startObservingEv, symObjAddr: 0x264, symBinAddr: 0x4570, symSize: 0x2C }
  - { offset: 0xFB3F, size: 0x8, addend: 0x0, symName: __ZNK8facebook5react23PlatformRunLoopObserver17isOnRunLoopThreadEv, symObjAddr: 0x2BC, symBinAddr: 0x45C8, symSize: 0x30 }
  - { offset: 0xFB81, size: 0x8, addend: 0x0, symName: __ZN8facebook5react15RunLoopObserverD1Ev, symObjAddr: 0x2EC, symBinAddr: 0x5A67C, symSize: 0x4 }
  - { offset: 0xFBAA, size: 0x8, addend: 0x0, symName: __ZN8facebook5react15RunLoopObserverD0Ev, symObjAddr: 0x2F0, symBinAddr: 0x5A680, symSize: 0x4 }
  - { offset: 0x11B75, size: 0x8, addend: 0x0, symName: '-[RCTAccessibilityElement accessibilityFrame]', symObjAddr: 0x0, symBinAddr: 0x45F8, symSize: 0xB4 }
  - { offset: 0x11F8B, size: 0x8, addend: 0x0, symName: '-[RCTAccessibilityElement accessibilityFrame]', symObjAddr: 0x0, symBinAddr: 0x45F8, symSize: 0xB4 }
  - { offset: 0x12638, size: 0x8, addend: 0x0, symName: '-[RCTAccessibilityElement frameInContainerSpace]', symObjAddr: 0xB4, symBinAddr: 0x46AC, symSize: 0x18 }
  - { offset: 0x1266C, size: 0x8, addend: 0x0, symName: '-[RCTAccessibilityElement setFrameInContainerSpace:]', symObjAddr: 0xCC, symBinAddr: 0x46C4, symSize: 0x18 }
  - { offset: 0x128BA, size: 0x8, addend: 0x0, symName: __ZN8facebook5react17HostPlatformColorL14UndefinedColorE, symObjAddr: 0x16BCA8, symBinAddr: 0x9FC70, symSize: 0x0 }
  - { offset: 0x18613, size: 0x8, addend: 0x0, symName: __ZN8facebook5react38concreteComponentDescriptorConstructorINS0_27ConcreteComponentDescriptorINS0_22ConcreteViewShadowNodeIXadL_ZNS0_34ActivityIndicatorViewComponentNameEEENS0_26ActivityIndicatorViewPropsENS0_33ActivityIndicatorViewEventEmitterENS0_9StateDataEEEEEEENSt3__110unique_ptrIKNS0_19ComponentDescriptorENS9_14default_deleteISC_EEEERKNS0_29ComponentDescriptorParametersE, symObjAddr: 0x3CC, symBinAddr: 0x4AA8, symSize: 0x34 }
  - { offset: 0x480DE, size: 0x8, addend: 0x0, symName: __ZNSt3__115allocate_sharedB8ne200100IKN8facebook5react26ActivityIndicatorViewPropsENS_9allocatorIS3_EEJELi0EEENS_10shared_ptrIT_EERKT0_DpOT1_, symObjAddr: 0x3180, symBinAddr: 0x7178, symSize: 0x48 }
  - { offset: 0x48420, size: 0x8, addend: 0x0, symName: __ZNSt3__111make_uniqueB8ne200100IKN8facebook5react27ConcreteComponentDescriptorINS2_22ConcreteViewShadowNodeIXadL_ZNS2_34ActivityIndicatorViewComponentNameEEENS2_26ActivityIndicatorViewPropsENS2_33ActivityIndicatorViewEventEmitterENS2_9StateDataEEEEEJRKNS2_29ComponentDescriptorParametersEELi0EEENS_10unique_ptrIT_NS_14default_deleteISF_EEEEDpOT0_, symObjAddr: 0x400, symBinAddr: 0x4ADC, symSize: 0xD4 }
  - { offset: 0x48D83, size: 0x8, addend: 0x0, symName: __ZNSt3__115allocate_sharedB8ne200100IN8facebook5react22ConcreteViewShadowNodeIXadL_ZNS2_34ActivityIndicatorViewComponentNameEEENS2_26ActivityIndicatorViewPropsENS2_33ActivityIndicatorViewEventEmitterENS2_9StateDataEEENS_9allocatorIS7_EEJRKNS2_18ShadowNodeFragmentERKNS_10shared_ptrIKNS2_16ShadowNodeFamilyEEENS2_16ShadowNodeTraitsEELi0EEENSD_IT_EERKT0_DpOT1_, symObjAddr: 0x1D0C, symBinAddr: 0x62C8, symSize: 0x70 }
  - { offset: 0x490A2, size: 0x8, addend: 0x0, symName: __ZNSt3__115allocate_sharedB8ne200100IN8facebook5react22ConcreteViewShadowNodeIXadL_ZNS2_34ActivityIndicatorViewComponentNameEEENS2_26ActivityIndicatorViewPropsENS2_33ActivityIndicatorViewEventEmitterENS2_9StateDataEEENS_9allocatorIS7_EEJRKNS2_10ShadowNodeERKNS2_18ShadowNodeFragmentEELi0EEENS_10shared_ptrIT_EERKT0_DpOT1_, symObjAddr: 0x22C8, symBinAddr: 0x6674, symSize: 0x60 }
  - { offset: 0x49A35, size: 0x8, addend: 0x0, symName: __ZNSt3__115allocate_sharedB8ne200100IN8facebook5react11EventTargetENS_9allocatorIS3_EEJRKNS_10shared_ptrIKNS2_14InstanceHandleEEERKiELi0EEENS6_IT_EERKT0_DpOT1_, symObjAddr: 0x2C2C, symBinAddr: 0x6DDC, symSize: 0x60 }
  - { offset: 0x49CE0, size: 0x8, addend: 0x0, symName: __ZNSt3__115allocate_sharedB8ne200100IKN8facebook5react33ActivityIndicatorViewEventEmitterENS_9allocatorIS3_EEJNS_10shared_ptrINS2_11EventTargetEEERKNS_8weak_ptrIKNS2_15EventDispatcherEEEELi0EEENS7_IT_EERKT0_DpOT1_, symObjAddr: 0x27C4, symBinAddr: 0x6A24, symSize: 0x60 }
  - { offset: 0x49F8B, size: 0x8, addend: 0x0, symName: __ZNSt3__115allocate_sharedB8ne200100IN8facebook5react16ShadowNodeFamilyENS_9allocatorIS3_EEJRKNS2_24ShadowNodeFamilyFragmentERNS_10shared_ptrIKNS2_33ActivityIndicatorViewEventEmitterEEERKNS_8weak_ptrIKNS2_15EventDispatcherEEERKNS2_27ConcreteComponentDescriptorINS2_22ConcreteViewShadowNodeIXadL_ZNS2_34ActivityIndicatorViewComponentNameEEENS2_26ActivityIndicatorViewPropsESA_NS2_9StateDataEEEEEELi0EEENS9_IT_EERKT0_DpOT1_, symObjAddr: 0x2E90, symBinAddr: 0x6F90, symSize: 0x78 }
  - { offset: 0x4A89A, size: 0x8, addend: 0x0, symName: __ZNSt3__112__destroy_atB8ne200100IN8facebook5react19AccessibilityActionELi0EEEvPT_, symObjAddr: 0x1934, symBinAddr: 0x5FA8, symSize: 0x50 }
  - { offset: 0x4AF09, size: 0x8, addend: 0x0, symName: __ZNSt3__112__destroy_atB8ne200100INS_4pairIKNS_12basic_stringIcNS_11char_traitsIcEENS_9allocatorIcEEEENS_10shared_ptrIvEEEELi0EEEvPT_, symObjAddr: 0x1AC8, symBinAddr: 0x613C, symSize: 0x3C }
  - { offset: 0x4B9C7, size: 0x8, addend: 0x0, symName: __ZNSt3__115allocate_sharedB8ne200100IN8facebook5react26ActivityIndicatorViewPropsENS_9allocatorIS3_EEJRKNS2_18PropsParserContextERKS3_RKNS2_8RawPropsEELi0EEENS_10shared_ptrIT_EERKT0_DpOT1_, symObjAddr: 0x243C, symBinAddr: 0x6790, symSize: 0x70 }
  - { offset: 0x4C331, size: 0x8, addend: 0x0, symName: __ZNSt3__120__throw_length_errorB8ne200100EPKc, symObjAddr: 0x26F8, symBinAddr: 0x69B0, symSize: 0x50 }
  - { offset: 0x4C7C1, size: 0x8, addend: 0x0, symName: __ZNSt3__112construct_atB8ne200100IN8facebook5react33ActivityIndicatorViewEventEmitterEJNS_10shared_ptrINS2_11EventTargetEEERKNS_8weak_ptrIKNS2_15EventDispatcherEEEEPS3_EEPT_SF_DpOT0_, symObjAddr: 0x28B8, symBinAddr: 0x6B18, symSize: 0x140 }
  - { offset: 0x4D6F5, size: 0x8, addend: 0x0, symName: __ZNSt3__112construct_atB8ne200100IN8facebook5react11EventTargetEJRKNS_10shared_ptrIKNS2_14InstanceHandleEEERKiEPS3_EEPT_SE_DpOT0_, symObjAddr: 0x2D3C, symBinAddr: 0x6EEC, symSize: 0xA4 }
  - { offset: 0x4DD9C, size: 0x8, addend: 0x0, symName: __ZNSt3__112construct_atB8ne200100IN8facebook5react16ShadowNodeFamilyEJRKNS2_24ShadowNodeFamilyFragmentERNS_10shared_ptrIKNS2_33ActivityIndicatorViewEventEmitterEEERKNS_8weak_ptrIKNS2_15EventDispatcherEEERKNS2_27ConcreteComponentDescriptorINS2_22ConcreteViewShadowNodeIXadL_ZNS2_34ActivityIndicatorViewComponentNameEEENS2_26ActivityIndicatorViewPropsES8_NS2_9StateDataEEEEEEPS3_EEPT_SS_DpOT0_, symObjAddr: 0x2F98, symBinAddr: 0x7098, symSize: 0xDC }
  - { offset: 0x52AE6, size: 0x8, addend: 0x0, symName: __ZN5folly6detail16throw_exception_INS_9TypeErrorEJPKcNS_7dynamic4TypeEEEEvDpT0_, symObjAddr: 0x2568, symBinAddr: 0x5A6B8, symSize: 0x68 }
  - { offset: 0x53B71, size: 0x8, addend: 0x0, symName: __ZN5folly15throw_exceptionINS_9TypeErrorEEEvOT_, symObjAddr: 0x25D0, symBinAddr: 0x5A720, symSize: 0x34 }
  - { offset: 0x56FF0, size: 0x8, addend: 0x0, symName: __ZN8facebook5react18ConcreteShadowNodeIXadL_ZNS0_34ActivityIndicatorViewComponentNameEEENS0_24YogaLayoutableShadowNodeENS0_26ActivityIndicatorViewPropsENS0_33ActivityIndicatorViewEventEmitterENS0_9StateDataEE18defaultSharedPropsEv, symObjAddr: 0x168, symBinAddr: 0x4844, symSize: 0x9C }
  - { offset: 0x57010, size: 0x8, addend: 0x0, symName: __ZZN8facebook5react18ConcreteShadowNodeIXadL_ZNS0_34ActivityIndicatorViewComponentNameEEENS0_24YogaLayoutableShadowNodeENS0_26ActivityIndicatorViewPropsENS0_33ActivityIndicatorViewEventEmitterENS0_9StateDataEE18defaultSharedPropsEvE18defaultSharedProps, symObjAddr: 0x48B8, symBinAddr: 0x9F1B8, symSize: 0x0 }
  - { offset: 0x577F6, size: 0x8, addend: 0x0, symName: '+[RCTActivityIndicatorViewComponentView componentDescriptorProvider]', symObjAddr: 0x0, symBinAddr: 0x46DC, symSize: 0x20 }
  - { offset: 0x57829, size: 0x8, addend: 0x0, symName: '+[RCTActivityIndicatorViewComponentView componentDescriptorProvider]', symObjAddr: 0x0, symBinAddr: 0x46DC, symSize: 0x20 }
  - { offset: 0x578E3, size: 0x8, addend: 0x0, symName: '-[RCTActivityIndicatorViewComponentView initWithFrame:]', symObjAddr: 0x20, symBinAddr: 0x46FC, symSize: 0x148 }
  - { offset: 0x57A0F, size: 0x8, addend: 0x0, symName: __ZNSt3__110shared_ptrIKN8facebook5react13BaseViewPropsEEaSB8ne200100IKNS2_26ActivityIndicatorViewPropsELi0EEERS5_RKNS0_IT_EE, symObjAddr: 0x204, symBinAddr: 0x48E0, symSize: 0x78 }
  - { offset: 0x57D57, size: 0x8, addend: 0x0, symName: '-[RCTActivityIndicatorViewComponentView updateProps:oldProps:]', symObjAddr: 0x27C, symBinAddr: 0x4958, symSize: 0x130 }
  - { offset: 0x57E58, size: 0x8, addend: 0x0, symName: '-[RCTActivityIndicatorViewComponentView .cxx_destruct]', symObjAddr: 0x3AC, symBinAddr: 0x4A88, symSize: 0x14 }
  - { offset: 0x57E89, size: 0x8, addend: 0x0, symName: _RCTActivityIndicatorViewCls, symObjAddr: 0x3C0, symBinAddr: 0x4A9C, symSize: 0xC }
  - { offset: 0x583AD, size: 0x8, addend: 0x0, symName: __ZN8facebook5react14RawPropsParser7prepareINS0_26ActivityIndicatorViewPropsEEEvv, symObjAddr: 0x524, symBinAddr: 0x4C00, symSize: 0x220 }
  - { offset: 0x58CCF, size: 0x8, addend: 0x0, symName: __ZN8facebook5react14RawPropsParserD1Ev, symObjAddr: 0x4D4, symBinAddr: 0x4BB0, symSize: 0x50 }
  - { offset: 0x59641, size: 0x8, addend: 0x0, symName: __ZN8facebook5react26ActivityIndicatorViewPropsC1Ev, symObjAddr: 0xCCC, symBinAddr: 0x5398, symSize: 0x78 }
  - { offset: 0x597BD, size: 0x8, addend: 0x0, symName: __ZN8facebook5react13BaseViewPropsD2Ev, symObjAddr: 0x105C, symBinAddr: 0x5728, symSize: 0xD0 }
  - { offset: 0x59F6B, size: 0x8, addend: 0x0, symName: __ZNSt3__112__hash_tableINS_17__hash_value_typeINS_12basic_stringIcNS_11char_traitsIcEENS_9allocatorIcEEEENS_10shared_ptrIvEEEENS_22__unordered_map_hasherIS7_SA_NS_4hashIS7_EENS_8equal_toIS7_EELb1EEENS_21__unordered_map_equalIS7_SA_SF_SD_Lb1EEENS5_ISA_EEED2Ev, symObjAddr: 0x1A54, symBinAddr: 0x60C8, symSize: 0x38 }
  - { offset: 0x5A0C5, size: 0x8, addend: 0x0, symName: __ZNSt3__16vectorIN8facebook5react8RawValueENS_9allocatorIS3_EEE16__destroy_vectorclB8ne200100Ev, symObjAddr: 0x1B04, symBinAddr: 0x6178, symSize: 0x70 }
  - { offset: 0x5A3B6, size: 0x8, addend: 0x0, symName: __ZN8facebook5react27ConcreteComponentDescriptorINS0_22ConcreteViewShadowNodeIXadL_ZNS0_34ActivityIndicatorViewComponentNameEEENS0_26ActivityIndicatorViewPropsENS0_33ActivityIndicatorViewEventEmitterENS0_9StateDataEEEED1Ev, symObjAddr: 0x744, symBinAddr: 0x4E20, symSize: 0x4 }
  - { offset: 0x5A3D8, size: 0x8, addend: 0x0, symName: __ZN8facebook5react27ConcreteComponentDescriptorINS0_22ConcreteViewShadowNodeIXadL_ZNS0_34ActivityIndicatorViewComponentNameEEENS0_26ActivityIndicatorViewPropsENS0_33ActivityIndicatorViewEventEmitterENS0_9StateDataEEEED1Ev, symObjAddr: 0x744, symBinAddr: 0x4E20, symSize: 0x4 }
  - { offset: 0x5A3F5, size: 0x8, addend: 0x0, symName: __ZN8facebook5react27ConcreteComponentDescriptorINS0_22ConcreteViewShadowNodeIXadL_ZNS0_34ActivityIndicatorViewComponentNameEEENS0_26ActivityIndicatorViewPropsENS0_33ActivityIndicatorViewEventEmitterENS0_9StateDataEEEED1Ev, symObjAddr: 0x744, symBinAddr: 0x4E20, symSize: 0x4 }
  - { offset: 0x5A408, size: 0x8, addend: 0x0, symName: __ZN8facebook5react19ComponentDescriptorD2Ev, symObjAddr: 0x1BD8, symBinAddr: 0x624C, symSize: 0x7C }
  - { offset: 0x5A8CC, size: 0x8, addend: 0x0, symName: __ZN8facebook5react27ConcreteComponentDescriptorINS0_22ConcreteViewShadowNodeIXadL_ZNS0_34ActivityIndicatorViewComponentNameEEENS0_26ActivityIndicatorViewPropsENS0_33ActivityIndicatorViewEventEmitterENS0_9StateDataEEEED0Ev, symObjAddr: 0x748, symBinAddr: 0x4E24, symSize: 0x14 }
  - { offset: 0x5A945, size: 0x8, addend: 0x0, symName: __ZNK8facebook5react27ConcreteComponentDescriptorINS0_22ConcreteViewShadowNodeIXadL_ZNS0_34ActivityIndicatorViewComponentNameEEENS0_26ActivityIndicatorViewPropsENS0_33ActivityIndicatorViewEventEmitterENS0_9StateDataEEEE18getComponentHandleEv, symObjAddr: 0x75C, symBinAddr: 0x4E38, symSize: 0xC }
  - { offset: 0x5A96B, size: 0x8, addend: 0x0, symName: __ZNK8facebook5react27ConcreteComponentDescriptorINS0_22ConcreteViewShadowNodeIXadL_ZNS0_34ActivityIndicatorViewComponentNameEEENS0_26ActivityIndicatorViewPropsENS0_33ActivityIndicatorViewEventEmitterENS0_9StateDataEEEE16getComponentNameEv, symObjAddr: 0x768, symBinAddr: 0x4E44, symSize: 0xC }
  - { offset: 0x5A991, size: 0x8, addend: 0x0, symName: __ZNK8facebook5react27ConcreteComponentDescriptorINS0_22ConcreteViewShadowNodeIXadL_ZNS0_34ActivityIndicatorViewComponentNameEEENS0_26ActivityIndicatorViewPropsENS0_33ActivityIndicatorViewEventEmitterENS0_9StateDataEEEE9getTraitsEv, symObjAddr: 0x774, symBinAddr: 0x4E50, symSize: 0x8 }
  - { offset: 0x5AA87, size: 0x8, addend: 0x0, symName: __ZNK8facebook5react27ConcreteComponentDescriptorINS0_22ConcreteViewShadowNodeIXadL_ZNS0_34ActivityIndicatorViewComponentNameEEENS0_26ActivityIndicatorViewPropsENS0_33ActivityIndicatorViewEventEmitterENS0_9StateDataEEEE16createShadowNodeERKNS0_18ShadowNodeFragmentERKNSt3__110shared_ptrIKNS0_16ShadowNodeFamilyEEE, symObjAddr: 0x77C, symBinAddr: 0x4E58, symSize: 0x90 }
  - { offset: 0x5ACFF, size: 0x8, addend: 0x0, symName: __ZNK8facebook5react27ConcreteComponentDescriptorINS0_22ConcreteViewShadowNodeIXadL_ZNS0_34ActivityIndicatorViewComponentNameEEENS0_26ActivityIndicatorViewPropsENS0_33ActivityIndicatorViewEventEmitterENS0_9StateDataEEEE15cloneShadowNodeERKNS0_10ShadowNodeERKNS0_18ShadowNodeFragmentE, symObjAddr: 0x80C, symBinAddr: 0x4EE8, symSize: 0x104 }
  - { offset: 0x5B065, size: 0x8, addend: 0x0, symName: __ZNK8facebook5react27ConcreteComponentDescriptorINS0_22ConcreteViewShadowNodeIXadL_ZNS0_34ActivityIndicatorViewComponentNameEEENS0_26ActivityIndicatorViewPropsENS0_33ActivityIndicatorViewEventEmitterENS0_9StateDataEEEE11appendChildERKNSt3__110shared_ptrIKNS0_10ShadowNodeEEESE_, symObjAddr: 0x910, symBinAddr: 0x4FEC, symSize: 0x14 }
  - { offset: 0x5B0BB, size: 0x8, addend: 0x0, symName: __ZNK8facebook5react27ConcreteComponentDescriptorINS0_22ConcreteViewShadowNodeIXadL_ZNS0_34ActivityIndicatorViewComponentNameEEENS0_26ActivityIndicatorViewPropsENS0_33ActivityIndicatorViewEventEmitterENS0_9StateDataEEEE11appendChildERKNSt3__110shared_ptrIKNS0_10ShadowNodeEEESE_, symObjAddr: 0x910, symBinAddr: 0x4FEC, symSize: 0x14 }
  - { offset: 0x5B97E, size: 0x8, addend: 0x0, symName: __ZNK8facebook5react27ConcreteComponentDescriptorINS0_22ConcreteViewShadowNodeIXadL_ZNS0_34ActivityIndicatorViewComponentNameEEENS0_26ActivityIndicatorViewPropsENS0_33ActivityIndicatorViewEventEmitterENS0_9StateDataEEEE10clonePropsERKNS0_18PropsParserContextERKNSt3__110shared_ptrIKNS0_5PropsEEENS0_8RawPropsE, symObjAddr: 0x924, symBinAddr: 0x5000, symSize: 0x21C }
  - { offset: 0x5C4A2, size: 0x8, addend: 0x0, symName: __ZN8facebook5react18ConcreteShadowNodeIXadL_ZNS0_34ActivityIndicatorViewComponentNameEEENS0_24YogaLayoutableShadowNodeENS0_26ActivityIndicatorViewPropsENS0_33ActivityIndicatorViewEventEmitterENS0_9StateDataEE5PropsERKNS0_18PropsParserContextERKNS0_8RawPropsERKNSt3__110shared_ptrIKNS0_5PropsEEE, symObjAddr: 0x23E4, symBinAddr: 0x6738, symSize: 0x58 }
  - { offset: 0x5C598, size: 0x8, addend: 0x0, symName: __ZNSt3__116__variant_detail6__dtorINS0_8__traitsIJN5folly7dynamicENS_4pairIPN8facebook3jsi7RuntimeENS7_5ValueEEEEEELNS0_6_TraitE1EE9__destroyB8ne200100Ev, symObjAddr: 0x1B74, symBinAddr: 0x61E8, symSize: 0x54 }
  - { offset: 0x5C753, size: 0x8, addend: 0x0, symName: __ZNK8facebook5react27ConcreteComponentDescriptorINS0_22ConcreteViewShadowNodeIXadL_ZNS0_34ActivityIndicatorViewComponentNameEEENS0_26ActivityIndicatorViewPropsENS0_33ActivityIndicatorViewEventEmitterENS0_9StateDataEEEE18createInitialStateERKNSt3__110shared_ptrIKNS0_5PropsEEERKNS9_IKNS0_16ShadowNodeFamilyEEE, symObjAddr: 0xB40, symBinAddr: 0x521C, symSize: 0x8 }
  - { offset: 0x5C796, size: 0x8, addend: 0x0, symName: __ZNK8facebook5react27ConcreteComponentDescriptorINS0_22ConcreteViewShadowNodeIXadL_ZNS0_34ActivityIndicatorViewComponentNameEEENS0_26ActivityIndicatorViewPropsENS0_33ActivityIndicatorViewEventEmitterENS0_9StateDataEEEE18createInitialStateERKNSt3__110shared_ptrIKNS0_5PropsEEERKNS9_IKNS0_16ShadowNodeFamilyEEE, symObjAddr: 0xB40, symBinAddr: 0x521C, symSize: 0x8 }
  - { offset: 0x5C7B8, size: 0x8, addend: 0x0, symName: __ZNK8facebook5react27ConcreteComponentDescriptorINS0_22ConcreteViewShadowNodeIXadL_ZNS0_34ActivityIndicatorViewComponentNameEEENS0_26ActivityIndicatorViewPropsENS0_33ActivityIndicatorViewEventEmitterENS0_9StateDataEEEE18createInitialStateERKNSt3__110shared_ptrIKNS0_5PropsEEERKNS9_IKNS0_16ShadowNodeFamilyEEE, symObjAddr: 0xB40, symBinAddr: 0x521C, symSize: 0x8 }
  - { offset: 0x5C7DB, size: 0x8, addend: 0x0, symName: __ZNK8facebook5react27ConcreteComponentDescriptorINS0_22ConcreteViewShadowNodeIXadL_ZNS0_34ActivityIndicatorViewComponentNameEEENS0_26ActivityIndicatorViewPropsENS0_33ActivityIndicatorViewEventEmitterENS0_9StateDataEEEE11createStateERKNS0_16ShadowNodeFamilyERKNSt3__110shared_ptrIKvEE, symObjAddr: 0xB48, symBinAddr: 0x5224, symSize: 0x8 }
  - { offset: 0x5C81E, size: 0x8, addend: 0x0, symName: __ZNK8facebook5react27ConcreteComponentDescriptorINS0_22ConcreteViewShadowNodeIXadL_ZNS0_34ActivityIndicatorViewComponentNameEEENS0_26ActivityIndicatorViewPropsENS0_33ActivityIndicatorViewEventEmitterENS0_9StateDataEEEE11createStateERKNS0_16ShadowNodeFamilyERKNSt3__110shared_ptrIKvEE, symObjAddr: 0xB48, symBinAddr: 0x5224, symSize: 0x8 }
  - { offset: 0x5C840, size: 0x8, addend: 0x0, symName: __ZNK8facebook5react27ConcreteComponentDescriptorINS0_22ConcreteViewShadowNodeIXadL_ZNS0_34ActivityIndicatorViewComponentNameEEENS0_26ActivityIndicatorViewPropsENS0_33ActivityIndicatorViewEventEmitterENS0_9StateDataEEEE11createStateERKNS0_16ShadowNodeFamilyERKNSt3__110shared_ptrIKvEE, symObjAddr: 0xB48, symBinAddr: 0x5224, symSize: 0x8 }
  - { offset: 0x5CA9F, size: 0x8, addend: 0x0, symName: __ZNK8facebook5react27ConcreteComponentDescriptorINS0_22ConcreteViewShadowNodeIXadL_ZNS0_34ActivityIndicatorViewComponentNameEEENS0_26ActivityIndicatorViewPropsENS0_33ActivityIndicatorViewEventEmitterENS0_9StateDataEEEE12createFamilyERKNS0_24ShadowNodeFamilyFragmentE, symObjAddr: 0xB50, symBinAddr: 0x522C, symSize: 0x168 }
  - { offset: 0x5CFFB, size: 0x8, addend: 0x0, symName: __ZNK8facebook5react27ConcreteComponentDescriptorINS0_22ConcreteViewShadowNodeIXadL_ZNS0_34ActivityIndicatorViewComponentNameEEENS0_26ActivityIndicatorViewPropsENS0_33ActivityIndicatorViewEventEmitterENS0_9StateDataEEEE5adoptERNS0_10ShadowNodeE, symObjAddr: 0xCB8, symBinAddr: 0x5394, symSize: 0x4 }
  - { offset: 0x5D0E6, size: 0x8, addend: 0x0, symName: __ZN8facebook5react13BaseViewPropsC2Ev, symObjAddr: 0xD78, symBinAddr: 0x5444, symSize: 0x2E4 }
  - { offset: 0x5F6D6, size: 0x8, addend: 0x0, symName: __ZN8facebook5react26ActivityIndicatorViewPropsD1Ev, symObjAddr: 0xD44, symBinAddr: 0x5410, symSize: 0x34 }
  - { offset: 0x5FFAB, size: 0x8, addend: 0x0, symName: __ZN8facebook5react17YogaStylablePropsC2Ev, symObjAddr: 0x12CC, symBinAddr: 0x5998, symSize: 0xF0 }
  - { offset: 0x5FFE2, size: 0x8, addend: 0x0, symName: __ZN8facebook5react17YogaStylablePropsC2Ev, symObjAddr: 0x12CC, symBinAddr: 0x5998, symSize: 0xF0 }
  - { offset: 0x60E60, size: 0x8, addend: 0x0, symName: __ZNSt3__16vectorINS_7variantIJN8facebook5react14LinearGradientENS3_14RadialGradientEEEENS_9allocatorIS6_EEE16__destroy_vectorclB8ne200100Ev, symObjAddr: 0x1490, symBinAddr: 0x5B5C, symSize: 0x70 }
  - { offset: 0x610FE, size: 0x8, addend: 0x0, symName: __ZNSt3__16vectorIN8facebook5react14FilterFunctionENS_9allocatorIS3_EEE16__destroy_vectorclB8ne200100Ev, symObjAddr: 0x1614, symBinAddr: 0x5CE0, symSize: 0x74 }
  - { offset: 0x613FA, size: 0x8, addend: 0x0, symName: __ZNSt3__16vectorIN8facebook5react9BoxShadowENS_9allocatorIS3_EEE16__destroy_vectorclB8ne200100Ev, symObjAddr: 0x16E8, symBinAddr: 0x5DB4, symSize: 0x74 }
  - { offset: 0x61622, size: 0x8, addend: 0x0, symName: __ZN8facebook5react22CascadedRectangleEdgesINS0_11SharedColorEED2Ev, symObjAddr: 0x17B4, symBinAddr: 0x5E28, symSize: 0x110 }
  - { offset: 0x625E2, size: 0x8, addend: 0x0, symName: __ZN8facebook5react18AccessibilityPropsD2Ev, symObjAddr: 0x13BC, symBinAddr: 0x5A88, symSize: 0xD4 }
  - { offset: 0x6309D, size: 0x8, addend: 0x0, symName: __ZNKSt3__114default_deleteIN8facebook4yoga16SmallValueBufferILm4EE8OverflowEEclB8ne200100EPS5_, symObjAddr: 0x1A10, symBinAddr: 0x6084, symSize: 0x44 }
  - { offset: 0x632FA, size: 0x8, addend: 0x0, symName: __ZN8facebook5react13BaseViewPropsD1Ev, symObjAddr: 0x112C, symBinAddr: 0x57F8, symSize: 0xC }
  - { offset: 0x6334F, size: 0x8, addend: 0x0, symName: __ZN8facebook5react13BaseViewPropsD0Ev, symObjAddr: 0x1138, symBinAddr: 0x5804, symSize: 0x1C }
  - { offset: 0x633AC, size: 0x8, addend: 0x0, symName: __ZN8facebook5react17YogaStylablePropsD1Ev, symObjAddr: 0x1154, symBinAddr: 0x5820, symSize: 0x60 }
  - { offset: 0x6365E, size: 0x8, addend: 0x0, symName: __ZN8facebook5react17YogaStylablePropsD0Ev, symObjAddr: 0x11B4, symBinAddr: 0x5880, symSize: 0x60 }
  - { offset: 0x6391B, size: 0x8, addend: 0x0, symName: __ZN8facebook5react5PropsD1Ev, symObjAddr: 0x1214, symBinAddr: 0x58E0, symSize: 0x40 }
  - { offset: 0x63A78, size: 0x8, addend: 0x0, symName: __ZN8facebook5react5PropsD0Ev, symObjAddr: 0x1254, symBinAddr: 0x5920, symSize: 0x40 }
  - { offset: 0x63BDF, size: 0x8, addend: 0x0, symName: __ZN8facebook5react26ActivityIndicatorViewPropsD0Ev, symObjAddr: 0x1294, symBinAddr: 0x5960, symSize: 0x38 }
  - { offset: 0x640DA, size: 0x8, addend: 0x0, symName: __ZNSt3__16vectorIN8facebook5react19AccessibilityActionENS_9allocatorIS3_EEE16__destroy_vectorclB8ne200100Ev, symObjAddr: 0x18C4, symBinAddr: 0x5F38, symSize: 0x70 }
  - { offset: 0x6421B, size: 0x8, addend: 0x0, symName: __ZNSt3__16vectorINS_12basic_stringIcNS_11char_traitsIcEENS_9allocatorIcEEEENS4_IS6_EEE16__destroy_vectorclB8ne200100Ev, symObjAddr: 0x1984, symBinAddr: 0x5FF8, symSize: 0x40 }
  - { offset: 0x64505, size: 0x8, addend: 0x0, symName: __ZNSt3__116__variant_detail6__dtorINS0_8__traitsIJN8facebook5react14LinearGradientENS4_14RadialGradientEEEELNS0_6_TraitE1EE9__destroyB8ne200100Ev, symObjAddr: 0x1500, symBinAddr: 0x5BCC, symSize: 0x54 }
  - { offset: 0x64880, size: 0x8, addend: 0x0, symName: __ZNSt3__116__variant_detail12__visitation6__base12__dispatcherIJLm0EEE10__dispatchB8ne200100IOZNS0_6__dtorINS0_8__traitsIJN8facebook5react14LinearGradientENS9_14RadialGradientEEEELNS0_6_TraitE1EE9__destroyB8ne200100EvEUlRT_E_JRNS0_6__baseILSD_1EJSA_SB_EEEEEEDcSF_DpT0_, symObjAddr: 0x1554, symBinAddr: 0x5C20, symSize: 0x28 }
  - { offset: 0x64A14, size: 0x8, addend: 0x0, symName: __ZNSt3__16vectorIN8facebook5react9ColorStopENS_9allocatorIS3_EEE16__destroy_vectorclB8ne200100Ev, symObjAddr: 0x15A4, symBinAddr: 0x5C70, symSize: 0x70 }
  - { offset: 0x64CE5, size: 0x8, addend: 0x0, symName: __ZNSt3__116__variant_detail12__visitation6__base12__dispatcherIJLm1EEE10__dispatchB8ne200100IOZNS0_6__dtorINS0_8__traitsIJN8facebook5react14LinearGradientENS9_14RadialGradientEEEELNS0_6_TraitE1EE9__destroyB8ne200100EvEUlRT_E_JRNS0_6__baseILSD_1EJSA_SB_EEEEEEDcSF_DpT0_, symObjAddr: 0x157C, symBinAddr: 0x5C48, symSize: 0x28 }
  - { offset: 0x65226, size: 0x8, addend: 0x0, symName: __ZNSt3__116__variant_detail6__dtorINS0_8__traitsIJdN8facebook5react16DropShadowParamsEEEELNS0_6_TraitE1EE9__destroyB8ne200100Ev, symObjAddr: 0x1688, symBinAddr: 0x5D54, symSize: 0x54 }
  - { offset: 0x65441, size: 0x8, addend: 0x0, symName: __ZNSt3__116__variant_detail12__visitation6__base12__dispatcherIJLm0EEE10__dispatchB8ne200100IOZNS0_6__dtorINS0_8__traitsIJdN8facebook5react16DropShadowParamsEEEELNS0_6_TraitE1EE9__destroyB8ne200100EvEUlRT_E_JRNS0_6__baseILSC_1EJdSA_EEEEEEDcSE_DpT0_, symObjAddr: 0x16DC, symBinAddr: 0x5DA8, symSize: 0x4 }
  - { offset: 0x6554D, size: 0x8, addend: 0x0, symName: __ZNSt3__116__variant_detail12__visitation6__base12__dispatcherIJLm1EEE10__dispatchB8ne200100IOZNS0_6__dtorINS0_8__traitsIJdN8facebook5react16DropShadowParamsEEEELNS0_6_TraitE1EE9__destroyB8ne200100EvEUlRT_E_JRNS0_6__baseILSC_1EJdSA_EEEEEEDcSE_DpT0_, symObjAddr: 0x16E0, symBinAddr: 0x5DAC, symSize: 0x8 }
  - { offset: 0x65584, size: 0x8, addend: 0x0, symName: __ZNSt3__116__variant_detail12__visitation6__base12__dispatcherIJLm1EEE10__dispatchB8ne200100IOZNS0_6__dtorINS0_8__traitsIJdN8facebook5react16DropShadowParamsEEEELNS0_6_TraitE1EE9__destroyB8ne200100EvEUlRT_E_JRNS0_6__baseILSC_1EJdSA_EEEEEEDcSE_DpT0_, symObjAddr: 0x16E0, symBinAddr: 0x5DAC, symSize: 0x8 }
  - { offset: 0x655AB, size: 0x8, addend: 0x0, symName: __ZNSt3__116__variant_detail12__visitation6__base12__dispatcherIJLm1EEE10__dispatchB8ne200100IOZNS0_6__dtorINS0_8__traitsIJdN8facebook5react16DropShadowParamsEEEELNS0_6_TraitE1EE9__destroyB8ne200100EvEUlRT_E_JRNS0_6__baseILSC_1EJdSA_EEEEEEDcSE_DpT0_, symObjAddr: 0x16E0, symBinAddr: 0x5DAC, symSize: 0x8 }
  - { offset: 0x655D1, size: 0x8, addend: 0x0, symName: __ZNSt3__116__variant_detail12__visitation6__base12__dispatcherIJLm1EEE10__dispatchB8ne200100IOZNS0_6__dtorINS0_8__traitsIJdN8facebook5react16DropShadowParamsEEEELNS0_6_TraitE1EE9__destroyB8ne200100EvEUlRT_E_JRNS0_6__baseILSC_1EJdSA_EEEEEEDcSE_DpT0_, symObjAddr: 0x16E0, symBinAddr: 0x5DAC, symSize: 0x8 }
  - { offset: 0x655ED, size: 0x8, addend: 0x0, symName: __ZNSt3__116__variant_detail12__visitation6__base12__dispatcherIJLm1EEE10__dispatchB8ne200100IOZNS0_6__dtorINS0_8__traitsIJdN8facebook5react16DropShadowParamsEEEELNS0_6_TraitE1EE9__destroyB8ne200100EvEUlRT_E_JRNS0_6__baseILSC_1EJdSA_EEEEEEDcSE_DpT0_, symObjAddr: 0x16E0, symBinAddr: 0x5DAC, symSize: 0x8 }
  - { offset: 0x65609, size: 0x8, addend: 0x0, symName: __ZNSt3__116__variant_detail12__visitation6__base12__dispatcherIJLm1EEE10__dispatchB8ne200100IOZNS0_6__dtorINS0_8__traitsIJdN8facebook5react16DropShadowParamsEEEELNS0_6_TraitE1EE9__destroyB8ne200100EvEUlRT_E_JRNS0_6__baseILSC_1EJdSA_EEEEEEDcSE_DpT0_, symObjAddr: 0x16E0, symBinAddr: 0x5DAC, symSize: 0x8 }
  - { offset: 0x65625, size: 0x8, addend: 0x0, symName: __ZNSt3__116__variant_detail12__visitation6__base12__dispatcherIJLm1EEE10__dispatchB8ne200100IOZNS0_6__dtorINS0_8__traitsIJdN8facebook5react16DropShadowParamsEEEELNS0_6_TraitE1EE9__destroyB8ne200100EvEUlRT_E_JRNS0_6__baseILSC_1EJdSA_EEEEEEDcSE_DpT0_, symObjAddr: 0x16E0, symBinAddr: 0x5DAC, symSize: 0x8 }
  - { offset: 0x65A6B, size: 0x8, addend: 0x0, symName: __ZNSt3__16vectorINS_12basic_stringIcNS_11char_traitsIcEENS_9allocatorIcEEEENS4_IS6_EEE5clearB8ne200100Ev, symObjAddr: 0x19C4, symBinAddr: 0x6038, symSize: 0x4C }
  - { offset: 0x65F54, size: 0x8, addend: 0x0, symName: __ZNSt3__112__hash_tableINS_17__hash_value_typeINS_12basic_stringIcNS_11char_traitsIcEENS_9allocatorIcEEEENS_10shared_ptrIvEEEENS_22__unordered_map_hasherIS7_SA_NS_4hashIS7_EENS_8equal_toIS7_EELb1EEENS_21__unordered_map_equalIS7_SA_SF_SD_Lb1EEENS5_ISA_EEE17__deallocate_nodeEPNS_16__hash_node_baseIPNS_11__hash_nodeISA_PvEEEE, symObjAddr: 0x1A8C, symBinAddr: 0x6100, symSize: 0x3C }
  - { offset: 0x663E4, size: 0x8, addend: 0x0, symName: __ZNSt3__116__variant_detail12__visitation6__base12__dispatcherIJLm0EEE10__dispatchB8ne200100IOZNS0_6__dtorINS0_8__traitsIJN5folly7dynamicENS_4pairIPN8facebook3jsi7RuntimeENSC_5ValueEEEEEELNS0_6_TraitE1EE9__destroyB8ne200100EvEUlRT_E_JRNS0_6__baseILSI_1EJS9_SG_EEEEEEDcSK_DpT0_, symObjAddr: 0x1BC8, symBinAddr: 0x623C, symSize: 0x8 }
  - { offset: 0x6658F, size: 0x8, addend: 0x0, symName: __ZNSt3__116__variant_detail12__visitation6__base12__dispatcherIJLm1EEE10__dispatchB8ne200100IOZNS0_6__dtorINS0_8__traitsIJN5folly7dynamicENS_4pairIPN8facebook3jsi7RuntimeENSC_5ValueEEEEEELNS0_6_TraitE1EE9__destroyB8ne200100EvEUlRT_E_JRNS0_6__baseILSI_1EJS9_SG_EEEEEEDcSK_DpT0_, symObjAddr: 0x1BD0, symBinAddr: 0x6244, symSize: 0x8 }
  - { offset: 0x665C6, size: 0x8, addend: 0x0, symName: __ZNSt3__116__variant_detail12__visitation6__base12__dispatcherIJLm1EEE10__dispatchB8ne200100IOZNS0_6__dtorINS0_8__traitsIJN5folly7dynamicENS_4pairIPN8facebook3jsi7RuntimeENSC_5ValueEEEEEELNS0_6_TraitE1EE9__destroyB8ne200100EvEUlRT_E_JRNS0_6__baseILSI_1EJS9_SG_EEEEEEDcSK_DpT0_, symObjAddr: 0x1BD0, symBinAddr: 0x6244, symSize: 0x8 }
  - { offset: 0x665ED, size: 0x8, addend: 0x0, symName: __ZNSt3__116__variant_detail12__visitation6__base12__dispatcherIJLm1EEE10__dispatchB8ne200100IOZNS0_6__dtorINS0_8__traitsIJN5folly7dynamicENS_4pairIPN8facebook3jsi7RuntimeENSC_5ValueEEEEEELNS0_6_TraitE1EE9__destroyB8ne200100EvEUlRT_E_JRNS0_6__baseILSI_1EJS9_SG_EEEEEEDcSK_DpT0_, symObjAddr: 0x1BD0, symBinAddr: 0x6244, symSize: 0x8 }
  - { offset: 0x66613, size: 0x8, addend: 0x0, symName: __ZNSt3__116__variant_detail12__visitation6__base12__dispatcherIJLm1EEE10__dispatchB8ne200100IOZNS0_6__dtorINS0_8__traitsIJN5folly7dynamicENS_4pairIPN8facebook3jsi7RuntimeENSC_5ValueEEEEEELNS0_6_TraitE1EE9__destroyB8ne200100EvEUlRT_E_JRNS0_6__baseILSI_1EJS9_SG_EEEEEEDcSK_DpT0_, symObjAddr: 0x1BD0, symBinAddr: 0x6244, symSize: 0x8 }
  - { offset: 0x6662F, size: 0x8, addend: 0x0, symName: __ZNSt3__116__variant_detail12__visitation6__base12__dispatcherIJLm1EEE10__dispatchB8ne200100IOZNS0_6__dtorINS0_8__traitsIJN5folly7dynamicENS_4pairIPN8facebook3jsi7RuntimeENSC_5ValueEEEEEELNS0_6_TraitE1EE9__destroyB8ne200100EvEUlRT_E_JRNS0_6__baseILSI_1EJS9_SG_EEEEEEDcSK_DpT0_, symObjAddr: 0x1BD0, symBinAddr: 0x6244, symSize: 0x8 }
  - { offset: 0x6664B, size: 0x8, addend: 0x0, symName: __ZNSt3__116__variant_detail12__visitation6__base12__dispatcherIJLm1EEE10__dispatchB8ne200100IOZNS0_6__dtorINS0_8__traitsIJN5folly7dynamicENS_4pairIPN8facebook3jsi7RuntimeENSC_5ValueEEEEEELNS0_6_TraitE1EE9__destroyB8ne200100EvEUlRT_E_JRNS0_6__baseILSI_1EJS9_SG_EEEEEEDcSK_DpT0_, symObjAddr: 0x1BD0, symBinAddr: 0x6244, symSize: 0x8 }
  - { offset: 0x66667, size: 0x8, addend: 0x0, symName: __ZNSt3__116__variant_detail12__visitation6__base12__dispatcherIJLm1EEE10__dispatchB8ne200100IOZNS0_6__dtorINS0_8__traitsIJN5folly7dynamicENS_4pairIPN8facebook3jsi7RuntimeENSC_5ValueEEEEEELNS0_6_TraitE1EE9__destroyB8ne200100EvEUlRT_E_JRNS0_6__baseILSI_1EJS9_SG_EEEEEEDcSK_DpT0_, symObjAddr: 0x1BD0, symBinAddr: 0x6244, symSize: 0x8 }
  - { offset: 0x667C0, size: 0x8, addend: 0x0, symName: __ZN8facebook5react19ComponentDescriptorD1Ev, symObjAddr: 0x1C54, symBinAddr: 0x5A6B0, symSize: 0x4 }
  - { offset: 0x667E9, size: 0x8, addend: 0x0, symName: __ZN8facebook5react19ComponentDescriptorD0Ev, symObjAddr: 0x1C58, symBinAddr: 0x5A6B4, symSize: 0x4 }
  - { offset: 0x66A5C, size: 0x8, addend: 0x0, symName: __ZNSt3__120__shared_ptr_emplaceIN8facebook5react22ConcreteViewShadowNodeIXadL_ZNS2_34ActivityIndicatorViewComponentNameEEENS2_26ActivityIndicatorViewPropsENS2_33ActivityIndicatorViewEventEmitterENS2_9StateDataEEENS_9allocatorIS7_EEEC2B8ne200100IJRKNS2_18ShadowNodeFragmentERKNS_10shared_ptrIKNS2_16ShadowNodeFamilyEEENS2_16ShadowNodeTraitsEES9_Li0EEES9_DpOT_, symObjAddr: 0x1D7C, symBinAddr: 0x6338, symSize: 0x68 }
  - { offset: 0x66DCF, size: 0x8, addend: 0x0, symName: __ZN8facebook5react22ConcreteViewShadowNodeIXadL_ZNS0_34ActivityIndicatorViewComponentNameEEENS0_26ActivityIndicatorViewPropsENS0_33ActivityIndicatorViewEventEmitterENS0_9StateDataEE10initializeEv, symObjAddr: 0x1E2C, symBinAddr: 0x63E8, symSize: 0x6C }
  - { offset: 0x66E16, size: 0x8, addend: 0x0, symName: __ZN8facebook5react22ConcreteViewShadowNodeIXadL_ZNS0_34ActivityIndicatorViewComponentNameEEENS0_26ActivityIndicatorViewPropsENS0_33ActivityIndicatorViewEventEmitterENS0_9StateDataEE10initializeEv, symObjAddr: 0x1E2C, symBinAddr: 0x63E8, symSize: 0x6C }
  - { offset: 0x66E31, size: 0x8, addend: 0x0, symName: __ZN8facebook5react22ConcreteViewShadowNodeIXadL_ZNS0_34ActivityIndicatorViewComponentNameEEENS0_26ActivityIndicatorViewPropsENS0_33ActivityIndicatorViewEventEmitterENS0_9StateDataEE10initializeEv, symObjAddr: 0x1E2C, symBinAddr: 0x63E8, symSize: 0x6C }
  - { offset: 0x66EC6, size: 0x8, addend: 0x0, symName: __ZNSt3__120__shared_ptr_emplaceIN8facebook5react22ConcreteViewShadowNodeIXadL_ZNS2_34ActivityIndicatorViewComponentNameEEENS2_26ActivityIndicatorViewPropsENS2_33ActivityIndicatorViewEventEmitterENS2_9StateDataEEENS_9allocatorIS7_EEED1Ev, symObjAddr: 0x1DE4, symBinAddr: 0x63A0, symSize: 0x14 }
  - { offset: 0x66EE8, size: 0x8, addend: 0x0, symName: __ZNSt3__120__shared_ptr_emplaceIN8facebook5react22ConcreteViewShadowNodeIXadL_ZNS2_34ActivityIndicatorViewComponentNameEEENS2_26ActivityIndicatorViewPropsENS2_33ActivityIndicatorViewEventEmitterENS2_9StateDataEEENS_9allocatorIS7_EEED1Ev, symObjAddr: 0x1DE4, symBinAddr: 0x63A0, symSize: 0x14 }
  - { offset: 0x66F1C, size: 0x8, addend: 0x0, symName: __ZNSt3__120__shared_ptr_emplaceIN8facebook5react22ConcreteViewShadowNodeIXadL_ZNS2_34ActivityIndicatorViewComponentNameEEENS2_26ActivityIndicatorViewPropsENS2_33ActivityIndicatorViewEventEmitterENS2_9StateDataEEENS_9allocatorIS7_EEED0Ev, symObjAddr: 0x1DF8, symBinAddr: 0x63B4, symSize: 0x24 }
  - { offset: 0x66FE9, size: 0x8, addend: 0x0, symName: __ZNSt3__120__shared_ptr_emplaceIN8facebook5react22ConcreteViewShadowNodeIXadL_ZNS2_34ActivityIndicatorViewComponentNameEEENS2_26ActivityIndicatorViewPropsENS2_33ActivityIndicatorViewEventEmitterENS2_9StateDataEEENS_9allocatorIS7_EEE16__on_zero_sharedEv, symObjAddr: 0x1E1C, symBinAddr: 0x63D8, symSize: 0xC }
  - { offset: 0x67011, size: 0x8, addend: 0x0, symName: __ZNSt3__120__shared_ptr_emplaceIN8facebook5react22ConcreteViewShadowNodeIXadL_ZNS2_34ActivityIndicatorViewComponentNameEEENS2_26ActivityIndicatorViewPropsENS2_33ActivityIndicatorViewEventEmitterENS2_9StateDataEEENS_9allocatorIS7_EEE16__on_zero_sharedEv, symObjAddr: 0x1E1C, symBinAddr: 0x63D8, symSize: 0xC }
  - { offset: 0x6702F, size: 0x8, addend: 0x0, symName: __ZNSt3__120__shared_ptr_emplaceIN8facebook5react22ConcreteViewShadowNodeIXadL_ZNS2_34ActivityIndicatorViewComponentNameEEENS2_26ActivityIndicatorViewPropsENS2_33ActivityIndicatorViewEventEmitterENS2_9StateDataEEENS_9allocatorIS7_EEE16__on_zero_sharedEv, symObjAddr: 0x1E1C, symBinAddr: 0x63D8, symSize: 0xC }
  - { offset: 0x6704D, size: 0x8, addend: 0x0, symName: __ZNSt3__120__shared_ptr_emplaceIN8facebook5react22ConcreteViewShadowNodeIXadL_ZNS2_34ActivityIndicatorViewComponentNameEEENS2_26ActivityIndicatorViewPropsENS2_33ActivityIndicatorViewEventEmitterENS2_9StateDataEEENS_9allocatorIS7_EEE16__on_zero_sharedEv, symObjAddr: 0x1E1C, symBinAddr: 0x63D8, symSize: 0xC }
  - { offset: 0x67079, size: 0x8, addend: 0x0, symName: __ZNSt3__120__shared_ptr_emplaceIN8facebook5react22ConcreteViewShadowNodeIXadL_ZNS2_34ActivityIndicatorViewComponentNameEEENS2_26ActivityIndicatorViewPropsENS2_33ActivityIndicatorViewEventEmitterENS2_9StateDataEEENS_9allocatorIS7_EEE21__on_zero_shared_weakEv, symObjAddr: 0x1E28, symBinAddr: 0x63E4, symSize: 0x4 }
  - { offset: 0x670AC, size: 0x8, addend: 0x0, symName: __ZNSt3__120__shared_ptr_emplaceIN8facebook5react22ConcreteViewShadowNodeIXadL_ZNS2_34ActivityIndicatorViewComponentNameEEENS2_26ActivityIndicatorViewPropsENS2_33ActivityIndicatorViewEventEmitterENS2_9StateDataEEENS_9allocatorIS7_EEE21__on_zero_shared_weakEv, symObjAddr: 0x1E28, symBinAddr: 0x63E4, symSize: 0x4 }
  - { offset: 0x670CE, size: 0x8, addend: 0x0, symName: __ZNSt3__120__shared_ptr_emplaceIN8facebook5react22ConcreteViewShadowNodeIXadL_ZNS2_34ActivityIndicatorViewComponentNameEEENS2_26ActivityIndicatorViewPropsENS2_33ActivityIndicatorViewEventEmitterENS2_9StateDataEEENS_9allocatorIS7_EEE21__on_zero_shared_weakEv, symObjAddr: 0x1E28, symBinAddr: 0x63E4, symSize: 0x4 }
  - { offset: 0x670F1, size: 0x8, addend: 0x0, symName: __ZNSt3__120__shared_ptr_emplaceIN8facebook5react22ConcreteViewShadowNodeIXadL_ZNS2_34ActivityIndicatorViewComponentNameEEENS2_26ActivityIndicatorViewPropsENS2_33ActivityIndicatorViewEventEmitterENS2_9StateDataEEENS_9allocatorIS7_EEE21__on_zero_shared_weakEv, symObjAddr: 0x1E28, symBinAddr: 0x63E4, symSize: 0x4 }
  - { offset: 0x67127, size: 0x8, addend: 0x0, symName: __ZNSt3__120__shared_ptr_emplaceIN8facebook5react22ConcreteViewShadowNodeIXadL_ZNS2_34ActivityIndicatorViewComponentNameEEENS2_26ActivityIndicatorViewPropsENS2_33ActivityIndicatorViewEventEmitterENS2_9StateDataEEENS_9allocatorIS7_EEE21__on_zero_shared_weakEv, symObjAddr: 0x1E28, symBinAddr: 0x63E4, symSize: 0x4 }
  - { offset: 0x673F3, size: 0x8, addend: 0x0, symName: __ZN8facebook5react22ConcreteViewShadowNodeIXadL_ZNS0_34ActivityIndicatorViewComponentNameEEENS0_26ActivityIndicatorViewPropsENS0_33ActivityIndicatorViewEventEmitterENS0_9StateDataEED1Ev, symObjAddr: 0x1E98, symBinAddr: 0x6454, symSize: 0x70 }
  - { offset: 0x677A5, size: 0x8, addend: 0x0, symName: __ZNSt3__16vectorINS_10shared_ptrIKN8facebook5react24YogaLayoutableShadowNodeEEENS_9allocatorIS6_EEE16__destroy_vectorclB8ne200100Ev, symObjAddr: 0x1FEC, symBinAddr: 0x65A8, symSize: 0x70 }
  - { offset: 0x6791A, size: 0x8, addend: 0x0, symName: __ZN8facebook5react10ShadowNodeD2Ev, symObjAddr: 0x20B4, symBinAddr: 0x6618, symSize: 0x5C }
  - { offset: 0x67A46, size: 0x8, addend: 0x0, symName: __ZN8facebook5react22ConcreteViewShadowNodeIXadL_ZNS0_34ActivityIndicatorViewComponentNameEEENS0_26ActivityIndicatorViewPropsENS0_33ActivityIndicatorViewEventEmitterENS0_9StateDataEED0Ev, symObjAddr: 0x1F08, symBinAddr: 0x64C4, symSize: 0x74 }
  - { offset: 0x67E1D, size: 0x8, addend: 0x0, symName: __ZNK8facebook5react22ConcreteViewShadowNodeIXadL_ZNS0_34ActivityIndicatorViewComponentNameEEENS0_26ActivityIndicatorViewPropsENS0_33ActivityIndicatorViewEventEmitterENS0_9StateDataEE12getTransformEv, symObjAddr: 0x1F7C, symBinAddr: 0x6538, symSize: 0x40 }
  - { offset: 0x67E8C, size: 0x8, addend: 0x0, symName: __ZNK8facebook5react22ConcreteViewShadowNodeIXadL_ZNS0_34ActivityIndicatorViewComponentNameEEENS0_26ActivityIndicatorViewPropsENS0_33ActivityIndicatorViewEventEmitterENS0_9StateDataEE16canBeTouchTargetEv, symObjAddr: 0x1FBC, symBinAddr: 0x6578, symSize: 0x18 }
  - { offset: 0x67EC4, size: 0x8, addend: 0x0, symName: __ZNK8facebook5react22ConcreteViewShadowNodeIXadL_ZNS0_34ActivityIndicatorViewComponentNameEEENS0_26ActivityIndicatorViewPropsENS0_33ActivityIndicatorViewEventEmitterENS0_9StateDataEE16canBeTouchTargetEv, symObjAddr: 0x1FBC, symBinAddr: 0x6578, symSize: 0x18 }
  - { offset: 0x67EDF, size: 0x8, addend: 0x0, symName: __ZNK8facebook5react22ConcreteViewShadowNodeIXadL_ZNS0_34ActivityIndicatorViewComponentNameEEENS0_26ActivityIndicatorViewPropsENS0_33ActivityIndicatorViewEventEmitterENS0_9StateDataEE16canBeTouchTargetEv, symObjAddr: 0x1FBC, symBinAddr: 0x6578, symSize: 0x18 }
  - { offset: 0x67EFC, size: 0x8, addend: 0x0, symName: __ZNK8facebook5react22ConcreteViewShadowNodeIXadL_ZNS0_34ActivityIndicatorViewComponentNameEEENS0_26ActivityIndicatorViewPropsENS0_33ActivityIndicatorViewEventEmitterENS0_9StateDataEE24canChildrenBeTouchTargetEv, symObjAddr: 0x1FD4, symBinAddr: 0x6590, symSize: 0x18 }
  - { offset: 0x67F30, size: 0x8, addend: 0x0, symName: __ZNK8facebook5react22ConcreteViewShadowNodeIXadL_ZNS0_34ActivityIndicatorViewComponentNameEEENS0_26ActivityIndicatorViewPropsENS0_33ActivityIndicatorViewEventEmitterENS0_9StateDataEE24canChildrenBeTouchTargetEv, symObjAddr: 0x1FD4, symBinAddr: 0x6590, symSize: 0x18 }
  - { offset: 0x67F4B, size: 0x8, addend: 0x0, symName: __ZNK8facebook5react22ConcreteViewShadowNodeIXadL_ZNS0_34ActivityIndicatorViewComponentNameEEENS0_26ActivityIndicatorViewPropsENS0_33ActivityIndicatorViewEventEmitterENS0_9StateDataEE24canChildrenBeTouchTargetEv, symObjAddr: 0x1FD4, symBinAddr: 0x6590, symSize: 0x18 }
  - { offset: 0x68332, size: 0x8, addend: 0x0, symName: __ZNSt3__120__shared_ptr_emplaceIN8facebook5react22ConcreteViewShadowNodeIXadL_ZNS2_34ActivityIndicatorViewComponentNameEEENS2_26ActivityIndicatorViewPropsENS2_33ActivityIndicatorViewEventEmitterENS2_9StateDataEEENS_9allocatorIS7_EEEC2B8ne200100IJRKNS2_10ShadowNodeERKNS2_18ShadowNodeFragmentEES9_Li0EEES9_DpOT_, symObjAddr: 0x2328, symBinAddr: 0x66D4, symSize: 0x64 }
  - { offset: 0x68838, size: 0x8, addend: 0x0, symName: __ZNSt3__120__shared_ptr_emplaceIN8facebook5react26ActivityIndicatorViewPropsENS_9allocatorIS3_EEEC2B8ne200100IJRKNS2_18PropsParserContextERKS3_RKNS2_8RawPropsEES5_Li0EEES5_DpOT_, symObjAddr: 0x24AC, symBinAddr: 0x6800, symSize: 0x4C }
  - { offset: 0x68A26, size: 0x8, addend: 0x0, symName: __ZNSt3__120__shared_ptr_emplaceIN8facebook5react26ActivityIndicatorViewPropsENS_9allocatorIS3_EEED1Ev, symObjAddr: 0x24F8, symBinAddr: 0x684C, symSize: 0x14 }
  - { offset: 0x68A48, size: 0x8, addend: 0x0, symName: __ZNSt3__120__shared_ptr_emplaceIN8facebook5react26ActivityIndicatorViewPropsENS_9allocatorIS3_EEED1Ev, symObjAddr: 0x24F8, symBinAddr: 0x684C, symSize: 0x14 }
  - { offset: 0x68A7C, size: 0x8, addend: 0x0, symName: __ZNSt3__120__shared_ptr_emplaceIN8facebook5react26ActivityIndicatorViewPropsENS_9allocatorIS3_EEED0Ev, symObjAddr: 0x250C, symBinAddr: 0x6860, symSize: 0x24 }
  - { offset: 0x68B49, size: 0x8, addend: 0x0, symName: __ZNSt3__120__shared_ptr_emplaceIN8facebook5react26ActivityIndicatorViewPropsENS_9allocatorIS3_EEE16__on_zero_sharedEv, symObjAddr: 0x2530, symBinAddr: 0x6884, symSize: 0x34 }
  - { offset: 0x68C73, size: 0x8, addend: 0x0, symName: __ZNSt3__120__shared_ptr_emplaceIN8facebook5react26ActivityIndicatorViewPropsENS_9allocatorIS3_EEE21__on_zero_shared_weakEv, symObjAddr: 0x2564, symBinAddr: 0x68B8, symSize: 0x4 }
  - { offset: 0x68CA6, size: 0x8, addend: 0x0, symName: __ZNSt3__120__shared_ptr_emplaceIN8facebook5react26ActivityIndicatorViewPropsENS_9allocatorIS3_EEE21__on_zero_shared_weakEv, symObjAddr: 0x2564, symBinAddr: 0x68B8, symSize: 0x4 }
  - { offset: 0x68CC8, size: 0x8, addend: 0x0, symName: __ZNSt3__120__shared_ptr_emplaceIN8facebook5react26ActivityIndicatorViewPropsENS_9allocatorIS3_EEE21__on_zero_shared_weakEv, symObjAddr: 0x2564, symBinAddr: 0x68B8, symSize: 0x4 }
  - { offset: 0x68CEB, size: 0x8, addend: 0x0, symName: __ZNSt3__120__shared_ptr_emplaceIN8facebook5react26ActivityIndicatorViewPropsENS_9allocatorIS3_EEE21__on_zero_shared_weakEv, symObjAddr: 0x2564, symBinAddr: 0x68B8, symSize: 0x4 }
  - { offset: 0x68D21, size: 0x8, addend: 0x0, symName: __ZNSt3__120__shared_ptr_emplaceIN8facebook5react26ActivityIndicatorViewPropsENS_9allocatorIS3_EEE21__on_zero_shared_weakEv, symObjAddr: 0x2564, symBinAddr: 0x68B8, symSize: 0x4 }
  - { offset: 0x68DB4, size: 0x8, addend: 0x0, symName: __ZNSt3__112basic_stringIcNS_11char_traitsIcEENS_9allocatorIcEEEC2B8ne200100ILi0EEEPKc, symObjAddr: 0x2640, symBinAddr: 0x68F8, symSize: 0xA4 }
  - { offset: 0x6901B, size: 0x8, addend: 0x0, symName: __ZNSt3__112basic_stringIcNS_11char_traitsIcEENS_9allocatorIcEEE20__throw_length_errorB8ne200100Ev, symObjAddr: 0x26E4, symBinAddr: 0x699C, symSize: 0x14 }
  - { offset: 0x69031, size: 0x8, addend: 0x0, symName: __ZN5folly9TypeErrorC1EOS0_, symObjAddr: 0x2608, symBinAddr: 0x68C0, symSize: 0x24 }
  - { offset: 0x6908C, size: 0x8, addend: 0x0, symName: __ZN5folly9TypeErrorD1Ev, symObjAddr: 0x2604, symBinAddr: 0x68BC, symSize: 0x4 }
  - { offset: 0x690AE, size: 0x8, addend: 0x0, symName: __ZN5folly9TypeErrorD1Ev, symObjAddr: 0x2604, symBinAddr: 0x68BC, symSize: 0x4 }
  - { offset: 0x690E7, size: 0x8, addend: 0x0, symName: __ZN5folly9TypeErrorD0Ev, symObjAddr: 0x262C, symBinAddr: 0x68E4, symSize: 0x14 }
  - { offset: 0x692AE, size: 0x8, addend: 0x0, symName: __ZNSt3__112basic_stringIcNS_11char_traitsIcEENS_9allocatorIcEEE20__throw_length_errorB8ne200100Ev, symObjAddr: 0x26E4, symBinAddr: 0x699C, symSize: 0x14 }
  - { offset: 0x692C6, size: 0x8, addend: 0x0, symName: __ZNSt3__120__throw_length_errorB8ne200100EPKc, symObjAddr: 0x26F8, symBinAddr: 0x69B0, symSize: 0x50 }
  - { offset: 0x692D1, size: 0x8, addend: 0x0, symName: __ZNSt12length_errorC1B8ne200100EPKc, symObjAddr: 0x2748, symBinAddr: 0x6A00, symSize: 0x24 }
  - { offset: 0x69590, size: 0x8, addend: 0x0, symName: __ZNSt3__120__shared_ptr_emplaceIKN8facebook5react33ActivityIndicatorViewEventEmitterENS_9allocatorIS3_EEEC2B8ne200100IJNS_10shared_ptrINS2_11EventTargetEEERKNS_8weak_ptrIKNS2_15EventDispatcherEEEES6_Li0EEES6_DpOT_, symObjAddr: 0x2824, symBinAddr: 0x6A84, symSize: 0x4C }
  - { offset: 0x6973A, size: 0x8, addend: 0x0, symName: __ZNSt3__120__shared_ptr_emplaceIKN8facebook5react33ActivityIndicatorViewEventEmitterENS_9allocatorIS3_EEED1Ev, symObjAddr: 0x2870, symBinAddr: 0x6AD0, symSize: 0x14 }
  - { offset: 0x6975C, size: 0x8, addend: 0x0, symName: __ZNSt3__120__shared_ptr_emplaceIKN8facebook5react33ActivityIndicatorViewEventEmitterENS_9allocatorIS3_EEED1Ev, symObjAddr: 0x2870, symBinAddr: 0x6AD0, symSize: 0x14 }
  - { offset: 0x69790, size: 0x8, addend: 0x0, symName: __ZNSt3__120__shared_ptr_emplaceIKN8facebook5react33ActivityIndicatorViewEventEmitterENS_9allocatorIS3_EEED0Ev, symObjAddr: 0x2884, symBinAddr: 0x6AE4, symSize: 0x24 }
  - { offset: 0x6985D, size: 0x8, addend: 0x0, symName: __ZNSt3__120__shared_ptr_emplaceIKN8facebook5react33ActivityIndicatorViewEventEmitterENS_9allocatorIS3_EEE16__on_zero_sharedEv, symObjAddr: 0x28A8, symBinAddr: 0x6B08, symSize: 0xC }
  - { offset: 0x69885, size: 0x8, addend: 0x0, symName: __ZNSt3__120__shared_ptr_emplaceIKN8facebook5react33ActivityIndicatorViewEventEmitterENS_9allocatorIS3_EEE16__on_zero_sharedEv, symObjAddr: 0x28A8, symBinAddr: 0x6B08, symSize: 0xC }
  - { offset: 0x698A3, size: 0x8, addend: 0x0, symName: __ZNSt3__120__shared_ptr_emplaceIKN8facebook5react33ActivityIndicatorViewEventEmitterENS_9allocatorIS3_EEE16__on_zero_sharedEv, symObjAddr: 0x28A8, symBinAddr: 0x6B08, symSize: 0xC }
  - { offset: 0x698C1, size: 0x8, addend: 0x0, symName: __ZNSt3__120__shared_ptr_emplaceIKN8facebook5react33ActivityIndicatorViewEventEmitterENS_9allocatorIS3_EEE16__on_zero_sharedEv, symObjAddr: 0x28A8, symBinAddr: 0x6B08, symSize: 0xC }
  - { offset: 0x698ED, size: 0x8, addend: 0x0, symName: __ZNSt3__120__shared_ptr_emplaceIKN8facebook5react33ActivityIndicatorViewEventEmitterENS_9allocatorIS3_EEE21__on_zero_shared_weakEv, symObjAddr: 0x28B4, symBinAddr: 0x6B14, symSize: 0x4 }
  - { offset: 0x69920, size: 0x8, addend: 0x0, symName: __ZNSt3__120__shared_ptr_emplaceIKN8facebook5react33ActivityIndicatorViewEventEmitterENS_9allocatorIS3_EEE21__on_zero_shared_weakEv, symObjAddr: 0x28B4, symBinAddr: 0x6B14, symSize: 0x4 }
  - { offset: 0x69942, size: 0x8, addend: 0x0, symName: __ZNSt3__120__shared_ptr_emplaceIKN8facebook5react33ActivityIndicatorViewEventEmitterENS_9allocatorIS3_EEE21__on_zero_shared_weakEv, symObjAddr: 0x28B4, symBinAddr: 0x6B14, symSize: 0x4 }
  - { offset: 0x69965, size: 0x8, addend: 0x0, symName: __ZNSt3__120__shared_ptr_emplaceIKN8facebook5react33ActivityIndicatorViewEventEmitterENS_9allocatorIS3_EEE21__on_zero_shared_weakEv, symObjAddr: 0x28B4, symBinAddr: 0x6B14, symSize: 0x4 }
  - { offset: 0x6999A, size: 0x8, addend: 0x0, symName: __ZNSt3__120__shared_ptr_emplaceIKN8facebook5react33ActivityIndicatorViewEventEmitterENS_9allocatorIS3_EEE21__on_zero_shared_weakEv, symObjAddr: 0x28B4, symBinAddr: 0x6B14, symSize: 0x4 }
  - { offset: 0x69DDF, size: 0x8, addend: 0x0, symName: __ZN8facebook5react12EventEmitterD2Ev, symObjAddr: 0x2B6C, symBinAddr: 0x6D74, symSize: 0x50 }
  - { offset: 0x69F53, size: 0x8, addend: 0x0, symName: __ZN8facebook5react33ActivityIndicatorViewEventEmitterD1Ev, symObjAddr: 0x29F8, symBinAddr: 0x6C58, symSize: 0x34 }
  - { offset: 0x6A07F, size: 0x8, addend: 0x0, symName: __ZN8facebook5react33ActivityIndicatorViewEventEmitterD0Ev, symObjAddr: 0x2A2C, symBinAddr: 0x6C8C, symSize: 0x38 }
  - { offset: 0x6A15A, size: 0x8, addend: 0x0, symName: __ZN8facebook5react20BaseViewEventEmitterD1Ev, symObjAddr: 0x2A64, symBinAddr: 0x6CC4, symSize: 0x34 }
  - { offset: 0x6A20D, size: 0x8, addend: 0x0, symName: __ZN8facebook5react20BaseViewEventEmitterD0Ev, symObjAddr: 0x2A98, symBinAddr: 0x6CF8, symSize: 0x38 }
  - { offset: 0x6A2E7, size: 0x8, addend: 0x0, symName: __ZNSt3__120__shared_ptr_emplaceIN8facebook5react20BaseViewEventEmitter16LayoutEventStateENS_9allocatorIS4_EEED1Ev, symObjAddr: 0x2AD0, symBinAddr: 0x6D30, symSize: 0x14 }
  - { offset: 0x6A309, size: 0x8, addend: 0x0, symName: __ZNSt3__120__shared_ptr_emplaceIN8facebook5react20BaseViewEventEmitter16LayoutEventStateENS_9allocatorIS4_EEED1Ev, symObjAddr: 0x2AD0, symBinAddr: 0x6D30, symSize: 0x14 }
  - { offset: 0x6A33D, size: 0x8, addend: 0x0, symName: __ZNSt3__120__shared_ptr_emplaceIN8facebook5react20BaseViewEventEmitter16LayoutEventStateENS_9allocatorIS4_EEED0Ev, symObjAddr: 0x2AE4, symBinAddr: 0x6D44, symSize: 0x24 }
  - { offset: 0x6A454, size: 0x8, addend: 0x0, symName: __ZNSt3__120__shared_ptr_emplaceIN8facebook5react20BaseViewEventEmitter16LayoutEventStateENS_9allocatorIS4_EEE16__on_zero_sharedEv, symObjAddr: 0x2B08, symBinAddr: 0x6D68, symSize: 0x8 }
  - { offset: 0x6A47C, size: 0x8, addend: 0x0, symName: __ZNSt3__120__shared_ptr_emplaceIN8facebook5react20BaseViewEventEmitter16LayoutEventStateENS_9allocatorIS4_EEE16__on_zero_sharedEv, symObjAddr: 0x2B08, symBinAddr: 0x6D68, symSize: 0x8 }
  - { offset: 0x6A49A, size: 0x8, addend: 0x0, symName: __ZNSt3__120__shared_ptr_emplaceIN8facebook5react20BaseViewEventEmitter16LayoutEventStateENS_9allocatorIS4_EEE16__on_zero_sharedEv, symObjAddr: 0x2B08, symBinAddr: 0x6D68, symSize: 0x8 }
  - { offset: 0x6A567, size: 0x8, addend: 0x0, symName: __ZNSt3__120__shared_ptr_emplaceIN8facebook5react20BaseViewEventEmitter16LayoutEventStateENS_9allocatorIS4_EEE21__on_zero_shared_weakEv, symObjAddr: 0x2B10, symBinAddr: 0x6D70, symSize: 0x4 }
  - { offset: 0x6A59A, size: 0x8, addend: 0x0, symName: __ZNSt3__120__shared_ptr_emplaceIN8facebook5react20BaseViewEventEmitter16LayoutEventStateENS_9allocatorIS4_EEE21__on_zero_shared_weakEv, symObjAddr: 0x2B10, symBinAddr: 0x6D70, symSize: 0x4 }
  - { offset: 0x6A5BC, size: 0x8, addend: 0x0, symName: __ZNSt3__120__shared_ptr_emplaceIN8facebook5react20BaseViewEventEmitter16LayoutEventStateENS_9allocatorIS4_EEE21__on_zero_shared_weakEv, symObjAddr: 0x2B10, symBinAddr: 0x6D70, symSize: 0x4 }
  - { offset: 0x6A5DF, size: 0x8, addend: 0x0, symName: __ZNSt3__120__shared_ptr_emplaceIN8facebook5react20BaseViewEventEmitter16LayoutEventStateENS_9allocatorIS4_EEE21__on_zero_shared_weakEv, symObjAddr: 0x2B10, symBinAddr: 0x6D70, symSize: 0x4 }
  - { offset: 0x6A615, size: 0x8, addend: 0x0, symName: __ZNSt3__120__shared_ptr_emplaceIN8facebook5react20BaseViewEventEmitter16LayoutEventStateENS_9allocatorIS4_EEE21__on_zero_shared_weakEv, symObjAddr: 0x2B10, symBinAddr: 0x6D70, symSize: 0x4 }
  - { offset: 0x6A63D, size: 0x8, addend: 0x0, symName: __ZN8facebook5react12EventEmitterD1Ev, symObjAddr: 0x2BBC, symBinAddr: 0x6DC4, symSize: 0x4 }
  - { offset: 0x6A660, size: 0x8, addend: 0x0, symName: __ZN8facebook5react12EventEmitterD1Ev, symObjAddr: 0x2BBC, symBinAddr: 0x6DC4, symSize: 0x4 }
  - { offset: 0x6A690, size: 0x8, addend: 0x0, symName: __ZN8facebook5react12EventEmitterD0Ev, symObjAddr: 0x2BC0, symBinAddr: 0x6DC8, symSize: 0x14 }
  - { offset: 0x6A924, size: 0x8, addend: 0x0, symName: __ZNSt3__120__shared_ptr_emplaceIN8facebook5react11EventTargetENS_9allocatorIS3_EEEC2B8ne200100IJRKNS_10shared_ptrIKNS2_14InstanceHandleEEERKiES5_Li0EEES5_DpOT_, symObjAddr: 0x2C8C, symBinAddr: 0x6E3C, symSize: 0x4C }
  - { offset: 0x6AACE, size: 0x8, addend: 0x0, symName: __ZNSt3__120__shared_ptr_emplaceIN8facebook5react11EventTargetENS_9allocatorIS3_EEED1Ev, symObjAddr: 0x2CD8, symBinAddr: 0x6E88, symSize: 0x14 }
  - { offset: 0x6AAF0, size: 0x8, addend: 0x0, symName: __ZNSt3__120__shared_ptr_emplaceIN8facebook5react11EventTargetENS_9allocatorIS3_EEED1Ev, symObjAddr: 0x2CD8, symBinAddr: 0x6E88, symSize: 0x14 }
  - { offset: 0x6AB24, size: 0x8, addend: 0x0, symName: __ZNSt3__120__shared_ptr_emplaceIN8facebook5react11EventTargetENS_9allocatorIS3_EEED0Ev, symObjAddr: 0x2CEC, symBinAddr: 0x6E9C, symSize: 0x24 }
  - { offset: 0x6AC44, size: 0x8, addend: 0x0, symName: __ZNSt3__120__shared_ptr_emplaceIN8facebook5react11EventTargetENS_9allocatorIS3_EEE16__on_zero_sharedEv, symObjAddr: 0x2D10, symBinAddr: 0x6EC0, symSize: 0x28 }
  - { offset: 0x6AD55, size: 0x8, addend: 0x0, symName: __ZNSt3__120__shared_ptr_emplaceIN8facebook5react11EventTargetENS_9allocatorIS3_EEE21__on_zero_shared_weakEv, symObjAddr: 0x2D38, symBinAddr: 0x6EE8, symSize: 0x4 }
  - { offset: 0x6AD88, size: 0x8, addend: 0x0, symName: __ZNSt3__120__shared_ptr_emplaceIN8facebook5react11EventTargetENS_9allocatorIS3_EEE21__on_zero_shared_weakEv, symObjAddr: 0x2D38, symBinAddr: 0x6EE8, symSize: 0x4 }
  - { offset: 0x6ADAA, size: 0x8, addend: 0x0, symName: __ZNSt3__120__shared_ptr_emplaceIN8facebook5react11EventTargetENS_9allocatorIS3_EEE21__on_zero_shared_weakEv, symObjAddr: 0x2D38, symBinAddr: 0x6EE8, symSize: 0x4 }
  - { offset: 0x6ADCD, size: 0x8, addend: 0x0, symName: __ZNSt3__120__shared_ptr_emplaceIN8facebook5react11EventTargetENS_9allocatorIS3_EEE21__on_zero_shared_weakEv, symObjAddr: 0x2D38, symBinAddr: 0x6EE8, symSize: 0x4 }
  - { offset: 0x6AE02, size: 0x8, addend: 0x0, symName: __ZNSt3__120__shared_ptr_emplaceIN8facebook5react11EventTargetENS_9allocatorIS3_EEE21__on_zero_shared_weakEv, symObjAddr: 0x2D38, symBinAddr: 0x6EE8, symSize: 0x4 }
  - { offset: 0x6B0E5, size: 0x8, addend: 0x0, symName: __ZNSt3__120__shared_ptr_emplaceIN8facebook5react16ShadowNodeFamilyENS_9allocatorIS3_EEEC2B8ne200100IJRKNS2_24ShadowNodeFamilyFragmentERNS_10shared_ptrIKNS2_33ActivityIndicatorViewEventEmitterEEERKNS_8weak_ptrIKNS2_15EventDispatcherEEERKNS2_27ConcreteComponentDescriptorINS2_22ConcreteViewShadowNodeIXadL_ZNS2_34ActivityIndicatorViewComponentNameEEENS2_26ActivityIndicatorViewPropsESC_NS2_9StateDataEEEEEES5_Li0EEES5_DpOT_, symObjAddr: 0x2F08, symBinAddr: 0x7008, symSize: 0x4C }
  - { offset: 0x6B307, size: 0x8, addend: 0x0, symName: __ZNSt3__120__shared_ptr_emplaceIN8facebook5react16ShadowNodeFamilyENS_9allocatorIS3_EEED1Ev, symObjAddr: 0x2F54, symBinAddr: 0x7054, symSize: 0x14 }
  - { offset: 0x6B329, size: 0x8, addend: 0x0, symName: __ZNSt3__120__shared_ptr_emplaceIN8facebook5react16ShadowNodeFamilyENS_9allocatorIS3_EEED1Ev, symObjAddr: 0x2F54, symBinAddr: 0x7054, symSize: 0x14 }
  - { offset: 0x6B35D, size: 0x8, addend: 0x0, symName: __ZNSt3__120__shared_ptr_emplaceIN8facebook5react16ShadowNodeFamilyENS_9allocatorIS3_EEED0Ev, symObjAddr: 0x2F68, symBinAddr: 0x7068, symSize: 0x24 }
  - { offset: 0x6B42A, size: 0x8, addend: 0x0, symName: __ZNSt3__120__shared_ptr_emplaceIN8facebook5react16ShadowNodeFamilyENS_9allocatorIS3_EEE16__on_zero_sharedEv, symObjAddr: 0x2F8C, symBinAddr: 0x708C, symSize: 0x8 }
  - { offset: 0x6B452, size: 0x8, addend: 0x0, symName: __ZNSt3__120__shared_ptr_emplaceIN8facebook5react16ShadowNodeFamilyENS_9allocatorIS3_EEE16__on_zero_sharedEv, symObjAddr: 0x2F8C, symBinAddr: 0x708C, symSize: 0x8 }
  - { offset: 0x6B470, size: 0x8, addend: 0x0, symName: __ZNSt3__120__shared_ptr_emplaceIN8facebook5react16ShadowNodeFamilyENS_9allocatorIS3_EEE16__on_zero_sharedEv, symObjAddr: 0x2F8C, symBinAddr: 0x708C, symSize: 0x8 }
  - { offset: 0x6B4B6, size: 0x8, addend: 0x0, symName: __ZNSt3__120__shared_ptr_emplaceIN8facebook5react16ShadowNodeFamilyENS_9allocatorIS3_EEE21__on_zero_shared_weakEv, symObjAddr: 0x2F94, symBinAddr: 0x7094, symSize: 0x4 }
  - { offset: 0x6B4E9, size: 0x8, addend: 0x0, symName: __ZNSt3__120__shared_ptr_emplaceIN8facebook5react16ShadowNodeFamilyENS_9allocatorIS3_EEE21__on_zero_shared_weakEv, symObjAddr: 0x2F94, symBinAddr: 0x7094, symSize: 0x4 }
  - { offset: 0x6B50B, size: 0x8, addend: 0x0, symName: __ZNSt3__120__shared_ptr_emplaceIN8facebook5react16ShadowNodeFamilyENS_9allocatorIS3_EEE21__on_zero_shared_weakEv, symObjAddr: 0x2F94, symBinAddr: 0x7094, symSize: 0x4 }
  - { offset: 0x6B52E, size: 0x8, addend: 0x0, symName: __ZNSt3__120__shared_ptr_emplaceIN8facebook5react16ShadowNodeFamilyENS_9allocatorIS3_EEE21__on_zero_shared_weakEv, symObjAddr: 0x2F94, symBinAddr: 0x7094, symSize: 0x4 }
  - { offset: 0x6B564, size: 0x8, addend: 0x0, symName: __ZNSt3__120__shared_ptr_emplaceIN8facebook5react16ShadowNodeFamilyENS_9allocatorIS3_EEE21__on_zero_shared_weakEv, symObjAddr: 0x2F94, symBinAddr: 0x7094, symSize: 0x4 }
  - { offset: 0x6B67C, size: 0x8, addend: 0x0, symName: __ZNSt3__110shared_ptrIKN8facebook5react26ActivityIndicatorViewPropsEED1B8ne200100Ev, symObjAddr: 0x317C, symBinAddr: 0x7174, symSize: 0x4 }
  - { offset: 0x6B6A8, size: 0x8, addend: 0x0, symName: __ZNSt3__110shared_ptrIKN8facebook5react26ActivityIndicatorViewPropsEED1B8ne200100Ev, symObjAddr: 0x317C, symBinAddr: 0x7174, symSize: 0x4 }
  - { offset: 0x6B92B, size: 0x8, addend: 0x0, symName: __ZNSt3__120__shared_ptr_emplaceIKN8facebook5react26ActivityIndicatorViewPropsENS_9allocatorIS3_EEEC2B8ne200100IJES6_Li0EEES6_DpOT_, symObjAddr: 0x31C8, symBinAddr: 0x71C0, symSize: 0x58 }
  - { offset: 0x6BA78, size: 0x8, addend: 0x0, symName: __ZNSt3__120__shared_ptr_emplaceIKN8facebook5react26ActivityIndicatorViewPropsENS_9allocatorIS3_EEED1Ev, symObjAddr: 0x3220, symBinAddr: 0x7218, symSize: 0x14 }
  - { offset: 0x6BA9A, size: 0x8, addend: 0x0, symName: __ZNSt3__120__shared_ptr_emplaceIKN8facebook5react26ActivityIndicatorViewPropsENS_9allocatorIS3_EEED1Ev, symObjAddr: 0x3220, symBinAddr: 0x7218, symSize: 0x14 }
  - { offset: 0x6BACE, size: 0x8, addend: 0x0, symName: __ZNSt3__120__shared_ptr_emplaceIKN8facebook5react26ActivityIndicatorViewPropsENS_9allocatorIS3_EEED0Ev, symObjAddr: 0x3234, symBinAddr: 0x722C, symSize: 0x24 }
  - { offset: 0x6BB6C, size: 0x8, addend: 0x0, symName: __ZNSt3__120__shared_ptr_emplaceIKN8facebook5react26ActivityIndicatorViewPropsENS_9allocatorIS3_EEE16__on_zero_sharedEv, symObjAddr: 0x3258, symBinAddr: 0x7250, symSize: 0x34 }
  - { offset: 0x6BC96, size: 0x8, addend: 0x0, symName: __ZNSt3__120__shared_ptr_emplaceIKN8facebook5react26ActivityIndicatorViewPropsENS_9allocatorIS3_EEE21__on_zero_shared_weakEv, symObjAddr: 0x328C, symBinAddr: 0x7284, symSize: 0x4 }
  - { offset: 0x6BCC9, size: 0x8, addend: 0x0, symName: __ZNSt3__120__shared_ptr_emplaceIKN8facebook5react26ActivityIndicatorViewPropsENS_9allocatorIS3_EEE21__on_zero_shared_weakEv, symObjAddr: 0x328C, symBinAddr: 0x7284, symSize: 0x4 }
  - { offset: 0x6BCEB, size: 0x8, addend: 0x0, symName: __ZNSt3__120__shared_ptr_emplaceIKN8facebook5react26ActivityIndicatorViewPropsENS_9allocatorIS3_EEE21__on_zero_shared_weakEv, symObjAddr: 0x328C, symBinAddr: 0x7284, symSize: 0x4 }
  - { offset: 0x6BD0E, size: 0x8, addend: 0x0, symName: __ZNSt3__120__shared_ptr_emplaceIKN8facebook5react26ActivityIndicatorViewPropsENS_9allocatorIS3_EEE21__on_zero_shared_weakEv, symObjAddr: 0x328C, symBinAddr: 0x7284, symSize: 0x4 }
  - { offset: 0x6BD44, size: 0x8, addend: 0x0, symName: __ZNSt3__120__shared_ptr_emplaceIKN8facebook5react26ActivityIndicatorViewPropsENS_9allocatorIS3_EEE21__on_zero_shared_weakEv, symObjAddr: 0x328C, symBinAddr: 0x7284, symSize: 0x4 }
  - { offset: 0x6BDE5, size: 0x8, addend: 0x0, symName: __GLOBAL__sub_I_RCTActivityIndicatorViewComponentView.mm, symObjAddr: 0x3598, symBinAddr: 0x7288, symSize: 0x20 }
  - { offset: 0x6E0E8, size: 0x8, addend: 0x0, symName: __ZN8facebook5react17HostPlatformColorL14UndefinedColorE, symObjAddr: 0x1AA90, symBinAddr: 0x9FC88, symSize: 0x0 }
  - { offset: 0x6F236, size: 0x8, addend: 0x0, symName: _RCTGetBoxShadowLayer, symObjAddr: 0x0, symBinAddr: 0x72A8, symSize: 0x548 }
  - { offset: 0x6F6EF, size: 0x8, addend: 0x0, symName: __ZL18initBoxShadowLayerRKN8facebook5react9BoxShadowE6CGSize, symObjAddr: 0x548, symBinAddr: 0x77F0, symSize: 0x12C }
  - { offset: 0x6F896, size: 0x8, addend: 0x0, symName: __ZL23cornerRadiiForBoxShadow14RCTCornerRadiid, symObjAddr: 0x674, symBinAddr: 0x791C, symSize: 0x220 }
  - { offset: 0x6FF12, size: 0x8, addend: 0x0, symName: __GLOBAL__sub_I_RCTBoxShadow.mm, symObjAddr: 0x964, symBinAddr: 0x7B3C, symSize: 0x20 }
  - { offset: 0x71F2C, size: 0x8, addend: 0x0, symName: '+[RCTColorSpaceUtils applyDefaultColorSpace:]', symObjAddr: 0x0, symBinAddr: 0x7B5C, symSize: 0x2C }
  - { offset: 0x71F94, size: 0x8, addend: 0x0, symName: '+[RCTColorSpaceUtils applyDefaultColorSpace:]', symObjAddr: 0x0, symBinAddr: 0x7B5C, symSize: 0x2C }
  - { offset: 0x7223C, size: 0x8, addend: 0x0, symName: __ZN8facebook5react17HostPlatformColorL14UndefinedColorE, symObjAddr: 0x1ABB80, symBinAddr: 0x9FCA0, symSize: 0x0 }
  - { offset: 0x7383F, size: 0x8, addend: 0x0, symName: __ZN8facebook5reactL40LayoutConformanceShadowNodeComponentNameE, symObjAddr: 0x7EEC, symBinAddr: 0x6487C, symSize: 0x0 }
  - { offset: 0x73866, size: 0x8, addend: 0x0, symName: __ZN8facebook5reactL40LayoutConformanceShadowNodeComponentNameE, symObjAddr: 0x7EEC, symBinAddr: 0x6487C, symSize: 0x0 }
  - { offset: 0x747DC, size: 0x8, addend: 0x0, symName: __ZN8facebook5react38concreteComponentDescriptorConstructorINS0_27ConcreteComponentDescriptorINS0_27LayoutConformanceShadowNodeEEEEENSt3__110unique_ptrIKNS0_19ComponentDescriptorENS5_14default_deleteIS8_EEEERKNS0_29ComponentDescriptorParametersE, symObjAddr: 0x12F0, symBinAddr: 0x8CE4, symSize: 0x34 }
  - { offset: 0x74904, size: 0x8, addend: 0x0, symName: __ZN8facebook5react14convertRawPropINS0_17LayoutConformanceES2_EET_RKNS0_18PropsParserContextERKNS0_8RawPropsEPKcRKS3_RKT0_SB_SB_, symObjAddr: 0x2170, symBinAddr: 0x98A0, symSize: 0x1C4 }
  - { offset: 0x74DAC, size: 0x8, addend: 0x0, symName: __ZN8facebook5react12fromRawValueERKNS0_18PropsParserContextERKNS0_8RawValueERNS0_17LayoutConformanceE, symObjAddr: 0x2370, symBinAddr: 0x9AA0, symSize: 0x1C4 }
  - { offset: 0x98A76, size: 0x8, addend: 0x0, symName: __ZNSt3__119piecewise_constructE, symObjAddr: 0x85DB, symBinAddr: 0x64DB2, symSize: 0x0 }
  - { offset: 0x99ACE, size: 0x8, addend: 0x0, symName: __ZNSt3__124__put_character_sequenceB8ne200100IcNS_11char_traitsIcEEEERNS_13basic_ostreamIT_T0_EES7_PKS4_m, symObjAddr: 0x2744, symBinAddr: 0x9D9C, symSize: 0x168 }
  - { offset: 0x9B57A, size: 0x8, addend: 0x0, symName: __ZNSt3__115allocate_sharedB8ne200100IKNS_12basic_stringIcNS_11char_traitsIcEENS_9allocatorIcEEEENS4_IS6_EEJRS7_ELi0EEENS_10shared_ptrIT_EERKT0_DpOT1_, symObjAddr: 0x4598, symBinAddr: 0xB1A4, symSize: 0x58 }
  - { offset: 0x9C23E, size: 0x8, addend: 0x0, symName: __ZNSt3__111make_uniqueB8ne200100IKN8facebook5react27ConcreteComponentDescriptorINS2_27LayoutConformanceShadowNodeEEEJRKNS2_29ComponentDescriptorParametersEELi0EEENS_10unique_ptrIT_NS_14default_deleteISB_EEEEDpOT0_, symObjAddr: 0x1324, symBinAddr: 0x8D18, symSize: 0xD4 }
  - { offset: 0x9CB47, size: 0x8, addend: 0x0, symName: __ZNSt3__115allocate_sharedB8ne200100IN8facebook5react27LayoutConformanceShadowNodeENS_9allocatorIS3_EEJRKNS2_18ShadowNodeFragmentERKNS_10shared_ptrIKNS2_16ShadowNodeFamilyEEENS2_16ShadowNodeTraitsEELi0EEENS9_IT_EERKT0_DpOT1_, symObjAddr: 0x2D3C, symBinAddr: 0xA0DC, symSize: 0x70 }
  - { offset: 0x9CE66, size: 0x8, addend: 0x0, symName: __ZNSt3__115allocate_sharedB8ne200100IN8facebook5react27LayoutConformanceShadowNodeENS_9allocatorIS3_EEJRKNS2_10ShadowNodeERKNS2_18ShadowNodeFragmentEELi0EEENS_10shared_ptrIT_EERKT0_DpOT1_, symObjAddr: 0x3280, symBinAddr: 0xA344, symSize: 0x60 }
  - { offset: 0x9D173, size: 0x8, addend: 0x0, symName: __ZNSt3__115allocate_sharedB8ne200100IN8facebook5react22LayoutConformancePropsENS_9allocatorIS3_EEJRKNS2_18PropsParserContextERKS3_RKNS2_8RawPropsEELi0EEENS_10shared_ptrIT_EERKT0_DpOT1_, symObjAddr: 0x362C, symBinAddr: 0xA640, symSize: 0x70 }
  - { offset: 0x9D712, size: 0x8, addend: 0x0, symName: __ZNSt3__115allocate_sharedB8ne200100IKN8facebook5react12EventEmitterENS_9allocatorIS3_EEJNS_10shared_ptrINS2_11EventTargetEEERKNS_8weak_ptrIKNS2_15EventDispatcherEEEELi0EEENS7_IT_EERKT0_DpOT1_, symObjAddr: 0x3784, symBinAddr: 0xA740, symSize: 0x60 }
  - { offset: 0x9D9BD, size: 0x8, addend: 0x0, symName: __ZNSt3__115allocate_sharedB8ne200100IN8facebook5react16ShadowNodeFamilyENS_9allocatorIS3_EEJRKNS2_24ShadowNodeFamilyFragmentERNS_10shared_ptrIKNS2_12EventEmitterEEERKNS_8weak_ptrIKNS2_15EventDispatcherEEERKNS2_27ConcreteComponentDescriptorINS2_27LayoutConformanceShadowNodeEEEELi0EEENS9_IT_EERKT0_DpOT1_, symObjAddr: 0x3BFC, symBinAddr: 0xA8FC, symSize: 0x78 }
  - { offset: 0x9DF7B, size: 0x8, addend: 0x0, symName: __ZNSt3__126__throw_bad_variant_accessB8ne200100Ev, symObjAddr: 0x2534, symBinAddr: 0x9C64, symSize: 0x34 }
  - { offset: 0x9E558, size: 0x8, addend: 0x0, symName: __ZNSt3__116__pad_and_outputB8ne200100IcNS_11char_traitsIcEEEENS_19ostreambuf_iteratorIT_T0_EES6_PKS4_S8_S8_RNS_8ios_baseES4_, symObjAddr: 0x28AC, symBinAddr: 0x9F04, symSize: 0x13C }
  - { offset: 0x9F256, size: 0x8, addend: 0x0, symName: __ZNSt3__112__destroy_atB8ne200100IN8facebook5react27LayoutConformanceShadowNodeELi0EEEvPT_, symObjAddr: 0x31B8, symBinAddr: 0xA2D4, symSize: 0x70 }
  - { offset: 0x9F845, size: 0x8, addend: 0x0, symName: __ZNSt3__115allocate_sharedB8ne200100IKN8facebook5react22LayoutConformancePropsENS_9allocatorIS3_EEJELi0EEENS_10shared_ptrIT_EERKT0_DpOT1_, symObjAddr: 0x342C, symBinAddr: 0xA498, symSize: 0x48 }
  - { offset: 0x9FF39, size: 0x8, addend: 0x0, symName: __ZNSt3__112__destroy_atB8ne200100IN8facebook5react22LayoutConformancePropsELi0EEEvPT_, symObjAddr: 0x3570, symBinAddr: 0xA5DC, symSize: 0x64 }
  - { offset: 0xA0A20, size: 0x8, addend: 0x0, symName: __ZNSt3__112construct_atB8ne200100IN8facebook5react12EventEmitterEJNS_10shared_ptrINS2_11EventTargetEEERKNS_8weak_ptrIKNS2_15EventDispatcherEEEEPS3_EEPT_SF_DpOT0_, symObjAddr: 0x3878, symBinAddr: 0xA834, symSize: 0xC8 }
  - { offset: 0xA1193, size: 0x8, addend: 0x0, symName: __ZNSt3__112construct_atB8ne200100IN8facebook5react16ShadowNodeFamilyEJRKNS2_24ShadowNodeFamilyFragmentERNS_10shared_ptrIKNS2_12EventEmitterEEERKNS_8weak_ptrIKNS2_15EventDispatcherEEERKNS2_27ConcreteComponentDescriptorINS2_27LayoutConformanceShadowNodeEEEEPS3_EEPT_SP_DpOT0_, symObjAddr: 0x3D04, symBinAddr: 0xA9C0, symSize: 0xDC }
  - { offset: 0xA3868, size: 0x8, addend: 0x0, symName: __ZSt28__throw_bad_array_new_lengthB8ne200100v, symObjAddr: 0xECC, symBinAddr: 0x88D0, symSize: 0x28 }
  - { offset: 0xA3A71, size: 0x8, addend: 0x0, symName: '+[RCTComponentViewFactory currentComponentViewFactory]', symObjAddr: 0xC8, symBinAddr: 0x7C50, symSize: 0x30 }
  - { offset: 0xA3A9B, size: 0x8, addend: 0x0, symName: '__ZZ54+[RCTComponentViewFactory currentComponentViewFactory]E9onceToken', symObjAddr: 0x1ABB98, symBinAddr: 0x9FCB8, symSize: 0x0 }
  - { offset: 0xA3AB1, size: 0x8, addend: 0x0, symName: '__ZZ54+[RCTComponentViewFactory currentComponentViewFactory]E20componentViewFactory', symObjAddr: 0x1ABBA0, symBinAddr: 0x9FCC0, symSize: 0x0 }
  - { offset: 0xA7EEE, size: 0x8, addend: 0x0, symName: __ZN8facebook5react18ConcreteShadowNodeIXadL_ZNS0_L40LayoutConformanceShadowNodeComponentNameEEENS0_24YogaLayoutableShadowNodeENS0_22LayoutConformancePropsENS0_12EventEmitterENS0_9StateDataEE18defaultSharedPropsEv, symObjAddr: 0x3394, symBinAddr: 0xA400, symSize: 0x94 }
  - { offset: 0xA7F0E, size: 0x8, addend: 0x0, symName: __ZZN8facebook5react18ConcreteShadowNodeIXadL_ZNS0_L40LayoutConformanceShadowNodeComponentNameEEENS0_24YogaLayoutableShadowNodeENS0_22LayoutConformancePropsENS0_12EventEmitterENS0_9StateDataEE18defaultSharedPropsEvE18defaultSharedProps, symObjAddr: 0x1ABBA8, symBinAddr: 0x9FCC8, symSize: 0x0 }
  - { offset: 0xA8057, size: 0x8, addend: 0x0, symName: __Z40RCTInstallNativeComponentRegistryBindingRN8facebook3jsi7RuntimeE, symObjAddr: 0x0, symBinAddr: 0x7B88, symSize: 0xC8 }
  - { offset: 0xA848F, size: 0x8, addend: 0x0, symName: '___54+[RCTComponentViewFactory currentComponentViewFactory]_block_invoke', symObjAddr: 0xF8, symBinAddr: 0x7C80, symSize: 0x198 }
  - { offset: 0xA8BD7, size: 0x8, addend: 0x0, symName: '+[RCTComponentViewFactory currentComponentViewFactory].cold.1', symObjAddr: 0x5294, symBinAddr: 0x5A754, symSize: 0x14 }
  - { offset: 0xA8BF3, size: 0x8, addend: 0x0, symName: '+[RCTComponentViewFactory currentComponentViewFactory].cold.1', symObjAddr: 0x5294, symBinAddr: 0x5A754, symSize: 0x14 }
  - { offset: 0xA8F47, size: 0x8, addend: 0x0, symName: '-[RCTComponentViewFactory _componentViewClassDescriptorFromClass:]', symObjAddr: 0x290, symBinAddr: 0x7E18, symSize: 0xA0 }
  - { offset: 0xA9003, size: 0x8, addend: 0x0, symName: '-[RCTComponentViewFactory _wasComponentRegistered:]', symObjAddr: 0x330, symBinAddr: 0x7EB8, symSize: 0x30 }
  - { offset: 0xA9089, size: 0x8, addend: 0x0, symName: __ZNSt3__112__hash_tableINS_17__hash_value_typeINS_12basic_stringIcNS_11char_traitsIcEENS_9allocatorIcEEEEbEENS_22__unordered_map_hasherIS7_S8_NS_4hashIS7_EENS_8equal_toIS7_EELb1EEENS_21__unordered_map_equalIS7_S8_SD_SB_Lb1EEENS5_IS8_EEE4findIS7_EENS_15__hash_iteratorIPNS_11__hash_nodeIS8_PvEEEERKT_, symObjAddr: 0x3F88, symBinAddr: 0xAB94, symSize: 0xF8 }
  - { offset: 0xA9647, size: 0x8, addend: 0x0, symName: '-[RCTComponentViewFactory _registerComponentIfPossible:]', symObjAddr: 0x360, symBinAddr: 0x7EE8, symSize: 0x540 }
  - { offset: 0xAA7CB, size: 0x8, addend: 0x0, symName: __ZNSt3__112__hash_tableINS_17__hash_value_typeIx31RCTComponentViewClassDescriptorEENS_22__unordered_map_hasherIxS3_NS_4hashIxEENS_8equal_toIxEELb1EEENS_21__unordered_map_equalIxS3_S8_S6_Lb1EEENS_9allocatorIS3_EEE25__emplace_unique_key_argsIxJRKNS_21piecewise_construct_tENS_5tupleIJRKxEEENSJ_IJEEEEEENS_4pairINS_15__hash_iteratorIPNS_11__hash_nodeIS3_PvEEEEbEERKT_DpOT0_, symObjAddr: 0x470C, symBinAddr: 0xB2C0, symSize: 0x228 }
  - { offset: 0xAB08B, size: 0x8, addend: 0x0, symName: __ZNSt3__112__hash_tableINS_17__hash_value_typeINS_12basic_stringIcNS_11char_traitsIcEENS_9allocatorIcEEEEbEENS_22__unordered_map_hasherIS7_S8_NS_4hashIS7_EENS_8equal_toIS7_EELb1EEENS_21__unordered_map_equalIS7_S8_SD_SB_Lb1EEENS5_IS8_EEE25__emplace_unique_key_argsIS7_JNS_4pairIKS7_bEEEEENSK_INS_15__hash_iteratorIPNS_11__hash_nodeIS8_PvEEEEbEERKT_DpOT0_, symObjAddr: 0x4B60, symBinAddr: 0xB714, symSize: 0x25C }
  - { offset: 0xAB7B1, size: 0x8, addend: 0x0, symName: '-[RCTComponentViewFactory registerComponentViewClass:]', symObjAddr: 0x8A0, symBinAddr: 0x8428, symSize: 0x244 }
  - { offset: 0xAC2FF, size: 0x8, addend: 0x0, symName: __ZNSt3__16vectorIN8facebook5react27ComponentDescriptorProviderENS_9allocatorIS3_EEE16__destroy_vectorclB8ne200100Ev, symObjAddr: 0xF04, symBinAddr: 0x88F8, symSize: 0x74 }
  - { offset: 0xAC4B6, size: 0x8, addend: 0x0, symName: __ZNSt3__111unique_lockINS_12shared_mutexEED2B8ne200100Ev, symObjAddr: 0x1074, symBinAddr: 0x8A68, symSize: 0x38 }
  - { offset: 0xAC5E2, size: 0x8, addend: 0x0, symName: '-[RCTComponentViewFactory createComponentViewWithComponentHandle:]', symObjAddr: 0xAE4, symBinAddr: 0x866C, symSize: 0xB0 }
  - { offset: 0xAC787, size: 0x8, addend: 0x0, symName: __ZNSt3__112__hash_tableINS_17__hash_value_typeIx31RCTComponentViewClassDescriptorEENS_22__unordered_map_hasherIxS3_NS_4hashIxEENS_8equal_toIxEELb1EEENS_21__unordered_map_equalIxS3_S8_S6_Lb1EEENS_9allocatorIS3_EEE4findIxEENS_15__hash_iteratorIPNS_11__hash_nodeIS3_PvEEEERKT_, symObjAddr: 0x511C, symBinAddr: 0xBAA4, symSize: 0xB4 }
  - { offset: 0xAC7E0, size: 0x8, addend: 0x0, symName: __ZNSt3__112__hash_tableINS_17__hash_value_typeIx31RCTComponentViewClassDescriptorEENS_22__unordered_map_hasherIxS3_NS_4hashIxEENS_8equal_toIxEELb1EEENS_21__unordered_map_equalIxS3_S8_S6_Lb1EEENS_9allocatorIS3_EEE4findIxEENS_15__hash_iteratorIPNS_11__hash_nodeIS3_PvEEEERKT_, symObjAddr: 0x511C, symBinAddr: 0xBAA4, symSize: 0xB4 }
  - { offset: 0xAC7FC, size: 0x8, addend: 0x0, symName: __ZNSt3__112__hash_tableINS_17__hash_value_typeIx31RCTComponentViewClassDescriptorEENS_22__unordered_map_hasherIxS3_NS_4hashIxEENS_8equal_toIxEELb1EEENS_21__unordered_map_equalIxS3_S8_S6_Lb1EEENS_9allocatorIS3_EEE4findIxEENS_15__hash_iteratorIPNS_11__hash_nodeIS3_PvEEEERKT_, symObjAddr: 0x511C, symBinAddr: 0xBAA4, symSize: 0xB4 }
  - { offset: 0xAC917, size: 0x8, addend: 0x0, symName: __ZNSt3__111shared_lockINS_12shared_mutexEED2B8ne200100Ev, symObjAddr: 0x50E4, symBinAddr: 0xBA6C, symSize: 0x38 }
  - { offset: 0xAC957, size: 0x8, addend: 0x0, symName: '-[RCTComponentViewFactory createComponentDescriptorRegistryWithParameters:]', symObjAddr: 0xB94, symBinAddr: 0x871C, symSize: 0x7C }
  - { offset: 0xACA8D, size: 0x8, addend: 0x0, symName: '-[RCTComponentViewFactory thirdPartyFabricComponentsProvider]', symObjAddr: 0xC10, symBinAddr: 0x8798, symSize: 0x18 }
  - { offset: 0xACAC2, size: 0x8, addend: 0x0, symName: '-[RCTComponentViewFactory setThirdPartyFabricComponentsProvider:]', symObjAddr: 0xC28, symBinAddr: 0x87B0, symSize: 0xC }
  - { offset: 0xACD16, size: 0x8, addend: 0x0, symName: '-[RCTComponentViewFactory .cxx_destruct]', symObjAddr: 0xC34, symBinAddr: 0x87BC, symSize: 0xB0 }
  - { offset: 0xAD00C, size: 0x8, addend: 0x0, symName: __ZNSt3__112__hash_tableINS_17__hash_value_typeIxKN8facebook5react27ComponentDescriptorProviderEEENS_22__unordered_map_hasherIxS6_NS_4hashIxEENS_8equal_toIxEELb1EEENS_21__unordered_map_equalIxS6_SB_S9_Lb1EEENS_9allocatorIS6_EEED2Ev, symObjAddr: 0xF78, symBinAddr: 0x896C, symSize: 0x38 }
  - { offset: 0xAD166, size: 0x8, addend: 0x0, symName: __ZNSt3__16vectorINS_8weak_ptrIKN8facebook5react27ComponentDescriptorRegistryEEENS_9allocatorIS6_EEE16__destroy_vectorclB8ne200100Ev, symObjAddr: 0xFEC, symBinAddr: 0x89E0, symSize: 0x40 }
  - { offset: 0xAD212, size: 0x8, addend: 0x0, symName: __ZNSt3__112__hash_tableINS_17__hash_value_typeINS_12basic_stringIcNS_11char_traitsIcEENS_9allocatorIcEEEEbEENS_22__unordered_map_hasherIS7_S8_NS_4hashIS7_EENS_8equal_toIS7_EELb1EEENS_21__unordered_map_equalIS7_S8_SD_SB_Lb1EEENS5_IS8_EEED2Ev, symObjAddr: 0x5218, symBinAddr: 0xBBA0, symSize: 0x38 }
  - { offset: 0xAD36C, size: 0x8, addend: 0x0, symName: __ZNSt3__112__hash_tableINS_17__hash_value_typeIx31RCTComponentViewClassDescriptorEENS_22__unordered_map_hasherIxS3_NS_4hashIxEENS_8equal_toIxEELb1EEENS_21__unordered_map_equalIxS3_S8_S6_Lb1EEENS_9allocatorIS3_EEED2Ev, symObjAddr: 0x51D0, symBinAddr: 0xBB58, symSize: 0x48 }
  - { offset: 0xAD83C, size: 0x8, addend: 0x0, symName: '-[RCTComponentViewFactory .cxx_construct]', symObjAddr: 0xCE4, symBinAddr: 0x886C, symSize: 0x64 }
  - { offset: 0xADE8D, size: 0x8, addend: 0x0, symName: __ZNSt3__112__hash_tableINS_17__hash_value_typeIxKN8facebook5react27ComponentDescriptorProviderEEENS_22__unordered_map_hasherIxS6_NS_4hashIxEENS_8equal_toIxEELb1EEENS_21__unordered_map_equalIxS6_SB_S9_Lb1EEENS_9allocatorIS6_EEE17__deallocate_nodeEPNS_16__hash_node_baseIPNS_11__hash_nodeIS6_PvEEEE, symObjAddr: 0xFB0, symBinAddr: 0x89A4, symSize: 0x3C }
  - { offset: 0xAE1AC, size: 0x8, addend: 0x0, symName: __ZNSt3__16vectorINS_8weak_ptrIKN8facebook5react27ComponentDescriptorRegistryEEENS_9allocatorIS6_EEE5clearB8ne200100Ev, symObjAddr: 0x102C, symBinAddr: 0x8A20, symSize: 0x48 }
  - { offset: 0xAE330, size: 0x8, addend: 0x0, symName: '__ZNSt3__110__function6__funcIZ40RCTInstallNativeComponentRegistryBindingRN8facebook3jsi7RuntimeEE3$_0NS_9allocatorIS6_EEFbRKNS_12basic_stringIcNS_11char_traitsIcEENS7_IcEEEEEED1Ev', symObjAddr: 0x10AC, symBinAddr: 0x8AA0, symSize: 0x4 }
  - { offset: 0xAE35C, size: 0x8, addend: 0x0, symName: '__ZNSt3__110__function6__funcIZ40RCTInstallNativeComponentRegistryBindingRN8facebook3jsi7RuntimeEE3$_0NS_9allocatorIS6_EEFbRKNS_12basic_stringIcNS_11char_traitsIcEENS7_IcEEEEEED0Ev', symObjAddr: 0x10B0, symBinAddr: 0x8AA4, symSize: 0x4 }
  - { offset: 0xAE40C, size: 0x8, addend: 0x0, symName: '__ZNKSt3__110__function6__funcIZ40RCTInstallNativeComponentRegistryBindingRN8facebook3jsi7RuntimeEE3$_0NS_9allocatorIS6_EEFbRKNS_12basic_stringIcNS_11char_traitsIcEENS7_IcEEEEEE7__cloneEv', symObjAddr: 0x10B4, symBinAddr: 0x8AA8, symSize: 0x24 }
  - { offset: 0xAE554, size: 0x8, addend: 0x0, symName: '__ZNKSt3__110__function6__funcIZ40RCTInstallNativeComponentRegistryBindingRN8facebook3jsi7RuntimeEE3$_0NS_9allocatorIS6_EEFbRKNS_12basic_stringIcNS_11char_traitsIcEENS7_IcEEEEEE7__cloneEPNS0_6__baseISG_EE', symObjAddr: 0x10D8, symBinAddr: 0x8ACC, symSize: 0x10 }
  - { offset: 0xAE587, size: 0x8, addend: 0x0, symName: '__ZNKSt3__110__function6__funcIZ40RCTInstallNativeComponentRegistryBindingRN8facebook3jsi7RuntimeEE3$_0NS_9allocatorIS6_EEFbRKNS_12basic_stringIcNS_11char_traitsIcEENS7_IcEEEEEE7__cloneEPNS0_6__baseISG_EE', symObjAddr: 0x10D8, symBinAddr: 0x8ACC, symSize: 0x10 }
  - { offset: 0xAE5A3, size: 0x8, addend: 0x0, symName: '__ZNKSt3__110__function6__funcIZ40RCTInstallNativeComponentRegistryBindingRN8facebook3jsi7RuntimeEE3$_0NS_9allocatorIS6_EEFbRKNS_12basic_stringIcNS_11char_traitsIcEENS7_IcEEEEEE7__cloneEPNS0_6__baseISG_EE', symObjAddr: 0x10D8, symBinAddr: 0x8ACC, symSize: 0x10 }
  - { offset: 0xAE5BF, size: 0x8, addend: 0x0, symName: '__ZNSt3__110__function6__funcIZ40RCTInstallNativeComponentRegistryBindingRN8facebook3jsi7RuntimeEE3$_0NS_9allocatorIS6_EEFbRKNS_12basic_stringIcNS_11char_traitsIcEENS7_IcEEEEEE7destroyEv', symObjAddr: 0x10E8, symBinAddr: 0x8ADC, symSize: 0x4 }
  - { offset: 0xAE610, size: 0x8, addend: 0x0, symName: '__ZNSt3__110__function6__funcIZ40RCTInstallNativeComponentRegistryBindingRN8facebook3jsi7RuntimeEE3$_0NS_9allocatorIS6_EEFbRKNS_12basic_stringIcNS_11char_traitsIcEENS7_IcEEEEEE18destroy_deallocateEv', symObjAddr: 0x10EC, symBinAddr: 0x8AE0, symSize: 0x4 }
  - { offset: 0xAE643, size: 0x8, addend: 0x0, symName: '__ZNSt3__110__function6__funcIZ40RCTInstallNativeComponentRegistryBindingRN8facebook3jsi7RuntimeEE3$_0NS_9allocatorIS6_EEFbRKNS_12basic_stringIcNS_11char_traitsIcEENS7_IcEEEEEE18destroy_deallocateEv', symObjAddr: 0x10EC, symBinAddr: 0x8AE0, symSize: 0x4 }
  - { offset: 0xAE666, size: 0x8, addend: 0x0, symName: '__ZNSt3__110__function6__funcIZ40RCTInstallNativeComponentRegistryBindingRN8facebook3jsi7RuntimeEE3$_0NS_9allocatorIS6_EEFbRKNS_12basic_stringIcNS_11char_traitsIcEENS7_IcEEEEEE18destroy_deallocateEv', symObjAddr: 0x10EC, symBinAddr: 0x8AE0, symSize: 0x4 }
  - { offset: 0xAE69A, size: 0x8, addend: 0x0, symName: '__ZNSt3__110__function6__funcIZ40RCTInstallNativeComponentRegistryBindingRN8facebook3jsi7RuntimeEE3$_0NS_9allocatorIS6_EEFbRKNS_12basic_stringIcNS_11char_traitsIcEENS7_IcEEEEEE18destroy_deallocateEv', symObjAddr: 0x10EC, symBinAddr: 0x8AE0, symSize: 0x4 }
  - { offset: 0xAE79F, size: 0x8, addend: 0x0, symName: '__ZNSt3__110__function6__funcIZ40RCTInstallNativeComponentRegistryBindingRN8facebook3jsi7RuntimeEE3$_0NS_9allocatorIS6_EEFbRKNS_12basic_stringIcNS_11char_traitsIcEENS7_IcEEEEEEclESF_', symObjAddr: 0x10F0, symBinAddr: 0x8AE4, symSize: 0xEC }
  - { offset: 0xAED05, size: 0x8, addend: 0x0, symName: __ZNSt3__112basic_stringIcNS_11char_traitsIcEENS_9allocatorIcEEE25__init_copy_ctor_externalEPKcm, symObjAddr: 0x1224, symBinAddr: 0x8C18, symSize: 0x80 }
  - { offset: 0xAEEDC, size: 0x8, addend: 0x0, symName: __ZNKSt9type_infoeqB8ne200100ERKS_, symObjAddr: 0x12A4, symBinAddr: 0x8C98, symSize: 0x4C }
  - { offset: 0xAEEE7, size: 0x8, addend: 0x0, symName: '__ZNKSt3__110__function6__funcIZ40RCTInstallNativeComponentRegistryBindingRN8facebook3jsi7RuntimeEE3$_0NS_9allocatorIS6_EEFbRKNS_12basic_stringIcNS_11char_traitsIcEENS7_IcEEEEEE6targetERKSt9type_info', symObjAddr: 0x11DC, symBinAddr: 0x8BD0, symSize: 0x3C }
  - { offset: 0xAEF34, size: 0x8, addend: 0x0, symName: __ZNKSt9type_infoeqB8ne200100ERKS_, symObjAddr: 0x12A4, symBinAddr: 0x8C98, symSize: 0x4C }
  - { offset: 0xAEFD4, size: 0x8, addend: 0x0, symName: '__ZNKSt3__110__function6__funcIZ40RCTInstallNativeComponentRegistryBindingRN8facebook3jsi7RuntimeEE3$_0NS_9allocatorIS6_EEFbRKNS_12basic_stringIcNS_11char_traitsIcEENS7_IcEEEEEE11target_typeEv', symObjAddr: 0x1218, symBinAddr: 0x8C0C, symSize: 0xC }
  - { offset: 0xAF543, size: 0x8, addend: 0x0, symName: __ZN8facebook5react14RawPropsParser7prepareINS0_22LayoutConformancePropsEEEvv, symObjAddr: 0x1448, symBinAddr: 0x8DEC, symSize: 0x2DC }
  - { offset: 0xB13CB, size: 0x8, addend: 0x0, symName: __ZN8facebook5react22LayoutConformancePropsC1ERKNS0_18PropsParserContextERKS1_RKNS0_8RawPropsE, symObjAddr: 0x1CA8, symBinAddr: 0x964C, symSize: 0x140 }
  - { offset: 0xB1A16, size: 0x8, addend: 0x0, symName: __ZN8facebook5react27ConcreteComponentDescriptorINS0_27LayoutConformanceShadowNodeEED1Ev, symObjAddr: 0x1724, symBinAddr: 0x90C8, symSize: 0x4 }
  - { offset: 0xB1A38, size: 0x8, addend: 0x0, symName: __ZN8facebook5react27ConcreteComponentDescriptorINS0_27LayoutConformanceShadowNodeEED1Ev, symObjAddr: 0x1724, symBinAddr: 0x90C8, symSize: 0x4 }
  - { offset: 0xB1A55, size: 0x8, addend: 0x0, symName: __ZN8facebook5react27ConcreteComponentDescriptorINS0_27LayoutConformanceShadowNodeEED1Ev, symObjAddr: 0x1724, symBinAddr: 0x90C8, symSize: 0x4 }
  - { offset: 0xB1D2A, size: 0x8, addend: 0x0, symName: __ZN8facebook5react27ConcreteComponentDescriptorINS0_27LayoutConformanceShadowNodeEED0Ev, symObjAddr: 0x1728, symBinAddr: 0x90CC, symSize: 0x14 }
  - { offset: 0xB1DA3, size: 0x8, addend: 0x0, symName: __ZNK8facebook5react27ConcreteComponentDescriptorINS0_27LayoutConformanceShadowNodeEE18getComponentHandleEv, symObjAddr: 0x173C, symBinAddr: 0x90E0, symSize: 0xC }
  - { offset: 0xB1DC9, size: 0x8, addend: 0x0, symName: __ZNK8facebook5react27ConcreteComponentDescriptorINS0_27LayoutConformanceShadowNodeEE16getComponentNameEv, symObjAddr: 0x1748, symBinAddr: 0x90EC, symSize: 0xC }
  - { offset: 0xB1DEF, size: 0x8, addend: 0x0, symName: __ZNK8facebook5react27ConcreteComponentDescriptorINS0_27LayoutConformanceShadowNodeEE9getTraitsEv, symObjAddr: 0x1754, symBinAddr: 0x90F8, symSize: 0x8 }
  - { offset: 0xB1EE5, size: 0x8, addend: 0x0, symName: __ZNK8facebook5react27ConcreteComponentDescriptorINS0_27LayoutConformanceShadowNodeEE16createShadowNodeERKNS0_18ShadowNodeFragmentERKNSt3__110shared_ptrIKNS0_16ShadowNodeFamilyEEE, symObjAddr: 0x175C, symBinAddr: 0x9100, symSize: 0x90 }
  - { offset: 0xB215D, size: 0x8, addend: 0x0, symName: __ZNK8facebook5react27ConcreteComponentDescriptorINS0_27LayoutConformanceShadowNodeEE15cloneShadowNodeERKNS0_10ShadowNodeERKNS0_18ShadowNodeFragmentE, symObjAddr: 0x17EC, symBinAddr: 0x9190, symSize: 0xFC }
  - { offset: 0xB24AB, size: 0x8, addend: 0x0, symName: __ZNK8facebook5react27ConcreteComponentDescriptorINS0_27LayoutConformanceShadowNodeEE11appendChildERKNSt3__110shared_ptrIKNS0_10ShadowNodeEEESA_, symObjAddr: 0x18E8, symBinAddr: 0x928C, symSize: 0xC }
  - { offset: 0xB2501, size: 0x8, addend: 0x0, symName: __ZNK8facebook5react27ConcreteComponentDescriptorINS0_27LayoutConformanceShadowNodeEE11appendChildERKNSt3__110shared_ptrIKNS0_10ShadowNodeEEESA_, symObjAddr: 0x18E8, symBinAddr: 0x928C, symSize: 0xC }
  - { offset: 0xB2D75, size: 0x8, addend: 0x0, symName: __ZNK8facebook5react27ConcreteComponentDescriptorINS0_27LayoutConformanceShadowNodeEE10clonePropsERKNS0_18PropsParserContextERKNSt3__110shared_ptrIKNS0_5PropsEEENS0_8RawPropsE, symObjAddr: 0x18F4, symBinAddr: 0x9298, symSize: 0x238 }
  - { offset: 0xB3AB7, size: 0x8, addend: 0x0, symName: __ZNK8facebook5react27ConcreteComponentDescriptorINS0_27LayoutConformanceShadowNodeEE18createInitialStateERKNSt3__110shared_ptrIKNS0_5PropsEEERKNS5_IKNS0_16ShadowNodeFamilyEEE, symObjAddr: 0x1B2C, symBinAddr: 0x94D0, symSize: 0x8 }
  - { offset: 0xB3AFA, size: 0x8, addend: 0x0, symName: __ZNK8facebook5react27ConcreteComponentDescriptorINS0_27LayoutConformanceShadowNodeEE18createInitialStateERKNSt3__110shared_ptrIKNS0_5PropsEEERKNS5_IKNS0_16ShadowNodeFamilyEEE, symObjAddr: 0x1B2C, symBinAddr: 0x94D0, symSize: 0x8 }
  - { offset: 0xB3B1C, size: 0x8, addend: 0x0, symName: __ZNK8facebook5react27ConcreteComponentDescriptorINS0_27LayoutConformanceShadowNodeEE18createInitialStateERKNSt3__110shared_ptrIKNS0_5PropsEEERKNS5_IKNS0_16ShadowNodeFamilyEEE, symObjAddr: 0x1B2C, symBinAddr: 0x94D0, symSize: 0x8 }
  - { offset: 0xB3B3F, size: 0x8, addend: 0x0, symName: __ZNK8facebook5react27ConcreteComponentDescriptorINS0_27LayoutConformanceShadowNodeEE11createStateERKNS0_16ShadowNodeFamilyERKNSt3__110shared_ptrIKvEE, symObjAddr: 0x1B34, symBinAddr: 0x94D8, symSize: 0x8 }
  - { offset: 0xB3B82, size: 0x8, addend: 0x0, symName: __ZNK8facebook5react27ConcreteComponentDescriptorINS0_27LayoutConformanceShadowNodeEE11createStateERKNS0_16ShadowNodeFamilyERKNSt3__110shared_ptrIKvEE, symObjAddr: 0x1B34, symBinAddr: 0x94D8, symSize: 0x8 }
  - { offset: 0xB3BA4, size: 0x8, addend: 0x0, symName: __ZNK8facebook5react27ConcreteComponentDescriptorINS0_27LayoutConformanceShadowNodeEE11createStateERKNS0_16ShadowNodeFamilyERKNSt3__110shared_ptrIKvEE, symObjAddr: 0x1B34, symBinAddr: 0x94D8, symSize: 0x8 }
  - { offset: 0xB3DA4, size: 0x8, addend: 0x0, symName: __ZNK8facebook5react27ConcreteComponentDescriptorINS0_27LayoutConformanceShadowNodeEE12createFamilyERKNS0_24ShadowNodeFamilyFragmentE, symObjAddr: 0x1B3C, symBinAddr: 0x94E0, symSize: 0x168 }
  - { offset: 0xB4300, size: 0x8, addend: 0x0, symName: __ZNK8facebook5react27ConcreteComponentDescriptorINS0_27LayoutConformanceShadowNodeEE5adoptERNS0_10ShadowNodeE, symObjAddr: 0x1CA4, symBinAddr: 0x9648, symSize: 0x4 }
  - { offset: 0xB43A5, size: 0x8, addend: 0x0, symName: __ZN8facebook5react17YogaStylablePropsD2Ev, symObjAddr: 0x20D8, symBinAddr: 0x984C, symSize: 0x54 }
  - { offset: 0xB4634, size: 0x8, addend: 0x0, symName: __ZN8facebook5react22LayoutConformancePropsD1Ev, symObjAddr: 0x1DE8, symBinAddr: 0x978C, symSize: 0x60 }
  - { offset: 0xB4E10, size: 0x8, addend: 0x0, symName: __ZN8facebook5react22LayoutConformancePropsD0Ev, symObjAddr: 0x2078, symBinAddr: 0x97EC, symSize: 0x60 }
  - { offset: 0xB52D1, size: 0x8, addend: 0x0, symName: __ZNK8facebook5react8RawValue8hasValueEv, symObjAddr: 0x2334, symBinAddr: 0x9A64, symSize: 0x3C }
  - { offset: 0xB52F9, size: 0x8, addend: 0x0, symName: __ZNK8facebook5react8RawValue8hasValueEv, symObjAddr: 0x2334, symBinAddr: 0x9A64, symSize: 0x3C }
  - { offset: 0xB5314, size: 0x8, addend: 0x0, symName: __ZNK8facebook5react8RawValue8hasValueEv, symObjAddr: 0x2334, symBinAddr: 0x9A64, symSize: 0x3C }
  - { offset: 0xB5330, size: 0x8, addend: 0x0, symName: __ZNK8facebook5react8RawValue8hasValueEv, symObjAddr: 0x2334, symBinAddr: 0x9A64, symSize: 0x3C }
  - { offset: 0xB534C, size: 0x8, addend: 0x0, symName: __ZNK8facebook5react8RawValue8hasValueEv, symObjAddr: 0x2334, symBinAddr: 0x9A64, symSize: 0x3C }
  - { offset: 0xB545E, size: 0x8, addend: 0x0, symName: __ZN8facebook5react12fromRawValueERKNS0_18PropsParserContextERKNS0_8RawValueERNS0_17LayoutConformanceE, symObjAddr: 0x2370, symBinAddr: 0x9AA0, symSize: 0x1C4 }
  - { offset: 0xB5649, size: 0x8, addend: 0x0, symName: __ZNK8facebook5react8RawValuecvT_INSt3__112basic_stringIcNS4_11char_traitsIcEENS4_9allocatorIcEEEEEEv, symObjAddr: 0x256C, symBinAddr: 0x9C9C, symSize: 0x38 }
  - { offset: 0xB5798, size: 0x8, addend: 0x0, symName: __ZN8facebook5react8RawValue9castValueERKN5folly7dynamicEPNSt3__112basic_stringIcNS6_11char_traitsIcEENS6_9allocatorIcEEEE, symObjAddr: 0x25A4, symBinAddr: 0x9CD4, symSize: 0x44 }
  - { offset: 0xB5814, size: 0x8, addend: 0x0, symName: __ZNSt18bad_variant_accessD1Ev, symObjAddr: 0x2568, symBinAddr: 0x9C98, symSize: 0x4 }
  - { offset: 0xB5842, size: 0x8, addend: 0x0, symName: __ZNSt18bad_variant_accessD1Ev, symObjAddr: 0x2568, symBinAddr: 0x9C98, symSize: 0x4 }
  - { offset: 0xB585D, size: 0x8, addend: 0x0, symName: __ZN8facebook5react8RawValue9castValueERKN5folly7dynamicEPNSt3__112basic_stringIcNS6_11char_traitsIcEENS6_9allocatorIcEEEE, symObjAddr: 0x25A4, symBinAddr: 0x9CD4, symSize: 0x44 }
  - { offset: 0xB58DA, size: 0x8, addend: 0x0, symName: __ZN8facebook5react8RawValue9castValueERKN5folly7dynamicEPNSt3__112basic_stringIcNS6_11char_traitsIcEENS6_9allocatorIcEEEE, symObjAddr: 0x25A4, symBinAddr: 0x9CD4, symSize: 0x44 }
  - { offset: 0xB5977, size: 0x8, addend: 0x0, symName: __ZN8facebook5react8RawValue9castValueEPNS_3jsi7RuntimeERKNS2_5ValueEPNSt3__112basic_stringIcNS8_11char_traitsIcEENS8_9allocatorIcEEEE, symObjAddr: 0x25E8, symBinAddr: 0x9D18, symSize: 0x84 }
  - { offset: 0xB5982, size: 0x8, addend: 0x0, symName: __ZN8facebook5react8RawValue9castValueEPNS_3jsi7RuntimeERKNS2_5ValueEPNSt3__112basic_stringIcNS8_11char_traitsIcEENS8_9allocatorIcEEEE, symObjAddr: 0x25E8, symBinAddr: 0x9D18, symSize: 0x84 }
  - { offset: 0xB5AEC, size: 0x8, addend: 0x0, symName: __ZN8facebook5react8RawValue9castValueERKN5folly7dynamicEPNSt3__112basic_stringIcNS6_11char_traitsIcEENS6_9allocatorIcEEEE.cold.1, symObjAddr: 0x52A8, symBinAddr: 0x5A768, symSize: 0x1C }
  - { offset: 0xB5F2D, size: 0x8, addend: 0x0, symName: __ZNSt3__112basic_stringIcNS_11char_traitsIcEENS_9allocatorIcEEEC2B8ne200100Emc, symObjAddr: 0x29E8, symBinAddr: 0xA040, symSize: 0x9C }
  - { offset: 0xB69CA, size: 0x8, addend: 0x0, symName: __ZNSt3__120__shared_ptr_emplaceIN8facebook5react27LayoutConformanceShadowNodeENS_9allocatorIS3_EEEC2B8ne200100IJRKNS2_18ShadowNodeFragmentERKNS_10shared_ptrIKNS2_16ShadowNodeFamilyEEENS2_16ShadowNodeTraitsEES5_Li0EEES5_DpOT_, symObjAddr: 0x2DAC, symBinAddr: 0xA14C, symSize: 0x60 }
  - { offset: 0xB6D2F, size: 0x8, addend: 0x0, symName: __ZNSt3__120__shared_ptr_emplaceIN8facebook5react27LayoutConformanceShadowNodeENS_9allocatorIS3_EEED1Ev, symObjAddr: 0x2E0C, symBinAddr: 0xA1AC, symSize: 0x14 }
  - { offset: 0xB6D51, size: 0x8, addend: 0x0, symName: __ZNSt3__120__shared_ptr_emplaceIN8facebook5react27LayoutConformanceShadowNodeENS_9allocatorIS3_EEED1Ev, symObjAddr: 0x2E0C, symBinAddr: 0xA1AC, symSize: 0x14 }
  - { offset: 0xB6D85, size: 0x8, addend: 0x0, symName: __ZNSt3__120__shared_ptr_emplaceIN8facebook5react27LayoutConformanceShadowNodeENS_9allocatorIS3_EEED0Ev, symObjAddr: 0x2E20, symBinAddr: 0xA1C0, symSize: 0x24 }
  - { offset: 0xB6E52, size: 0x8, addend: 0x0, symName: __ZNSt3__120__shared_ptr_emplaceIN8facebook5react27LayoutConformanceShadowNodeENS_9allocatorIS3_EEE16__on_zero_sharedEv, symObjAddr: 0x2E44, symBinAddr: 0xA1E4, symSize: 0x8 }
  - { offset: 0xB6E7A, size: 0x8, addend: 0x0, symName: __ZNSt3__120__shared_ptr_emplaceIN8facebook5react27LayoutConformanceShadowNodeENS_9allocatorIS3_EEE16__on_zero_sharedEv, symObjAddr: 0x2E44, symBinAddr: 0xA1E4, symSize: 0x8 }
  - { offset: 0xB6E98, size: 0x8, addend: 0x0, symName: __ZNSt3__120__shared_ptr_emplaceIN8facebook5react27LayoutConformanceShadowNodeENS_9allocatorIS3_EEE16__on_zero_sharedEv, symObjAddr: 0x2E44, symBinAddr: 0xA1E4, symSize: 0x8 }
  - { offset: 0xB6ED6, size: 0x8, addend: 0x0, symName: __ZNSt3__120__shared_ptr_emplaceIN8facebook5react27LayoutConformanceShadowNodeENS_9allocatorIS3_EEE21__on_zero_shared_weakEv, symObjAddr: 0x2E4C, symBinAddr: 0xA1EC, symSize: 0x4 }
  - { offset: 0xB6F09, size: 0x8, addend: 0x0, symName: __ZNSt3__120__shared_ptr_emplaceIN8facebook5react27LayoutConformanceShadowNodeENS_9allocatorIS3_EEE21__on_zero_shared_weakEv, symObjAddr: 0x2E4C, symBinAddr: 0xA1EC, symSize: 0x4 }
  - { offset: 0xB6F2B, size: 0x8, addend: 0x0, symName: __ZNSt3__120__shared_ptr_emplaceIN8facebook5react27LayoutConformanceShadowNodeENS_9allocatorIS3_EEE21__on_zero_shared_weakEv, symObjAddr: 0x2E4C, symBinAddr: 0xA1EC, symSize: 0x4 }
  - { offset: 0xB6F4E, size: 0x8, addend: 0x0, symName: __ZNSt3__120__shared_ptr_emplaceIN8facebook5react27LayoutConformanceShadowNodeENS_9allocatorIS3_EEE21__on_zero_shared_weakEv, symObjAddr: 0x2E4C, symBinAddr: 0xA1EC, symSize: 0x4 }
  - { offset: 0xB6F84, size: 0x8, addend: 0x0, symName: __ZNSt3__120__shared_ptr_emplaceIN8facebook5react27LayoutConformanceShadowNodeENS_9allocatorIS3_EEE21__on_zero_shared_weakEv, symObjAddr: 0x2E4C, symBinAddr: 0xA1EC, symSize: 0x4 }
  - { offset: 0xB71D2, size: 0x8, addend: 0x0, symName: __ZN8facebook5react27LayoutConformanceShadowNodeD1Ev, symObjAddr: 0x2E50, symBinAddr: 0xA1F0, symSize: 0x70 }
  - { offset: 0xB7732, size: 0x8, addend: 0x0, symName: __ZN8facebook5react27LayoutConformanceShadowNodeD0Ev, symObjAddr: 0x2EC0, symBinAddr: 0xA260, symSize: 0x74 }
  - { offset: 0xB7ED3, size: 0x8, addend: 0x0, symName: __ZNSt3__120__shared_ptr_emplaceIN8facebook5react27LayoutConformanceShadowNodeENS_9allocatorIS3_EEEC2B8ne200100IJRKNS2_10ShadowNodeERKNS2_18ShadowNodeFragmentEES5_Li0EEES5_DpOT_, symObjAddr: 0x32E0, symBinAddr: 0xA3A4, symSize: 0x5C }
  - { offset: 0xB8159, size: 0x8, addend: 0x0, symName: __ZNSt3__110shared_ptrIKN8facebook5react22LayoutConformancePropsEED1B8ne200100Ev, symObjAddr: 0x3428, symBinAddr: 0xA494, symSize: 0x4 }
  - { offset: 0xB8185, size: 0x8, addend: 0x0, symName: __ZNSt3__110shared_ptrIKN8facebook5react22LayoutConformancePropsEED1B8ne200100Ev, symObjAddr: 0x3428, symBinAddr: 0xA494, symSize: 0x4 }
  - { offset: 0xB8408, size: 0x8, addend: 0x0, symName: __ZNSt3__120__shared_ptr_emplaceIKN8facebook5react22LayoutConformancePropsENS_9allocatorIS3_EEEC2B8ne200100IJES6_Li0EEES6_DpOT_, symObjAddr: 0x3474, symBinAddr: 0xA4E0, symSize: 0xB8 }
  - { offset: 0xB8586, size: 0x8, addend: 0x0, symName: __ZNSt3__120__shared_ptr_emplaceIKN8facebook5react22LayoutConformancePropsENS_9allocatorIS3_EEED1Ev, symObjAddr: 0x352C, symBinAddr: 0xA598, symSize: 0x14 }
  - { offset: 0xB85A8, size: 0x8, addend: 0x0, symName: __ZNSt3__120__shared_ptr_emplaceIKN8facebook5react22LayoutConformancePropsENS_9allocatorIS3_EEED1Ev, symObjAddr: 0x352C, symBinAddr: 0xA598, symSize: 0x14 }
  - { offset: 0xB85DC, size: 0x8, addend: 0x0, symName: __ZNSt3__120__shared_ptr_emplaceIKN8facebook5react22LayoutConformancePropsENS_9allocatorIS3_EEED0Ev, symObjAddr: 0x3540, symBinAddr: 0xA5AC, symSize: 0x24 }
  - { offset: 0xB86A9, size: 0x8, addend: 0x0, symName: __ZNSt3__120__shared_ptr_emplaceIKN8facebook5react22LayoutConformancePropsENS_9allocatorIS3_EEE16__on_zero_sharedEv, symObjAddr: 0x3564, symBinAddr: 0xA5D0, symSize: 0x8 }
  - { offset: 0xB86D1, size: 0x8, addend: 0x0, symName: __ZNSt3__120__shared_ptr_emplaceIKN8facebook5react22LayoutConformancePropsENS_9allocatorIS3_EEE16__on_zero_sharedEv, symObjAddr: 0x3564, symBinAddr: 0xA5D0, symSize: 0x8 }
  - { offset: 0xB86EF, size: 0x8, addend: 0x0, symName: __ZNSt3__120__shared_ptr_emplaceIKN8facebook5react22LayoutConformancePropsENS_9allocatorIS3_EEE16__on_zero_sharedEv, symObjAddr: 0x3564, symBinAddr: 0xA5D0, symSize: 0x8 }
  - { offset: 0xB872D, size: 0x8, addend: 0x0, symName: __ZNSt3__120__shared_ptr_emplaceIKN8facebook5react22LayoutConformancePropsENS_9allocatorIS3_EEE21__on_zero_shared_weakEv, symObjAddr: 0x356C, symBinAddr: 0xA5D8, symSize: 0x4 }
  - { offset: 0xB8760, size: 0x8, addend: 0x0, symName: __ZNSt3__120__shared_ptr_emplaceIKN8facebook5react22LayoutConformancePropsENS_9allocatorIS3_EEE21__on_zero_shared_weakEv, symObjAddr: 0x356C, symBinAddr: 0xA5D8, symSize: 0x4 }
  - { offset: 0xB8782, size: 0x8, addend: 0x0, symName: __ZNSt3__120__shared_ptr_emplaceIKN8facebook5react22LayoutConformancePropsENS_9allocatorIS3_EEE21__on_zero_shared_weakEv, symObjAddr: 0x356C, symBinAddr: 0xA5D8, symSize: 0x4 }
  - { offset: 0xB87A5, size: 0x8, addend: 0x0, symName: __ZNSt3__120__shared_ptr_emplaceIKN8facebook5react22LayoutConformancePropsENS_9allocatorIS3_EEE21__on_zero_shared_weakEv, symObjAddr: 0x356C, symBinAddr: 0xA5D8, symSize: 0x4 }
  - { offset: 0xB87DB, size: 0x8, addend: 0x0, symName: __ZNSt3__120__shared_ptr_emplaceIKN8facebook5react22LayoutConformancePropsENS_9allocatorIS3_EEE21__on_zero_shared_weakEv, symObjAddr: 0x356C, symBinAddr: 0xA5D8, symSize: 0x4 }
  - { offset: 0xB8A4D, size: 0x8, addend: 0x0, symName: __ZNSt3__120__shared_ptr_emplaceIN8facebook5react22LayoutConformancePropsENS_9allocatorIS3_EEEC2B8ne200100IJRKNS2_18PropsParserContextERKS3_RKNS2_8RawPropsEES5_Li0EEES5_DpOT_, symObjAddr: 0x369C, symBinAddr: 0xA6B0, symSize: 0x4C }
  - { offset: 0xB8C58, size: 0x8, addend: 0x0, symName: __ZNSt3__120__shared_ptr_emplaceIN8facebook5react22LayoutConformancePropsENS_9allocatorIS3_EEED1Ev, symObjAddr: 0x36E8, symBinAddr: 0xA6FC, symSize: 0x14 }
  - { offset: 0xB8C7A, size: 0x8, addend: 0x0, symName: __ZNSt3__120__shared_ptr_emplaceIN8facebook5react22LayoutConformancePropsENS_9allocatorIS3_EEED1Ev, symObjAddr: 0x36E8, symBinAddr: 0xA6FC, symSize: 0x14 }
  - { offset: 0xB8CAE, size: 0x8, addend: 0x0, symName: __ZNSt3__120__shared_ptr_emplaceIN8facebook5react22LayoutConformancePropsENS_9allocatorIS3_EEED0Ev, symObjAddr: 0x36FC, symBinAddr: 0xA710, symSize: 0x24 }
  - { offset: 0xB8D4C, size: 0x8, addend: 0x0, symName: __ZNSt3__120__shared_ptr_emplaceIN8facebook5react22LayoutConformancePropsENS_9allocatorIS3_EEE16__on_zero_sharedEv, symObjAddr: 0x3720, symBinAddr: 0xA734, symSize: 0x8 }
  - { offset: 0xB8D74, size: 0x8, addend: 0x0, symName: __ZNSt3__120__shared_ptr_emplaceIN8facebook5react22LayoutConformancePropsENS_9allocatorIS3_EEE16__on_zero_sharedEv, symObjAddr: 0x3720, symBinAddr: 0xA734, symSize: 0x8 }
  - { offset: 0xB8D92, size: 0x8, addend: 0x0, symName: __ZNSt3__120__shared_ptr_emplaceIN8facebook5react22LayoutConformancePropsENS_9allocatorIS3_EEE16__on_zero_sharedEv, symObjAddr: 0x3720, symBinAddr: 0xA734, symSize: 0x8 }
  - { offset: 0xB8DD0, size: 0x8, addend: 0x0, symName: __ZNSt3__120__shared_ptr_emplaceIN8facebook5react22LayoutConformancePropsENS_9allocatorIS3_EEE21__on_zero_shared_weakEv, symObjAddr: 0x3728, symBinAddr: 0xA73C, symSize: 0x4 }
  - { offset: 0xB8E03, size: 0x8, addend: 0x0, symName: __ZNSt3__120__shared_ptr_emplaceIN8facebook5react22LayoutConformancePropsENS_9allocatorIS3_EEE21__on_zero_shared_weakEv, symObjAddr: 0x3728, symBinAddr: 0xA73C, symSize: 0x4 }
  - { offset: 0xB8E25, size: 0x8, addend: 0x0, symName: __ZNSt3__120__shared_ptr_emplaceIN8facebook5react22LayoutConformancePropsENS_9allocatorIS3_EEE21__on_zero_shared_weakEv, symObjAddr: 0x3728, symBinAddr: 0xA73C, symSize: 0x4 }
  - { offset: 0xB8E48, size: 0x8, addend: 0x0, symName: __ZNSt3__120__shared_ptr_emplaceIN8facebook5react22LayoutConformancePropsENS_9allocatorIS3_EEE21__on_zero_shared_weakEv, symObjAddr: 0x3728, symBinAddr: 0xA73C, symSize: 0x4 }
  - { offset: 0xB8E7E, size: 0x8, addend: 0x0, symName: __ZNSt3__120__shared_ptr_emplaceIN8facebook5react22LayoutConformancePropsENS_9allocatorIS3_EEE21__on_zero_shared_weakEv, symObjAddr: 0x3728, symBinAddr: 0xA73C, symSize: 0x4 }
  - { offset: 0xB90DF, size: 0x8, addend: 0x0, symName: __ZNSt3__120__shared_ptr_emplaceIKN8facebook5react12EventEmitterENS_9allocatorIS3_EEEC2B8ne200100IJNS_10shared_ptrINS2_11EventTargetEEERKNS_8weak_ptrIKNS2_15EventDispatcherEEEES6_Li0EEES6_DpOT_, symObjAddr: 0x37E4, symBinAddr: 0xA7A0, symSize: 0x4C }
  - { offset: 0xB9289, size: 0x8, addend: 0x0, symName: __ZNSt3__120__shared_ptr_emplaceIKN8facebook5react12EventEmitterENS_9allocatorIS3_EEED1Ev, symObjAddr: 0x3830, symBinAddr: 0xA7EC, symSize: 0x14 }
  - { offset: 0xB92AB, size: 0x8, addend: 0x0, symName: __ZNSt3__120__shared_ptr_emplaceIKN8facebook5react12EventEmitterENS_9allocatorIS3_EEED1Ev, symObjAddr: 0x3830, symBinAddr: 0xA7EC, symSize: 0x14 }
  - { offset: 0xB92DF, size: 0x8, addend: 0x0, symName: __ZNSt3__120__shared_ptr_emplaceIKN8facebook5react12EventEmitterENS_9allocatorIS3_EEED0Ev, symObjAddr: 0x3844, symBinAddr: 0xA800, symSize: 0x24 }
  - { offset: 0xB93AC, size: 0x8, addend: 0x0, symName: __ZNSt3__120__shared_ptr_emplaceIKN8facebook5react12EventEmitterENS_9allocatorIS3_EEE16__on_zero_sharedEv, symObjAddr: 0x3868, symBinAddr: 0xA824, symSize: 0xC }
  - { offset: 0xB93D4, size: 0x8, addend: 0x0, symName: __ZNSt3__120__shared_ptr_emplaceIKN8facebook5react12EventEmitterENS_9allocatorIS3_EEE16__on_zero_sharedEv, symObjAddr: 0x3868, symBinAddr: 0xA824, symSize: 0xC }
  - { offset: 0xB93F2, size: 0x8, addend: 0x0, symName: __ZNSt3__120__shared_ptr_emplaceIKN8facebook5react12EventEmitterENS_9allocatorIS3_EEE16__on_zero_sharedEv, symObjAddr: 0x3868, symBinAddr: 0xA824, symSize: 0xC }
  - { offset: 0xB9410, size: 0x8, addend: 0x0, symName: __ZNSt3__120__shared_ptr_emplaceIKN8facebook5react12EventEmitterENS_9allocatorIS3_EEE16__on_zero_sharedEv, symObjAddr: 0x3868, symBinAddr: 0xA824, symSize: 0xC }
  - { offset: 0xB943C, size: 0x8, addend: 0x0, symName: __ZNSt3__120__shared_ptr_emplaceIKN8facebook5react12EventEmitterENS_9allocatorIS3_EEE21__on_zero_shared_weakEv, symObjAddr: 0x3874, symBinAddr: 0xA830, symSize: 0x4 }
  - { offset: 0xB946F, size: 0x8, addend: 0x0, symName: __ZNSt3__120__shared_ptr_emplaceIKN8facebook5react12EventEmitterENS_9allocatorIS3_EEE21__on_zero_shared_weakEv, symObjAddr: 0x3874, symBinAddr: 0xA830, symSize: 0x4 }
  - { offset: 0xB9491, size: 0x8, addend: 0x0, symName: __ZNSt3__120__shared_ptr_emplaceIKN8facebook5react12EventEmitterENS_9allocatorIS3_EEE21__on_zero_shared_weakEv, symObjAddr: 0x3874, symBinAddr: 0xA830, symSize: 0x4 }
  - { offset: 0xB94B4, size: 0x8, addend: 0x0, symName: __ZNSt3__120__shared_ptr_emplaceIKN8facebook5react12EventEmitterENS_9allocatorIS3_EEE21__on_zero_shared_weakEv, symObjAddr: 0x3874, symBinAddr: 0xA830, symSize: 0x4 }
  - { offset: 0xB94E9, size: 0x8, addend: 0x0, symName: __ZNSt3__120__shared_ptr_emplaceIKN8facebook5react12EventEmitterENS_9allocatorIS3_EEE21__on_zero_shared_weakEv, symObjAddr: 0x3874, symBinAddr: 0xA830, symSize: 0x4 }
  - { offset: 0xB9CAE, size: 0x8, addend: 0x0, symName: __ZNSt3__120__shared_ptr_emplaceIN8facebook5react16ShadowNodeFamilyENS_9allocatorIS3_EEEC2B8ne200100IJRKNS2_24ShadowNodeFamilyFragmentERNS_10shared_ptrIKNS2_12EventEmitterEEERKNS_8weak_ptrIKNS2_15EventDispatcherEEERKNS2_27ConcreteComponentDescriptorINS2_27LayoutConformanceShadowNodeEEEES5_Li0EEES5_DpOT_, symObjAddr: 0x3C74, symBinAddr: 0xA974, symSize: 0x4C }
  - { offset: 0xB9EFD, size: 0x8, addend: 0x0, symName: '__ZNSt3__110__function6__funcIZZ54+[RCTComponentViewFactory currentComponentViewFactory]EUb_E3$_1NS_9allocatorIS2_EEFvPKcEED1Ev', symObjAddr: 0x3E90, symBinAddr: 0xAA9C, symSize: 0x4 }
  - { offset: 0xB9F29, size: 0x8, addend: 0x0, symName: '__ZNSt3__110__function6__funcIZZ54+[RCTComponentViewFactory currentComponentViewFactory]EUb_E3$_1NS_9allocatorIS2_EEFvPKcEED0Ev', symObjAddr: 0x3E94, symBinAddr: 0xAAA0, symSize: 0x4 }
  - { offset: 0xB9FD9, size: 0x8, addend: 0x0, symName: '__ZNKSt3__110__function6__funcIZZ54+[RCTComponentViewFactory currentComponentViewFactory]EUb_E3$_1NS_9allocatorIS2_EEFvPKcEE7__cloneEv', symObjAddr: 0x3E98, symBinAddr: 0xAAA4, symSize: 0x24 }
  - { offset: 0xBA121, size: 0x8, addend: 0x0, symName: '__ZNKSt3__110__function6__funcIZZ54+[RCTComponentViewFactory currentComponentViewFactory]EUb_E3$_1NS_9allocatorIS2_EEFvPKcEE7__cloneEPNS0_6__baseIS7_EE', symObjAddr: 0x3EBC, symBinAddr: 0xAAC8, symSize: 0x10 }
  - { offset: 0xBA154, size: 0x8, addend: 0x0, symName: '__ZNKSt3__110__function6__funcIZZ54+[RCTComponentViewFactory currentComponentViewFactory]EUb_E3$_1NS_9allocatorIS2_EEFvPKcEE7__cloneEPNS0_6__baseIS7_EE', symObjAddr: 0x3EBC, symBinAddr: 0xAAC8, symSize: 0x10 }
  - { offset: 0xBA170, size: 0x8, addend: 0x0, symName: '__ZNKSt3__110__function6__funcIZZ54+[RCTComponentViewFactory currentComponentViewFactory]EUb_E3$_1NS_9allocatorIS2_EEFvPKcEE7__cloneEPNS0_6__baseIS7_EE', symObjAddr: 0x3EBC, symBinAddr: 0xAAC8, symSize: 0x10 }
  - { offset: 0xBA18C, size: 0x8, addend: 0x0, symName: '__ZNSt3__110__function6__funcIZZ54+[RCTComponentViewFactory currentComponentViewFactory]EUb_E3$_1NS_9allocatorIS2_EEFvPKcEE7destroyEv', symObjAddr: 0x3ECC, symBinAddr: 0xAAD8, symSize: 0x4 }
  - { offset: 0xBA1DD, size: 0x8, addend: 0x0, symName: '__ZNSt3__110__function6__funcIZZ54+[RCTComponentViewFactory currentComponentViewFactory]EUb_E3$_1NS_9allocatorIS2_EEFvPKcEE18destroy_deallocateEv', symObjAddr: 0x3ED0, symBinAddr: 0xAADC, symSize: 0x4 }
  - { offset: 0xBA210, size: 0x8, addend: 0x0, symName: '__ZNSt3__110__function6__funcIZZ54+[RCTComponentViewFactory currentComponentViewFactory]EUb_E3$_1NS_9allocatorIS2_EEFvPKcEE18destroy_deallocateEv', symObjAddr: 0x3ED0, symBinAddr: 0xAADC, symSize: 0x4 }
  - { offset: 0xBA233, size: 0x8, addend: 0x0, symName: '__ZNSt3__110__function6__funcIZZ54+[RCTComponentViewFactory currentComponentViewFactory]EUb_E3$_1NS_9allocatorIS2_EEFvPKcEE18destroy_deallocateEv', symObjAddr: 0x3ED0, symBinAddr: 0xAADC, symSize: 0x4 }
  - { offset: 0xBA267, size: 0x8, addend: 0x0, symName: '__ZNSt3__110__function6__funcIZZ54+[RCTComponentViewFactory currentComponentViewFactory]EUb_E3$_1NS_9allocatorIS2_EEFvPKcEE18destroy_deallocateEv', symObjAddr: 0x3ED0, symBinAddr: 0xAADC, symSize: 0x4 }
  - { offset: 0xBA30D, size: 0x8, addend: 0x0, symName: '__ZNSt3__110__function6__funcIZZ54+[RCTComponentViewFactory currentComponentViewFactory]EUb_E3$_1NS_9allocatorIS2_EEFvPKcEEclEOS6_', symObjAddr: 0x3ED4, symBinAddr: 0xAAE0, symSize: 0x6C }
  - { offset: 0xBA600, size: 0x8, addend: 0x0, symName: '__ZNKSt3__110__function6__funcIZZ54+[RCTComponentViewFactory currentComponentViewFactory]EUb_E3$_1NS_9allocatorIS2_EEFvPKcEE6targetERKSt9type_info', symObjAddr: 0x3F40, symBinAddr: 0xAB4C, symSize: 0x3C }
  - { offset: 0xBA64D, size: 0x8, addend: 0x0, symName: '__ZNKSt3__110__function6__funcIZZ54+[RCTComponentViewFactory currentComponentViewFactory]EUb_E3$_1NS_9allocatorIS2_EEFvPKcEE11target_typeEv', symObjAddr: 0x3F7C, symBinAddr: 0xAB88, symSize: 0xC }
  - { offset: 0xBA749, size: 0x8, addend: 0x0, symName: __ZNKSt3__113__string_hashIcNS_9allocatorIcEEEclB8ne200100ERKNS_12basic_stringIcNS_11char_traitsIcEES2_EE, symObjAddr: 0x4080, symBinAddr: 0xAC8C, symSize: 0x3C }
  - { offset: 0xBA81B, size: 0x8, addend: 0x0, symName: __ZNKSt3__18equal_toINS_12basic_stringIcNS_11char_traitsIcEENS_9allocatorIcEEEEEclB8ne200100ERKS6_S9_, symObjAddr: 0x4528, symBinAddr: 0xB134, symSize: 0x70 }
  - { offset: 0xBA865, size: 0x8, addend: 0x0, symName: __ZNKSt3__18equal_toINS_12basic_stringIcNS_11char_traitsIcEENS_9allocatorIcEEEEEclB8ne200100ERKS6_S9_, symObjAddr: 0x4528, symBinAddr: 0xB134, symSize: 0x70 }
  - { offset: 0xBA897, size: 0x8, addend: 0x0, symName: __ZNKSt3__18equal_toINS_12basic_stringIcNS_11char_traitsIcEENS_9allocatorIcEEEEEclB8ne200100ERKS6_S9_, symObjAddr: 0x4528, symBinAddr: 0xB134, symSize: 0x70 }
  - { offset: 0xBA8B3, size: 0x8, addend: 0x0, symName: __ZNKSt3__18equal_toINS_12basic_stringIcNS_11char_traitsIcEENS_9allocatorIcEEEEEclB8ne200100ERKS6_S9_, symObjAddr: 0x4528, symBinAddr: 0xB134, symSize: 0x70 }
  - { offset: 0xBA9B7, size: 0x8, addend: 0x0, symName: __ZNKSt3__121__murmur2_or_cityhashImLm64EEclB8ne200100EPKvm, symObjAddr: 0x40BC, symBinAddr: 0xACC8, symSize: 0x208 }
  - { offset: 0xBB038, size: 0x8, addend: 0x0, symName: __ZNSt3__121__murmur2_or_cityhashImLm64EE18__hash_len_0_to_16B8ne200100EPKcm, symObjAddr: 0x42C4, symBinAddr: 0xAED0, symSize: 0xF8 }
  - { offset: 0xBB24C, size: 0x8, addend: 0x0, symName: __ZNSt3__121__murmur2_or_cityhashImLm64EE19__hash_len_33_to_64B8ne200100EPKcm, symObjAddr: 0x4468, symBinAddr: 0xB074, symSize: 0xC0 }
  - { offset: 0xBB4BC, size: 0x8, addend: 0x0, symName: __ZNSt3__121__murmur2_or_cityhashImLm64EE19__hash_len_17_to_32B8ne200100EPKcm, symObjAddr: 0x43BC, symBinAddr: 0xAFC8, symSize: 0xAC }
  - { offset: 0xBB871, size: 0x8, addend: 0x0, symName: __ZNSt3__120__shared_ptr_emplaceIKNS_12basic_stringIcNS_11char_traitsIcEENS_9allocatorIcEEEENS4_IS6_EEEC2B8ne200100IJRS7_ES8_Li0EEES8_DpOT_, symObjAddr: 0x45F0, symBinAddr: 0xB1FC, symSize: 0x74 }
  - { offset: 0xBBA70, size: 0x8, addend: 0x0, symName: __ZNSt3__120__shared_ptr_emplaceIKNS_12basic_stringIcNS_11char_traitsIcEENS_9allocatorIcEEEENS4_IS6_EEED1Ev, symObjAddr: 0x4664, symBinAddr: 0xB270, symSize: 0x14 }
  - { offset: 0xBBA92, size: 0x8, addend: 0x0, symName: __ZNSt3__120__shared_ptr_emplaceIKNS_12basic_stringIcNS_11char_traitsIcEENS_9allocatorIcEEEENS4_IS6_EEED1Ev, symObjAddr: 0x4664, symBinAddr: 0xB270, symSize: 0x14 }
  - { offset: 0xBBAC6, size: 0x8, addend: 0x0, symName: __ZNSt3__120__shared_ptr_emplaceIKNS_12basic_stringIcNS_11char_traitsIcEENS_9allocatorIcEEEENS4_IS6_EEED0Ev, symObjAddr: 0x4678, symBinAddr: 0xB284, symSize: 0x24 }
  - { offset: 0xBBB93, size: 0x8, addend: 0x0, symName: __ZNSt3__120__shared_ptr_emplaceIKNS_12basic_stringIcNS_11char_traitsIcEENS_9allocatorIcEEEENS4_IS6_EEE16__on_zero_sharedEv, symObjAddr: 0x469C, symBinAddr: 0xB2A8, symSize: 0x14 }
  - { offset: 0xBBC30, size: 0x8, addend: 0x0, symName: __ZNSt3__120__shared_ptr_emplaceIKNS_12basic_stringIcNS_11char_traitsIcEENS_9allocatorIcEEEENS4_IS6_EEE16__on_zero_sharedEv, symObjAddr: 0x469C, symBinAddr: 0xB2A8, symSize: 0x14 }
  - { offset: 0xBBCEA, size: 0x8, addend: 0x0, symName: __ZNSt3__120__shared_ptr_emplaceIKNS_12basic_stringIcNS_11char_traitsIcEENS_9allocatorIcEEEENS4_IS6_EEE21__on_zero_shared_weakEv, symObjAddr: 0x46B0, symBinAddr: 0xB2BC, symSize: 0x4 }
  - { offset: 0xBBD1D, size: 0x8, addend: 0x0, symName: __ZNSt3__120__shared_ptr_emplaceIKNS_12basic_stringIcNS_11char_traitsIcEENS_9allocatorIcEEEENS4_IS6_EEE21__on_zero_shared_weakEv, symObjAddr: 0x46B0, symBinAddr: 0xB2BC, symSize: 0x4 }
  - { offset: 0xBBD3F, size: 0x8, addend: 0x0, symName: __ZNSt3__120__shared_ptr_emplaceIKNS_12basic_stringIcNS_11char_traitsIcEENS_9allocatorIcEEEENS4_IS6_EEE21__on_zero_shared_weakEv, symObjAddr: 0x46B0, symBinAddr: 0xB2BC, symSize: 0x4 }
  - { offset: 0xBBD62, size: 0x8, addend: 0x0, symName: __ZNSt3__120__shared_ptr_emplaceIKNS_12basic_stringIcNS_11char_traitsIcEENS_9allocatorIcEEEENS4_IS6_EEE21__on_zero_shared_weakEv, symObjAddr: 0x46B0, symBinAddr: 0xB2BC, symSize: 0x4 }
  - { offset: 0xBBD97, size: 0x8, addend: 0x0, symName: __ZNSt3__120__shared_ptr_emplaceIKNS_12basic_stringIcNS_11char_traitsIcEENS_9allocatorIcEEEENS4_IS6_EEE21__on_zero_shared_weakEv, symObjAddr: 0x46B0, symBinAddr: 0xB2BC, symSize: 0x4 }
  - { offset: 0xBC2D1, size: 0x8, addend: 0x0, symName: __ZNSt3__112__hash_tableINS_17__hash_value_typeIx31RCTComponentViewClassDescriptorEENS_22__unordered_map_hasherIxS3_NS_4hashIxEENS_8equal_toIxEELb1EEENS_21__unordered_map_equalIxS3_S8_S6_Lb1EEENS_9allocatorIS3_EEE8__rehashILb1EEEvm, symObjAddr: 0x4934, symBinAddr: 0xB4E8, symSize: 0xDC }
  - { offset: 0xBC3CA, size: 0x8, addend: 0x0, symName: __ZNSt3__112__hash_tableINS_17__hash_value_typeIx31RCTComponentViewClassDescriptorEENS_22__unordered_map_hasherIxS3_NS_4hashIxEENS_8equal_toIxEELb1EEENS_21__unordered_map_equalIxS3_S8_S6_Lb1EEENS_9allocatorIS3_EEE11__do_rehashILb1EEEvm, symObjAddr: 0x4A10, symBinAddr: 0xB5C4, symSize: 0x150 }
  - { offset: 0xBC7E0, size: 0x8, addend: 0x0, symName: __ZNSt3__112__hash_tableINS_17__hash_value_typeINS_12basic_stringIcNS_11char_traitsIcEENS_9allocatorIcEEEEbEENS_22__unordered_map_hasherIS7_S8_NS_4hashIS7_EENS_8equal_toIS7_EELb1EEENS_21__unordered_map_equalIS7_S8_SD_SB_Lb1EEENS5_IS8_EEE25__emplace_unique_key_argsIS7_JNS_4pairIKS7_bEEEEENSK_INS_15__hash_iteratorIPNS_11__hash_nodeIS8_PvEEEEbEERKT_DpOT0_, symObjAddr: 0x4B60, symBinAddr: 0xB714, symSize: 0x25C }
  - { offset: 0xBC9B4, size: 0x8, addend: 0x0, symName: __ZNSt3__112__hash_tableINS_17__hash_value_typeINS_12basic_stringIcNS_11char_traitsIcEENS_9allocatorIcEEEEbEENS_22__unordered_map_hasherIS7_S8_NS_4hashIS7_EENS_8equal_toIS7_EELb1EEENS_21__unordered_map_equalIS7_S8_SD_SB_Lb1EEENS5_IS8_EEE21__construct_node_hashINS_4pairIKS7_bEEJEEENS_10unique_ptrINS_11__hash_nodeIS8_PvEENS_22__hash_node_destructorINS5_ISQ_EEEEEEmOT_DpOT0_, symObjAddr: 0x4DBC, symBinAddr: 0xB970, symSize: 0xAC }
  - { offset: 0xBCE1B, size: 0x8, addend: 0x0, symName: __ZNSt3__122__hash_node_destructorINS_9allocatorINS_11__hash_nodeINS_17__hash_value_typeINS_12basic_stringIcNS_11char_traitsIcEENS1_IcEEEEbEEPvEEEEEclB8ne200100EPSB_, symObjAddr: 0x5094, symBinAddr: 0xBA1C, symSize: 0x50 }
  - { offset: 0xBD50E, size: 0x8, addend: 0x0, symName: __ZNSt3__122__hash_node_destructorINS_9allocatorINS_11__hash_nodeINS_17__hash_value_typeINS_12basic_stringIcNS_11char_traitsIcEENS1_IcEEEEbEEPvEEEEEclB8ne200100EPSB_, symObjAddr: 0x5094, symBinAddr: 0xBA1C, symSize: 0x50 }
  - { offset: 0xBD7AE, size: 0x8, addend: 0x0, symName: __ZNSt3__112__hash_tableINS_17__hash_value_typeINS_12basic_stringIcNS_11char_traitsIcEENS_9allocatorIcEEEEbEENS_22__unordered_map_hasherIS7_S8_NS_4hashIS7_EENS_8equal_toIS7_EELb1EEENS_21__unordered_map_equalIS7_S8_SD_SB_Lb1EEENS5_IS8_EEE17__deallocate_nodeEPNS_16__hash_node_baseIPNS_11__hash_nodeIS8_PvEEEE, symObjAddr: 0x5250, symBinAddr: 0xBBD8, symSize: 0x44 }
  - { offset: 0xBDAC1, size: 0x8, addend: 0x0, symName: __GLOBAL__sub_I_RCTComponentViewFactory.mm, symObjAddr: 0x5808, symBinAddr: 0xBC1C, symSize: 0x20 }
  - { offset: 0xC0014, size: 0x8, addend: 0x0, symName: __ZN8facebook5react17HostPlatformColorL14UndefinedColorE, symObjAddr: 0x58C38, symBinAddr: 0x9FCE0, symSize: 0x0 }
  - { offset: 0xC6473, size: 0x8, addend: 0x0, symName: __ZNSt3__119__allocate_at_leastB8ne200100INS_9allocatorI26RCTComponentViewDescriptorEEEENS_19__allocation_resultINS_16allocator_traitsIT_E7pointerEEERS6_m, symObjAddr: 0x6B0, symBinAddr: 0xC278, symSize: 0x34 }
  - { offset: 0xC862E, size: 0x8, addend: 0x0, symName: '-[RCTComponentViewRegistry init]', symObjAddr: 0x0, symBinAddr: 0xBC3C, symSize: 0xD0 }
  - { offset: 0xC87F6, size: 0x8, addend: 0x0, symName: '-[RCTComponentViewRegistry dequeueComponentViewWithComponentHandle:tag:]', symObjAddr: 0xD0, symBinAddr: 0xBD0C, symSize: 0xA4 }
  - { offset: 0xC8A79, size: 0x8, addend: 0x0, symName: __ZNSt3__112__hash_tableINS_17__hash_value_typeIi26RCTComponentViewDescriptorEENS_22__unordered_map_hasherIiS3_NS_4hashIiEENS_8equal_toIiEELb1EEENS_21__unordered_map_equalIiS3_S8_S6_Lb1EEENS_9allocatorIS3_EEE25__emplace_unique_key_argsIiJNS_4pairIKiS2_EEEEENSG_INS_15__hash_iteratorIPNS_11__hash_nodeIS3_PvEEEEbEERKT_DpOT0_, symObjAddr: 0x75C, symBinAddr: 0xC2FC, symSize: 0x268 }
  - { offset: 0xC9258, size: 0x8, addend: 0x0, symName: '-[RCTComponentViewRegistry enqueueComponentViewWithComponentHandle:tag:componentViewDescriptor:]', symObjAddr: 0x174, symBinAddr: 0xBDB0, symSize: 0x98 }
  - { offset: 0xC9382, size: 0x8, addend: 0x0, symName: __ZNSt3__112__hash_tableINS_17__hash_value_typeIi26RCTComponentViewDescriptorEENS_22__unordered_map_hasherIiS3_NS_4hashIiEENS_8equal_toIiEELb1EEENS_21__unordered_map_equalIiS3_S8_S6_Lb1EEENS_9allocatorIS3_EEE14__erase_uniqueIiEEmRKT_, symObjAddr: 0xC38, symBinAddr: 0xC5AC, symSize: 0x4C }
  - { offset: 0xC94B3, size: 0x8, addend: 0x0, symName: '-[RCTComponentViewRegistry componentViewDescriptorWithTag:]', symObjAddr: 0x20C, symBinAddr: 0xBE48, symSize: 0x2C }
  - { offset: 0xC953A, size: 0x8, addend: 0x0, symName: __ZNSt3__112__hash_tableINS_17__hash_value_typeIi26RCTComponentViewDescriptorEENS_22__unordered_map_hasherIiS3_NS_4hashIiEENS_8equal_toIiEELb1EEENS_21__unordered_map_equalIiS3_S8_S6_Lb1EEENS_9allocatorIS3_EEE4findIiEENS_15__hash_iteratorIPNS_11__hash_nodeIS3_PvEEEERKT_, symObjAddr: 0xC84, symBinAddr: 0xC5F8, symSize: 0xB4 }
  - { offset: 0xC9593, size: 0x8, addend: 0x0, symName: __ZNSt3__112__hash_tableINS_17__hash_value_typeIi26RCTComponentViewDescriptorEENS_22__unordered_map_hasherIiS3_NS_4hashIiEENS_8equal_toIiEELb1EEENS_21__unordered_map_equalIiS3_S8_S6_Lb1EEENS_9allocatorIS3_EEE4findIiEENS_15__hash_iteratorIPNS_11__hash_nodeIS3_PvEEEERKT_, symObjAddr: 0xC84, symBinAddr: 0xC5F8, symSize: 0xB4 }
  - { offset: 0xC95AF, size: 0x8, addend: 0x0, symName: __ZNSt3__112__hash_tableINS_17__hash_value_typeIi26RCTComponentViewDescriptorEENS_22__unordered_map_hasherIiS3_NS_4hashIiEENS_8equal_toIiEELb1EEENS_21__unordered_map_equalIiS3_S8_S6_Lb1EEENS_9allocatorIS3_EEE4findIiEENS_15__hash_iteratorIPNS_11__hash_nodeIS3_PvEEEERKT_, symObjAddr: 0xC84, symBinAddr: 0xC5F8, symSize: 0xB4 }
  - { offset: 0xC96CA, size: 0x8, addend: 0x0, symName: '-[RCTComponentViewRegistry findComponentViewWithTag:]', symObjAddr: 0x238, symBinAddr: 0xBE74, symSize: 0x34 }
  - { offset: 0xC9832, size: 0x8, addend: 0x0, symName: '-[RCTComponentViewRegistry _dequeueComponentViewWithComponentHandle:]', symObjAddr: 0x26C, symBinAddr: 0xBEA8, symSize: 0xCC }
  - { offset: 0xC9A36, size: 0x8, addend: 0x0, symName: __ZNSt3__112__hash_tableINS_17__hash_value_typeIxNS_6vectorI26RCTComponentViewDescriptorNS_9allocatorIS3_EEEEEENS_22__unordered_map_hasherIxS7_NS_4hashIxEENS_8equal_toIxEELb1EEENS_21__unordered_map_equalIxS7_SC_SA_Lb1EEENS4_IS7_EEE25__emplace_unique_key_argsIxJRKNS_21piecewise_construct_tENS_5tupleIJRKxEEENSM_IJEEEEEENS_4pairINS_15__hash_iteratorIPNS_11__hash_nodeIS7_PvEEEEbEERKT_DpOT0_, symObjAddr: 0xE74, symBinAddr: 0xC7E8, symSize: 0x23C }
  - { offset: 0xCA152, size: 0x8, addend: 0x0, symName: '-[RCTComponentViewRegistry _enqueueComponentViewWithComponentHandle:componentViewDescriptor:]', symObjAddr: 0x338, symBinAddr: 0xBF74, symSize: 0xA8 }
  - { offset: 0xCA2C2, size: 0x8, addend: 0x0, symName: __ZNSt3__16vectorI26RCTComponentViewDescriptorNS_9allocatorIS1_EEE12emplace_backIJRKS1_EEERS1_DpOT_, symObjAddr: 0x444, symBinAddr: 0xC080, symSize: 0x120 }
  - { offset: 0xCA6C1, size: 0x8, addend: 0x0, symName: '-[RCTComponentViewRegistry handleApplicationDidReceiveMemoryWarningNotification]', symObjAddr: 0x3E0, symBinAddr: 0xC01C, symSize: 0x8 }
  - { offset: 0xCA715, size: 0x8, addend: 0x0, symName: __ZNSt3__112__hash_tableINS_17__hash_value_typeIxNS_6vectorI26RCTComponentViewDescriptorNS_9allocatorIS3_EEEEEENS_22__unordered_map_hasherIxS7_NS_4hashIxEENS_8equal_toIxEELb1EEENS_21__unordered_map_equalIxS7_SC_SA_Lb1EEENS4_IS7_EEE5clearEv, symObjAddr: 0x1394, symBinAddr: 0xCADC, symSize: 0x54 }
  - { offset: 0xCA7EB, size: 0x8, addend: 0x0, symName: '-[RCTComponentViewRegistry componentViewFactory]', symObjAddr: 0x3E8, symBinAddr: 0xC024, symSize: 0x8 }
  - { offset: 0xCA8BB, size: 0x8, addend: 0x0, symName: '-[RCTComponentViewRegistry .cxx_destruct]', symObjAddr: 0x3F0, symBinAddr: 0xC02C, symSize: 0x34 }
  - { offset: 0xCA991, size: 0x8, addend: 0x0, symName: __ZNSt3__112__hash_tableINS_17__hash_value_typeIxNS_6vectorI26RCTComponentViewDescriptorNS_9allocatorIS3_EEEEEENS_22__unordered_map_hasherIxS7_NS_4hashIxEENS_8equal_toIxEELb1EEENS_21__unordered_map_equalIxS7_SC_SA_Lb1EEENS4_IS7_EEED2Ev, symObjAddr: 0x14A8, symBinAddr: 0xCBF0, symSize: 0x38 }
  - { offset: 0xCAAEB, size: 0x8, addend: 0x0, symName: __ZNSt3__112__hash_tableINS_17__hash_value_typeIi26RCTComponentViewDescriptorEENS_22__unordered_map_hasherIiS3_NS_4hashIiEENS_8equal_toIiEELb1EEENS_21__unordered_map_equalIiS3_S8_S6_Lb1EEENS_9allocatorIS3_EEED2Ev, symObjAddr: 0x1434, symBinAddr: 0xCB7C, symSize: 0x38 }
  - { offset: 0xCAD71, size: 0x8, addend: 0x0, symName: '-[RCTComponentViewRegistry .cxx_construct]', symObjAddr: 0x424, symBinAddr: 0xC060, symSize: 0x20 }
  - { offset: 0xCADA7, size: 0x8, addend: 0x0, symName: '-[RCTComponentViewRegistry .cxx_construct]', symObjAddr: 0x424, symBinAddr: 0xC060, symSize: 0x20 }
  - { offset: 0xCADC4, size: 0x8, addend: 0x0, symName: '-[RCTComponentViewRegistry .cxx_construct]', symObjAddr: 0x424, symBinAddr: 0xC060, symSize: 0x20 }
  - { offset: 0xCADE2, size: 0x8, addend: 0x0, symName: '-[RCTComponentViewRegistry .cxx_construct]', symObjAddr: 0x424, symBinAddr: 0xC060, symSize: 0x20 }
  - { offset: 0xCAE00, size: 0x8, addend: 0x0, symName: '-[RCTComponentViewRegistry .cxx_construct]', symObjAddr: 0x424, symBinAddr: 0xC060, symSize: 0x20 }
  - { offset: 0xCAE1E, size: 0x8, addend: 0x0, symName: '-[RCTComponentViewRegistry .cxx_construct]', symObjAddr: 0x424, symBinAddr: 0xC060, symSize: 0x20 }
  - { offset: 0xCAE3E, size: 0x8, addend: 0x0, symName: '-[RCTComponentViewRegistry .cxx_construct]', symObjAddr: 0x424, symBinAddr: 0xC060, symSize: 0x20 }
  - { offset: 0xCB114, size: 0x8, addend: 0x0, symName: __ZNSt3__16vectorI26RCTComponentViewDescriptorNS_9allocatorIS1_EEE26__swap_out_circular_bufferERNS_14__split_bufferIS1_RS3_EE, symObjAddr: 0x564, symBinAddr: 0xC1A0, symSize: 0xC4 }
  - { offset: 0xCB3AA, size: 0x8, addend: 0x0, symName: __ZNSt3__114__split_bufferI26RCTComponentViewDescriptorRNS_9allocatorIS1_EEED2Ev, symObjAddr: 0x70C, symBinAddr: 0xC2AC, symSize: 0x50 }
  - { offset: 0xCB506, size: 0x8, addend: 0x0, symName: __ZNSt3__16vectorI26RCTComponentViewDescriptorNS_9allocatorIS1_EEE20__throw_length_errorB8ne200100Ev, symObjAddr: 0x628, symBinAddr: 0xC264, symSize: 0x14 }
  - { offset: 0xCBB85, size: 0x8, addend: 0x0, symName: __ZNSt3__110unique_ptrINS_11__hash_nodeINS_17__hash_value_typeIi26RCTComponentViewDescriptorEEPvEENS_22__hash_node_destructorINS_9allocatorIS6_EEEEE5resetB8ne200100EPS6_, symObjAddr: 0xBF0, symBinAddr: 0xC564, symSize: 0x48 }
  - { offset: 0xCBFD9, size: 0x8, addend: 0x0, symName: __ZNSt3__110unique_ptrINS_11__hash_nodeINS_17__hash_value_typeIi26RCTComponentViewDescriptorEEPvEENS_22__hash_node_destructorINS_9allocatorIS6_EEEEE5resetB8ne200100EPS6_, symObjAddr: 0xBF0, symBinAddr: 0xC564, symSize: 0x48 }
  - { offset: 0xCC1DD, size: 0x8, addend: 0x0, symName: __ZNSt3__112__hash_tableINS_17__hash_value_typeIi26RCTComponentViewDescriptorEENS_22__unordered_map_hasherIiS3_NS_4hashIiEENS_8equal_toIiEELb1EEENS_21__unordered_map_equalIiS3_S8_S6_Lb1EEENS_9allocatorIS3_EEE6removeENS_21__hash_const_iteratorIPNS_11__hash_nodeIS3_PvEEEE, symObjAddr: 0xD38, symBinAddr: 0xC6AC, symSize: 0x13C }
  - { offset: 0xCC257, size: 0x8, addend: 0x0, symName: __ZNSt3__112__hash_tableINS_17__hash_value_typeIi26RCTComponentViewDescriptorEENS_22__unordered_map_hasherIiS3_NS_4hashIiEENS_8equal_toIiEELb1EEENS_21__unordered_map_equalIiS3_S8_S6_Lb1EEENS_9allocatorIS3_EEE6removeENS_21__hash_const_iteratorIPNS_11__hash_nodeIS3_PvEEEE, symObjAddr: 0xD38, symBinAddr: 0xC6AC, symSize: 0x13C }
  - { offset: 0xCC273, size: 0x8, addend: 0x0, symName: __ZNSt3__112__hash_tableINS_17__hash_value_typeIi26RCTComponentViewDescriptorEENS_22__unordered_map_hasherIiS3_NS_4hashIiEENS_8equal_toIiEELb1EEENS_21__unordered_map_equalIiS3_S8_S6_Lb1EEENS_9allocatorIS3_EEE6removeENS_21__hash_const_iteratorIPNS_11__hash_nodeIS3_PvEEEE, symObjAddr: 0xD38, symBinAddr: 0xC6AC, symSize: 0x13C }
  - { offset: 0xCCA2F, size: 0x8, addend: 0x0, symName: __ZNSt3__122__hash_node_destructorINS_9allocatorINS_11__hash_nodeINS_17__hash_value_typeIxNS_6vectorI26RCTComponentViewDescriptorNS1_IS5_EEEEEEPvEEEEEclB8ne200100EPSA_, symObjAddr: 0x12DC, symBinAddr: 0xCA24, symSize: 0x4C }
  - { offset: 0xCCE99, size: 0x8, addend: 0x0, symName: __ZNSt3__122__hash_node_destructorINS_9allocatorINS_11__hash_nodeINS_17__hash_value_typeIxNS_6vectorI26RCTComponentViewDescriptorNS1_IS5_EEEEEEPvEEEEEclB8ne200100EPSA_, symObjAddr: 0x12DC, symBinAddr: 0xCA24, symSize: 0x4C }
  - { offset: 0xCD0EE, size: 0x8, addend: 0x0, symName: __ZNSt3__16vectorI26RCTComponentViewDescriptorNS_9allocatorIS1_EEE16__destroy_vectorclB8ne200100Ev, symObjAddr: 0x1328, symBinAddr: 0xCA70, symSize: 0x6C }
  - { offset: 0xCD29B, size: 0x8, addend: 0x0, symName: __ZNSt3__112__hash_tableINS_17__hash_value_typeIxNS_6vectorI26RCTComponentViewDescriptorNS_9allocatorIS3_EEEEEENS_22__unordered_map_hasherIxS7_NS_4hashIxEENS_8equal_toIxEELb1EEENS_21__unordered_map_equalIxS7_SC_SA_Lb1EEENS4_IS7_EEE17__deallocate_nodeEPNS_16__hash_node_baseIPNS_11__hash_nodeIS7_PvEEEE, symObjAddr: 0x13E8, symBinAddr: 0xCB30, symSize: 0x4C }
  - { offset: 0xCD517, size: 0x8, addend: 0x0, symName: __ZNSt3__112__hash_tableINS_17__hash_value_typeIi26RCTComponentViewDescriptorEENS_22__unordered_map_hasherIiS3_NS_4hashIiEENS_8equal_toIiEELb1EEENS_21__unordered_map_equalIiS3_S8_S6_Lb1EEENS_9allocatorIS3_EEE17__deallocate_nodeEPNS_16__hash_node_baseIPNS_11__hash_nodeIS3_PvEEEE, symObjAddr: 0x146C, symBinAddr: 0xCBB4, symSize: 0x3C }
  - { offset: 0xCD7BE, size: 0x8, addend: 0x0, symName: __GLOBAL__sub_I_RCTComponentViewRegistry.mm, symObjAddr: 0x15AC, symBinAddr: 0xCC28, symSize: 0x20 }
  - { offset: 0xCF8DA, size: 0x8, addend: 0x0, symName: __ZN8facebook5react17HostPlatformColorL14UndefinedColorE, symObjAddr: 0x16ACB0, symBinAddr: 0x9FCF8, symSize: 0x0 }
  - { offset: 0xD2C53, size: 0x8, addend: 0x0, symName: __ZN8facebook5react38concreteComponentDescriptorConstructorINS0_27ConcreteComponentDescriptorINS0_22ConcreteViewShadowNodeIXadL_ZNS0_29DebuggingOverlayComponentNameEEENS0_21DebuggingOverlayPropsENS0_28DebuggingOverlayEventEmitterENS0_9StateDataEEEEEEENSt3__110unique_ptrIKNS0_19ComponentDescriptorENS9_14default_deleteISC_EEEERKNS0_29ComponentDescriptorParametersE, symObjAddr: 0x11C8, symBinAddr: 0xD08C, symSize: 0x34 }
  - { offset: 0xEF272, size: 0x8, addend: 0x0, symName: __ZNSt3__115allocate_sharedB8ne200100IKN8facebook5react21DebuggingOverlayPropsENS_9allocatorIS3_EEJELi0EEENS_10shared_ptrIT_EERKT0_DpOT1_, symObjAddr: 0x380, symBinAddr: 0xCF50, symSize: 0x48 }
  - { offset: 0xF03B7, size: 0x8, addend: 0x0, symName: __ZNSt3__111make_uniqueB8ne200100IKN8facebook5react27ConcreteComponentDescriptorINS2_22ConcreteViewShadowNodeIXadL_ZNS2_29DebuggingOverlayComponentNameEEENS2_21DebuggingOverlayPropsENS2_28DebuggingOverlayEventEmitterENS2_9StateDataEEEEEJRKNS2_29ComponentDescriptorParametersEELi0EEENS_10unique_ptrIT_NS_14default_deleteISF_EEEEDpOT0_, symObjAddr: 0x11FC, symBinAddr: 0xD0C0, symSize: 0xD4 }
  - { offset: 0xF0CEA, size: 0x8, addend: 0x0, symName: __ZNSt3__115allocate_sharedB8ne200100IN8facebook5react22ConcreteViewShadowNodeIXadL_ZNS2_29DebuggingOverlayComponentNameEEENS2_21DebuggingOverlayPropsENS2_28DebuggingOverlayEventEmitterENS2_9StateDataEEENS_9allocatorIS7_EEJRKNS2_18ShadowNodeFragmentERKNS_10shared_ptrIKNS2_16ShadowNodeFamilyEEENS2_16ShadowNodeTraitsEELi0EEENSD_IT_EERKT0_DpOT1_, symObjAddr: 0x1D14, symBinAddr: 0xD8D0, symSize: 0x70 }
  - { offset: 0xF100D, size: 0x8, addend: 0x0, symName: __ZNSt3__115allocate_sharedB8ne200100IN8facebook5react22ConcreteViewShadowNodeIXadL_ZNS2_29DebuggingOverlayComponentNameEEENS2_21DebuggingOverlayPropsENS2_28DebuggingOverlayEventEmitterENS2_9StateDataEEENS_9allocatorIS7_EEJRKNS2_10ShadowNodeERKNS2_18ShadowNodeFragmentEELi0EEENS_10shared_ptrIT_EERKT0_DpOT1_, symObjAddr: 0x22D0, symBinAddr: 0xDB44, symSize: 0x60 }
  - { offset: 0xF177D, size: 0x8, addend: 0x0, symName: __ZNSt3__115allocate_sharedB8ne200100IKN8facebook5react28DebuggingOverlayEventEmitterENS_9allocatorIS3_EEJNS_10shared_ptrINS2_11EventTargetEEERKNS_8weak_ptrIKNS2_15EventDispatcherEEEELi0EEENS7_IT_EERKT0_DpOT1_, symObjAddr: 0x27AC, symBinAddr: 0xDD6C, symSize: 0x60 }
  - { offset: 0xF1A2C, size: 0x8, addend: 0x0, symName: __ZNSt3__115allocate_sharedB8ne200100IN8facebook5react16ShadowNodeFamilyENS_9allocatorIS3_EEJRKNS2_24ShadowNodeFamilyFragmentERNS_10shared_ptrIKNS2_28DebuggingOverlayEventEmitterEEERKNS_8weak_ptrIKNS2_15EventDispatcherEEERKNS2_27ConcreteComponentDescriptorINS2_22ConcreteViewShadowNodeIXadL_ZNS2_29DebuggingOverlayComponentNameEEENS2_21DebuggingOverlayPropsESA_NS2_9StateDataEEEEEELi0EEENS9_IT_EERKT0_DpOT1_, symObjAddr: 0x2E78, symBinAddr: 0xE00C, symSize: 0x78 }
  - { offset: 0xF27E0, size: 0x8, addend: 0x0, symName: __ZNSt3__115allocate_sharedB8ne200100IN8facebook5react21DebuggingOverlayPropsENS_9allocatorIS3_EEJRKNS2_18PropsParserContextERKS3_RKNS2_8RawPropsEELi0EEENS_10shared_ptrIT_EERKT0_DpOT1_, symObjAddr: 0x2444, symBinAddr: 0xDC60, symSize: 0x70 }
  - { offset: 0xF3496, size: 0x8, addend: 0x0, symName: __ZNSt3__112construct_atB8ne200100IN8facebook5react28DebuggingOverlayEventEmitterEJNS_10shared_ptrINS2_11EventTargetEEERKNS_8weak_ptrIKNS2_15EventDispatcherEEEEPS3_EEPT_SF_DpOT0_, symObjAddr: 0x28A0, symBinAddr: 0xDE60, symSize: 0x140 }
  - { offset: 0xF4100, size: 0x8, addend: 0x0, symName: __ZNSt3__112construct_atB8ne200100IN8facebook5react16ShadowNodeFamilyEJRKNS2_24ShadowNodeFamilyFragmentERNS_10shared_ptrIKNS2_28DebuggingOverlayEventEmitterEEERKNS_8weak_ptrIKNS2_15EventDispatcherEEERKNS2_27ConcreteComponentDescriptorINS2_22ConcreteViewShadowNodeIXadL_ZNS2_29DebuggingOverlayComponentNameEEENS2_21DebuggingOverlayPropsES8_NS2_9StateDataEEEEEEPS3_EEPT_SS_DpOT0_, symObjAddr: 0x2F80, symBinAddr: 0xE0D0, symSize: 0xDC }
  - { offset: 0xF8D88, size: 0x8, addend: 0x0, symName: __ZN8facebook5react18ConcreteShadowNodeIXadL_ZNS0_29DebuggingOverlayComponentNameEEENS0_24YogaLayoutableShadowNodeENS0_21DebuggingOverlayPropsENS0_28DebuggingOverlayEventEmitterENS0_9StateDataEE18defaultSharedPropsEv, symObjAddr: 0xD4, symBinAddr: 0xCD1C, symSize: 0x9C }
  - { offset: 0xF8DA8, size: 0x8, addend: 0x0, symName: __ZZN8facebook5react18ConcreteShadowNodeIXadL_ZNS0_29DebuggingOverlayComponentNameEEENS0_24YogaLayoutableShadowNodeENS0_21DebuggingOverlayPropsENS0_28DebuggingOverlayEventEmitterENS0_9StateDataEE18defaultSharedPropsEvE18defaultSharedProps, symObjAddr: 0x3E78, symBinAddr: 0x9F290, symSize: 0x0 }
  - { offset: 0xF9483, size: 0x8, addend: 0x0, symName: '-[RCTDebuggingOverlayComponentView initWithFrame:]', symObjAddr: 0x0, symBinAddr: 0xCC48, symSize: 0xD4 }
  - { offset: 0xF9781, size: 0x8, addend: 0x0, symName: '+[RCTDebuggingOverlayComponentView componentDescriptorProvider]', symObjAddr: 0x1E8, symBinAddr: 0xCDB8, symSize: 0x20 }
  - { offset: 0xF97B4, size: 0x8, addend: 0x0, symName: '+[RCTDebuggingOverlayComponentView componentDescriptorProvider]', symObjAddr: 0x1E8, symBinAddr: 0xCDB8, symSize: 0x20 }
  - { offset: 0xF9814, size: 0x8, addend: 0x0, symName: '-[RCTDebuggingOverlayComponentView handleCommand:args:]', symObjAddr: 0x208, symBinAddr: 0xCDD8, symSize: 0xC }
  - { offset: 0xF9886, size: 0x8, addend: 0x0, symName: _RCTDebuggingOverlayHandleCommand, symObjAddr: 0x214, symBinAddr: 0xCDE4, symSize: 0x118 }
  - { offset: 0xF9933, size: 0x8, addend: 0x0, symName: '-[RCTDebuggingOverlayComponentView highlightTraceUpdates:]', symObjAddr: 0x32C, symBinAddr: 0xCEFC, symSize: 0x10 }
  - { offset: 0xF9972, size: 0x8, addend: 0x0, symName: '-[RCTDebuggingOverlayComponentView highlightElements:]', symObjAddr: 0x33C, symBinAddr: 0xCF0C, symSize: 0x10 }
  - { offset: 0xF99B1, size: 0x8, addend: 0x0, symName: '-[RCTDebuggingOverlayComponentView clearElementsHighlights]', symObjAddr: 0x34C, symBinAddr: 0xCF1C, symSize: 0x10 }
  - { offset: 0xF99E2, size: 0x8, addend: 0x0, symName: '-[RCTDebuggingOverlayComponentView .cxx_destruct]', symObjAddr: 0x35C, symBinAddr: 0xCF2C, symSize: 0x14 }
  - { offset: 0xF9A13, size: 0x8, addend: 0x0, symName: _RCTDebuggingOverlayCls, symObjAddr: 0x370, symBinAddr: 0xCF40, symSize: 0xC }
  - { offset: 0xF9A2D, size: 0x8, addend: 0x0, symName: __ZNSt3__110shared_ptrIKN8facebook5react21DebuggingOverlayPropsEED1B8ne200100Ev, symObjAddr: 0x37C, symBinAddr: 0xCF4C, symSize: 0x4 }
  - { offset: 0xF9A59, size: 0x8, addend: 0x0, symName: __ZNSt3__110shared_ptrIKN8facebook5react21DebuggingOverlayPropsEED1B8ne200100Ev, symObjAddr: 0x37C, symBinAddr: 0xCF4C, symSize: 0x4 }
  - { offset: 0xF9CE1, size: 0x8, addend: 0x0, symName: __ZNSt3__120__shared_ptr_emplaceIKN8facebook5react21DebuggingOverlayPropsENS_9allocatorIS3_EEEC2B8ne200100IJES6_Li0EEES6_DpOT_, symObjAddr: 0x3C8, symBinAddr: 0xCF98, symSize: 0x74 }
  - { offset: 0xFB308, size: 0x8, addend: 0x0, symName: __ZNSt3__120__shared_ptr_emplaceIKN8facebook5react21DebuggingOverlayPropsENS_9allocatorIS3_EEED1Ev, symObjAddr: 0x43C, symBinAddr: 0xD00C, symSize: 0x14 }
  - { offset: 0xFB32A, size: 0x8, addend: 0x0, symName: __ZNSt3__120__shared_ptr_emplaceIKN8facebook5react21DebuggingOverlayPropsENS_9allocatorIS3_EEED1Ev, symObjAddr: 0x43C, symBinAddr: 0xD00C, symSize: 0x14 }
  - { offset: 0xFB35E, size: 0x8, addend: 0x0, symName: __ZNSt3__120__shared_ptr_emplaceIKN8facebook5react21DebuggingOverlayPropsENS_9allocatorIS3_EEED0Ev, symObjAddr: 0x450, symBinAddr: 0xD020, symSize: 0x24 }
  - { offset: 0xFB46A, size: 0x8, addend: 0x0, symName: __ZNSt3__120__shared_ptr_emplaceIKN8facebook5react21DebuggingOverlayPropsENS_9allocatorIS3_EEE16__on_zero_sharedEv, symObjAddr: 0x474, symBinAddr: 0xD044, symSize: 0x14 }
  - { offset: 0xFB492, size: 0x8, addend: 0x0, symName: __ZNSt3__120__shared_ptr_emplaceIKN8facebook5react21DebuggingOverlayPropsENS_9allocatorIS3_EEE16__on_zero_sharedEv, symObjAddr: 0x474, symBinAddr: 0xD044, symSize: 0x14 }
  - { offset: 0xFB9A5, size: 0x8, addend: 0x0, symName: __ZNSt3__120__shared_ptr_emplaceIKN8facebook5react21DebuggingOverlayPropsENS_9allocatorIS3_EEE21__on_zero_shared_weakEv, symObjAddr: 0x488, symBinAddr: 0xD058, symSize: 0x4 }
  - { offset: 0xFB9D8, size: 0x8, addend: 0x0, symName: __ZNSt3__120__shared_ptr_emplaceIKN8facebook5react21DebuggingOverlayPropsENS_9allocatorIS3_EEE21__on_zero_shared_weakEv, symObjAddr: 0x488, symBinAddr: 0xD058, symSize: 0x4 }
  - { offset: 0xFB9FA, size: 0x8, addend: 0x0, symName: __ZNSt3__120__shared_ptr_emplaceIKN8facebook5react21DebuggingOverlayPropsENS_9allocatorIS3_EEE21__on_zero_shared_weakEv, symObjAddr: 0x488, symBinAddr: 0xD058, symSize: 0x4 }
  - { offset: 0xFBA1D, size: 0x8, addend: 0x0, symName: __ZNSt3__120__shared_ptr_emplaceIKN8facebook5react21DebuggingOverlayPropsENS_9allocatorIS3_EEE21__on_zero_shared_weakEv, symObjAddr: 0x488, symBinAddr: 0xD058, symSize: 0x4 }
  - { offset: 0xFBA54, size: 0x8, addend: 0x0, symName: __ZNSt3__120__shared_ptr_emplaceIKN8facebook5react21DebuggingOverlayPropsENS_9allocatorIS3_EEE21__on_zero_shared_weakEv, symObjAddr: 0x488, symBinAddr: 0xD058, symSize: 0x4 }
  - { offset: 0xFCBA7, size: 0x8, addend: 0x0, symName: __ZN8facebook5react21DebuggingOverlayPropsD1Ev, symObjAddr: 0x8D8, symBinAddr: 0xD05C, symSize: 0x10 }
  - { offset: 0xFCBC9, size: 0x8, addend: 0x0, symName: __ZN8facebook5react21DebuggingOverlayPropsD1Ev, symObjAddr: 0x8D8, symBinAddr: 0xD05C, symSize: 0x10 }
  - { offset: 0xFCC02, size: 0x8, addend: 0x0, symName: __ZN8facebook5react21DebuggingOverlayPropsD0Ev, symObjAddr: 0x8E8, symBinAddr: 0xD06C, symSize: 0x20 }
  - { offset: 0xFFE81, size: 0x8, addend: 0x0, symName: __ZN8facebook5react14RawPropsParser7prepareINS0_21DebuggingOverlayPropsEEEvv, symObjAddr: 0x1320, symBinAddr: 0xD194, symSize: 0x1C4 }
  - { offset: 0x100F0F, size: 0x8, addend: 0x0, symName: __ZN8facebook5react27ConcreteComponentDescriptorINS0_22ConcreteViewShadowNodeIXadL_ZNS0_29DebuggingOverlayComponentNameEEENS0_21DebuggingOverlayPropsENS0_28DebuggingOverlayEventEmitterENS0_9StateDataEEEED1Ev, symObjAddr: 0x14E4, symBinAddr: 0xD358, symSize: 0x4 }
  - { offset: 0x100F31, size: 0x8, addend: 0x0, symName: __ZN8facebook5react27ConcreteComponentDescriptorINS0_22ConcreteViewShadowNodeIXadL_ZNS0_29DebuggingOverlayComponentNameEEENS0_21DebuggingOverlayPropsENS0_28DebuggingOverlayEventEmitterENS0_9StateDataEEEED1Ev, symObjAddr: 0x14E4, symBinAddr: 0xD358, symSize: 0x4 }
  - { offset: 0x100F4E, size: 0x8, addend: 0x0, symName: __ZN8facebook5react27ConcreteComponentDescriptorINS0_22ConcreteViewShadowNodeIXadL_ZNS0_29DebuggingOverlayComponentNameEEENS0_21DebuggingOverlayPropsENS0_28DebuggingOverlayEventEmitterENS0_9StateDataEEEED1Ev, symObjAddr: 0x14E4, symBinAddr: 0xD358, symSize: 0x4 }
  - { offset: 0x101226, size: 0x8, addend: 0x0, symName: __ZN8facebook5react27ConcreteComponentDescriptorINS0_22ConcreteViewShadowNodeIXadL_ZNS0_29DebuggingOverlayComponentNameEEENS0_21DebuggingOverlayPropsENS0_28DebuggingOverlayEventEmitterENS0_9StateDataEEEED0Ev, symObjAddr: 0x14E8, symBinAddr: 0xD35C, symSize: 0x14 }
  - { offset: 0x10129F, size: 0x8, addend: 0x0, symName: __ZNK8facebook5react27ConcreteComponentDescriptorINS0_22ConcreteViewShadowNodeIXadL_ZNS0_29DebuggingOverlayComponentNameEEENS0_21DebuggingOverlayPropsENS0_28DebuggingOverlayEventEmitterENS0_9StateDataEEEE18getComponentHandleEv, symObjAddr: 0x14FC, symBinAddr: 0xD370, symSize: 0xC }
  - { offset: 0x1012C5, size: 0x8, addend: 0x0, symName: __ZNK8facebook5react27ConcreteComponentDescriptorINS0_22ConcreteViewShadowNodeIXadL_ZNS0_29DebuggingOverlayComponentNameEEENS0_21DebuggingOverlayPropsENS0_28DebuggingOverlayEventEmitterENS0_9StateDataEEEE16getComponentNameEv, symObjAddr: 0x1508, symBinAddr: 0xD37C, symSize: 0xC }
  - { offset: 0x1012EB, size: 0x8, addend: 0x0, symName: __ZNK8facebook5react27ConcreteComponentDescriptorINS0_22ConcreteViewShadowNodeIXadL_ZNS0_29DebuggingOverlayComponentNameEEENS0_21DebuggingOverlayPropsENS0_28DebuggingOverlayEventEmitterENS0_9StateDataEEEE9getTraitsEv, symObjAddr: 0x1514, symBinAddr: 0xD388, symSize: 0x8 }
  - { offset: 0x1013E1, size: 0x8, addend: 0x0, symName: __ZNK8facebook5react27ConcreteComponentDescriptorINS0_22ConcreteViewShadowNodeIXadL_ZNS0_29DebuggingOverlayComponentNameEEENS0_21DebuggingOverlayPropsENS0_28DebuggingOverlayEventEmitterENS0_9StateDataEEEE16createShadowNodeERKNS0_18ShadowNodeFragmentERKNSt3__110shared_ptrIKNS0_16ShadowNodeFamilyEEE, symObjAddr: 0x151C, symBinAddr: 0xD390, symSize: 0x90 }
  - { offset: 0x101659, size: 0x8, addend: 0x0, symName: __ZNK8facebook5react27ConcreteComponentDescriptorINS0_22ConcreteViewShadowNodeIXadL_ZNS0_29DebuggingOverlayComponentNameEEENS0_21DebuggingOverlayPropsENS0_28DebuggingOverlayEventEmitterENS0_9StateDataEEEE15cloneShadowNodeERKNS0_10ShadowNodeERKNS0_18ShadowNodeFragmentE, symObjAddr: 0x15AC, symBinAddr: 0xD420, symSize: 0x104 }
  - { offset: 0x1019BF, size: 0x8, addend: 0x0, symName: __ZNK8facebook5react27ConcreteComponentDescriptorINS0_22ConcreteViewShadowNodeIXadL_ZNS0_29DebuggingOverlayComponentNameEEENS0_21DebuggingOverlayPropsENS0_28DebuggingOverlayEventEmitterENS0_9StateDataEEEE11appendChildERKNSt3__110shared_ptrIKNS0_10ShadowNodeEEESE_, symObjAddr: 0x16B0, symBinAddr: 0xD524, symSize: 0x14 }
  - { offset: 0x101A15, size: 0x8, addend: 0x0, symName: __ZNK8facebook5react27ConcreteComponentDescriptorINS0_22ConcreteViewShadowNodeIXadL_ZNS0_29DebuggingOverlayComponentNameEEENS0_21DebuggingOverlayPropsENS0_28DebuggingOverlayEventEmitterENS0_9StateDataEEEE11appendChildERKNSt3__110shared_ptrIKNS0_10ShadowNodeEEESE_, symObjAddr: 0x16B0, symBinAddr: 0xD524, symSize: 0x14 }
  - { offset: 0x1022B0, size: 0x8, addend: 0x0, symName: __ZNK8facebook5react27ConcreteComponentDescriptorINS0_22ConcreteViewShadowNodeIXadL_ZNS0_29DebuggingOverlayComponentNameEEENS0_21DebuggingOverlayPropsENS0_28DebuggingOverlayEventEmitterENS0_9StateDataEEEE10clonePropsERKNS0_18PropsParserContextERKNSt3__110shared_ptrIKNS0_5PropsEEENS0_8RawPropsE, symObjAddr: 0x16C4, symBinAddr: 0xD538, symSize: 0x21C }
  - { offset: 0x102DD4, size: 0x8, addend: 0x0, symName: __ZN8facebook5react18ConcreteShadowNodeIXadL_ZNS0_29DebuggingOverlayComponentNameEEENS0_24YogaLayoutableShadowNodeENS0_21DebuggingOverlayPropsENS0_28DebuggingOverlayEventEmitterENS0_9StateDataEE5PropsERKNS0_18PropsParserContextERKNS0_8RawPropsERKNSt3__110shared_ptrIKNS0_5PropsEEE, symObjAddr: 0x23EC, symBinAddr: 0xDC08, symSize: 0x58 }
  - { offset: 0x103032, size: 0x8, addend: 0x0, symName: __ZNK8facebook5react27ConcreteComponentDescriptorINS0_22ConcreteViewShadowNodeIXadL_ZNS0_29DebuggingOverlayComponentNameEEENS0_21DebuggingOverlayPropsENS0_28DebuggingOverlayEventEmitterENS0_9StateDataEEEE18createInitialStateERKNSt3__110shared_ptrIKNS0_5PropsEEERKNS9_IKNS0_16ShadowNodeFamilyEEE, symObjAddr: 0x18E0, symBinAddr: 0xD754, symSize: 0x8 }
  - { offset: 0x103075, size: 0x8, addend: 0x0, symName: __ZNK8facebook5react27ConcreteComponentDescriptorINS0_22ConcreteViewShadowNodeIXadL_ZNS0_29DebuggingOverlayComponentNameEEENS0_21DebuggingOverlayPropsENS0_28DebuggingOverlayEventEmitterENS0_9StateDataEEEE18createInitialStateERKNSt3__110shared_ptrIKNS0_5PropsEEERKNS9_IKNS0_16ShadowNodeFamilyEEE, symObjAddr: 0x18E0, symBinAddr: 0xD754, symSize: 0x8 }
  - { offset: 0x103097, size: 0x8, addend: 0x0, symName: __ZNK8facebook5react27ConcreteComponentDescriptorINS0_22ConcreteViewShadowNodeIXadL_ZNS0_29DebuggingOverlayComponentNameEEENS0_21DebuggingOverlayPropsENS0_28DebuggingOverlayEventEmitterENS0_9StateDataEEEE18createInitialStateERKNSt3__110shared_ptrIKNS0_5PropsEEERKNS9_IKNS0_16ShadowNodeFamilyEEE, symObjAddr: 0x18E0, symBinAddr: 0xD754, symSize: 0x8 }
  - { offset: 0x1030BA, size: 0x8, addend: 0x0, symName: __ZNK8facebook5react27ConcreteComponentDescriptorINS0_22ConcreteViewShadowNodeIXadL_ZNS0_29DebuggingOverlayComponentNameEEENS0_21DebuggingOverlayPropsENS0_28DebuggingOverlayEventEmitterENS0_9StateDataEEEE11createStateERKNS0_16ShadowNodeFamilyERKNSt3__110shared_ptrIKvEE, symObjAddr: 0x18E8, symBinAddr: 0xD75C, symSize: 0x8 }
  - { offset: 0x1030FD, size: 0x8, addend: 0x0, symName: __ZNK8facebook5react27ConcreteComponentDescriptorINS0_22ConcreteViewShadowNodeIXadL_ZNS0_29DebuggingOverlayComponentNameEEENS0_21DebuggingOverlayPropsENS0_28DebuggingOverlayEventEmitterENS0_9StateDataEEEE11createStateERKNS0_16ShadowNodeFamilyERKNSt3__110shared_ptrIKvEE, symObjAddr: 0x18E8, symBinAddr: 0xD75C, symSize: 0x8 }
  - { offset: 0x10311F, size: 0x8, addend: 0x0, symName: __ZNK8facebook5react27ConcreteComponentDescriptorINS0_22ConcreteViewShadowNodeIXadL_ZNS0_29DebuggingOverlayComponentNameEEENS0_21DebuggingOverlayPropsENS0_28DebuggingOverlayEventEmitterENS0_9StateDataEEEE11createStateERKNS0_16ShadowNodeFamilyERKNSt3__110shared_ptrIKvEE, symObjAddr: 0x18E8, symBinAddr: 0xD75C, symSize: 0x8 }
  - { offset: 0x103347, size: 0x8, addend: 0x0, symName: __ZNK8facebook5react27ConcreteComponentDescriptorINS0_22ConcreteViewShadowNodeIXadL_ZNS0_29DebuggingOverlayComponentNameEEENS0_21DebuggingOverlayPropsENS0_28DebuggingOverlayEventEmitterENS0_9StateDataEEEE12createFamilyERKNS0_24ShadowNodeFamilyFragmentE, symObjAddr: 0x18F0, symBinAddr: 0xD764, symSize: 0x168 }
  - { offset: 0x1038A3, size: 0x8, addend: 0x0, symName: __ZNK8facebook5react27ConcreteComponentDescriptorINS0_22ConcreteViewShadowNodeIXadL_ZNS0_29DebuggingOverlayComponentNameEEENS0_21DebuggingOverlayPropsENS0_28DebuggingOverlayEventEmitterENS0_9StateDataEEEE5adoptERNS0_10ShadowNodeE, symObjAddr: 0x1A58, symBinAddr: 0xD8CC, symSize: 0x4 }
  - { offset: 0x1040C9, size: 0x8, addend: 0x0, symName: __ZNSt3__120__shared_ptr_emplaceIN8facebook5react22ConcreteViewShadowNodeIXadL_ZNS2_29DebuggingOverlayComponentNameEEENS2_21DebuggingOverlayPropsENS2_28DebuggingOverlayEventEmitterENS2_9StateDataEEENS_9allocatorIS7_EEEC2B8ne200100IJRKNS2_18ShadowNodeFragmentERKNS_10shared_ptrIKNS2_16ShadowNodeFamilyEEENS2_16ShadowNodeTraitsEES9_Li0EEES9_DpOT_, symObjAddr: 0x1D84, symBinAddr: 0xD940, symSize: 0x68 }
  - { offset: 0x10448E, size: 0x8, addend: 0x0, symName: __ZNSt3__120__shared_ptr_emplaceIN8facebook5react22ConcreteViewShadowNodeIXadL_ZNS2_29DebuggingOverlayComponentNameEEENS2_21DebuggingOverlayPropsENS2_28DebuggingOverlayEventEmitterENS2_9StateDataEEENS_9allocatorIS7_EEED1Ev, symObjAddr: 0x1DEC, symBinAddr: 0xD9A8, symSize: 0x14 }
  - { offset: 0x1044B0, size: 0x8, addend: 0x0, symName: __ZNSt3__120__shared_ptr_emplaceIN8facebook5react22ConcreteViewShadowNodeIXadL_ZNS2_29DebuggingOverlayComponentNameEEENS2_21DebuggingOverlayPropsENS2_28DebuggingOverlayEventEmitterENS2_9StateDataEEENS_9allocatorIS7_EEED1Ev, symObjAddr: 0x1DEC, symBinAddr: 0xD9A8, symSize: 0x14 }
  - { offset: 0x1044E4, size: 0x8, addend: 0x0, symName: __ZNSt3__120__shared_ptr_emplaceIN8facebook5react22ConcreteViewShadowNodeIXadL_ZNS2_29DebuggingOverlayComponentNameEEENS2_21DebuggingOverlayPropsENS2_28DebuggingOverlayEventEmitterENS2_9StateDataEEENS_9allocatorIS7_EEED0Ev, symObjAddr: 0x1E00, symBinAddr: 0xD9BC, symSize: 0x24 }
  - { offset: 0x1045B1, size: 0x8, addend: 0x0, symName: __ZNSt3__120__shared_ptr_emplaceIN8facebook5react22ConcreteViewShadowNodeIXadL_ZNS2_29DebuggingOverlayComponentNameEEENS2_21DebuggingOverlayPropsENS2_28DebuggingOverlayEventEmitterENS2_9StateDataEEENS_9allocatorIS7_EEE16__on_zero_sharedEv, symObjAddr: 0x1E24, symBinAddr: 0xD9E0, symSize: 0xC }
  - { offset: 0x1045D9, size: 0x8, addend: 0x0, symName: __ZNSt3__120__shared_ptr_emplaceIN8facebook5react22ConcreteViewShadowNodeIXadL_ZNS2_29DebuggingOverlayComponentNameEEENS2_21DebuggingOverlayPropsENS2_28DebuggingOverlayEventEmitterENS2_9StateDataEEENS_9allocatorIS7_EEE16__on_zero_sharedEv, symObjAddr: 0x1E24, symBinAddr: 0xD9E0, symSize: 0xC }
  - { offset: 0x1045F7, size: 0x8, addend: 0x0, symName: __ZNSt3__120__shared_ptr_emplaceIN8facebook5react22ConcreteViewShadowNodeIXadL_ZNS2_29DebuggingOverlayComponentNameEEENS2_21DebuggingOverlayPropsENS2_28DebuggingOverlayEventEmitterENS2_9StateDataEEENS_9allocatorIS7_EEE16__on_zero_sharedEv, symObjAddr: 0x1E24, symBinAddr: 0xD9E0, symSize: 0xC }
  - { offset: 0x104615, size: 0x8, addend: 0x0, symName: __ZNSt3__120__shared_ptr_emplaceIN8facebook5react22ConcreteViewShadowNodeIXadL_ZNS2_29DebuggingOverlayComponentNameEEENS2_21DebuggingOverlayPropsENS2_28DebuggingOverlayEventEmitterENS2_9StateDataEEENS_9allocatorIS7_EEE16__on_zero_sharedEv, symObjAddr: 0x1E24, symBinAddr: 0xD9E0, symSize: 0xC }
  - { offset: 0x104641, size: 0x8, addend: 0x0, symName: __ZNSt3__120__shared_ptr_emplaceIN8facebook5react22ConcreteViewShadowNodeIXadL_ZNS2_29DebuggingOverlayComponentNameEEENS2_21DebuggingOverlayPropsENS2_28DebuggingOverlayEventEmitterENS2_9StateDataEEENS_9allocatorIS7_EEE21__on_zero_shared_weakEv, symObjAddr: 0x1E30, symBinAddr: 0xD9EC, symSize: 0x4 }
  - { offset: 0x104674, size: 0x8, addend: 0x0, symName: __ZNSt3__120__shared_ptr_emplaceIN8facebook5react22ConcreteViewShadowNodeIXadL_ZNS2_29DebuggingOverlayComponentNameEEENS2_21DebuggingOverlayPropsENS2_28DebuggingOverlayEventEmitterENS2_9StateDataEEENS_9allocatorIS7_EEE21__on_zero_shared_weakEv, symObjAddr: 0x1E30, symBinAddr: 0xD9EC, symSize: 0x4 }
  - { offset: 0x104696, size: 0x8, addend: 0x0, symName: __ZNSt3__120__shared_ptr_emplaceIN8facebook5react22ConcreteViewShadowNodeIXadL_ZNS2_29DebuggingOverlayComponentNameEEENS2_21DebuggingOverlayPropsENS2_28DebuggingOverlayEventEmitterENS2_9StateDataEEENS_9allocatorIS7_EEE21__on_zero_shared_weakEv, symObjAddr: 0x1E30, symBinAddr: 0xD9EC, symSize: 0x4 }
  - { offset: 0x1046B9, size: 0x8, addend: 0x0, symName: __ZNSt3__120__shared_ptr_emplaceIN8facebook5react22ConcreteViewShadowNodeIXadL_ZNS2_29DebuggingOverlayComponentNameEEENS2_21DebuggingOverlayPropsENS2_28DebuggingOverlayEventEmitterENS2_9StateDataEEENS_9allocatorIS7_EEE21__on_zero_shared_weakEv, symObjAddr: 0x1E30, symBinAddr: 0xD9EC, symSize: 0x4 }
  - { offset: 0x1046F0, size: 0x8, addend: 0x0, symName: __ZNSt3__120__shared_ptr_emplaceIN8facebook5react22ConcreteViewShadowNodeIXadL_ZNS2_29DebuggingOverlayComponentNameEEENS2_21DebuggingOverlayPropsENS2_28DebuggingOverlayEventEmitterENS2_9StateDataEEENS_9allocatorIS7_EEE21__on_zero_shared_weakEv, symObjAddr: 0x1E30, symBinAddr: 0xD9EC, symSize: 0x4 }
  - { offset: 0x1049D1, size: 0x8, addend: 0x0, symName: __ZN8facebook5react22ConcreteViewShadowNodeIXadL_ZNS0_29DebuggingOverlayComponentNameEEENS0_21DebuggingOverlayPropsENS0_28DebuggingOverlayEventEmitterENS0_9StateDataEED1Ev, symObjAddr: 0x1EA0, symBinAddr: 0xD9F0, symSize: 0x70 }
  - { offset: 0x104F35, size: 0x8, addend: 0x0, symName: __ZN8facebook5react22ConcreteViewShadowNodeIXadL_ZNS0_29DebuggingOverlayComponentNameEEENS0_21DebuggingOverlayPropsENS0_28DebuggingOverlayEventEmitterENS0_9StateDataEED0Ev, symObjAddr: 0x1F10, symBinAddr: 0xDA60, symSize: 0x74 }
  - { offset: 0x10530E, size: 0x8, addend: 0x0, symName: __ZNK8facebook5react22ConcreteViewShadowNodeIXadL_ZNS0_29DebuggingOverlayComponentNameEEENS0_21DebuggingOverlayPropsENS0_28DebuggingOverlayEventEmitterENS0_9StateDataEE12getTransformEv, symObjAddr: 0x1F84, symBinAddr: 0xDAD4, symSize: 0x40 }
  - { offset: 0x10537D, size: 0x8, addend: 0x0, symName: __ZNK8facebook5react22ConcreteViewShadowNodeIXadL_ZNS0_29DebuggingOverlayComponentNameEEENS0_21DebuggingOverlayPropsENS0_28DebuggingOverlayEventEmitterENS0_9StateDataEE16canBeTouchTargetEv, symObjAddr: 0x1FC4, symBinAddr: 0xDB14, symSize: 0x18 }
  - { offset: 0x1053B5, size: 0x8, addend: 0x0, symName: __ZNK8facebook5react22ConcreteViewShadowNodeIXadL_ZNS0_29DebuggingOverlayComponentNameEEENS0_21DebuggingOverlayPropsENS0_28DebuggingOverlayEventEmitterENS0_9StateDataEE16canBeTouchTargetEv, symObjAddr: 0x1FC4, symBinAddr: 0xDB14, symSize: 0x18 }
  - { offset: 0x1053D0, size: 0x8, addend: 0x0, symName: __ZNK8facebook5react22ConcreteViewShadowNodeIXadL_ZNS0_29DebuggingOverlayComponentNameEEENS0_21DebuggingOverlayPropsENS0_28DebuggingOverlayEventEmitterENS0_9StateDataEE16canBeTouchTargetEv, symObjAddr: 0x1FC4, symBinAddr: 0xDB14, symSize: 0x18 }
  - { offset: 0x1053ED, size: 0x8, addend: 0x0, symName: __ZNK8facebook5react22ConcreteViewShadowNodeIXadL_ZNS0_29DebuggingOverlayComponentNameEEENS0_21DebuggingOverlayPropsENS0_28DebuggingOverlayEventEmitterENS0_9StateDataEE24canChildrenBeTouchTargetEv, symObjAddr: 0x1FDC, symBinAddr: 0xDB2C, symSize: 0x18 }
  - { offset: 0x105421, size: 0x8, addend: 0x0, symName: __ZNK8facebook5react22ConcreteViewShadowNodeIXadL_ZNS0_29DebuggingOverlayComponentNameEEENS0_21DebuggingOverlayPropsENS0_28DebuggingOverlayEventEmitterENS0_9StateDataEE24canChildrenBeTouchTargetEv, symObjAddr: 0x1FDC, symBinAddr: 0xDB2C, symSize: 0x18 }
  - { offset: 0x10543C, size: 0x8, addend: 0x0, symName: __ZNK8facebook5react22ConcreteViewShadowNodeIXadL_ZNS0_29DebuggingOverlayComponentNameEEENS0_21DebuggingOverlayPropsENS0_28DebuggingOverlayEventEmitterENS0_9StateDataEE24canChildrenBeTouchTargetEv, symObjAddr: 0x1FDC, symBinAddr: 0xDB2C, symSize: 0x18 }
  - { offset: 0x105823, size: 0x8, addend: 0x0, symName: __ZNSt3__120__shared_ptr_emplaceIN8facebook5react22ConcreteViewShadowNodeIXadL_ZNS2_29DebuggingOverlayComponentNameEEENS2_21DebuggingOverlayPropsENS2_28DebuggingOverlayEventEmitterENS2_9StateDataEEENS_9allocatorIS7_EEEC2B8ne200100IJRKNS2_10ShadowNodeERKNS2_18ShadowNodeFragmentEES9_Li0EEES9_DpOT_, symObjAddr: 0x2330, symBinAddr: 0xDBA4, symSize: 0x64 }
  - { offset: 0x105D2E, size: 0x8, addend: 0x0, symName: __ZNSt3__120__shared_ptr_emplaceIN8facebook5react21DebuggingOverlayPropsENS_9allocatorIS3_EEEC2B8ne200100IJRKNS2_18PropsParserContextERKS3_RKNS2_8RawPropsEES5_Li0EEES5_DpOT_, symObjAddr: 0x24B4, symBinAddr: 0xDCD0, symSize: 0x4C }
  - { offset: 0x105F17, size: 0x8, addend: 0x0, symName: __ZNSt3__120__shared_ptr_emplaceIN8facebook5react21DebuggingOverlayPropsENS_9allocatorIS3_EEED1Ev, symObjAddr: 0x2500, symBinAddr: 0xDD1C, symSize: 0x14 }
  - { offset: 0x105F39, size: 0x8, addend: 0x0, symName: __ZNSt3__120__shared_ptr_emplaceIN8facebook5react21DebuggingOverlayPropsENS_9allocatorIS3_EEED1Ev, symObjAddr: 0x2500, symBinAddr: 0xDD1C, symSize: 0x14 }
  - { offset: 0x105F6D, size: 0x8, addend: 0x0, symName: __ZNSt3__120__shared_ptr_emplaceIN8facebook5react21DebuggingOverlayPropsENS_9allocatorIS3_EEED0Ev, symObjAddr: 0x2514, symBinAddr: 0xDD30, symSize: 0x24 }
  - { offset: 0x10600B, size: 0x8, addend: 0x0, symName: __ZNSt3__120__shared_ptr_emplaceIN8facebook5react21DebuggingOverlayPropsENS_9allocatorIS3_EEE16__on_zero_sharedEv, symObjAddr: 0x2538, symBinAddr: 0xDD54, symSize: 0x14 }
  - { offset: 0x106033, size: 0x8, addend: 0x0, symName: __ZNSt3__120__shared_ptr_emplaceIN8facebook5react21DebuggingOverlayPropsENS_9allocatorIS3_EEE16__on_zero_sharedEv, symObjAddr: 0x2538, symBinAddr: 0xDD54, symSize: 0x14 }
  - { offset: 0x1060BE, size: 0x8, addend: 0x0, symName: __ZNSt3__120__shared_ptr_emplaceIN8facebook5react21DebuggingOverlayPropsENS_9allocatorIS3_EEE21__on_zero_shared_weakEv, symObjAddr: 0x254C, symBinAddr: 0xDD68, symSize: 0x4 }
  - { offset: 0x1060F1, size: 0x8, addend: 0x0, symName: __ZNSt3__120__shared_ptr_emplaceIN8facebook5react21DebuggingOverlayPropsENS_9allocatorIS3_EEE21__on_zero_shared_weakEv, symObjAddr: 0x254C, symBinAddr: 0xDD68, symSize: 0x4 }
  - { offset: 0x106113, size: 0x8, addend: 0x0, symName: __ZNSt3__120__shared_ptr_emplaceIN8facebook5react21DebuggingOverlayPropsENS_9allocatorIS3_EEE21__on_zero_shared_weakEv, symObjAddr: 0x254C, symBinAddr: 0xDD68, symSize: 0x4 }
  - { offset: 0x106136, size: 0x8, addend: 0x0, symName: __ZNSt3__120__shared_ptr_emplaceIN8facebook5react21DebuggingOverlayPropsENS_9allocatorIS3_EEE21__on_zero_shared_weakEv, symObjAddr: 0x254C, symBinAddr: 0xDD68, symSize: 0x4 }
  - { offset: 0x10616D, size: 0x8, addend: 0x0, symName: __ZNSt3__120__shared_ptr_emplaceIN8facebook5react21DebuggingOverlayPropsENS_9allocatorIS3_EEE21__on_zero_shared_weakEv, symObjAddr: 0x254C, symBinAddr: 0xDD68, symSize: 0x4 }
  - { offset: 0x1067FF, size: 0x8, addend: 0x0, symName: __ZNSt3__120__shared_ptr_emplaceIKN8facebook5react28DebuggingOverlayEventEmitterENS_9allocatorIS3_EEEC2B8ne200100IJNS_10shared_ptrINS2_11EventTargetEEERKNS_8weak_ptrIKNS2_15EventDispatcherEEEES6_Li0EEES6_DpOT_, symObjAddr: 0x280C, symBinAddr: 0xDDCC, symSize: 0x4C }
  - { offset: 0x1069A9, size: 0x8, addend: 0x0, symName: __ZNSt3__120__shared_ptr_emplaceIKN8facebook5react28DebuggingOverlayEventEmitterENS_9allocatorIS3_EEED1Ev, symObjAddr: 0x2858, symBinAddr: 0xDE18, symSize: 0x14 }
  - { offset: 0x1069CB, size: 0x8, addend: 0x0, symName: __ZNSt3__120__shared_ptr_emplaceIKN8facebook5react28DebuggingOverlayEventEmitterENS_9allocatorIS3_EEED1Ev, symObjAddr: 0x2858, symBinAddr: 0xDE18, symSize: 0x14 }
  - { offset: 0x1069FF, size: 0x8, addend: 0x0, symName: __ZNSt3__120__shared_ptr_emplaceIKN8facebook5react28DebuggingOverlayEventEmitterENS_9allocatorIS3_EEED0Ev, symObjAddr: 0x286C, symBinAddr: 0xDE2C, symSize: 0x24 }
  - { offset: 0x106ACC, size: 0x8, addend: 0x0, symName: __ZNSt3__120__shared_ptr_emplaceIKN8facebook5react28DebuggingOverlayEventEmitterENS_9allocatorIS3_EEE16__on_zero_sharedEv, symObjAddr: 0x2890, symBinAddr: 0xDE50, symSize: 0xC }
  - { offset: 0x106AF4, size: 0x8, addend: 0x0, symName: __ZNSt3__120__shared_ptr_emplaceIKN8facebook5react28DebuggingOverlayEventEmitterENS_9allocatorIS3_EEE16__on_zero_sharedEv, symObjAddr: 0x2890, symBinAddr: 0xDE50, symSize: 0xC }
  - { offset: 0x106B12, size: 0x8, addend: 0x0, symName: __ZNSt3__120__shared_ptr_emplaceIKN8facebook5react28DebuggingOverlayEventEmitterENS_9allocatorIS3_EEE16__on_zero_sharedEv, symObjAddr: 0x2890, symBinAddr: 0xDE50, symSize: 0xC }
  - { offset: 0x106B30, size: 0x8, addend: 0x0, symName: __ZNSt3__120__shared_ptr_emplaceIKN8facebook5react28DebuggingOverlayEventEmitterENS_9allocatorIS3_EEE16__on_zero_sharedEv, symObjAddr: 0x2890, symBinAddr: 0xDE50, symSize: 0xC }
  - { offset: 0x106B5C, size: 0x8, addend: 0x0, symName: __ZNSt3__120__shared_ptr_emplaceIKN8facebook5react28DebuggingOverlayEventEmitterENS_9allocatorIS3_EEE21__on_zero_shared_weakEv, symObjAddr: 0x289C, symBinAddr: 0xDE5C, symSize: 0x4 }
  - { offset: 0x106B8F, size: 0x8, addend: 0x0, symName: __ZNSt3__120__shared_ptr_emplaceIKN8facebook5react28DebuggingOverlayEventEmitterENS_9allocatorIS3_EEE21__on_zero_shared_weakEv, symObjAddr: 0x289C, symBinAddr: 0xDE5C, symSize: 0x4 }
  - { offset: 0x106BB1, size: 0x8, addend: 0x0, symName: __ZNSt3__120__shared_ptr_emplaceIKN8facebook5react28DebuggingOverlayEventEmitterENS_9allocatorIS3_EEE21__on_zero_shared_weakEv, symObjAddr: 0x289C, symBinAddr: 0xDE5C, symSize: 0x4 }
  - { offset: 0x106BD4, size: 0x8, addend: 0x0, symName: __ZNSt3__120__shared_ptr_emplaceIKN8facebook5react28DebuggingOverlayEventEmitterENS_9allocatorIS3_EEE21__on_zero_shared_weakEv, symObjAddr: 0x289C, symBinAddr: 0xDE5C, symSize: 0x4 }
  - { offset: 0x106C0A, size: 0x8, addend: 0x0, symName: __ZNSt3__120__shared_ptr_emplaceIKN8facebook5react28DebuggingOverlayEventEmitterENS_9allocatorIS3_EEE21__on_zero_shared_weakEv, symObjAddr: 0x289C, symBinAddr: 0xDE5C, symSize: 0x4 }
  - { offset: 0x107145, size: 0x8, addend: 0x0, symName: __ZN8facebook5react28DebuggingOverlayEventEmitterD1Ev, symObjAddr: 0x29E0, symBinAddr: 0xDFA0, symSize: 0x34 }
  - { offset: 0x107271, size: 0x8, addend: 0x0, symName: __ZN8facebook5react28DebuggingOverlayEventEmitterD0Ev, symObjAddr: 0x2A14, symBinAddr: 0xDFD4, symSize: 0x38 }
  - { offset: 0x1079B0, size: 0x8, addend: 0x0, symName: __ZNSt3__120__shared_ptr_emplaceIN8facebook5react16ShadowNodeFamilyENS_9allocatorIS3_EEEC2B8ne200100IJRKNS2_24ShadowNodeFamilyFragmentERNS_10shared_ptrIKNS2_28DebuggingOverlayEventEmitterEEERKNS_8weak_ptrIKNS2_15EventDispatcherEEERKNS2_27ConcreteComponentDescriptorINS2_22ConcreteViewShadowNodeIXadL_ZNS2_29DebuggingOverlayComponentNameEEENS2_21DebuggingOverlayPropsESC_NS2_9StateDataEEEEEES5_Li0EEES5_DpOT_, symObjAddr: 0x2EF0, symBinAddr: 0xE084, symSize: 0x4C }
  - { offset: 0x107D20, size: 0x8, addend: 0x0, symName: __GLOBAL__sub_I_RCTDebuggingOverlayComponentView.mm, symObjAddr: 0x3428, symBinAddr: 0xE1AC, symSize: 0x20 }
  - { offset: 0x109FD4, size: 0x8, addend: 0x0, symName: __ZN8facebook5react17HostPlatformColorL14UndefinedColorE, symObjAddr: 0x22228, symBinAddr: 0x9FD10, symSize: 0x0 }
  - { offset: 0x10B8A4, size: 0x8, addend: 0x0, symName: '+[RCTEnhancedScrollView automaticallyNotifiesObserversForKey:]', symObjAddr: 0x0, symBinAddr: 0xE1CC, symSize: 0x80 }
  - { offset: 0x10B8E8, size: 0x8, addend: 0x0, symName: '-[RCTEnhancedScrollView initWithFrame:]', symObjAddr: 0x80, symBinAddr: 0xE24C, symSize: 0x140 }
  - { offset: 0x10B93F, size: 0x8, addend: 0x0, symName: '___39-[RCTEnhancedScrollView initWithFrame:]_block_invoke', symObjAddr: 0x1C0, symBinAddr: 0xE38C, symSize: 0x60 }
  - { offset: 0x10B989, size: 0x8, addend: 0x0, symName: ___copy_helper_block_ea8_32w, symObjAddr: 0x220, symBinAddr: 0xE3EC, symSize: 0xC }
  - { offset: 0x10B9B2, size: 0x8, addend: 0x0, symName: ___destroy_helper_block_ea8_32w, symObjAddr: 0x22C, symBinAddr: 0xE3F8, symSize: 0x8 }
  - { offset: 0x10B9D1, size: 0x8, addend: 0x0, symName: '-[RCTEnhancedScrollView preserveContentOffsetWithBlock:]', symObjAddr: 0x234, symBinAddr: 0xE400, symSize: 0x64 }
  - { offset: 0x10BA1D, size: 0x8, addend: 0x0, symName: '-[RCTEnhancedScrollView centerContentIfNeeded]', symObjAddr: 0x298, symBinAddr: 0xE464, symSize: 0xB4 }
  - { offset: 0x10BA8E, size: 0x8, addend: 0x0, symName: '-[RCTEnhancedScrollView setContentOffset:]', symObjAddr: 0x34C, symBinAddr: 0xE518, symSize: 0x84 }
  - { offset: 0x10BB01, size: 0x8, addend: 0x0, symName: '-[RCTEnhancedScrollView setFrame:]', symObjAddr: 0x3D0, symBinAddr: 0xE59C, symSize: 0x48 }
  - { offset: 0x10BB3D, size: 0x8, addend: 0x0, symName: '-[RCTEnhancedScrollView didAddSubview:]', symObjAddr: 0x418, symBinAddr: 0xE5E4, symSize: 0x68 }
  - { offset: 0x10BB7D, size: 0x8, addend: 0x0, symName: '-[RCTEnhancedScrollView touchesShouldCancelInContentView:]', symObjAddr: 0x480, symBinAddr: 0xE64C, symSize: 0xDC }
  - { offset: 0x10BBC1, size: 0x8, addend: 0x0, symName: '-[RCTEnhancedScrollView setPrivateDelegate:]', symObjAddr: 0x55C, symBinAddr: 0xE728, symSize: 0x34 }
  - { offset: 0x10BC01, size: 0x8, addend: 0x0, symName: '-[RCTEnhancedScrollView delegate]', symObjAddr: 0x590, symBinAddr: 0xE75C, symSize: 0x20 }
  - { offset: 0x10BC36, size: 0x8, addend: 0x0, symName: '-[RCTEnhancedScrollView setDelegate:]', symObjAddr: 0x5B0, symBinAddr: 0xE77C, symSize: 0x128 }
  - { offset: 0x10BC76, size: 0x8, addend: 0x0, symName: '-[RCTEnhancedScrollView scrollViewWillEndDragging:withVelocity:targetContentOffset:]', symObjAddr: 0x6D8, symBinAddr: 0xE8A4, symSize: 0x4C8 }
  - { offset: 0x10BE4C, size: 0x8, addend: 0x0, symName: '-[RCTEnhancedScrollView scrollViewDidZoom:]', symObjAddr: 0xBA0, symBinAddr: 0xED6C, symSize: 0x4 }
  - { offset: 0x10BEA5, size: 0x8, addend: 0x0, symName: '-[RCTEnhancedScrollView isHorizontal:]', symObjAddr: 0xBA4, symBinAddr: 0xED70, symSize: 0xB0 }
  - { offset: 0x10BF2F, size: 0x8, addend: 0x0, symName: '-[RCTEnhancedScrollView delegateSplitter]', symObjAddr: 0xC54, symBinAddr: 0xEE20, symSize: 0x10 }
  - { offset: 0x10BF64, size: 0x8, addend: 0x0, symName: '-[RCTEnhancedScrollView overridingDelegate]', symObjAddr: 0xC64, symBinAddr: 0xEE30, symSize: 0x20 }
  - { offset: 0x10BF99, size: 0x8, addend: 0x0, symName: '-[RCTEnhancedScrollView setOverridingDelegate:]', symObjAddr: 0xC84, symBinAddr: 0xEE50, symSize: 0x14 }
  - { offset: 0x10BFD8, size: 0x8, addend: 0x0, symName: '-[RCTEnhancedScrollView pinchGestureEnabled]', symObjAddr: 0xC98, symBinAddr: 0xEE64, symSize: 0x10 }
  - { offset: 0x10C00D, size: 0x8, addend: 0x0, symName: '-[RCTEnhancedScrollView setPinchGestureEnabled:]', symObjAddr: 0xCA8, symBinAddr: 0xEE74, symSize: 0x10 }
  - { offset: 0x10C047, size: 0x8, addend: 0x0, symName: '-[RCTEnhancedScrollView centerContent]', symObjAddr: 0xCB8, symBinAddr: 0xEE84, symSize: 0x10 }
  - { offset: 0x10C07C, size: 0x8, addend: 0x0, symName: '-[RCTEnhancedScrollView setCenterContent:]', symObjAddr: 0xCC8, symBinAddr: 0xEE94, symSize: 0x10 }
  - { offset: 0x10C0B6, size: 0x8, addend: 0x0, symName: '-[RCTEnhancedScrollView snapToInterval]', symObjAddr: 0xCD8, symBinAddr: 0xEEA4, symSize: 0x10 }
  - { offset: 0x10C0EA, size: 0x8, addend: 0x0, symName: '-[RCTEnhancedScrollView setSnapToInterval:]', symObjAddr: 0xCE8, symBinAddr: 0xEEB4, symSize: 0x10 }
  - { offset: 0x10C127, size: 0x8, addend: 0x0, symName: '-[RCTEnhancedScrollView snapToAlignment]', symObjAddr: 0xCF8, symBinAddr: 0xEEC4, symSize: 0x10 }
  - { offset: 0x10C15C, size: 0x8, addend: 0x0, symName: '-[RCTEnhancedScrollView setSnapToAlignment:]', symObjAddr: 0xD08, symBinAddr: 0xEED4, symSize: 0xC }
  - { offset: 0x10C19B, size: 0x8, addend: 0x0, symName: '-[RCTEnhancedScrollView disableIntervalMomentum]', symObjAddr: 0xD14, symBinAddr: 0xEEE0, symSize: 0x10 }
  - { offset: 0x10C1D0, size: 0x8, addend: 0x0, symName: '-[RCTEnhancedScrollView setDisableIntervalMomentum:]', symObjAddr: 0xD24, symBinAddr: 0xEEF0, symSize: 0x10 }
  - { offset: 0x10C20A, size: 0x8, addend: 0x0, symName: '-[RCTEnhancedScrollView snapToStart]', symObjAddr: 0xD34, symBinAddr: 0xEF00, symSize: 0x10 }
  - { offset: 0x10C23F, size: 0x8, addend: 0x0, symName: '-[RCTEnhancedScrollView setSnapToStart:]', symObjAddr: 0xD44, symBinAddr: 0xEF10, symSize: 0x10 }
  - { offset: 0x10C279, size: 0x8, addend: 0x0, symName: '-[RCTEnhancedScrollView snapToEnd]', symObjAddr: 0xD54, symBinAddr: 0xEF20, symSize: 0x10 }
  - { offset: 0x10C2AE, size: 0x8, addend: 0x0, symName: '-[RCTEnhancedScrollView setSnapToEnd:]', symObjAddr: 0xD64, symBinAddr: 0xEF30, symSize: 0x10 }
  - { offset: 0x10C2E8, size: 0x8, addend: 0x0, symName: '-[RCTEnhancedScrollView snapToOffsets]', symObjAddr: 0xD74, symBinAddr: 0xEF40, symSize: 0x10 }
  - { offset: 0x10C31D, size: 0x8, addend: 0x0, symName: '-[RCTEnhancedScrollView setSnapToOffsets:]', symObjAddr: 0xD84, symBinAddr: 0xEF50, symSize: 0xC }
  - { offset: 0x10C35C, size: 0x8, addend: 0x0, symName: '-[RCTEnhancedScrollView .cxx_destruct]', symObjAddr: 0xD90, symBinAddr: 0xEF5C, symSize: 0x74 }
  - { offset: 0x10C410, size: 0x8, addend: 0x0, symName: __GLOBAL__sub_I_RCTEnhancedScrollView.mm, symObjAddr: 0x1000, symBinAddr: 0xEFD0, symSize: 0x20 }
  - { offset: 0x10E5F7, size: 0x8, addend: 0x0, symName: _RCTFabricComponentsProvider, symObjAddr: 0x0, symBinAddr: 0xEFF0, symSize: 0x370 }
  - { offset: 0x10E61D, size: 0x8, addend: 0x0, symName: __ZZ27RCTFabricComponentsProviderE25sFabricComponentsClassMap, symObjAddr: 0x38300, symBinAddr: 0x9FD28, symSize: 0x0 }
  - { offset: 0x115F70, size: 0x8, addend: 0x0, symName: __ZNSt3__113unordered_mapINS_12basic_stringIcNS_11char_traitsIcEENS_9allocatorIcEEEEPFP10objc_classvENS_4hashIS6_EENS_8equal_toIS6_EENS4_INS_4pairIKS6_SA_EEEEEC2ESt16initializer_listISH_E, symObjAddr: 0x4D8, symBinAddr: 0xF364, symSize: 0x74 }
  - { offset: 0x116104, size: 0x8, addend: 0x0, symName: __ZNSt3__113unordered_mapINS_12basic_stringIcNS_11char_traitsIcEENS_9allocatorIcEEEEPFP10objc_classvENS_4hashIS6_EENS_8equal_toIS6_EENS4_INS_4pairIKS6_SA_EEEEED1B8ne200100Ev, symObjAddr: 0x370, symBinAddr: 0xF360, symSize: 0x4 }
  - { offset: 0x11612F, size: 0x8, addend: 0x0, symName: __ZNSt3__113unordered_mapINS_12basic_stringIcNS_11char_traitsIcEENS_9allocatorIcEEEEPFP10objc_classvENS_4hashIS6_EENS_8equal_toIS6_EENS4_INS_4pairIKS6_SA_EEEEED1B8ne200100Ev, symObjAddr: 0x370, symBinAddr: 0xF360, symSize: 0x4 }
  - { offset: 0x11614B, size: 0x8, addend: 0x0, symName: __ZNSt3__113unordered_mapINS_12basic_stringIcNS_11char_traitsIcEENS_9allocatorIcEEEEPFP10objc_classvENS_4hashIS6_EENS_8equal_toIS6_EENS4_INS_4pairIKS6_SA_EEEEED1B8ne200100Ev, symObjAddr: 0x370, symBinAddr: 0xF360, symSize: 0x4 }
  - { offset: 0x11616A, size: 0x8, addend: 0x0, symName: __ZNSt3__113unordered_mapINS_12basic_stringIcNS_11char_traitsIcEENS_9allocatorIcEEEEPFP10objc_classvENS_4hashIS6_EENS_8equal_toIS6_EENS4_INS_4pairIKS6_SA_EEEEED1B8ne200100Ev, symObjAddr: 0x370, symBinAddr: 0xF360, symSize: 0x4 }
  - { offset: 0x1164EC, size: 0x8, addend: 0x0, symName: __ZNSt3__112__hash_tableINS_17__hash_value_typeINS_12basic_stringIcNS_11char_traitsIcEENS_9allocatorIcEEEEPFP10objc_classvEEENS_22__unordered_map_hasherIS7_SC_NS_4hashIS7_EENS_8equal_toIS7_EELb1EEENS_21__unordered_map_equalIS7_SC_SH_SF_Lb1EEENS5_ISC_EEE25__emplace_unique_key_argsIS7_JRKNS_4pairIKS7_SB_EEEEENSO_INS_15__hash_iteratorIPNS_11__hash_nodeISC_PvEEEEbEERKT_DpOT0_, symObjAddr: 0x54C, symBinAddr: 0xF3D8, symSize: 0x25C }
  - { offset: 0x116CBD, size: 0x8, addend: 0x0, symName: __ZNSt3__112__hash_tableINS_17__hash_value_typeINS_12basic_stringIcNS_11char_traitsIcEENS_9allocatorIcEEEEPFP10objc_classvEEENS_22__unordered_map_hasherIS7_SC_NS_4hashIS7_EENS_8equal_toIS7_EELb1EEENS_21__unordered_map_equalIS7_SC_SH_SF_Lb1EEENS5_ISC_EEE21__construct_node_hashIRKNS_4pairIKS7_SB_EEJEEENS_10unique_ptrINS_11__hash_nodeISC_PvEENS_22__hash_node_destructorINS5_ISW_EEEEEEmOT_DpOT0_, symObjAddr: 0x7A8, symBinAddr: 0xF634, symSize: 0xAC }
  - { offset: 0x11A539, size: 0x8, addend: 0x0, symName: '-[RCTFabricModalHostViewController init]', symObjAddr: 0x0, symBinAddr: 0xF6E0, symSize: 0x88 }
  - { offset: 0x11B392, size: 0x8, addend: 0x0, symName: '-[RCTFabricModalHostViewController init]', symObjAddr: 0x0, symBinAddr: 0xF6E0, symSize: 0x88 }
  - { offset: 0x11B3C7, size: 0x8, addend: 0x0, symName: '-[RCTFabricModalHostViewController viewDidLayoutSubviews]', symObjAddr: 0x88, symBinAddr: 0xF768, symSize: 0x12C }
  - { offset: 0x11B41D, size: 0x8, addend: 0x0, symName: '-[RCTFabricModalHostViewController loadView]', symObjAddr: 0x1B4, symBinAddr: 0xF894, symSize: 0x8C }
  - { offset: 0x11B44E, size: 0x8, addend: 0x0, symName: '-[RCTFabricModalHostViewController preferredStatusBarStyle]', symObjAddr: 0x240, symBinAddr: 0xF920, symSize: 0x44 }
  - { offset: 0x11B4DA, size: 0x8, addend: 0x0, symName: '-[RCTFabricModalHostViewController viewDidDisappear:]', symObjAddr: 0x284, symBinAddr: 0xF964, symSize: 0x5C }
  - { offset: 0x11B51A, size: 0x8, addend: 0x0, symName: '-[RCTFabricModalHostViewController prefersStatusBarHidden]', symObjAddr: 0x2E0, symBinAddr: 0xF9C0, symSize: 0x44 }
  - { offset: 0x11B559, size: 0x8, addend: 0x0, symName: '-[RCTFabricModalHostViewController delegate]', symObjAddr: 0x324, symBinAddr: 0xFA04, symSize: 0x20 }
  - { offset: 0x11B58E, size: 0x8, addend: 0x0, symName: '-[RCTFabricModalHostViewController setDelegate:]', symObjAddr: 0x344, symBinAddr: 0xFA24, symSize: 0x14 }
  - { offset: 0x11B5CD, size: 0x8, addend: 0x0, symName: '-[RCTFabricModalHostViewController supportedInterfaceOrientations]', symObjAddr: 0x358, symBinAddr: 0xFA38, symSize: 0x10 }
  - { offset: 0x11B602, size: 0x8, addend: 0x0, symName: '-[RCTFabricModalHostViewController setSupportedInterfaceOrientations:]', symObjAddr: 0x368, symBinAddr: 0xFA48, symSize: 0x10 }
  - { offset: 0x11B63E, size: 0x8, addend: 0x0, symName: '-[RCTFabricModalHostViewController .cxx_destruct]', symObjAddr: 0x378, symBinAddr: 0xFA58, symSize: 0x3C }
  - { offset: 0x11B85C, size: 0x8, addend: 0x0, symName: __ZN8facebook5react17HostPlatformColorL14UndefinedColorE, symObjAddr: 0x117200, symBinAddr: 0x9FD58, symSize: 0x0 }
  - { offset: 0x13C864, size: 0x8, addend: 0x0, symName: '-[RCTFabricSurface initWithSurfacePresenter:moduleName:initialProperties:]', symObjAddr: 0x0, symBinAddr: 0xFA94, symSize: 0x26C }
  - { offset: 0x13CD4A, size: 0x8, addend: 0x0, symName: __ZNSt3__18optionalIN8facebook5react14SurfaceHandlerEEaSB8ne200100IS3_vEERS4_OT_, symObjAddr: 0x26C, symBinAddr: 0xFD00, symSize: 0x40 }
  - { offset: 0x13CE77, size: 0x8, addend: 0x0, symName: '-[RCTFabricSurface resetWithSurfacePresenter:]', symObjAddr: 0x2AC, symBinAddr: 0xFD40, symSize: 0x80 }
  - { offset: 0x13CEB7, size: 0x8, addend: 0x0, symName: '-[RCTFabricSurface dealloc]', symObjAddr: 0x32C, symBinAddr: 0xFDC0, symSize: 0x8C }
  - { offset: 0x13CF80, size: 0x8, addend: 0x0, symName: '-[RCTFabricSurface start]', symObjAddr: 0x3C8, symBinAddr: 0xFE4C, symSize: 0x90 }
  - { offset: 0x13D067, size: 0x8, addend: 0x0, symName: '___25-[RCTFabricSurface start]_block_invoke', symObjAddr: 0x458, symBinAddr: 0xFEDC, symSize: 0xFC }
  - { offset: 0x13D121, size: 0x8, addend: 0x0, symName: '___25-[RCTFabricSurface start]_block_invoke_2', symObjAddr: 0x554, symBinAddr: 0xFFD8, symSize: 0x6C }
  - { offset: 0x13D160, size: 0x8, addend: 0x0, symName: ___copy_helper_block_ea8_32s, symObjAddr: 0x5C0, symBinAddr: 0x10044, symSize: 0x8 }
  - { offset: 0x13D187, size: 0x8, addend: 0x0, symName: ___destroy_helper_block_ea8_32s, symObjAddr: 0x5C8, symBinAddr: 0x1004C, symSize: 0x8 }
  - { offset: 0x13D1A6, size: 0x8, addend: 0x0, symName: '-[RCTFabricSurface stop]', symObjAddr: 0x5D0, symBinAddr: 0x10054, symSize: 0xA4 }
  - { offset: 0x13D279, size: 0x8, addend: 0x0, symName: '___24-[RCTFabricSurface stop]_block_invoke', symObjAddr: 0x674, symBinAddr: 0x100F8, symSize: 0xAC }
  - { offset: 0x13D325, size: 0x8, addend: 0x0, symName: '-[RCTFabricSurface moduleName]', symObjAddr: 0x720, symBinAddr: 0x101A4, symSize: 0xA4 }
  - { offset: 0x13D604, size: 0x8, addend: 0x0, symName: '-[RCTFabricSurface view]', symObjAddr: 0x7C4, symBinAddr: 0x10248, symSize: 0x74 }
  - { offset: 0x13D639, size: 0x8, addend: 0x0, symName: '-[RCTFabricSurface stage]', symObjAddr: 0x838, symBinAddr: 0x102BC, symSize: 0x28 }
  - { offset: 0x13D66E, size: 0x8, addend: 0x0, symName: '-[RCTFabricSurface _propagateStageChange]', symObjAddr: 0x860, symBinAddr: 0x102E4, symSize: 0x74 }
  - { offset: 0x13D6DB, size: 0x8, addend: 0x0, symName: '-[RCTFabricSurface _updateLayoutContext]', symObjAddr: 0x8D4, symBinAddr: 0x10358, symSize: 0xF0 }
  - { offset: 0x13D781, size: 0x8, addend: 0x0, symName: '-[RCTFabricSurface properties]', symObjAddr: 0x9C4, symBinAddr: 0x10448, symSize: 0x88 }
  - { offset: 0x13D845, size: 0x8, addend: 0x0, symName: '-[RCTFabricSurface setProperties:]', symObjAddr: 0xA4C, symBinAddr: 0x104D0, symSize: 0x74 }
  - { offset: 0x13D920, size: 0x8, addend: 0x0, symName: '-[RCTFabricSurface setMinimumSize:maximumSize:viewportOffset:]', symObjAddr: 0xAC0, symBinAddr: 0x10544, symSize: 0xAC }
  - { offset: 0x13D9FC, size: 0x8, addend: 0x0, symName: '-[RCTFabricSurface setMinimumSize:maximumSize:]', symObjAddr: 0xB6C, symBinAddr: 0x105F0, symSize: 0x10 }
  - { offset: 0x13DA42, size: 0x8, addend: 0x0, symName: '-[RCTFabricSurface setSize:]', symObjAddr: 0xB7C, symBinAddr: 0x10600, symSize: 0xC }
  - { offset: 0x13DA7D, size: 0x8, addend: 0x0, symName: '-[RCTFabricSurface sizeThatFitsMinimumSize:maximumSize:]', symObjAddr: 0xB88, symBinAddr: 0x1060C, symSize: 0x8C }
  - { offset: 0x13DB69, size: 0x8, addend: 0x0, symName: '-[RCTFabricSurface minimumSize]', symObjAddr: 0xC14, symBinAddr: 0x10698, symSize: 0x28 }
  - { offset: 0x13DBBC, size: 0x8, addend: 0x0, symName: '-[RCTFabricSurface maximumSize]', symObjAddr: 0xC3C, symBinAddr: 0x106C0, symSize: 0x28 }
  - { offset: 0x13DC22, size: 0x8, addend: 0x0, symName: '-[RCTFabricSurface viewportOffset]', symObjAddr: 0xC64, symBinAddr: 0x106E8, symSize: 0x28 }
  - { offset: 0x13DD6B, size: 0x8, addend: 0x0, symName: '-[RCTFabricSurface synchronouslyWaitFor:]', symObjAddr: 0xC8C, symBinAddr: 0x10710, symSize: 0x158 }
  - { offset: 0x13E0A3, size: 0x8, addend: 0x0, symName: '-[RCTFabricSurface handleContentSizeCategoryDidChangeNotification:]', symObjAddr: 0xDE4, symBinAddr: 0x10868, symSize: 0x4 }
  - { offset: 0x13E0E0, size: 0x8, addend: 0x0, symName: '-[RCTFabricSurface surfaceHandler]', symObjAddr: 0xDE8, symBinAddr: 0x1086C, symSize: 0x8 }
  - { offset: 0x13E116, size: 0x8, addend: 0x0, symName: '-[RCTFabricSurface initWithBridge:moduleName:initialProperties:]', symObjAddr: 0xDF0, symBinAddr: 0x10874, symSize: 0x94 }
  - { offset: 0x13E17F, size: 0x8, addend: 0x0, symName: '-[RCTFabricSurface rootViewTag]', symObjAddr: 0xE84, symBinAddr: 0x10908, symSize: 0x30 }
  - { offset: 0x13E1B5, size: 0x8, addend: 0x0, symName: '-[RCTFabricSurface rootTag]', symObjAddr: 0xEB4, symBinAddr: 0x10938, symSize: 0x1C }
  - { offset: 0x13E1EB, size: 0x8, addend: 0x0, symName: '-[RCTFabricSurface delegate]', symObjAddr: 0xED0, symBinAddr: 0x10954, symSize: 0x18 }
  - { offset: 0x13E220, size: 0x8, addend: 0x0, symName: '-[RCTFabricSurface setDelegate:]', symObjAddr: 0xEE8, symBinAddr: 0x1096C, symSize: 0xC }
  - { offset: 0x13E25F, size: 0x8, addend: 0x0, symName: '-[RCTFabricSurface intrinsicSize]', symObjAddr: 0xEF4, symBinAddr: 0x10978, symSize: 0x38 }
  - { offset: 0x13E38E, size: 0x8, addend: 0x0, symName: '-[RCTFabricSurface .cxx_destruct]', symObjAddr: 0xF2C, symBinAddr: 0x109B0, symSize: 0x5C }
  - { offset: 0x13E57F, size: 0x8, addend: 0x0, symName: '-[RCTFabricSurface .cxx_construct]', symObjAddr: 0xF88, symBinAddr: 0x10A0C, symSize: 0x2C }
  - { offset: 0x13E5B5, size: 0x8, addend: 0x0, symName: '-[RCTFabricSurface .cxx_construct]', symObjAddr: 0xF88, symBinAddr: 0x10A0C, symSize: 0x2C }
  - { offset: 0x13E5D2, size: 0x8, addend: 0x0, symName: '-[RCTFabricSurface .cxx_construct]', symObjAddr: 0xF88, symBinAddr: 0x10A0C, symSize: 0x2C }
  - { offset: 0x13E5F0, size: 0x8, addend: 0x0, symName: '-[RCTFabricSurface .cxx_construct]', symObjAddr: 0xF88, symBinAddr: 0x10A0C, symSize: 0x2C }
  - { offset: 0x13E60E, size: 0x8, addend: 0x0, symName: '-[RCTFabricSurface .cxx_construct]', symObjAddr: 0xF88, symBinAddr: 0x10A0C, symSize: 0x2C }
  - { offset: 0x13E62C, size: 0x8, addend: 0x0, symName: '-[RCTFabricSurface .cxx_construct]', symObjAddr: 0xF88, symBinAddr: 0x10A0C, symSize: 0x2C }
  - { offset: 0x13E64A, size: 0x8, addend: 0x0, symName: '-[RCTFabricSurface .cxx_construct]', symObjAddr: 0xF88, symBinAddr: 0x10A0C, symSize: 0x2C }
  - { offset: 0x13E668, size: 0x8, addend: 0x0, symName: '-[RCTFabricSurface .cxx_construct]', symObjAddr: 0xF88, symBinAddr: 0x10A0C, symSize: 0x2C }
  - { offset: 0x13E686, size: 0x8, addend: 0x0, symName: '-[RCTFabricSurface .cxx_construct]', symObjAddr: 0xF88, symBinAddr: 0x10A0C, symSize: 0x2C }
  - { offset: 0x13E945, size: 0x8, addend: 0x0, symName: __GLOBAL__sub_I_RCTFabricSurface.mm, symObjAddr: 0x1300, symBinAddr: 0x10A38, symSize: 0x20 }
  - { offset: 0x140D8C, size: 0x8, addend: 0x0, symName: '-[RCTGenericDelegateSplitter initWithDelegateUpdateBlock:]', symObjAddr: 0x0, symBinAddr: 0x10A58, symSize: 0xAC }
  - { offset: 0x14102E, size: 0x8, addend: 0x0, symName: '-[RCTGenericDelegateSplitter initWithDelegateUpdateBlock:]', symObjAddr: 0x0, symBinAddr: 0x10A58, symSize: 0xAC }
  - { offset: 0x141072, size: 0x8, addend: 0x0, symName: '-[RCTGenericDelegateSplitter addDelegate:]', symObjAddr: 0xAC, symBinAddr: 0x10B04, symSize: 0x58 }
  - { offset: 0x1410B2, size: 0x8, addend: 0x0, symName: '-[RCTGenericDelegateSplitter removeDelegate:]', symObjAddr: 0x104, symBinAddr: 0x10B5C, symSize: 0x58 }
  - { offset: 0x1410F2, size: 0x8, addend: 0x0, symName: '-[RCTGenericDelegateSplitter removeAllDelegates]', symObjAddr: 0x15C, symBinAddr: 0x10BB4, symSize: 0x28 }
  - { offset: 0x141123, size: 0x8, addend: 0x0, symName: '-[RCTGenericDelegateSplitter _updateDelegate]', symObjAddr: 0x184, symBinAddr: 0x10BDC, symSize: 0xD8 }
  - { offset: 0x14117D, size: 0x8, addend: 0x0, symName: '-[RCTGenericDelegateSplitter respondsToSelector:]', symObjAddr: 0x25C, symBinAddr: 0x10CB4, symSize: 0x124 }
  - { offset: 0x1411D8, size: 0x8, addend: 0x0, symName: '-[RCTGenericDelegateSplitter methodSignatureForSelector:]', symObjAddr: 0x380, symBinAddr: 0x10DD8, symSize: 0x140 }
  - { offset: 0x141233, size: 0x8, addend: 0x0, symName: '-[RCTGenericDelegateSplitter forwardInvocation:]', symObjAddr: 0x4C0, symBinAddr: 0x10F18, symSize: 0x214 }
  - { offset: 0x1412C1, size: 0x8, addend: 0x0, symName: '-[RCTGenericDelegateSplitter delegateUpdateBlock]', symObjAddr: 0x6D4, symBinAddr: 0x1112C, symSize: 0x8 }
  - { offset: 0x1412F6, size: 0x8, addend: 0x0, symName: '-[RCTGenericDelegateSplitter setDelegateUpdateBlock:]', symObjAddr: 0x6DC, symBinAddr: 0x11134, symSize: 0x8 }
  - { offset: 0x141335, size: 0x8, addend: 0x0, symName: '-[RCTGenericDelegateSplitter .cxx_destruct]', symObjAddr: 0x6E4, symBinAddr: 0x1113C, symSize: 0x30 }
  - { offset: 0x1416C6, size: 0x8, addend: 0x0, symName: __ZN8facebook5react17HostPlatformColorL14UndefinedColorE, symObjAddr: 0x42328, symBinAddr: 0x9FD70, symSize: 0x0 }
  - { offset: 0x146F1C, size: 0x8, addend: 0x0, symName: __ZNSt3__127__throw_bad_optional_accessB8ne200100Ev, symObjAddr: 0x140C, symBinAddr: 0x124C8, symSize: 0x34 }
  - { offset: 0x147504, size: 0x8, addend: 0x0, symName: __ZNSt3__119__allocate_at_leastB8ne200100INS_9allocatorIN8facebook5react18ProcessedColorStopEEEEENS_19__allocation_resultINS_16allocator_traitsIT_E7pointerEEERS8_m, symObjAddr: 0x12BC, symBinAddr: 0x12414, symSize: 0x44 }
  - { offset: 0x147836, size: 0x8, addend: 0x0, symName: __ZNSt3__134__uninitialized_allocator_relocateB8ne200100INS_9allocatorIN8facebook5react18ProcessedColorStopEEEPS4_EEvRT_T0_S9_S9_, symObjAddr: 0x1760, symBinAddr: 0x1274C, symSize: 0x6C }
  - { offset: 0x147895, size: 0x8, addend: 0x0, symName: __ZNSt3__134__uninitialized_allocator_relocateB8ne200100INS_9allocatorIN8facebook5react18ProcessedColorStopEEEPS4_EEvRT_T0_S9_S9_, symObjAddr: 0x1760, symBinAddr: 0x1274C, symSize: 0x6C }
  - { offset: 0x14A13A, size: 0x8, addend: 0x0, symName: '+[RCTGradientUtils getFixedColorStops:gradientLineLength:]', symObjAddr: 0x0, symBinAddr: 0x1116C, symSize: 0xC14 }
  - { offset: 0x14D65D, size: 0x8, addend: 0x0, symName: __ZNSt3__16vectorIN8facebook5react18ProcessedColorStopENS_9allocatorIS3_EEEC2B8ne200100Em, symObjAddr: 0x1184, symBinAddr: 0x122F0, symSize: 0x68 }
  - { offset: 0x14D793, size: 0x8, addend: 0x0, symName: __ZNSt3__110shared_ptrIvEaSB8ne200100EOS1_, symObjAddr: 0x1440, symBinAddr: 0x124FC, symSize: 0x64 }
  - { offset: 0x14D8F0, size: 0x8, addend: 0x0, symName: __ZNSt3__16vectorIN8facebook5react18ProcessedColorStopENS_9allocatorIS3_EEE16__init_with_sizeB8ne200100IPS3_S8_EEvT_T0_m, symObjAddr: 0x1640, symBinAddr: 0x126A4, symSize: 0xA8 }
  - { offset: 0x14DE65, size: 0x8, addend: 0x0, symName: __ZNSt3__16vectorIN8facebook5react18ProcessedColorStopENS_9allocatorIS3_EEE7reserveEm, symObjAddr: 0x14FC, symBinAddr: 0x12560, symSize: 0xD8 }
  - { offset: 0x14E08E, size: 0x8, addend: 0x0, symName: __ZNSt3__16vectorIN8facebook5react18ProcessedColorStopENS_9allocatorIS3_EEE9push_backB8ne200100ERKS3_, symObjAddr: 0x15D4, symBinAddr: 0x12638, symSize: 0x6C }
  - { offset: 0x14E34E, size: 0x8, addend: 0x0, symName: __ZNSt3__16vectorIN8facebook5react18ProcessedColorStopENS_9allocatorIS3_EEE18__insert_with_sizeB8ne200100INS_11__wrap_iterIPS3_EESA_EESA_NS8_IPKS3_EET_T0_l, symObjAddr: 0x1964, symBinAddr: 0x12950, symSize: 0x28C }
  - { offset: 0x14EE2E, size: 0x8, addend: 0x0, symName: __ZNSt3__16vectorIN8facebook5react18ProcessedColorStopENS_9allocatorIS3_EEE16__destroy_vectorclB8ne200100Ev, symObjAddr: 0x139C, symBinAddr: 0x12458, symSize: 0x70 }
  - { offset: 0x14F49D, size: 0x8, addend: 0x0, symName: '+[RCTGradientUtils pointsForCAGradientLayerLinearGradient:endPoint:bounds:]', symObjAddr: 0xC14, symBinAddr: 0x11D80, symSize: 0x280 }
  - { offset: 0x14FA14, size: 0x8, addend: 0x0, symName: __ZNK12_GLOBAL__N_111LineSegment21perpendicularBisectorEv, symObjAddr: 0xE94, symBinAddr: 0x12000, symSize: 0x11C }
  - { offset: 0x14FBFA, size: 0x8, addend: 0x0, symName: __ZN12_GLOBAL__N_111LineSegmentC1E7CGPointdd, symObjAddr: 0x1D6C, symBinAddr: 0x12D58, symSize: 0x70 }
  - { offset: 0x14FE6A, size: 0x8, addend: 0x0, symName: '+[RCTGradientUtils getColors:andLocations:fromColorStops:]', symObjAddr: 0xFB0, symBinAddr: 0x1211C, symSize: 0x1D4 }
  - { offset: 0x150153, size: 0x8, addend: 0x0, symName: __ZNSt3__16vectorIN8facebook5react18ProcessedColorStopENS_9allocatorIS3_EEE11__vallocateB8ne200100Em, symObjAddr: 0x11EC, symBinAddr: 0x12358, symSize: 0x48 }
  - { offset: 0x1501AC, size: 0x8, addend: 0x0, symName: __ZNSt3__16vectorIN8facebook5react18ProcessedColorStopENS_9allocatorIS3_EEE18__construct_at_endEm, symObjAddr: 0x1234, symBinAddr: 0x123A0, symSize: 0x74 }
  - { offset: 0x1501B7, size: 0x8, addend: 0x0, symName: __ZNSt3__16vectorIN8facebook5react18ProcessedColorStopENS_9allocatorIS3_EEE18__construct_at_endEm, symObjAddr: 0x1234, symBinAddr: 0x123A0, symSize: 0x74 }
  - { offset: 0x15020F, size: 0x8, addend: 0x0, symName: __ZNSt3__16vectorIN8facebook5react18ProcessedColorStopENS_9allocatorIS3_EEE18__construct_at_endEm, symObjAddr: 0x1234, symBinAddr: 0x123A0, symSize: 0x74 }
  - { offset: 0x150232, size: 0x8, addend: 0x0, symName: __ZNSt3__16vectorIN8facebook5react18ProcessedColorStopENS_9allocatorIS3_EEE18__construct_at_endEm, symObjAddr: 0x1234, symBinAddr: 0x123A0, symSize: 0x74 }
  - { offset: 0x15051D, size: 0x8, addend: 0x0, symName: __ZNSt3__119__allocate_at_leastB8ne200100INS_9allocatorIN8facebook5react18ProcessedColorStopEEEEENS_19__allocation_resultINS_16allocator_traitsIT_E7pointerEEERS8_m, symObjAddr: 0x12BC, symBinAddr: 0x12414, symSize: 0x44 }
  - { offset: 0x1509B8, size: 0x8, addend: 0x0, symName: __ZNSt3__114__split_bufferIN8facebook5react18ProcessedColorStopERNS_9allocatorIS3_EEED2Ev, symObjAddr: 0x17CC, symBinAddr: 0x127B8, symSize: 0x4C }
  - { offset: 0x150CC4, size: 0x8, addend: 0x0, symName: __ZNSt3__16vectorIN8facebook5react18ProcessedColorStopENS_9allocatorIS3_EEE24__emplace_back_slow_pathIJRKS3_EEEPS3_DpOT_, symObjAddr: 0x1818, symBinAddr: 0x12804, symSize: 0x14C }
  - { offset: 0x151520, size: 0x8, addend: 0x0, symName: __ZNSt3__16vectorIN8facebook5react18ProcessedColorStopENS_9allocatorIS3_EEE12__move_rangeEPS3_S7_S7_, symObjAddr: 0x1BF0, symBinAddr: 0x12BDC, symSize: 0xC4 }
  - { offset: 0x151888, size: 0x8, addend: 0x0, symName: __ZNSt3__16vectorIN8facebook5react18ProcessedColorStopENS_9allocatorIS3_EEE26__swap_out_circular_bufferERNS_14__split_bufferIS3_RS5_EEPS3_, symObjAddr: 0x1CB4, symBinAddr: 0x12CA0, symSize: 0xB8 }
  - { offset: 0x151B2E, size: 0x8, addend: 0x0, symName: __GLOBAL__sub_I_RCTGradientUtils.mm, symObjAddr: 0x1F80, symBinAddr: 0x12DC8, symSize: 0x20 }
  - { offset: 0x153BC2, size: 0x8, addend: 0x0, symName: __ZN8facebook5react17HostPlatformColorL14UndefinedColorE, symObjAddr: 0x160F48, symBinAddr: 0x9FD88, symSize: 0x0 }
  - { offset: 0x1575BB, size: 0x8, addend: 0x0, symName: __ZN8facebook5react38concreteComponentDescriptorConstructorINS0_24ImageComponentDescriptorEEENSt3__110unique_ptrIKNS0_19ComponentDescriptorENS3_14default_deleteIS6_EEEERKNS0_29ComponentDescriptorParametersE, symObjAddr: 0x2B1C, symBinAddr: 0x14920, symSize: 0x6C }
  - { offset: 0x17295C, size: 0x8, addend: 0x0, symName: __ZNSt3__115allocate_sharedB8ne200100IKN8facebook5react10ImagePropsENS_9allocatorIS3_EEJELi0EEENS_10shared_ptrIT_EERKT0_DpOT1_, symObjAddr: 0x19D4, symBinAddr: 0x144D4, symSize: 0x48 }
  - { offset: 0x173BB3, size: 0x8, addend: 0x0, symName: __ZNSt3__119__allocate_at_leastB8ne200100INS_9allocatorINS_4pairINS_12basic_stringIcNS_11char_traitsIcEENS1_IcEEEES7_EEEEEENS_19__allocation_resultINS_16allocator_traitsIT_E7pointerEEERSC_m, symObjAddr: 0x16E0, symBinAddr: 0x14260, symSize: 0x44 }
  - { offset: 0x173C65, size: 0x8, addend: 0x0, symName: __ZNSt3__114__split_bufferINS_4pairINS_12basic_stringIcNS_11char_traitsIcEENS_9allocatorIcEEEES7_EERNS5_IS8_EEED2Ev, symObjAddr: 0x1724, symBinAddr: 0x142A4, symSize: 0x4C }
  - { offset: 0x173E37, size: 0x8, addend: 0x0, symName: __ZNSt3__112__destroy_atB8ne200100INS_4pairINS_12basic_stringIcNS_11char_traitsIcEENS_9allocatorIcEEEES7_EELi0EEEvPT_, symObjAddr: 0x1534, symBinAddr: 0x1421C, symSize: 0x44 }
  - { offset: 0x1743B7, size: 0x8, addend: 0x0, symName: __ZNSt3__135__uninitialized_allocator_copy_implB8ne200100INS_9allocatorINS_4pairINS_12basic_stringIcNS_11char_traitsIcEENS1_IcEEEES7_EEEEPS8_SA_SA_EET2_RT_T0_T1_SB_, symObjAddr: 0x18BC, symBinAddr: 0x143BC, symSize: 0x84 }
  - { offset: 0x175305, size: 0x8, addend: 0x0, symName: __ZNSt3__112__destroy_atB8ne200100IN8facebook5react11ImageSourceELi0EEEvPT_, symObjAddr: 0x293C, symBinAddr: 0x14798, symSize: 0x74 }
  - { offset: 0x179E76, size: 0x8, addend: 0x0, symName: __ZN8facebook5react18ConcreteShadowNodeIXadL_ZNS0_18ImageComponentNameEEENS0_24YogaLayoutableShadowNodeENS0_10ImagePropsENS0_17ImageEventEmitterENS0_10ImageStateEE18defaultSharedPropsEv, symObjAddr: 0x188, symBinAddr: 0x12F70, symSize: 0x9C }
  - { offset: 0x179E96, size: 0x8, addend: 0x0, symName: __ZZN8facebook5react18ConcreteShadowNodeIXadL_ZNS0_18ImageComponentNameEEENS0_24YogaLayoutableShadowNodeENS0_10ImagePropsENS0_17ImageEventEmitterENS0_10ImageStateEE18defaultSharedPropsEvE18defaultSharedProps, symObjAddr: 0x4238, symBinAddr: 0x9F3C8, symSize: 0x0 }
  - { offset: 0x17A91E, size: 0x8, addend: 0x0, symName: '-[RCTImageComponentView initWithFrame:]', symObjAddr: 0x0, symBinAddr: 0x12DE8, symSize: 0x188 }
  - { offset: 0x17ACDC, size: 0x8, addend: 0x0, symName: '+[RCTImageComponentView componentDescriptorProvider]', symObjAddr: 0x29C, symBinAddr: 0x1300C, symSize: 0x20 }
  - { offset: 0x17AD11, size: 0x8, addend: 0x0, symName: '+[RCTImageComponentView componentDescriptorProvider]', symObjAddr: 0x29C, symBinAddr: 0x1300C, symSize: 0x20 }
  - { offset: 0x17ADE3, size: 0x8, addend: 0x0, symName: '-[RCTImageComponentView updateProps:oldProps:]', symObjAddr: 0x2BC, symBinAddr: 0x1302C, symSize: 0xF8 }
  - { offset: 0x17AF14, size: 0x8, addend: 0x0, symName: '-[RCTImageComponentView accessibilityElement]', symObjAddr: 0x3B4, symBinAddr: 0x13124, symSize: 0x10 }
  - { offset: 0x17B387, size: 0x8, addend: 0x0, symName: '-[RCTImageComponentView updateState:oldState:]', symObjAddr: 0x3C4, symBinAddr: 0x13134, symSize: 0x37C }
  - { offset: 0x17CD81, size: 0x8, addend: 0x0, symName: __ZNSt3__113__tuple_equalILm2EEclB8ne200100INS_5tupleIJRKN8facebook5react11ImageSource4TypeERKNS_12basic_stringIcNS_11char_traitsIcEENS_9allocatorIcEEEEEEESI_EEbRKT_RKT0_, symObjAddr: 0x1428, symBinAddr: 0x14120, symSize: 0x8C }
  - { offset: 0x17CDCE, size: 0x8, addend: 0x0, symName: __ZNSt3__113__tuple_equalILm2EEclB8ne200100INS_5tupleIJRKN8facebook5react11ImageSource4TypeERKNS_12basic_stringIcNS_11char_traitsIcEENS_9allocatorIcEEEEEEESI_EEbRKT_RKT0_, symObjAddr: 0x1428, symBinAddr: 0x14120, symSize: 0x8C }
  - { offset: 0x17CDF3, size: 0x8, addend: 0x0, symName: __ZNSt3__113__tuple_equalILm2EEclB8ne200100INS_5tupleIJRKN8facebook5react11ImageSource4TypeERKNS_12basic_stringIcNS_11char_traitsIcEENS_9allocatorIcEEEEEEESI_EEbRKT_RKT0_, symObjAddr: 0x1428, symBinAddr: 0x14120, symSize: 0x8C }
  - { offset: 0x17CE11, size: 0x8, addend: 0x0, symName: __ZNSt3__113__tuple_equalILm2EEclB8ne200100INS_5tupleIJRKN8facebook5react11ImageSource4TypeERKNS_12basic_stringIcNS_11char_traitsIcEENS_9allocatorIcEEEEEEESI_EEbRKT_RKT0_, symObjAddr: 0x1428, symBinAddr: 0x14120, symSize: 0x8C }
  - { offset: 0x17D055, size: 0x8, addend: 0x0, symName: __ZNSt3__16vectorINS_4pairINS_12basic_stringIcNS_11char_traitsIcEENS_9allocatorIcEEEES7_EENS5_IS8_EEE16__destroy_vectorclB8ne200100Ev, symObjAddr: 0x14C4, symBinAddr: 0x141AC, symSize: 0x70 }
  - { offset: 0x17D198, size: 0x8, addend: 0x0, symName: __ZN8facebook5react11ImageSourceD1Ev, symObjAddr: 0x740, symBinAddr: 0x134B0, symSize: 0x78 }
  - { offset: 0x17D6EF, size: 0x8, addend: 0x0, symName: '-[RCTImageComponentView _setStateAndResubscribeImageResponseObserver:]', symObjAddr: 0x7B8, symBinAddr: 0x13528, symSize: 0x8C }
  - { offset: 0x17DA16, size: 0x8, addend: 0x0, symName: '-[RCTImageComponentView prepareForRecycle]', symObjAddr: 0x8BC, symBinAddr: 0x135B4, symSize: 0xB0 }
  - { offset: 0x17DDA2, size: 0x8, addend: 0x0, symName: '-[RCTImageComponentView didReceiveImage:metadata:fromObserver:]', symObjAddr: 0x96C, symBinAddr: 0x13664, symSize: 0x27C }
  - { offset: 0x17E54F, size: 0x8, addend: 0x0, symName: '___63-[RCTImageComponentView didReceiveImage:metadata:fromObserver:]_block_invoke', symObjAddr: 0xBE8, symBinAddr: 0x138E0, symSize: 0x9C }
  - { offset: 0x17E615, size: 0x8, addend: 0x0, symName: '___63-[RCTImageComponentView didReceiveImage:metadata:fromObserver:]_block_invoke_2', symObjAddr: 0xC84, symBinAddr: 0x1397C, symSize: 0x14 }
  - { offset: 0x17E668, size: 0x8, addend: 0x0, symName: ___copy_helper_block_ea8_32s40s, symObjAddr: 0xC98, symBinAddr: 0x13990, symSize: 0x28 }
  - { offset: 0x17E691, size: 0x8, addend: 0x0, symName: ___destroy_helper_block_ea8_32s40s, symObjAddr: 0xCC0, symBinAddr: 0x139B8, symSize: 0x28 }
  - { offset: 0x17E6B0, size: 0x8, addend: 0x0, symName: '-[RCTImageComponentView didReceiveProgress:loaded:total:fromObserver:]', symObjAddr: 0xCE8, symBinAddr: 0x139E0, symSize: 0x28 }
  - { offset: 0x17EAB3, size: 0x8, addend: 0x0, symName: '-[RCTImageComponentView didReceiveFailure:fromObserver:]', symObjAddr: 0xD10, symBinAddr: 0x13A08, symSize: 0x494 }
  - { offset: 0x17FDFE, size: 0x8, addend: 0x0, symName: __ZNSt3__16vectorINS_4pairINS_12basic_stringIcNS_11char_traitsIcEENS_9allocatorIcEEEES7_EENS5_IS8_EEE9push_backB8ne200100EOS8_, symObjAddr: 0x11A4, symBinAddr: 0x13E9C, symSize: 0x15C }
  - { offset: 0x18033F, size: 0x8, addend: 0x0, symName: __ZNSt3__14pairINS_12basic_stringIcNS_11char_traitsIcEENS_9allocatorIcEEEES6_ED1Ev, symObjAddr: 0x1300, symBinAddr: 0x13FF8, symSize: 0x40 }
  - { offset: 0x18046D, size: 0x8, addend: 0x0, symName: __ZNSt3__16vectorINS_4pairINS_12basic_stringIcNS_11char_traitsIcEENS_9allocatorIcEEEES7_EENS5_IS8_EEE16__init_with_sizeB8ne200100IPS8_SC_EEvT_T0_m, symObjAddr: 0x17F0, symBinAddr: 0x142F0, symSize: 0x84 }
  - { offset: 0x180478, size: 0x8, addend: 0x0, symName: __ZNSt3__16vectorINS_4pairINS_12basic_stringIcNS_11char_traitsIcEENS_9allocatorIcEEEES7_EENS5_IS8_EEE16__init_with_sizeB8ne200100IPS8_SC_EEvT_T0_m, symObjAddr: 0x17F0, symBinAddr: 0x142F0, symSize: 0x84 }
  - { offset: 0x1806DC, size: 0x8, addend: 0x0, symName: __ZN8facebook5react14ImageErrorInfoD1Ev, symObjAddr: 0x1340, symBinAddr: 0x14038, symSize: 0x48 }
  - { offset: 0x1808B0, size: 0x8, addend: 0x0, symName: __ZNSt3__14pairINS_12basic_stringIcNS_11char_traitsIcEENS_9allocatorIcEEEES6_ED1Ev, symObjAddr: 0x1300, symBinAddr: 0x13FF8, symSize: 0x40 }
  - { offset: 0x180D5A, size: 0x8, addend: 0x0, symName: __ZNSt3__114__split_bufferINS_4pairINS_12basic_stringIcNS_11char_traitsIcEENS_9allocatorIcEEEES7_EERNS5_IS8_EEED2Ev, symObjAddr: 0x1724, symBinAddr: 0x142A4, symSize: 0x4C }
  - { offset: 0x180E97, size: 0x8, addend: 0x0, symName: __ZNSt3__119__allocate_at_leastB8ne200100INS_9allocatorINS_4pairINS_12basic_stringIcNS_11char_traitsIcEENS1_IcEEEES7_EEEEEENS_19__allocation_resultINS_16allocator_traitsIT_E7pointerEEERSC_m, symObjAddr: 0x16E0, symBinAddr: 0x14260, symSize: 0x44 }
  - { offset: 0x180EA2, size: 0x8, addend: 0x0, symName: '-[RCTImageComponentView .cxx_destruct]', symObjAddr: 0x1388, symBinAddr: 0x14080, symSize: 0x50 }
  - { offset: 0x180F62, size: 0x8, addend: 0x0, symName: '-[RCTImageComponentView .cxx_construct]', symObjAddr: 0x13D8, symBinAddr: 0x140D0, symSize: 0x44 }
  - { offset: 0x180FD3, size: 0x8, addend: 0x0, symName: _RCTImageCls, symObjAddr: 0x141C, symBinAddr: 0x14114, symSize: 0xC }
  - { offset: 0x18155D, size: 0x8, addend: 0x0, symName: __ZNSt3__16vectorINS_4pairINS_12basic_stringIcNS_11char_traitsIcEENS_9allocatorIcEEEES7_EENS5_IS8_EEE11__vallocateB8ne200100Em, symObjAddr: 0x1874, symBinAddr: 0x14374, symSize: 0x48 }
  - { offset: 0x1815B6, size: 0x8, addend: 0x0, symName: __ZNSt3__135__uninitialized_allocator_copy_implB8ne200100INS_9allocatorINS_4pairINS_12basic_stringIcNS_11char_traitsIcEENS1_IcEEEES7_EEEEPS8_SA_SA_EET2_RT_T0_T1_SB_, symObjAddr: 0x18BC, symBinAddr: 0x143BC, symSize: 0x84 }
  - { offset: 0x18167C, size: 0x8, addend: 0x0, symName: __ZNSt3__14pairINS_12basic_stringIcNS_11char_traitsIcEENS_9allocatorIcEEEES6_EC2B8ne200100ERKS7_, symObjAddr: 0x1940, symBinAddr: 0x14440, symSize: 0x90 }
  - { offset: 0x181894, size: 0x8, addend: 0x0, symName: __ZNSt3__110shared_ptrIKN8facebook5react10ImagePropsEED1B8ne200100Ev, symObjAddr: 0x19D0, symBinAddr: 0x144D0, symSize: 0x4 }
  - { offset: 0x1818C0, size: 0x8, addend: 0x0, symName: __ZNSt3__110shared_ptrIKN8facebook5react10ImagePropsEED1B8ne200100Ev, symObjAddr: 0x19D0, symBinAddr: 0x144D0, symSize: 0x4 }
  - { offset: 0x181B43, size: 0x8, addend: 0x0, symName: __ZNSt3__120__shared_ptr_emplaceIKN8facebook5react10ImagePropsENS_9allocatorIS3_EEEC2B8ne200100IJES6_Li0EEES6_DpOT_, symObjAddr: 0x1A1C, symBinAddr: 0x1451C, symSize: 0x58 }
  - { offset: 0x181CC0, size: 0x8, addend: 0x0, symName: __ZN8facebook5react10ImagePropsC1Ev, symObjAddr: 0x1AC0, symBinAddr: 0x145C0, symSize: 0x140 }
  - { offset: 0x18205B, size: 0x8, addend: 0x0, symName: __ZNSt3__120__shared_ptr_emplaceIKN8facebook5react10ImagePropsENS_9allocatorIS3_EEED1Ev, symObjAddr: 0x1A74, symBinAddr: 0x14574, symSize: 0x14 }
  - { offset: 0x18207D, size: 0x8, addend: 0x0, symName: __ZNSt3__120__shared_ptr_emplaceIKN8facebook5react10ImagePropsENS_9allocatorIS3_EEED1Ev, symObjAddr: 0x1A74, symBinAddr: 0x14574, symSize: 0x14 }
  - { offset: 0x1820B1, size: 0x8, addend: 0x0, symName: __ZNSt3__120__shared_ptr_emplaceIKN8facebook5react10ImagePropsENS_9allocatorIS3_EEED0Ev, symObjAddr: 0x1A88, symBinAddr: 0x14588, symSize: 0x24 }
  - { offset: 0x182199, size: 0x8, addend: 0x0, symName: __ZNSt3__120__shared_ptr_emplaceIKN8facebook5react10ImagePropsENS_9allocatorIS3_EEE16__on_zero_sharedEv, symObjAddr: 0x1AAC, symBinAddr: 0x145AC, symSize: 0x10 }
  - { offset: 0x1821C1, size: 0x8, addend: 0x0, symName: __ZNSt3__120__shared_ptr_emplaceIKN8facebook5react10ImagePropsENS_9allocatorIS3_EEE16__on_zero_sharedEv, symObjAddr: 0x1AAC, symBinAddr: 0x145AC, symSize: 0x10 }
  - { offset: 0x182232, size: 0x8, addend: 0x0, symName: __ZN8facebook5react10ImagePropsD2Ev, symObjAddr: 0x29B0, symBinAddr: 0x1480C, symSize: 0x114 }
  - { offset: 0x18304F, size: 0x8, addend: 0x0, symName: __ZNSt3__120__shared_ptr_emplaceIKN8facebook5react10ImagePropsENS_9allocatorIS3_EEE21__on_zero_shared_weakEv, symObjAddr: 0x1ABC, symBinAddr: 0x145BC, symSize: 0x4 }
  - { offset: 0x183082, size: 0x8, addend: 0x0, symName: __ZNSt3__120__shared_ptr_emplaceIKN8facebook5react10ImagePropsENS_9allocatorIS3_EEE21__on_zero_shared_weakEv, symObjAddr: 0x1ABC, symBinAddr: 0x145BC, symSize: 0x4 }
  - { offset: 0x1830A4, size: 0x8, addend: 0x0, symName: __ZNSt3__120__shared_ptr_emplaceIKN8facebook5react10ImagePropsENS_9allocatorIS3_EEE21__on_zero_shared_weakEv, symObjAddr: 0x1ABC, symBinAddr: 0x145BC, symSize: 0x4 }
  - { offset: 0x1830C7, size: 0x8, addend: 0x0, symName: __ZNSt3__120__shared_ptr_emplaceIKN8facebook5react10ImagePropsENS_9allocatorIS3_EEE21__on_zero_shared_weakEv, symObjAddr: 0x1ABC, symBinAddr: 0x145BC, symSize: 0x4 }
  - { offset: 0x1830FE, size: 0x8, addend: 0x0, symName: __ZNSt3__120__shared_ptr_emplaceIKN8facebook5react10ImagePropsENS_9allocatorIS3_EEE21__on_zero_shared_weakEv, symObjAddr: 0x1ABC, symBinAddr: 0x145BC, symSize: 0x4 }
  - { offset: 0x1872B4, size: 0x8, addend: 0x0, symName: __ZN8facebook5react10ImagePropsD1Ev, symObjAddr: 0x211C, symBinAddr: 0x14700, symSize: 0xC }
  - { offset: 0x1872E9, size: 0x8, addend: 0x0, symName: __ZN8facebook5react10ImagePropsD0Ev, symObjAddr: 0x2128, symBinAddr: 0x1470C, symSize: 0x1C }
  - { offset: 0x1888DB, size: 0x8, addend: 0x0, symName: __ZNSt3__16vectorIN8facebook5react11ImageSourceENS_9allocatorIS3_EEE16__destroy_vectorclB8ne200100Ev, symObjAddr: 0x28CC, symBinAddr: 0x14728, symSize: 0x70 }
  - { offset: 0x188B65, size: 0x8, addend: 0x0, symName: __ZNSt3__110unique_ptrIKN8facebook5react24ImageComponentDescriptorENS_14default_deleteIS4_EEE5resetB8ne200100EPS4_, symObjAddr: 0x2B88, symBinAddr: 0x1498C, symSize: 0x40 }
  - { offset: 0x189503, size: 0x8, addend: 0x0, symName: __GLOBAL__sub_I_RCTImageComponentView.mm, symObjAddr: 0x3050, symBinAddr: 0x149CC, symSize: 0x20 }
  - { offset: 0x18BAB0, size: 0x8, addend: 0x0, symName: __ZN8facebook5react29RCTImageResponseObserverProxyC2EPU35objcproto24RCTImageResponseDelegate11objc_object, symObjAddr: 0x0, symBinAddr: 0x149EC, symSize: 0x30 }
  - { offset: 0x18C7B5, size: 0x8, addend: 0x0, symName: __ZN8facebook5react29RCTImageResponseObserverProxyC2EPU35objcproto24RCTImageResponseDelegate11objc_object, symObjAddr: 0x0, symBinAddr: 0x149EC, symSize: 0x30 }
  - { offset: 0x18C80C, size: 0x8, addend: 0x0, symName: __ZN8facebook5react29RCTImageResponseObserverProxyC1EPU35objcproto24RCTImageResponseDelegate11objc_object, symObjAddr: 0x30, symBinAddr: 0x14A1C, symSize: 0x30 }
  - { offset: 0x18C8EA, size: 0x8, addend: 0x0, symName: __ZNK8facebook5react29RCTImageResponseObserverProxy15didReceiveImageERKNS0_13ImageResponseE, symObjAddr: 0x60, symBinAddr: 0x14A4C, symSize: 0x198 }
  - { offset: 0x18CB49, size: 0x8, addend: 0x0, symName: ____ZNK8facebook5react29RCTImageResponseObserverProxy15didReceiveImageERKNS0_13ImageResponseE_block_invoke, symObjAddr: 0x1F8, symBinAddr: 0x14BE4, symSize: 0x10 }
  - { offset: 0x18CBB4, size: 0x8, addend: 0x0, symName: ___copy_helper_block_ea8_32s40s48s, symObjAddr: 0x208, symBinAddr: 0x14BF4, symSize: 0x30 }
  - { offset: 0x18CBDD, size: 0x8, addend: 0x0, symName: ___destroy_helper_block_ea8_32s40s48s, symObjAddr: 0x238, symBinAddr: 0x14C24, symSize: 0x30 }
  - { offset: 0x18CBFC, size: 0x8, addend: 0x0, symName: __ZNK8facebook5react29RCTImageResponseObserverProxy18didReceiveProgressEfxx, symObjAddr: 0x268, symBinAddr: 0x14C54, symSize: 0xB4 }
  - { offset: 0x18CC86, size: 0x8, addend: 0x0, symName: ____ZNK8facebook5react29RCTImageResponseObserverProxy18didReceiveProgressEfxx_block_invoke, symObjAddr: 0x31C, symBinAddr: 0x14D08, symSize: 0x14 }
  - { offset: 0x18CD01, size: 0x8, addend: 0x0, symName: __ZNK8facebook5react29RCTImageResponseObserverProxy17didReceiveFailureERKNS0_14ImageLoadErrorE, symObjAddr: 0x340, symBinAddr: 0x14D1C, symSize: 0x110 }
  - { offset: 0x18CE55, size: 0x8, addend: 0x0, symName: ____ZNK8facebook5react29RCTImageResponseObserverProxy17didReceiveFailureERKNS0_14ImageLoadErrorE_block_invoke, symObjAddr: 0x450, symBinAddr: 0x14E2C, symSize: 0x10 }
  - { offset: 0x18CECB, size: 0x8, addend: 0x0, symName: __ZN8facebook5react29RCTImageResponseObserverProxyD1Ev, symObjAddr: 0x4B0, symBinAddr: 0x14E3C, symSize: 0x28 }
  - { offset: 0x18CF24, size: 0x8, addend: 0x0, symName: __ZN8facebook5react29RCTImageResponseObserverProxyD0Ev, symObjAddr: 0x4D8, symBinAddr: 0x14E64, symSize: 0x28 }
  - { offset: 0x18F013, size: 0x8, addend: 0x0, symName: __ZN8facebook5react17HostPlatformColorL14UndefinedColorE, symObjAddr: 0x196DB0, symBinAddr: 0x9FDA0, symSize: 0x0 }
  - { offset: 0x19257E, size: 0x8, addend: 0x0, symName: __ZN8facebook5react38concreteComponentDescriptorConstructorINS0_33InputAccessoryComponentDescriptorEEENSt3__110unique_ptrIKNS0_19ComponentDescriptorENS3_14default_deleteIS6_EEEERKNS0_29ComponentDescriptorParametersE, symObjAddr: 0x1920, symBinAddr: 0x159C4, symSize: 0x34 }
  - { offset: 0x1B08C9, size: 0x8, addend: 0x0, symName: __ZNSt3__115allocate_sharedB8ne200100IKN8facebook5react19InputAccessoryPropsENS_9allocatorIS3_EEJELi0EEENS_10shared_ptrIT_EERKT0_DpOT1_, symObjAddr: 0xA30, symBinAddr: 0x157E0, symSize: 0x48 }
  - { offset: 0x1B1B85, size: 0x8, addend: 0x0, symName: __ZNSt3__111make_uniqueB8ne200100IKN8facebook5react33InputAccessoryComponentDescriptorEJRKNS2_29ComponentDescriptorParametersEELi0EEENS_10unique_ptrIT_NS_14default_deleteIS9_EEEEDpOT0_, symObjAddr: 0x1954, symBinAddr: 0x159F8, symSize: 0xE4 }
  - { offset: 0x1B24E4, size: 0x8, addend: 0x0, symName: __ZNSt3__115allocate_sharedB8ne200100IN8facebook5react24InputAccessoryShadowNodeENS_9allocatorIS3_EEJRKNS2_18ShadowNodeFragmentERKNS_10shared_ptrIKNS2_16ShadowNodeFamilyEEENS2_16ShadowNodeTraitsEELi0EEENS9_IT_EERKT0_DpOT1_, symObjAddr: 0x26D4, symBinAddr: 0x16470, symSize: 0x70 }
  - { offset: 0x1B2807, size: 0x8, addend: 0x0, symName: __ZNSt3__115allocate_sharedB8ne200100IN8facebook5react24InputAccessoryShadowNodeENS_9allocatorIS3_EEJRKNS2_10ShadowNodeERKNS2_18ShadowNodeFragmentEELi0EEENS_10shared_ptrIT_EERKT0_DpOT1_, symObjAddr: 0x2DF0, symBinAddr: 0x167D4, symSize: 0x60 }
  - { offset: 0x1B319D, size: 0x8, addend: 0x0, symName: __ZNSt3__115allocate_sharedB8ne200100IN8facebook5react13ConcreteStateINS2_19InputAccessoryStateEEENS_9allocatorIS5_EEJNS_10shared_ptrIKS4_EERKNS8_IKNS2_16ShadowNodeFamilyEEEELi0EEENS8_IT_EERKT0_DpOT1_, symObjAddr: 0x32FC, symBinAddr: 0x16A2C, symSize: 0x60 }
  - { offset: 0x1B34CB, size: 0x8, addend: 0x0, symName: __ZNSt3__115allocate_sharedB8ne200100IKN8facebook5react13ConcreteStateINS2_19InputAccessoryStateEEENS_9allocatorIS5_EEJNS_10shared_ptrIKS4_EERKNS2_5StateEELi0EEENS9_IT_EERKT0_DpOT1_, symObjAddr: 0x367C, symBinAddr: 0x16D54, symSize: 0x60 }
  - { offset: 0x1B3C39, size: 0x8, addend: 0x0, symName: __ZNSt3__115allocate_sharedB8ne200100IKN8facebook5react26InputAccessoryEventEmitterENS_9allocatorIS3_EEJNS_10shared_ptrINS2_11EventTargetEEERKNS_8weak_ptrIKNS2_15EventDispatcherEEEELi0EEENS7_IT_EERKT0_DpOT1_, symObjAddr: 0x3890, symBinAddr: 0x16F68, symSize: 0x60 }
  - { offset: 0x1B3EE8, size: 0x8, addend: 0x0, symName: __ZNSt3__115allocate_sharedB8ne200100IN8facebook5react16ShadowNodeFamilyENS_9allocatorIS3_EEJRKNS2_24ShadowNodeFamilyFragmentERNS_10shared_ptrIKNS2_26InputAccessoryEventEmitterEEERKNS_8weak_ptrIKNS2_15EventDispatcherEEERKNS2_27ConcreteComponentDescriptorINS2_24InputAccessoryShadowNodeEEEELi0EEENS9_IT_EERKT0_DpOT1_, symObjAddr: 0x3F5C, symBinAddr: 0x17208, symSize: 0x78 }
  - { offset: 0x1B4EDC, size: 0x8, addend: 0x0, symName: __ZNSt3__115allocate_sharedB8ne200100IN8facebook5react19InputAccessoryPropsENS_9allocatorIS3_EEJRKNS2_18PropsParserContextERKS3_RKNS2_8RawPropsEELi0EEENS_10shared_ptrIT_EERKT0_DpOT1_, symObjAddr: 0x2F74, symBinAddr: 0x16900, symSize: 0x70 }
  - { offset: 0x1B5BD8, size: 0x8, addend: 0x0, symName: __ZNSt3__112construct_atB8ne200100IN8facebook5react13ConcreteStateINS2_19InputAccessoryStateEEEJNS_10shared_ptrIKS4_EERKNS6_IKNS2_16ShadowNodeFamilyEEEEPS5_EEPT_SG_DpOT0_, symObjAddr: 0x33F0, symBinAddr: 0x16B20, symSize: 0xC8 }
  - { offset: 0x1B631D, size: 0x8, addend: 0x0, symName: __ZNSt3__112construct_atB8ne200100IN8facebook5react13ConcreteStateINS2_19InputAccessoryStateEEEJNS_10shared_ptrIKS4_EERKNS2_5StateEEPS5_EEPT_SE_DpOT0_, symObjAddr: 0x3770, symBinAddr: 0x16E48, symSize: 0x88 }
  - { offset: 0x1B6969, size: 0x8, addend: 0x0, symName: __ZNSt3__112construct_atB8ne200100IN8facebook5react26InputAccessoryEventEmitterEJNS_10shared_ptrINS2_11EventTargetEEERKNS_8weak_ptrIKNS2_15EventDispatcherEEEEPS3_EEPT_SF_DpOT0_, symObjAddr: 0x3984, symBinAddr: 0x1705C, symSize: 0x140 }
  - { offset: 0x1B75D3, size: 0x8, addend: 0x0, symName: __ZNSt3__112construct_atB8ne200100IN8facebook5react16ShadowNodeFamilyEJRKNS2_24ShadowNodeFamilyFragmentERNS_10shared_ptrIKNS2_26InputAccessoryEventEmitterEEERKNS_8weak_ptrIKNS2_15EventDispatcherEEERKNS2_27ConcreteComponentDescriptorINS2_24InputAccessoryShadowNodeEEEEPS3_EEPT_SP_DpOT0_, symObjAddr: 0x4064, symBinAddr: 0x172CC, symSize: 0xDC }
  - { offset: 0x1B8034, size: 0x8, addend: 0x0, symName: __ZNSt3__125__throw_bad_function_callB8ne200100Ev, symObjAddr: 0x47C0, symBinAddr: 0x178C8, symSize: 0x34 }
  - { offset: 0x1BD054, size: 0x8, addend: 0x0, symName: __ZN8facebook5react18ConcreteShadowNodeIXadL_ZNS0_27InputAccessoryComponentNameEEENS0_24YogaLayoutableShadowNodeENS0_19InputAccessoryPropsENS0_26InputAccessoryEventEmitterENS0_19InputAccessoryStateEE18defaultSharedPropsEv, symObjAddr: 0xDC, symBinAddr: 0x14F68, symSize: 0x9C }
  - { offset: 0x1BD074, size: 0x8, addend: 0x0, symName: __ZZN8facebook5react18ConcreteShadowNodeIXadL_ZNS0_27InputAccessoryComponentNameEEENS0_24YogaLayoutableShadowNodeENS0_19InputAccessoryPropsENS0_26InputAccessoryEventEmitterENS0_19InputAccessoryStateEE18defaultSharedPropsEvE18defaultSharedProps, symObjAddr: 0x53E8, symBinAddr: 0x9F3E0, symSize: 0x0 }
  - { offset: 0x1BD3C8, size: 0x8, addend: 0x0, symName: __ZNK8facebook5react13ConcreteStateINS0_19InputAccessoryStateEE11updateStateENSt3__18functionIFNS4_10shared_ptrIKvEERKS2_EEE, symObjAddr: 0x42A0, symBinAddr: 0x173A8, symSize: 0x204 }
  - { offset: 0x1BDC54, size: 0x8, addend: 0x0, symName: __ZNK8facebook5react13ConcreteStateINS0_19InputAccessoryStateEE11updateStateEOS2_, symObjAddr: 0x7AC, symBinAddr: 0x1555C, symSize: 0xD0 }
  - { offset: 0x1BDFB6, size: 0x8, addend: 0x0, symName: '-[RCTInputAccessoryComponentView initWithFrame:]', symObjAddr: 0x0, symBinAddr: 0x14E8C, symSize: 0xDC }
  - { offset: 0x1BE240, size: 0x8, addend: 0x0, symName: '-[RCTInputAccessoryComponentView didMoveToWindow]', symObjAddr: 0x1F0, symBinAddr: 0x15004, symSize: 0x178 }
  - { offset: 0x1BE2A0, size: 0x8, addend: 0x0, symName: __ZL28RCTFindTextInputWithNativeIdP6UIViewP8NSString, symObjAddr: 0x368, symBinAddr: 0x1517C, symSize: 0x1D4 }
  - { offset: 0x1BE33B, size: 0x8, addend: 0x0, symName: '-[RCTInputAccessoryComponentView canBecomeFirstResponder]', symObjAddr: 0x53C, symBinAddr: 0x15350, symSize: 0x8 }
  - { offset: 0x1BE36C, size: 0x8, addend: 0x0, symName: '-[RCTInputAccessoryComponentView inputAccessoryView]', symObjAddr: 0x544, symBinAddr: 0x15358, symSize: 0x10 }
  - { offset: 0x1BE415, size: 0x8, addend: 0x0, symName: '+[RCTInputAccessoryComponentView componentDescriptorProvider]', symObjAddr: 0x554, symBinAddr: 0x15368, symSize: 0x20 }
  - { offset: 0x1BE448, size: 0x8, addend: 0x0, symName: '+[RCTInputAccessoryComponentView componentDescriptorProvider]', symObjAddr: 0x554, symBinAddr: 0x15368, symSize: 0x20 }
  - { offset: 0x1BE4A8, size: 0x8, addend: 0x0, symName: '-[RCTInputAccessoryComponentView mountChildComponentView:index:]', symObjAddr: 0x574, symBinAddr: 0x15388, symSize: 0x10 }
  - { offset: 0x1BE4F5, size: 0x8, addend: 0x0, symName: '-[RCTInputAccessoryComponentView unmountChildComponentView:index:]', symObjAddr: 0x584, symBinAddr: 0x15398, symSize: 0x8 }
  - { offset: 0x1BE5B2, size: 0x8, addend: 0x0, symName: '-[RCTInputAccessoryComponentView updateProps:oldProps:]', symObjAddr: 0x58C, symBinAddr: 0x153A0, symSize: 0xC0 }
  - { offset: 0x1BE870, size: 0x8, addend: 0x0, symName: '-[RCTInputAccessoryComponentView updateState:oldState:]', symObjAddr: 0x64C, symBinAddr: 0x15460, symSize: 0xFC }
  - { offset: 0x1BEFA9, size: 0x8, addend: 0x0, symName: '-[RCTInputAccessoryComponentView updateLayoutMetrics:oldLayoutMetrics:]', symObjAddr: 0x87C, symBinAddr: 0x1562C, symSize: 0x70 }
  - { offset: 0x1BF014, size: 0x8, addend: 0x0, symName: '-[RCTInputAccessoryComponentView prepareForRecycle]', symObjAddr: 0x8EC, symBinAddr: 0x1569C, symSize: 0x64 }
  - { offset: 0x1BF053, size: 0x8, addend: 0x0, symName: __ZNSt3__110shared_ptrIKN8facebook5react13ConcreteStateINS2_19InputAccessoryStateEEEE5resetB8ne200100Ev, symObjAddr: 0x950, symBinAddr: 0x15700, symSize: 0x5C }
  - { offset: 0x1BF15D, size: 0x8, addend: 0x0, symName: '-[RCTInputAccessoryComponentView .cxx_destruct]', symObjAddr: 0x9AC, symBinAddr: 0x1575C, symSize: 0x60 }
  - { offset: 0x1BF234, size: 0x8, addend: 0x0, symName: '-[RCTInputAccessoryComponentView .cxx_construct]', symObjAddr: 0xA0C, symBinAddr: 0x157BC, symSize: 0x14 }
  - { offset: 0x1BF2A1, size: 0x8, addend: 0x0, symName: _RCTInputAccessoryCls, symObjAddr: 0xA20, symBinAddr: 0x157D0, symSize: 0xC }
  - { offset: 0x1BF2BB, size: 0x8, addend: 0x0, symName: __ZNSt3__110shared_ptrIKN8facebook5react19InputAccessoryPropsEED1B8ne200100Ev, symObjAddr: 0xA2C, symBinAddr: 0x157DC, symSize: 0x4 }
  - { offset: 0x1BF2E7, size: 0x8, addend: 0x0, symName: __ZNSt3__110shared_ptrIKN8facebook5react19InputAccessoryPropsEED1B8ne200100Ev, symObjAddr: 0xA2C, symBinAddr: 0x157DC, symSize: 0x4 }
  - { offset: 0x1BF56F, size: 0x8, addend: 0x0, symName: __ZNSt3__120__shared_ptr_emplaceIKN8facebook5react19InputAccessoryPropsENS_9allocatorIS3_EEEC2B8ne200100IJES6_Li0EEES6_DpOT_, symObjAddr: 0xA78, symBinAddr: 0x15828, symSize: 0x58 }
  - { offset: 0x1BF6EC, size: 0x8, addend: 0x0, symName: __ZN8facebook5react19InputAccessoryPropsC1Ev, symObjAddr: 0xB40, symBinAddr: 0x158F0, symSize: 0x68 }
  - { offset: 0x1BF885, size: 0x8, addend: 0x0, symName: __ZNSt3__120__shared_ptr_emplaceIKN8facebook5react19InputAccessoryPropsENS_9allocatorIS3_EEED1Ev, symObjAddr: 0xAD0, symBinAddr: 0x15880, symSize: 0x14 }
  - { offset: 0x1BF8A7, size: 0x8, addend: 0x0, symName: __ZNSt3__120__shared_ptr_emplaceIKN8facebook5react19InputAccessoryPropsENS_9allocatorIS3_EEED1Ev, symObjAddr: 0xAD0, symBinAddr: 0x15880, symSize: 0x14 }
  - { offset: 0x1BF8DB, size: 0x8, addend: 0x0, symName: __ZNSt3__120__shared_ptr_emplaceIKN8facebook5react19InputAccessoryPropsENS_9allocatorIS3_EEED0Ev, symObjAddr: 0xAE4, symBinAddr: 0x15894, symSize: 0x24 }
  - { offset: 0x1BFA77, size: 0x8, addend: 0x0, symName: __ZNSt3__120__shared_ptr_emplaceIKN8facebook5react19InputAccessoryPropsENS_9allocatorIS3_EEE16__on_zero_sharedEv, symObjAddr: 0xB08, symBinAddr: 0x158B8, symSize: 0x34 }
  - { offset: 0x1C007E, size: 0x8, addend: 0x0, symName: __ZNSt3__120__shared_ptr_emplaceIKN8facebook5react19InputAccessoryPropsENS_9allocatorIS3_EEE21__on_zero_shared_weakEv, symObjAddr: 0xB3C, symBinAddr: 0x158EC, symSize: 0x4 }
  - { offset: 0x1C00B1, size: 0x8, addend: 0x0, symName: __ZNSt3__120__shared_ptr_emplaceIKN8facebook5react19InputAccessoryPropsENS_9allocatorIS3_EEE21__on_zero_shared_weakEv, symObjAddr: 0xB3C, symBinAddr: 0x158EC, symSize: 0x4 }
  - { offset: 0x1C00D3, size: 0x8, addend: 0x0, symName: __ZNSt3__120__shared_ptr_emplaceIKN8facebook5react19InputAccessoryPropsENS_9allocatorIS3_EEE21__on_zero_shared_weakEv, symObjAddr: 0xB3C, symBinAddr: 0x158EC, symSize: 0x4 }
  - { offset: 0x1C00F6, size: 0x8, addend: 0x0, symName: __ZNSt3__120__shared_ptr_emplaceIKN8facebook5react19InputAccessoryPropsENS_9allocatorIS3_EEE21__on_zero_shared_weakEv, symObjAddr: 0xB3C, symBinAddr: 0x158EC, symSize: 0x4 }
  - { offset: 0x1C012D, size: 0x8, addend: 0x0, symName: __ZNSt3__120__shared_ptr_emplaceIKN8facebook5react19InputAccessoryPropsENS_9allocatorIS3_EEE21__on_zero_shared_weakEv, symObjAddr: 0xB3C, symBinAddr: 0x158EC, symSize: 0x4 }
  - { offset: 0x1C3E5B, size: 0x8, addend: 0x0, symName: __ZN8facebook5react19InputAccessoryPropsD1Ev, symObjAddr: 0x10C4, symBinAddr: 0x15958, symSize: 0x34 }
  - { offset: 0x1C3F2E, size: 0x8, addend: 0x0, symName: __ZN8facebook5react19InputAccessoryPropsD0Ev, symObjAddr: 0x10F8, symBinAddr: 0x1598C, symSize: 0x38 }
  - { offset: 0x1C59F3, size: 0x8, addend: 0x0, symName: __ZN8facebook5react14RawPropsParser7prepareINS0_19InputAccessoryPropsEEEvv, symObjAddr: 0x21E0, symBinAddr: 0x16234, symSize: 0x220 }
  - { offset: 0x1C658A, size: 0x8, addend: 0x0, symName: __ZN8facebook5react33InputAccessoryComponentDescriptorD1Ev, symObjAddr: 0x1A88, symBinAddr: 0x15ADC, symSize: 0x4 }
  - { offset: 0x1C65AC, size: 0x8, addend: 0x0, symName: __ZN8facebook5react33InputAccessoryComponentDescriptorD1Ev, symObjAddr: 0x1A88, symBinAddr: 0x15ADC, symSize: 0x4 }
  - { offset: 0x1C65C7, size: 0x8, addend: 0x0, symName: __ZN8facebook5react33InputAccessoryComponentDescriptorD1Ev, symObjAddr: 0x1A88, symBinAddr: 0x15ADC, symSize: 0x4 }
  - { offset: 0x1C65E5, size: 0x8, addend: 0x0, symName: __ZN8facebook5react33InputAccessoryComponentDescriptorD1Ev, symObjAddr: 0x1A88, symBinAddr: 0x15ADC, symSize: 0x4 }
  - { offset: 0x1C68BD, size: 0x8, addend: 0x0, symName: __ZN8facebook5react33InputAccessoryComponentDescriptorD0Ev, symObjAddr: 0x1A8C, symBinAddr: 0x15AE0, symSize: 0x14 }
  - { offset: 0x1C6952, size: 0x8, addend: 0x0, symName: __ZNK8facebook5react27ConcreteComponentDescriptorINS0_24InputAccessoryShadowNodeEE18getComponentHandleEv, symObjAddr: 0x1AA0, symBinAddr: 0x15AF4, symSize: 0xC }
  - { offset: 0x1C6978, size: 0x8, addend: 0x0, symName: __ZNK8facebook5react27ConcreteComponentDescriptorINS0_24InputAccessoryShadowNodeEE16getComponentNameEv, symObjAddr: 0x1AAC, symBinAddr: 0x15B00, symSize: 0xC }
  - { offset: 0x1C699E, size: 0x8, addend: 0x0, symName: __ZNK8facebook5react27ConcreteComponentDescriptorINS0_24InputAccessoryShadowNodeEE9getTraitsEv, symObjAddr: 0x1AB8, symBinAddr: 0x15B0C, symSize: 0x8 }
  - { offset: 0x1C6A94, size: 0x8, addend: 0x0, symName: __ZNK8facebook5react27ConcreteComponentDescriptorINS0_24InputAccessoryShadowNodeEE16createShadowNodeERKNS0_18ShadowNodeFragmentERKNSt3__110shared_ptrIKNS0_16ShadowNodeFamilyEEE, symObjAddr: 0x1AC0, symBinAddr: 0x15B14, symSize: 0x90 }
  - { offset: 0x1C6D0C, size: 0x8, addend: 0x0, symName: __ZNK8facebook5react27ConcreteComponentDescriptorINS0_24InputAccessoryShadowNodeEE15cloneShadowNodeERKNS0_10ShadowNodeERKNS0_18ShadowNodeFragmentE, symObjAddr: 0x1B50, symBinAddr: 0x15BA4, symSize: 0xFC }
  - { offset: 0x1C705A, size: 0x8, addend: 0x0, symName: __ZNK8facebook5react27ConcreteComponentDescriptorINS0_24InputAccessoryShadowNodeEE11appendChildERKNSt3__110shared_ptrIKNS0_10ShadowNodeEEESA_, symObjAddr: 0x1C4C, symBinAddr: 0x15CA0, symSize: 0xC }
  - { offset: 0x1C70B0, size: 0x8, addend: 0x0, symName: __ZNK8facebook5react27ConcreteComponentDescriptorINS0_24InputAccessoryShadowNodeEE11appendChildERKNSt3__110shared_ptrIKNS0_10ShadowNodeEEESA_, symObjAddr: 0x1C4C, symBinAddr: 0x15CA0, symSize: 0xC }
  - { offset: 0x1C796A, size: 0x8, addend: 0x0, symName: __ZNK8facebook5react27ConcreteComponentDescriptorINS0_24InputAccessoryShadowNodeEE10clonePropsERKNS0_18PropsParserContextERKNSt3__110shared_ptrIKNS0_5PropsEEENS0_8RawPropsE, symObjAddr: 0x1C58, symBinAddr: 0x15CAC, symSize: 0x21C }
  - { offset: 0x1C848E, size: 0x8, addend: 0x0, symName: __ZN8facebook5react18ConcreteShadowNodeIXadL_ZNS0_27InputAccessoryComponentNameEEENS0_24YogaLayoutableShadowNodeENS0_19InputAccessoryPropsENS0_26InputAccessoryEventEmitterENS0_19InputAccessoryStateEE5PropsERKNS0_18PropsParserContextERKNS0_8RawPropsERKNSt3__110shared_ptrIKNS0_5PropsEEE, symObjAddr: 0x2F1C, symBinAddr: 0x168A8, symSize: 0x58 }
  - { offset: 0x1C89A5, size: 0x8, addend: 0x0, symName: __ZNK8facebook5react27ConcreteComponentDescriptorINS0_24InputAccessoryShadowNodeEE18createInitialStateERKNSt3__110shared_ptrIKNS0_5PropsEEERKNS5_IKNS0_16ShadowNodeFamilyEEE, symObjAddr: 0x1E74, symBinAddr: 0x15EC8, symSize: 0xC0 }
  - { offset: 0x1C8E5F, size: 0x8, addend: 0x0, symName: __ZNK8facebook5react27ConcreteComponentDescriptorINS0_24InputAccessoryShadowNodeEE11createStateERKNS0_16ShadowNodeFamilyERKNSt3__110shared_ptrIKvEE, symObjAddr: 0x1F34, symBinAddr: 0x15F88, symSize: 0x104 }
  - { offset: 0x1C944F, size: 0x8, addend: 0x0, symName: __ZNK8facebook5react27ConcreteComponentDescriptorINS0_24InputAccessoryShadowNodeEE12createFamilyERKNS0_24ShadowNodeFamilyFragmentE, symObjAddr: 0x2038, symBinAddr: 0x1608C, symSize: 0x168 }
  - { offset: 0x1C99AB, size: 0x8, addend: 0x0, symName: __ZNK8facebook5react33InputAccessoryComponentDescriptor5adoptERNS0_10ShadowNodeE, symObjAddr: 0x21A0, symBinAddr: 0x161F4, symSize: 0x40 }
  - { offset: 0x1CA179, size: 0x8, addend: 0x0, symName: __ZN8facebook5react27ConcreteComponentDescriptorINS0_24InputAccessoryShadowNodeEED1Ev, symObjAddr: 0x2400, symBinAddr: 0x16454, symSize: 0x4 }
  - { offset: 0x1CA19B, size: 0x8, addend: 0x0, symName: __ZN8facebook5react27ConcreteComponentDescriptorINS0_24InputAccessoryShadowNodeEED1Ev, symObjAddr: 0x2400, symBinAddr: 0x16454, symSize: 0x4 }
  - { offset: 0x1CA1B8, size: 0x8, addend: 0x0, symName: __ZN8facebook5react27ConcreteComponentDescriptorINS0_24InputAccessoryShadowNodeEED1Ev, symObjAddr: 0x2400, symBinAddr: 0x16454, symSize: 0x4 }
  - { offset: 0x1CA1E5, size: 0x8, addend: 0x0, symName: __ZN8facebook5react27ConcreteComponentDescriptorINS0_24InputAccessoryShadowNodeEED0Ev, symObjAddr: 0x2404, symBinAddr: 0x16458, symSize: 0x14 }
  - { offset: 0x1CA25E, size: 0x8, addend: 0x0, symName: __ZNK8facebook5react27ConcreteComponentDescriptorINS0_24InputAccessoryShadowNodeEE5adoptERNS0_10ShadowNodeE, symObjAddr: 0x2418, symBinAddr: 0x1646C, symSize: 0x4 }
  - { offset: 0x1CAA7D, size: 0x8, addend: 0x0, symName: __ZNSt3__120__shared_ptr_emplaceIN8facebook5react24InputAccessoryShadowNodeENS_9allocatorIS3_EEEC2B8ne200100IJRKNS2_18ShadowNodeFragmentERKNS_10shared_ptrIKNS2_16ShadowNodeFamilyEEENS2_16ShadowNodeTraitsEES5_Li0EEES5_DpOT_, symObjAddr: 0x2744, symBinAddr: 0x164E0, symSize: 0x78 }
  - { offset: 0x1CAE93, size: 0x8, addend: 0x0, symName: __ZNSt3__120__shared_ptr_emplaceIN8facebook5react24InputAccessoryShadowNodeENS_9allocatorIS3_EEED1Ev, symObjAddr: 0x27BC, symBinAddr: 0x16558, symSize: 0x14 }
  - { offset: 0x1CAEB5, size: 0x8, addend: 0x0, symName: __ZNSt3__120__shared_ptr_emplaceIN8facebook5react24InputAccessoryShadowNodeENS_9allocatorIS3_EEED1Ev, symObjAddr: 0x27BC, symBinAddr: 0x16558, symSize: 0x14 }
  - { offset: 0x1CAEE9, size: 0x8, addend: 0x0, symName: __ZNSt3__120__shared_ptr_emplaceIN8facebook5react24InputAccessoryShadowNodeENS_9allocatorIS3_EEED0Ev, symObjAddr: 0x27D0, symBinAddr: 0x1656C, symSize: 0x24 }
  - { offset: 0x1CAFB6, size: 0x8, addend: 0x0, symName: __ZNSt3__120__shared_ptr_emplaceIN8facebook5react24InputAccessoryShadowNodeENS_9allocatorIS3_EEE16__on_zero_sharedEv, symObjAddr: 0x27F4, symBinAddr: 0x16590, symSize: 0x8 }
  - { offset: 0x1CAFDE, size: 0x8, addend: 0x0, symName: __ZNSt3__120__shared_ptr_emplaceIN8facebook5react24InputAccessoryShadowNodeENS_9allocatorIS3_EEE16__on_zero_sharedEv, symObjAddr: 0x27F4, symBinAddr: 0x16590, symSize: 0x8 }
  - { offset: 0x1CAFFC, size: 0x8, addend: 0x0, symName: __ZNSt3__120__shared_ptr_emplaceIN8facebook5react24InputAccessoryShadowNodeENS_9allocatorIS3_EEE16__on_zero_sharedEv, symObjAddr: 0x27F4, symBinAddr: 0x16590, symSize: 0x8 }
  - { offset: 0x1CB03A, size: 0x8, addend: 0x0, symName: __ZNSt3__120__shared_ptr_emplaceIN8facebook5react24InputAccessoryShadowNodeENS_9allocatorIS3_EEE21__on_zero_shared_weakEv, symObjAddr: 0x27FC, symBinAddr: 0x16598, symSize: 0x4 }
  - { offset: 0x1CB06D, size: 0x8, addend: 0x0, symName: __ZNSt3__120__shared_ptr_emplaceIN8facebook5react24InputAccessoryShadowNodeENS_9allocatorIS3_EEE21__on_zero_shared_weakEv, symObjAddr: 0x27FC, symBinAddr: 0x16598, symSize: 0x4 }
  - { offset: 0x1CB08F, size: 0x8, addend: 0x0, symName: __ZNSt3__120__shared_ptr_emplaceIN8facebook5react24InputAccessoryShadowNodeENS_9allocatorIS3_EEE21__on_zero_shared_weakEv, symObjAddr: 0x27FC, symBinAddr: 0x16598, symSize: 0x4 }
  - { offset: 0x1CB0B2, size: 0x8, addend: 0x0, symName: __ZNSt3__120__shared_ptr_emplaceIN8facebook5react24InputAccessoryShadowNodeENS_9allocatorIS3_EEE21__on_zero_shared_weakEv, symObjAddr: 0x27FC, symBinAddr: 0x16598, symSize: 0x4 }
  - { offset: 0x1CB0E9, size: 0x8, addend: 0x0, symName: __ZNSt3__120__shared_ptr_emplaceIN8facebook5react24InputAccessoryShadowNodeENS_9allocatorIS3_EEE21__on_zero_shared_weakEv, symObjAddr: 0x27FC, symBinAddr: 0x16598, symSize: 0x4 }
  - { offset: 0x1CB353, size: 0x8, addend: 0x0, symName: __ZN8facebook5react24InputAccessoryShadowNodeD1Ev, symObjAddr: 0x2800, symBinAddr: 0x1659C, symSize: 0x70 }
  - { offset: 0x1CB8D3, size: 0x8, addend: 0x0, symName: __ZN8facebook5react24InputAccessoryShadowNodeD0Ev, symObjAddr: 0x2870, symBinAddr: 0x1660C, symSize: 0x74 }
  - { offset: 0x1CBCE1, size: 0x8, addend: 0x0, symName: __ZNK8facebook5react22ConcreteViewShadowNodeIXadL_ZNS0_27InputAccessoryComponentNameEEENS0_19InputAccessoryPropsENS0_26InputAccessoryEventEmitterENS0_19InputAccessoryStateEE12getTransformEv, symObjAddr: 0x28E4, symBinAddr: 0x16680, symSize: 0x40 }
  - { offset: 0x1CBD50, size: 0x8, addend: 0x0, symName: __ZNK8facebook5react22ConcreteViewShadowNodeIXadL_ZNS0_27InputAccessoryComponentNameEEENS0_19InputAccessoryPropsENS0_26InputAccessoryEventEmitterENS0_19InputAccessoryStateEE16canBeTouchTargetEv, symObjAddr: 0x2924, symBinAddr: 0x166C0, symSize: 0x18 }
  - { offset: 0x1CBD88, size: 0x8, addend: 0x0, symName: __ZNK8facebook5react22ConcreteViewShadowNodeIXadL_ZNS0_27InputAccessoryComponentNameEEENS0_19InputAccessoryPropsENS0_26InputAccessoryEventEmitterENS0_19InputAccessoryStateEE16canBeTouchTargetEv, symObjAddr: 0x2924, symBinAddr: 0x166C0, symSize: 0x18 }
  - { offset: 0x1CBDA3, size: 0x8, addend: 0x0, symName: __ZNK8facebook5react22ConcreteViewShadowNodeIXadL_ZNS0_27InputAccessoryComponentNameEEENS0_19InputAccessoryPropsENS0_26InputAccessoryEventEmitterENS0_19InputAccessoryStateEE16canBeTouchTargetEv, symObjAddr: 0x2924, symBinAddr: 0x166C0, symSize: 0x18 }
  - { offset: 0x1CBDC0, size: 0x8, addend: 0x0, symName: __ZNK8facebook5react22ConcreteViewShadowNodeIXadL_ZNS0_27InputAccessoryComponentNameEEENS0_19InputAccessoryPropsENS0_26InputAccessoryEventEmitterENS0_19InputAccessoryStateEE24canChildrenBeTouchTargetEv, symObjAddr: 0x293C, symBinAddr: 0x166D8, symSize: 0x18 }
  - { offset: 0x1CBDF4, size: 0x8, addend: 0x0, symName: __ZNK8facebook5react22ConcreteViewShadowNodeIXadL_ZNS0_27InputAccessoryComponentNameEEENS0_19InputAccessoryPropsENS0_26InputAccessoryEventEmitterENS0_19InputAccessoryStateEE24canChildrenBeTouchTargetEv, symObjAddr: 0x293C, symBinAddr: 0x166D8, symSize: 0x18 }
  - { offset: 0x1CBE0F, size: 0x8, addend: 0x0, symName: __ZNK8facebook5react22ConcreteViewShadowNodeIXadL_ZNS0_27InputAccessoryComponentNameEEENS0_19InputAccessoryPropsENS0_26InputAccessoryEventEmitterENS0_19InputAccessoryStateEE24canChildrenBeTouchTargetEv, symObjAddr: 0x293C, symBinAddr: 0x166D8, symSize: 0x18 }
  - { offset: 0x1CBE91, size: 0x8, addend: 0x0, symName: __ZN8facebook5react22ConcreteViewShadowNodeIXadL_ZNS0_27InputAccessoryComponentNameEEENS0_19InputAccessoryPropsENS0_26InputAccessoryEventEmitterENS0_19InputAccessoryStateEED1Ev, symObjAddr: 0x29C0, symBinAddr: 0x166F0, symSize: 0x70 }
  - { offset: 0x1CC25F, size: 0x8, addend: 0x0, symName: __ZN8facebook5react22ConcreteViewShadowNodeIXadL_ZNS0_27InputAccessoryComponentNameEEENS0_19InputAccessoryPropsENS0_26InputAccessoryEventEmitterENS0_19InputAccessoryStateEED0Ev, symObjAddr: 0x2A30, symBinAddr: 0x16760, symSize: 0x74 }
  - { offset: 0x1CC989, size: 0x8, addend: 0x0, symName: __ZNSt3__120__shared_ptr_emplaceIN8facebook5react24InputAccessoryShadowNodeENS_9allocatorIS3_EEEC2B8ne200100IJRKNS2_10ShadowNodeERKNS2_18ShadowNodeFragmentEES5_Li0EEES5_DpOT_, symObjAddr: 0x2E50, symBinAddr: 0x16834, symSize: 0x74 }
  - { offset: 0x1CCED2, size: 0x8, addend: 0x0, symName: __ZNSt3__120__shared_ptr_emplaceIN8facebook5react19InputAccessoryPropsENS_9allocatorIS3_EEEC2B8ne200100IJRKNS2_18PropsParserContextERKS3_RKNS2_8RawPropsEES5_Li0EEES5_DpOT_, symObjAddr: 0x2FE4, symBinAddr: 0x16970, symSize: 0x4C }
  - { offset: 0x1CD0BB, size: 0x8, addend: 0x0, symName: __ZNSt3__120__shared_ptr_emplaceIN8facebook5react19InputAccessoryPropsENS_9allocatorIS3_EEED1Ev, symObjAddr: 0x3030, symBinAddr: 0x169BC, symSize: 0x14 }
  - { offset: 0x1CD0DD, size: 0x8, addend: 0x0, symName: __ZNSt3__120__shared_ptr_emplaceIN8facebook5react19InputAccessoryPropsENS_9allocatorIS3_EEED1Ev, symObjAddr: 0x3030, symBinAddr: 0x169BC, symSize: 0x14 }
  - { offset: 0x1CD111, size: 0x8, addend: 0x0, symName: __ZNSt3__120__shared_ptr_emplaceIN8facebook5react19InputAccessoryPropsENS_9allocatorIS3_EEED0Ev, symObjAddr: 0x3044, symBinAddr: 0x169D0, symSize: 0x24 }
  - { offset: 0x1CD1AF, size: 0x8, addend: 0x0, symName: __ZNSt3__120__shared_ptr_emplaceIN8facebook5react19InputAccessoryPropsENS_9allocatorIS3_EEE16__on_zero_sharedEv, symObjAddr: 0x3068, symBinAddr: 0x169F4, symSize: 0x34 }
  - { offset: 0x1CD2DB, size: 0x8, addend: 0x0, symName: __ZNSt3__120__shared_ptr_emplaceIN8facebook5react19InputAccessoryPropsENS_9allocatorIS3_EEE21__on_zero_shared_weakEv, symObjAddr: 0x309C, symBinAddr: 0x16A28, symSize: 0x4 }
  - { offset: 0x1CD30E, size: 0x8, addend: 0x0, symName: __ZNSt3__120__shared_ptr_emplaceIN8facebook5react19InputAccessoryPropsENS_9allocatorIS3_EEE21__on_zero_shared_weakEv, symObjAddr: 0x309C, symBinAddr: 0x16A28, symSize: 0x4 }
  - { offset: 0x1CD330, size: 0x8, addend: 0x0, symName: __ZNSt3__120__shared_ptr_emplaceIN8facebook5react19InputAccessoryPropsENS_9allocatorIS3_EEE21__on_zero_shared_weakEv, symObjAddr: 0x309C, symBinAddr: 0x16A28, symSize: 0x4 }
  - { offset: 0x1CD353, size: 0x8, addend: 0x0, symName: __ZNSt3__120__shared_ptr_emplaceIN8facebook5react19InputAccessoryPropsENS_9allocatorIS3_EEE21__on_zero_shared_weakEv, symObjAddr: 0x309C, symBinAddr: 0x16A28, symSize: 0x4 }
  - { offset: 0x1CD38A, size: 0x8, addend: 0x0, symName: __ZNSt3__120__shared_ptr_emplaceIN8facebook5react19InputAccessoryPropsENS_9allocatorIS3_EEE21__on_zero_shared_weakEv, symObjAddr: 0x309C, symBinAddr: 0x16A28, symSize: 0x4 }
  - { offset: 0x1CDA1C, size: 0x8, addend: 0x0, symName: __ZNSt3__120__shared_ptr_emplaceIN8facebook5react13ConcreteStateINS2_19InputAccessoryStateEEENS_9allocatorIS5_EEEC2B8ne200100IJNS_10shared_ptrIKS4_EERKNSA_IKNS2_16ShadowNodeFamilyEEEES7_Li0EEES7_DpOT_, symObjAddr: 0x335C, symBinAddr: 0x16A8C, symSize: 0x4C }
  - { offset: 0x1CDBC6, size: 0x8, addend: 0x0, symName: __ZNSt3__120__shared_ptr_emplaceIN8facebook5react13ConcreteStateINS2_19InputAccessoryStateEEENS_9allocatorIS5_EEED1Ev, symObjAddr: 0x33A8, symBinAddr: 0x16AD8, symSize: 0x14 }
  - { offset: 0x1CDBE8, size: 0x8, addend: 0x0, symName: __ZNSt3__120__shared_ptr_emplaceIN8facebook5react13ConcreteStateINS2_19InputAccessoryStateEEENS_9allocatorIS5_EEED1Ev, symObjAddr: 0x33A8, symBinAddr: 0x16AD8, symSize: 0x14 }
  - { offset: 0x1CDC1C, size: 0x8, addend: 0x0, symName: __ZNSt3__120__shared_ptr_emplaceIN8facebook5react13ConcreteStateINS2_19InputAccessoryStateEEENS_9allocatorIS5_EEED0Ev, symObjAddr: 0x33BC, symBinAddr: 0x16AEC, symSize: 0x24 }
  - { offset: 0x1CDCE9, size: 0x8, addend: 0x0, symName: __ZNSt3__120__shared_ptr_emplaceIN8facebook5react13ConcreteStateINS2_19InputAccessoryStateEEENS_9allocatorIS5_EEE16__on_zero_sharedEv, symObjAddr: 0x33E0, symBinAddr: 0x16B10, symSize: 0xC }
  - { offset: 0x1CDD11, size: 0x8, addend: 0x0, symName: __ZNSt3__120__shared_ptr_emplaceIN8facebook5react13ConcreteStateINS2_19InputAccessoryStateEEENS_9allocatorIS5_EEE16__on_zero_sharedEv, symObjAddr: 0x33E0, symBinAddr: 0x16B10, symSize: 0xC }
  - { offset: 0x1CDD2F, size: 0x8, addend: 0x0, symName: __ZNSt3__120__shared_ptr_emplaceIN8facebook5react13ConcreteStateINS2_19InputAccessoryStateEEENS_9allocatorIS5_EEE16__on_zero_sharedEv, symObjAddr: 0x33E0, symBinAddr: 0x16B10, symSize: 0xC }
  - { offset: 0x1CDD4D, size: 0x8, addend: 0x0, symName: __ZNSt3__120__shared_ptr_emplaceIN8facebook5react13ConcreteStateINS2_19InputAccessoryStateEEENS_9allocatorIS5_EEE16__on_zero_sharedEv, symObjAddr: 0x33E0, symBinAddr: 0x16B10, symSize: 0xC }
  - { offset: 0x1CDD79, size: 0x8, addend: 0x0, symName: __ZNSt3__120__shared_ptr_emplaceIN8facebook5react13ConcreteStateINS2_19InputAccessoryStateEEENS_9allocatorIS5_EEE21__on_zero_shared_weakEv, symObjAddr: 0x33EC, symBinAddr: 0x16B1C, symSize: 0x4 }
  - { offset: 0x1CDDAC, size: 0x8, addend: 0x0, symName: __ZNSt3__120__shared_ptr_emplaceIN8facebook5react13ConcreteStateINS2_19InputAccessoryStateEEENS_9allocatorIS5_EEE21__on_zero_shared_weakEv, symObjAddr: 0x33EC, symBinAddr: 0x16B1C, symSize: 0x4 }
  - { offset: 0x1CDDCE, size: 0x8, addend: 0x0, symName: __ZNSt3__120__shared_ptr_emplaceIN8facebook5react13ConcreteStateINS2_19InputAccessoryStateEEENS_9allocatorIS5_EEE21__on_zero_shared_weakEv, symObjAddr: 0x33EC, symBinAddr: 0x16B1C, symSize: 0x4 }
  - { offset: 0x1CDDF1, size: 0x8, addend: 0x0, symName: __ZNSt3__120__shared_ptr_emplaceIN8facebook5react13ConcreteStateINS2_19InputAccessoryStateEEENS_9allocatorIS5_EEE21__on_zero_shared_weakEv, symObjAddr: 0x33EC, symBinAddr: 0x16B1C, symSize: 0x4 }
  - { offset: 0x1CDE27, size: 0x8, addend: 0x0, symName: __ZNSt3__120__shared_ptr_emplaceIN8facebook5react13ConcreteStateINS2_19InputAccessoryStateEEENS_9allocatorIS5_EEE21__on_zero_shared_weakEv, symObjAddr: 0x33EC, symBinAddr: 0x16B1C, symSize: 0x4 }
  - { offset: 0x1CDF2E, size: 0x8, addend: 0x0, symName: __ZN8facebook5react13ConcreteStateINS0_19InputAccessoryStateEEC2ENSt3__110shared_ptrIKS2_EENS4_8weak_ptrIKNS0_16ShadowNodeFamilyEEE, symObjAddr: 0x34B8, symBinAddr: 0x16BE8, symSize: 0xBC }
  - { offset: 0x1CE21B, size: 0x8, addend: 0x0, symName: __ZN8facebook5react13ConcreteStateINS0_19InputAccessoryStateEED1Ev, symObjAddr: 0x3574, symBinAddr: 0x16CA4, symSize: 0x4 }
  - { offset: 0x1CE23D, size: 0x8, addend: 0x0, symName: __ZN8facebook5react13ConcreteStateINS0_19InputAccessoryStateEED1Ev, symObjAddr: 0x3574, symBinAddr: 0x16CA4, symSize: 0x4 }
  - { offset: 0x1CE25A, size: 0x8, addend: 0x0, symName: __ZN8facebook5react13ConcreteStateINS0_19InputAccessoryStateEED1Ev, symObjAddr: 0x3574, symBinAddr: 0x16CA4, symSize: 0x4 }
  - { offset: 0x1CE26D, size: 0x8, addend: 0x0, symName: __ZN8facebook5react5StateD2Ev, symObjAddr: 0x358C, symBinAddr: 0x16CBC, symSize: 0x40 }
  - { offset: 0x1CE30F, size: 0x8, addend: 0x0, symName: __ZN8facebook5react13ConcreteStateINS0_19InputAccessoryStateEED0Ev, symObjAddr: 0x3578, symBinAddr: 0x16CA8, symSize: 0x14 }
  - { offset: 0x1CE386, size: 0x8, addend: 0x0, symName: __ZN8facebook5react5StateD1Ev, symObjAddr: 0x35CC, symBinAddr: 0x16CFC, symSize: 0x4 }
  - { offset: 0x1CE3A9, size: 0x8, addend: 0x0, symName: __ZN8facebook5react5StateD1Ev, symObjAddr: 0x35CC, symBinAddr: 0x16CFC, symSize: 0x4 }
  - { offset: 0x1CE3D9, size: 0x8, addend: 0x0, symName: __ZN8facebook5react5StateD0Ev, symObjAddr: 0x35D0, symBinAddr: 0x16D00, symSize: 0x14 }
  - { offset: 0x1CE44F, size: 0x8, addend: 0x0, symName: __ZNSt3__120__shared_ptr_emplaceIKN8facebook5react19InputAccessoryStateENS_9allocatorIS3_EEED1Ev, symObjAddr: 0x35E4, symBinAddr: 0x16D14, symSize: 0x14 }
  - { offset: 0x1CE471, size: 0x8, addend: 0x0, symName: __ZNSt3__120__shared_ptr_emplaceIKN8facebook5react19InputAccessoryStateENS_9allocatorIS3_EEED1Ev, symObjAddr: 0x35E4, symBinAddr: 0x16D14, symSize: 0x14 }
  - { offset: 0x1CE4A5, size: 0x8, addend: 0x0, symName: __ZNSt3__120__shared_ptr_emplaceIKN8facebook5react19InputAccessoryStateENS_9allocatorIS3_EEED0Ev, symObjAddr: 0x35F8, symBinAddr: 0x16D28, symSize: 0x24 }
  - { offset: 0x1CE508, size: 0x8, addend: 0x0, symName: __ZNSt3__120__shared_ptr_emplaceIKN8facebook5react19InputAccessoryStateENS_9allocatorIS3_EEE16__on_zero_sharedEv, symObjAddr: 0x361C, symBinAddr: 0x16D4C, symSize: 0x4 }
  - { offset: 0x1CE588, size: 0x8, addend: 0x0, symName: __ZNSt3__120__shared_ptr_emplaceIKN8facebook5react19InputAccessoryStateENS_9allocatorIS3_EEE21__on_zero_shared_weakEv, symObjAddr: 0x3620, symBinAddr: 0x16D50, symSize: 0x4 }
  - { offset: 0x1CE5BB, size: 0x8, addend: 0x0, symName: __ZNSt3__120__shared_ptr_emplaceIKN8facebook5react19InputAccessoryStateENS_9allocatorIS3_EEE21__on_zero_shared_weakEv, symObjAddr: 0x3620, symBinAddr: 0x16D50, symSize: 0x4 }
  - { offset: 0x1CE5DD, size: 0x8, addend: 0x0, symName: __ZNSt3__120__shared_ptr_emplaceIKN8facebook5react19InputAccessoryStateENS_9allocatorIS3_EEE21__on_zero_shared_weakEv, symObjAddr: 0x3620, symBinAddr: 0x16D50, symSize: 0x4 }
  - { offset: 0x1CE600, size: 0x8, addend: 0x0, symName: __ZNSt3__120__shared_ptr_emplaceIKN8facebook5react19InputAccessoryStateENS_9allocatorIS3_EEE21__on_zero_shared_weakEv, symObjAddr: 0x3620, symBinAddr: 0x16D50, symSize: 0x4 }
  - { offset: 0x1CE636, size: 0x8, addend: 0x0, symName: __ZNSt3__120__shared_ptr_emplaceIKN8facebook5react19InputAccessoryStateENS_9allocatorIS3_EEE21__on_zero_shared_weakEv, symObjAddr: 0x3620, symBinAddr: 0x16D50, symSize: 0x4 }
  - { offset: 0x1CE898, size: 0x8, addend: 0x0, symName: __ZNSt3__120__shared_ptr_emplaceIKN8facebook5react13ConcreteStateINS2_19InputAccessoryStateEEENS_9allocatorIS5_EEEC2B8ne200100IJNS_10shared_ptrIKS4_EERKNS2_5StateEES8_Li0EEES8_DpOT_, symObjAddr: 0x36DC, symBinAddr: 0x16DB4, symSize: 0x4C }
  - { offset: 0x1CEA3D, size: 0x8, addend: 0x0, symName: __ZNSt3__120__shared_ptr_emplaceIKN8facebook5react13ConcreteStateINS2_19InputAccessoryStateEEENS_9allocatorIS5_EEED1Ev, symObjAddr: 0x3728, symBinAddr: 0x16E00, symSize: 0x14 }
  - { offset: 0x1CEA5F, size: 0x8, addend: 0x0, symName: __ZNSt3__120__shared_ptr_emplaceIKN8facebook5react13ConcreteStateINS2_19InputAccessoryStateEEENS_9allocatorIS5_EEED1Ev, symObjAddr: 0x3728, symBinAddr: 0x16E00, symSize: 0x14 }
  - { offset: 0x1CEA93, size: 0x8, addend: 0x0, symName: __ZNSt3__120__shared_ptr_emplaceIKN8facebook5react13ConcreteStateINS2_19InputAccessoryStateEEENS_9allocatorIS5_EEED0Ev, symObjAddr: 0x373C, symBinAddr: 0x16E14, symSize: 0x24 }
  - { offset: 0x1CEB31, size: 0x8, addend: 0x0, symName: __ZNSt3__120__shared_ptr_emplaceIKN8facebook5react13ConcreteStateINS2_19InputAccessoryStateEEENS_9allocatorIS5_EEE16__on_zero_sharedEv, symObjAddr: 0x3760, symBinAddr: 0x16E38, symSize: 0xC }
  - { offset: 0x1CEB59, size: 0x8, addend: 0x0, symName: __ZNSt3__120__shared_ptr_emplaceIKN8facebook5react13ConcreteStateINS2_19InputAccessoryStateEEENS_9allocatorIS5_EEE16__on_zero_sharedEv, symObjAddr: 0x3760, symBinAddr: 0x16E38, symSize: 0xC }
  - { offset: 0x1CEB77, size: 0x8, addend: 0x0, symName: __ZNSt3__120__shared_ptr_emplaceIKN8facebook5react13ConcreteStateINS2_19InputAccessoryStateEEENS_9allocatorIS5_EEE16__on_zero_sharedEv, symObjAddr: 0x3760, symBinAddr: 0x16E38, symSize: 0xC }
  - { offset: 0x1CEB95, size: 0x8, addend: 0x0, symName: __ZNSt3__120__shared_ptr_emplaceIKN8facebook5react13ConcreteStateINS2_19InputAccessoryStateEEENS_9allocatorIS5_EEE16__on_zero_sharedEv, symObjAddr: 0x3760, symBinAddr: 0x16E38, symSize: 0xC }
  - { offset: 0x1CEBC1, size: 0x8, addend: 0x0, symName: __ZNSt3__120__shared_ptr_emplaceIKN8facebook5react13ConcreteStateINS2_19InputAccessoryStateEEENS_9allocatorIS5_EEE21__on_zero_shared_weakEv, symObjAddr: 0x376C, symBinAddr: 0x16E44, symSize: 0x4 }
  - { offset: 0x1CEBF4, size: 0x8, addend: 0x0, symName: __ZNSt3__120__shared_ptr_emplaceIKN8facebook5react13ConcreteStateINS2_19InputAccessoryStateEEENS_9allocatorIS5_EEE21__on_zero_shared_weakEv, symObjAddr: 0x376C, symBinAddr: 0x16E44, symSize: 0x4 }
  - { offset: 0x1CEC16, size: 0x8, addend: 0x0, symName: __ZNSt3__120__shared_ptr_emplaceIKN8facebook5react13ConcreteStateINS2_19InputAccessoryStateEEENS_9allocatorIS5_EEE21__on_zero_shared_weakEv, symObjAddr: 0x376C, symBinAddr: 0x16E44, symSize: 0x4 }
  - { offset: 0x1CEC39, size: 0x8, addend: 0x0, symName: __ZNSt3__120__shared_ptr_emplaceIKN8facebook5react13ConcreteStateINS2_19InputAccessoryStateEEENS_9allocatorIS5_EEE21__on_zero_shared_weakEv, symObjAddr: 0x376C, symBinAddr: 0x16E44, symSize: 0x4 }
  - { offset: 0x1CEC6F, size: 0x8, addend: 0x0, symName: __ZNSt3__120__shared_ptr_emplaceIKN8facebook5react13ConcreteStateINS2_19InputAccessoryStateEEENS_9allocatorIS5_EEE21__on_zero_shared_weakEv, symObjAddr: 0x376C, symBinAddr: 0x16E44, symSize: 0x4 }
  - { offset: 0x1CECC6, size: 0x8, addend: 0x0, symName: __ZN8facebook5react13ConcreteStateINS0_19InputAccessoryStateEEC2ENSt3__110shared_ptrIKS2_EERKNS0_5StateE, symObjAddr: 0x37F8, symBinAddr: 0x16ED0, symSize: 0x98 }
  - { offset: 0x1CF05F, size: 0x8, addend: 0x0, symName: __ZNSt3__120__shared_ptr_emplaceIKN8facebook5react26InputAccessoryEventEmitterENS_9allocatorIS3_EEEC2B8ne200100IJNS_10shared_ptrINS2_11EventTargetEEERKNS_8weak_ptrIKNS2_15EventDispatcherEEEES6_Li0EEES6_DpOT_, symObjAddr: 0x38F0, symBinAddr: 0x16FC8, symSize: 0x4C }
  - { offset: 0x1CF209, size: 0x8, addend: 0x0, symName: __ZNSt3__120__shared_ptr_emplaceIKN8facebook5react26InputAccessoryEventEmitterENS_9allocatorIS3_EEED1Ev, symObjAddr: 0x393C, symBinAddr: 0x17014, symSize: 0x14 }
  - { offset: 0x1CF22B, size: 0x8, addend: 0x0, symName: __ZNSt3__120__shared_ptr_emplaceIKN8facebook5react26InputAccessoryEventEmitterENS_9allocatorIS3_EEED1Ev, symObjAddr: 0x393C, symBinAddr: 0x17014, symSize: 0x14 }
  - { offset: 0x1CF25F, size: 0x8, addend: 0x0, symName: __ZNSt3__120__shared_ptr_emplaceIKN8facebook5react26InputAccessoryEventEmitterENS_9allocatorIS3_EEED0Ev, symObjAddr: 0x3950, symBinAddr: 0x17028, symSize: 0x24 }
  - { offset: 0x1CF32C, size: 0x8, addend: 0x0, symName: __ZNSt3__120__shared_ptr_emplaceIKN8facebook5react26InputAccessoryEventEmitterENS_9allocatorIS3_EEE16__on_zero_sharedEv, symObjAddr: 0x3974, symBinAddr: 0x1704C, symSize: 0xC }
  - { offset: 0x1CF354, size: 0x8, addend: 0x0, symName: __ZNSt3__120__shared_ptr_emplaceIKN8facebook5react26InputAccessoryEventEmitterENS_9allocatorIS3_EEE16__on_zero_sharedEv, symObjAddr: 0x3974, symBinAddr: 0x1704C, symSize: 0xC }
  - { offset: 0x1CF372, size: 0x8, addend: 0x0, symName: __ZNSt3__120__shared_ptr_emplaceIKN8facebook5react26InputAccessoryEventEmitterENS_9allocatorIS3_EEE16__on_zero_sharedEv, symObjAddr: 0x3974, symBinAddr: 0x1704C, symSize: 0xC }
  - { offset: 0x1CF390, size: 0x8, addend: 0x0, symName: __ZNSt3__120__shared_ptr_emplaceIKN8facebook5react26InputAccessoryEventEmitterENS_9allocatorIS3_EEE16__on_zero_sharedEv, symObjAddr: 0x3974, symBinAddr: 0x1704C, symSize: 0xC }
  - { offset: 0x1CF3BC, size: 0x8, addend: 0x0, symName: __ZNSt3__120__shared_ptr_emplaceIKN8facebook5react26InputAccessoryEventEmitterENS_9allocatorIS3_EEE21__on_zero_shared_weakEv, symObjAddr: 0x3980, symBinAddr: 0x17058, symSize: 0x4 }
  - { offset: 0x1CF3EF, size: 0x8, addend: 0x0, symName: __ZNSt3__120__shared_ptr_emplaceIKN8facebook5react26InputAccessoryEventEmitterENS_9allocatorIS3_EEE21__on_zero_shared_weakEv, symObjAddr: 0x3980, symBinAddr: 0x17058, symSize: 0x4 }
  - { offset: 0x1CF411, size: 0x8, addend: 0x0, symName: __ZNSt3__120__shared_ptr_emplaceIKN8facebook5react26InputAccessoryEventEmitterENS_9allocatorIS3_EEE21__on_zero_shared_weakEv, symObjAddr: 0x3980, symBinAddr: 0x17058, symSize: 0x4 }
  - { offset: 0x1CF434, size: 0x8, addend: 0x0, symName: __ZNSt3__120__shared_ptr_emplaceIKN8facebook5react26InputAccessoryEventEmitterENS_9allocatorIS3_EEE21__on_zero_shared_weakEv, symObjAddr: 0x3980, symBinAddr: 0x17058, symSize: 0x4 }
  - { offset: 0x1CF46A, size: 0x8, addend: 0x0, symName: __ZNSt3__120__shared_ptr_emplaceIKN8facebook5react26InputAccessoryEventEmitterENS_9allocatorIS3_EEE21__on_zero_shared_weakEv, symObjAddr: 0x3980, symBinAddr: 0x17058, symSize: 0x4 }
  - { offset: 0x1CF9A5, size: 0x8, addend: 0x0, symName: __ZN8facebook5react26InputAccessoryEventEmitterD1Ev, symObjAddr: 0x3AC4, symBinAddr: 0x1719C, symSize: 0x34 }
  - { offset: 0x1CFAD1, size: 0x8, addend: 0x0, symName: __ZN8facebook5react26InputAccessoryEventEmitterD0Ev, symObjAddr: 0x3AF8, symBinAddr: 0x171D0, symSize: 0x38 }
  - { offset: 0x1D0210, size: 0x8, addend: 0x0, symName: __ZNSt3__120__shared_ptr_emplaceIN8facebook5react16ShadowNodeFamilyENS_9allocatorIS3_EEEC2B8ne200100IJRKNS2_24ShadowNodeFamilyFragmentERNS_10shared_ptrIKNS2_26InputAccessoryEventEmitterEEERKNS_8weak_ptrIKNS2_15EventDispatcherEEERKNS2_27ConcreteComponentDescriptorINS2_24InputAccessoryShadowNodeEEEES5_Li0EEES5_DpOT_, symObjAddr: 0x3FD4, symBinAddr: 0x17280, symSize: 0x4C }
  - { offset: 0x1D09FF, size: 0x8, addend: 0x0, symName: __ZNSt3__110__function12__value_funcIFNS_10shared_ptrIKvEERKN8facebook5react19InputAccessoryStateEEEC2B8ne200100ERKSB_, symObjAddr: 0x44F0, symBinAddr: 0x175F8, symSize: 0x64 }
  - { offset: 0x1D0A58, size: 0x8, addend: 0x0, symName: __ZNSt3__110__function12__value_funcIFNS_10shared_ptrIKvEERKN8facebook5react19InputAccessoryStateEEEC2B8ne200100EOSB_, symObjAddr: 0x475C, symBinAddr: 0x17864, symSize: 0x64 }
  - { offset: 0x1D0AA5, size: 0x8, addend: 0x0, symName: __ZN8facebook5react11StateUpdateD1Ev, symObjAddr: 0x44A4, symBinAddr: 0x175AC, symSize: 0x4C }
  - { offset: 0x1D0BF1, size: 0x8, addend: 0x0, symName: __ZNSt3__110__function6__funcIZNK8facebook5react13ConcreteStateINS3_19InputAccessoryStateEE11updateStateENS_8functionIFNS_10shared_ptrIKvEERKS5_EEEEUlRKSA_E_NS_9allocatorISH_EEFSA_SG_EED1Ev, symObjAddr: 0x4554, symBinAddr: 0x1765C, symSize: 0x58 }
  - { offset: 0x1D0D55, size: 0x8, addend: 0x0, symName: __ZNSt3__110__function6__funcIZNK8facebook5react13ConcreteStateINS3_19InputAccessoryStateEE11updateStateENS_8functionIFNS_10shared_ptrIKvEERKS5_EEEEUlRKSA_E_NS_9allocatorISH_EEFSA_SG_EED0Ev, symObjAddr: 0x45AC, symBinAddr: 0x176B4, symSize: 0x58 }
  - { offset: 0x1D10CF, size: 0x8, addend: 0x0, symName: __ZNKSt3__110__function6__funcIZNK8facebook5react13ConcreteStateINS3_19InputAccessoryStateEE11updateStateENS_8functionIFNS_10shared_ptrIKvEERKS5_EEEEUlRKSA_E_NS_9allocatorISH_EEFSA_SG_EE7__cloneEv, symObjAddr: 0x4604, symBinAddr: 0x1770C, symSize: 0x54 }
  - { offset: 0x1D1431, size: 0x8, addend: 0x0, symName: __ZNKSt3__110__function6__funcIZNK8facebook5react13ConcreteStateINS3_19InputAccessoryStateEE11updateStateENS_8functionIFNS_10shared_ptrIKvEERKS5_EEEEUlRKSA_E_NS_9allocatorISH_EEFSA_SG_EE7__cloneEPNS0_6__baseISK_EE, symObjAddr: 0x4658, symBinAddr: 0x17760, symSize: 0x1C }
  - { offset: 0x1D1583, size: 0x8, addend: 0x0, symName: __ZNSt3__110__function6__funcIZNK8facebook5react13ConcreteStateINS3_19InputAccessoryStateEE11updateStateENS_8functionIFNS_10shared_ptrIKvEERKS5_EEEEUlRKSA_E_NS_9allocatorISH_EEFSA_SG_EE7destroyEv, symObjAddr: 0x4674, symBinAddr: 0x1777C, symSize: 0x30 }
  - { offset: 0x1D1692, size: 0x8, addend: 0x0, symName: __ZNSt3__110__function6__funcIZNK8facebook5react13ConcreteStateINS3_19InputAccessoryStateEE11updateStateENS_8functionIFNS_10shared_ptrIKvEERKS5_EEEEUlRKSA_E_NS_9allocatorISH_EEFSA_SG_EE18destroy_deallocateEv, symObjAddr: 0x46A4, symBinAddr: 0x177AC, symSize: 0x4C }
  - { offset: 0x1D1908, size: 0x8, addend: 0x0, symName: __ZNSt3__110__function6__funcIZNK8facebook5react13ConcreteStateINS3_19InputAccessoryStateEE11updateStateENS_8functionIFNS_10shared_ptrIKvEERKS5_EEEEUlRKSA_E_NS_9allocatorISH_EEFSA_SG_EEclESG_, symObjAddr: 0x46F0, symBinAddr: 0x177F8, symSize: 0x24 }
  - { offset: 0x1D1941, size: 0x8, addend: 0x0, symName: __ZNSt3__110__function6__funcIZNK8facebook5react13ConcreteStateINS3_19InputAccessoryStateEE11updateStateENS_8functionIFNS_10shared_ptrIKvEERKS5_EEEEUlRKSA_E_NS_9allocatorISH_EEFSA_SG_EEclESG_, symObjAddr: 0x46F0, symBinAddr: 0x177F8, symSize: 0x24 }
  - { offset: 0x1D196A, size: 0x8, addend: 0x0, symName: __ZNSt3__110__function6__funcIZNK8facebook5react13ConcreteStateINS3_19InputAccessoryStateEE11updateStateENS_8functionIFNS_10shared_ptrIKvEERKS5_EEEEUlRKSA_E_NS_9allocatorISH_EEFSA_SG_EEclESG_, symObjAddr: 0x46F0, symBinAddr: 0x177F8, symSize: 0x24 }
  - { offset: 0x1D1993, size: 0x8, addend: 0x0, symName: __ZNSt3__110__function6__funcIZNK8facebook5react13ConcreteStateINS3_19InputAccessoryStateEE11updateStateENS_8functionIFNS_10shared_ptrIKvEERKS5_EEEEUlRKSA_E_NS_9allocatorISH_EEFSA_SG_EEclESG_, symObjAddr: 0x46F0, symBinAddr: 0x177F8, symSize: 0x24 }
  - { offset: 0x1D19BE, size: 0x8, addend: 0x0, symName: __ZNSt3__110__function6__funcIZNK8facebook5react13ConcreteStateINS3_19InputAccessoryStateEE11updateStateENS_8functionIFNS_10shared_ptrIKvEERKS5_EEEEUlRKSA_E_NS_9allocatorISH_EEFSA_SG_EEclESG_, symObjAddr: 0x46F0, symBinAddr: 0x177F8, symSize: 0x24 }
  - { offset: 0x1D19E8, size: 0x8, addend: 0x0, symName: __ZNSt3__110__function6__funcIZNK8facebook5react13ConcreteStateINS3_19InputAccessoryStateEE11updateStateENS_8functionIFNS_10shared_ptrIKvEERKS5_EEEEUlRKSA_E_NS_9allocatorISH_EEFSA_SG_EEclESG_, symObjAddr: 0x46F0, symBinAddr: 0x177F8, symSize: 0x24 }
  - { offset: 0x1D1A84, size: 0x8, addend: 0x0, symName: __ZNKSt3__110__function6__funcIZNK8facebook5react13ConcreteStateINS3_19InputAccessoryStateEE11updateStateENS_8functionIFNS_10shared_ptrIKvEERKS5_EEEEUlRKSA_E_NS_9allocatorISH_EEFSA_SG_EE6targetERKSt9type_info, symObjAddr: 0x4714, symBinAddr: 0x1781C, symSize: 0x3C }
  - { offset: 0x1D1A8F, size: 0x8, addend: 0x0, symName: __ZNKSt3__110__function6__funcIZNK8facebook5react13ConcreteStateINS3_19InputAccessoryStateEE11updateStateENS_8functionIFNS_10shared_ptrIKvEERKS5_EEEEUlRKSA_E_NS_9allocatorISH_EEFSA_SG_EE6targetERKSt9type_info, symObjAddr: 0x4714, symBinAddr: 0x1781C, symSize: 0x3C }
  - { offset: 0x1D1B41, size: 0x8, addend: 0x0, symName: __ZNKSt3__110__function6__funcIZNK8facebook5react13ConcreteStateINS3_19InputAccessoryStateEE11updateStateENS_8functionIFNS_10shared_ptrIKvEERKS5_EEEEUlRKSA_E_NS_9allocatorISH_EEFSA_SG_EE11target_typeEv, symObjAddr: 0x4750, symBinAddr: 0x17858, symSize: 0xC }
  - { offset: 0x1D1BC8, size: 0x8, addend: 0x0, symName: __ZNSt3__117bad_function_callD1Ev, symObjAddr: 0x47F4, symBinAddr: 0x178FC, symSize: 0x4 }
  - { offset: 0x1D1BEA, size: 0x8, addend: 0x0, symName: __ZNSt3__117bad_function_callD1Ev, symObjAddr: 0x47F4, symBinAddr: 0x178FC, symSize: 0x4 }
  - { offset: 0x1D1C1C, size: 0x8, addend: 0x0, symName: __ZNSt3__117bad_function_callD0Ev, symObjAddr: 0x47F8, symBinAddr: 0x17900, symSize: 0x14 }
  - { offset: 0x1D1CC5, size: 0x8, addend: 0x0, symName: __ZNSt3__110__function6__funcIZNK8facebook5react13ConcreteStateINS3_19InputAccessoryStateEE11updateStateEOS5_EUlRKS5_E_NS_9allocatorISA_EEFNS_10shared_ptrIKvEES9_EED1Ev, symObjAddr: 0x4858, symBinAddr: 0x17914, symSize: 0x4 }
  - { offset: 0x1D1CF1, size: 0x8, addend: 0x0, symName: __ZNSt3__110__function6__funcIZNK8facebook5react13ConcreteStateINS3_19InputAccessoryStateEE11updateStateEOS5_EUlRKS5_E_NS_9allocatorISA_EEFNS_10shared_ptrIKvEES9_EED0Ev, symObjAddr: 0x485C, symBinAddr: 0x17918, symSize: 0x4 }
  - { offset: 0x1D1DFD, size: 0x8, addend: 0x0, symName: __ZNKSt3__110__function6__funcIZNK8facebook5react13ConcreteStateINS3_19InputAccessoryStateEE11updateStateEOS5_EUlRKS5_E_NS_9allocatorISA_EEFNS_10shared_ptrIKvEES9_EE7__cloneEv, symObjAddr: 0x4860, symBinAddr: 0x1791C, symSize: 0x38 }
  - { offset: 0x1D2008, size: 0x8, addend: 0x0, symName: __ZNKSt3__110__function6__funcIZNK8facebook5react13ConcreteStateINS3_19InputAccessoryStateEE11updateStateEOS5_EUlRKS5_E_NS_9allocatorISA_EEFNS_10shared_ptrIKvEES9_EE7__cloneEPNS0_6__baseISG_EE, symObjAddr: 0x4898, symBinAddr: 0x17954, symSize: 0x18 }
  - { offset: 0x1D203E, size: 0x8, addend: 0x0, symName: __ZNKSt3__110__function6__funcIZNK8facebook5react13ConcreteStateINS3_19InputAccessoryStateEE11updateStateEOS5_EUlRKS5_E_NS_9allocatorISA_EEFNS_10shared_ptrIKvEES9_EE7__cloneEPNS0_6__baseISG_EE, symObjAddr: 0x4898, symBinAddr: 0x17954, symSize: 0x18 }
  - { offset: 0x1D206C, size: 0x8, addend: 0x0, symName: __ZNKSt3__110__function6__funcIZNK8facebook5react13ConcreteStateINS3_19InputAccessoryStateEE11updateStateEOS5_EUlRKS5_E_NS_9allocatorISA_EEFNS_10shared_ptrIKvEES9_EE7__cloneEPNS0_6__baseISG_EE, symObjAddr: 0x4898, symBinAddr: 0x17954, symSize: 0x18 }
  - { offset: 0x1D20FB, size: 0x8, addend: 0x0, symName: __ZNSt3__110__function6__funcIZNK8facebook5react13ConcreteStateINS3_19InputAccessoryStateEE11updateStateEOS5_EUlRKS5_E_NS_9allocatorISA_EEFNS_10shared_ptrIKvEES9_EE7destroyEv, symObjAddr: 0x48B0, symBinAddr: 0x1796C, symSize: 0x4 }
  - { offset: 0x1D214F, size: 0x8, addend: 0x0, symName: __ZNSt3__110__function6__funcIZNK8facebook5react13ConcreteStateINS3_19InputAccessoryStateEE11updateStateEOS5_EUlRKS5_E_NS_9allocatorISA_EEFNS_10shared_ptrIKvEES9_EE18destroy_deallocateEv, symObjAddr: 0x48B4, symBinAddr: 0x17970, symSize: 0x4 }
  - { offset: 0x1D2182, size: 0x8, addend: 0x0, symName: __ZNSt3__110__function6__funcIZNK8facebook5react13ConcreteStateINS3_19InputAccessoryStateEE11updateStateEOS5_EUlRKS5_E_NS_9allocatorISA_EEFNS_10shared_ptrIKvEES9_EE18destroy_deallocateEv, symObjAddr: 0x48B4, symBinAddr: 0x17970, symSize: 0x4 }
  - { offset: 0x1D21A5, size: 0x8, addend: 0x0, symName: __ZNSt3__110__function6__funcIZNK8facebook5react13ConcreteStateINS3_19InputAccessoryStateEE11updateStateEOS5_EUlRKS5_E_NS_9allocatorISA_EEFNS_10shared_ptrIKvEES9_EE18destroy_deallocateEv, symObjAddr: 0x48B4, symBinAddr: 0x17970, symSize: 0x4 }
  - { offset: 0x1D21DA, size: 0x8, addend: 0x0, symName: __ZNSt3__110__function6__funcIZNK8facebook5react13ConcreteStateINS3_19InputAccessoryStateEE11updateStateEOS5_EUlRKS5_E_NS_9allocatorISA_EEFNS_10shared_ptrIKvEES9_EE18destroy_deallocateEv, symObjAddr: 0x48B4, symBinAddr: 0x17970, symSize: 0x4 }
  - { offset: 0x1D2390, size: 0x8, addend: 0x0, symName: __ZNSt3__110__function6__funcIZNK8facebook5react13ConcreteStateINS3_19InputAccessoryStateEE11updateStateEOS5_EUlRKS5_E_NS_9allocatorISA_EEFNS_10shared_ptrIKvEES9_EEclES9_, symObjAddr: 0x48B8, symBinAddr: 0x17974, symSize: 0x4C }
  - { offset: 0x1D26A2, size: 0x8, addend: 0x0, symName: __ZNKSt3__110__function6__funcIZNK8facebook5react13ConcreteStateINS3_19InputAccessoryStateEE11updateStateEOS5_EUlRKS5_E_NS_9allocatorISA_EEFNS_10shared_ptrIKvEES9_EE6targetERKSt9type_info, symObjAddr: 0x4904, symBinAddr: 0x179C0, symSize: 0x3C }
  - { offset: 0x1D26EF, size: 0x8, addend: 0x0, symName: __ZNKSt3__110__function6__funcIZNK8facebook5react13ConcreteStateINS3_19InputAccessoryStateEE11updateStateEOS5_EUlRKS5_E_NS_9allocatorISA_EEFNS_10shared_ptrIKvEES9_EE11target_typeEv, symObjAddr: 0x4940, symBinAddr: 0x179FC, symSize: 0xC }
  - { offset: 0x1D278E, size: 0x8, addend: 0x0, symName: __GLOBAL__sub_I_RCTInputAccessoryComponentView.mm, symObjAddr: 0x4D58, symBinAddr: 0x17A08, symSize: 0x20 }
  - { offset: 0x1D4BEF, size: 0x8, addend: 0x0, symName: '-[RCTInputAccessoryContentView init]', symObjAddr: 0x0, symBinAddr: 0x17A28, symSize: 0x3B0 }
  - { offset: 0x1D4E41, size: 0x8, addend: 0x0, symName: '-[RCTInputAccessoryContentView init]', symObjAddr: 0x0, symBinAddr: 0x17A28, symSize: 0x3B0 }
  - { offset: 0x1D4E76, size: 0x8, addend: 0x0, symName: '-[RCTInputAccessoryContentView intrinsicContentSize]', symObjAddr: 0x3B0, symBinAddr: 0x17DD8, symSize: 0x10 }
  - { offset: 0x1D4EA7, size: 0x8, addend: 0x0, symName: '-[RCTInputAccessoryContentView insertSubview:atIndex:]', symObjAddr: 0x3C0, symBinAddr: 0x17DE8, symSize: 0x10 }
  - { offset: 0x1D4EF4, size: 0x8, addend: 0x0, symName: '-[RCTInputAccessoryContentView setFrame:]', symObjAddr: 0x3D0, symBinAddr: 0x17DF8, symSize: 0x9C }
  - { offset: 0x1D4F34, size: 0x8, addend: 0x0, symName: '-[RCTInputAccessoryContentView .cxx_destruct]', symObjAddr: 0x46C, symBinAddr: 0x17E94, symSize: 0x40 }
  - { offset: 0x1D5186, size: 0x8, addend: 0x0, symName: __ZN8facebook5react17HostPlatformColorL14UndefinedColorE, symObjAddr: 0x134DF0, symBinAddr: 0x9FDB8, symSize: 0x0 }
  - { offset: 0x1D80B9, size: 0x8, addend: 0x0, symName: __ZN8facebook5react38concreteComponentDescriptorConstructorINS0_43LegacyViewManagerInteropComponentDescriptorEEENSt3__110unique_ptrIKNS0_19ComponentDescriptorENS3_14default_deleteIS6_EEEERKNS0_29ComponentDescriptorParametersE, symObjAddr: 0x2644, symBinAddr: 0x195B8, symSize: 0x6C }
  - { offset: 0x1EF9DD, size: 0x8, addend: 0x0, symName: __ZNSt3__115allocate_sharedB8ne200100IKN8facebook5react33LegacyViewManagerInteropViewPropsENS_9allocatorIS3_EEJELi0EEENS_10shared_ptrIT_EERKT0_DpOT1_, symObjAddr: 0x17A8, symBinAddr: 0x19418, symSize: 0x48 }
  - { offset: 0x1F1E86, size: 0x8, addend: 0x0, symName: '+[RCTLegacyViewManagerInteropComponentView supportedViewManagers]', symObjAddr: 0x310, symBinAddr: 0x1816C, symSize: 0xCC }
  - { offset: 0x1F1EB0, size: 0x8, addend: 0x0, symName: '__ZZ65+[RCTLegacyViewManagerInteropComponentView supportedViewManagers]E9supported', symObjAddr: 0x134E08, symBinAddr: 0x9FDD0, symSize: 0x0 }
  - { offset: 0x1F1EE3, size: 0x8, addend: 0x0, symName: '+[RCTLegacyViewManagerInteropComponentView supportedViewManagersPrefixes]', symObjAddr: 0x3DC, symBinAddr: 0x18238, symSize: 0x78 }
  - { offset: 0x1F1F0D, size: 0x8, addend: 0x0, symName: '__ZZ73+[RCTLegacyViewManagerInteropComponentView supportedViewManagersPrefixes]E9supported', symObjAddr: 0x134E18, symBinAddr: 0x9FDE0, symSize: 0x0 }
  - { offset: 0x1F1F2A, size: 0x8, addend: 0x0, symName: '+[RCTLegacyViewManagerInteropComponentView _supportedLegacyViewComponents]', symObjAddr: 0x454, symBinAddr: 0x182B0, symSize: 0x78 }
  - { offset: 0x1F1F54, size: 0x8, addend: 0x0, symName: '__ZZ74+[RCTLegacyViewManagerInteropComponentView _supportedLegacyViewComponents]E9supported', symObjAddr: 0x134E28, symBinAddr: 0x9FDF0, symSize: 0x0 }
  - { offset: 0x1F4EF2, size: 0x8, addend: 0x0, symName: __ZN8facebook5react18ConcreteShadowNodeIXadL_ZNS0_37LegacyViewManagerInteropComponentNameEEENS0_24YogaLayoutableShadowNodeENS0_33LegacyViewManagerInteropViewPropsENS0_20BaseViewEventEmitterENS0_29LegacyViewManagerInteropStateEE18defaultSharedPropsEv, symObjAddr: 0xD4, symBinAddr: 0x17FA8, symSize: 0x9C }
  - { offset: 0x1F4F12, size: 0x8, addend: 0x0, symName: __ZZN8facebook5react18ConcreteShadowNodeIXadL_ZNS0_37LegacyViewManagerInteropComponentNameEEENS0_24YogaLayoutableShadowNodeENS0_33LegacyViewManagerInteropViewPropsENS0_20BaseViewEventEmitterENS0_29LegacyViewManagerInteropStateEE18defaultSharedPropsEvE18defaultSharedProps, symObjAddr: 0x3C30, symBinAddr: 0x9F3F8, symSize: 0x0 }
  - { offset: 0x1F5201, size: 0x8, addend: 0x0, symName: '-[RCTLegacyViewManagerInteropComponentView initWithFrame:]', symObjAddr: 0x0, symBinAddr: 0x17ED4, symSize: 0xD4 }
  - { offset: 0x1F5503, size: 0x8, addend: 0x0, symName: '-[RCTLegacyViewManagerInteropComponentView _coordinator]', symObjAddr: 0x1E8, symBinAddr: 0x18044, symSize: 0x34 }
  - { offset: 0x1F564F, size: 0x8, addend: 0x0, symName: '-[RCTLegacyViewManagerInteropComponentView componentViewName_DO_NOT_USE_THIS_IS_BROKEN]', symObjAddr: 0x21C, symBinAddr: 0x18078, symSize: 0x2C }
  - { offset: 0x1F5737, size: 0x8, addend: 0x0, symName: '-[RCTLegacyViewManagerInteropComponentView forwardInvocation:]', symObjAddr: 0x248, symBinAddr: 0x180A4, symSize: 0x28 }
  - { offset: 0x1F5790, size: 0x8, addend: 0x0, symName: '-[RCTLegacyViewManagerInteropComponentView methodSignatureForSelector:]', symObjAddr: 0x270, symBinAddr: 0x180CC, symSize: 0xA0 }
  - { offset: 0x1F57D4, size: 0x8, addend: 0x0, symName: '+[RCTLegacyViewManagerInteropComponentView isSupported:]', symObjAddr: 0x4CC, symBinAddr: 0x18328, symSize: 0x3AC }
  - { offset: 0x1F58D7, size: 0x8, addend: 0x0, symName: '+[RCTLegacyViewManagerInteropComponentView supportLegacyViewManagersWithPrefix:]', symObjAddr: 0x878, symBinAddr: 0x186D4, symSize: 0x6C }
  - { offset: 0x1F5913, size: 0x8, addend: 0x0, symName: '+[RCTLegacyViewManagerInteropComponentView supportLegacyViewManagerWithName:]', symObjAddr: 0x8E4, symBinAddr: 0x18740, symSize: 0x6C }
  - { offset: 0x1F594F, size: 0x8, addend: 0x0, symName: '-[RCTLegacyViewManagerInteropComponentView prepareForRecycle]', symObjAddr: 0x950, symBinAddr: 0x187AC, symSize: 0x9C }
  - { offset: 0x1F5A95, size: 0x8, addend: 0x0, symName: '-[RCTLegacyViewManagerInteropComponentView mountChildComponentView:index:]', symObjAddr: 0xA48, symBinAddr: 0x18848, symSize: 0x21C }
  - { offset: 0x1F5B03, size: 0x8, addend: 0x0, symName: '-[RCTLegacyViewManagerInteropComponentView unmountChildComponentView:index:]', symObjAddr: 0xC64, symBinAddr: 0x18A64, symSize: 0x14C }
  - { offset: 0x1F5BC6, size: 0x8, addend: 0x0, symName: '+[RCTLegacyViewManagerInteropComponentView componentDescriptorProvider]', symObjAddr: 0xDB0, symBinAddr: 0x18BB0, symSize: 0x20 }
  - { offset: 0x1F5BF9, size: 0x8, addend: 0x0, symName: '+[RCTLegacyViewManagerInteropComponentView componentDescriptorProvider]', symObjAddr: 0xDB0, symBinAddr: 0x18BB0, symSize: 0x20 }
  - { offset: 0x1F5CE2, size: 0x8, addend: 0x0, symName: '-[RCTLegacyViewManagerInteropComponentView updateState:oldState:]', symObjAddr: 0xDD0, symBinAddr: 0x18BD0, symSize: 0x8C }
  - { offset: 0x1F5FE7, size: 0x8, addend: 0x0, symName: '-[RCTLegacyViewManagerInteropComponentView finalizeUpdates:]', symObjAddr: 0xEC0, symBinAddr: 0x18C5C, symSize: 0x540 }
  - { offset: 0x1F60E1, size: 0x8, addend: 0x0, symName: '___60-[RCTLegacyViewManagerInteropComponentView finalizeUpdates:]_block_invoke', symObjAddr: 0x1400, symBinAddr: 0x1919C, symSize: 0x74 }
  - { offset: 0x1F615A, size: 0x8, addend: 0x0, symName: ___copy_helper_block_ea8_32r40w, symObjAddr: 0x1474, symBinAddr: 0x19210, symSize: 0x38 }
  - { offset: 0x1F6183, size: 0x8, addend: 0x0, symName: ___destroy_helper_block_ea8_32r40w, symObjAddr: 0x14AC, symBinAddr: 0x19248, symSize: 0x2C }
  - { offset: 0x1F62D4, size: 0x8, addend: 0x0, symName: '___60-[RCTLegacyViewManagerInteropComponentView finalizeUpdates:]_block_invoke.38', symObjAddr: 0x14D8, symBinAddr: 0x19274, symSize: 0xDC }
  - { offset: 0x1F6745, size: 0x8, addend: 0x0, symName: '-[RCTLegacyViewManagerInteropComponentView _setPropsWithUpdateMask:]', symObjAddr: 0x15C8, symBinAddr: 0x19350, symSize: 0x2C }
  - { offset: 0x1F67CA, size: 0x8, addend: 0x0, symName: '-[RCTLegacyViewManagerInteropComponentView paperView]', symObjAddr: 0x15F4, symBinAddr: 0x1937C, symSize: 0x10 }
  - { offset: 0x1F6800, size: 0x8, addend: 0x0, symName: '-[RCTLegacyViewManagerInteropComponentView handleCommand:args:]', symObjAddr: 0x1604, symBinAddr: 0x1938C, symSize: 0x10 }
  - { offset: 0x1F6850, size: 0x8, addend: 0x0, symName: '-[RCTLegacyViewManagerInteropComponentView .cxx_destruct]', symObjAddr: 0x1614, symBinAddr: 0x1939C, symSize: 0x64 }
  - { offset: 0x1F6927, size: 0x8, addend: 0x0, symName: '-[RCTLegacyViewManagerInteropComponentView .cxx_construct]', symObjAddr: 0x1678, symBinAddr: 0x19400, symSize: 0x14 }
  - { offset: 0x1F6AE3, size: 0x8, addend: 0x0, symName: __ZNSt3__110shared_ptrIKN8facebook5react33LegacyViewManagerInteropViewPropsEED1B8ne200100Ev, symObjAddr: 0x17A4, symBinAddr: 0x19414, symSize: 0x4 }
  - { offset: 0x1F6B0F, size: 0x8, addend: 0x0, symName: __ZNSt3__110shared_ptrIKN8facebook5react33LegacyViewManagerInteropViewPropsEED1B8ne200100Ev, symObjAddr: 0x17A4, symBinAddr: 0x19414, symSize: 0x4 }
  - { offset: 0x1F6D92, size: 0x8, addend: 0x0, symName: __ZNSt3__120__shared_ptr_emplaceIKN8facebook5react33LegacyViewManagerInteropViewPropsENS_9allocatorIS3_EEEC2B8ne200100IJES6_Li0EEES6_DpOT_, symObjAddr: 0x17F0, symBinAddr: 0x19460, symSize: 0x7C }
  - { offset: 0x1F8502, size: 0x8, addend: 0x0, symName: __ZNSt3__120__shared_ptr_emplaceIKN8facebook5react33LegacyViewManagerInteropViewPropsENS_9allocatorIS3_EEED1Ev, symObjAddr: 0x186C, symBinAddr: 0x194DC, symSize: 0x14 }
  - { offset: 0x1F8524, size: 0x8, addend: 0x0, symName: __ZNSt3__120__shared_ptr_emplaceIKN8facebook5react33LegacyViewManagerInteropViewPropsENS_9allocatorIS3_EEED1Ev, symObjAddr: 0x186C, symBinAddr: 0x194DC, symSize: 0x14 }
  - { offset: 0x1F8558, size: 0x8, addend: 0x0, symName: __ZNSt3__120__shared_ptr_emplaceIKN8facebook5react33LegacyViewManagerInteropViewPropsENS_9allocatorIS3_EEED0Ev, symObjAddr: 0x1880, symBinAddr: 0x194F0, symSize: 0x24 }
  - { offset: 0x1F869C, size: 0x8, addend: 0x0, symName: __ZNSt3__120__shared_ptr_emplaceIKN8facebook5react33LegacyViewManagerInteropViewPropsENS_9allocatorIS3_EEE16__on_zero_sharedEv, symObjAddr: 0x18A4, symBinAddr: 0x19514, symSize: 0x34 }
  - { offset: 0x1F8C00, size: 0x8, addend: 0x0, symName: __ZNSt3__120__shared_ptr_emplaceIKN8facebook5react33LegacyViewManagerInteropViewPropsENS_9allocatorIS3_EEE21__on_zero_shared_weakEv, symObjAddr: 0x18D8, symBinAddr: 0x19548, symSize: 0x4 }
  - { offset: 0x1F8C33, size: 0x8, addend: 0x0, symName: __ZNSt3__120__shared_ptr_emplaceIKN8facebook5react33LegacyViewManagerInteropViewPropsENS_9allocatorIS3_EEE21__on_zero_shared_weakEv, symObjAddr: 0x18D8, symBinAddr: 0x19548, symSize: 0x4 }
  - { offset: 0x1F8C55, size: 0x8, addend: 0x0, symName: __ZNSt3__120__shared_ptr_emplaceIKN8facebook5react33LegacyViewManagerInteropViewPropsENS_9allocatorIS3_EEE21__on_zero_shared_weakEv, symObjAddr: 0x18D8, symBinAddr: 0x19548, symSize: 0x4 }
  - { offset: 0x1F8C78, size: 0x8, addend: 0x0, symName: __ZNSt3__120__shared_ptr_emplaceIKN8facebook5react33LegacyViewManagerInteropViewPropsENS_9allocatorIS3_EEE21__on_zero_shared_weakEv, symObjAddr: 0x18D8, symBinAddr: 0x19548, symSize: 0x4 }
  - { offset: 0x1F8CAE, size: 0x8, addend: 0x0, symName: __ZNSt3__120__shared_ptr_emplaceIKN8facebook5react33LegacyViewManagerInteropViewPropsENS_9allocatorIS3_EEE21__on_zero_shared_weakEv, symObjAddr: 0x18D8, symBinAddr: 0x19548, symSize: 0x4 }
  - { offset: 0x1FB597, size: 0x8, addend: 0x0, symName: __ZN8facebook5react33LegacyViewManagerInteropViewPropsD1Ev, symObjAddr: 0x1DF8, symBinAddr: 0x1954C, symSize: 0x34 }
  - { offset: 0x1FB61B, size: 0x8, addend: 0x0, symName: __ZN8facebook5react33LegacyViewManagerInteropViewPropsD0Ev, symObjAddr: 0x1E2C, symBinAddr: 0x19580, symSize: 0x38 }
  - { offset: 0x1FD4F5, size: 0x8, addend: 0x0, symName: __GLOBAL__sub_I_RCTLegacyViewManagerInteropComponentView.mm, symObjAddr: 0x2C50, symBinAddr: 0x19624, symSize: 0x20 }
  - { offset: 0x207901, size: 0x8, addend: 0x0, symName: '-[RCTLegacyViewManagerInteropCoordinatorAdapter initWithCoordinator:reactTag:]', symObjAddr: 0x0, symBinAddr: 0x19644, symSize: 0x88 }
  - { offset: 0x207954, size: 0x8, addend: 0x0, symName: '-[RCTLegacyViewManagerInteropCoordinatorAdapter dealloc]', symObjAddr: 0x88, symBinAddr: 0x196CC, symSize: 0x7C }
  - { offset: 0x207985, size: 0x8, addend: 0x0, symName: '-[RCTLegacyViewManagerInteropCoordinatorAdapter paperView]', symObjAddr: 0x114, symBinAddr: 0x19748, symSize: 0xD8 }
  - { offset: 0x207AEA, size: 0x8, addend: 0x0, symName: '___58-[RCTLegacyViewManagerInteropCoordinatorAdapter paperView]_block_invoke', symObjAddr: 0x1EC, symBinAddr: 0x19820, symSize: 0x10C }
  - { offset: 0x207F6E, size: 0x8, addend: 0x0, symName: '-[RCTLegacyViewManagerInteropCoordinatorAdapter setProps:]', symObjAddr: 0x30C, symBinAddr: 0x1992C, symSize: 0xD4 }
  - { offset: 0x20805A, size: 0x8, addend: 0x0, symName: '-[RCTLegacyViewManagerInteropCoordinatorAdapter handleCommand:args:]', symObjAddr: 0x3E0, symBinAddr: 0x19A00, symSize: 0x9C }
  - { offset: 0x2080A9, size: 0x8, addend: 0x0, symName: '-[RCTLegacyViewManagerInteropCoordinatorAdapter _diffProps:]', symObjAddr: 0x47C, symBinAddr: 0x19A9C, symSize: 0xC8 }
  - { offset: 0x2080FD, size: 0x8, addend: 0x0, symName: '___60-[RCTLegacyViewManagerInteropCoordinatorAdapter _diffProps:]_block_invoke', symObjAddr: 0x544, symBinAddr: 0x19B64, symSize: 0xAC }
  - { offset: 0x208194, size: 0x8, addend: 0x0, symName: '-[RCTLegacyViewManagerInteropCoordinatorAdapter _prop:isDifferentFrom:]', symObjAddr: 0x640, symBinAddr: 0x19C10, symSize: 0xD8 }
  - { offset: 0x2081FF, size: 0x8, addend: 0x0, symName: '-[RCTLegacyViewManagerInteropCoordinatorAdapter _propIsSameNumber:second:]', symObjAddr: 0x718, symBinAddr: 0x19CE8, symSize: 0xA0 }
  - { offset: 0x20824E, size: 0x8, addend: 0x0, symName: '-[RCTLegacyViewManagerInteropCoordinatorAdapter _propIsSameString:second:]', symObjAddr: 0x7B8, symBinAddr: 0x19D88, symSize: 0xA0 }
  - { offset: 0x20829D, size: 0x8, addend: 0x0, symName: '-[RCTLegacyViewManagerInteropCoordinatorAdapter _propIsSameArray:second:]', symObjAddr: 0x858, symBinAddr: 0x19E28, symSize: 0xA0 }
  - { offset: 0x2082EC, size: 0x8, addend: 0x0, symName: '-[RCTLegacyViewManagerInteropCoordinatorAdapter _propIsSameObject:second:]', symObjAddr: 0x8F8, symBinAddr: 0x19EC8, symSize: 0xA0 }
  - { offset: 0x20833B, size: 0x8, addend: 0x0, symName: '-[RCTLegacyViewManagerInteropCoordinatorAdapter setPaperView:]', symObjAddr: 0x998, symBinAddr: 0x19F68, symSize: 0xC }
  - { offset: 0x20837A, size: 0x8, addend: 0x0, symName: '-[RCTLegacyViewManagerInteropCoordinatorAdapter eventInterceptor]', symObjAddr: 0x9A4, symBinAddr: 0x19F74, symSize: 0x8 }
  - { offset: 0x2083AF, size: 0x8, addend: 0x0, symName: '-[RCTLegacyViewManagerInteropCoordinatorAdapter setEventInterceptor:]', symObjAddr: 0x9AC, symBinAddr: 0x19F7C, symSize: 0x8 }
  - { offset: 0x2083EE, size: 0x8, addend: 0x0, symName: '-[RCTLegacyViewManagerInteropCoordinatorAdapter .cxx_destruct]', symObjAddr: 0x9B4, symBinAddr: 0x19F84, symSize: 0x48 }
  - { offset: 0x20A635, size: 0x8, addend: 0x0, symName: __ZN8facebook5react17HostPlatformColorL14UndefinedColorE, symObjAddr: 0x26350, symBinAddr: 0x9FE00, symSize: 0x0 }
  - { offset: 0x20F7B6, size: 0x8, addend: 0x0, symName: '+[RCTLinearGradient gradientLayerWithSize:gradient:]', symObjAddr: 0x0, symBinAddr: 0x19FCC, symSize: 0x2A4 }
  - { offset: 0x20FC05, size: 0x8, addend: 0x0, symName: __ZL18getPointsFromAngled6CGSize, symObjAddr: 0x2A4, symBinAddr: 0x1A270, symSize: 0x144 }
  - { offset: 0x210131, size: 0x8, addend: 0x0, symName: __GLOBAL__sub_I_RCTLinearGradient.mm, symObjAddr: 0x578, symBinAddr: 0x1A3B4, symSize: 0x20 }
  - { offset: 0x2122F9, size: 0x8, addend: 0x0, symName: _setLocalizationDelegate, symObjAddr: 0x0, symBinAddr: 0x1A3D4, symSize: 0x10 }
  - { offset: 0x212313, size: 0x8, addend: 0x0, symName: __ZL9_delegate, symObjAddr: 0x1DB8, symBinAddr: 0x9FE18, symSize: 0x0 }
  - { offset: 0x212359, size: 0x8, addend: 0x0, symName: __ZL13_languagePack, symObjAddr: 0x1DC0, symBinAddr: 0x9FE20, symSize: 0x0 }
  - { offset: 0x21237D, size: 0x8, addend: 0x0, symName: _setLocalizationDelegate, symObjAddr: 0x0, symBinAddr: 0x1A3D4, symSize: 0x10 }
  - { offset: 0x2123A3, size: 0x8, addend: 0x0, symName: _setLocalizationLanguagePack, symObjAddr: 0x10, symBinAddr: 0x1A3E4, symSize: 0x10 }
  - { offset: 0x2123C9, size: 0x8, addend: 0x0, symName: '+[RCTLocalizationProvider RCTLocalizedString:withDescription:]', symObjAddr: 0x20, symBinAddr: 0x1A3F4, symSize: 0xAC }
  - { offset: 0x212654, size: 0x8, addend: 0x0, symName: __ZN8facebook5react17HostPlatformColorL14UndefinedColorE, symObjAddr: 0x19DFA8, symBinAddr: 0x9FE28, symSize: 0x0 }
  - { offset: 0x215D76, size: 0x8, addend: 0x0, symName: __ZN8facebook5react38concreteComponentDescriptorConstructorINS0_32ModalHostViewComponentDescriptorEEENSt3__110unique_ptrIKNS0_19ComponentDescriptorENS3_14default_deleteIS6_EEEERKNS0_29ComponentDescriptorParametersE, symObjAddr: 0x26D0, symBinAddr: 0x1BA7C, symSize: 0x34 }
  - { offset: 0x233BB4, size: 0x8, addend: 0x0, symName: __ZNSt3__115allocate_sharedB8ne200100IKN8facebook5react18ModalHostViewPropsENS_9allocatorIS3_EEJELi0EEENS_10shared_ptrIT_EERKT0_DpOT1_, symObjAddr: 0x107C, symBinAddr: 0x1B384, symSize: 0x48 }
  - { offset: 0x235E2E, size: 0x8, addend: 0x0, symName: __ZNSt3__111make_uniqueB8ne200100IKN8facebook5react32ModalHostViewComponentDescriptorEJRKNS2_29ComponentDescriptorParametersEELi0EEENS_10unique_ptrIT_NS_14default_deleteIS9_EEEEDpOT0_, symObjAddr: 0x2704, symBinAddr: 0x1BAB0, symSize: 0xE4 }
  - { offset: 0x23678D, size: 0x8, addend: 0x0, symName: __ZNSt3__115allocate_sharedB8ne200100IN8facebook5react23ModalHostViewShadowNodeENS_9allocatorIS3_EEJRKNS2_18ShadowNodeFragmentERKNS_10shared_ptrIKNS2_16ShadowNodeFamilyEEENS2_16ShadowNodeTraitsEELi0EEENS9_IT_EERKT0_DpOT1_, symObjAddr: 0x3458, symBinAddr: 0x1C4FC, symSize: 0x70 }
  - { offset: 0x236AB0, size: 0x8, addend: 0x0, symName: __ZNSt3__115allocate_sharedB8ne200100IN8facebook5react23ModalHostViewShadowNodeENS_9allocatorIS3_EEJRKNS2_10ShadowNodeERKNS2_18ShadowNodeFragmentEELi0EEENS_10shared_ptrIT_EERKT0_DpOT1_, symObjAddr: 0x3B1C, symBinAddr: 0x1C860, symSize: 0x60 }
  - { offset: 0x2370D5, size: 0x8, addend: 0x0, symName: __ZNSt3__115allocate_sharedB8ne200100IN8facebook5react13ConcreteStateINS2_18ModalHostViewStateEEENS_9allocatorIS5_EEJNS_10shared_ptrIKS4_EERKNS8_IKNS2_16ShadowNodeFamilyEEEELi0EEENS8_IT_EERKT0_DpOT1_, symObjAddr: 0x4008, symBinAddr: 0x1CA98, symSize: 0x60 }
  - { offset: 0x237403, size: 0x8, addend: 0x0, symName: __ZNSt3__115allocate_sharedB8ne200100IKN8facebook5react13ConcreteStateINS2_18ModalHostViewStateEEENS_9allocatorIS5_EEJNS_10shared_ptrIKS4_EERKNS2_5StateEELi0EEENS9_IT_EERKT0_DpOT1_, symObjAddr: 0x42F0, symBinAddr: 0x1CD28, symSize: 0x60 }
  - { offset: 0x237982, size: 0x8, addend: 0x0, symName: __ZNSt3__115allocate_sharedB8ne200100IKN8facebook5react25ModalHostViewEventEmitterENS_9allocatorIS3_EEJNS_10shared_ptrINS2_11EventTargetEEERKNS_8weak_ptrIKNS2_15EventDispatcherEEEELi0EEENS7_IT_EERKT0_DpOT1_, symObjAddr: 0x4504, symBinAddr: 0x1CF3C, symSize: 0x60 }
  - { offset: 0x237C31, size: 0x8, addend: 0x0, symName: __ZNSt3__115allocate_sharedB8ne200100IN8facebook5react16ShadowNodeFamilyENS_9allocatorIS3_EEJRKNS2_24ShadowNodeFamilyFragmentERNS_10shared_ptrIKNS2_25ModalHostViewEventEmitterEEERKNS_8weak_ptrIKNS2_15EventDispatcherEEERKNS2_27ConcreteComponentDescriptorINS2_23ModalHostViewShadowNodeEEEELi0EEENS9_IT_EERKT0_DpOT1_, symObjAddr: 0x4BD0, symBinAddr: 0x1D1DC, symSize: 0x78 }
  - { offset: 0x238C25, size: 0x8, addend: 0x0, symName: __ZNSt3__115allocate_sharedB8ne200100IN8facebook5react18ModalHostViewPropsENS_9allocatorIS3_EEJRKNS2_18PropsParserContextERKS3_RKNS2_8RawPropsEELi0EEENS_10shared_ptrIT_EERKT0_DpOT1_, symObjAddr: 0x3CA0, symBinAddr: 0x1C98C, symSize: 0x70 }
  - { offset: 0x239921, size: 0x8, addend: 0x0, symName: __ZNSt3__112construct_atB8ne200100IN8facebook5react13ConcreteStateINS2_18ModalHostViewStateEEEJNS_10shared_ptrIKS4_EERKNS6_IKNS2_16ShadowNodeFamilyEEEEPS5_EEPT_SG_DpOT0_, symObjAddr: 0x40FC, symBinAddr: 0x1CB8C, symSize: 0xC8 }
  - { offset: 0x239FC3, size: 0x8, addend: 0x0, symName: __ZNSt3__112construct_atB8ne200100IN8facebook5react13ConcreteStateINS2_18ModalHostViewStateEEEJNS_10shared_ptrIKS4_EERKNS2_5StateEEPS5_EEPT_SE_DpOT0_, symObjAddr: 0x43E4, symBinAddr: 0x1CE1C, symSize: 0x88 }
  - { offset: 0x23A60F, size: 0x8, addend: 0x0, symName: __ZNSt3__112construct_atB8ne200100IN8facebook5react25ModalHostViewEventEmitterEJNS_10shared_ptrINS2_11EventTargetEEERKNS_8weak_ptrIKNS2_15EventDispatcherEEEEPS3_EEPT_SF_DpOT0_, symObjAddr: 0x45F8, symBinAddr: 0x1D030, symSize: 0x140 }
  - { offset: 0x23B279, size: 0x8, addend: 0x0, symName: __ZNSt3__112construct_atB8ne200100IN8facebook5react16ShadowNodeFamilyEJRKNS2_24ShadowNodeFamilyFragmentERNS_10shared_ptrIKNS2_25ModalHostViewEventEmitterEEERKNS_8weak_ptrIKNS2_15EventDispatcherEEERKNS2_27ConcreteComponentDescriptorINS2_23ModalHostViewShadowNodeEEEEPS3_EEPT_SP_DpOT0_, symObjAddr: 0x4CD8, symBinAddr: 0x1D2A0, symSize: 0xDC }
  - { offset: 0x2401B2, size: 0x8, addend: 0x0, symName: __ZN8facebook5react18ConcreteShadowNodeIXadL_ZNS0_26ModalHostViewComponentNameEEENS0_24YogaLayoutableShadowNodeENS0_18ModalHostViewPropsENS0_25ModalHostViewEventEmitterENS0_18ModalHostViewStateEE18defaultSharedPropsEv, symObjAddr: 0x98, symBinAddr: 0x1A538, symSize: 0x9C }
  - { offset: 0x2401D2, size: 0x8, addend: 0x0, symName: __ZZN8facebook5react18ConcreteShadowNodeIXadL_ZNS0_26ModalHostViewComponentNameEEENS0_24YogaLayoutableShadowNodeENS0_18ModalHostViewPropsENS0_25ModalHostViewEventEmitterENS0_18ModalHostViewStateEE18defaultSharedPropsEvE18defaultSharedProps, symObjAddr: 0x7560, symBinAddr: 0x9F4D0, symSize: 0x0 }
  - { offset: 0x2403CE, size: 0x8, addend: 0x0, symName: __ZNK8facebook5react13ConcreteStateINS0_18ModalHostViewStateEE11updateStateENSt3__18functionIFNS4_10shared_ptrIKvEERKS2_EEE, symObjAddr: 0x1F34, symBinAddr: 0x1B4D8, symSize: 0x204 }
  - { offset: 0x240C50, size: 0x8, addend: 0x0, symName: __ZNK8facebook5react13ConcreteStateINS0_18ModalHostViewStateEE11updateStateEOS2_, symObjAddr: 0x968, symBinAddr: 0x1AD30, symSize: 0xD0 }
  - { offset: 0x2411AB, size: 0x8, addend: 0x0, symName: '-[RCTModalHostViewComponentView initWithFrame:]', symObjAddr: 0x0, symBinAddr: 0x1A4A0, symSize: 0x98 }
  - { offset: 0x241438, size: 0x8, addend: 0x0, symName: '-[RCTModalHostViewComponentView viewController]', symObjAddr: 0x1AC, symBinAddr: 0x1A5D4, symSize: 0x6C }
  - { offset: 0x24146E, size: 0x8, addend: 0x0, symName: '-[RCTModalHostViewComponentView presentViewController:animated:completion:]', symObjAddr: 0x218, symBinAddr: 0x1A640, symSize: 0x94 }
  - { offset: 0x2414E4, size: 0x8, addend: 0x0, symName: '-[RCTModalHostViewComponentView dismissViewController:animated:completion:]', symObjAddr: 0x2AC, symBinAddr: 0x1A6D4, symSize: 0x10 }
  - { offset: 0x241545, size: 0x8, addend: 0x0, symName: '-[RCTModalHostViewComponentView ensurePresentedOnlyIfNeeded]', symObjAddr: 0x2BC, symBinAddr: 0x1A6E4, symSize: 0x288 }
  - { offset: 0x24160B, size: 0x8, addend: 0x0, symName: '___60-[RCTModalHostViewComponentView ensurePresentedOnlyIfNeeded]_block_invoke', symObjAddr: 0x544, symBinAddr: 0x1A96C, symSize: 0x90 }
  - { offset: 0x2417C1, size: 0x8, addend: 0x0, symName: '___60-[RCTModalHostViewComponentView ensurePresentedOnlyIfNeeded]_block_invoke.1', symObjAddr: 0x5E4, symBinAddr: 0x1A9FC, symSize: 0xA4 }
  - { offset: 0x241A16, size: 0x8, addend: 0x0, symName: '-[RCTModalHostViewComponentView modalEventEmitter]', symObjAddr: 0x6D8, symBinAddr: 0x1AAA0, symSize: 0x44 }
  - { offset: 0x241BB3, size: 0x8, addend: 0x0, symName: '-[RCTModalHostViewComponentView didMoveToWindow]', symObjAddr: 0x71C, symBinAddr: 0x1AAE4, symSize: 0x48 }
  - { offset: 0x241BE5, size: 0x8, addend: 0x0, symName: '-[RCTModalHostViewComponentView didMoveToSuperview]', symObjAddr: 0x764, symBinAddr: 0x1AB2C, symSize: 0x48 }
  - { offset: 0x241C17, size: 0x8, addend: 0x0, symName: '-[RCTModalHostViewComponentView saveAccessibilityFocusedView]', symObjAddr: 0x7AC, symBinAddr: 0x1AB74, symSize: 0x78 }
  - { offset: 0x241C8F, size: 0x8, addend: 0x0, symName: '-[RCTModalHostViewComponentView restoreAccessibilityFocusedView]', symObjAddr: 0x824, symBinAddr: 0x1ABEC, symSize: 0x6C }
  - { offset: 0x241DF5, size: 0x8, addend: 0x0, symName: '-[RCTModalHostViewComponentView boundsDidChange:]', symObjAddr: 0x890, symBinAddr: 0x1AC58, symSize: 0xD8 }
  - { offset: 0x24237B, size: 0x8, addend: 0x0, symName: '+[RCTModalHostViewComponentView componentDescriptorProvider]', symObjAddr: 0xA38, symBinAddr: 0x1AE00, symSize: 0x20 }
  - { offset: 0x2423B0, size: 0x8, addend: 0x0, symName: '+[RCTModalHostViewComponentView componentDescriptorProvider]', symObjAddr: 0xA38, symBinAddr: 0x1AE00, symSize: 0x20 }
  - { offset: 0x242411, size: 0x8, addend: 0x0, symName: '-[RCTModalHostViewComponentView prepareForRecycle]', symObjAddr: 0xA58, symBinAddr: 0x1AE20, symSize: 0x7C }
  - { offset: 0x242688, size: 0x8, addend: 0x0, symName: '-[RCTModalHostViewComponentView updateProps:oldProps:]', symObjAddr: 0xB30, symBinAddr: 0x1AE9C, symSize: 0x1F8 }
  - { offset: 0x242851, size: 0x8, addend: 0x0, symName: '-[RCTModalHostViewComponentView updateState:oldState:]', symObjAddr: 0xD28, symBinAddr: 0x1B094, symSize: 0x8C }
  - { offset: 0x242B64, size: 0x8, addend: 0x0, symName: '-[RCTModalHostViewComponentView mountChildComponentView:index:]', symObjAddr: 0xE18, symBinAddr: 0x1B120, symSize: 0x98 }
  - { offset: 0x242BBB, size: 0x8, addend: 0x0, symName: '-[RCTModalHostViewComponentView unmountChildComponentView:index:]', symObjAddr: 0xEB0, symBinAddr: 0x1B1B8, symSize: 0x8 }
  - { offset: 0x242C0A, size: 0x8, addend: 0x0, symName: '-[RCTModalHostViewComponentView presentationControllerDidAttemptToDismiss:]', symObjAddr: 0xEB8, symBinAddr: 0x1B1C0, symSize: 0x80 }
  - { offset: 0x242D6F, size: 0x8, addend: 0x0, symName: '-[RCTModalHostViewComponentView presentationControllerDidDismiss:]', symObjAddr: 0xF38, symBinAddr: 0x1B240, symSize: 0xA0 }
  - { offset: 0x242F0A, size: 0x8, addend: 0x0, symName: '-[RCTModalHostViewComponentView accessibilityFocusedView]', symObjAddr: 0xFD8, symBinAddr: 0x1B2E0, symSize: 0x20 }
  - { offset: 0x242F40, size: 0x8, addend: 0x0, symName: '-[RCTModalHostViewComponentView setAccessibilityFocusedView:]', symObjAddr: 0xFF8, symBinAddr: 0x1B300, symSize: 0x14 }
  - { offset: 0x242F80, size: 0x8, addend: 0x0, symName: '-[RCTModalHostViewComponentView .cxx_destruct]', symObjAddr: 0x100C, symBinAddr: 0x1B314, symSize: 0x4C }
  - { offset: 0x243059, size: 0x8, addend: 0x0, symName: '-[RCTModalHostViewComponentView .cxx_construct]', symObjAddr: 0x1058, symBinAddr: 0x1B360, symSize: 0x14 }
  - { offset: 0x2430C9, size: 0x8, addend: 0x0, symName: _RCTModalHostViewCls, symObjAddr: 0x106C, symBinAddr: 0x1B374, symSize: 0xC }
  - { offset: 0x2430E5, size: 0x8, addend: 0x0, symName: __ZNSt3__110shared_ptrIKN8facebook5react18ModalHostViewPropsEED1B8ne200100Ev, symObjAddr: 0x1078, symBinAddr: 0x1B380, symSize: 0x4 }
  - { offset: 0x243111, size: 0x8, addend: 0x0, symName: __ZNSt3__110shared_ptrIKN8facebook5react18ModalHostViewPropsEED1B8ne200100Ev, symObjAddr: 0x1078, symBinAddr: 0x1B380, symSize: 0x4 }
  - { offset: 0x243399, size: 0x8, addend: 0x0, symName: __ZNSt3__120__shared_ptr_emplaceIKN8facebook5react18ModalHostViewPropsENS_9allocatorIS3_EEEC2B8ne200100IJES6_Li0EEES6_DpOT_, symObjAddr: 0x10C4, symBinAddr: 0x1B3CC, symSize: 0x8C }
  - { offset: 0x2449C0, size: 0x8, addend: 0x0, symName: __ZNSt3__120__shared_ptr_emplaceIKN8facebook5react18ModalHostViewPropsENS_9allocatorIS3_EEED1Ev, symObjAddr: 0x1150, symBinAddr: 0x1B458, symSize: 0x14 }
  - { offset: 0x2449E2, size: 0x8, addend: 0x0, symName: __ZNSt3__120__shared_ptr_emplaceIKN8facebook5react18ModalHostViewPropsENS_9allocatorIS3_EEED1Ev, symObjAddr: 0x1150, symBinAddr: 0x1B458, symSize: 0x14 }
  - { offset: 0x244A16, size: 0x8, addend: 0x0, symName: __ZNSt3__120__shared_ptr_emplaceIKN8facebook5react18ModalHostViewPropsENS_9allocatorIS3_EEED0Ev, symObjAddr: 0x1164, symBinAddr: 0x1B46C, symSize: 0x24 }
  - { offset: 0x244B24, size: 0x8, addend: 0x0, symName: __ZNSt3__120__shared_ptr_emplaceIKN8facebook5react18ModalHostViewPropsENS_9allocatorIS3_EEE16__on_zero_sharedEv, symObjAddr: 0x1188, symBinAddr: 0x1B490, symSize: 0x14 }
  - { offset: 0x244B4C, size: 0x8, addend: 0x0, symName: __ZNSt3__120__shared_ptr_emplaceIKN8facebook5react18ModalHostViewPropsENS_9allocatorIS3_EEE16__on_zero_sharedEv, symObjAddr: 0x1188, symBinAddr: 0x1B490, symSize: 0x14 }
  - { offset: 0x245060, size: 0x8, addend: 0x0, symName: __ZNSt3__120__shared_ptr_emplaceIKN8facebook5react18ModalHostViewPropsENS_9allocatorIS3_EEE21__on_zero_shared_weakEv, symObjAddr: 0x119C, symBinAddr: 0x1B4A4, symSize: 0x4 }
  - { offset: 0x245093, size: 0x8, addend: 0x0, symName: __ZNSt3__120__shared_ptr_emplaceIKN8facebook5react18ModalHostViewPropsENS_9allocatorIS3_EEE21__on_zero_shared_weakEv, symObjAddr: 0x119C, symBinAddr: 0x1B4A4, symSize: 0x4 }
  - { offset: 0x2450B5, size: 0x8, addend: 0x0, symName: __ZNSt3__120__shared_ptr_emplaceIKN8facebook5react18ModalHostViewPropsENS_9allocatorIS3_EEE21__on_zero_shared_weakEv, symObjAddr: 0x119C, symBinAddr: 0x1B4A4, symSize: 0x4 }
  - { offset: 0x2450D8, size: 0x8, addend: 0x0, symName: __ZNSt3__120__shared_ptr_emplaceIKN8facebook5react18ModalHostViewPropsENS_9allocatorIS3_EEE21__on_zero_shared_weakEv, symObjAddr: 0x119C, symBinAddr: 0x1B4A4, symSize: 0x4 }
  - { offset: 0x24510F, size: 0x8, addend: 0x0, symName: __ZNSt3__120__shared_ptr_emplaceIKN8facebook5react18ModalHostViewPropsENS_9allocatorIS3_EEE21__on_zero_shared_weakEv, symObjAddr: 0x119C, symBinAddr: 0x1B4A4, symSize: 0x4 }
  - { offset: 0x246262, size: 0x8, addend: 0x0, symName: __ZN8facebook5react18ModalHostViewPropsD1Ev, symObjAddr: 0x15EC, symBinAddr: 0x1B4A8, symSize: 0x10 }
  - { offset: 0x246284, size: 0x8, addend: 0x0, symName: __ZN8facebook5react18ModalHostViewPropsD1Ev, symObjAddr: 0x15EC, symBinAddr: 0x1B4A8, symSize: 0x10 }
  - { offset: 0x2462BF, size: 0x8, addend: 0x0, symName: __ZN8facebook5react18ModalHostViewPropsD0Ev, symObjAddr: 0x15FC, symBinAddr: 0x1B4B8, symSize: 0x20 }
  - { offset: 0x249560, size: 0x8, addend: 0x0, symName: __ZNSt3__110__function12__value_funcIFNS_10shared_ptrIKvEERKN8facebook5react18ModalHostViewStateEEEC2B8ne200100EOSB_, symObjAddr: 0x23F0, symBinAddr: 0x1B8E4, symSize: 0x64 }
  - { offset: 0x2496E0, size: 0x8, addend: 0x0, symName: __ZNSt3__110__function6__funcIZNK8facebook5react13ConcreteStateINS3_18ModalHostViewStateEE11updateStateENS_8functionIFNS_10shared_ptrIKvEERKS5_EEEEUlRKSA_E_NS_9allocatorISH_EEFSA_SG_EED1Ev, symObjAddr: 0x21E8, symBinAddr: 0x1B6DC, symSize: 0x58 }
  - { offset: 0x249844, size: 0x8, addend: 0x0, symName: __ZNSt3__110__function6__funcIZNK8facebook5react13ConcreteStateINS3_18ModalHostViewStateEE11updateStateENS_8functionIFNS_10shared_ptrIKvEERKS5_EEEEUlRKSA_E_NS_9allocatorISH_EEFSA_SG_EED0Ev, symObjAddr: 0x2240, symBinAddr: 0x1B734, symSize: 0x58 }
  - { offset: 0x249BBE, size: 0x8, addend: 0x0, symName: __ZNKSt3__110__function6__funcIZNK8facebook5react13ConcreteStateINS3_18ModalHostViewStateEE11updateStateENS_8functionIFNS_10shared_ptrIKvEERKS5_EEEEUlRKSA_E_NS_9allocatorISH_EEFSA_SG_EE7__cloneEv, symObjAddr: 0x2298, symBinAddr: 0x1B78C, symSize: 0x54 }
  - { offset: 0x249F20, size: 0x8, addend: 0x0, symName: __ZNKSt3__110__function6__funcIZNK8facebook5react13ConcreteStateINS3_18ModalHostViewStateEE11updateStateENS_8functionIFNS_10shared_ptrIKvEERKS5_EEEEUlRKSA_E_NS_9allocatorISH_EEFSA_SG_EE7__cloneEPNS0_6__baseISK_EE, symObjAddr: 0x22EC, symBinAddr: 0x1B7E0, symSize: 0x1C }
  - { offset: 0x24A072, size: 0x8, addend: 0x0, symName: __ZNSt3__110__function6__funcIZNK8facebook5react13ConcreteStateINS3_18ModalHostViewStateEE11updateStateENS_8functionIFNS_10shared_ptrIKvEERKS5_EEEEUlRKSA_E_NS_9allocatorISH_EEFSA_SG_EE7destroyEv, symObjAddr: 0x2308, symBinAddr: 0x1B7FC, symSize: 0x30 }
  - { offset: 0x24A181, size: 0x8, addend: 0x0, symName: __ZNSt3__110__function6__funcIZNK8facebook5react13ConcreteStateINS3_18ModalHostViewStateEE11updateStateENS_8functionIFNS_10shared_ptrIKvEERKS5_EEEEUlRKSA_E_NS_9allocatorISH_EEFSA_SG_EE18destroy_deallocateEv, symObjAddr: 0x2338, symBinAddr: 0x1B82C, symSize: 0x4C }
  - { offset: 0x24A410, size: 0x8, addend: 0x0, symName: __ZNSt3__110__function6__funcIZNK8facebook5react13ConcreteStateINS3_18ModalHostViewStateEE11updateStateENS_8functionIFNS_10shared_ptrIKvEERKS5_EEEEUlRKSA_E_NS_9allocatorISH_EEFSA_SG_EEclESG_, symObjAddr: 0x2384, symBinAddr: 0x1B878, symSize: 0x24 }
  - { offset: 0x24A449, size: 0x8, addend: 0x0, symName: __ZNSt3__110__function6__funcIZNK8facebook5react13ConcreteStateINS3_18ModalHostViewStateEE11updateStateENS_8functionIFNS_10shared_ptrIKvEERKS5_EEEEUlRKSA_E_NS_9allocatorISH_EEFSA_SG_EEclESG_, symObjAddr: 0x2384, symBinAddr: 0x1B878, symSize: 0x24 }
  - { offset: 0x24A472, size: 0x8, addend: 0x0, symName: __ZNSt3__110__function6__funcIZNK8facebook5react13ConcreteStateINS3_18ModalHostViewStateEE11updateStateENS_8functionIFNS_10shared_ptrIKvEERKS5_EEEEUlRKSA_E_NS_9allocatorISH_EEFSA_SG_EEclESG_, symObjAddr: 0x2384, symBinAddr: 0x1B878, symSize: 0x24 }
  - { offset: 0x24A49B, size: 0x8, addend: 0x0, symName: __ZNSt3__110__function6__funcIZNK8facebook5react13ConcreteStateINS3_18ModalHostViewStateEE11updateStateENS_8functionIFNS_10shared_ptrIKvEERKS5_EEEEUlRKSA_E_NS_9allocatorISH_EEFSA_SG_EEclESG_, symObjAddr: 0x2384, symBinAddr: 0x1B878, symSize: 0x24 }
  - { offset: 0x24A4C6, size: 0x8, addend: 0x0, symName: __ZNSt3__110__function6__funcIZNK8facebook5react13ConcreteStateINS3_18ModalHostViewStateEE11updateStateENS_8functionIFNS_10shared_ptrIKvEERKS5_EEEEUlRKSA_E_NS_9allocatorISH_EEFSA_SG_EEclESG_, symObjAddr: 0x2384, symBinAddr: 0x1B878, symSize: 0x24 }
  - { offset: 0x24A4F0, size: 0x8, addend: 0x0, symName: __ZNSt3__110__function6__funcIZNK8facebook5react13ConcreteStateINS3_18ModalHostViewStateEE11updateStateENS_8functionIFNS_10shared_ptrIKvEERKS5_EEEEUlRKSA_E_NS_9allocatorISH_EEFSA_SG_EEclESG_, symObjAddr: 0x2384, symBinAddr: 0x1B878, symSize: 0x24 }
  - { offset: 0x24A58C, size: 0x8, addend: 0x0, symName: __ZNKSt3__110__function6__funcIZNK8facebook5react13ConcreteStateINS3_18ModalHostViewStateEE11updateStateENS_8functionIFNS_10shared_ptrIKvEERKS5_EEEEUlRKSA_E_NS_9allocatorISH_EEFSA_SG_EE6targetERKSt9type_info, symObjAddr: 0x23A8, symBinAddr: 0x1B89C, symSize: 0x3C }
  - { offset: 0x24A597, size: 0x8, addend: 0x0, symName: __ZNKSt3__110__function6__funcIZNK8facebook5react13ConcreteStateINS3_18ModalHostViewStateEE11updateStateENS_8functionIFNS_10shared_ptrIKvEERKS5_EEEEUlRKSA_E_NS_9allocatorISH_EEFSA_SG_EE6targetERKSt9type_info, symObjAddr: 0x23A8, symBinAddr: 0x1B89C, symSize: 0x3C }
  - { offset: 0x24A649, size: 0x8, addend: 0x0, symName: __ZNKSt3__110__function6__funcIZNK8facebook5react13ConcreteStateINS3_18ModalHostViewStateEE11updateStateENS_8functionIFNS_10shared_ptrIKvEERKS5_EEEEUlRKSA_E_NS_9allocatorISH_EEFSA_SG_EE11target_typeEv, symObjAddr: 0x23E4, symBinAddr: 0x1B8D8, symSize: 0xC }
  - { offset: 0x24A6EC, size: 0x8, addend: 0x0, symName: __ZNSt3__110__function6__funcIZNK8facebook5react13ConcreteStateINS3_18ModalHostViewStateEE11updateStateEOS5_EUlRKS5_E_NS_9allocatorISA_EEFNS_10shared_ptrIKvEES9_EED1Ev, symObjAddr: 0x2544, symBinAddr: 0x1B948, symSize: 0x4 }
  - { offset: 0x24A718, size: 0x8, addend: 0x0, symName: __ZNSt3__110__function6__funcIZNK8facebook5react13ConcreteStateINS3_18ModalHostViewStateEE11updateStateEOS5_EUlRKS5_E_NS_9allocatorISA_EEFNS_10shared_ptrIKvEES9_EED0Ev, symObjAddr: 0x2548, symBinAddr: 0x1B94C, symSize: 0x4 }
  - { offset: 0x24A824, size: 0x8, addend: 0x0, symName: __ZNKSt3__110__function6__funcIZNK8facebook5react13ConcreteStateINS3_18ModalHostViewStateEE11updateStateEOS5_EUlRKS5_E_NS_9allocatorISA_EEFNS_10shared_ptrIKvEES9_EE7__cloneEv, symObjAddr: 0x254C, symBinAddr: 0x1B950, symSize: 0x38 }
  - { offset: 0x24AA2F, size: 0x8, addend: 0x0, symName: __ZNKSt3__110__function6__funcIZNK8facebook5react13ConcreteStateINS3_18ModalHostViewStateEE11updateStateEOS5_EUlRKS5_E_NS_9allocatorISA_EEFNS_10shared_ptrIKvEES9_EE7__cloneEPNS0_6__baseISG_EE, symObjAddr: 0x2584, symBinAddr: 0x1B988, symSize: 0x18 }
  - { offset: 0x24AA65, size: 0x8, addend: 0x0, symName: __ZNKSt3__110__function6__funcIZNK8facebook5react13ConcreteStateINS3_18ModalHostViewStateEE11updateStateEOS5_EUlRKS5_E_NS_9allocatorISA_EEFNS_10shared_ptrIKvEES9_EE7__cloneEPNS0_6__baseISG_EE, symObjAddr: 0x2584, symBinAddr: 0x1B988, symSize: 0x18 }
  - { offset: 0x24AA93, size: 0x8, addend: 0x0, symName: __ZNKSt3__110__function6__funcIZNK8facebook5react13ConcreteStateINS3_18ModalHostViewStateEE11updateStateEOS5_EUlRKS5_E_NS_9allocatorISA_EEFNS_10shared_ptrIKvEES9_EE7__cloneEPNS0_6__baseISG_EE, symObjAddr: 0x2584, symBinAddr: 0x1B988, symSize: 0x18 }
  - { offset: 0x24AB22, size: 0x8, addend: 0x0, symName: __ZNSt3__110__function6__funcIZNK8facebook5react13ConcreteStateINS3_18ModalHostViewStateEE11updateStateEOS5_EUlRKS5_E_NS_9allocatorISA_EEFNS_10shared_ptrIKvEES9_EE7destroyEv, symObjAddr: 0x259C, symBinAddr: 0x1B9A0, symSize: 0x4 }
  - { offset: 0x24AB76, size: 0x8, addend: 0x0, symName: __ZNSt3__110__function6__funcIZNK8facebook5react13ConcreteStateINS3_18ModalHostViewStateEE11updateStateEOS5_EUlRKS5_E_NS_9allocatorISA_EEFNS_10shared_ptrIKvEES9_EE18destroy_deallocateEv, symObjAddr: 0x25A0, symBinAddr: 0x1B9A4, symSize: 0x4 }
  - { offset: 0x24ABA9, size: 0x8, addend: 0x0, symName: __ZNSt3__110__function6__funcIZNK8facebook5react13ConcreteStateINS3_18ModalHostViewStateEE11updateStateEOS5_EUlRKS5_E_NS_9allocatorISA_EEFNS_10shared_ptrIKvEES9_EE18destroy_deallocateEv, symObjAddr: 0x25A0, symBinAddr: 0x1B9A4, symSize: 0x4 }
  - { offset: 0x24ABCC, size: 0x8, addend: 0x0, symName: __ZNSt3__110__function6__funcIZNK8facebook5react13ConcreteStateINS3_18ModalHostViewStateEE11updateStateEOS5_EUlRKS5_E_NS_9allocatorISA_EEFNS_10shared_ptrIKvEES9_EE18destroy_deallocateEv, symObjAddr: 0x25A0, symBinAddr: 0x1B9A4, symSize: 0x4 }
  - { offset: 0x24AC01, size: 0x8, addend: 0x0, symName: __ZNSt3__110__function6__funcIZNK8facebook5react13ConcreteStateINS3_18ModalHostViewStateEE11updateStateEOS5_EUlRKS5_E_NS_9allocatorISA_EEFNS_10shared_ptrIKvEES9_EE18destroy_deallocateEv, symObjAddr: 0x25A0, symBinAddr: 0x1B9A4, symSize: 0x4 }
  - { offset: 0x24AF1A, size: 0x8, addend: 0x0, symName: __ZNSt3__110__function6__funcIZNK8facebook5react13ConcreteStateINS3_18ModalHostViewStateEE11updateStateEOS5_EUlRKS5_E_NS_9allocatorISA_EEFNS_10shared_ptrIKvEES9_EEclES9_, symObjAddr: 0x25A4, symBinAddr: 0x1B9A8, symSize: 0x4C }
  - { offset: 0x24B22C, size: 0x8, addend: 0x0, symName: __ZNKSt3__110__function6__funcIZNK8facebook5react13ConcreteStateINS3_18ModalHostViewStateEE11updateStateEOS5_EUlRKS5_E_NS_9allocatorISA_EEFNS_10shared_ptrIKvEES9_EE6targetERKSt9type_info, symObjAddr: 0x25F0, symBinAddr: 0x1B9F4, symSize: 0x3C }
  - { offset: 0x24B279, size: 0x8, addend: 0x0, symName: __ZNKSt3__110__function6__funcIZNK8facebook5react13ConcreteStateINS3_18ModalHostViewStateEE11updateStateEOS5_EUlRKS5_E_NS_9allocatorISA_EEFNS_10shared_ptrIKvEES9_EE11target_typeEv, symObjAddr: 0x262C, symBinAddr: 0x1BA30, symSize: 0xC }
  - { offset: 0x24B2BA, size: 0x8, addend: 0x0, symName: __ZNSt3__120__shared_ptr_emplaceIKN8facebook5react18ModalHostViewStateENS_9allocatorIS3_EEED1Ev, symObjAddr: 0x2638, symBinAddr: 0x1BA3C, symSize: 0x14 }
  - { offset: 0x24B2DC, size: 0x8, addend: 0x0, symName: __ZNSt3__120__shared_ptr_emplaceIKN8facebook5react18ModalHostViewStateENS_9allocatorIS3_EEED1Ev, symObjAddr: 0x2638, symBinAddr: 0x1BA3C, symSize: 0x14 }
  - { offset: 0x24B310, size: 0x8, addend: 0x0, symName: __ZNSt3__120__shared_ptr_emplaceIKN8facebook5react18ModalHostViewStateENS_9allocatorIS3_EEED0Ev, symObjAddr: 0x264C, symBinAddr: 0x1BA50, symSize: 0x24 }
  - { offset: 0x24B373, size: 0x8, addend: 0x0, symName: __ZNSt3__120__shared_ptr_emplaceIKN8facebook5react18ModalHostViewStateENS_9allocatorIS3_EEE16__on_zero_sharedEv, symObjAddr: 0x2670, symBinAddr: 0x1BA74, symSize: 0x4 }
  - { offset: 0x24B3F3, size: 0x8, addend: 0x0, symName: __ZNSt3__120__shared_ptr_emplaceIKN8facebook5react18ModalHostViewStateENS_9allocatorIS3_EEE21__on_zero_shared_weakEv, symObjAddr: 0x2674, symBinAddr: 0x1BA78, symSize: 0x4 }
  - { offset: 0x24B426, size: 0x8, addend: 0x0, symName: __ZNSt3__120__shared_ptr_emplaceIKN8facebook5react18ModalHostViewStateENS_9allocatorIS3_EEE21__on_zero_shared_weakEv, symObjAddr: 0x2674, symBinAddr: 0x1BA78, symSize: 0x4 }
  - { offset: 0x24B448, size: 0x8, addend: 0x0, symName: __ZNSt3__120__shared_ptr_emplaceIKN8facebook5react18ModalHostViewStateENS_9allocatorIS3_EEE21__on_zero_shared_weakEv, symObjAddr: 0x2674, symBinAddr: 0x1BA78, symSize: 0x4 }
  - { offset: 0x24B46B, size: 0x8, addend: 0x0, symName: __ZNSt3__120__shared_ptr_emplaceIKN8facebook5react18ModalHostViewStateENS_9allocatorIS3_EEE21__on_zero_shared_weakEv, symObjAddr: 0x2674, symBinAddr: 0x1BA78, symSize: 0x4 }
  - { offset: 0x24B4A1, size: 0x8, addend: 0x0, symName: __ZNSt3__120__shared_ptr_emplaceIKN8facebook5react18ModalHostViewStateENS_9allocatorIS3_EEE21__on_zero_shared_weakEv, symObjAddr: 0x2674, symBinAddr: 0x1BA78, symSize: 0x4 }
  - { offset: 0x24BA48, size: 0x8, addend: 0x0, symName: __ZN8facebook5react14RawPropsParser7prepareINS0_18ModalHostViewPropsEEEvv, symObjAddr: 0x2FA4, symBinAddr: 0x1C300, symSize: 0x1E0 }
  - { offset: 0x24C3B0, size: 0x8, addend: 0x0, symName: __ZN8facebook5react32ModalHostViewComponentDescriptorD1Ev, symObjAddr: 0x2838, symBinAddr: 0x1BB94, symSize: 0x4 }
  - { offset: 0x24C3D2, size: 0x8, addend: 0x0, symName: __ZN8facebook5react32ModalHostViewComponentDescriptorD1Ev, symObjAddr: 0x2838, symBinAddr: 0x1BB94, symSize: 0x4 }
  - { offset: 0x24C3ED, size: 0x8, addend: 0x0, symName: __ZN8facebook5react32ModalHostViewComponentDescriptorD1Ev, symObjAddr: 0x2838, symBinAddr: 0x1BB94, symSize: 0x4 }
  - { offset: 0x24C40B, size: 0x8, addend: 0x0, symName: __ZN8facebook5react32ModalHostViewComponentDescriptorD1Ev, symObjAddr: 0x2838, symBinAddr: 0x1BB94, symSize: 0x4 }
  - { offset: 0x24C6E3, size: 0x8, addend: 0x0, symName: __ZN8facebook5react32ModalHostViewComponentDescriptorD0Ev, symObjAddr: 0x283C, symBinAddr: 0x1BB98, symSize: 0x14 }
  - { offset: 0x24C778, size: 0x8, addend: 0x0, symName: __ZNK8facebook5react27ConcreteComponentDescriptorINS0_23ModalHostViewShadowNodeEE18getComponentHandleEv, symObjAddr: 0x2850, symBinAddr: 0x1BBAC, symSize: 0xC }
  - { offset: 0x24C79E, size: 0x8, addend: 0x0, symName: __ZNK8facebook5react27ConcreteComponentDescriptorINS0_23ModalHostViewShadowNodeEE16getComponentNameEv, symObjAddr: 0x285C, symBinAddr: 0x1BBB8, symSize: 0xC }
  - { offset: 0x24C7C4, size: 0x8, addend: 0x0, symName: __ZNK8facebook5react27ConcreteComponentDescriptorINS0_23ModalHostViewShadowNodeEE9getTraitsEv, symObjAddr: 0x2868, symBinAddr: 0x1BBC4, symSize: 0x8 }
  - { offset: 0x24C8BA, size: 0x8, addend: 0x0, symName: __ZNK8facebook5react27ConcreteComponentDescriptorINS0_23ModalHostViewShadowNodeEE16createShadowNodeERKNS0_18ShadowNodeFragmentERKNSt3__110shared_ptrIKNS0_16ShadowNodeFamilyEEE, symObjAddr: 0x2870, symBinAddr: 0x1BBCC, symSize: 0x90 }
  - { offset: 0x24CB32, size: 0x8, addend: 0x0, symName: __ZNK8facebook5react27ConcreteComponentDescriptorINS0_23ModalHostViewShadowNodeEE15cloneShadowNodeERKNS0_10ShadowNodeERKNS0_18ShadowNodeFragmentE, symObjAddr: 0x2900, symBinAddr: 0x1BC5C, symSize: 0xFC }
  - { offset: 0x24CE80, size: 0x8, addend: 0x0, symName: __ZNK8facebook5react27ConcreteComponentDescriptorINS0_23ModalHostViewShadowNodeEE11appendChildERKNSt3__110shared_ptrIKNS0_10ShadowNodeEEESA_, symObjAddr: 0x29FC, symBinAddr: 0x1BD58, symSize: 0xC }
  - { offset: 0x24CED6, size: 0x8, addend: 0x0, symName: __ZNK8facebook5react27ConcreteComponentDescriptorINS0_23ModalHostViewShadowNodeEE11appendChildERKNSt3__110shared_ptrIKNS0_10ShadowNodeEEESA_, symObjAddr: 0x29FC, symBinAddr: 0x1BD58, symSize: 0xC }
  - { offset: 0x24D790, size: 0x8, addend: 0x0, symName: __ZNK8facebook5react27ConcreteComponentDescriptorINS0_23ModalHostViewShadowNodeEE10clonePropsERKNS0_18PropsParserContextERKNSt3__110shared_ptrIKNS0_5PropsEEENS0_8RawPropsE, symObjAddr: 0x2A08, symBinAddr: 0x1BD64, symSize: 0x21C }
  - { offset: 0x24E2B4, size: 0x8, addend: 0x0, symName: __ZN8facebook5react18ConcreteShadowNodeIXadL_ZNS0_26ModalHostViewComponentNameEEENS0_24YogaLayoutableShadowNodeENS0_18ModalHostViewPropsENS0_25ModalHostViewEventEmitterENS0_18ModalHostViewStateEE5PropsERKNS0_18PropsParserContextERKNS0_8RawPropsERKNSt3__110shared_ptrIKNS0_5PropsEEE, symObjAddr: 0x3C48, symBinAddr: 0x1C934, symSize: 0x58 }
  - { offset: 0x24E720, size: 0x8, addend: 0x0, symName: __ZNK8facebook5react27ConcreteComponentDescriptorINS0_23ModalHostViewShadowNodeEE18createInitialStateERKNSt3__110shared_ptrIKNS0_5PropsEEERKNS5_IKNS0_16ShadowNodeFamilyEEE, symObjAddr: 0x2C24, symBinAddr: 0x1BF80, symSize: 0xD4 }
  - { offset: 0x24EBD1, size: 0x8, addend: 0x0, symName: __ZNK8facebook5react27ConcreteComponentDescriptorINS0_23ModalHostViewShadowNodeEE11createStateERKNS0_16ShadowNodeFamilyERKNSt3__110shared_ptrIKvEE, symObjAddr: 0x2CF8, symBinAddr: 0x1C054, symSize: 0x104 }
  - { offset: 0x24F15A, size: 0x8, addend: 0x0, symName: __ZNK8facebook5react27ConcreteComponentDescriptorINS0_23ModalHostViewShadowNodeEE12createFamilyERKNS0_24ShadowNodeFamilyFragmentE, symObjAddr: 0x2DFC, symBinAddr: 0x1C158, symSize: 0x168 }
  - { offset: 0x24F677, size: 0x8, addend: 0x0, symName: __ZNK8facebook5react32ModalHostViewComponentDescriptor5adoptERNS0_10ShadowNodeE, symObjAddr: 0x2F64, symBinAddr: 0x1C2C0, symSize: 0x40 }
  - { offset: 0x24FE2D, size: 0x8, addend: 0x0, symName: __ZN8facebook5react27ConcreteComponentDescriptorINS0_23ModalHostViewShadowNodeEED1Ev, symObjAddr: 0x3184, symBinAddr: 0x1C4E0, symSize: 0x4 }
  - { offset: 0x24FE4F, size: 0x8, addend: 0x0, symName: __ZN8facebook5react27ConcreteComponentDescriptorINS0_23ModalHostViewShadowNodeEED1Ev, symObjAddr: 0x3184, symBinAddr: 0x1C4E0, symSize: 0x4 }
  - { offset: 0x24FE6C, size: 0x8, addend: 0x0, symName: __ZN8facebook5react27ConcreteComponentDescriptorINS0_23ModalHostViewShadowNodeEED1Ev, symObjAddr: 0x3184, symBinAddr: 0x1C4E0, symSize: 0x4 }
  - { offset: 0x24FE99, size: 0x8, addend: 0x0, symName: __ZN8facebook5react27ConcreteComponentDescriptorINS0_23ModalHostViewShadowNodeEED0Ev, symObjAddr: 0x3188, symBinAddr: 0x1C4E4, symSize: 0x14 }
  - { offset: 0x24FF12, size: 0x8, addend: 0x0, symName: __ZNK8facebook5react27ConcreteComponentDescriptorINS0_23ModalHostViewShadowNodeEE5adoptERNS0_10ShadowNodeE, symObjAddr: 0x319C, symBinAddr: 0x1C4F8, symSize: 0x4 }
  - { offset: 0x250731, size: 0x8, addend: 0x0, symName: __ZNSt3__120__shared_ptr_emplaceIN8facebook5react23ModalHostViewShadowNodeENS_9allocatorIS3_EEEC2B8ne200100IJRKNS2_18ShadowNodeFragmentERKNS_10shared_ptrIKNS2_16ShadowNodeFamilyEEENS2_16ShadowNodeTraitsEES5_Li0EEES5_DpOT_, symObjAddr: 0x34C8, symBinAddr: 0x1C56C, symSize: 0x78 }
  - { offset: 0x250B47, size: 0x8, addend: 0x0, symName: __ZNSt3__120__shared_ptr_emplaceIN8facebook5react23ModalHostViewShadowNodeENS_9allocatorIS3_EEED1Ev, symObjAddr: 0x3540, symBinAddr: 0x1C5E4, symSize: 0x14 }
  - { offset: 0x250B69, size: 0x8, addend: 0x0, symName: __ZNSt3__120__shared_ptr_emplaceIN8facebook5react23ModalHostViewShadowNodeENS_9allocatorIS3_EEED1Ev, symObjAddr: 0x3540, symBinAddr: 0x1C5E4, symSize: 0x14 }
  - { offset: 0x250B9D, size: 0x8, addend: 0x0, symName: __ZNSt3__120__shared_ptr_emplaceIN8facebook5react23ModalHostViewShadowNodeENS_9allocatorIS3_EEED0Ev, symObjAddr: 0x3554, symBinAddr: 0x1C5F8, symSize: 0x24 }
  - { offset: 0x250C6A, size: 0x8, addend: 0x0, symName: __ZNSt3__120__shared_ptr_emplaceIN8facebook5react23ModalHostViewShadowNodeENS_9allocatorIS3_EEE16__on_zero_sharedEv, symObjAddr: 0x3578, symBinAddr: 0x1C61C, symSize: 0x8 }
  - { offset: 0x250C92, size: 0x8, addend: 0x0, symName: __ZNSt3__120__shared_ptr_emplaceIN8facebook5react23ModalHostViewShadowNodeENS_9allocatorIS3_EEE16__on_zero_sharedEv, symObjAddr: 0x3578, symBinAddr: 0x1C61C, symSize: 0x8 }
  - { offset: 0x250CB0, size: 0x8, addend: 0x0, symName: __ZNSt3__120__shared_ptr_emplaceIN8facebook5react23ModalHostViewShadowNodeENS_9allocatorIS3_EEE16__on_zero_sharedEv, symObjAddr: 0x3578, symBinAddr: 0x1C61C, symSize: 0x8 }
  - { offset: 0x250CEE, size: 0x8, addend: 0x0, symName: __ZNSt3__120__shared_ptr_emplaceIN8facebook5react23ModalHostViewShadowNodeENS_9allocatorIS3_EEE21__on_zero_shared_weakEv, symObjAddr: 0x3580, symBinAddr: 0x1C624, symSize: 0x4 }
  - { offset: 0x250D21, size: 0x8, addend: 0x0, symName: __ZNSt3__120__shared_ptr_emplaceIN8facebook5react23ModalHostViewShadowNodeENS_9allocatorIS3_EEE21__on_zero_shared_weakEv, symObjAddr: 0x3580, symBinAddr: 0x1C624, symSize: 0x4 }
  - { offset: 0x250D43, size: 0x8, addend: 0x0, symName: __ZNSt3__120__shared_ptr_emplaceIN8facebook5react23ModalHostViewShadowNodeENS_9allocatorIS3_EEE21__on_zero_shared_weakEv, symObjAddr: 0x3580, symBinAddr: 0x1C624, symSize: 0x4 }
  - { offset: 0x250D66, size: 0x8, addend: 0x0, symName: __ZNSt3__120__shared_ptr_emplaceIN8facebook5react23ModalHostViewShadowNodeENS_9allocatorIS3_EEE21__on_zero_shared_weakEv, symObjAddr: 0x3580, symBinAddr: 0x1C624, symSize: 0x4 }
  - { offset: 0x250D9D, size: 0x8, addend: 0x0, symName: __ZNSt3__120__shared_ptr_emplaceIN8facebook5react23ModalHostViewShadowNodeENS_9allocatorIS3_EEE21__on_zero_shared_weakEv, symObjAddr: 0x3580, symBinAddr: 0x1C624, symSize: 0x4 }
  - { offset: 0x251007, size: 0x8, addend: 0x0, symName: __ZN8facebook5react23ModalHostViewShadowNodeD1Ev, symObjAddr: 0x3584, symBinAddr: 0x1C628, symSize: 0x70 }
  - { offset: 0x251587, size: 0x8, addend: 0x0, symName: __ZN8facebook5react23ModalHostViewShadowNodeD0Ev, symObjAddr: 0x35F4, symBinAddr: 0x1C698, symSize: 0x74 }
  - { offset: 0x251995, size: 0x8, addend: 0x0, symName: __ZNK8facebook5react22ConcreteViewShadowNodeIXadL_ZNS0_26ModalHostViewComponentNameEEENS0_18ModalHostViewPropsENS0_25ModalHostViewEventEmitterENS0_18ModalHostViewStateEE12getTransformEv, symObjAddr: 0x3668, symBinAddr: 0x1C70C, symSize: 0x40 }
  - { offset: 0x251A04, size: 0x8, addend: 0x0, symName: __ZNK8facebook5react22ConcreteViewShadowNodeIXadL_ZNS0_26ModalHostViewComponentNameEEENS0_18ModalHostViewPropsENS0_25ModalHostViewEventEmitterENS0_18ModalHostViewStateEE16canBeTouchTargetEv, symObjAddr: 0x36A8, symBinAddr: 0x1C74C, symSize: 0x18 }
  - { offset: 0x251A3C, size: 0x8, addend: 0x0, symName: __ZNK8facebook5react22ConcreteViewShadowNodeIXadL_ZNS0_26ModalHostViewComponentNameEEENS0_18ModalHostViewPropsENS0_25ModalHostViewEventEmitterENS0_18ModalHostViewStateEE16canBeTouchTargetEv, symObjAddr: 0x36A8, symBinAddr: 0x1C74C, symSize: 0x18 }
  - { offset: 0x251A57, size: 0x8, addend: 0x0, symName: __ZNK8facebook5react22ConcreteViewShadowNodeIXadL_ZNS0_26ModalHostViewComponentNameEEENS0_18ModalHostViewPropsENS0_25ModalHostViewEventEmitterENS0_18ModalHostViewStateEE16canBeTouchTargetEv, symObjAddr: 0x36A8, symBinAddr: 0x1C74C, symSize: 0x18 }
  - { offset: 0x251A74, size: 0x8, addend: 0x0, symName: __ZNK8facebook5react22ConcreteViewShadowNodeIXadL_ZNS0_26ModalHostViewComponentNameEEENS0_18ModalHostViewPropsENS0_25ModalHostViewEventEmitterENS0_18ModalHostViewStateEE24canChildrenBeTouchTargetEv, symObjAddr: 0x36C0, symBinAddr: 0x1C764, symSize: 0x18 }
  - { offset: 0x251AA8, size: 0x8, addend: 0x0, symName: __ZNK8facebook5react22ConcreteViewShadowNodeIXadL_ZNS0_26ModalHostViewComponentNameEEENS0_18ModalHostViewPropsENS0_25ModalHostViewEventEmitterENS0_18ModalHostViewStateEE24canChildrenBeTouchTargetEv, symObjAddr: 0x36C0, symBinAddr: 0x1C764, symSize: 0x18 }
  - { offset: 0x251AC3, size: 0x8, addend: 0x0, symName: __ZNK8facebook5react22ConcreteViewShadowNodeIXadL_ZNS0_26ModalHostViewComponentNameEEENS0_18ModalHostViewPropsENS0_25ModalHostViewEventEmitterENS0_18ModalHostViewStateEE24canChildrenBeTouchTargetEv, symObjAddr: 0x36C0, symBinAddr: 0x1C764, symSize: 0x18 }
  - { offset: 0x251B45, size: 0x8, addend: 0x0, symName: __ZN8facebook5react22ConcreteViewShadowNodeIXadL_ZNS0_26ModalHostViewComponentNameEEENS0_18ModalHostViewPropsENS0_25ModalHostViewEventEmitterENS0_18ModalHostViewStateEED1Ev, symObjAddr: 0x3744, symBinAddr: 0x1C77C, symSize: 0x70 }
  - { offset: 0x251F13, size: 0x8, addend: 0x0, symName: __ZN8facebook5react22ConcreteViewShadowNodeIXadL_ZNS0_26ModalHostViewComponentNameEEENS0_18ModalHostViewPropsENS0_25ModalHostViewEventEmitterENS0_18ModalHostViewStateEED0Ev, symObjAddr: 0x37B4, symBinAddr: 0x1C7EC, symSize: 0x74 }
  - { offset: 0x2525D2, size: 0x8, addend: 0x0, symName: __ZNSt3__120__shared_ptr_emplaceIN8facebook5react23ModalHostViewShadowNodeENS_9allocatorIS3_EEEC2B8ne200100IJRKNS2_10ShadowNodeERKNS2_18ShadowNodeFragmentEES5_Li0EEES5_DpOT_, symObjAddr: 0x3B7C, symBinAddr: 0x1C8C0, symSize: 0x74 }
  - { offset: 0x252B1B, size: 0x8, addend: 0x0, symName: __ZNSt3__120__shared_ptr_emplaceIN8facebook5react18ModalHostViewPropsENS_9allocatorIS3_EEEC2B8ne200100IJRKNS2_18PropsParserContextERKS3_RKNS2_8RawPropsEES5_Li0EEES5_DpOT_, symObjAddr: 0x3D10, symBinAddr: 0x1C9FC, symSize: 0x4C }
  - { offset: 0x252D04, size: 0x8, addend: 0x0, symName: __ZNSt3__120__shared_ptr_emplaceIN8facebook5react18ModalHostViewPropsENS_9allocatorIS3_EEED1Ev, symObjAddr: 0x3D5C, symBinAddr: 0x1CA48, symSize: 0x14 }
  - { offset: 0x252D26, size: 0x8, addend: 0x0, symName: __ZNSt3__120__shared_ptr_emplaceIN8facebook5react18ModalHostViewPropsENS_9allocatorIS3_EEED1Ev, symObjAddr: 0x3D5C, symBinAddr: 0x1CA48, symSize: 0x14 }
  - { offset: 0x252D5A, size: 0x8, addend: 0x0, symName: __ZNSt3__120__shared_ptr_emplaceIN8facebook5react18ModalHostViewPropsENS_9allocatorIS3_EEED0Ev, symObjAddr: 0x3D70, symBinAddr: 0x1CA5C, symSize: 0x24 }
  - { offset: 0x252DF8, size: 0x8, addend: 0x0, symName: __ZNSt3__120__shared_ptr_emplaceIN8facebook5react18ModalHostViewPropsENS_9allocatorIS3_EEE16__on_zero_sharedEv, symObjAddr: 0x3D94, symBinAddr: 0x1CA80, symSize: 0x14 }
  - { offset: 0x252E20, size: 0x8, addend: 0x0, symName: __ZNSt3__120__shared_ptr_emplaceIN8facebook5react18ModalHostViewPropsENS_9allocatorIS3_EEE16__on_zero_sharedEv, symObjAddr: 0x3D94, symBinAddr: 0x1CA80, symSize: 0x14 }
  - { offset: 0x252EAC, size: 0x8, addend: 0x0, symName: __ZNSt3__120__shared_ptr_emplaceIN8facebook5react18ModalHostViewPropsENS_9allocatorIS3_EEE21__on_zero_shared_weakEv, symObjAddr: 0x3DA8, symBinAddr: 0x1CA94, symSize: 0x4 }
  - { offset: 0x252EDF, size: 0x8, addend: 0x0, symName: __ZNSt3__120__shared_ptr_emplaceIN8facebook5react18ModalHostViewPropsENS_9allocatorIS3_EEE21__on_zero_shared_weakEv, symObjAddr: 0x3DA8, symBinAddr: 0x1CA94, symSize: 0x4 }
  - { offset: 0x252F01, size: 0x8, addend: 0x0, symName: __ZNSt3__120__shared_ptr_emplaceIN8facebook5react18ModalHostViewPropsENS_9allocatorIS3_EEE21__on_zero_shared_weakEv, symObjAddr: 0x3DA8, symBinAddr: 0x1CA94, symSize: 0x4 }
  - { offset: 0x252F24, size: 0x8, addend: 0x0, symName: __ZNSt3__120__shared_ptr_emplaceIN8facebook5react18ModalHostViewPropsENS_9allocatorIS3_EEE21__on_zero_shared_weakEv, symObjAddr: 0x3DA8, symBinAddr: 0x1CA94, symSize: 0x4 }
  - { offset: 0x252F5B, size: 0x8, addend: 0x0, symName: __ZNSt3__120__shared_ptr_emplaceIN8facebook5react18ModalHostViewPropsENS_9allocatorIS3_EEE21__on_zero_shared_weakEv, symObjAddr: 0x3DA8, symBinAddr: 0x1CA94, symSize: 0x4 }
  - { offset: 0x2535ED, size: 0x8, addend: 0x0, symName: __ZNSt3__120__shared_ptr_emplaceIN8facebook5react13ConcreteStateINS2_18ModalHostViewStateEEENS_9allocatorIS5_EEEC2B8ne200100IJNS_10shared_ptrIKS4_EERKNSA_IKNS2_16ShadowNodeFamilyEEEES7_Li0EEES7_DpOT_, symObjAddr: 0x4068, symBinAddr: 0x1CAF8, symSize: 0x4C }
  - { offset: 0x253797, size: 0x8, addend: 0x0, symName: __ZNSt3__120__shared_ptr_emplaceIN8facebook5react13ConcreteStateINS2_18ModalHostViewStateEEENS_9allocatorIS5_EEED1Ev, symObjAddr: 0x40B4, symBinAddr: 0x1CB44, symSize: 0x14 }
  - { offset: 0x2537B9, size: 0x8, addend: 0x0, symName: __ZNSt3__120__shared_ptr_emplaceIN8facebook5react13ConcreteStateINS2_18ModalHostViewStateEEENS_9allocatorIS5_EEED1Ev, symObjAddr: 0x40B4, symBinAddr: 0x1CB44, symSize: 0x14 }
  - { offset: 0x2537ED, size: 0x8, addend: 0x0, symName: __ZNSt3__120__shared_ptr_emplaceIN8facebook5react13ConcreteStateINS2_18ModalHostViewStateEEENS_9allocatorIS5_EEED0Ev, symObjAddr: 0x40C8, symBinAddr: 0x1CB58, symSize: 0x24 }
  - { offset: 0x2538BA, size: 0x8, addend: 0x0, symName: __ZNSt3__120__shared_ptr_emplaceIN8facebook5react13ConcreteStateINS2_18ModalHostViewStateEEENS_9allocatorIS5_EEE16__on_zero_sharedEv, symObjAddr: 0x40EC, symBinAddr: 0x1CB7C, symSize: 0xC }
  - { offset: 0x2538E2, size: 0x8, addend: 0x0, symName: __ZNSt3__120__shared_ptr_emplaceIN8facebook5react13ConcreteStateINS2_18ModalHostViewStateEEENS_9allocatorIS5_EEE16__on_zero_sharedEv, symObjAddr: 0x40EC, symBinAddr: 0x1CB7C, symSize: 0xC }
  - { offset: 0x253900, size: 0x8, addend: 0x0, symName: __ZNSt3__120__shared_ptr_emplaceIN8facebook5react13ConcreteStateINS2_18ModalHostViewStateEEENS_9allocatorIS5_EEE16__on_zero_sharedEv, symObjAddr: 0x40EC, symBinAddr: 0x1CB7C, symSize: 0xC }
  - { offset: 0x25391E, size: 0x8, addend: 0x0, symName: __ZNSt3__120__shared_ptr_emplaceIN8facebook5react13ConcreteStateINS2_18ModalHostViewStateEEENS_9allocatorIS5_EEE16__on_zero_sharedEv, symObjAddr: 0x40EC, symBinAddr: 0x1CB7C, symSize: 0xC }
  - { offset: 0x25394A, size: 0x8, addend: 0x0, symName: __ZNSt3__120__shared_ptr_emplaceIN8facebook5react13ConcreteStateINS2_18ModalHostViewStateEEENS_9allocatorIS5_EEE21__on_zero_shared_weakEv, symObjAddr: 0x40F8, symBinAddr: 0x1CB88, symSize: 0x4 }
  - { offset: 0x25397D, size: 0x8, addend: 0x0, symName: __ZNSt3__120__shared_ptr_emplaceIN8facebook5react13ConcreteStateINS2_18ModalHostViewStateEEENS_9allocatorIS5_EEE21__on_zero_shared_weakEv, symObjAddr: 0x40F8, symBinAddr: 0x1CB88, symSize: 0x4 }
  - { offset: 0x25399F, size: 0x8, addend: 0x0, symName: __ZNSt3__120__shared_ptr_emplaceIN8facebook5react13ConcreteStateINS2_18ModalHostViewStateEEENS_9allocatorIS5_EEE21__on_zero_shared_weakEv, symObjAddr: 0x40F8, symBinAddr: 0x1CB88, symSize: 0x4 }
  - { offset: 0x2539C2, size: 0x8, addend: 0x0, symName: __ZNSt3__120__shared_ptr_emplaceIN8facebook5react13ConcreteStateINS2_18ModalHostViewStateEEENS_9allocatorIS5_EEE21__on_zero_shared_weakEv, symObjAddr: 0x40F8, symBinAddr: 0x1CB88, symSize: 0x4 }
  - { offset: 0x2539F8, size: 0x8, addend: 0x0, symName: __ZNSt3__120__shared_ptr_emplaceIN8facebook5react13ConcreteStateINS2_18ModalHostViewStateEEENS_9allocatorIS5_EEE21__on_zero_shared_weakEv, symObjAddr: 0x40F8, symBinAddr: 0x1CB88, symSize: 0x4 }
  - { offset: 0x253AFF, size: 0x8, addend: 0x0, symName: __ZN8facebook5react13ConcreteStateINS0_18ModalHostViewStateEEC2ENSt3__110shared_ptrIKS2_EENS4_8weak_ptrIKNS0_16ShadowNodeFamilyEEE, symObjAddr: 0x41C4, symBinAddr: 0x1CC54, symSize: 0xBC }
  - { offset: 0x253D84, size: 0x8, addend: 0x0, symName: __ZN8facebook5react13ConcreteStateINS0_18ModalHostViewStateEED1Ev, symObjAddr: 0x4280, symBinAddr: 0x1CD10, symSize: 0x4 }
  - { offset: 0x253DA6, size: 0x8, addend: 0x0, symName: __ZN8facebook5react13ConcreteStateINS0_18ModalHostViewStateEED1Ev, symObjAddr: 0x4280, symBinAddr: 0x1CD10, symSize: 0x4 }
  - { offset: 0x253DC3, size: 0x8, addend: 0x0, symName: __ZN8facebook5react13ConcreteStateINS0_18ModalHostViewStateEED1Ev, symObjAddr: 0x4280, symBinAddr: 0x1CD10, symSize: 0x4 }
  - { offset: 0x253E3E, size: 0x8, addend: 0x0, symName: __ZN8facebook5react13ConcreteStateINS0_18ModalHostViewStateEED0Ev, symObjAddr: 0x4284, symBinAddr: 0x1CD14, symSize: 0x14 }
  - { offset: 0x2540F3, size: 0x8, addend: 0x0, symName: __ZNSt3__120__shared_ptr_emplaceIKN8facebook5react13ConcreteStateINS2_18ModalHostViewStateEEENS_9allocatorIS5_EEEC2B8ne200100IJNS_10shared_ptrIKS4_EERKNS2_5StateEES8_Li0EEES8_DpOT_, symObjAddr: 0x4350, symBinAddr: 0x1CD88, symSize: 0x4C }
  - { offset: 0x254298, size: 0x8, addend: 0x0, symName: __ZNSt3__120__shared_ptr_emplaceIKN8facebook5react13ConcreteStateINS2_18ModalHostViewStateEEENS_9allocatorIS5_EEED1Ev, symObjAddr: 0x439C, symBinAddr: 0x1CDD4, symSize: 0x14 }
  - { offset: 0x2542BA, size: 0x8, addend: 0x0, symName: __ZNSt3__120__shared_ptr_emplaceIKN8facebook5react13ConcreteStateINS2_18ModalHostViewStateEEENS_9allocatorIS5_EEED1Ev, symObjAddr: 0x439C, symBinAddr: 0x1CDD4, symSize: 0x14 }
  - { offset: 0x2542EE, size: 0x8, addend: 0x0, symName: __ZNSt3__120__shared_ptr_emplaceIKN8facebook5react13ConcreteStateINS2_18ModalHostViewStateEEENS_9allocatorIS5_EEED0Ev, symObjAddr: 0x43B0, symBinAddr: 0x1CDE8, symSize: 0x24 }
  - { offset: 0x25438C, size: 0x8, addend: 0x0, symName: __ZNSt3__120__shared_ptr_emplaceIKN8facebook5react13ConcreteStateINS2_18ModalHostViewStateEEENS_9allocatorIS5_EEE16__on_zero_sharedEv, symObjAddr: 0x43D4, symBinAddr: 0x1CE0C, symSize: 0xC }
  - { offset: 0x2543B4, size: 0x8, addend: 0x0, symName: __ZNSt3__120__shared_ptr_emplaceIKN8facebook5react13ConcreteStateINS2_18ModalHostViewStateEEENS_9allocatorIS5_EEE16__on_zero_sharedEv, symObjAddr: 0x43D4, symBinAddr: 0x1CE0C, symSize: 0xC }
  - { offset: 0x2543D2, size: 0x8, addend: 0x0, symName: __ZNSt3__120__shared_ptr_emplaceIKN8facebook5react13ConcreteStateINS2_18ModalHostViewStateEEENS_9allocatorIS5_EEE16__on_zero_sharedEv, symObjAddr: 0x43D4, symBinAddr: 0x1CE0C, symSize: 0xC }
  - { offset: 0x2543F0, size: 0x8, addend: 0x0, symName: __ZNSt3__120__shared_ptr_emplaceIKN8facebook5react13ConcreteStateINS2_18ModalHostViewStateEEENS_9allocatorIS5_EEE16__on_zero_sharedEv, symObjAddr: 0x43D4, symBinAddr: 0x1CE0C, symSize: 0xC }
  - { offset: 0x25441C, size: 0x8, addend: 0x0, symName: __ZNSt3__120__shared_ptr_emplaceIKN8facebook5react13ConcreteStateINS2_18ModalHostViewStateEEENS_9allocatorIS5_EEE21__on_zero_shared_weakEv, symObjAddr: 0x43E0, symBinAddr: 0x1CE18, symSize: 0x4 }
  - { offset: 0x25444F, size: 0x8, addend: 0x0, symName: __ZNSt3__120__shared_ptr_emplaceIKN8facebook5react13ConcreteStateINS2_18ModalHostViewStateEEENS_9allocatorIS5_EEE21__on_zero_shared_weakEv, symObjAddr: 0x43E0, symBinAddr: 0x1CE18, symSize: 0x4 }
  - { offset: 0x254471, size: 0x8, addend: 0x0, symName: __ZNSt3__120__shared_ptr_emplaceIKN8facebook5react13ConcreteStateINS2_18ModalHostViewStateEEENS_9allocatorIS5_EEE21__on_zero_shared_weakEv, symObjAddr: 0x43E0, symBinAddr: 0x1CE18, symSize: 0x4 }
  - { offset: 0x254494, size: 0x8, addend: 0x0, symName: __ZNSt3__120__shared_ptr_emplaceIKN8facebook5react13ConcreteStateINS2_18ModalHostViewStateEEENS_9allocatorIS5_EEE21__on_zero_shared_weakEv, symObjAddr: 0x43E0, symBinAddr: 0x1CE18, symSize: 0x4 }
  - { offset: 0x2544CA, size: 0x8, addend: 0x0, symName: __ZNSt3__120__shared_ptr_emplaceIKN8facebook5react13ConcreteStateINS2_18ModalHostViewStateEEENS_9allocatorIS5_EEE21__on_zero_shared_weakEv, symObjAddr: 0x43E0, symBinAddr: 0x1CE18, symSize: 0x4 }
  - { offset: 0x254521, size: 0x8, addend: 0x0, symName: __ZN8facebook5react13ConcreteStateINS0_18ModalHostViewStateEEC2ENSt3__110shared_ptrIKS2_EERKNS0_5StateE, symObjAddr: 0x446C, symBinAddr: 0x1CEA4, symSize: 0x98 }
  - { offset: 0x2548BA, size: 0x8, addend: 0x0, symName: __ZNSt3__120__shared_ptr_emplaceIKN8facebook5react25ModalHostViewEventEmitterENS_9allocatorIS3_EEEC2B8ne200100IJNS_10shared_ptrINS2_11EventTargetEEERKNS_8weak_ptrIKNS2_15EventDispatcherEEEES6_Li0EEES6_DpOT_, symObjAddr: 0x4564, symBinAddr: 0x1CF9C, symSize: 0x4C }
  - { offset: 0x254A64, size: 0x8, addend: 0x0, symName: __ZNSt3__120__shared_ptr_emplaceIKN8facebook5react25ModalHostViewEventEmitterENS_9allocatorIS3_EEED1Ev, symObjAddr: 0x45B0, symBinAddr: 0x1CFE8, symSize: 0x14 }
  - { offset: 0x254A86, size: 0x8, addend: 0x0, symName: __ZNSt3__120__shared_ptr_emplaceIKN8facebook5react25ModalHostViewEventEmitterENS_9allocatorIS3_EEED1Ev, symObjAddr: 0x45B0, symBinAddr: 0x1CFE8, symSize: 0x14 }
  - { offset: 0x254ABA, size: 0x8, addend: 0x0, symName: __ZNSt3__120__shared_ptr_emplaceIKN8facebook5react25ModalHostViewEventEmitterENS_9allocatorIS3_EEED0Ev, symObjAddr: 0x45C4, symBinAddr: 0x1CFFC, symSize: 0x24 }
  - { offset: 0x254B87, size: 0x8, addend: 0x0, symName: __ZNSt3__120__shared_ptr_emplaceIKN8facebook5react25ModalHostViewEventEmitterENS_9allocatorIS3_EEE16__on_zero_sharedEv, symObjAddr: 0x45E8, symBinAddr: 0x1D020, symSize: 0xC }
  - { offset: 0x254BAF, size: 0x8, addend: 0x0, symName: __ZNSt3__120__shared_ptr_emplaceIKN8facebook5react25ModalHostViewEventEmitterENS_9allocatorIS3_EEE16__on_zero_sharedEv, symObjAddr: 0x45E8, symBinAddr: 0x1D020, symSize: 0xC }
  - { offset: 0x254BCD, size: 0x8, addend: 0x0, symName: __ZNSt3__120__shared_ptr_emplaceIKN8facebook5react25ModalHostViewEventEmitterENS_9allocatorIS3_EEE16__on_zero_sharedEv, symObjAddr: 0x45E8, symBinAddr: 0x1D020, symSize: 0xC }
  - { offset: 0x254BEB, size: 0x8, addend: 0x0, symName: __ZNSt3__120__shared_ptr_emplaceIKN8facebook5react25ModalHostViewEventEmitterENS_9allocatorIS3_EEE16__on_zero_sharedEv, symObjAddr: 0x45E8, symBinAddr: 0x1D020, symSize: 0xC }
  - { offset: 0x254C17, size: 0x8, addend: 0x0, symName: __ZNSt3__120__shared_ptr_emplaceIKN8facebook5react25ModalHostViewEventEmitterENS_9allocatorIS3_EEE21__on_zero_shared_weakEv, symObjAddr: 0x45F4, symBinAddr: 0x1D02C, symSize: 0x4 }
  - { offset: 0x254C4A, size: 0x8, addend: 0x0, symName: __ZNSt3__120__shared_ptr_emplaceIKN8facebook5react25ModalHostViewEventEmitterENS_9allocatorIS3_EEE21__on_zero_shared_weakEv, symObjAddr: 0x45F4, symBinAddr: 0x1D02C, symSize: 0x4 }
  - { offset: 0x254C6C, size: 0x8, addend: 0x0, symName: __ZNSt3__120__shared_ptr_emplaceIKN8facebook5react25ModalHostViewEventEmitterENS_9allocatorIS3_EEE21__on_zero_shared_weakEv, symObjAddr: 0x45F4, symBinAddr: 0x1D02C, symSize: 0x4 }
  - { offset: 0x254C8F, size: 0x8, addend: 0x0, symName: __ZNSt3__120__shared_ptr_emplaceIKN8facebook5react25ModalHostViewEventEmitterENS_9allocatorIS3_EEE21__on_zero_shared_weakEv, symObjAddr: 0x45F4, symBinAddr: 0x1D02C, symSize: 0x4 }
  - { offset: 0x254CC5, size: 0x8, addend: 0x0, symName: __ZNSt3__120__shared_ptr_emplaceIKN8facebook5react25ModalHostViewEventEmitterENS_9allocatorIS3_EEE21__on_zero_shared_weakEv, symObjAddr: 0x45F4, symBinAddr: 0x1D02C, symSize: 0x4 }
  - { offset: 0x255200, size: 0x8, addend: 0x0, symName: __ZN8facebook5react25ModalHostViewEventEmitterD1Ev, symObjAddr: 0x4738, symBinAddr: 0x1D170, symSize: 0x34 }
  - { offset: 0x25532C, size: 0x8, addend: 0x0, symName: __ZN8facebook5react25ModalHostViewEventEmitterD0Ev, symObjAddr: 0x476C, symBinAddr: 0x1D1A4, symSize: 0x38 }
  - { offset: 0x255A6B, size: 0x8, addend: 0x0, symName: __ZNSt3__120__shared_ptr_emplaceIN8facebook5react16ShadowNodeFamilyENS_9allocatorIS3_EEEC2B8ne200100IJRKNS2_24ShadowNodeFamilyFragmentERNS_10shared_ptrIKNS2_25ModalHostViewEventEmitterEEERKNS_8weak_ptrIKNS2_15EventDispatcherEEERKNS2_27ConcreteComponentDescriptorINS2_23ModalHostViewShadowNodeEEEES5_Li0EEES5_DpOT_, symObjAddr: 0x4C48, symBinAddr: 0x1D254, symSize: 0x4C }
  - { offset: 0x255DDB, size: 0x8, addend: 0x0, symName: __GLOBAL__sub_I_RCTModalHostViewComponentView.mm, symObjAddr: 0x5380, symBinAddr: 0x1D37C, symSize: 0x20 }
  - { offset: 0x258478, size: 0x8, addend: 0x0, symName: __ZN8facebook5react17HostPlatformColorL14UndefinedColorE, symObjAddr: 0x170958, symBinAddr: 0x9FE40, symSize: 0x0 }
  - { offset: 0x258498, size: 0x8, addend: 0x0, symName: __ZN8facebook5react8systrace20instrumentsLogHandleE, symObjAddr: 0x2848, symBinAddr: 0x9F4E8, symSize: 0x0 }
  - { offset: 0x2584B4, size: 0x8, addend: 0x0, symName: __ZZN8facebook5react8systraceL31getOrCreateInstrumentsLogHandleEvE4flag, symObjAddr: 0x170970, symBinAddr: 0x9FE58, symSize: 0x0 }
  - { offset: 0x25855E, size: 0x8, addend: 0x0, symName: __ZN8facebook5reactL18EmptyLayoutMetricsE, symObjAddr: 0x3E90, symBinAddr: 0x66880, symSize: 0x0 }
  - { offset: 0x2770BF, size: 0x8, addend: 0x0, symName: __ZNSt3__117__call_once_proxyB8ne200100INS_5tupleIJOZN8facebook5react8systraceL31getOrCreateInstrumentsLogHandleEvEUlvE_EEEEEvPv, symObjAddr: 0x1AE8, symBinAddr: 0x1E99C, symSize: 0x50 }
  - { offset: 0x279778, size: 0x8, addend: 0x0, symName: __ZN8facebook5react12TraceSectionD2Ev, symObjAddr: 0x1284, symBinAddr: 0x1E4E8, symSize: 0xD4 }
  - { offset: 0x27CFBB, size: 0x8, addend: 0x0, symName: __ZN8facebook5react12TraceSectionC2IJEEEPKcDpOT_, symObjAddr: 0x193C, symBinAddr: 0x1E7F0, symSize: 0x1AC }
  - { offset: 0x27E40B, size: 0x8, addend: 0x0, symName: '-[RCTMountingManager performTransaction:]', symObjAddr: 0x6E8, symBinAddr: 0x1D95C, symSize: 0x1FC }
  - { offset: 0x27F197, size: 0x8, addend: 0x0, symName: '-[RCTMountingManager init]', symObjAddr: 0x0, symBinAddr: 0x1D39C, symSize: 0x78 }
  - { offset: 0x27F1CC, size: 0x8, addend: 0x0, symName: '-[RCTMountingManager setContextContainer:]', symObjAddr: 0x78, symBinAddr: 0x1D414, symSize: 0xC }
  - { offset: 0x27F465, size: 0x8, addend: 0x0, symName: '-[RCTMountingManager attachSurfaceToView:surfaceId:]', symObjAddr: 0xFC, symBinAddr: 0x1D420, symSize: 0x84 }
  - { offset: 0x27F538, size: 0x8, addend: 0x0, symName: '-[RCTMountingManager detachSurfaceFromView:surfaceId:]', symObjAddr: 0x180, symBinAddr: 0x1D4A4, symSize: 0xB0 }
  - { offset: 0x27FC60, size: 0x8, addend: 0x0, symName: '-[RCTMountingManager scheduleTransaction:]', symObjAddr: 0x230, symBinAddr: 0x1D554, symSize: 0xF0 }
  - { offset: 0x27FE87, size: 0x8, addend: 0x0, symName: '___42-[RCTMountingManager scheduleTransaction:]_block_invoke', symObjAddr: 0x320, symBinAddr: 0x1D644, symSize: 0xC }
  - { offset: 0x27FED6, size: 0x8, addend: 0x0, symName: ___copy_helper_block_ea8_32s40c65_ZTSNSt3__110shared_ptrIKN8facebook5react19MountingCoordinatorEEE, symObjAddr: 0x32C, symBinAddr: 0x1D650, symSize: 0x48 }
  - { offset: 0x27FFA9, size: 0x8, addend: 0x0, symName: ___destroy_helper_block_ea8_32s40c65_ZTSNSt3__110shared_ptrIKN8facebook5react19MountingCoordinatorEEE, symObjAddr: 0x374, symBinAddr: 0x1D698, symSize: 0x28 }
  - { offset: 0x27FFEA, size: 0x8, addend: 0x0, symName: '-[RCTMountingManager dispatchCommand:commandName:args:]', symObjAddr: 0x39C, symBinAddr: 0x1D6C0, symSize: 0xF4 }
  - { offset: 0x28006B, size: 0x8, addend: 0x0, symName: '___55-[RCTMountingManager dispatchCommand:commandName:args:]_block_invoke', symObjAddr: 0x490, symBinAddr: 0x1D7B4, symSize: 0x10 }
  - { offset: 0x2800DA, size: 0x8, addend: 0x0, symName: '-[RCTMountingManager sendAccessibilityEvent:eventType:]', symObjAddr: 0x500, symBinAddr: 0x1D7C4, symSize: 0xC4 }
  - { offset: 0x28014C, size: 0x8, addend: 0x0, symName: '___55-[RCTMountingManager sendAccessibilityEvent:eventType:]_block_invoke', symObjAddr: 0x5C4, symBinAddr: 0x1D888, symSize: 0x10 }
  - { offset: 0x2801F1, size: 0x8, addend: 0x0, symName: '-[RCTMountingManager initiateTransaction:]', symObjAddr: 0x624, symBinAddr: 0x1D898, symSize: 0xC4 }
  - { offset: 0x280947, size: 0x8, addend: 0x0, symName: '-[RCTMountingManager setIsJSResponder:blockNativeResponder:forShadowView:]', symObjAddr: 0x8E4, symBinAddr: 0x1DB58, symSize: 0x5C }
  - { offset: 0x2809C8, size: 0x8, addend: 0x0, symName: '___74-[RCTMountingManager setIsJSResponder:blockNativeResponder:forShadowView:]_block_invoke', symObjAddr: 0x940, symBinAddr: 0x1DBB4, symSize: 0x5C }
  - { offset: 0x2810D4, size: 0x8, addend: 0x0, symName: '-[RCTMountingManager synchronouslyUpdateViewOnUIThread:changedProps:componentDescriptor:]', symObjAddr: 0x9AC, symBinAddr: 0x1DC10, symSize: 0x6D0 }
  - { offset: 0x281D9F, size: 0x8, addend: 0x0, symName: __ZN5folly3f146detail11F14BasicMapINS_7dynamicES3_NS_6detail13DynamicHasherENS4_15DynamicKeyEqualENSt3__19allocatorINS7_4pairIKS3_S3_EEEEE9findLocalISD_NS_5RangeIPKcEEEENS_8OptionalIDTcldtfp_5beginLi0EEEEERT_RKT0_, symObjAddr: 0x156C, symBinAddr: 0x1E5BC, symSize: 0xE4 }
  - { offset: 0x2822BE, size: 0x8, addend: 0x0, symName: __ZN8facebook5react8RawPropsD1Ev, symObjAddr: 0x107C, symBinAddr: 0x1E2E0, symSize: 0x58 }
  - { offset: 0x28253D, size: 0x8, addend: 0x0, symName: '-[RCTMountingManager synchronouslyDispatchCommandOnUIThread:commandName:args:]', symObjAddr: 0x10D4, symBinAddr: 0x1E338, symSize: 0x94 }
  - { offset: 0x2825B3, size: 0x8, addend: 0x0, symName: '-[RCTMountingManager synchronouslyDispatchAccessbilityEventOnUIThread:eventType:]', symObjAddr: 0x1168, symBinAddr: 0x1E3CC, symSize: 0x8C }
  - { offset: 0x28264A, size: 0x8, addend: 0x0, symName: '-[RCTMountingManager delegate]', symObjAddr: 0x11F4, symBinAddr: 0x1E458, symSize: 0x18 }
  - { offset: 0x28267F, size: 0x8, addend: 0x0, symName: '-[RCTMountingManager setDelegate:]', symObjAddr: 0x120C, symBinAddr: 0x1E470, symSize: 0xC }
  - { offset: 0x2826BE, size: 0x8, addend: 0x0, symName: '-[RCTMountingManager componentViewRegistry]', symObjAddr: 0x1218, symBinAddr: 0x1E47C, symSize: 0x8 }
  - { offset: 0x2826F3, size: 0x8, addend: 0x0, symName: '-[RCTMountingManager setComponentViewRegistry:]', symObjAddr: 0x1220, symBinAddr: 0x1E484, symSize: 0xC }
  - { offset: 0x2827C2, size: 0x8, addend: 0x0, symName: '-[RCTMountingManager .cxx_destruct]', symObjAddr: 0x122C, symBinAddr: 0x1E490, symSize: 0x3C }
  - { offset: 0x2828E9, size: 0x8, addend: 0x0, symName: __ZNSt3__112__hash_tableINS_17__hash_value_typeIiNS_13unordered_setI26RCTComponentViewDescriptorNS_4hashIS3_EENS_8equal_toIS3_EENS_9allocatorIS3_EEEEEENS_22__unordered_map_hasherIiSB_NS4_IiEENS6_IiEELb1EEENS_21__unordered_map_equalIiSB_SE_SD_Lb1EEENS8_ISB_EEED2Ev, symObjAddr: 0x17FC, symBinAddr: 0x1E708, symSize: 0x38 }
  - { offset: 0x282B41, size: 0x8, addend: 0x0, symName: '-[RCTMountingManager .cxx_construct]', symObjAddr: 0x1268, symBinAddr: 0x1E4CC, symSize: 0x1C }
  - { offset: 0x282B77, size: 0x8, addend: 0x0, symName: '-[RCTMountingManager .cxx_construct]', symObjAddr: 0x1268, symBinAddr: 0x1E4CC, symSize: 0x1C }
  - { offset: 0x282B94, size: 0x8, addend: 0x0, symName: '-[RCTMountingManager .cxx_construct]', symObjAddr: 0x1268, symBinAddr: 0x1E4CC, symSize: 0x1C }
  - { offset: 0x282BB1, size: 0x8, addend: 0x0, symName: '-[RCTMountingManager .cxx_construct]', symObjAddr: 0x1268, symBinAddr: 0x1E4CC, symSize: 0x1C }
  - { offset: 0x282BCE, size: 0x8, addend: 0x0, symName: '-[RCTMountingManager .cxx_construct]', symObjAddr: 0x1268, symBinAddr: 0x1E4CC, symSize: 0x1C }
  - { offset: 0x282BEC, size: 0x8, addend: 0x0, symName: '-[RCTMountingManager .cxx_construct]', symObjAddr: 0x1268, symBinAddr: 0x1E4CC, symSize: 0x1C }
  - { offset: 0x282C0A, size: 0x8, addend: 0x0, symName: '-[RCTMountingManager .cxx_construct]', symObjAddr: 0x1268, symBinAddr: 0x1E4CC, symSize: 0x1C }
  - { offset: 0x282C28, size: 0x8, addend: 0x0, symName: '-[RCTMountingManager .cxx_construct]', symObjAddr: 0x1268, symBinAddr: 0x1E4CC, symSize: 0x1C }
  - { offset: 0x282C48, size: 0x8, addend: 0x0, symName: '-[RCTMountingManager .cxx_construct]', symObjAddr: 0x1268, symBinAddr: 0x1E4CC, symSize: 0x1C }
  - { offset: 0x2834CD, size: 0x8, addend: 0x0, symName: __ZNKSt3__112__hash_tableINS_17__hash_value_typeIN5folly5RangeIPKcEENS2_7dynamicEEENS_22__unordered_map_hasherIS6_S8_NS2_6detail13DynamicHasherENS2_3f146detail11F14BasicMapIS7_S7_SB_NSA_15DynamicKeyEqualENS_9allocatorINS_4pairIKS7_S7_EEEEE14BottomKeyEqualIS6_EELb1EEENS_21__unordered_map_equalIS6_S8_SN_SB_Lb1EEENSG_IS8_EEE6bucketB8ne200100IS6_EEmRKT_, symObjAddr: 0x16C0, symBinAddr: 0x1E6A0, symSize: 0x68 }
  - { offset: 0x283646, size: 0x8, addend: 0x0, symName: __ZNK5folly6detail15DynamicKeyEqualclINS_5RangeIPKcEEEENSt3__19enable_ifIXsr3std14is_convertibleIT_S6_EE5valueEbE4typeERKS9_RKNS_7dynamicE, symObjAddr: 0x1650, symBinAddr: 0x5A784, symSize: 0x70 }
  - { offset: 0x28368C, size: 0x8, addend: 0x0, symName: __ZNK5folly6detail15DynamicKeyEqualclINS_5RangeIPKcEEEENSt3__19enable_ifIXsr3std14is_convertibleIT_S6_EE5valueEbE4typeERKS9_RKNS_7dynamicE, symObjAddr: 0x1650, symBinAddr: 0x5A784, symSize: 0x70 }
  - { offset: 0x283FD9, size: 0x8, addend: 0x0, symName: __ZNSt3__112__hash_tableINS_17__hash_value_typeIiNS_13unordered_setI26RCTComponentViewDescriptorNS_4hashIS3_EENS_8equal_toIS3_EENS_9allocatorIS3_EEEEEENS_22__unordered_map_hasherIiSB_NS4_IiEENS6_IiEELb1EEENS_21__unordered_map_equalIiSB_SE_SD_Lb1EEENS8_ISB_EEE17__deallocate_nodeEPNS_16__hash_node_baseIPNS_11__hash_nodeISB_PvEEEE, symObjAddr: 0x1834, symBinAddr: 0x1E740, symSize: 0x3C }
  - { offset: 0x2842EF, size: 0x8, addend: 0x0, symName: __ZNSt3__112__hash_tableI26RCTComponentViewDescriptorNS_4hashIS1_EENS_8equal_toIS1_EENS_9allocatorIS1_EEED2Ev, symObjAddr: 0x1870, symBinAddr: 0x1E77C, symSize: 0x38 }
  - { offset: 0x28452E, size: 0x8, addend: 0x0, symName: __ZNSt3__112__hash_tableI26RCTComponentViewDescriptorNS_4hashIS1_EENS_8equal_toIS1_EENS_9allocatorIS1_EEE17__deallocate_nodeEPNS_16__hash_node_baseIPNS_11__hash_nodeIS1_PvEEEE, symObjAddr: 0x18A8, symBinAddr: 0x1E7B4, symSize: 0x3C }
  - { offset: 0x284A99, size: 0x8, addend: 0x0, symName: '__ZNSt3__110__function6__funcIZ41-[RCTMountingManager performTransaction:]E3$_0NS_9allocatorIS2_EEFvRKN8facebook5react19MountingTransactionERKNS6_16SurfaceTelemetryEEED1Ev', symObjAddr: 0x1B90, symBinAddr: 0x1E9EC, symSize: 0x4 }
  - { offset: 0x284AC5, size: 0x8, addend: 0x0, symName: '__ZNSt3__110__function6__funcIZ41-[RCTMountingManager performTransaction:]E3$_0NS_9allocatorIS2_EEFvRKN8facebook5react19MountingTransactionERKNS6_16SurfaceTelemetryEEED0Ev', symObjAddr: 0x1B94, symBinAddr: 0x1E9F0, symSize: 0x4 }
  - { offset: 0x284BD1, size: 0x8, addend: 0x0, symName: '__ZNKSt3__110__function6__funcIZ41-[RCTMountingManager performTransaction:]E3$_0NS_9allocatorIS2_EEFvRKN8facebook5react19MountingTransactionERKNS6_16SurfaceTelemetryEEE7__cloneEv', symObjAddr: 0x1B98, symBinAddr: 0x1E9F4, symSize: 0x38 }
  - { offset: 0x284DDC, size: 0x8, addend: 0x0, symName: '__ZNKSt3__110__function6__funcIZ41-[RCTMountingManager performTransaction:]E3$_0NS_9allocatorIS2_EEFvRKN8facebook5react19MountingTransactionERKNS6_16SurfaceTelemetryEEE7__cloneEPNS0_6__baseISD_EE', symObjAddr: 0x1BD0, symBinAddr: 0x1EA2C, symSize: 0x18 }
  - { offset: 0x284E12, size: 0x8, addend: 0x0, symName: '__ZNKSt3__110__function6__funcIZ41-[RCTMountingManager performTransaction:]E3$_0NS_9allocatorIS2_EEFvRKN8facebook5react19MountingTransactionERKNS6_16SurfaceTelemetryEEE7__cloneEPNS0_6__baseISD_EE', symObjAddr: 0x1BD0, symBinAddr: 0x1EA2C, symSize: 0x18 }
  - { offset: 0x284E40, size: 0x8, addend: 0x0, symName: '__ZNKSt3__110__function6__funcIZ41-[RCTMountingManager performTransaction:]E3$_0NS_9allocatorIS2_EEFvRKN8facebook5react19MountingTransactionERKNS6_16SurfaceTelemetryEEE7__cloneEPNS0_6__baseISD_EE', symObjAddr: 0x1BD0, symBinAddr: 0x1EA2C, symSize: 0x18 }
  - { offset: 0x284ECF, size: 0x8, addend: 0x0, symName: '__ZNSt3__110__function6__funcIZ41-[RCTMountingManager performTransaction:]E3$_0NS_9allocatorIS2_EEFvRKN8facebook5react19MountingTransactionERKNS6_16SurfaceTelemetryEEE7destroyEv', symObjAddr: 0x1BE8, symBinAddr: 0x1EA44, symSize: 0x4 }
  - { offset: 0x284F20, size: 0x8, addend: 0x0, symName: '__ZNSt3__110__function6__funcIZ41-[RCTMountingManager performTransaction:]E3$_0NS_9allocatorIS2_EEFvRKN8facebook5react19MountingTransactionERKNS6_16SurfaceTelemetryEEE18destroy_deallocateEv', symObjAddr: 0x1BEC, symBinAddr: 0x1EA48, symSize: 0x4 }
  - { offset: 0x284F53, size: 0x8, addend: 0x0, symName: '__ZNSt3__110__function6__funcIZ41-[RCTMountingManager performTransaction:]E3$_0NS_9allocatorIS2_EEFvRKN8facebook5react19MountingTransactionERKNS6_16SurfaceTelemetryEEE18destroy_deallocateEv', symObjAddr: 0x1BEC, symBinAddr: 0x1EA48, symSize: 0x4 }
  - { offset: 0x284F76, size: 0x8, addend: 0x0, symName: '__ZNSt3__110__function6__funcIZ41-[RCTMountingManager performTransaction:]E3$_0NS_9allocatorIS2_EEFvRKN8facebook5react19MountingTransactionERKNS6_16SurfaceTelemetryEEE18destroy_deallocateEv', symObjAddr: 0x1BEC, symBinAddr: 0x1EA48, symSize: 0x4 }
  - { offset: 0x284FAB, size: 0x8, addend: 0x0, symName: '__ZNSt3__110__function6__funcIZ41-[RCTMountingManager performTransaction:]E3$_0NS_9allocatorIS2_EEFvRKN8facebook5react19MountingTransactionERKNS6_16SurfaceTelemetryEEE18destroy_deallocateEv', symObjAddr: 0x1BEC, symBinAddr: 0x1EA48, symSize: 0x4 }
  - { offset: 0x285081, size: 0x8, addend: 0x0, symName: '__ZNSt3__110__function6__funcIZ41-[RCTMountingManager performTransaction:]E3$_0NS_9allocatorIS2_EEFvRKN8facebook5react19MountingTransactionERKNS6_16SurfaceTelemetryEEEclES9_SC_', symObjAddr: 0x1BF0, symBinAddr: 0x1EA4C, symSize: 0x78 }
  - { offset: 0x28516C, size: 0x8, addend: 0x0, symName: '__ZNKSt3__110__function6__funcIZ41-[RCTMountingManager performTransaction:]E3$_0NS_9allocatorIS2_EEFvRKN8facebook5react19MountingTransactionERKNS6_16SurfaceTelemetryEEE6targetERKSt9type_info', symObjAddr: 0x1C68, symBinAddr: 0x1EAC4, symSize: 0x3C }
  - { offset: 0x28521E, size: 0x8, addend: 0x0, symName: '__ZNKSt3__110__function6__funcIZ41-[RCTMountingManager performTransaction:]E3$_0NS_9allocatorIS2_EEFvRKN8facebook5react19MountingTransactionERKNS6_16SurfaceTelemetryEEE11target_typeEv', symObjAddr: 0x1CA4, symBinAddr: 0x1EB00, symSize: 0xC }
  - { offset: 0x285288, size: 0x8, addend: 0x0, symName: '__ZNSt3__110__function6__funcIZ41-[RCTMountingManager performTransaction:]E3$_1NS_9allocatorIS2_EEFvRKN8facebook5react19MountingTransactionERKNS6_16SurfaceTelemetryEEED1Ev', symObjAddr: 0x1CFC, symBinAddr: 0x1EB0C, symSize: 0x4 }
  - { offset: 0x2852B4, size: 0x8, addend: 0x0, symName: '__ZNSt3__110__function6__funcIZ41-[RCTMountingManager performTransaction:]E3$_1NS_9allocatorIS2_EEFvRKN8facebook5react19MountingTransactionERKNS6_16SurfaceTelemetryEEED0Ev', symObjAddr: 0x1D00, symBinAddr: 0x1EB10, symSize: 0x4 }
  - { offset: 0x2853C0, size: 0x8, addend: 0x0, symName: '__ZNKSt3__110__function6__funcIZ41-[RCTMountingManager performTransaction:]E3$_1NS_9allocatorIS2_EEFvRKN8facebook5react19MountingTransactionERKNS6_16SurfaceTelemetryEEE7__cloneEv', symObjAddr: 0x1D04, symBinAddr: 0x1EB14, symSize: 0x38 }
  - { offset: 0x2855CB, size: 0x8, addend: 0x0, symName: '__ZNKSt3__110__function6__funcIZ41-[RCTMountingManager performTransaction:]E3$_1NS_9allocatorIS2_EEFvRKN8facebook5react19MountingTransactionERKNS6_16SurfaceTelemetryEEE7__cloneEPNS0_6__baseISD_EE', symObjAddr: 0x1D3C, symBinAddr: 0x1EB4C, symSize: 0x18 }
  - { offset: 0x285601, size: 0x8, addend: 0x0, symName: '__ZNKSt3__110__function6__funcIZ41-[RCTMountingManager performTransaction:]E3$_1NS_9allocatorIS2_EEFvRKN8facebook5react19MountingTransactionERKNS6_16SurfaceTelemetryEEE7__cloneEPNS0_6__baseISD_EE', symObjAddr: 0x1D3C, symBinAddr: 0x1EB4C, symSize: 0x18 }
  - { offset: 0x28562F, size: 0x8, addend: 0x0, symName: '__ZNKSt3__110__function6__funcIZ41-[RCTMountingManager performTransaction:]E3$_1NS_9allocatorIS2_EEFvRKN8facebook5react19MountingTransactionERKNS6_16SurfaceTelemetryEEE7__cloneEPNS0_6__baseISD_EE', symObjAddr: 0x1D3C, symBinAddr: 0x1EB4C, symSize: 0x18 }
  - { offset: 0x2856BE, size: 0x8, addend: 0x0, symName: '__ZNSt3__110__function6__funcIZ41-[RCTMountingManager performTransaction:]E3$_1NS_9allocatorIS2_EEFvRKN8facebook5react19MountingTransactionERKNS6_16SurfaceTelemetryEEE7destroyEv', symObjAddr: 0x1D54, symBinAddr: 0x1EB64, symSize: 0x4 }
  - { offset: 0x28570F, size: 0x8, addend: 0x0, symName: '__ZNSt3__110__function6__funcIZ41-[RCTMountingManager performTransaction:]E3$_1NS_9allocatorIS2_EEFvRKN8facebook5react19MountingTransactionERKNS6_16SurfaceTelemetryEEE18destroy_deallocateEv', symObjAddr: 0x1D58, symBinAddr: 0x1EB68, symSize: 0x4 }
  - { offset: 0x285742, size: 0x8, addend: 0x0, symName: '__ZNSt3__110__function6__funcIZ41-[RCTMountingManager performTransaction:]E3$_1NS_9allocatorIS2_EEFvRKN8facebook5react19MountingTransactionERKNS6_16SurfaceTelemetryEEE18destroy_deallocateEv', symObjAddr: 0x1D58, symBinAddr: 0x1EB68, symSize: 0x4 }
  - { offset: 0x285765, size: 0x8, addend: 0x0, symName: '__ZNSt3__110__function6__funcIZ41-[RCTMountingManager performTransaction:]E3$_1NS_9allocatorIS2_EEFvRKN8facebook5react19MountingTransactionERKNS6_16SurfaceTelemetryEEE18destroy_deallocateEv', symObjAddr: 0x1D58, symBinAddr: 0x1EB68, symSize: 0x4 }
  - { offset: 0x28579A, size: 0x8, addend: 0x0, symName: '__ZNSt3__110__function6__funcIZ41-[RCTMountingManager performTransaction:]E3$_1NS_9allocatorIS2_EEFvRKN8facebook5react19MountingTransactionERKNS6_16SurfaceTelemetryEEE18destroy_deallocateEv', symObjAddr: 0x1D58, symBinAddr: 0x1EB68, symSize: 0x4 }
  - { offset: 0x285B0F, size: 0x8, addend: 0x0, symName: '__ZNSt3__110__function6__funcIZ41-[RCTMountingManager performTransaction:]E3$_1NS_9allocatorIS2_EEFvRKN8facebook5react19MountingTransactionERKNS6_16SurfaceTelemetryEEEclES9_SC_', symObjAddr: 0x1D5C, symBinAddr: 0x1EB6C, symSize: 0x3F4 }
  - { offset: 0x286177, size: 0x8, addend: 0x0, symName: __ZNK8facebook5react13LayoutMetricseqERKS1_, symObjAddr: 0x21F0, symBinAddr: 0x1EFA8, symSize: 0x150 }
  - { offset: 0x2861AD, size: 0x8, addend: 0x0, symName: __ZNK8facebook5react13LayoutMetricseqERKS1_, symObjAddr: 0x21F0, symBinAddr: 0x1EFA8, symSize: 0x150 }
  - { offset: 0x2861CF, size: 0x8, addend: 0x0, symName: __ZNK8facebook5react13LayoutMetricseqERKS1_, symObjAddr: 0x21F0, symBinAddr: 0x1EFA8, symSize: 0x150 }
  - { offset: 0x2861E3, size: 0x8, addend: 0x0, symName: __ZNK8facebook5react13LayoutMetricseqERKS1_, symObjAddr: 0x21F0, symBinAddr: 0x1EFA8, symSize: 0x150 }
  - { offset: 0x2861F8, size: 0x8, addend: 0x0, symName: __ZNK8facebook5react13LayoutMetricseqERKS1_, symObjAddr: 0x21F0, symBinAddr: 0x1EFA8, symSize: 0x150 }
  - { offset: 0x28620D, size: 0x8, addend: 0x0, symName: __ZNK8facebook5react13LayoutMetricseqERKS1_, symObjAddr: 0x21F0, symBinAddr: 0x1EFA8, symSize: 0x150 }
  - { offset: 0x2864AF, size: 0x8, addend: 0x0, symName: '__ZNKSt3__110__function6__funcIZ41-[RCTMountingManager performTransaction:]E3$_1NS_9allocatorIS2_EEFvRKN8facebook5react19MountingTransactionERKNS6_16SurfaceTelemetryEEE6targetERKSt9type_info', symObjAddr: 0x2150, symBinAddr: 0x1EF60, symSize: 0x3C }
  - { offset: 0x2864FC, size: 0x8, addend: 0x0, symName: '__ZNKSt3__110__function6__funcIZ41-[RCTMountingManager performTransaction:]E3$_1NS_9allocatorIS2_EEFvRKN8facebook5react19MountingTransactionERKNS6_16SurfaceTelemetryEEE11target_typeEv', symObjAddr: 0x218C, symBinAddr: 0x1EF9C, symSize: 0xC }
  - { offset: 0x286851, size: 0x8, addend: 0x0, symName: '__ZNSt3__110__function6__funcIZ41-[RCTMountingManager performTransaction:]E3$_2NS_9allocatorIS2_EEFvRKN8facebook5react19MountingTransactionERKNS6_16SurfaceTelemetryEEED1Ev', symObjAddr: 0x2340, symBinAddr: 0x1F0F8, symSize: 0x4 }
  - { offset: 0x28687D, size: 0x8, addend: 0x0, symName: '__ZNSt3__110__function6__funcIZ41-[RCTMountingManager performTransaction:]E3$_2NS_9allocatorIS2_EEFvRKN8facebook5react19MountingTransactionERKNS6_16SurfaceTelemetryEEED0Ev', symObjAddr: 0x2344, symBinAddr: 0x1F0FC, symSize: 0x4 }
  - { offset: 0x286989, size: 0x8, addend: 0x0, symName: '__ZNKSt3__110__function6__funcIZ41-[RCTMountingManager performTransaction:]E3$_2NS_9allocatorIS2_EEFvRKN8facebook5react19MountingTransactionERKNS6_16SurfaceTelemetryEEE7__cloneEv', symObjAddr: 0x2348, symBinAddr: 0x1F100, symSize: 0x38 }
  - { offset: 0x286B94, size: 0x8, addend: 0x0, symName: '__ZNKSt3__110__function6__funcIZ41-[RCTMountingManager performTransaction:]E3$_2NS_9allocatorIS2_EEFvRKN8facebook5react19MountingTransactionERKNS6_16SurfaceTelemetryEEE7__cloneEPNS0_6__baseISD_EE', symObjAddr: 0x2380, symBinAddr: 0x1F138, symSize: 0x18 }
  - { offset: 0x286BCA, size: 0x8, addend: 0x0, symName: '__ZNKSt3__110__function6__funcIZ41-[RCTMountingManager performTransaction:]E3$_2NS_9allocatorIS2_EEFvRKN8facebook5react19MountingTransactionERKNS6_16SurfaceTelemetryEEE7__cloneEPNS0_6__baseISD_EE', symObjAddr: 0x2380, symBinAddr: 0x1F138, symSize: 0x18 }
  - { offset: 0x286BF8, size: 0x8, addend: 0x0, symName: '__ZNKSt3__110__function6__funcIZ41-[RCTMountingManager performTransaction:]E3$_2NS_9allocatorIS2_EEFvRKN8facebook5react19MountingTransactionERKNS6_16SurfaceTelemetryEEE7__cloneEPNS0_6__baseISD_EE', symObjAddr: 0x2380, symBinAddr: 0x1F138, symSize: 0x18 }
  - { offset: 0x286C87, size: 0x8, addend: 0x0, symName: '__ZNSt3__110__function6__funcIZ41-[RCTMountingManager performTransaction:]E3$_2NS_9allocatorIS2_EEFvRKN8facebook5react19MountingTransactionERKNS6_16SurfaceTelemetryEEE7destroyEv', symObjAddr: 0x2398, symBinAddr: 0x1F150, symSize: 0x4 }
  - { offset: 0x286CD8, size: 0x8, addend: 0x0, symName: '__ZNSt3__110__function6__funcIZ41-[RCTMountingManager performTransaction:]E3$_2NS_9allocatorIS2_EEFvRKN8facebook5react19MountingTransactionERKNS6_16SurfaceTelemetryEEE18destroy_deallocateEv', symObjAddr: 0x239C, symBinAddr: 0x1F154, symSize: 0x4 }
  - { offset: 0x286D0B, size: 0x8, addend: 0x0, symName: '__ZNSt3__110__function6__funcIZ41-[RCTMountingManager performTransaction:]E3$_2NS_9allocatorIS2_EEFvRKN8facebook5react19MountingTransactionERKNS6_16SurfaceTelemetryEEE18destroy_deallocateEv', symObjAddr: 0x239C, symBinAddr: 0x1F154, symSize: 0x4 }
  - { offset: 0x286D2E, size: 0x8, addend: 0x0, symName: '__ZNSt3__110__function6__funcIZ41-[RCTMountingManager performTransaction:]E3$_2NS_9allocatorIS2_EEFvRKN8facebook5react19MountingTransactionERKNS6_16SurfaceTelemetryEEE18destroy_deallocateEv', symObjAddr: 0x239C, symBinAddr: 0x1F154, symSize: 0x4 }
  - { offset: 0x286D63, size: 0x8, addend: 0x0, symName: '__ZNSt3__110__function6__funcIZ41-[RCTMountingManager performTransaction:]E3$_2NS_9allocatorIS2_EEFvRKN8facebook5react19MountingTransactionERKNS6_16SurfaceTelemetryEEE18destroy_deallocateEv', symObjAddr: 0x239C, symBinAddr: 0x1F154, symSize: 0x4 }
  - { offset: 0x286E39, size: 0x8, addend: 0x0, symName: '__ZNSt3__110__function6__funcIZ41-[RCTMountingManager performTransaction:]E3$_2NS_9allocatorIS2_EEFvRKN8facebook5react19MountingTransactionERKNS6_16SurfaceTelemetryEEEclES9_SC_', symObjAddr: 0x23A0, symBinAddr: 0x1F158, symSize: 0x70 }
  - { offset: 0x286F88, size: 0x8, addend: 0x0, symName: '__ZNKSt3__110__function6__funcIZ41-[RCTMountingManager performTransaction:]E3$_2NS_9allocatorIS2_EEFvRKN8facebook5react19MountingTransactionERKNS6_16SurfaceTelemetryEEE6targetERKSt9type_info', symObjAddr: 0x2410, symBinAddr: 0x1F1C8, symSize: 0x3C }
  - { offset: 0x286FD5, size: 0x8, addend: 0x0, symName: '__ZNKSt3__110__function6__funcIZ41-[RCTMountingManager performTransaction:]E3$_2NS_9allocatorIS2_EEFvRKN8facebook5react19MountingTransactionERKNS6_16SurfaceTelemetryEEE11target_typeEv', symObjAddr: 0x244C, symBinAddr: 0x1F204, symSize: 0xC }
  - { offset: 0x28707A, size: 0x8, addend: 0x0, symName: __GLOBAL__sub_I_RCTMountingManager.mm, symObjAddr: 0x2828, symBinAddr: 0x1F210, symSize: 0x20 }
  - { offset: 0x289558, size: 0x8, addend: 0x0, symName: __ZN41RCTMountingTransactionObserverCoordinator31registerViewComponentDescriptorERK26RCTComponentViewDescriptori, symObjAddr: 0x0, symBinAddr: 0x1F230, symSize: 0x6C }
  - { offset: 0x2972D4, size: 0x8, addend: 0x0, symName: __ZN41RCTMountingTransactionObserverCoordinator31registerViewComponentDescriptorERK26RCTComponentViewDescriptori, symObjAddr: 0x0, symBinAddr: 0x1F230, symSize: 0x6C }
  - { offset: 0x2973D0, size: 0x8, addend: 0x0, symName: __ZNSt3__112__hash_tableINS_17__hash_value_typeIiNS_13unordered_setI26RCTComponentViewDescriptorNS_4hashIS3_EENS_8equal_toIS3_EENS_9allocatorIS3_EEEEEENS_22__unordered_map_hasherIiSB_NS4_IiEENS6_IiEELb1EEENS_21__unordered_map_equalIiSB_SE_SD_Lb1EEENS8_ISB_EEE25__emplace_unique_key_argsIiJRKNS_21piecewise_construct_tENS_5tupleIJRKiEEENSO_IJEEEEEENS_4pairINS_15__hash_iteratorIPNS_11__hash_nodeISB_PvEEEEbEERKT_DpOT0_, symObjAddr: 0x1CC, symBinAddr: 0x1F3FC, symSize: 0x248 }
  - { offset: 0x297B69, size: 0x8, addend: 0x0, symName: __ZNSt3__112__hash_tableI26RCTComponentViewDescriptorNS_4hashIS1_EENS_8equal_toIS1_EENS_9allocatorIS1_EEE25__emplace_unique_key_argsIS1_JRKS1_EEENS_4pairINS_15__hash_iteratorIPNS_11__hash_nodeIS1_PvEEEEbEERKT_DpOT0_, symObjAddr: 0x724, symBinAddr: 0x1F68C, symSize: 0x29C }
  - { offset: 0x2983C9, size: 0x8, addend: 0x0, symName: __ZN41RCTMountingTransactionObserverCoordinator33unregisterViewComponentDescriptorERK26RCTComponentViewDescriptori, symObjAddr: 0x6C, symBinAddr: 0x1F29C, symSize: 0x68 }
  - { offset: 0x298493, size: 0x8, addend: 0x0, symName: __ZNSt3__112__hash_tableI26RCTComponentViewDescriptorNS_4hashIS1_EENS_8equal_toIS1_EENS_9allocatorIS1_EEE14__erase_uniqueIS1_EEmRKT_, symObjAddr: 0xC34, symBinAddr: 0x1F970, symSize: 0x4C }
  - { offset: 0x2985C9, size: 0x8, addend: 0x0, symName: __ZNK41RCTMountingTransactionObserverCoordinator43notifyObserversMountingTransactionWillMountERKN8facebook5react19MountingTransactionERKNS1_16SurfaceTelemetryE, symObjAddr: 0xD4, symBinAddr: 0x1F304, symSize: 0x7C }
  - { offset: 0x2987C4, size: 0x8, addend: 0x0, symName: __ZNK41RCTMountingTransactionObserverCoordinator42notifyObserversMountingTransactionDidMountERKN8facebook5react19MountingTransactionERKNS1_16SurfaceTelemetryE, symObjAddr: 0x150, symBinAddr: 0x1F380, symSize: 0x7C }
  - { offset: 0x298EF8, size: 0x8, addend: 0x0, symName: __ZNSt3__110unique_ptrINS_11__hash_nodeINS_17__hash_value_typeIiNS_13unordered_setI26RCTComponentViewDescriptorNS_4hashIS4_EENS_8equal_toIS4_EENS_9allocatorIS4_EEEEEEPvEENS_22__hash_node_destructorINS9_ISE_EEEEE5resetB8ne200100EPSE_, symObjAddr: 0x668, symBinAddr: 0x1F644, symSize: 0x48 }
  - { offset: 0x299366, size: 0x8, addend: 0x0, symName: __ZNSt3__110unique_ptrINS_11__hash_nodeINS_17__hash_value_typeIiNS_13unordered_setI26RCTComponentViewDescriptorNS_4hashIS4_EENS_8equal_toIS4_EENS_9allocatorIS4_EEEEEEPvEENS_22__hash_node_destructorINS9_ISE_EEEEE5resetB8ne200100EPSE_, symObjAddr: 0x668, symBinAddr: 0x1F644, symSize: 0x48 }
  - { offset: 0x299F50, size: 0x8, addend: 0x0, symName: __ZNSt3__110unique_ptrINS_11__hash_nodeI26RCTComponentViewDescriptorPvEENS_22__hash_node_destructorINS_9allocatorIS4_EEEEE5resetB8ne200100EPS4_, symObjAddr: 0xBEC, symBinAddr: 0x1F928, symSize: 0x48 }
  - { offset: 0x29A368, size: 0x8, addend: 0x0, symName: __ZNSt3__110unique_ptrINS_11__hash_nodeI26RCTComponentViewDescriptorPvEENS_22__hash_node_destructorINS_9allocatorIS4_EEEEE5resetB8ne200100EPS4_, symObjAddr: 0xBEC, symBinAddr: 0x1F928, symSize: 0x48 }
  - { offset: 0x29A458, size: 0x8, addend: 0x0, symName: __ZNSt3__112__hash_tableI26RCTComponentViewDescriptorNS_4hashIS1_EENS_8equal_toIS1_EENS_9allocatorIS1_EEE4findIS1_EENS_15__hash_iteratorIPNS_11__hash_nodeIS1_PvEEEERKT_, symObjAddr: 0xC80, symBinAddr: 0x1F9BC, symSize: 0xEC }
  - { offset: 0x29A4B1, size: 0x8, addend: 0x0, symName: __ZNSt3__112__hash_tableI26RCTComponentViewDescriptorNS_4hashIS1_EENS_8equal_toIS1_EENS_9allocatorIS1_EEE4findIS1_EENS_15__hash_iteratorIPNS_11__hash_nodeIS1_PvEEEERKT_, symObjAddr: 0xC80, symBinAddr: 0x1F9BC, symSize: 0xEC }
  - { offset: 0x29A4CD, size: 0x8, addend: 0x0, symName: __ZNSt3__112__hash_tableI26RCTComponentViewDescriptorNS_4hashIS1_EENS_8equal_toIS1_EENS_9allocatorIS1_EEE4findIS1_EENS_15__hash_iteratorIPNS_11__hash_nodeIS1_PvEEEERKT_, symObjAddr: 0xC80, symBinAddr: 0x1F9BC, symSize: 0xEC }
  - { offset: 0x29C74A, size: 0x8, addend: 0x0, symName: __ZN8facebook5react17HostPlatformColorL14UndefinedColorE, symObjAddr: 0xDB968, symBinAddr: 0x9FE60, symSize: 0x0 }
  - { offset: 0x2AE00C, size: 0x8, addend: 0x0, symName: __ZNSt3__135__uninitialized_allocator_copy_implB8ne200100INS_9allocatorIN8facebook5react16AttributedString8FragmentEEEPS5_S7_S7_EET2_RT_T0_T1_S8_, symObjAddr: 0x14A8, symBinAddr: 0x20F50, symSize: 0x84 }
  - { offset: 0x2AE200, size: 0x8, addend: 0x0, symName: __ZNSt3__112__destroy_atB8ne200100IN8facebook5react16AttributedString8FragmentELi0EEEvPT_, symObjAddr: 0x1930, symBinAddr: 0x21250, symSize: 0x7C }
  - { offset: 0x2AE7B4, size: 0x8, addend: 0x0, symName: __ZNSt3__119__allocate_at_leastB8ne200100INS_9allocatorIN8facebook5react16AttributedString8FragmentEEEEENS_19__allocation_resultINS_16allocator_traitsIT_E7pointerEEERS9_m, symObjAddr: 0x1E04, symBinAddr: 0x214A0, symSize: 0x48 }
  - { offset: 0x2B282C, size: 0x8, addend: 0x0, symName: '-[RCTParagraphComponentAccessibilityProvider initWithString:layoutManager:paragraphAttributes:frame:view:]', symObjAddr: 0x0, symBinAddr: 0x1FAA8, symSize: 0x20C }
  - { offset: 0x2B2AA3, size: 0x8, addend: 0x0, symName: __ZNSt3__16vectorIN8facebook5react16AttributedString8FragmentENS_9allocatorIS4_EEE18__assign_with_sizeB8ne200100IPS4_S9_EEvT_T0_l, symObjAddr: 0x1280, symBinAddr: 0x20D28, symSize: 0x178 }
  - { offset: 0x2B33B7, size: 0x8, addend: 0x0, symName: '-[RCTParagraphComponentAccessibilityProvider accessibilityElements]', symObjAddr: 0x20C, symBinAddr: 0x1FCB4, symSize: 0x97C }
  - { offset: 0x2B3EA9, size: 0x8, addend: 0x0, symName: __ZN8facebook5react16AttributedStringC2ERKS1_, symObjAddr: 0x1EC4, symBinAddr: 0x214E8, symSize: 0x1D8 }
  - { offset: 0x2B46CD, size: 0x8, addend: 0x0, symName: __ZNSt3__16vectorIN8facebook5react16AttributedString8FragmentENS_9allocatorIS4_EEE16__destroy_vectorclB8ne200100Ev, symObjAddr: 0x2120, symBinAddr: 0x21744, symSize: 0x70 }
  - { offset: 0x2B480E, size: 0x8, addend: 0x0, symName: __ZN8facebook5react16AttributedStringD1Ev, symObjAddr: 0xEE8, symBinAddr: 0x20990, symSize: 0x64 }
  - { offset: 0x2B4C14, size: 0x8, addend: 0x0, symName: ___Block_byref_object_copy_, symObjAddr: 0xB88, symBinAddr: 0x20630, symSize: 0x10 }
  - { offset: 0x2B4C39, size: 0x8, addend: 0x0, symName: ___Block_byref_object_dispose_, symObjAddr: 0xB98, symBinAddr: 0x20640, symSize: 0x8 }
  - { offset: 0x2B4C58, size: 0x8, addend: 0x0, symName: '___67-[RCTParagraphComponentAccessibilityProvider accessibilityElements]_block_invoke', symObjAddr: 0xBA0, symBinAddr: 0x20648, symSize: 0x290 }
  - { offset: 0x2B4D27, size: 0x8, addend: 0x0, symName: ___copy_helper_block_ea8_32s40s48s56r64r72r, symObjAddr: 0xE30, symBinAddr: 0x208D8, symSize: 0x64 }
  - { offset: 0x2B4D50, size: 0x8, addend: 0x0, symName: ___destroy_helper_block_ea8_32s40s48s56r64r72r, symObjAddr: 0xE94, symBinAddr: 0x2093C, symSize: 0x54 }
  - { offset: 0x2B4DC2, size: 0x8, addend: 0x0, symName: '___67-[RCTParagraphComponentAccessibilityProvider accessibilityElements]_block_invoke.15', symObjAddr: 0xF4C, symBinAddr: 0x209F4, symSize: 0x17C }
  - { offset: 0x2B4E75, size: 0x8, addend: 0x0, symName: ___copy_helper_block_ea8_32r40r48r56r, symObjAddr: 0x10C8, symBinAddr: 0x20B70, symSize: 0x5C }
  - { offset: 0x2B4E9E, size: 0x8, addend: 0x0, symName: ___destroy_helper_block_ea8_32r40r48r56r, symObjAddr: 0x1124, symBinAddr: 0x20BCC, symSize: 0x48 }
  - { offset: 0x2B4EBD, size: 0x8, addend: 0x0, symName: '-[RCTParagraphComponentAccessibilityProvider isUpToDate:]', symObjAddr: 0x116C, symBinAddr: 0x20C14, symSize: 0xC }
  - { offset: 0x2B4F01, size: 0x8, addend: 0x0, symName: '-[RCTParagraphComponentAccessibilityProvider .cxx_destruct]', symObjAddr: 0x1178, symBinAddr: 0x20C20, symSize: 0x84 }
  - { offset: 0x2B54FE, size: 0x8, addend: 0x0, symName: '-[RCTParagraphComponentAccessibilityProvider .cxx_construct]', symObjAddr: 0x11FC, symBinAddr: 0x20CA4, symSize: 0x84 }
  - { offset: 0x2B57A0, size: 0x8, addend: 0x0, symName: __ZN8facebook5react14TextAttributesC2Ev, symObjAddr: 0x2190, symBinAddr: 0x217B4, symSize: 0x1D8 }
  - { offset: 0x2B7048, size: 0x8, addend: 0x0, symName: __ZNSt3__16vectorIN8facebook5react16AttributedString8FragmentENS_9allocatorIS4_EEE13__vdeallocateEv, symObjAddr: 0x13F8, symBinAddr: 0x20EA0, symSize: 0x64 }
  - { offset: 0x2B7199, size: 0x8, addend: 0x0, symName: __ZNSt3__16vectorIN8facebook5react16AttributedString8FragmentENS_9allocatorIS4_EEE11__vallocateB8ne200100Em, symObjAddr: 0x145C, symBinAddr: 0x20F04, symSize: 0x4C }
  - { offset: 0x2B71F2, size: 0x8, addend: 0x0, symName: __ZNSt3__135__uninitialized_allocator_copy_implB8ne200100INS_9allocatorIN8facebook5react16AttributedString8FragmentEEEPS5_S7_S7_EET2_RT_T0_T1_S8_, symObjAddr: 0x14A8, symBinAddr: 0x20F50, symSize: 0x84 }
  - { offset: 0x2B7207, size: 0x8, addend: 0x0, symName: __ZNKSt3__111__copy_implclB8ne200100IPN8facebook5react16AttributedString8FragmentES6_S6_EENS_4pairIT_T1_EES8_T0_S9_, symObjAddr: 0x1AB4, symBinAddr: 0x212CC, symSize: 0x150 }
  - { offset: 0x2B748A, size: 0x8, addend: 0x0, symName: __ZNSt3__119__allocate_at_leastB8ne200100INS_9allocatorIN8facebook5react16AttributedString8FragmentEEEEENS_19__allocation_resultINS_16allocator_traitsIT_E7pointerEEERS9_m, symObjAddr: 0x1E04, symBinAddr: 0x214A0, symSize: 0x48 }
  - { offset: 0x2B75D4, size: 0x8, addend: 0x0, symName: __ZN8facebook5react16AttributedString8FragmentC2ERKS2_, symObjAddr: 0x152C, symBinAddr: 0x20FD4, symSize: 0x1D8 }
  - { offset: 0x2B8179, size: 0x8, addend: 0x0, symName: __ZN8facebook5react10ShadowViewC2ERKS1_, symObjAddr: 0x188C, symBinAddr: 0x211AC, symSize: 0xA4 }
  - { offset: 0x2B87B1, size: 0x8, addend: 0x0, symName: __ZN8facebook5react10ShadowViewaSERKS1_, symObjAddr: 0x1C04, symBinAddr: 0x2141C, symSize: 0x84 }
  - { offset: 0x2B8C75, size: 0x8, addend: 0x0, symName: __ZNSt3__16vectorIN8facebook5react16AttributedString8FragmentENS_9allocatorIS4_EEE16__init_with_sizeB8ne200100IPS4_S9_EEvT_T0_m, symObjAddr: 0x209C, symBinAddr: 0x216C0, symSize: 0x84 }
  - { offset: 0x2BA2F6, size: 0x8, addend: 0x0, symName: __GLOBAL__sub_I_RCTParagraphComponentAccessibilityProvider.mm, symObjAddr: 0x2688, symBinAddr: 0x2198C, symSize: 0x20 }
  - { offset: 0x2BC658, size: 0x8, addend: 0x0, symName: __ZN8facebook5react17HostPlatformColorL14UndefinedColorE, symObjAddr: 0x260788, symBinAddr: 0x9FE78, symSize: 0x0 }
  - { offset: 0x2C17C3, size: 0x8, addend: 0x0, symName: __ZN8facebook5react38concreteComponentDescriptorConstructorINS0_28ParagraphComponentDescriptorEEENSt3__110unique_ptrIKNS0_19ComponentDescriptorENS3_14default_deleteIS6_EEEERKNS0_29ComponentDescriptorParametersE, symObjAddr: 0x3F8C, symBinAddr: 0x23EE0, symSize: 0x6C }
  - { offset: 0x2C191A, size: 0x8, addend: 0x0, symName: __ZN8facebook5react16getManagerByNameINS0_17TextLayoutManagerEEENSt3__110shared_ptrIT_EERNS4_IKNS0_16ContextContainerEEEPKc, symObjAddr: 0x413C, symBinAddr: 0x24040, symSize: 0xFC }
  - { offset: 0x2C1F2F, size: 0x8, addend: 0x0, symName: __ZN8facebook5react38concreteComponentDescriptorConstructorINS0_27ConcreteComponentDescriptorINS0_17RawTextShadowNodeEEEEENSt3__110unique_ptrIKNS0_19ComponentDescriptorENS5_14default_deleteIS8_EEEERKNS0_29ComponentDescriptorParametersE, symObjAddr: 0x7A8C, symBinAddr: 0x26478, symSize: 0x34 }
  - { offset: 0x2C1FEF, size: 0x8, addend: 0x0, symName: __ZN8facebook5react38concreteComponentDescriptorConstructorINS0_27ConcreteComponentDescriptorINS0_14TextShadowNodeEEEEENSt3__110unique_ptrIKNS0_19ComponentDescriptorENS5_14default_deleteIS8_EEEERKNS0_29ComponentDescriptorParametersE, symObjAddr: 0x8D10, symBinAddr: 0x27438, symSize: 0x34 }
  - { offset: 0x2EDB84, size: 0x8, addend: 0x0, symName: __ZNSt3__115allocate_sharedB8ne200100IKN8facebook5react14ParagraphPropsENS_9allocatorIS3_EEJELi0EEENS_10shared_ptrIT_EERKT0_DpOT1_, symObjAddr: 0x2DD4, symBinAddr: 0x23AC8, symSize: 0x48 }
  - { offset: 0x2F0257, size: 0x8, addend: 0x0, symName: __ZNSt3__115allocate_sharedB8ne200100IN8facebook5react17TextLayoutManagerENS_9allocatorIS3_EEJRNS_10shared_ptrIKNS2_16ContextContainerEEEELi0EEENS6_IT_EERKT0_DpOT1_, symObjAddr: 0x57C4, symBinAddr: 0x24EFC, symSize: 0x58 }
  - { offset: 0x2F0733, size: 0x8, addend: 0x0, symName: __ZNSt3__115allocate_sharedB8ne200100IN8facebook5react19ParagraphShadowNodeENS_9allocatorIS3_EEJRKNS2_18ShadowNodeFragmentERKNS_10shared_ptrIKNS2_16ShadowNodeFamilyEEENS2_16ShadowNodeTraitsEELi0EEENS9_IT_EERKT0_DpOT1_, symObjAddr: 0x5DCC, symBinAddr: 0x25354, symSize: 0x70 }
  - { offset: 0x2F0A56, size: 0x8, addend: 0x0, symName: __ZNSt3__115allocate_sharedB8ne200100IN8facebook5react19ParagraphShadowNodeENS_9allocatorIS3_EEJRKNS2_10ShadowNodeERKNS2_18ShadowNodeFragmentEELi0EEENS_10shared_ptrIT_EERKT0_DpOT1_, symObjAddr: 0x6298, symBinAddr: 0x255F4, symSize: 0x60 }
  - { offset: 0x2F1391, size: 0x8, addend: 0x0, symName: __ZNSt3__112construct_atB8ne200100IN8facebook5react14ParagraphStateEJS3_EPS3_EEPT_S6_DpOT0_, symObjAddr: 0x6A6C, symBinAddr: 0x25BE8, symSize: 0x128 }
  - { offset: 0x2F13D2, size: 0x8, addend: 0x0, symName: __ZNSt3__112construct_atB8ne200100IN8facebook5react14ParagraphStateEJS3_EPS3_EEPT_S6_DpOT0_, symObjAddr: 0x6A6C, symBinAddr: 0x25BE8, symSize: 0x128 }
  - { offset: 0x2F13F5, size: 0x8, addend: 0x0, symName: __ZNSt3__112construct_atB8ne200100IN8facebook5react14ParagraphStateEJS3_EPS3_EEPT_S6_DpOT0_, symObjAddr: 0x6A6C, symBinAddr: 0x25BE8, symSize: 0x128 }
  - { offset: 0x2F1417, size: 0x8, addend: 0x0, symName: __ZNSt3__112construct_atB8ne200100IN8facebook5react14ParagraphStateEJS3_EPS3_EEPT_S6_DpOT0_, symObjAddr: 0x6A6C, symBinAddr: 0x25BE8, symSize: 0x128 }
  - { offset: 0x2F1439, size: 0x8, addend: 0x0, symName: __ZNSt3__112construct_atB8ne200100IN8facebook5react14ParagraphStateEJS3_EPS3_EEPT_S6_DpOT0_, symObjAddr: 0x6A6C, symBinAddr: 0x25BE8, symSize: 0x128 }
  - { offset: 0x2F145B, size: 0x8, addend: 0x0, symName: __ZNSt3__112construct_atB8ne200100IN8facebook5react14ParagraphStateEJS3_EPS3_EEPT_S6_DpOT0_, symObjAddr: 0x6A6C, symBinAddr: 0x25BE8, symSize: 0x128 }
  - { offset: 0x2F147D, size: 0x8, addend: 0x0, symName: __ZNSt3__112construct_atB8ne200100IN8facebook5react14ParagraphStateEJS3_EPS3_EEPT_S6_DpOT0_, symObjAddr: 0x6A6C, symBinAddr: 0x25BE8, symSize: 0x128 }
  - { offset: 0x2F1978, size: 0x8, addend: 0x0, symName: __ZNSt3__115allocate_sharedB8ne200100IN8facebook5react13ConcreteStateINS2_14ParagraphStateEEENS_9allocatorIS5_EEJNS_10shared_ptrIKS4_EERKNS8_IKNS2_16ShadowNodeFamilyEEEELi0EEENS8_IT_EERKT0_DpOT1_, symObjAddr: 0x6740, symBinAddr: 0x25914, symSize: 0x60 }
  - { offset: 0x2F1CA6, size: 0x8, addend: 0x0, symName: __ZNSt3__115allocate_sharedB8ne200100IKN8facebook5react13ConcreteStateINS2_14ParagraphStateEEENS_9allocatorIS5_EEJNS_10shared_ptrIKS4_EERKNS2_5StateEELi0EEENS9_IT_EERKT0_DpOT1_, symObjAddr: 0x6E30, symBinAddr: 0x25D7C, symSize: 0x60 }
  - { offset: 0x2F2414, size: 0x8, addend: 0x0, symName: __ZNSt3__115allocate_sharedB8ne200100IKN8facebook5react21ParagraphEventEmitterENS_9allocatorIS3_EEJNS_10shared_ptrINS2_11EventTargetEEERKNS_8weak_ptrIKNS2_15EventDispatcherEEEELi0EEENS7_IT_EERKT0_DpOT1_, symObjAddr: 0x7044, symBinAddr: 0x25F90, symSize: 0x60 }
  - { offset: 0x2F26C5, size: 0x8, addend: 0x0, symName: __ZNSt3__115allocate_sharedB8ne200100IN8facebook5react16ShadowNodeFamilyENS_9allocatorIS3_EEJRKNS2_24ShadowNodeFamilyFragmentERNS_10shared_ptrIKNS2_21ParagraphEventEmitterEEERKNS_8weak_ptrIKNS2_15EventDispatcherEEERKNS2_27ConcreteComponentDescriptorINS2_19ParagraphShadowNodeEEEELi0EEENS9_IT_EERKT0_DpOT1_, symObjAddr: 0x77B8, symBinAddr: 0x262D8, symSize: 0x78 }
  - { offset: 0x2F3252, size: 0x8, addend: 0x0, symName: __ZNSt3__112__destroy_atB8ne200100IN8facebook5react17TextLayoutManagerELi0EEEvPT_, symObjAddr: 0x58AC, symBinAddr: 0x24FE4, symSize: 0x58 }
  - { offset: 0x2F36CE, size: 0x8, addend: 0x0, symName: __ZNSt3__112__destroy_atB8ne200100INS_4pairIKN8facebook5react19LineMeasureCacheKeyENS_15__list_iteratorINS1_IS4_NS_6vectorINS3_15LineMeasurementENS_9allocatorIS8_EEEEEEPvEEEELi0EEEvPT_, symObjAddr: 0x5978, symBinAddr: 0x250B0, symSize: 0x60 }
  - { offset: 0x2F3C21, size: 0x8, addend: 0x0, symName: __ZNSt3__112__destroy_atB8ne200100INS_4pairIN8facebook5react19LineMeasureCacheKeyENS_6vectorINS3_15LineMeasurementENS_9allocatorIS6_EEEEEELi0EEEvPT_, symObjAddr: 0x5A44, symBinAddr: 0x2517C, symSize: 0x70 }
  - { offset: 0x2F4774, size: 0x8, addend: 0x0, symName: __ZNSt3__112__destroy_atB8ne200100INS_4pairIN8facebook5react19TextMeasureCacheKeyENS3_15TextMeasurementEEELi0EEEvPT_, symObjAddr: 0x5C80, symBinAddr: 0x252E4, symSize: 0x70 }
  - { offset: 0x2F5372, size: 0x8, addend: 0x0, symName: __ZNSt3__112__destroy_atB8ne200100IN8facebook5react19ParagraphShadowNodeELi0EEEvPT_, symObjAddr: 0x5ED0, symBinAddr: 0x25458, symSize: 0x90 }
  - { offset: 0x2F5CD6, size: 0x8, addend: 0x0, symName: __ZNSt3__115allocate_sharedB8ne200100IN8facebook5react14ParagraphPropsENS_9allocatorIS3_EEJRKNS2_18PropsParserContextERKS3_RKNS2_8RawPropsEELi0EEENS_10shared_ptrIT_EERKT0_DpOT1_, symObjAddr: 0x63F4, symBinAddr: 0x256F8, symSize: 0x70 }
  - { offset: 0x2F686B, size: 0x8, addend: 0x0, symName: __ZNSt3__112construct_atB8ne200100IN8facebook5react13ConcreteStateINS2_14ParagraphStateEEEJNS_10shared_ptrIKS4_EERKNS6_IKNS2_16ShadowNodeFamilyEEEEPS5_EEPT_SG_DpOT0_, symObjAddr: 0x6834, symBinAddr: 0x25A08, symSize: 0xC8 }
  - { offset: 0x2F6B7E, size: 0x8, addend: 0x0, symName: __ZNSt3__112__destroy_atB8ne200100IN8facebook5react14ParagraphStateELi0EEEvPT_, symObjAddr: 0x6B94, symBinAddr: 0x25D10, symSize: 0x6C }
  - { offset: 0x2F746F, size: 0x8, addend: 0x0, symName: __ZNSt3__112construct_atB8ne200100IN8facebook5react13ConcreteStateINS2_14ParagraphStateEEEJNS_10shared_ptrIKS4_EERKNS2_5StateEEPS5_EEPT_SE_DpOT0_, symObjAddr: 0x6F24, symBinAddr: 0x25E70, symSize: 0x88 }
  - { offset: 0x2F7ABB, size: 0x8, addend: 0x0, symName: __ZNSt3__112construct_atB8ne200100IN8facebook5react21ParagraphEventEmitterEJNS_10shared_ptrINS2_11EventTargetEEERKNS_8weak_ptrIKNS2_15EventDispatcherEEEEPS3_EEPT_SF_DpOT0_, symObjAddr: 0x7138, symBinAddr: 0x26084, symSize: 0x158 }
  - { offset: 0x2F8859, size: 0x8, addend: 0x0, symName: __ZNSt3__112construct_atB8ne200100IN8facebook5react16ShadowNodeFamilyEJRKNS2_24ShadowNodeFamilyFragmentERNS_10shared_ptrIKNS2_21ParagraphEventEmitterEEERKNS_8weak_ptrIKNS2_15EventDispatcherEEERKNS2_27ConcreteComponentDescriptorINS2_19ParagraphShadowNodeEEEEPS3_EEPT_SP_DpOT0_, symObjAddr: 0x78C0, symBinAddr: 0x2639C, symSize: 0xDC }
  - { offset: 0x2F8B7A, size: 0x8, addend: 0x0, symName: __ZNSt3__111make_uniqueB8ne200100IKN8facebook5react27ConcreteComponentDescriptorINS2_17RawTextShadowNodeEEEJRKNS2_29ComponentDescriptorParametersEELi0EEENS_10unique_ptrIT_NS_14default_deleteISB_EEEEDpOT0_, symObjAddr: 0x7AC0, symBinAddr: 0x264AC, symSize: 0xD4 }
  - { offset: 0x2F9320, size: 0x8, addend: 0x0, symName: __ZNSt3__115allocate_sharedB8ne200100IN8facebook5react17RawTextShadowNodeENS_9allocatorIS3_EEJRKNS2_18ShadowNodeFragmentERKNS_10shared_ptrIKNS2_16ShadowNodeFamilyEEENS2_16ShadowNodeTraitsEELi0EEENS9_IT_EERKT0_DpOT1_, symObjAddr: 0x83B0, symBinAddr: 0x26D9C, symSize: 0x70 }
  - { offset: 0x2F9643, size: 0x8, addend: 0x0, symName: __ZNSt3__115allocate_sharedB8ne200100IN8facebook5react17RawTextShadowNodeENS_9allocatorIS3_EEJRKNS2_10ShadowNodeERKNS2_18ShadowNodeFragmentEELi0EEENS_10shared_ptrIT_EERKT0_DpOT1_, symObjAddr: 0x85DC, symBinAddr: 0x26F70, symSize: 0x60 }
  - { offset: 0x2F9B76, size: 0x8, addend: 0x0, symName: __ZNSt3__115allocate_sharedB8ne200100IN8facebook5react16ShadowNodeFamilyENS_9allocatorIS3_EEJRKNS2_24ShadowNodeFamilyFragmentERNS_10shared_ptrIKNS2_12EventEmitterEEERKNS_8weak_ptrIKNS2_15EventDispatcherEEERKNS2_27ConcreteComponentDescriptorINS2_17RawTextShadowNodeEEEELi0EEENS9_IT_EERKT0_DpOT1_, symObjAddr: 0x8B70, symBinAddr: 0x27298, symSize: 0x78 }
  - { offset: 0x2FA33C, size: 0x8, addend: 0x0, symName: __ZNSt3__112construct_atB8ne200100IN8facebook5react17RawTextShadowNodeEJRKNS2_18ShadowNodeFragmentERKNS_10shared_ptrIKNS2_16ShadowNodeFamilyEEENS2_16ShadowNodeTraitsEEPS3_EEPT_SG_DpOT0_, symObjAddr: 0x84B4, symBinAddr: 0x26EA0, symSize: 0xB4 }
  - { offset: 0x2FABBA, size: 0x8, addend: 0x0, symName: __ZNSt3__115allocate_sharedB8ne200100IN8facebook5react12RawTextPropsENS_9allocatorIS3_EEJRKNS2_18PropsParserContextERKS3_RKNS2_8RawPropsEELi0EEENS_10shared_ptrIT_EERKT0_DpOT1_, symObjAddr: 0x8858, symBinAddr: 0x27194, symSize: 0x70 }
  - { offset: 0x2FB6F1, size: 0x8, addend: 0x0, symName: __ZNSt3__112construct_atB8ne200100IN8facebook5react16ShadowNodeFamilyEJRKNS2_24ShadowNodeFamilyFragmentERNS_10shared_ptrIKNS2_12EventEmitterEEERKNS_8weak_ptrIKNS2_15EventDispatcherEEERKNS2_27ConcreteComponentDescriptorINS2_17RawTextShadowNodeEEEEPS3_EEPT_SP_DpOT0_, symObjAddr: 0x8C34, symBinAddr: 0x2735C, symSize: 0xDC }
  - { offset: 0x2FBA12, size: 0x8, addend: 0x0, symName: __ZNSt3__111make_uniqueB8ne200100IKN8facebook5react27ConcreteComponentDescriptorINS2_14TextShadowNodeEEEJRKNS2_29ComponentDescriptorParametersEELi0EEENS_10unique_ptrIT_NS_14default_deleteISB_EEEEDpOT0_, symObjAddr: 0x8D44, symBinAddr: 0x2746C, symSize: 0xD4 }
  - { offset: 0x2FC1B8, size: 0x8, addend: 0x0, symName: __ZNSt3__115allocate_sharedB8ne200100IN8facebook5react14TextShadowNodeENS_9allocatorIS3_EEJRKNS2_18ShadowNodeFragmentERKNS_10shared_ptrIKNS2_16ShadowNodeFamilyEEENS2_16ShadowNodeTraitsEELi0EEENS9_IT_EERKT0_DpOT1_, symObjAddr: 0x98A8, symBinAddr: 0x27FD0, symSize: 0x70 }
  - { offset: 0x2FC4DB, size: 0x8, addend: 0x0, symName: __ZNSt3__115allocate_sharedB8ne200100IN8facebook5react14TextShadowNodeENS_9allocatorIS3_EEJRKNS2_10ShadowNodeERKNS2_18ShadowNodeFragmentEELi0EEENS_10shared_ptrIT_EERKT0_DpOT1_, symObjAddr: 0x9AD0, symBinAddr: 0x281A0, symSize: 0x60 }
  - { offset: 0x2FC84C, size: 0x8, addend: 0x0, symName: __ZNSt3__115allocate_sharedB8ne200100IKN8facebook5react17TouchEventEmitterENS_9allocatorIS3_EEJNS_10shared_ptrINS2_11EventTargetEEERKNS_8weak_ptrIKNS2_15EventDispatcherEEEELi0EEENS7_IT_EERKT0_DpOT1_, symObjAddr: 0x9F68, symBinAddr: 0x28588, symSize: 0x60 }
  - { offset: 0x2FCAFB, size: 0x8, addend: 0x0, symName: __ZNSt3__115allocate_sharedB8ne200100IN8facebook5react16ShadowNodeFamilyENS_9allocatorIS3_EEJRKNS2_24ShadowNodeFamilyFragmentERNS_10shared_ptrIKNS2_17TouchEventEmitterEEERKNS_8weak_ptrIKNS2_15EventDispatcherEEERKNS2_27ConcreteComponentDescriptorINS2_14TextShadowNodeEEEELi0EEENS9_IT_EERKT0_DpOT1_, symObjAddr: 0xA134, symBinAddr: 0x28754, symSize: 0x78 }
  - { offset: 0x2FD2C1, size: 0x8, addend: 0x0, symName: __ZNSt3__112construct_atB8ne200100IN8facebook5react14TextShadowNodeEJRKNS2_18ShadowNodeFragmentERKNS_10shared_ptrIKNS2_16ShadowNodeFamilyEEENS2_16ShadowNodeTraitsEEPS3_EEPT_SG_DpOT0_, symObjAddr: 0x99AC, symBinAddr: 0x280D4, symSize: 0xB4 }
  - { offset: 0x2FD67B, size: 0x8, addend: 0x0, symName: __ZNSt3__115allocate_sharedB8ne200100IKN8facebook5react9TextPropsENS_9allocatorIS3_EEJELi0EEENS_10shared_ptrIT_EERKT0_DpOT1_, symObjAddr: 0x9C84, symBinAddr: 0x28354, symSize: 0x48 }
  - { offset: 0x2FD942, size: 0x8, addend: 0x0, symName: __ZNSt3__115allocate_sharedB8ne200100IN8facebook5react9TextPropsENS_9allocatorIS3_EEJRKNS2_18PropsParserContextERKS3_RKNS2_8RawPropsEELi0EEENS_10shared_ptrIT_EERKT0_DpOT1_, symObjAddr: 0x9E0C, symBinAddr: 0x28484, symSize: 0x70 }
  - { offset: 0x2FE96E, size: 0x8, addend: 0x0, symName: __ZNSt3__112construct_atB8ne200100IN8facebook5react17TouchEventEmitterEJNS_10shared_ptrINS2_11EventTargetEEERKNS_8weak_ptrIKNS2_15EventDispatcherEEEEPS3_EEPT_SF_DpOT0_, symObjAddr: 0xA05C, symBinAddr: 0x2867C, symSize: 0xD8 }
  - { offset: 0x2FED0E, size: 0x8, addend: 0x0, symName: __ZNSt3__112construct_atB8ne200100IN8facebook5react16ShadowNodeFamilyEJRKNS2_24ShadowNodeFamilyFragmentERNS_10shared_ptrIKNS2_17TouchEventEmitterEEERKNS_8weak_ptrIKNS2_15EventDispatcherEEERKNS2_27ConcreteComponentDescriptorINS2_14TextShadowNodeEEEEPS3_EEPT_SP_DpOT0_, symObjAddr: 0xA1F8, symBinAddr: 0x28818, symSize: 0xDC }
  - { offset: 0x3046C5, size: 0x8, addend: 0x0, symName: __ZN8facebook5react18ConcreteShadowNodeIXadL_ZNS0_22ParagraphComponentNameEEENS0_24YogaLayoutableShadowNodeENS0_14ParagraphPropsENS0_21ParagraphEventEmitterENS0_14ParagraphStateEE18defaultSharedPropsEv, symObjAddr: 0x100, symBinAddr: 0x21AAC, symSize: 0x9C }
  - { offset: 0x3046E5, size: 0x8, addend: 0x0, symName: __ZZN8facebook5react18ConcreteShadowNodeIXadL_ZNS0_22ParagraphComponentNameEEENS0_24YogaLayoutableShadowNodeENS0_14ParagraphPropsENS0_21ParagraphEventEmitterENS0_14ParagraphStateEE18defaultSharedPropsEvE18defaultSharedProps, symObjAddr: 0xCD88, symBinAddr: 0x9F550, symSize: 0x0 }
  - { offset: 0x3047B0, size: 0x8, addend: 0x0, symName: __ZN8facebook5react18ConcreteShadowNodeIXadL_ZNS0_20RawTextComponentNameEEENS0_10ShadowNodeENS0_12RawTextPropsENS0_12EventEmitterENS0_9StateDataEE18defaultSharedPropsEv, symObjAddr: 0x8698, symBinAddr: 0x2702C, symSize: 0xC4 }
  - { offset: 0x3047D0, size: 0x8, addend: 0x0, symName: __ZZN8facebook5react18ConcreteShadowNodeIXadL_ZNS0_20RawTextComponentNameEEENS0_10ShadowNodeENS0_12RawTextPropsENS0_12EventEmitterENS0_9StateDataEE18defaultSharedPropsEvE18defaultSharedProps, symObjAddr: 0xCDA0, symBinAddr: 0x9F568, symSize: 0x0 }
  - { offset: 0x304AE1, size: 0x8, addend: 0x0, symName: __ZN8facebook5react18ConcreteShadowNodeIXadL_ZNS0_17TextComponentNameEEENS0_10ShadowNodeENS0_9TextPropsENS0_17TouchEventEmitterENS0_9StateDataEE18defaultSharedPropsEv, symObjAddr: 0x9B8C, symBinAddr: 0x2825C, symSize: 0x9C }
  - { offset: 0x304B01, size: 0x8, addend: 0x0, symName: __ZZN8facebook5react18ConcreteShadowNodeIXadL_ZNS0_17TextComponentNameEEENS0_10ShadowNodeENS0_9TextPropsENS0_17TouchEventEmitterENS0_9StateDataEE18defaultSharedPropsEvE18defaultSharedProps, symObjAddr: 0xCDB8, symBinAddr: 0x9F580, symSize: 0x0 }
  - { offset: 0x305674, size: 0x8, addend: 0x0, symName: '-[RCTParagraphComponentView initWithFrame:]', symObjAddr: 0x0, symBinAddr: 0x219AC, symSize: 0x100 }
  - { offset: 0x305901, size: 0x8, addend: 0x0, symName: '-[RCTParagraphComponentView description]', symObjAddr: 0x214, symBinAddr: 0x21B48, symSize: 0xF4 }
  - { offset: 0x3059F0, size: 0x8, addend: 0x0, symName: '-[RCTParagraphComponentView attributedText]', symObjAddr: 0x308, symBinAddr: 0x21C3C, symSize: 0xFC }
  - { offset: 0x305CCA, size: 0x8, addend: 0x0, symName: '+[RCTParagraphComponentView componentDescriptorProvider]', symObjAddr: 0x404, symBinAddr: 0x21D38, symSize: 0x20 }
  - { offset: 0x305CFF, size: 0x8, addend: 0x0, symName: '+[RCTParagraphComponentView componentDescriptorProvider]', symObjAddr: 0x404, symBinAddr: 0x21D38, symSize: 0x20 }
  - { offset: 0x305E1B, size: 0x8, addend: 0x0, symName: '+[RCTParagraphComponentView supplementalComponentDescriptorProviders]', symObjAddr: 0x424, symBinAddr: 0x21D58, symSize: 0xE4 }
  - { offset: 0x30609A, size: 0x8, addend: 0x0, symName: __ZNSt3__16vectorIN8facebook5react27ComponentDescriptorProviderENS_9allocatorIS3_EEE16__init_with_sizeB8ne200100IPKS3_S9_EEvT_T0_m, symObjAddr: 0x222C, symBinAddr: 0x23A1C, symSize: 0xA8 }
  - { offset: 0x3064D2, size: 0x8, addend: 0x0, symName: '-[RCTParagraphComponentView updateProps:oldProps:]', symObjAddr: 0x508, symBinAddr: 0x21E3C, symSize: 0xEC }
  - { offset: 0x306614, size: 0x8, addend: 0x0, symName: '-[RCTParagraphComponentView updateState:oldState:]', symObjAddr: 0x5F4, symBinAddr: 0x21F28, symSize: 0xBC }
  - { offset: 0x30682B, size: 0x8, addend: 0x0, symName: '-[RCTParagraphComponentView updateLayoutMetrics:oldLayoutMetrics:]', symObjAddr: 0x6B0, symBinAddr: 0x21FE4, symSize: 0xA8 }
  - { offset: 0x3068BD, size: 0x8, addend: 0x0, symName: '-[RCTParagraphComponentView prepareForRecycle]', symObjAddr: 0x758, symBinAddr: 0x2208C, symSize: 0xB8 }
  - { offset: 0x306A0D, size: 0x8, addend: 0x0, symName: '-[RCTParagraphComponentView layoutSubviews]', symObjAddr: 0x810, symBinAddr: 0x22144, symSize: 0x58 }
  - { offset: 0x306A3F, size: 0x8, addend: 0x0, symName: '-[RCTParagraphComponentView accessibilityLabel]', symObjAddr: 0x868, symBinAddr: 0x2219C, symSize: 0xA8 }
  - { offset: 0x306A86, size: 0x8, addend: 0x0, symName: '-[RCTParagraphComponentView accessibilityLabelForCoopting]', symObjAddr: 0x910, symBinAddr: 0x22244, symSize: 0x4 }
  - { offset: 0x306ABB, size: 0x8, addend: 0x0, symName: '-[RCTParagraphComponentView isAccessibilityElement]', symObjAddr: 0x914, symBinAddr: 0x22248, symSize: 0x8 }
  - { offset: 0x306DF5, size: 0x8, addend: 0x0, symName: '-[RCTParagraphComponentView accessibilityElements]', symObjAddr: 0x91C, symBinAddr: 0x22250, symSize: 0x5B4 }
  - { offset: 0x3089F2, size: 0x8, addend: 0x0, symName: '-[RCTParagraphComponentView isAccessibilityCoopted]', symObjAddr: 0xF34, symBinAddr: 0x22804, symSize: 0x2D0 }
  - { offset: 0x308A76, size: 0x8, addend: 0x0, symName: '-[RCTParagraphComponentView accessibilityTraits]', symObjAddr: 0x1204, symBinAddr: 0x22AD4, symSize: 0x44 }
  - { offset: 0x308C1D, size: 0x8, addend: 0x0, symName: '-[RCTParagraphComponentView touchEventEmitterAtPoint:]', symObjAddr: 0x1248, symBinAddr: 0x22B18, symSize: 0x41C }
  - { offset: 0x309A74, size: 0x8, addend: 0x0, symName: '-[RCTParagraphComponentView enableContextMenu]', symObjAddr: 0x1664, symBinAddr: 0x22F34, symSize: 0x90 }
  - { offset: 0x309AA7, size: 0x8, addend: 0x0, symName: '-[RCTParagraphComponentView disableContextMenu]', symObjAddr: 0x16F4, symBinAddr: 0x22FC4, symSize: 0x5C }
  - { offset: 0x309ADA, size: 0x8, addend: 0x0, symName: '-[RCTParagraphComponentView handleLongPress:]', symObjAddr: 0x1750, symBinAddr: 0x23020, symSize: 0x78 }
  - { offset: 0x309B52, size: 0x8, addend: 0x0, symName: '-[RCTParagraphComponentView canBecomeFirstResponder]', symObjAddr: 0x17C8, symBinAddr: 0x23098, symSize: 0x18 }
  - { offset: 0x309BBF, size: 0x8, addend: 0x0, symName: '-[RCTParagraphComponentView canPerformAction:withSender:]', symObjAddr: 0x17E0, symBinAddr: 0x230B0, symSize: 0xA8 }
  - { offset: 0x309C50, size: 0x8, addend: 0x0, symName: '-[RCTParagraphComponentView copy:]', symObjAddr: 0x1888, symBinAddr: 0x23158, symSize: 0x1EC }
  - { offset: 0x309CD9, size: 0x8, addend: 0x0, symName: '-[RCTParagraphComponentView editMenuInteraction]', symObjAddr: 0x1A74, symBinAddr: 0x23344, symSize: 0x10 }
  - { offset: 0x309D0F, size: 0x8, addend: 0x0, symName: '-[RCTParagraphComponentView setEditMenuInteraction:]', symObjAddr: 0x1A84, symBinAddr: 0x23354, symSize: 0x14 }
  - { offset: 0x309D4F, size: 0x8, addend: 0x0, symName: '-[RCTParagraphComponentView .cxx_destruct]', symObjAddr: 0x1A98, symBinAddr: 0x23368, symSize: 0x68 }
  - { offset: 0x309ECC, size: 0x8, addend: 0x0, symName: '-[RCTParagraphComponentView .cxx_construct]', symObjAddr: 0x1B00, symBinAddr: 0x233D0, symSize: 0x40 }
  - { offset: 0x30A032, size: 0x8, addend: 0x0, symName: _RCTParagraphCls, symObjAddr: 0x1B40, symBinAddr: 0x23410, symSize: 0xC }
  - { offset: 0x30A04E, size: 0x8, addend: 0x0, symName: '-[RCTParagraphTextView hitTest:withEvent:]', symObjAddr: 0x1B4C, symBinAddr: 0x2341C, symSize: 0x8 }
  - { offset: 0x30A09D, size: 0x8, addend: 0x0, symName: '-[RCTParagraphTextView drawRect:]', symObjAddr: 0x1B54, symBinAddr: 0x23424, symSize: 0x2E8 }
  - { offset: 0x30AAF6, size: 0x8, addend: 0x0, symName: '___33-[RCTParagraphTextView drawRect:]_block_invoke', symObjAddr: 0x1E3C, symBinAddr: 0x2370C, symSize: 0x134 }
  - { offset: 0x30ABA7, size: 0x8, addend: 0x0, symName: '-[RCTParagraphTextView state]', symObjAddr: 0x1F80, symBinAddr: 0x23840, symSize: 0x30 }
  - { offset: 0x30AC8D, size: 0x8, addend: 0x0, symName: '-[RCTParagraphTextView setState:]', symObjAddr: 0x1FB0, symBinAddr: 0x23870, symSize: 0x14 }
  - { offset: 0x30AE05, size: 0x8, addend: 0x0, symName: '-[RCTParagraphTextView paragraphAttributes]', symObjAddr: 0x203C, symBinAddr: 0x23884, symSize: 0x28 }
  - { offset: 0x30AE3A, size: 0x8, addend: 0x0, symName: '-[RCTParagraphTextView setParagraphAttributes:]', symObjAddr: 0x2064, symBinAddr: 0x238AC, symSize: 0x28 }
  - { offset: 0x30AE78, size: 0x8, addend: 0x0, symName: '-[RCTParagraphTextView layoutMetrics]', symObjAddr: 0x208C, symBinAddr: 0x238D4, symSize: 0x40 }
  - { offset: 0x30AEAD, size: 0x8, addend: 0x0, symName: '-[RCTParagraphTextView setLayoutMetrics:]', symObjAddr: 0x20CC, symBinAddr: 0x23914, symSize: 0x40 }
  - { offset: 0x30AEEB, size: 0x8, addend: 0x0, symName: '-[RCTParagraphTextView .cxx_destruct]', symObjAddr: 0x210C, symBinAddr: 0x23954, symSize: 0x3C }
  - { offset: 0x30AFB3, size: 0x8, addend: 0x0, symName: '-[RCTParagraphTextView .cxx_construct]', symObjAddr: 0x2148, symBinAddr: 0x23990, symSize: 0x8C }
  - { offset: 0x30C92D, size: 0x8, addend: 0x0, symName: __ZNSt3__110shared_ptrIKN8facebook5react14ParagraphPropsEED1B8ne200100Ev, symObjAddr: 0x2DD0, symBinAddr: 0x23AC4, symSize: 0x4 }
  - { offset: 0x30C959, size: 0x8, addend: 0x0, symName: __ZNSt3__110shared_ptrIKN8facebook5react14ParagraphPropsEED1B8ne200100Ev, symObjAddr: 0x2DD0, symBinAddr: 0x23AC4, symSize: 0x4 }
  - { offset: 0x30CBDC, size: 0x8, addend: 0x0, symName: __ZNSt3__120__shared_ptr_emplaceIKN8facebook5react14ParagraphPropsENS_9allocatorIS3_EEEC2B8ne200100IJES6_Li0EEES6_DpOT_, symObjAddr: 0x2E1C, symBinAddr: 0x23B10, symSize: 0x58 }
  - { offset: 0x30CD59, size: 0x8, addend: 0x0, symName: __ZN8facebook5react14ParagraphPropsC1Ev, symObjAddr: 0x2EBC, symBinAddr: 0x23BB0, symSize: 0x9C }
  - { offset: 0x30CEDC, size: 0x8, addend: 0x0, symName: __ZNSt3__120__shared_ptr_emplaceIKN8facebook5react14ParagraphPropsENS_9allocatorIS3_EEED1Ev, symObjAddr: 0x2E74, symBinAddr: 0x23B68, symSize: 0x14 }
  - { offset: 0x30CEFE, size: 0x8, addend: 0x0, symName: __ZNSt3__120__shared_ptr_emplaceIKN8facebook5react14ParagraphPropsENS_9allocatorIS3_EEED1Ev, symObjAddr: 0x2E74, symBinAddr: 0x23B68, symSize: 0x14 }
  - { offset: 0x30CF32, size: 0x8, addend: 0x0, symName: __ZNSt3__120__shared_ptr_emplaceIKN8facebook5react14ParagraphPropsENS_9allocatorIS3_EEED0Ev, symObjAddr: 0x2E88, symBinAddr: 0x23B7C, symSize: 0x24 }
  - { offset: 0x30CFFF, size: 0x8, addend: 0x0, symName: __ZNSt3__120__shared_ptr_emplaceIKN8facebook5react14ParagraphPropsENS_9allocatorIS3_EEE16__on_zero_sharedEv, symObjAddr: 0x2EAC, symBinAddr: 0x23BA0, symSize: 0xC }
  - { offset: 0x30D027, size: 0x8, addend: 0x0, symName: __ZNSt3__120__shared_ptr_emplaceIKN8facebook5react14ParagraphPropsENS_9allocatorIS3_EEE16__on_zero_sharedEv, symObjAddr: 0x2EAC, symBinAddr: 0x23BA0, symSize: 0xC }
  - { offset: 0x30D045, size: 0x8, addend: 0x0, symName: __ZNSt3__120__shared_ptr_emplaceIKN8facebook5react14ParagraphPropsENS_9allocatorIS3_EEE16__on_zero_sharedEv, symObjAddr: 0x2EAC, symBinAddr: 0x23BA0, symSize: 0xC }
  - { offset: 0x30D063, size: 0x8, addend: 0x0, symName: __ZNSt3__120__shared_ptr_emplaceIKN8facebook5react14ParagraphPropsENS_9allocatorIS3_EEE16__on_zero_sharedEv, symObjAddr: 0x2EAC, symBinAddr: 0x23BA0, symSize: 0xC }
  - { offset: 0x30D08F, size: 0x8, addend: 0x0, symName: __ZNSt3__120__shared_ptr_emplaceIKN8facebook5react14ParagraphPropsENS_9allocatorIS3_EEE21__on_zero_shared_weakEv, symObjAddr: 0x2EB8, symBinAddr: 0x23BAC, symSize: 0x4 }
  - { offset: 0x30D0C2, size: 0x8, addend: 0x0, symName: __ZNSt3__120__shared_ptr_emplaceIKN8facebook5react14ParagraphPropsENS_9allocatorIS3_EEE21__on_zero_shared_weakEv, symObjAddr: 0x2EB8, symBinAddr: 0x23BAC, symSize: 0x4 }
  - { offset: 0x30D0E4, size: 0x8, addend: 0x0, symName: __ZNSt3__120__shared_ptr_emplaceIKN8facebook5react14ParagraphPropsENS_9allocatorIS3_EEE21__on_zero_shared_weakEv, symObjAddr: 0x2EB8, symBinAddr: 0x23BAC, symSize: 0x4 }
  - { offset: 0x30D107, size: 0x8, addend: 0x0, symName: __ZNSt3__120__shared_ptr_emplaceIKN8facebook5react14ParagraphPropsENS_9allocatorIS3_EEE21__on_zero_shared_weakEv, symObjAddr: 0x2EB8, symBinAddr: 0x23BAC, symSize: 0x4 }
  - { offset: 0x30D13E, size: 0x8, addend: 0x0, symName: __ZNSt3__120__shared_ptr_emplaceIKN8facebook5react14ParagraphPropsENS_9allocatorIS3_EEE21__on_zero_shared_weakEv, symObjAddr: 0x2EB8, symBinAddr: 0x23BAC, symSize: 0x4 }
  - { offset: 0x30E5CF, size: 0x8, addend: 0x0, symName: __ZN8facebook5react13BaseTextPropsC2Ev, symObjAddr: 0x323C, symBinAddr: 0x23C4C, symSize: 0x1D8 }
  - { offset: 0x313B01, size: 0x8, addend: 0x0, symName: __ZN8facebook5react14ParagraphPropsD1Ev, symObjAddr: 0x364C, symBinAddr: 0x23E24, symSize: 0x5C }
  - { offset: 0x313EB5, size: 0x8, addend: 0x0, symName: __ZN8facebook5react14ParagraphPropsD0Ev, symObjAddr: 0x36A8, symBinAddr: 0x23E80, symSize: 0x60 }
  - { offset: 0x315895, size: 0x8, addend: 0x0, symName: __ZN8facebook5react28ParagraphComponentDescriptorC2ERKNS0_29ComponentDescriptorParametersE, symObjAddr: 0x3FF8, symBinAddr: 0x23F4C, symSize: 0xF4 }
  - { offset: 0x3162D0, size: 0x8, addend: 0x0, symName: __ZN8facebook5react14RawPropsParser7prepareINS0_14ParagraphPropsEEEvv, symObjAddr: 0x4B70, symBinAddr: 0x24A74, symSize: 0x3C0 }
  - { offset: 0x317D26, size: 0x8, addend: 0x0, symName: __ZNK8facebook5react16ContextContainer4findINSt3__110shared_ptrINS0_17TextLayoutManagerEEEEENS3_8optionalIT_EERKNS3_12basic_stringIcNS3_11char_traitsIcEENS3_9allocatorIcEEEE, symObjAddr: 0x50D0, symBinAddr: 0x24E50, symSize: 0xAC }
  - { offset: 0x31819F, size: 0x8, addend: 0x0, symName: __ZN8facebook5react28ParagraphComponentDescriptorD1Ev, symObjAddr: 0x4238, symBinAddr: 0x2413C, symSize: 0x28 }
  - { offset: 0x318252, size: 0x8, addend: 0x0, symName: __ZN8facebook5react28ParagraphComponentDescriptorD0Ev, symObjAddr: 0x4260, symBinAddr: 0x24164, symSize: 0x2C }
  - { offset: 0x318312, size: 0x8, addend: 0x0, symName: __ZNK8facebook5react27ConcreteComponentDescriptorINS0_19ParagraphShadowNodeEE18getComponentHandleEv, symObjAddr: 0x428C, symBinAddr: 0x24190, symSize: 0xC }
  - { offset: 0x318338, size: 0x8, addend: 0x0, symName: __ZNK8facebook5react27ConcreteComponentDescriptorINS0_19ParagraphShadowNodeEE16getComponentNameEv, symObjAddr: 0x4298, symBinAddr: 0x2419C, symSize: 0xC }
  - { offset: 0x31835E, size: 0x8, addend: 0x0, symName: __ZNK8facebook5react27ConcreteComponentDescriptorINS0_19ParagraphShadowNodeEE9getTraitsEv, symObjAddr: 0x42A4, symBinAddr: 0x241A8, symSize: 0x8 }
  - { offset: 0x318454, size: 0x8, addend: 0x0, symName: __ZNK8facebook5react27ConcreteComponentDescriptorINS0_19ParagraphShadowNodeEE16createShadowNodeERKNS0_18ShadowNodeFragmentERKNSt3__110shared_ptrIKNS0_16ShadowNodeFamilyEEE, symObjAddr: 0x42AC, symBinAddr: 0x241B0, symSize: 0x90 }
  - { offset: 0x3186D9, size: 0x8, addend: 0x0, symName: __ZNK8facebook5react27ConcreteComponentDescriptorINS0_19ParagraphShadowNodeEE15cloneShadowNodeERKNS0_10ShadowNodeERKNS0_18ShadowNodeFragmentE, symObjAddr: 0x433C, symBinAddr: 0x24240, symSize: 0xFC }
  - { offset: 0x318A3C, size: 0x8, addend: 0x0, symName: __ZNK8facebook5react27ConcreteComponentDescriptorINS0_19ParagraphShadowNodeEE11appendChildERKNSt3__110shared_ptrIKNS0_10ShadowNodeEEESA_, symObjAddr: 0x4438, symBinAddr: 0x2433C, symSize: 0xC }
  - { offset: 0x318A98, size: 0x8, addend: 0x0, symName: __ZNK8facebook5react27ConcreteComponentDescriptorINS0_19ParagraphShadowNodeEE11appendChildERKNSt3__110shared_ptrIKNS0_10ShadowNodeEEESA_, symObjAddr: 0x4438, symBinAddr: 0x2433C, symSize: 0xC }
  - { offset: 0x31933A, size: 0x8, addend: 0x0, symName: __ZNK8facebook5react27ConcreteComponentDescriptorINS0_19ParagraphShadowNodeEE10clonePropsERKNS0_18PropsParserContextERKNSt3__110shared_ptrIKNS0_5PropsEEENS0_8RawPropsE, symObjAddr: 0x4444, symBinAddr: 0x24348, symSize: 0x21C }
  - { offset: 0x319E85, size: 0x8, addend: 0x0, symName: __ZN8facebook5react18ConcreteShadowNodeIXadL_ZNS0_22ParagraphComponentNameEEENS0_24YogaLayoutableShadowNodeENS0_14ParagraphPropsENS0_21ParagraphEventEmitterENS0_14ParagraphStateEE5PropsERKNS0_18PropsParserContextERKNS0_8RawPropsERKNSt3__110shared_ptrIKNS0_5PropsEEE, symObjAddr: 0x639C, symBinAddr: 0x256A0, symSize: 0x58 }
  - { offset: 0x31A421, size: 0x8, addend: 0x0, symName: __ZNK8facebook5react27ConcreteComponentDescriptorINS0_19ParagraphShadowNodeEE18createInitialStateERKNSt3__110shared_ptrIKNS0_5PropsEEERKNS5_IKNS0_16ShadowNodeFamilyEEE, symObjAddr: 0x4660, symBinAddr: 0x24564, symSize: 0x208 }
  - { offset: 0x31AF89, size: 0x8, addend: 0x0, symName: __ZN8facebook5react18ConcreteShadowNodeIXadL_ZNS0_22ParagraphComponentNameEEENS0_24YogaLayoutableShadowNodeENS0_14ParagraphPropsENS0_21ParagraphEventEmitterENS0_14ParagraphStateEE16initialStateDataERKNSt3__110shared_ptrIKNS0_5PropsEEERKNS8_IKNS0_16ShadowNodeFamilyEEERKNS0_19ComponentDescriptorE, symObjAddr: 0x6628, symBinAddr: 0x257FC, symSize: 0xA8 }
  - { offset: 0x31B277, size: 0x8, addend: 0x0, symName: __ZN8facebook5react14ParagraphStateD1Ev, symObjAddr: 0x66D0, symBinAddr: 0x258A4, symSize: 0x70 }
  - { offset: 0x31B804, size: 0x8, addend: 0x0, symName: __ZNK8facebook5react27ConcreteComponentDescriptorINS0_19ParagraphShadowNodeEE11createStateERKNS0_16ShadowNodeFamilyERKNSt3__110shared_ptrIKvEE, symObjAddr: 0x4868, symBinAddr: 0x2476C, symSize: 0x104 }
  - { offset: 0x31BDB5, size: 0x8, addend: 0x0, symName: __ZNK8facebook5react27ConcreteComponentDescriptorINS0_19ParagraphShadowNodeEE12createFamilyERKNS0_24ShadowNodeFamilyFragmentE, symObjAddr: 0x496C, symBinAddr: 0x24870, symSize: 0x168 }
  - { offset: 0x31C374, size: 0x8, addend: 0x0, symName: __ZNK8facebook5react28ParagraphComponentDescriptor5adoptERNS0_10ShadowNodeE, symObjAddr: 0x4AD4, symBinAddr: 0x249D8, symSize: 0x9C }
  - { offset: 0x31CC42, size: 0x8, addend: 0x0, symName: __ZN8facebook5react27ConcreteComponentDescriptorINS0_19ParagraphShadowNodeEED1Ev, symObjAddr: 0x4F30, symBinAddr: 0x24E34, symSize: 0x4 }
  - { offset: 0x31CC65, size: 0x8, addend: 0x0, symName: __ZN8facebook5react27ConcreteComponentDescriptorINS0_19ParagraphShadowNodeEED1Ev, symObjAddr: 0x4F30, symBinAddr: 0x24E34, symSize: 0x4 }
  - { offset: 0x31CC83, size: 0x8, addend: 0x0, symName: __ZN8facebook5react27ConcreteComponentDescriptorINS0_19ParagraphShadowNodeEED1Ev, symObjAddr: 0x4F30, symBinAddr: 0x24E34, symSize: 0x4 }
  - { offset: 0x31CCB2, size: 0x8, addend: 0x0, symName: __ZN8facebook5react27ConcreteComponentDescriptorINS0_19ParagraphShadowNodeEED0Ev, symObjAddr: 0x4F34, symBinAddr: 0x24E38, symSize: 0x14 }
  - { offset: 0x31CD30, size: 0x8, addend: 0x0, symName: __ZNK8facebook5react27ConcreteComponentDescriptorINS0_19ParagraphShadowNodeEE5adoptERNS0_10ShadowNodeE, symObjAddr: 0x4F48, symBinAddr: 0x24E4C, symSize: 0x4 }
  - { offset: 0x31E406, size: 0x8, addend: 0x0, symName: __ZNSt3__120__shared_ptr_emplaceIN8facebook5react17TextLayoutManagerENS_9allocatorIS3_EEEC2B8ne200100IJRNS_10shared_ptrIKNS2_16ContextContainerEEEES5_Li0EEES5_DpOT_, symObjAddr: 0x581C, symBinAddr: 0x24F54, symSize: 0x4C }
  - { offset: 0x31E57C, size: 0x8, addend: 0x0, symName: __ZNSt3__120__shared_ptr_emplaceIN8facebook5react17TextLayoutManagerENS_9allocatorIS3_EEED1Ev, symObjAddr: 0x5868, symBinAddr: 0x24FA0, symSize: 0x14 }
  - { offset: 0x31E59E, size: 0x8, addend: 0x0, symName: __ZNSt3__120__shared_ptr_emplaceIN8facebook5react17TextLayoutManagerENS_9allocatorIS3_EEED1Ev, symObjAddr: 0x5868, symBinAddr: 0x24FA0, symSize: 0x14 }
  - { offset: 0x31E5D2, size: 0x8, addend: 0x0, symName: __ZNSt3__120__shared_ptr_emplaceIN8facebook5react17TextLayoutManagerENS_9allocatorIS3_EEED0Ev, symObjAddr: 0x587C, symBinAddr: 0x24FB4, symSize: 0x24 }
  - { offset: 0x31E69F, size: 0x8, addend: 0x0, symName: __ZNSt3__120__shared_ptr_emplaceIN8facebook5react17TextLayoutManagerENS_9allocatorIS3_EEE16__on_zero_sharedEv, symObjAddr: 0x58A0, symBinAddr: 0x24FD8, symSize: 0x8 }
  - { offset: 0x31E6C7, size: 0x8, addend: 0x0, symName: __ZNSt3__120__shared_ptr_emplaceIN8facebook5react17TextLayoutManagerENS_9allocatorIS3_EEE16__on_zero_sharedEv, symObjAddr: 0x58A0, symBinAddr: 0x24FD8, symSize: 0x8 }
  - { offset: 0x31E6E5, size: 0x8, addend: 0x0, symName: __ZNSt3__120__shared_ptr_emplaceIN8facebook5react17TextLayoutManagerENS_9allocatorIS3_EEE16__on_zero_sharedEv, symObjAddr: 0x58A0, symBinAddr: 0x24FD8, symSize: 0x8 }
  - { offset: 0x31E723, size: 0x8, addend: 0x0, symName: __ZNSt3__120__shared_ptr_emplaceIN8facebook5react17TextLayoutManagerENS_9allocatorIS3_EEE21__on_zero_shared_weakEv, symObjAddr: 0x58A8, symBinAddr: 0x24FE0, symSize: 0x4 }
  - { offset: 0x31E756, size: 0x8, addend: 0x0, symName: __ZNSt3__120__shared_ptr_emplaceIN8facebook5react17TextLayoutManagerENS_9allocatorIS3_EEE21__on_zero_shared_weakEv, symObjAddr: 0x58A8, symBinAddr: 0x24FE0, symSize: 0x4 }
  - { offset: 0x31E778, size: 0x8, addend: 0x0, symName: __ZNSt3__120__shared_ptr_emplaceIN8facebook5react17TextLayoutManagerENS_9allocatorIS3_EEE21__on_zero_shared_weakEv, symObjAddr: 0x58A8, symBinAddr: 0x24FE0, symSize: 0x4 }
  - { offset: 0x31E79B, size: 0x8, addend: 0x0, symName: __ZNSt3__120__shared_ptr_emplaceIN8facebook5react17TextLayoutManagerENS_9allocatorIS3_EEE21__on_zero_shared_weakEv, symObjAddr: 0x58A8, symBinAddr: 0x24FE0, symSize: 0x4 }
  - { offset: 0x31E7D2, size: 0x8, addend: 0x0, symName: __ZNSt3__120__shared_ptr_emplaceIN8facebook5react17TextLayoutManagerENS_9allocatorIS3_EEE21__on_zero_shared_weakEv, symObjAddr: 0x58A8, symBinAddr: 0x24FE0, symSize: 0x4 }
  - { offset: 0x31EA28, size: 0x8, addend: 0x0, symName: __ZNSt3__112__hash_tableINS_17__hash_value_typeIN8facebook5react19LineMeasureCacheKeyENS_15__list_iteratorINS_4pairIS4_NS_6vectorINS3_15LineMeasurementENS_9allocatorIS8_EEEEEEPvEEEENS_22__unordered_map_hasherIS4_SF_NS_4hashIS4_EENS_8equal_toIS4_EELb1EEENS_21__unordered_map_equalIS4_SF_SK_SI_Lb1EEENS9_ISF_EEED2Ev, symObjAddr: 0x5904, symBinAddr: 0x2503C, symSize: 0x38 }
  - { offset: 0x31EB84, size: 0x8, addend: 0x0, symName: __ZNSt3__110__list_impINS_4pairIN8facebook5react19LineMeasureCacheKeyENS_6vectorINS3_15LineMeasurementENS_9allocatorIS6_EEEEEENS7_ISA_EEE5clearEv, symObjAddr: 0x59D8, symBinAddr: 0x25110, symSize: 0x6C }
  - { offset: 0x31EBAE, size: 0x8, addend: 0x0, symName: __ZNSt3__110__list_impINS_4pairIN8facebook5react19LineMeasureCacheKeyENS_6vectorINS3_15LineMeasurementENS_9allocatorIS6_EEEEEENS7_ISA_EEE5clearEv, symObjAddr: 0x59D8, symBinAddr: 0x25110, symSize: 0x6C }
  - { offset: 0x31EE39, size: 0x8, addend: 0x0, symName: __ZNSt3__110__list_impINS_4pairIN8facebook5react19TextMeasureCacheKeyENS3_15TextMeasurementEEENS_9allocatorIS6_EEE5clearEv, symObjAddr: 0x5C14, symBinAddr: 0x25278, symSize: 0x6C }
  - { offset: 0x31EE63, size: 0x8, addend: 0x0, symName: __ZNSt3__110__list_impINS_4pairIN8facebook5react19TextMeasureCacheKeyENS3_15TextMeasurementEEENS_9allocatorIS6_EEE5clearEv, symObjAddr: 0x5C14, symBinAddr: 0x25278, symSize: 0x6C }
  - { offset: 0x31F14F, size: 0x8, addend: 0x0, symName: __ZNSt3__112__hash_tableINS_17__hash_value_typeIN8facebook5react19LineMeasureCacheKeyENS_15__list_iteratorINS_4pairIS4_NS_6vectorINS3_15LineMeasurementENS_9allocatorIS8_EEEEEEPvEEEENS_22__unordered_map_hasherIS4_SF_NS_4hashIS4_EENS_8equal_toIS4_EELb1EEENS_21__unordered_map_equalIS4_SF_SK_SI_Lb1EEENS9_ISF_EEE17__deallocate_nodeEPNS_16__hash_node_baseIPNS_11__hash_nodeISF_SD_EEEE, symObjAddr: 0x593C, symBinAddr: 0x25074, symSize: 0x3C }
  - { offset: 0x31F550, size: 0x8, addend: 0x0, symName: __ZNSt3__16vectorIN8facebook5react15LineMeasurementENS_9allocatorIS3_EEE16__destroy_vectorclB8ne200100Ev, symObjAddr: 0x5AB4, symBinAddr: 0x251EC, symSize: 0x40 }
  - { offset: 0x31F65E, size: 0x8, addend: 0x0, symName: __ZNSt3__16vectorIN8facebook5react15LineMeasurementENS_9allocatorIS3_EEE5clearB8ne200100Ev, symObjAddr: 0x5AF4, symBinAddr: 0x2522C, symSize: 0x4C }
  - { offset: 0x320096, size: 0x8, addend: 0x0, symName: __ZNSt3__120__shared_ptr_emplaceIN8facebook5react19ParagraphShadowNodeENS_9allocatorIS3_EEEC2B8ne200100IJRKNS2_18ShadowNodeFragmentERKNS_10shared_ptrIKNS2_16ShadowNodeFamilyEEENS2_16ShadowNodeTraitsEES5_Li0EEES5_DpOT_, symObjAddr: 0x5E3C, symBinAddr: 0x253C4, symSize: 0x50 }
  - { offset: 0x32028D, size: 0x8, addend: 0x0, symName: __ZNSt3__120__shared_ptr_emplaceIN8facebook5react19ParagraphShadowNodeENS_9allocatorIS3_EEED1Ev, symObjAddr: 0x5E8C, symBinAddr: 0x25414, symSize: 0x14 }
  - { offset: 0x3202AF, size: 0x8, addend: 0x0, symName: __ZNSt3__120__shared_ptr_emplaceIN8facebook5react19ParagraphShadowNodeENS_9allocatorIS3_EEED1Ev, symObjAddr: 0x5E8C, symBinAddr: 0x25414, symSize: 0x14 }
  - { offset: 0x3202E3, size: 0x8, addend: 0x0, symName: __ZNSt3__120__shared_ptr_emplaceIN8facebook5react19ParagraphShadowNodeENS_9allocatorIS3_EEED0Ev, symObjAddr: 0x5EA0, symBinAddr: 0x25428, symSize: 0x24 }
  - { offset: 0x3203B0, size: 0x8, addend: 0x0, symName: __ZNSt3__120__shared_ptr_emplaceIN8facebook5react19ParagraphShadowNodeENS_9allocatorIS3_EEE16__on_zero_sharedEv, symObjAddr: 0x5EC4, symBinAddr: 0x2544C, symSize: 0x8 }
  - { offset: 0x3203D8, size: 0x8, addend: 0x0, symName: __ZNSt3__120__shared_ptr_emplaceIN8facebook5react19ParagraphShadowNodeENS_9allocatorIS3_EEE16__on_zero_sharedEv, symObjAddr: 0x5EC4, symBinAddr: 0x2544C, symSize: 0x8 }
  - { offset: 0x3203F6, size: 0x8, addend: 0x0, symName: __ZNSt3__120__shared_ptr_emplaceIN8facebook5react19ParagraphShadowNodeENS_9allocatorIS3_EEE16__on_zero_sharedEv, symObjAddr: 0x5EC4, symBinAddr: 0x2544C, symSize: 0x8 }
  - { offset: 0x320434, size: 0x8, addend: 0x0, symName: __ZNSt3__120__shared_ptr_emplaceIN8facebook5react19ParagraphShadowNodeENS_9allocatorIS3_EEE21__on_zero_shared_weakEv, symObjAddr: 0x5ECC, symBinAddr: 0x25454, symSize: 0x4 }
  - { offset: 0x320467, size: 0x8, addend: 0x0, symName: __ZNSt3__120__shared_ptr_emplaceIN8facebook5react19ParagraphShadowNodeENS_9allocatorIS3_EEE21__on_zero_shared_weakEv, symObjAddr: 0x5ECC, symBinAddr: 0x25454, symSize: 0x4 }
  - { offset: 0x320489, size: 0x8, addend: 0x0, symName: __ZNSt3__120__shared_ptr_emplaceIN8facebook5react19ParagraphShadowNodeENS_9allocatorIS3_EEE21__on_zero_shared_weakEv, symObjAddr: 0x5ECC, symBinAddr: 0x25454, symSize: 0x4 }
  - { offset: 0x3204AC, size: 0x8, addend: 0x0, symName: __ZNSt3__120__shared_ptr_emplaceIN8facebook5react19ParagraphShadowNodeENS_9allocatorIS3_EEE21__on_zero_shared_weakEv, symObjAddr: 0x5ECC, symBinAddr: 0x25454, symSize: 0x4 }
  - { offset: 0x3204E3, size: 0x8, addend: 0x0, symName: __ZNSt3__120__shared_ptr_emplaceIN8facebook5react19ParagraphShadowNodeENS_9allocatorIS3_EEE21__on_zero_shared_weakEv, symObjAddr: 0x5ECC, symBinAddr: 0x25454, symSize: 0x4 }
  - { offset: 0x3208D7, size: 0x8, addend: 0x0, symName: __ZNSt3__16vectorIN8facebook5react22MeasuredPreparedLayoutENS_9allocatorIS3_EEE16__destroy_vectorclB8ne200100Ev, symObjAddr: 0x5F60, symBinAddr: 0x254E8, symSize: 0x40 }
  - { offset: 0x320985, size: 0x8, addend: 0x0, symName: __ZNSt3__124__optional_destruct_baseIN8facebook5react19ParagraphShadowNode7ContentELb0EED2B8ne200100Ev, symObjAddr: 0x5FEC, symBinAddr: 0x25574, symSize: 0x80 }
  - { offset: 0x321116, size: 0x8, addend: 0x0, symName: __ZNSt3__16vectorIN8facebook5react22MeasuredPreparedLayoutENS_9allocatorIS3_EEE5clearB8ne200100Ev, symObjAddr: 0x5FA0, symBinAddr: 0x25528, symSize: 0x4C }
  - { offset: 0x32181D, size: 0x8, addend: 0x0, symName: __ZNSt3__120__shared_ptr_emplaceIN8facebook5react19ParagraphShadowNodeENS_9allocatorIS3_EEEC2B8ne200100IJRKNS2_10ShadowNodeERKNS2_18ShadowNodeFragmentEES5_Li0EEES5_DpOT_, symObjAddr: 0x62F8, symBinAddr: 0x25654, symSize: 0x4C }
  - { offset: 0x321C12, size: 0x8, addend: 0x0, symName: __ZNSt3__120__shared_ptr_emplaceIN8facebook5react14ParagraphPropsENS_9allocatorIS3_EEEC2B8ne200100IJRKNS2_18PropsParserContextERKS3_RKNS2_8RawPropsEES5_Li0EEES5_DpOT_, symObjAddr: 0x6464, symBinAddr: 0x25768, symSize: 0x4C }
  - { offset: 0x321DFB, size: 0x8, addend: 0x0, symName: __ZNSt3__120__shared_ptr_emplaceIN8facebook5react14ParagraphPropsENS_9allocatorIS3_EEED1Ev, symObjAddr: 0x64B0, symBinAddr: 0x257B4, symSize: 0x14 }
  - { offset: 0x321E1D, size: 0x8, addend: 0x0, symName: __ZNSt3__120__shared_ptr_emplaceIN8facebook5react14ParagraphPropsENS_9allocatorIS3_EEED1Ev, symObjAddr: 0x64B0, symBinAddr: 0x257B4, symSize: 0x14 }
  - { offset: 0x321E51, size: 0x8, addend: 0x0, symName: __ZNSt3__120__shared_ptr_emplaceIN8facebook5react14ParagraphPropsENS_9allocatorIS3_EEED0Ev, symObjAddr: 0x64C4, symBinAddr: 0x257C8, symSize: 0x24 }
  - { offset: 0x321EEF, size: 0x8, addend: 0x0, symName: __ZNSt3__120__shared_ptr_emplaceIN8facebook5react14ParagraphPropsENS_9allocatorIS3_EEE16__on_zero_sharedEv, symObjAddr: 0x64E8, symBinAddr: 0x257EC, symSize: 0xC }
  - { offset: 0x321F17, size: 0x8, addend: 0x0, symName: __ZNSt3__120__shared_ptr_emplaceIN8facebook5react14ParagraphPropsENS_9allocatorIS3_EEE16__on_zero_sharedEv, symObjAddr: 0x64E8, symBinAddr: 0x257EC, symSize: 0xC }
  - { offset: 0x321F35, size: 0x8, addend: 0x0, symName: __ZNSt3__120__shared_ptr_emplaceIN8facebook5react14ParagraphPropsENS_9allocatorIS3_EEE16__on_zero_sharedEv, symObjAddr: 0x64E8, symBinAddr: 0x257EC, symSize: 0xC }
  - { offset: 0x321F53, size: 0x8, addend: 0x0, symName: __ZNSt3__120__shared_ptr_emplaceIN8facebook5react14ParagraphPropsENS_9allocatorIS3_EEE16__on_zero_sharedEv, symObjAddr: 0x64E8, symBinAddr: 0x257EC, symSize: 0xC }
  - { offset: 0x321F7F, size: 0x8, addend: 0x0, symName: __ZNSt3__120__shared_ptr_emplaceIN8facebook5react14ParagraphPropsENS_9allocatorIS3_EEE21__on_zero_shared_weakEv, symObjAddr: 0x64F4, symBinAddr: 0x257F8, symSize: 0x4 }
  - { offset: 0x321FB2, size: 0x8, addend: 0x0, symName: __ZNSt3__120__shared_ptr_emplaceIN8facebook5react14ParagraphPropsENS_9allocatorIS3_EEE21__on_zero_shared_weakEv, symObjAddr: 0x64F4, symBinAddr: 0x257F8, symSize: 0x4 }
  - { offset: 0x321FD4, size: 0x8, addend: 0x0, symName: __ZNSt3__120__shared_ptr_emplaceIN8facebook5react14ParagraphPropsENS_9allocatorIS3_EEE21__on_zero_shared_weakEv, symObjAddr: 0x64F4, symBinAddr: 0x257F8, symSize: 0x4 }
  - { offset: 0x321FF7, size: 0x8, addend: 0x0, symName: __ZNSt3__120__shared_ptr_emplaceIN8facebook5react14ParagraphPropsENS_9allocatorIS3_EEE21__on_zero_shared_weakEv, symObjAddr: 0x64F4, symBinAddr: 0x257F8, symSize: 0x4 }
  - { offset: 0x32202E, size: 0x8, addend: 0x0, symName: __ZNSt3__120__shared_ptr_emplaceIN8facebook5react14ParagraphPropsENS_9allocatorIS3_EEE21__on_zero_shared_weakEv, symObjAddr: 0x64F4, symBinAddr: 0x257F8, symSize: 0x4 }
  - { offset: 0x323051, size: 0x8, addend: 0x0, symName: __ZNSt3__120__shared_ptr_emplaceIN8facebook5react13ConcreteStateINS2_14ParagraphStateEEENS_9allocatorIS5_EEEC2B8ne200100IJNS_10shared_ptrIKS4_EERKNSA_IKNS2_16ShadowNodeFamilyEEEES7_Li0EEES7_DpOT_, symObjAddr: 0x67A0, symBinAddr: 0x25974, symSize: 0x4C }
  - { offset: 0x3231FB, size: 0x8, addend: 0x0, symName: __ZNSt3__120__shared_ptr_emplaceIN8facebook5react13ConcreteStateINS2_14ParagraphStateEEENS_9allocatorIS5_EEED1Ev, symObjAddr: 0x67EC, symBinAddr: 0x259C0, symSize: 0x14 }
  - { offset: 0x32321D, size: 0x8, addend: 0x0, symName: __ZNSt3__120__shared_ptr_emplaceIN8facebook5react13ConcreteStateINS2_14ParagraphStateEEENS_9allocatorIS5_EEED1Ev, symObjAddr: 0x67EC, symBinAddr: 0x259C0, symSize: 0x14 }
  - { offset: 0x323251, size: 0x8, addend: 0x0, symName: __ZNSt3__120__shared_ptr_emplaceIN8facebook5react13ConcreteStateINS2_14ParagraphStateEEENS_9allocatorIS5_EEED0Ev, symObjAddr: 0x6800, symBinAddr: 0x259D4, symSize: 0x24 }
  - { offset: 0x32331E, size: 0x8, addend: 0x0, symName: __ZNSt3__120__shared_ptr_emplaceIN8facebook5react13ConcreteStateINS2_14ParagraphStateEEENS_9allocatorIS5_EEE16__on_zero_sharedEv, symObjAddr: 0x6824, symBinAddr: 0x259F8, symSize: 0xC }
  - { offset: 0x323346, size: 0x8, addend: 0x0, symName: __ZNSt3__120__shared_ptr_emplaceIN8facebook5react13ConcreteStateINS2_14ParagraphStateEEENS_9allocatorIS5_EEE16__on_zero_sharedEv, symObjAddr: 0x6824, symBinAddr: 0x259F8, symSize: 0xC }
  - { offset: 0x323364, size: 0x8, addend: 0x0, symName: __ZNSt3__120__shared_ptr_emplaceIN8facebook5react13ConcreteStateINS2_14ParagraphStateEEENS_9allocatorIS5_EEE16__on_zero_sharedEv, symObjAddr: 0x6824, symBinAddr: 0x259F8, symSize: 0xC }
  - { offset: 0x323382, size: 0x8, addend: 0x0, symName: __ZNSt3__120__shared_ptr_emplaceIN8facebook5react13ConcreteStateINS2_14ParagraphStateEEENS_9allocatorIS5_EEE16__on_zero_sharedEv, symObjAddr: 0x6824, symBinAddr: 0x259F8, symSize: 0xC }
  - { offset: 0x3233AE, size: 0x8, addend: 0x0, symName: __ZNSt3__120__shared_ptr_emplaceIN8facebook5react13ConcreteStateINS2_14ParagraphStateEEENS_9allocatorIS5_EEE21__on_zero_shared_weakEv, symObjAddr: 0x6830, symBinAddr: 0x25A04, symSize: 0x4 }
  - { offset: 0x3233E1, size: 0x8, addend: 0x0, symName: __ZNSt3__120__shared_ptr_emplaceIN8facebook5react13ConcreteStateINS2_14ParagraphStateEEENS_9allocatorIS5_EEE21__on_zero_shared_weakEv, symObjAddr: 0x6830, symBinAddr: 0x25A04, symSize: 0x4 }
  - { offset: 0x323403, size: 0x8, addend: 0x0, symName: __ZNSt3__120__shared_ptr_emplaceIN8facebook5react13ConcreteStateINS2_14ParagraphStateEEENS_9allocatorIS5_EEE21__on_zero_shared_weakEv, symObjAddr: 0x6830, symBinAddr: 0x25A04, symSize: 0x4 }
  - { offset: 0x323426, size: 0x8, addend: 0x0, symName: __ZNSt3__120__shared_ptr_emplaceIN8facebook5react13ConcreteStateINS2_14ParagraphStateEEENS_9allocatorIS5_EEE21__on_zero_shared_weakEv, symObjAddr: 0x6830, symBinAddr: 0x25A04, symSize: 0x4 }
  - { offset: 0x32345C, size: 0x8, addend: 0x0, symName: __ZNSt3__120__shared_ptr_emplaceIN8facebook5react13ConcreteStateINS2_14ParagraphStateEEENS_9allocatorIS5_EEE21__on_zero_shared_weakEv, symObjAddr: 0x6830, symBinAddr: 0x25A04, symSize: 0x4 }
  - { offset: 0x323567, size: 0x8, addend: 0x0, symName: __ZN8facebook5react13ConcreteStateINS0_14ParagraphStateEEC2ENSt3__110shared_ptrIKS2_EENS4_8weak_ptrIKNS0_16ShadowNodeFamilyEEE, symObjAddr: 0x68FC, symBinAddr: 0x25AD0, symSize: 0xBC }
  - { offset: 0x323862, size: 0x8, addend: 0x0, symName: __ZN8facebook5react13ConcreteStateINS0_14ParagraphStateEED1Ev, symObjAddr: 0x69B8, symBinAddr: 0x25B8C, symSize: 0x4 }
  - { offset: 0x323885, size: 0x8, addend: 0x0, symName: __ZN8facebook5react13ConcreteStateINS0_14ParagraphStateEED1Ev, symObjAddr: 0x69B8, symBinAddr: 0x25B8C, symSize: 0x4 }
  - { offset: 0x3238A3, size: 0x8, addend: 0x0, symName: __ZN8facebook5react13ConcreteStateINS0_14ParagraphStateEED1Ev, symObjAddr: 0x69B8, symBinAddr: 0x25B8C, symSize: 0x4 }
  - { offset: 0x32391E, size: 0x8, addend: 0x0, symName: __ZN8facebook5react13ConcreteStateINS0_14ParagraphStateEED0Ev, symObjAddr: 0x69BC, symBinAddr: 0x25B90, symSize: 0x14 }
  - { offset: 0x3239B9, size: 0x8, addend: 0x0, symName: __ZNSt3__120__shared_ptr_emplaceIKN8facebook5react14ParagraphStateENS_9allocatorIS3_EEED1Ev, symObjAddr: 0x6A28, symBinAddr: 0x25BA4, symSize: 0x14 }
  - { offset: 0x3239DB, size: 0x8, addend: 0x0, symName: __ZNSt3__120__shared_ptr_emplaceIKN8facebook5react14ParagraphStateENS_9allocatorIS3_EEED1Ev, symObjAddr: 0x6A28, symBinAddr: 0x25BA4, symSize: 0x14 }
  - { offset: 0x323A0F, size: 0x8, addend: 0x0, symName: __ZNSt3__120__shared_ptr_emplaceIKN8facebook5react14ParagraphStateENS_9allocatorIS3_EEED0Ev, symObjAddr: 0x6A3C, symBinAddr: 0x25BB8, symSize: 0x24 }
  - { offset: 0x323ADC, size: 0x8, addend: 0x0, symName: __ZNSt3__120__shared_ptr_emplaceIKN8facebook5react14ParagraphStateENS_9allocatorIS3_EEE16__on_zero_sharedEv, symObjAddr: 0x6A60, symBinAddr: 0x25BDC, symSize: 0x8 }
  - { offset: 0x323B04, size: 0x8, addend: 0x0, symName: __ZNSt3__120__shared_ptr_emplaceIKN8facebook5react14ParagraphStateENS_9allocatorIS3_EEE16__on_zero_sharedEv, symObjAddr: 0x6A60, symBinAddr: 0x25BDC, symSize: 0x8 }
  - { offset: 0x323B22, size: 0x8, addend: 0x0, symName: __ZNSt3__120__shared_ptr_emplaceIKN8facebook5react14ParagraphStateENS_9allocatorIS3_EEE16__on_zero_sharedEv, symObjAddr: 0x6A60, symBinAddr: 0x25BDC, symSize: 0x8 }
  - { offset: 0x323BBB, size: 0x8, addend: 0x0, symName: __ZNSt3__120__shared_ptr_emplaceIKN8facebook5react14ParagraphStateENS_9allocatorIS3_EEE21__on_zero_shared_weakEv, symObjAddr: 0x6A68, symBinAddr: 0x25BE4, symSize: 0x4 }
  - { offset: 0x323BEE, size: 0x8, addend: 0x0, symName: __ZNSt3__120__shared_ptr_emplaceIKN8facebook5react14ParagraphStateENS_9allocatorIS3_EEE21__on_zero_shared_weakEv, symObjAddr: 0x6A68, symBinAddr: 0x25BE4, symSize: 0x4 }
  - { offset: 0x323C10, size: 0x8, addend: 0x0, symName: __ZNSt3__120__shared_ptr_emplaceIKN8facebook5react14ParagraphStateENS_9allocatorIS3_EEE21__on_zero_shared_weakEv, symObjAddr: 0x6A68, symBinAddr: 0x25BE4, symSize: 0x4 }
  - { offset: 0x323C33, size: 0x8, addend: 0x0, symName: __ZNSt3__120__shared_ptr_emplaceIKN8facebook5react14ParagraphStateENS_9allocatorIS3_EEE21__on_zero_shared_weakEv, symObjAddr: 0x6A68, symBinAddr: 0x25BE4, symSize: 0x4 }
  - { offset: 0x323C6A, size: 0x8, addend: 0x0, symName: __ZNSt3__120__shared_ptr_emplaceIKN8facebook5react14ParagraphStateENS_9allocatorIS3_EEE21__on_zero_shared_weakEv, symObjAddr: 0x6A68, symBinAddr: 0x25BE4, symSize: 0x4 }
  - { offset: 0x32414C, size: 0x8, addend: 0x0, symName: __ZNSt3__120__shared_ptr_emplaceIKN8facebook5react13ConcreteStateINS2_14ParagraphStateEEENS_9allocatorIS5_EEEC2B8ne200100IJNS_10shared_ptrIKS4_EERKNS2_5StateEES8_Li0EEES8_DpOT_, symObjAddr: 0x6E90, symBinAddr: 0x25DDC, symSize: 0x4C }
  - { offset: 0x3242F1, size: 0x8, addend: 0x0, symName: __ZNSt3__120__shared_ptr_emplaceIKN8facebook5react13ConcreteStateINS2_14ParagraphStateEEENS_9allocatorIS5_EEED1Ev, symObjAddr: 0x6EDC, symBinAddr: 0x25E28, symSize: 0x14 }
  - { offset: 0x324313, size: 0x8, addend: 0x0, symName: __ZNSt3__120__shared_ptr_emplaceIKN8facebook5react13ConcreteStateINS2_14ParagraphStateEEENS_9allocatorIS5_EEED1Ev, symObjAddr: 0x6EDC, symBinAddr: 0x25E28, symSize: 0x14 }
  - { offset: 0x324347, size: 0x8, addend: 0x0, symName: __ZNSt3__120__shared_ptr_emplaceIKN8facebook5react13ConcreteStateINS2_14ParagraphStateEEENS_9allocatorIS5_EEED0Ev, symObjAddr: 0x6EF0, symBinAddr: 0x25E3C, symSize: 0x24 }
  - { offset: 0x3243E5, size: 0x8, addend: 0x0, symName: __ZNSt3__120__shared_ptr_emplaceIKN8facebook5react13ConcreteStateINS2_14ParagraphStateEEENS_9allocatorIS5_EEE16__on_zero_sharedEv, symObjAddr: 0x6F14, symBinAddr: 0x25E60, symSize: 0xC }
  - { offset: 0x32440D, size: 0x8, addend: 0x0, symName: __ZNSt3__120__shared_ptr_emplaceIKN8facebook5react13ConcreteStateINS2_14ParagraphStateEEENS_9allocatorIS5_EEE16__on_zero_sharedEv, symObjAddr: 0x6F14, symBinAddr: 0x25E60, symSize: 0xC }
  - { offset: 0x32442B, size: 0x8, addend: 0x0, symName: __ZNSt3__120__shared_ptr_emplaceIKN8facebook5react13ConcreteStateINS2_14ParagraphStateEEENS_9allocatorIS5_EEE16__on_zero_sharedEv, symObjAddr: 0x6F14, symBinAddr: 0x25E60, symSize: 0xC }
  - { offset: 0x324449, size: 0x8, addend: 0x0, symName: __ZNSt3__120__shared_ptr_emplaceIKN8facebook5react13ConcreteStateINS2_14ParagraphStateEEENS_9allocatorIS5_EEE16__on_zero_sharedEv, symObjAddr: 0x6F14, symBinAddr: 0x25E60, symSize: 0xC }
  - { offset: 0x324475, size: 0x8, addend: 0x0, symName: __ZNSt3__120__shared_ptr_emplaceIKN8facebook5react13ConcreteStateINS2_14ParagraphStateEEENS_9allocatorIS5_EEE21__on_zero_shared_weakEv, symObjAddr: 0x6F20, symBinAddr: 0x25E6C, symSize: 0x4 }
  - { offset: 0x3244A8, size: 0x8, addend: 0x0, symName: __ZNSt3__120__shared_ptr_emplaceIKN8facebook5react13ConcreteStateINS2_14ParagraphStateEEENS_9allocatorIS5_EEE21__on_zero_shared_weakEv, symObjAddr: 0x6F20, symBinAddr: 0x25E6C, symSize: 0x4 }
  - { offset: 0x3244CA, size: 0x8, addend: 0x0, symName: __ZNSt3__120__shared_ptr_emplaceIKN8facebook5react13ConcreteStateINS2_14ParagraphStateEEENS_9allocatorIS5_EEE21__on_zero_shared_weakEv, symObjAddr: 0x6F20, symBinAddr: 0x25E6C, symSize: 0x4 }
  - { offset: 0x3244ED, size: 0x8, addend: 0x0, symName: __ZNSt3__120__shared_ptr_emplaceIKN8facebook5react13ConcreteStateINS2_14ParagraphStateEEENS_9allocatorIS5_EEE21__on_zero_shared_weakEv, symObjAddr: 0x6F20, symBinAddr: 0x25E6C, symSize: 0x4 }
  - { offset: 0x324523, size: 0x8, addend: 0x0, symName: __ZNSt3__120__shared_ptr_emplaceIKN8facebook5react13ConcreteStateINS2_14ParagraphStateEEENS_9allocatorIS5_EEE21__on_zero_shared_weakEv, symObjAddr: 0x6F20, symBinAddr: 0x25E6C, symSize: 0x4 }
  - { offset: 0x32457E, size: 0x8, addend: 0x0, symName: __ZN8facebook5react13ConcreteStateINS0_14ParagraphStateEEC2ENSt3__110shared_ptrIKS2_EERKNS0_5StateE, symObjAddr: 0x6FAC, symBinAddr: 0x25EF8, symSize: 0x98 }
  - { offset: 0x324921, size: 0x8, addend: 0x0, symName: __ZNSt3__120__shared_ptr_emplaceIKN8facebook5react21ParagraphEventEmitterENS_9allocatorIS3_EEEC2B8ne200100IJNS_10shared_ptrINS2_11EventTargetEEERKNS_8weak_ptrIKNS2_15EventDispatcherEEEES6_Li0EEES6_DpOT_, symObjAddr: 0x70A4, symBinAddr: 0x25FF0, symSize: 0x4C }
  - { offset: 0x324ACB, size: 0x8, addend: 0x0, symName: __ZNSt3__120__shared_ptr_emplaceIKN8facebook5react21ParagraphEventEmitterENS_9allocatorIS3_EEED1Ev, symObjAddr: 0x70F0, symBinAddr: 0x2603C, symSize: 0x14 }
  - { offset: 0x324AED, size: 0x8, addend: 0x0, symName: __ZNSt3__120__shared_ptr_emplaceIKN8facebook5react21ParagraphEventEmitterENS_9allocatorIS3_EEED1Ev, symObjAddr: 0x70F0, symBinAddr: 0x2603C, symSize: 0x14 }
  - { offset: 0x324B21, size: 0x8, addend: 0x0, symName: __ZNSt3__120__shared_ptr_emplaceIKN8facebook5react21ParagraphEventEmitterENS_9allocatorIS3_EEED0Ev, symObjAddr: 0x7104, symBinAddr: 0x26050, symSize: 0x24 }
  - { offset: 0x324BEE, size: 0x8, addend: 0x0, symName: __ZNSt3__120__shared_ptr_emplaceIKN8facebook5react21ParagraphEventEmitterENS_9allocatorIS3_EEE16__on_zero_sharedEv, symObjAddr: 0x7128, symBinAddr: 0x26074, symSize: 0xC }
  - { offset: 0x324C16, size: 0x8, addend: 0x0, symName: __ZNSt3__120__shared_ptr_emplaceIKN8facebook5react21ParagraphEventEmitterENS_9allocatorIS3_EEE16__on_zero_sharedEv, symObjAddr: 0x7128, symBinAddr: 0x26074, symSize: 0xC }
  - { offset: 0x324C34, size: 0x8, addend: 0x0, symName: __ZNSt3__120__shared_ptr_emplaceIKN8facebook5react21ParagraphEventEmitterENS_9allocatorIS3_EEE16__on_zero_sharedEv, symObjAddr: 0x7128, symBinAddr: 0x26074, symSize: 0xC }
  - { offset: 0x324C52, size: 0x8, addend: 0x0, symName: __ZNSt3__120__shared_ptr_emplaceIKN8facebook5react21ParagraphEventEmitterENS_9allocatorIS3_EEE16__on_zero_sharedEv, symObjAddr: 0x7128, symBinAddr: 0x26074, symSize: 0xC }
  - { offset: 0x324C7E, size: 0x8, addend: 0x0, symName: __ZNSt3__120__shared_ptr_emplaceIKN8facebook5react21ParagraphEventEmitterENS_9allocatorIS3_EEE21__on_zero_shared_weakEv, symObjAddr: 0x7134, symBinAddr: 0x26080, symSize: 0x4 }
  - { offset: 0x324CB1, size: 0x8, addend: 0x0, symName: __ZNSt3__120__shared_ptr_emplaceIKN8facebook5react21ParagraphEventEmitterENS_9allocatorIS3_EEE21__on_zero_shared_weakEv, symObjAddr: 0x7134, symBinAddr: 0x26080, symSize: 0x4 }
  - { offset: 0x324CD3, size: 0x8, addend: 0x0, symName: __ZNSt3__120__shared_ptr_emplaceIKN8facebook5react21ParagraphEventEmitterENS_9allocatorIS3_EEE21__on_zero_shared_weakEv, symObjAddr: 0x7134, symBinAddr: 0x26080, symSize: 0x4 }
  - { offset: 0x324CF6, size: 0x8, addend: 0x0, symName: __ZNSt3__120__shared_ptr_emplaceIKN8facebook5react21ParagraphEventEmitterENS_9allocatorIS3_EEE21__on_zero_shared_weakEv, symObjAddr: 0x7134, symBinAddr: 0x26080, symSize: 0x4 }
  - { offset: 0x324D2D, size: 0x8, addend: 0x0, symName: __ZNSt3__120__shared_ptr_emplaceIKN8facebook5react21ParagraphEventEmitterENS_9allocatorIS3_EEE21__on_zero_shared_weakEv, symObjAddr: 0x7134, symBinAddr: 0x26080, symSize: 0x4 }
  - { offset: 0x325293, size: 0x8, addend: 0x0, symName: __ZN8facebook5react21ParagraphEventEmitterD1Ev, symObjAddr: 0x7290, symBinAddr: 0x261DC, symSize: 0x70 }
  - { offset: 0x325456, size: 0x8, addend: 0x0, symName: __ZN8facebook5react21ParagraphEventEmitterD0Ev, symObjAddr: 0x7300, symBinAddr: 0x2624C, symSize: 0x74 }
  - { offset: 0x3255CA, size: 0x8, addend: 0x0, symName: __ZN8facebook5react17TouchEventEmitterD1Ev, symObjAddr: 0x73E0, symBinAddr: 0x262C0, symSize: 0x4 }
  - { offset: 0x3255EC, size: 0x8, addend: 0x0, symName: __ZN8facebook5react17TouchEventEmitterD1Ev, symObjAddr: 0x73E0, symBinAddr: 0x262C0, symSize: 0x4 }
  - { offset: 0x325609, size: 0x8, addend: 0x0, symName: __ZN8facebook5react17TouchEventEmitterD1Ev, symObjAddr: 0x73E0, symBinAddr: 0x262C0, symSize: 0x4 }
  - { offset: 0x325636, size: 0x8, addend: 0x0, symName: __ZN8facebook5react17TouchEventEmitterD0Ev, symObjAddr: 0x73E4, symBinAddr: 0x262C4, symSize: 0x14 }
  - { offset: 0x325D0E, size: 0x8, addend: 0x0, symName: __ZNSt3__120__shared_ptr_emplaceIN8facebook5react16ShadowNodeFamilyENS_9allocatorIS3_EEEC2B8ne200100IJRKNS2_24ShadowNodeFamilyFragmentERNS_10shared_ptrIKNS2_21ParagraphEventEmitterEEERKNS_8weak_ptrIKNS2_15EventDispatcherEEERKNS2_27ConcreteComponentDescriptorINS2_19ParagraphShadowNodeEEEES5_Li0EEES5_DpOT_, symObjAddr: 0x7830, symBinAddr: 0x26350, symSize: 0x4C }
  - { offset: 0x3260FF, size: 0x8, addend: 0x0, symName: __ZN8facebook5react14RawPropsParser7prepareINS0_12RawTextPropsEEEvv, symObjAddr: 0x7B94, symBinAddr: 0x26580, symSize: 0x1E4 }
  - { offset: 0x326C80, size: 0x8, addend: 0x0, symName: __ZN8facebook5react27ConcreteComponentDescriptorINS0_17RawTextShadowNodeEED1Ev, symObjAddr: 0x7D78, symBinAddr: 0x26764, symSize: 0x4 }
  - { offset: 0x326CA3, size: 0x8, addend: 0x0, symName: __ZN8facebook5react27ConcreteComponentDescriptorINS0_17RawTextShadowNodeEED1Ev, symObjAddr: 0x7D78, symBinAddr: 0x26764, symSize: 0x4 }
  - { offset: 0x326CC1, size: 0x8, addend: 0x0, symName: __ZN8facebook5react27ConcreteComponentDescriptorINS0_17RawTextShadowNodeEED1Ev, symObjAddr: 0x7D78, symBinAddr: 0x26764, symSize: 0x4 }
  - { offset: 0x326CF0, size: 0x8, addend: 0x0, symName: __ZN8facebook5react27ConcreteComponentDescriptorINS0_17RawTextShadowNodeEED0Ev, symObjAddr: 0x7D7C, symBinAddr: 0x26768, symSize: 0x14 }
  - { offset: 0x326D6E, size: 0x8, addend: 0x0, symName: __ZNK8facebook5react27ConcreteComponentDescriptorINS0_17RawTextShadowNodeEE18getComponentHandleEv, symObjAddr: 0x7D90, symBinAddr: 0x2677C, symSize: 0xC }
  - { offset: 0x326D94, size: 0x8, addend: 0x0, symName: __ZNK8facebook5react27ConcreteComponentDescriptorINS0_17RawTextShadowNodeEE16getComponentNameEv, symObjAddr: 0x7D9C, symBinAddr: 0x26788, symSize: 0xC }
  - { offset: 0x326DBA, size: 0x8, addend: 0x0, symName: __ZNK8facebook5react27ConcreteComponentDescriptorINS0_17RawTextShadowNodeEE9getTraitsEv, symObjAddr: 0x7DA8, symBinAddr: 0x26794, symSize: 0x8 }
  - { offset: 0x326EA6, size: 0x8, addend: 0x0, symName: __ZNK8facebook5react27ConcreteComponentDescriptorINS0_17RawTextShadowNodeEE16createShadowNodeERKNS0_18ShadowNodeFragmentERKNSt3__110shared_ptrIKNS0_16ShadowNodeFamilyEEE, symObjAddr: 0x7DB0, symBinAddr: 0x2679C, symSize: 0x90 }
  - { offset: 0x3270F6, size: 0x8, addend: 0x0, symName: __ZNK8facebook5react27ConcreteComponentDescriptorINS0_17RawTextShadowNodeEE15cloneShadowNodeERKNS0_10ShadowNodeERKNS0_18ShadowNodeFragmentE, symObjAddr: 0x7E40, symBinAddr: 0x2682C, symSize: 0x104 }
  - { offset: 0x327405, size: 0x8, addend: 0x0, symName: __ZNK8facebook5react27ConcreteComponentDescriptorINS0_17RawTextShadowNodeEE11appendChildERKNSt3__110shared_ptrIKNS0_10ShadowNodeEEESA_, symObjAddr: 0x7F44, symBinAddr: 0x26930, symSize: 0x14 }
  - { offset: 0x327461, size: 0x8, addend: 0x0, symName: __ZNK8facebook5react27ConcreteComponentDescriptorINS0_17RawTextShadowNodeEE11appendChildERKNSt3__110shared_ptrIKNS0_10ShadowNodeEEESA_, symObjAddr: 0x7F44, symBinAddr: 0x26930, symSize: 0x14 }
  - { offset: 0x32757D, size: 0x8, addend: 0x0, symName: __ZNK8facebook5react27ConcreteComponentDescriptorINS0_17RawTextShadowNodeEE10clonePropsERKNS0_18PropsParserContextERKNSt3__110shared_ptrIKNS0_5PropsEEENS0_8RawPropsE, symObjAddr: 0x7F58, symBinAddr: 0x26944, symSize: 0x21C }
  - { offset: 0x3280C8, size: 0x8, addend: 0x0, symName: __ZN8facebook5react18ConcreteShadowNodeIXadL_ZNS0_20RawTextComponentNameEEENS0_10ShadowNodeENS0_12RawTextPropsENS0_12EventEmitterENS0_9StateDataEE5PropsERKNS0_18PropsParserContextERKNS0_8RawPropsERKNSt3__110shared_ptrIKNS0_5PropsEEE, symObjAddr: 0x875C, symBinAddr: 0x270F0, symSize: 0x58 }
  - { offset: 0x32825A, size: 0x8, addend: 0x0, symName: __ZNK8facebook5react27ConcreteComponentDescriptorINS0_17RawTextShadowNodeEE18createInitialStateERKNSt3__110shared_ptrIKNS0_5PropsEEERKNS5_IKNS0_16ShadowNodeFamilyEEE, symObjAddr: 0x8174, symBinAddr: 0x26B60, symSize: 0x8 }
  - { offset: 0x3282A0, size: 0x8, addend: 0x0, symName: __ZNK8facebook5react27ConcreteComponentDescriptorINS0_17RawTextShadowNodeEE18createInitialStateERKNSt3__110shared_ptrIKNS0_5PropsEEERKNS5_IKNS0_16ShadowNodeFamilyEEE, symObjAddr: 0x8174, symBinAddr: 0x26B60, symSize: 0x8 }
  - { offset: 0x3282C3, size: 0x8, addend: 0x0, symName: __ZNK8facebook5react27ConcreteComponentDescriptorINS0_17RawTextShadowNodeEE18createInitialStateERKNSt3__110shared_ptrIKNS0_5PropsEEERKNS5_IKNS0_16ShadowNodeFamilyEEE, symObjAddr: 0x8174, symBinAddr: 0x26B60, symSize: 0x8 }
  - { offset: 0x3282E6, size: 0x8, addend: 0x0, symName: __ZNK8facebook5react27ConcreteComponentDescriptorINS0_17RawTextShadowNodeEE11createStateERKNS0_16ShadowNodeFamilyERKNSt3__110shared_ptrIKvEE, symObjAddr: 0x817C, symBinAddr: 0x26B68, symSize: 0x8 }
  - { offset: 0x32832C, size: 0x8, addend: 0x0, symName: __ZNK8facebook5react27ConcreteComponentDescriptorINS0_17RawTextShadowNodeEE11createStateERKNS0_16ShadowNodeFamilyERKNSt3__110shared_ptrIKvEE, symObjAddr: 0x817C, symBinAddr: 0x26B68, symSize: 0x8 }
  - { offset: 0x32834F, size: 0x8, addend: 0x0, symName: __ZNK8facebook5react27ConcreteComponentDescriptorINS0_17RawTextShadowNodeEE11createStateERKNS0_16ShadowNodeFamilyERKNSt3__110shared_ptrIKvEE, symObjAddr: 0x817C, symBinAddr: 0x26B68, symSize: 0x8 }
  - { offset: 0x328386, size: 0x8, addend: 0x0, symName: __ZNK8facebook5react27ConcreteComponentDescriptorINS0_17RawTextShadowNodeEE12createFamilyERKNS0_24ShadowNodeFamilyFragmentE, symObjAddr: 0x8184, symBinAddr: 0x26B70, symSize: 0x168 }
  - { offset: 0x3287FD, size: 0x8, addend: 0x0, symName: __ZNK8facebook5react27ConcreteComponentDescriptorINS0_17RawTextShadowNodeEE5adoptERNS0_10ShadowNodeE, symObjAddr: 0x82EC, symBinAddr: 0x26CD8, symSize: 0x4 }
  - { offset: 0x328831, size: 0x8, addend: 0x0, symName: __ZN8facebook5react12RawTextPropsD1Ev, symObjAddr: 0x82F0, symBinAddr: 0x26CDC, symSize: 0x60 }
  - { offset: 0x328A9B, size: 0x8, addend: 0x0, symName: __ZN8facebook5react12RawTextPropsD0Ev, symObjAddr: 0x8350, symBinAddr: 0x26D3C, symSize: 0x60 }
  - { offset: 0x328F75, size: 0x8, addend: 0x0, symName: __ZNSt3__120__shared_ptr_emplaceIN8facebook5react17RawTextShadowNodeENS_9allocatorIS3_EEEC2B8ne200100IJRKNS2_18ShadowNodeFragmentERKNS_10shared_ptrIKNS2_16ShadowNodeFamilyEEENS2_16ShadowNodeTraitsEES5_Li0EEES5_DpOT_, symObjAddr: 0x8420, symBinAddr: 0x26E0C, symSize: 0x4C }
  - { offset: 0x32915B, size: 0x8, addend: 0x0, symName: __ZNSt3__120__shared_ptr_emplaceIN8facebook5react17RawTextShadowNodeENS_9allocatorIS3_EEED1Ev, symObjAddr: 0x846C, symBinAddr: 0x26E58, symSize: 0x14 }
  - { offset: 0x32917D, size: 0x8, addend: 0x0, symName: __ZNSt3__120__shared_ptr_emplaceIN8facebook5react17RawTextShadowNodeENS_9allocatorIS3_EEED1Ev, symObjAddr: 0x846C, symBinAddr: 0x26E58, symSize: 0x14 }
  - { offset: 0x3291B1, size: 0x8, addend: 0x0, symName: __ZNSt3__120__shared_ptr_emplaceIN8facebook5react17RawTextShadowNodeENS_9allocatorIS3_EEED0Ev, symObjAddr: 0x8480, symBinAddr: 0x26E6C, symSize: 0x24 }
  - { offset: 0x32927E, size: 0x8, addend: 0x0, symName: __ZNSt3__120__shared_ptr_emplaceIN8facebook5react17RawTextShadowNodeENS_9allocatorIS3_EEE16__on_zero_sharedEv, symObjAddr: 0x84A4, symBinAddr: 0x26E90, symSize: 0xC }
  - { offset: 0x3292A6, size: 0x8, addend: 0x0, symName: __ZNSt3__120__shared_ptr_emplaceIN8facebook5react17RawTextShadowNodeENS_9allocatorIS3_EEE16__on_zero_sharedEv, symObjAddr: 0x84A4, symBinAddr: 0x26E90, symSize: 0xC }
  - { offset: 0x3292C4, size: 0x8, addend: 0x0, symName: __ZNSt3__120__shared_ptr_emplaceIN8facebook5react17RawTextShadowNodeENS_9allocatorIS3_EEE16__on_zero_sharedEv, symObjAddr: 0x84A4, symBinAddr: 0x26E90, symSize: 0xC }
  - { offset: 0x3292E2, size: 0x8, addend: 0x0, symName: __ZNSt3__120__shared_ptr_emplaceIN8facebook5react17RawTextShadowNodeENS_9allocatorIS3_EEE16__on_zero_sharedEv, symObjAddr: 0x84A4, symBinAddr: 0x26E90, symSize: 0xC }
  - { offset: 0x32930E, size: 0x8, addend: 0x0, symName: __ZNSt3__120__shared_ptr_emplaceIN8facebook5react17RawTextShadowNodeENS_9allocatorIS3_EEE21__on_zero_shared_weakEv, symObjAddr: 0x84B0, symBinAddr: 0x26E9C, symSize: 0x4 }
  - { offset: 0x329341, size: 0x8, addend: 0x0, symName: __ZNSt3__120__shared_ptr_emplaceIN8facebook5react17RawTextShadowNodeENS_9allocatorIS3_EEE21__on_zero_shared_weakEv, symObjAddr: 0x84B0, symBinAddr: 0x26E9C, symSize: 0x4 }
  - { offset: 0x329363, size: 0x8, addend: 0x0, symName: __ZNSt3__120__shared_ptr_emplaceIN8facebook5react17RawTextShadowNodeENS_9allocatorIS3_EEE21__on_zero_shared_weakEv, symObjAddr: 0x84B0, symBinAddr: 0x26E9C, symSize: 0x4 }
  - { offset: 0x329386, size: 0x8, addend: 0x0, symName: __ZNSt3__120__shared_ptr_emplaceIN8facebook5react17RawTextShadowNodeENS_9allocatorIS3_EEE21__on_zero_shared_weakEv, symObjAddr: 0x84B0, symBinAddr: 0x26E9C, symSize: 0x4 }
  - { offset: 0x3293BD, size: 0x8, addend: 0x0, symName: __ZNSt3__120__shared_ptr_emplaceIN8facebook5react17RawTextShadowNodeENS_9allocatorIS3_EEE21__on_zero_shared_weakEv, symObjAddr: 0x84B0, symBinAddr: 0x26E9C, symSize: 0x4 }
  - { offset: 0x329507, size: 0x8, addend: 0x0, symName: __ZN8facebook5react17RawTextShadowNodeD1Ev, symObjAddr: 0x8568, symBinAddr: 0x26F54, symSize: 0x4 }
  - { offset: 0x32952A, size: 0x8, addend: 0x0, symName: __ZN8facebook5react17RawTextShadowNodeD1Ev, symObjAddr: 0x8568, symBinAddr: 0x26F54, symSize: 0x4 }
  - { offset: 0x329547, size: 0x8, addend: 0x0, symName: __ZN8facebook5react17RawTextShadowNodeD1Ev, symObjAddr: 0x8568, symBinAddr: 0x26F54, symSize: 0x4 }
  - { offset: 0x329566, size: 0x8, addend: 0x0, symName: __ZN8facebook5react17RawTextShadowNodeD1Ev, symObjAddr: 0x8568, symBinAddr: 0x26F54, symSize: 0x4 }
  - { offset: 0x329595, size: 0x8, addend: 0x0, symName: __ZN8facebook5react17RawTextShadowNodeD0Ev, symObjAddr: 0x856C, symBinAddr: 0x26F58, symSize: 0x14 }
  - { offset: 0x329631, size: 0x8, addend: 0x0, symName: __ZN8facebook5react10ShadowNode13completeCloneERKS1_RKNS0_18ShadowNodeFragmentE, symObjAddr: 0x8580, symBinAddr: 0x26F6C, symSize: 0x4 }
  - { offset: 0x3296CE, size: 0x8, addend: 0x0, symName: __ZNSt3__120__shared_ptr_emplaceIN8facebook5react17RawTextShadowNodeENS_9allocatorIS3_EEEC2B8ne200100IJRKNS2_10ShadowNodeERKNS2_18ShadowNodeFragmentEES5_Li0EEES5_DpOT_, symObjAddr: 0x863C, symBinAddr: 0x26FD0, symSize: 0x5C }
  - { offset: 0x329B71, size: 0x8, addend: 0x0, symName: __ZNSt3__110shared_ptrIKN8facebook5react12RawTextPropsEED1B8ne200100Ev, symObjAddr: 0x87B4, symBinAddr: 0x27148, symSize: 0x4 }
  - { offset: 0x329B9D, size: 0x8, addend: 0x0, symName: __ZNSt3__110shared_ptrIKN8facebook5react12RawTextPropsEED1B8ne200100Ev, symObjAddr: 0x87B4, symBinAddr: 0x27148, symSize: 0x4 }
  - { offset: 0x329C25, size: 0x8, addend: 0x0, symName: __ZNSt3__120__shared_ptr_emplaceIKN8facebook5react12RawTextPropsENS_9allocatorIS3_EEED1Ev, symObjAddr: 0x87B8, symBinAddr: 0x2714C, symSize: 0x14 }
  - { offset: 0x329C47, size: 0x8, addend: 0x0, symName: __ZNSt3__120__shared_ptr_emplaceIKN8facebook5react12RawTextPropsENS_9allocatorIS3_EEED1Ev, symObjAddr: 0x87B8, symBinAddr: 0x2714C, symSize: 0x14 }
  - { offset: 0x329C7B, size: 0x8, addend: 0x0, symName: __ZNSt3__120__shared_ptr_emplaceIKN8facebook5react12RawTextPropsENS_9allocatorIS3_EEED0Ev, symObjAddr: 0x87CC, symBinAddr: 0x27160, symSize: 0x24 }
  - { offset: 0x329D48, size: 0x8, addend: 0x0, symName: __ZNSt3__120__shared_ptr_emplaceIKN8facebook5react12RawTextPropsENS_9allocatorIS3_EEE16__on_zero_sharedEv, symObjAddr: 0x87F0, symBinAddr: 0x27184, symSize: 0xC }
  - { offset: 0x329D70, size: 0x8, addend: 0x0, symName: __ZNSt3__120__shared_ptr_emplaceIKN8facebook5react12RawTextPropsENS_9allocatorIS3_EEE16__on_zero_sharedEv, symObjAddr: 0x87F0, symBinAddr: 0x27184, symSize: 0xC }
  - { offset: 0x329D8E, size: 0x8, addend: 0x0, symName: __ZNSt3__120__shared_ptr_emplaceIKN8facebook5react12RawTextPropsENS_9allocatorIS3_EEE16__on_zero_sharedEv, symObjAddr: 0x87F0, symBinAddr: 0x27184, symSize: 0xC }
  - { offset: 0x329DAC, size: 0x8, addend: 0x0, symName: __ZNSt3__120__shared_ptr_emplaceIKN8facebook5react12RawTextPropsENS_9allocatorIS3_EEE16__on_zero_sharedEv, symObjAddr: 0x87F0, symBinAddr: 0x27184, symSize: 0xC }
  - { offset: 0x329E33, size: 0x8, addend: 0x0, symName: __ZNSt3__120__shared_ptr_emplaceIKN8facebook5react12RawTextPropsENS_9allocatorIS3_EEE21__on_zero_shared_weakEv, symObjAddr: 0x87FC, symBinAddr: 0x27190, symSize: 0x4 }
  - { offset: 0x329E66, size: 0x8, addend: 0x0, symName: __ZNSt3__120__shared_ptr_emplaceIKN8facebook5react12RawTextPropsENS_9allocatorIS3_EEE21__on_zero_shared_weakEv, symObjAddr: 0x87FC, symBinAddr: 0x27190, symSize: 0x4 }
  - { offset: 0x329E88, size: 0x8, addend: 0x0, symName: __ZNSt3__120__shared_ptr_emplaceIKN8facebook5react12RawTextPropsENS_9allocatorIS3_EEE21__on_zero_shared_weakEv, symObjAddr: 0x87FC, symBinAddr: 0x27190, symSize: 0x4 }
  - { offset: 0x329EAB, size: 0x8, addend: 0x0, symName: __ZNSt3__120__shared_ptr_emplaceIKN8facebook5react12RawTextPropsENS_9allocatorIS3_EEE21__on_zero_shared_weakEv, symObjAddr: 0x87FC, symBinAddr: 0x27190, symSize: 0x4 }
  - { offset: 0x329EE1, size: 0x8, addend: 0x0, symName: __ZNSt3__120__shared_ptr_emplaceIKN8facebook5react12RawTextPropsENS_9allocatorIS3_EEE21__on_zero_shared_weakEv, symObjAddr: 0x87FC, symBinAddr: 0x27190, symSize: 0x4 }
  - { offset: 0x32A154, size: 0x8, addend: 0x0, symName: __ZNSt3__120__shared_ptr_emplaceIN8facebook5react12RawTextPropsENS_9allocatorIS3_EEEC2B8ne200100IJRKNS2_18PropsParserContextERKS3_RKNS2_8RawPropsEES5_Li0EEES5_DpOT_, symObjAddr: 0x88C8, symBinAddr: 0x27204, symSize: 0x4C }
  - { offset: 0x32A33D, size: 0x8, addend: 0x0, symName: __ZNSt3__120__shared_ptr_emplaceIN8facebook5react12RawTextPropsENS_9allocatorIS3_EEED1Ev, symObjAddr: 0x8914, symBinAddr: 0x27250, symSize: 0x14 }
  - { offset: 0x32A35F, size: 0x8, addend: 0x0, symName: __ZNSt3__120__shared_ptr_emplaceIN8facebook5react12RawTextPropsENS_9allocatorIS3_EEED1Ev, symObjAddr: 0x8914, symBinAddr: 0x27250, symSize: 0x14 }
  - { offset: 0x32A393, size: 0x8, addend: 0x0, symName: __ZNSt3__120__shared_ptr_emplaceIN8facebook5react12RawTextPropsENS_9allocatorIS3_EEED0Ev, symObjAddr: 0x8928, symBinAddr: 0x27264, symSize: 0x24 }
  - { offset: 0x32A431, size: 0x8, addend: 0x0, symName: __ZNSt3__120__shared_ptr_emplaceIN8facebook5react12RawTextPropsENS_9allocatorIS3_EEE16__on_zero_sharedEv, symObjAddr: 0x894C, symBinAddr: 0x27288, symSize: 0xC }
  - { offset: 0x32A459, size: 0x8, addend: 0x0, symName: __ZNSt3__120__shared_ptr_emplaceIN8facebook5react12RawTextPropsENS_9allocatorIS3_EEE16__on_zero_sharedEv, symObjAddr: 0x894C, symBinAddr: 0x27288, symSize: 0xC }
  - { offset: 0x32A477, size: 0x8, addend: 0x0, symName: __ZNSt3__120__shared_ptr_emplaceIN8facebook5react12RawTextPropsENS_9allocatorIS3_EEE16__on_zero_sharedEv, symObjAddr: 0x894C, symBinAddr: 0x27288, symSize: 0xC }
  - { offset: 0x32A495, size: 0x8, addend: 0x0, symName: __ZNSt3__120__shared_ptr_emplaceIN8facebook5react12RawTextPropsENS_9allocatorIS3_EEE16__on_zero_sharedEv, symObjAddr: 0x894C, symBinAddr: 0x27288, symSize: 0xC }
  - { offset: 0x32A4C1, size: 0x8, addend: 0x0, symName: __ZNSt3__120__shared_ptr_emplaceIN8facebook5react12RawTextPropsENS_9allocatorIS3_EEE21__on_zero_shared_weakEv, symObjAddr: 0x8958, symBinAddr: 0x27294, symSize: 0x4 }
  - { offset: 0x32A4F4, size: 0x8, addend: 0x0, symName: __ZNSt3__120__shared_ptr_emplaceIN8facebook5react12RawTextPropsENS_9allocatorIS3_EEE21__on_zero_shared_weakEv, symObjAddr: 0x8958, symBinAddr: 0x27294, symSize: 0x4 }
  - { offset: 0x32A516, size: 0x8, addend: 0x0, symName: __ZNSt3__120__shared_ptr_emplaceIN8facebook5react12RawTextPropsENS_9allocatorIS3_EEE21__on_zero_shared_weakEv, symObjAddr: 0x8958, symBinAddr: 0x27294, symSize: 0x4 }
  - { offset: 0x32A539, size: 0x8, addend: 0x0, symName: __ZNSt3__120__shared_ptr_emplaceIN8facebook5react12RawTextPropsENS_9allocatorIS3_EEE21__on_zero_shared_weakEv, symObjAddr: 0x8958, symBinAddr: 0x27294, symSize: 0x4 }
  - { offset: 0x32A56F, size: 0x8, addend: 0x0, symName: __ZNSt3__120__shared_ptr_emplaceIN8facebook5react12RawTextPropsENS_9allocatorIS3_EEE21__on_zero_shared_weakEv, symObjAddr: 0x8958, symBinAddr: 0x27294, symSize: 0x4 }
  - { offset: 0x32A972, size: 0x8, addend: 0x0, symName: __ZNSt3__120__shared_ptr_emplaceIN8facebook5react16ShadowNodeFamilyENS_9allocatorIS3_EEEC2B8ne200100IJRKNS2_24ShadowNodeFamilyFragmentERNS_10shared_ptrIKNS2_12EventEmitterEEERKNS_8weak_ptrIKNS2_15EventDispatcherEEERKNS2_27ConcreteComponentDescriptorINS2_17RawTextShadowNodeEEEES5_Li0EEES5_DpOT_, symObjAddr: 0x8BE8, symBinAddr: 0x27310, symSize: 0x4C }
  - { offset: 0x32ACD2, size: 0x8, addend: 0x0, symName: __ZN8facebook5react14RawPropsParser7prepareINS0_9TextPropsEEEvv, symObjAddr: 0x8E18, symBinAddr: 0x27540, symSize: 0x3B8 }
  - { offset: 0x32C1B8, size: 0x8, addend: 0x0, symName: __ZN8facebook5react9TextPropsC1Ev, symObjAddr: 0x9748, symBinAddr: 0x27E70, symSize: 0x80 }
  - { offset: 0x32C379, size: 0x8, addend: 0x0, symName: __ZN8facebook5react27ConcreteComponentDescriptorINS0_14TextShadowNodeEED1Ev, symObjAddr: 0x91D0, symBinAddr: 0x278F8, symSize: 0x4 }
  - { offset: 0x32C39C, size: 0x8, addend: 0x0, symName: __ZN8facebook5react27ConcreteComponentDescriptorINS0_14TextShadowNodeEED1Ev, symObjAddr: 0x91D0, symBinAddr: 0x278F8, symSize: 0x4 }
  - { offset: 0x32C3BA, size: 0x8, addend: 0x0, symName: __ZN8facebook5react27ConcreteComponentDescriptorINS0_14TextShadowNodeEED1Ev, symObjAddr: 0x91D0, symBinAddr: 0x278F8, symSize: 0x4 }
  - { offset: 0x32C3E9, size: 0x8, addend: 0x0, symName: __ZN8facebook5react27ConcreteComponentDescriptorINS0_14TextShadowNodeEED0Ev, symObjAddr: 0x91D4, symBinAddr: 0x278FC, symSize: 0x14 }
  - { offset: 0x32C467, size: 0x8, addend: 0x0, symName: __ZNK8facebook5react27ConcreteComponentDescriptorINS0_14TextShadowNodeEE18getComponentHandleEv, symObjAddr: 0x91E8, symBinAddr: 0x27910, symSize: 0xC }
  - { offset: 0x32C48D, size: 0x8, addend: 0x0, symName: __ZNK8facebook5react27ConcreteComponentDescriptorINS0_14TextShadowNodeEE16getComponentNameEv, symObjAddr: 0x91F4, symBinAddr: 0x2791C, symSize: 0xC }
  - { offset: 0x32C4B3, size: 0x8, addend: 0x0, symName: __ZNK8facebook5react27ConcreteComponentDescriptorINS0_14TextShadowNodeEE9getTraitsEv, symObjAddr: 0x9200, symBinAddr: 0x27928, symSize: 0x8 }
  - { offset: 0x32C59F, size: 0x8, addend: 0x0, symName: __ZNK8facebook5react27ConcreteComponentDescriptorINS0_14TextShadowNodeEE16createShadowNodeERKNS0_18ShadowNodeFragmentERKNSt3__110shared_ptrIKNS0_16ShadowNodeFamilyEEE, symObjAddr: 0x9208, symBinAddr: 0x27930, symSize: 0x90 }
  - { offset: 0x32C7EF, size: 0x8, addend: 0x0, symName: __ZNK8facebook5react27ConcreteComponentDescriptorINS0_14TextShadowNodeEE15cloneShadowNodeERKNS0_10ShadowNodeERKNS0_18ShadowNodeFragmentE, symObjAddr: 0x9298, symBinAddr: 0x279C0, symSize: 0x104 }
  - { offset: 0x32CAFE, size: 0x8, addend: 0x0, symName: __ZNK8facebook5react27ConcreteComponentDescriptorINS0_14TextShadowNodeEE11appendChildERKNSt3__110shared_ptrIKNS0_10ShadowNodeEEESA_, symObjAddr: 0x939C, symBinAddr: 0x27AC4, symSize: 0x14 }
  - { offset: 0x32CB5A, size: 0x8, addend: 0x0, symName: __ZNK8facebook5react27ConcreteComponentDescriptorINS0_14TextShadowNodeEE11appendChildERKNSt3__110shared_ptrIKNS0_10ShadowNodeEEESA_, symObjAddr: 0x939C, symBinAddr: 0x27AC4, symSize: 0x14 }
  - { offset: 0x32CC76, size: 0x8, addend: 0x0, symName: __ZNK8facebook5react27ConcreteComponentDescriptorINS0_14TextShadowNodeEE10clonePropsERKNS0_18PropsParserContextERKNSt3__110shared_ptrIKNS0_5PropsEEENS0_8RawPropsE, symObjAddr: 0x93B0, symBinAddr: 0x27AD8, symSize: 0x21C }
  - { offset: 0x32D7C1, size: 0x8, addend: 0x0, symName: __ZN8facebook5react18ConcreteShadowNodeIXadL_ZNS0_17TextComponentNameEEENS0_10ShadowNodeENS0_9TextPropsENS0_17TouchEventEmitterENS0_9StateDataEE5PropsERKNS0_18PropsParserContextERKNS0_8RawPropsERKNSt3__110shared_ptrIKNS0_5PropsEEE, symObjAddr: 0x9C28, symBinAddr: 0x282F8, symSize: 0x58 }
  - { offset: 0x32D911, size: 0x8, addend: 0x0, symName: __ZNK8facebook5react27ConcreteComponentDescriptorINS0_14TextShadowNodeEE18createInitialStateERKNSt3__110shared_ptrIKNS0_5PropsEEERKNS5_IKNS0_16ShadowNodeFamilyEEE, symObjAddr: 0x95CC, symBinAddr: 0x27CF4, symSize: 0x8 }
  - { offset: 0x32D957, size: 0x8, addend: 0x0, symName: __ZNK8facebook5react27ConcreteComponentDescriptorINS0_14TextShadowNodeEE18createInitialStateERKNSt3__110shared_ptrIKNS0_5PropsEEERKNS5_IKNS0_16ShadowNodeFamilyEEE, symObjAddr: 0x95CC, symBinAddr: 0x27CF4, symSize: 0x8 }
  - { offset: 0x32D97A, size: 0x8, addend: 0x0, symName: __ZNK8facebook5react27ConcreteComponentDescriptorINS0_14TextShadowNodeEE18createInitialStateERKNSt3__110shared_ptrIKNS0_5PropsEEERKNS5_IKNS0_16ShadowNodeFamilyEEE, symObjAddr: 0x95CC, symBinAddr: 0x27CF4, symSize: 0x8 }
  - { offset: 0x32D99D, size: 0x8, addend: 0x0, symName: __ZNK8facebook5react27ConcreteComponentDescriptorINS0_14TextShadowNodeEE11createStateERKNS0_16ShadowNodeFamilyERKNSt3__110shared_ptrIKvEE, symObjAddr: 0x95D4, symBinAddr: 0x27CFC, symSize: 0x8 }
  - { offset: 0x32D9E3, size: 0x8, addend: 0x0, symName: __ZNK8facebook5react27ConcreteComponentDescriptorINS0_14TextShadowNodeEE11createStateERKNS0_16ShadowNodeFamilyERKNSt3__110shared_ptrIKvEE, symObjAddr: 0x95D4, symBinAddr: 0x27CFC, symSize: 0x8 }
  - { offset: 0x32DA06, size: 0x8, addend: 0x0, symName: __ZNK8facebook5react27ConcreteComponentDescriptorINS0_14TextShadowNodeEE11createStateERKNS0_16ShadowNodeFamilyERKNSt3__110shared_ptrIKvEE, symObjAddr: 0x95D4, symBinAddr: 0x27CFC, symSize: 0x8 }
  - { offset: 0x32DA72, size: 0x8, addend: 0x0, symName: __ZNK8facebook5react27ConcreteComponentDescriptorINS0_14TextShadowNodeEE12createFamilyERKNS0_24ShadowNodeFamilyFragmentE, symObjAddr: 0x95DC, symBinAddr: 0x27D04, symSize: 0x168 }
  - { offset: 0x32DF3C, size: 0x8, addend: 0x0, symName: __ZNK8facebook5react27ConcreteComponentDescriptorINS0_14TextShadowNodeEE5adoptERNS0_10ShadowNodeE, symObjAddr: 0x9744, symBinAddr: 0x27E6C, symSize: 0x4 }
  - { offset: 0x32DF70, size: 0x8, addend: 0x0, symName: __ZN8facebook5react9TextPropsD1Ev, symObjAddr: 0x97C8, symBinAddr: 0x27EF0, symSize: 0x70 }
  - { offset: 0x32E3F2, size: 0x8, addend: 0x0, symName: __ZN8facebook5react9TextPropsD0Ev, symObjAddr: 0x9838, symBinAddr: 0x27F60, symSize: 0x70 }
  - { offset: 0x32EAE4, size: 0x8, addend: 0x0, symName: __ZNSt3__120__shared_ptr_emplaceIN8facebook5react14TextShadowNodeENS_9allocatorIS3_EEEC2B8ne200100IJRKNS2_18ShadowNodeFragmentERKNS_10shared_ptrIKNS2_16ShadowNodeFamilyEEENS2_16ShadowNodeTraitsEES5_Li0EEES5_DpOT_, symObjAddr: 0x9918, symBinAddr: 0x28040, symSize: 0x4C }
  - { offset: 0x32ECCA, size: 0x8, addend: 0x0, symName: __ZNSt3__120__shared_ptr_emplaceIN8facebook5react14TextShadowNodeENS_9allocatorIS3_EEED1Ev, symObjAddr: 0x9964, symBinAddr: 0x2808C, symSize: 0x14 }
  - { offset: 0x32ECEC, size: 0x8, addend: 0x0, symName: __ZNSt3__120__shared_ptr_emplaceIN8facebook5react14TextShadowNodeENS_9allocatorIS3_EEED1Ev, symObjAddr: 0x9964, symBinAddr: 0x2808C, symSize: 0x14 }
  - { offset: 0x32ED20, size: 0x8, addend: 0x0, symName: __ZNSt3__120__shared_ptr_emplaceIN8facebook5react14TextShadowNodeENS_9allocatorIS3_EEED0Ev, symObjAddr: 0x9978, symBinAddr: 0x280A0, symSize: 0x24 }
  - { offset: 0x32EDED, size: 0x8, addend: 0x0, symName: __ZNSt3__120__shared_ptr_emplaceIN8facebook5react14TextShadowNodeENS_9allocatorIS3_EEE16__on_zero_sharedEv, symObjAddr: 0x999C, symBinAddr: 0x280C4, symSize: 0xC }
  - { offset: 0x32EE15, size: 0x8, addend: 0x0, symName: __ZNSt3__120__shared_ptr_emplaceIN8facebook5react14TextShadowNodeENS_9allocatorIS3_EEE16__on_zero_sharedEv, symObjAddr: 0x999C, symBinAddr: 0x280C4, symSize: 0xC }
  - { offset: 0x32EE33, size: 0x8, addend: 0x0, symName: __ZNSt3__120__shared_ptr_emplaceIN8facebook5react14TextShadowNodeENS_9allocatorIS3_EEE16__on_zero_sharedEv, symObjAddr: 0x999C, symBinAddr: 0x280C4, symSize: 0xC }
  - { offset: 0x32EE51, size: 0x8, addend: 0x0, symName: __ZNSt3__120__shared_ptr_emplaceIN8facebook5react14TextShadowNodeENS_9allocatorIS3_EEE16__on_zero_sharedEv, symObjAddr: 0x999C, symBinAddr: 0x280C4, symSize: 0xC }
  - { offset: 0x32EE7D, size: 0x8, addend: 0x0, symName: __ZNSt3__120__shared_ptr_emplaceIN8facebook5react14TextShadowNodeENS_9allocatorIS3_EEE21__on_zero_shared_weakEv, symObjAddr: 0x99A8, symBinAddr: 0x280D0, symSize: 0x4 }
  - { offset: 0x32EEB0, size: 0x8, addend: 0x0, symName: __ZNSt3__120__shared_ptr_emplaceIN8facebook5react14TextShadowNodeENS_9allocatorIS3_EEE21__on_zero_shared_weakEv, symObjAddr: 0x99A8, symBinAddr: 0x280D0, symSize: 0x4 }
  - { offset: 0x32EED2, size: 0x8, addend: 0x0, symName: __ZNSt3__120__shared_ptr_emplaceIN8facebook5react14TextShadowNodeENS_9allocatorIS3_EEE21__on_zero_shared_weakEv, symObjAddr: 0x99A8, symBinAddr: 0x280D0, symSize: 0x4 }
  - { offset: 0x32EEF5, size: 0x8, addend: 0x0, symName: __ZNSt3__120__shared_ptr_emplaceIN8facebook5react14TextShadowNodeENS_9allocatorIS3_EEE21__on_zero_shared_weakEv, symObjAddr: 0x99A8, symBinAddr: 0x280D0, symSize: 0x4 }
  - { offset: 0x32EF2C, size: 0x8, addend: 0x0, symName: __ZNSt3__120__shared_ptr_emplaceIN8facebook5react14TextShadowNodeENS_9allocatorIS3_EEE21__on_zero_shared_weakEv, symObjAddr: 0x99A8, symBinAddr: 0x280D0, symSize: 0x4 }
  - { offset: 0x32F016, size: 0x8, addend: 0x0, symName: __ZN8facebook5react14TextShadowNodeD1Ev, symObjAddr: 0x9A60, symBinAddr: 0x28188, symSize: 0x4 }
  - { offset: 0x32F039, size: 0x8, addend: 0x0, symName: __ZN8facebook5react14TextShadowNodeD1Ev, symObjAddr: 0x9A60, symBinAddr: 0x28188, symSize: 0x4 }
  - { offset: 0x32F056, size: 0x8, addend: 0x0, symName: __ZN8facebook5react14TextShadowNodeD1Ev, symObjAddr: 0x9A60, symBinAddr: 0x28188, symSize: 0x4 }
  - { offset: 0x32F075, size: 0x8, addend: 0x0, symName: __ZN8facebook5react14TextShadowNodeD1Ev, symObjAddr: 0x9A60, symBinAddr: 0x28188, symSize: 0x4 }
  - { offset: 0x32F0A4, size: 0x8, addend: 0x0, symName: __ZN8facebook5react14TextShadowNodeD0Ev, symObjAddr: 0x9A64, symBinAddr: 0x2818C, symSize: 0x14 }
  - { offset: 0x32F19C, size: 0x8, addend: 0x0, symName: __ZNSt3__120__shared_ptr_emplaceIN8facebook5react14TextShadowNodeENS_9allocatorIS3_EEEC2B8ne200100IJRKNS2_10ShadowNodeERKNS2_18ShadowNodeFragmentEES5_Li0EEES5_DpOT_, symObjAddr: 0x9B30, symBinAddr: 0x28200, symSize: 0x5C }
  - { offset: 0x32F445, size: 0x8, addend: 0x0, symName: __ZNSt3__110shared_ptrIKN8facebook5react9TextPropsEED1B8ne200100Ev, symObjAddr: 0x9C80, symBinAddr: 0x28350, symSize: 0x4 }
  - { offset: 0x32F471, size: 0x8, addend: 0x0, symName: __ZNSt3__110shared_ptrIKN8facebook5react9TextPropsEED1B8ne200100Ev, symObjAddr: 0x9C80, symBinAddr: 0x28350, symSize: 0x4 }
  - { offset: 0x32F6F4, size: 0x8, addend: 0x0, symName: __ZNSt3__120__shared_ptr_emplaceIKN8facebook5react9TextPropsENS_9allocatorIS3_EEEC2B8ne200100IJES6_Li0EEES6_DpOT_, symObjAddr: 0x9CCC, symBinAddr: 0x2839C, symSize: 0xA0 }
  - { offset: 0x32F866, size: 0x8, addend: 0x0, symName: __ZNSt3__120__shared_ptr_emplaceIKN8facebook5react9TextPropsENS_9allocatorIS3_EEED1Ev, symObjAddr: 0x9D6C, symBinAddr: 0x2843C, symSize: 0x14 }
  - { offset: 0x32F888, size: 0x8, addend: 0x0, symName: __ZNSt3__120__shared_ptr_emplaceIKN8facebook5react9TextPropsENS_9allocatorIS3_EEED1Ev, symObjAddr: 0x9D6C, symBinAddr: 0x2843C, symSize: 0x14 }
  - { offset: 0x32F8BC, size: 0x8, addend: 0x0, symName: __ZNSt3__120__shared_ptr_emplaceIKN8facebook5react9TextPropsENS_9allocatorIS3_EEED0Ev, symObjAddr: 0x9D80, symBinAddr: 0x28450, symSize: 0x24 }
  - { offset: 0x32F989, size: 0x8, addend: 0x0, symName: __ZNSt3__120__shared_ptr_emplaceIKN8facebook5react9TextPropsENS_9allocatorIS3_EEE16__on_zero_sharedEv, symObjAddr: 0x9DA4, symBinAddr: 0x28474, symSize: 0xC }
  - { offset: 0x32F9B1, size: 0x8, addend: 0x0, symName: __ZNSt3__120__shared_ptr_emplaceIKN8facebook5react9TextPropsENS_9allocatorIS3_EEE16__on_zero_sharedEv, symObjAddr: 0x9DA4, symBinAddr: 0x28474, symSize: 0xC }
  - { offset: 0x32F9CF, size: 0x8, addend: 0x0, symName: __ZNSt3__120__shared_ptr_emplaceIKN8facebook5react9TextPropsENS_9allocatorIS3_EEE16__on_zero_sharedEv, symObjAddr: 0x9DA4, symBinAddr: 0x28474, symSize: 0xC }
  - { offset: 0x32F9ED, size: 0x8, addend: 0x0, symName: __ZNSt3__120__shared_ptr_emplaceIKN8facebook5react9TextPropsENS_9allocatorIS3_EEE16__on_zero_sharedEv, symObjAddr: 0x9DA4, symBinAddr: 0x28474, symSize: 0xC }
  - { offset: 0x32FA19, size: 0x8, addend: 0x0, symName: __ZNSt3__120__shared_ptr_emplaceIKN8facebook5react9TextPropsENS_9allocatorIS3_EEE21__on_zero_shared_weakEv, symObjAddr: 0x9DB0, symBinAddr: 0x28480, symSize: 0x4 }
  - { offset: 0x32FA4C, size: 0x8, addend: 0x0, symName: __ZNSt3__120__shared_ptr_emplaceIKN8facebook5react9TextPropsENS_9allocatorIS3_EEE21__on_zero_shared_weakEv, symObjAddr: 0x9DB0, symBinAddr: 0x28480, symSize: 0x4 }
  - { offset: 0x32FA6E, size: 0x8, addend: 0x0, symName: __ZNSt3__120__shared_ptr_emplaceIKN8facebook5react9TextPropsENS_9allocatorIS3_EEE21__on_zero_shared_weakEv, symObjAddr: 0x9DB0, symBinAddr: 0x28480, symSize: 0x4 }
  - { offset: 0x32FA91, size: 0x8, addend: 0x0, symName: __ZNSt3__120__shared_ptr_emplaceIKN8facebook5react9TextPropsENS_9allocatorIS3_EEE21__on_zero_shared_weakEv, symObjAddr: 0x9DB0, symBinAddr: 0x28480, symSize: 0x4 }
  - { offset: 0x32FAC8, size: 0x8, addend: 0x0, symName: __ZNSt3__120__shared_ptr_emplaceIKN8facebook5react9TextPropsENS_9allocatorIS3_EEE21__on_zero_shared_weakEv, symObjAddr: 0x9DB0, symBinAddr: 0x28480, symSize: 0x4 }
  - { offset: 0x32FD3B, size: 0x8, addend: 0x0, symName: __ZNSt3__120__shared_ptr_emplaceIN8facebook5react9TextPropsENS_9allocatorIS3_EEEC2B8ne200100IJRKNS2_18PropsParserContextERKS3_RKNS2_8RawPropsEES5_Li0EEES5_DpOT_, symObjAddr: 0x9E7C, symBinAddr: 0x284F4, symSize: 0x4C }
  - { offset: 0x32FF24, size: 0x8, addend: 0x0, symName: __ZNSt3__120__shared_ptr_emplaceIN8facebook5react9TextPropsENS_9allocatorIS3_EEED1Ev, symObjAddr: 0x9EC8, symBinAddr: 0x28540, symSize: 0x14 }
  - { offset: 0x32FF46, size: 0x8, addend: 0x0, symName: __ZNSt3__120__shared_ptr_emplaceIN8facebook5react9TextPropsENS_9allocatorIS3_EEED1Ev, symObjAddr: 0x9EC8, symBinAddr: 0x28540, symSize: 0x14 }
  - { offset: 0x32FF7A, size: 0x8, addend: 0x0, symName: __ZNSt3__120__shared_ptr_emplaceIN8facebook5react9TextPropsENS_9allocatorIS3_EEED0Ev, symObjAddr: 0x9EDC, symBinAddr: 0x28554, symSize: 0x24 }
  - { offset: 0x330018, size: 0x8, addend: 0x0, symName: __ZNSt3__120__shared_ptr_emplaceIN8facebook5react9TextPropsENS_9allocatorIS3_EEE16__on_zero_sharedEv, symObjAddr: 0x9F00, symBinAddr: 0x28578, symSize: 0xC }
  - { offset: 0x330040, size: 0x8, addend: 0x0, symName: __ZNSt3__120__shared_ptr_emplaceIN8facebook5react9TextPropsENS_9allocatorIS3_EEE16__on_zero_sharedEv, symObjAddr: 0x9F00, symBinAddr: 0x28578, symSize: 0xC }
  - { offset: 0x33005E, size: 0x8, addend: 0x0, symName: __ZNSt3__120__shared_ptr_emplaceIN8facebook5react9TextPropsENS_9allocatorIS3_EEE16__on_zero_sharedEv, symObjAddr: 0x9F00, symBinAddr: 0x28578, symSize: 0xC }
  - { offset: 0x33007C, size: 0x8, addend: 0x0, symName: __ZNSt3__120__shared_ptr_emplaceIN8facebook5react9TextPropsENS_9allocatorIS3_EEE16__on_zero_sharedEv, symObjAddr: 0x9F00, symBinAddr: 0x28578, symSize: 0xC }
  - { offset: 0x3300A8, size: 0x8, addend: 0x0, symName: __ZNSt3__120__shared_ptr_emplaceIN8facebook5react9TextPropsENS_9allocatorIS3_EEE21__on_zero_shared_weakEv, symObjAddr: 0x9F0C, symBinAddr: 0x28584, symSize: 0x4 }
  - { offset: 0x3300DB, size: 0x8, addend: 0x0, symName: __ZNSt3__120__shared_ptr_emplaceIN8facebook5react9TextPropsENS_9allocatorIS3_EEE21__on_zero_shared_weakEv, symObjAddr: 0x9F0C, symBinAddr: 0x28584, symSize: 0x4 }
  - { offset: 0x3300FD, size: 0x8, addend: 0x0, symName: __ZNSt3__120__shared_ptr_emplaceIN8facebook5react9TextPropsENS_9allocatorIS3_EEE21__on_zero_shared_weakEv, symObjAddr: 0x9F0C, symBinAddr: 0x28584, symSize: 0x4 }
  - { offset: 0x330120, size: 0x8, addend: 0x0, symName: __ZNSt3__120__shared_ptr_emplaceIN8facebook5react9TextPropsENS_9allocatorIS3_EEE21__on_zero_shared_weakEv, symObjAddr: 0x9F0C, symBinAddr: 0x28584, symSize: 0x4 }
  - { offset: 0x330157, size: 0x8, addend: 0x0, symName: __ZNSt3__120__shared_ptr_emplaceIN8facebook5react9TextPropsENS_9allocatorIS3_EEE21__on_zero_shared_weakEv, symObjAddr: 0x9F0C, symBinAddr: 0x28584, symSize: 0x4 }
  - { offset: 0x3303B9, size: 0x8, addend: 0x0, symName: __ZNSt3__120__shared_ptr_emplaceIKN8facebook5react17TouchEventEmitterENS_9allocatorIS3_EEEC2B8ne200100IJNS_10shared_ptrINS2_11EventTargetEEERKNS_8weak_ptrIKNS2_15EventDispatcherEEEES6_Li0EEES6_DpOT_, symObjAddr: 0x9FC8, symBinAddr: 0x285E8, symSize: 0x4C }
  - { offset: 0x330563, size: 0x8, addend: 0x0, symName: __ZNSt3__120__shared_ptr_emplaceIKN8facebook5react17TouchEventEmitterENS_9allocatorIS3_EEED1Ev, symObjAddr: 0xA014, symBinAddr: 0x28634, symSize: 0x14 }
  - { offset: 0x330585, size: 0x8, addend: 0x0, symName: __ZNSt3__120__shared_ptr_emplaceIKN8facebook5react17TouchEventEmitterENS_9allocatorIS3_EEED1Ev, symObjAddr: 0xA014, symBinAddr: 0x28634, symSize: 0x14 }
  - { offset: 0x3305B9, size: 0x8, addend: 0x0, symName: __ZNSt3__120__shared_ptr_emplaceIKN8facebook5react17TouchEventEmitterENS_9allocatorIS3_EEED0Ev, symObjAddr: 0xA028, symBinAddr: 0x28648, symSize: 0x24 }
  - { offset: 0x330686, size: 0x8, addend: 0x0, symName: __ZNSt3__120__shared_ptr_emplaceIKN8facebook5react17TouchEventEmitterENS_9allocatorIS3_EEE16__on_zero_sharedEv, symObjAddr: 0xA04C, symBinAddr: 0x2866C, symSize: 0xC }
  - { offset: 0x3306AE, size: 0x8, addend: 0x0, symName: __ZNSt3__120__shared_ptr_emplaceIKN8facebook5react17TouchEventEmitterENS_9allocatorIS3_EEE16__on_zero_sharedEv, symObjAddr: 0xA04C, symBinAddr: 0x2866C, symSize: 0xC }
  - { offset: 0x3306CC, size: 0x8, addend: 0x0, symName: __ZNSt3__120__shared_ptr_emplaceIKN8facebook5react17TouchEventEmitterENS_9allocatorIS3_EEE16__on_zero_sharedEv, symObjAddr: 0xA04C, symBinAddr: 0x2866C, symSize: 0xC }
  - { offset: 0x3306EA, size: 0x8, addend: 0x0, symName: __ZNSt3__120__shared_ptr_emplaceIKN8facebook5react17TouchEventEmitterENS_9allocatorIS3_EEE16__on_zero_sharedEv, symObjAddr: 0xA04C, symBinAddr: 0x2866C, symSize: 0xC }
  - { offset: 0x330716, size: 0x8, addend: 0x0, symName: __ZNSt3__120__shared_ptr_emplaceIKN8facebook5react17TouchEventEmitterENS_9allocatorIS3_EEE21__on_zero_shared_weakEv, symObjAddr: 0xA058, symBinAddr: 0x28678, symSize: 0x4 }
  - { offset: 0x330749, size: 0x8, addend: 0x0, symName: __ZNSt3__120__shared_ptr_emplaceIKN8facebook5react17TouchEventEmitterENS_9allocatorIS3_EEE21__on_zero_shared_weakEv, symObjAddr: 0xA058, symBinAddr: 0x28678, symSize: 0x4 }
  - { offset: 0x33076B, size: 0x8, addend: 0x0, symName: __ZNSt3__120__shared_ptr_emplaceIKN8facebook5react17TouchEventEmitterENS_9allocatorIS3_EEE21__on_zero_shared_weakEv, symObjAddr: 0xA058, symBinAddr: 0x28678, symSize: 0x4 }
  - { offset: 0x33078E, size: 0x8, addend: 0x0, symName: __ZNSt3__120__shared_ptr_emplaceIKN8facebook5react17TouchEventEmitterENS_9allocatorIS3_EEE21__on_zero_shared_weakEv, symObjAddr: 0xA058, symBinAddr: 0x28678, symSize: 0x4 }
  - { offset: 0x3307C4, size: 0x8, addend: 0x0, symName: __ZNSt3__120__shared_ptr_emplaceIKN8facebook5react17TouchEventEmitterENS_9allocatorIS3_EEE21__on_zero_shared_weakEv, symObjAddr: 0xA058, symBinAddr: 0x28678, symSize: 0x4 }
  - { offset: 0x330890, size: 0x8, addend: 0x0, symName: __ZNSt3__120__shared_ptr_emplaceIN8facebook5react16ShadowNodeFamilyENS_9allocatorIS3_EEEC2B8ne200100IJRKNS2_24ShadowNodeFamilyFragmentERNS_10shared_ptrIKNS2_17TouchEventEmitterEEERKNS_8weak_ptrIKNS2_15EventDispatcherEEERKNS2_27ConcreteComponentDescriptorINS2_14TextShadowNodeEEEES5_Li0EEES5_DpOT_, symObjAddr: 0xA1AC, symBinAddr: 0x287CC, symSize: 0x4C }
  - { offset: 0x330B73, size: 0x8, addend: 0x0, symName: __GLOBAL__sub_I_RCTParagraphComponentView.mm, symObjAddr: 0xAD80, symBinAddr: 0x288F4, symSize: 0x20 }
  - { offset: 0x3333DC, size: 0x8, addend: 0x0, symName: __ZN8facebook5react17HostPlatformColorL14UndefinedColorE, symObjAddr: 0x173558, symBinAddr: 0x9FE90, symSize: 0x0 }
  - { offset: 0x33679A, size: 0x8, addend: 0x0, symName: __ZN8facebook5react38concreteComponentDescriptorConstructorINS0_27ConcreteComponentDescriptorINS0_22ConcreteViewShadowNodeIXadL_ZNS0_30PullToRefreshViewComponentNameEEENS0_22PullToRefreshViewPropsENS0_29PullToRefreshViewEventEmitterENS0_9StateDataEEEEEEENSt3__110unique_ptrIKNS0_19ComponentDescriptorENS9_14default_deleteISC_EEEERKNS0_29ComponentDescriptorParametersE, symObjAddr: 0xD10, symBinAddr: 0x29504, symSize: 0x34 }
  - { offset: 0x35266E, size: 0x8, addend: 0x0, symName: __ZNSt3__115allocate_sharedB8ne200100IKN8facebook5react22PullToRefreshViewPropsENS_9allocatorIS3_EEJELi0EEENS_10shared_ptrIT_EERKT0_DpOT1_, symObjAddr: 0x3BE8, symBinAddr: 0x2A8AC, symSize: 0x48 }
  - { offset: 0x3528D5, size: 0x8, addend: 0x0, symName: __ZNSt3__111make_uniqueB8ne200100IKN8facebook5react27ConcreteComponentDescriptorINS2_22ConcreteViewShadowNodeIXadL_ZNS2_30PullToRefreshViewComponentNameEEENS2_22PullToRefreshViewPropsENS2_29PullToRefreshViewEventEmitterENS2_9StateDataEEEEEJRKNS2_29ComponentDescriptorParametersEELi0EEENS_10unique_ptrIT_NS_14default_deleteISF_EEEEDpOT0_, symObjAddr: 0xD44, symBinAddr: 0x29538, symSize: 0xD4 }
  - { offset: 0x35328D, size: 0x8, addend: 0x0, symName: __ZNSt3__115allocate_sharedB8ne200100IN8facebook5react22ConcreteViewShadowNodeIXadL_ZNS2_30PullToRefreshViewComponentNameEEENS2_22PullToRefreshViewPropsENS2_29PullToRefreshViewEventEmitterENS2_9StateDataEEENS_9allocatorIS7_EEJRKNS2_18ShadowNodeFragmentERKNS_10shared_ptrIKNS2_16ShadowNodeFamilyEEENS2_16ShadowNodeTraitsEELi0EEENSD_IT_EERKT0_DpOT1_, symObjAddr: 0x2758, symBinAddr: 0x29F90, symSize: 0x70 }
  - { offset: 0x3535B0, size: 0x8, addend: 0x0, symName: __ZNSt3__115allocate_sharedB8ne200100IN8facebook5react22ConcreteViewShadowNodeIXadL_ZNS2_30PullToRefreshViewComponentNameEEENS2_22PullToRefreshViewPropsENS2_29PullToRefreshViewEventEmitterENS2_9StateDataEEENS_9allocatorIS7_EEJRKNS2_10ShadowNodeERKNS2_18ShadowNodeFragmentEELi0EEENS_10shared_ptrIT_EERKT0_DpOT1_, symObjAddr: 0x2CBC, symBinAddr: 0x2A204, symSize: 0x60 }
  - { offset: 0x353D20, size: 0x8, addend: 0x0, symName: __ZNSt3__115allocate_sharedB8ne200100IKN8facebook5react29PullToRefreshViewEventEmitterENS_9allocatorIS3_EEJNS_10shared_ptrINS2_11EventTargetEEERKNS_8weak_ptrIKNS2_15EventDispatcherEEEELi0EEENS7_IT_EERKT0_DpOT1_, symObjAddr: 0x31D8, symBinAddr: 0x2A46C, symSize: 0x60 }
  - { offset: 0x353FCF, size: 0x8, addend: 0x0, symName: __ZNSt3__115allocate_sharedB8ne200100IN8facebook5react16ShadowNodeFamilyENS_9allocatorIS3_EEJRKNS2_24ShadowNodeFamilyFragmentERNS_10shared_ptrIKNS2_29PullToRefreshViewEventEmitterEEERKNS_8weak_ptrIKNS2_15EventDispatcherEEERKNS2_27ConcreteComponentDescriptorINS2_22ConcreteViewShadowNodeIXadL_ZNS2_30PullToRefreshViewComponentNameEEENS2_22PullToRefreshViewPropsESA_NS2_9StateDataEEEEEELi0EEENS9_IT_EERKT0_DpOT1_, symObjAddr: 0x38A4, symBinAddr: 0x2A70C, symSize: 0x78 }
  - { offset: 0x355491, size: 0x8, addend: 0x0, symName: __ZNSt3__115allocate_sharedB8ne200100IN8facebook5react22PullToRefreshViewPropsENS_9allocatorIS3_EEJRKNS2_18PropsParserContextERKS3_RKNS2_8RawPropsEELi0EEENS_10shared_ptrIT_EERKT0_DpOT1_, symObjAddr: 0x2E30, symBinAddr: 0x2A320, symSize: 0x70 }
  - { offset: 0x355C8B, size: 0x8, addend: 0x0, symName: __ZNSt3__112__destroy_atB8ne200100IN8facebook5react22PullToRefreshViewPropsELi0EEEvPT_, symObjAddr: 0x2F30, symBinAddr: 0x2A420, symSize: 0x4C }
  - { offset: 0x3564F6, size: 0x8, addend: 0x0, symName: __ZNSt3__112construct_atB8ne200100IN8facebook5react29PullToRefreshViewEventEmitterEJNS_10shared_ptrINS2_11EventTargetEEERKNS_8weak_ptrIKNS2_15EventDispatcherEEEEPS3_EEPT_SF_DpOT0_, symObjAddr: 0x32CC, symBinAddr: 0x2A560, symSize: 0x140 }
  - { offset: 0x357160, size: 0x8, addend: 0x0, symName: __ZNSt3__112construct_atB8ne200100IN8facebook5react16ShadowNodeFamilyEJRKNS2_24ShadowNodeFamilyFragmentERNS_10shared_ptrIKNS2_29PullToRefreshViewEventEmitterEEERKNS_8weak_ptrIKNS2_15EventDispatcherEEERKNS2_27ConcreteComponentDescriptorINS2_22ConcreteViewShadowNodeIXadL_ZNS2_30PullToRefreshViewComponentNameEEENS2_22PullToRefreshViewPropsES8_NS2_9StateDataEEEEEEPS3_EEPT_SS_DpOT0_, symObjAddr: 0x39AC, symBinAddr: 0x2A7D0, symSize: 0xDC }
  - { offset: 0x35C04E, size: 0x8, addend: 0x0, symName: __ZN8facebook5react18ConcreteShadowNodeIXadL_ZNS0_30PullToRefreshViewComponentNameEEENS0_24YogaLayoutableShadowNodeENS0_22PullToRefreshViewPropsENS0_29PullToRefreshViewEventEmitterENS0_9StateDataEE18defaultSharedPropsEv, symObjAddr: 0x804, symBinAddr: 0x29050, symSize: 0x9C }
  - { offset: 0x35C06E, size: 0x8, addend: 0x0, symName: __ZZN8facebook5react18ConcreteShadowNodeIXadL_ZNS0_30PullToRefreshViewComponentNameEEENS0_24YogaLayoutableShadowNodeENS0_22PullToRefreshViewPropsENS0_29PullToRefreshViewEventEmitterENS0_9StateDataEE18defaultSharedPropsEvE18defaultSharedProps, symObjAddr: 0x4EF8, symBinAddr: 0x9F6B8, symSize: 0x0 }
  - { offset: 0x35C401, size: 0x8, addend: 0x0, symName: '-[RCTPullToRefreshViewComponentView initWithFrame:]', symObjAddr: 0x0, symBinAddr: 0x28914, symSize: 0x90 }
  - { offset: 0x35C441, size: 0x8, addend: 0x0, symName: '-[RCTPullToRefreshViewComponentView _initializeUIRefreshControl]', symObjAddr: 0x90, symBinAddr: 0x289A4, symSize: 0x50 }
  - { offset: 0x35C4E6, size: 0x8, addend: 0x0, symName: '+[RCTPullToRefreshViewComponentView componentDescriptorProvider]', symObjAddr: 0xE0, symBinAddr: 0x289F4, symSize: 0x20 }
  - { offset: 0x35C519, size: 0x8, addend: 0x0, symName: '+[RCTPullToRefreshViewComponentView componentDescriptorProvider]', symObjAddr: 0xE0, symBinAddr: 0x289F4, symSize: 0x20 }
  - { offset: 0x35C61D, size: 0x8, addend: 0x0, symName: '-[RCTPullToRefreshViewComponentView prepareForRecycle]', symObjAddr: 0x100, symBinAddr: 0x28A14, symSize: 0xC0 }
  - { offset: 0x35CA5B, size: 0x8, addend: 0x0, symName: '-[RCTPullToRefreshViewComponentView updateProps:oldProps:]', symObjAddr: 0x224, symBinAddr: 0x28AD4, symSize: 0x218 }
  - { offset: 0x35CFEA, size: 0x8, addend: 0x0, symName: __ZNSt3__110shared_ptrIKN8facebook5react22PullToRefreshViewPropsEED1B8ne200100Ev, symObjAddr: 0x4A0, symBinAddr: 0x28CEC, symSize: 0x4 }
  - { offset: 0x35D00D, size: 0x8, addend: 0x0, symName: __ZNSt3__110shared_ptrIKN8facebook5react22PullToRefreshViewPropsEED1B8ne200100Ev, symObjAddr: 0x4A0, symBinAddr: 0x28CEC, symSize: 0x4 }
  - { offset: 0x35D08C, size: 0x8, addend: 0x0, symName: '-[RCTPullToRefreshViewComponentView handleUIControlEventValueChanged]', symObjAddr: 0x4A4, symBinAddr: 0x28CF0, symSize: 0x14 }
  - { offset: 0x35D0DE, size: 0x8, addend: 0x0, symName: '-[RCTPullToRefreshViewComponentView _updateProgressViewOffset:]', symObjAddr: 0x4B8, symBinAddr: 0x28D04, symSize: 0x6C }
  - { offset: 0x35D1A5, size: 0x8, addend: 0x0, symName: '-[RCTPullToRefreshViewComponentView _updateTitle]', symObjAddr: 0x524, symBinAddr: 0x28D70, symSize: 0x190 }
  - { offset: 0x35D431, size: 0x8, addend: 0x0, symName: '-[RCTPullToRefreshViewComponentView layoutSubviews]', symObjAddr: 0x6B4, symBinAddr: 0x28F00, symSize: 0x150 }
  - { offset: 0x35D7B9, size: 0x8, addend: 0x0, symName: '-[RCTPullToRefreshViewComponentView didMoveToSuperview]', symObjAddr: 0x8A0, symBinAddr: 0x290EC, symSize: 0x68 }
  - { offset: 0x35D7EA, size: 0x8, addend: 0x0, symName: '-[RCTPullToRefreshViewComponentView _attach]', symObjAddr: 0x908, symBinAddr: 0x29154, symSize: 0xE8 }
  - { offset: 0x35D81B, size: 0x8, addend: 0x0, symName: '-[RCTPullToRefreshViewComponentView _detach]', symObjAddr: 0x9F0, symBinAddr: 0x2923C, symSize: 0xAC }
  - { offset: 0x35D84C, size: 0x8, addend: 0x0, symName: '-[RCTPullToRefreshViewComponentView beginRefreshingProgrammatically]', symObjAddr: 0xA9C, symBinAddr: 0x292E8, symSize: 0xF4 }
  - { offset: 0x35D89D, size: 0x8, addend: 0x0, symName: '-[RCTPullToRefreshViewComponentView handleCommand:args:]', symObjAddr: 0xB90, symBinAddr: 0x293DC, symSize: 0xC }
  - { offset: 0x35D90F, size: 0x8, addend: 0x0, symName: _RCTPullToRefreshViewHandleCommand, symObjAddr: 0xB9C, symBinAddr: 0x293E8, symSize: 0xAC }
  - { offset: 0x35D98B, size: 0x8, addend: 0x0, symName: '-[RCTPullToRefreshViewComponentView setNativeRefreshing:]', symObjAddr: 0xC48, symBinAddr: 0x29494, symSize: 0x18 }
  - { offset: 0x35D9CF, size: 0x8, addend: 0x0, symName: '-[RCTPullToRefreshViewComponentView setRefreshing:]', symObjAddr: 0xC60, symBinAddr: 0x294AC, symSize: 0x4 }
  - { offset: 0x35DA12, size: 0x8, addend: 0x0, symName: '-[RCTPullToRefreshViewComponentView componentViewName_DO_NOT_USE_THIS_IS_BROKEN]', symObjAddr: 0xC64, symBinAddr: 0x294B0, symSize: 0xC }
  - { offset: 0x35DA43, size: 0x8, addend: 0x0, symName: '-[RCTPullToRefreshViewComponentView .cxx_destruct]', symObjAddr: 0xC70, symBinAddr: 0x294BC, symSize: 0x3C }
  - { offset: 0x35DA74, size: 0x8, addend: 0x0, symName: _RCTPullToRefreshViewCls, symObjAddr: 0xCAC, symBinAddr: 0x294F8, symSize: 0xC }
  - { offset: 0x35DF99, size: 0x8, addend: 0x0, symName: __ZN8facebook5react14RawPropsParser7prepareINS0_22PullToRefreshViewPropsEEEvv, symObjAddr: 0xE68, symBinAddr: 0x2960C, symSize: 0x2B0 }
  - { offset: 0x35F58D, size: 0x8, addend: 0x0, symName: __ZN8facebook5react22PullToRefreshViewPropsC1Ev, symObjAddr: 0x16A0, symBinAddr: 0x29E34, symSize: 0xC0 }
  - { offset: 0x35FF13, size: 0x8, addend: 0x0, symName: __ZN8facebook5react27ConcreteComponentDescriptorINS0_22ConcreteViewShadowNodeIXadL_ZNS0_30PullToRefreshViewComponentNameEEENS0_22PullToRefreshViewPropsENS0_29PullToRefreshViewEventEmitterENS0_9StateDataEEEED1Ev, symObjAddr: 0x1118, symBinAddr: 0x298BC, symSize: 0x4 }
  - { offset: 0x35FF35, size: 0x8, addend: 0x0, symName: __ZN8facebook5react27ConcreteComponentDescriptorINS0_22ConcreteViewShadowNodeIXadL_ZNS0_30PullToRefreshViewComponentNameEEENS0_22PullToRefreshViewPropsENS0_29PullToRefreshViewEventEmitterENS0_9StateDataEEEED1Ev, symObjAddr: 0x1118, symBinAddr: 0x298BC, symSize: 0x4 }
  - { offset: 0x35FF52, size: 0x8, addend: 0x0, symName: __ZN8facebook5react27ConcreteComponentDescriptorINS0_22ConcreteViewShadowNodeIXadL_ZNS0_30PullToRefreshViewComponentNameEEENS0_22PullToRefreshViewPropsENS0_29PullToRefreshViewEventEmitterENS0_9StateDataEEEED1Ev, symObjAddr: 0x1118, symBinAddr: 0x298BC, symSize: 0x4 }
  - { offset: 0x36022A, size: 0x8, addend: 0x0, symName: __ZN8facebook5react27ConcreteComponentDescriptorINS0_22ConcreteViewShadowNodeIXadL_ZNS0_30PullToRefreshViewComponentNameEEENS0_22PullToRefreshViewPropsENS0_29PullToRefreshViewEventEmitterENS0_9StateDataEEEED0Ev, symObjAddr: 0x111C, symBinAddr: 0x298C0, symSize: 0x14 }
  - { offset: 0x3602A3, size: 0x8, addend: 0x0, symName: __ZNK8facebook5react27ConcreteComponentDescriptorINS0_22ConcreteViewShadowNodeIXadL_ZNS0_30PullToRefreshViewComponentNameEEENS0_22PullToRefreshViewPropsENS0_29PullToRefreshViewEventEmitterENS0_9StateDataEEEE18getComponentHandleEv, symObjAddr: 0x1130, symBinAddr: 0x298D4, symSize: 0xC }
  - { offset: 0x3602C9, size: 0x8, addend: 0x0, symName: __ZNK8facebook5react27ConcreteComponentDescriptorINS0_22ConcreteViewShadowNodeIXadL_ZNS0_30PullToRefreshViewComponentNameEEENS0_22PullToRefreshViewPropsENS0_29PullToRefreshViewEventEmitterENS0_9StateDataEEEE16getComponentNameEv, symObjAddr: 0x113C, symBinAddr: 0x298E0, symSize: 0xC }
  - { offset: 0x3602EF, size: 0x8, addend: 0x0, symName: __ZNK8facebook5react27ConcreteComponentDescriptorINS0_22ConcreteViewShadowNodeIXadL_ZNS0_30PullToRefreshViewComponentNameEEENS0_22PullToRefreshViewPropsENS0_29PullToRefreshViewEventEmitterENS0_9StateDataEEEE9getTraitsEv, symObjAddr: 0x1148, symBinAddr: 0x298EC, symSize: 0x8 }
  - { offset: 0x3603E5, size: 0x8, addend: 0x0, symName: __ZNK8facebook5react27ConcreteComponentDescriptorINS0_22ConcreteViewShadowNodeIXadL_ZNS0_30PullToRefreshViewComponentNameEEENS0_22PullToRefreshViewPropsENS0_29PullToRefreshViewEventEmitterENS0_9StateDataEEEE16createShadowNodeERKNS0_18ShadowNodeFragmentERKNSt3__110shared_ptrIKNS0_16ShadowNodeFamilyEEE, symObjAddr: 0x1150, symBinAddr: 0x298F4, symSize: 0x90 }
  - { offset: 0x36065D, size: 0x8, addend: 0x0, symName: __ZNK8facebook5react27ConcreteComponentDescriptorINS0_22ConcreteViewShadowNodeIXadL_ZNS0_30PullToRefreshViewComponentNameEEENS0_22PullToRefreshViewPropsENS0_29PullToRefreshViewEventEmitterENS0_9StateDataEEEE15cloneShadowNodeERKNS0_10ShadowNodeERKNS0_18ShadowNodeFragmentE, symObjAddr: 0x11E0, symBinAddr: 0x29984, symSize: 0x104 }
  - { offset: 0x3609C3, size: 0x8, addend: 0x0, symName: __ZNK8facebook5react27ConcreteComponentDescriptorINS0_22ConcreteViewShadowNodeIXadL_ZNS0_30PullToRefreshViewComponentNameEEENS0_22PullToRefreshViewPropsENS0_29PullToRefreshViewEventEmitterENS0_9StateDataEEEE11appendChildERKNSt3__110shared_ptrIKNS0_10ShadowNodeEEESE_, symObjAddr: 0x12E4, symBinAddr: 0x29A88, symSize: 0x14 }
  - { offset: 0x360A19, size: 0x8, addend: 0x0, symName: __ZNK8facebook5react27ConcreteComponentDescriptorINS0_22ConcreteViewShadowNodeIXadL_ZNS0_30PullToRefreshViewComponentNameEEENS0_22PullToRefreshViewPropsENS0_29PullToRefreshViewEventEmitterENS0_9StateDataEEEE11appendChildERKNSt3__110shared_ptrIKNS0_10ShadowNodeEEESE_, symObjAddr: 0x12E4, symBinAddr: 0x29A88, symSize: 0x14 }
  - { offset: 0x3611F2, size: 0x8, addend: 0x0, symName: __ZNK8facebook5react27ConcreteComponentDescriptorINS0_22ConcreteViewShadowNodeIXadL_ZNS0_30PullToRefreshViewComponentNameEEENS0_22PullToRefreshViewPropsENS0_29PullToRefreshViewEventEmitterENS0_9StateDataEEEE10clonePropsERKNS0_18PropsParserContextERKNSt3__110shared_ptrIKNS0_5PropsEEENS0_8RawPropsE, symObjAddr: 0x12F8, symBinAddr: 0x29A9C, symSize: 0x21C }
  - { offset: 0x361D16, size: 0x8, addend: 0x0, symName: __ZN8facebook5react18ConcreteShadowNodeIXadL_ZNS0_30PullToRefreshViewComponentNameEEENS0_24YogaLayoutableShadowNodeENS0_22PullToRefreshViewPropsENS0_29PullToRefreshViewEventEmitterENS0_9StateDataEE5PropsERKNS0_18PropsParserContextERKNS0_8RawPropsERKNSt3__110shared_ptrIKNS0_5PropsEEE, symObjAddr: 0x2DD8, symBinAddr: 0x2A2C8, symSize: 0x58 }
  - { offset: 0x361F74, size: 0x8, addend: 0x0, symName: __ZNK8facebook5react27ConcreteComponentDescriptorINS0_22ConcreteViewShadowNodeIXadL_ZNS0_30PullToRefreshViewComponentNameEEENS0_22PullToRefreshViewPropsENS0_29PullToRefreshViewEventEmitterENS0_9StateDataEEEE18createInitialStateERKNSt3__110shared_ptrIKNS0_5PropsEEERKNS9_IKNS0_16ShadowNodeFamilyEEE, symObjAddr: 0x1514, symBinAddr: 0x29CB8, symSize: 0x8 }
  - { offset: 0x361FB7, size: 0x8, addend: 0x0, symName: __ZNK8facebook5react27ConcreteComponentDescriptorINS0_22ConcreteViewShadowNodeIXadL_ZNS0_30PullToRefreshViewComponentNameEEENS0_22PullToRefreshViewPropsENS0_29PullToRefreshViewEventEmitterENS0_9StateDataEEEE18createInitialStateERKNSt3__110shared_ptrIKNS0_5PropsEEERKNS9_IKNS0_16ShadowNodeFamilyEEE, symObjAddr: 0x1514, symBinAddr: 0x29CB8, symSize: 0x8 }
  - { offset: 0x361FD9, size: 0x8, addend: 0x0, symName: __ZNK8facebook5react27ConcreteComponentDescriptorINS0_22ConcreteViewShadowNodeIXadL_ZNS0_30PullToRefreshViewComponentNameEEENS0_22PullToRefreshViewPropsENS0_29PullToRefreshViewEventEmitterENS0_9StateDataEEEE18createInitialStateERKNSt3__110shared_ptrIKNS0_5PropsEEERKNS9_IKNS0_16ShadowNodeFamilyEEE, symObjAddr: 0x1514, symBinAddr: 0x29CB8, symSize: 0x8 }
  - { offset: 0x361FFC, size: 0x8, addend: 0x0, symName: __ZNK8facebook5react27ConcreteComponentDescriptorINS0_22ConcreteViewShadowNodeIXadL_ZNS0_30PullToRefreshViewComponentNameEEENS0_22PullToRefreshViewPropsENS0_29PullToRefreshViewEventEmitterENS0_9StateDataEEEE11createStateERKNS0_16ShadowNodeFamilyERKNSt3__110shared_ptrIKvEE, symObjAddr: 0x151C, symBinAddr: 0x29CC0, symSize: 0x8 }
  - { offset: 0x36203F, size: 0x8, addend: 0x0, symName: __ZNK8facebook5react27ConcreteComponentDescriptorINS0_22ConcreteViewShadowNodeIXadL_ZNS0_30PullToRefreshViewComponentNameEEENS0_22PullToRefreshViewPropsENS0_29PullToRefreshViewEventEmitterENS0_9StateDataEEEE11createStateERKNS0_16ShadowNodeFamilyERKNSt3__110shared_ptrIKvEE, symObjAddr: 0x151C, symBinAddr: 0x29CC0, symSize: 0x8 }
  - { offset: 0x362061, size: 0x8, addend: 0x0, symName: __ZNK8facebook5react27ConcreteComponentDescriptorINS0_22ConcreteViewShadowNodeIXadL_ZNS0_30PullToRefreshViewComponentNameEEENS0_22PullToRefreshViewPropsENS0_29PullToRefreshViewEventEmitterENS0_9StateDataEEEE11createStateERKNS0_16ShadowNodeFamilyERKNSt3__110shared_ptrIKvEE, symObjAddr: 0x151C, symBinAddr: 0x29CC0, symSize: 0x8 }
  - { offset: 0x362289, size: 0x8, addend: 0x0, symName: __ZNK8facebook5react27ConcreteComponentDescriptorINS0_22ConcreteViewShadowNodeIXadL_ZNS0_30PullToRefreshViewComponentNameEEENS0_22PullToRefreshViewPropsENS0_29PullToRefreshViewEventEmitterENS0_9StateDataEEEE12createFamilyERKNS0_24ShadowNodeFamilyFragmentE, symObjAddr: 0x1524, symBinAddr: 0x29CC8, symSize: 0x168 }
  - { offset: 0x3627E5, size: 0x8, addend: 0x0, symName: __ZNK8facebook5react27ConcreteComponentDescriptorINS0_22ConcreteViewShadowNodeIXadL_ZNS0_30PullToRefreshViewComponentNameEEENS0_22PullToRefreshViewPropsENS0_29PullToRefreshViewEventEmitterENS0_9StateDataEEEE5adoptERNS0_10ShadowNodeE, symObjAddr: 0x168C, symBinAddr: 0x29E30, symSize: 0x4 }
  - { offset: 0x363D38, size: 0x8, addend: 0x0, symName: __ZN8facebook5react22PullToRefreshViewPropsD1Ev, symObjAddr: 0x1760, symBinAddr: 0x29EF4, symSize: 0x4C }
  - { offset: 0x366718, size: 0x8, addend: 0x0, symName: __ZN8facebook5react22PullToRefreshViewPropsD0Ev, symObjAddr: 0x1CC8, symBinAddr: 0x29F40, symSize: 0x50 }
  - { offset: 0x368632, size: 0x8, addend: 0x0, symName: __ZNSt3__120__shared_ptr_emplaceIN8facebook5react22ConcreteViewShadowNodeIXadL_ZNS2_30PullToRefreshViewComponentNameEEENS2_22PullToRefreshViewPropsENS2_29PullToRefreshViewEventEmitterENS2_9StateDataEEENS_9allocatorIS7_EEEC2B8ne200100IJRKNS2_18ShadowNodeFragmentERKNS_10shared_ptrIKNS2_16ShadowNodeFamilyEEENS2_16ShadowNodeTraitsEES9_Li0EEES9_DpOT_, symObjAddr: 0x27C8, symBinAddr: 0x2A000, symSize: 0x68 }
  - { offset: 0x368A3D, size: 0x8, addend: 0x0, symName: __ZNSt3__120__shared_ptr_emplaceIN8facebook5react22ConcreteViewShadowNodeIXadL_ZNS2_30PullToRefreshViewComponentNameEEENS2_22PullToRefreshViewPropsENS2_29PullToRefreshViewEventEmitterENS2_9StateDataEEENS_9allocatorIS7_EEED1Ev, symObjAddr: 0x2830, symBinAddr: 0x2A068, symSize: 0x14 }
  - { offset: 0x368A5F, size: 0x8, addend: 0x0, symName: __ZNSt3__120__shared_ptr_emplaceIN8facebook5react22ConcreteViewShadowNodeIXadL_ZNS2_30PullToRefreshViewComponentNameEEENS2_22PullToRefreshViewPropsENS2_29PullToRefreshViewEventEmitterENS2_9StateDataEEENS_9allocatorIS7_EEED1Ev, symObjAddr: 0x2830, symBinAddr: 0x2A068, symSize: 0x14 }
  - { offset: 0x368A93, size: 0x8, addend: 0x0, symName: __ZNSt3__120__shared_ptr_emplaceIN8facebook5react22ConcreteViewShadowNodeIXadL_ZNS2_30PullToRefreshViewComponentNameEEENS2_22PullToRefreshViewPropsENS2_29PullToRefreshViewEventEmitterENS2_9StateDataEEENS_9allocatorIS7_EEED0Ev, symObjAddr: 0x2844, symBinAddr: 0x2A07C, symSize: 0x24 }
  - { offset: 0x368B60, size: 0x8, addend: 0x0, symName: __ZNSt3__120__shared_ptr_emplaceIN8facebook5react22ConcreteViewShadowNodeIXadL_ZNS2_30PullToRefreshViewComponentNameEEENS2_22PullToRefreshViewPropsENS2_29PullToRefreshViewEventEmitterENS2_9StateDataEEENS_9allocatorIS7_EEE16__on_zero_sharedEv, symObjAddr: 0x2868, symBinAddr: 0x2A0A0, symSize: 0xC }
  - { offset: 0x368B88, size: 0x8, addend: 0x0, symName: __ZNSt3__120__shared_ptr_emplaceIN8facebook5react22ConcreteViewShadowNodeIXadL_ZNS2_30PullToRefreshViewComponentNameEEENS2_22PullToRefreshViewPropsENS2_29PullToRefreshViewEventEmitterENS2_9StateDataEEENS_9allocatorIS7_EEE16__on_zero_sharedEv, symObjAddr: 0x2868, symBinAddr: 0x2A0A0, symSize: 0xC }
  - { offset: 0x368BA6, size: 0x8, addend: 0x0, symName: __ZNSt3__120__shared_ptr_emplaceIN8facebook5react22ConcreteViewShadowNodeIXadL_ZNS2_30PullToRefreshViewComponentNameEEENS2_22PullToRefreshViewPropsENS2_29PullToRefreshViewEventEmitterENS2_9StateDataEEENS_9allocatorIS7_EEE16__on_zero_sharedEv, symObjAddr: 0x2868, symBinAddr: 0x2A0A0, symSize: 0xC }
  - { offset: 0x368BC4, size: 0x8, addend: 0x0, symName: __ZNSt3__120__shared_ptr_emplaceIN8facebook5react22ConcreteViewShadowNodeIXadL_ZNS2_30PullToRefreshViewComponentNameEEENS2_22PullToRefreshViewPropsENS2_29PullToRefreshViewEventEmitterENS2_9StateDataEEENS_9allocatorIS7_EEE16__on_zero_sharedEv, symObjAddr: 0x2868, symBinAddr: 0x2A0A0, symSize: 0xC }
  - { offset: 0x368BF0, size: 0x8, addend: 0x0, symName: __ZNSt3__120__shared_ptr_emplaceIN8facebook5react22ConcreteViewShadowNodeIXadL_ZNS2_30PullToRefreshViewComponentNameEEENS2_22PullToRefreshViewPropsENS2_29PullToRefreshViewEventEmitterENS2_9StateDataEEENS_9allocatorIS7_EEE21__on_zero_shared_weakEv, symObjAddr: 0x2874, symBinAddr: 0x2A0AC, symSize: 0x4 }
  - { offset: 0x368C23, size: 0x8, addend: 0x0, symName: __ZNSt3__120__shared_ptr_emplaceIN8facebook5react22ConcreteViewShadowNodeIXadL_ZNS2_30PullToRefreshViewComponentNameEEENS2_22PullToRefreshViewPropsENS2_29PullToRefreshViewEventEmitterENS2_9StateDataEEENS_9allocatorIS7_EEE21__on_zero_shared_weakEv, symObjAddr: 0x2874, symBinAddr: 0x2A0AC, symSize: 0x4 }
  - { offset: 0x368C45, size: 0x8, addend: 0x0, symName: __ZNSt3__120__shared_ptr_emplaceIN8facebook5react22ConcreteViewShadowNodeIXadL_ZNS2_30PullToRefreshViewComponentNameEEENS2_22PullToRefreshViewPropsENS2_29PullToRefreshViewEventEmitterENS2_9StateDataEEENS_9allocatorIS7_EEE21__on_zero_shared_weakEv, symObjAddr: 0x2874, symBinAddr: 0x2A0AC, symSize: 0x4 }
  - { offset: 0x368C68, size: 0x8, addend: 0x0, symName: __ZNSt3__120__shared_ptr_emplaceIN8facebook5react22ConcreteViewShadowNodeIXadL_ZNS2_30PullToRefreshViewComponentNameEEENS2_22PullToRefreshViewPropsENS2_29PullToRefreshViewEventEmitterENS2_9StateDataEEENS_9allocatorIS7_EEE21__on_zero_shared_weakEv, symObjAddr: 0x2874, symBinAddr: 0x2A0AC, symSize: 0x4 }
  - { offset: 0x368C9F, size: 0x8, addend: 0x0, symName: __ZNSt3__120__shared_ptr_emplaceIN8facebook5react22ConcreteViewShadowNodeIXadL_ZNS2_30PullToRefreshViewComponentNameEEENS2_22PullToRefreshViewPropsENS2_29PullToRefreshViewEventEmitterENS2_9StateDataEEENS_9allocatorIS7_EEE21__on_zero_shared_weakEv, symObjAddr: 0x2874, symBinAddr: 0x2A0AC, symSize: 0x4 }
  - { offset: 0x368F6C, size: 0x8, addend: 0x0, symName: __ZN8facebook5react22ConcreteViewShadowNodeIXadL_ZNS0_30PullToRefreshViewComponentNameEEENS0_22PullToRefreshViewPropsENS0_29PullToRefreshViewEventEmitterENS0_9StateDataEED1Ev, symObjAddr: 0x28E4, symBinAddr: 0x2A0B0, symSize: 0x70 }
  - { offset: 0x3694D0, size: 0x8, addend: 0x0, symName: __ZN8facebook5react22ConcreteViewShadowNodeIXadL_ZNS0_30PullToRefreshViewComponentNameEEENS0_22PullToRefreshViewPropsENS0_29PullToRefreshViewEventEmitterENS0_9StateDataEED0Ev, symObjAddr: 0x2954, symBinAddr: 0x2A120, symSize: 0x74 }
  - { offset: 0x3698A9, size: 0x8, addend: 0x0, symName: __ZNK8facebook5react22ConcreteViewShadowNodeIXadL_ZNS0_30PullToRefreshViewComponentNameEEENS0_22PullToRefreshViewPropsENS0_29PullToRefreshViewEventEmitterENS0_9StateDataEE12getTransformEv, symObjAddr: 0x29C8, symBinAddr: 0x2A194, symSize: 0x40 }
  - { offset: 0x369918, size: 0x8, addend: 0x0, symName: __ZNK8facebook5react22ConcreteViewShadowNodeIXadL_ZNS0_30PullToRefreshViewComponentNameEEENS0_22PullToRefreshViewPropsENS0_29PullToRefreshViewEventEmitterENS0_9StateDataEE16canBeTouchTargetEv, symObjAddr: 0x2A08, symBinAddr: 0x2A1D4, symSize: 0x18 }
  - { offset: 0x369950, size: 0x8, addend: 0x0, symName: __ZNK8facebook5react22ConcreteViewShadowNodeIXadL_ZNS0_30PullToRefreshViewComponentNameEEENS0_22PullToRefreshViewPropsENS0_29PullToRefreshViewEventEmitterENS0_9StateDataEE16canBeTouchTargetEv, symObjAddr: 0x2A08, symBinAddr: 0x2A1D4, symSize: 0x18 }
  - { offset: 0x36996B, size: 0x8, addend: 0x0, symName: __ZNK8facebook5react22ConcreteViewShadowNodeIXadL_ZNS0_30PullToRefreshViewComponentNameEEENS0_22PullToRefreshViewPropsENS0_29PullToRefreshViewEventEmitterENS0_9StateDataEE16canBeTouchTargetEv, symObjAddr: 0x2A08, symBinAddr: 0x2A1D4, symSize: 0x18 }
  - { offset: 0x369988, size: 0x8, addend: 0x0, symName: __ZNK8facebook5react22ConcreteViewShadowNodeIXadL_ZNS0_30PullToRefreshViewComponentNameEEENS0_22PullToRefreshViewPropsENS0_29PullToRefreshViewEventEmitterENS0_9StateDataEE24canChildrenBeTouchTargetEv, symObjAddr: 0x2A20, symBinAddr: 0x2A1EC, symSize: 0x18 }
  - { offset: 0x3699BC, size: 0x8, addend: 0x0, symName: __ZNK8facebook5react22ConcreteViewShadowNodeIXadL_ZNS0_30PullToRefreshViewComponentNameEEENS0_22PullToRefreshViewPropsENS0_29PullToRefreshViewEventEmitterENS0_9StateDataEE24canChildrenBeTouchTargetEv, symObjAddr: 0x2A20, symBinAddr: 0x2A1EC, symSize: 0x18 }
  - { offset: 0x3699D7, size: 0x8, addend: 0x0, symName: __ZNK8facebook5react22ConcreteViewShadowNodeIXadL_ZNS0_30PullToRefreshViewComponentNameEEENS0_22PullToRefreshViewPropsENS0_29PullToRefreshViewEventEmitterENS0_9StateDataEE24canChildrenBeTouchTargetEv, symObjAddr: 0x2A20, symBinAddr: 0x2A1EC, symSize: 0x18 }
  - { offset: 0x369D4C, size: 0x8, addend: 0x0, symName: __ZNSt3__120__shared_ptr_emplaceIN8facebook5react22ConcreteViewShadowNodeIXadL_ZNS2_30PullToRefreshViewComponentNameEEENS2_22PullToRefreshViewPropsENS2_29PullToRefreshViewEventEmitterENS2_9StateDataEEENS_9allocatorIS7_EEEC2B8ne200100IJRKNS2_10ShadowNodeERKNS2_18ShadowNodeFragmentEES9_Li0EEES9_DpOT_, symObjAddr: 0x2D1C, symBinAddr: 0x2A264, symSize: 0x64 }
  - { offset: 0x36A257, size: 0x8, addend: 0x0, symName: __ZNSt3__120__shared_ptr_emplaceIN8facebook5react22PullToRefreshViewPropsENS_9allocatorIS3_EEEC2B8ne200100IJRKNS2_18PropsParserContextERKS3_RKNS2_8RawPropsEES5_Li0EEES5_DpOT_, symObjAddr: 0x2EA0, symBinAddr: 0x2A390, symSize: 0x4C }
  - { offset: 0x36A445, size: 0x8, addend: 0x0, symName: __ZNSt3__120__shared_ptr_emplaceIN8facebook5react22PullToRefreshViewPropsENS_9allocatorIS3_EEED1Ev, symObjAddr: 0x2EEC, symBinAddr: 0x2A3DC, symSize: 0x14 }
  - { offset: 0x36A467, size: 0x8, addend: 0x0, symName: __ZNSt3__120__shared_ptr_emplaceIN8facebook5react22PullToRefreshViewPropsENS_9allocatorIS3_EEED1Ev, symObjAddr: 0x2EEC, symBinAddr: 0x2A3DC, symSize: 0x14 }
  - { offset: 0x36A49B, size: 0x8, addend: 0x0, symName: __ZNSt3__120__shared_ptr_emplaceIN8facebook5react22PullToRefreshViewPropsENS_9allocatorIS3_EEED0Ev, symObjAddr: 0x2F00, symBinAddr: 0x2A3F0, symSize: 0x24 }
  - { offset: 0x36A568, size: 0x8, addend: 0x0, symName: __ZNSt3__120__shared_ptr_emplaceIN8facebook5react22PullToRefreshViewPropsENS_9allocatorIS3_EEE16__on_zero_sharedEv, symObjAddr: 0x2F24, symBinAddr: 0x2A414, symSize: 0x8 }
  - { offset: 0x36A590, size: 0x8, addend: 0x0, symName: __ZNSt3__120__shared_ptr_emplaceIN8facebook5react22PullToRefreshViewPropsENS_9allocatorIS3_EEE16__on_zero_sharedEv, symObjAddr: 0x2F24, symBinAddr: 0x2A414, symSize: 0x8 }
  - { offset: 0x36A5AE, size: 0x8, addend: 0x0, symName: __ZNSt3__120__shared_ptr_emplaceIN8facebook5react22PullToRefreshViewPropsENS_9allocatorIS3_EEE16__on_zero_sharedEv, symObjAddr: 0x2F24, symBinAddr: 0x2A414, symSize: 0x8 }
  - { offset: 0x36A5EC, size: 0x8, addend: 0x0, symName: __ZNSt3__120__shared_ptr_emplaceIN8facebook5react22PullToRefreshViewPropsENS_9allocatorIS3_EEE21__on_zero_shared_weakEv, symObjAddr: 0x2F2C, symBinAddr: 0x2A41C, symSize: 0x4 }
  - { offset: 0x36A61F, size: 0x8, addend: 0x0, symName: __ZNSt3__120__shared_ptr_emplaceIN8facebook5react22PullToRefreshViewPropsENS_9allocatorIS3_EEE21__on_zero_shared_weakEv, symObjAddr: 0x2F2C, symBinAddr: 0x2A41C, symSize: 0x4 }
  - { offset: 0x36A641, size: 0x8, addend: 0x0, symName: __ZNSt3__120__shared_ptr_emplaceIN8facebook5react22PullToRefreshViewPropsENS_9allocatorIS3_EEE21__on_zero_shared_weakEv, symObjAddr: 0x2F2C, symBinAddr: 0x2A41C, symSize: 0x4 }
  - { offset: 0x36A664, size: 0x8, addend: 0x0, symName: __ZNSt3__120__shared_ptr_emplaceIN8facebook5react22PullToRefreshViewPropsENS_9allocatorIS3_EEE21__on_zero_shared_weakEv, symObjAddr: 0x2F2C, symBinAddr: 0x2A41C, symSize: 0x4 }
  - { offset: 0x36A69B, size: 0x8, addend: 0x0, symName: __ZNSt3__120__shared_ptr_emplaceIN8facebook5react22PullToRefreshViewPropsENS_9allocatorIS3_EEE21__on_zero_shared_weakEv, symObjAddr: 0x2F2C, symBinAddr: 0x2A41C, symSize: 0x4 }
  - { offset: 0x36AD2D, size: 0x8, addend: 0x0, symName: __ZNSt3__120__shared_ptr_emplaceIKN8facebook5react29PullToRefreshViewEventEmitterENS_9allocatorIS3_EEEC2B8ne200100IJNS_10shared_ptrINS2_11EventTargetEEERKNS_8weak_ptrIKNS2_15EventDispatcherEEEES6_Li0EEES6_DpOT_, symObjAddr: 0x3238, symBinAddr: 0x2A4CC, symSize: 0x4C }
  - { offset: 0x36AED7, size: 0x8, addend: 0x0, symName: __ZNSt3__120__shared_ptr_emplaceIKN8facebook5react29PullToRefreshViewEventEmitterENS_9allocatorIS3_EEED1Ev, symObjAddr: 0x3284, symBinAddr: 0x2A518, symSize: 0x14 }
  - { offset: 0x36AEF9, size: 0x8, addend: 0x0, symName: __ZNSt3__120__shared_ptr_emplaceIKN8facebook5react29PullToRefreshViewEventEmitterENS_9allocatorIS3_EEED1Ev, symObjAddr: 0x3284, symBinAddr: 0x2A518, symSize: 0x14 }
  - { offset: 0x36AF2D, size: 0x8, addend: 0x0, symName: __ZNSt3__120__shared_ptr_emplaceIKN8facebook5react29PullToRefreshViewEventEmitterENS_9allocatorIS3_EEED0Ev, symObjAddr: 0x3298, symBinAddr: 0x2A52C, symSize: 0x24 }
  - { offset: 0x36AFFA, size: 0x8, addend: 0x0, symName: __ZNSt3__120__shared_ptr_emplaceIKN8facebook5react29PullToRefreshViewEventEmitterENS_9allocatorIS3_EEE16__on_zero_sharedEv, symObjAddr: 0x32BC, symBinAddr: 0x2A550, symSize: 0xC }
  - { offset: 0x36B022, size: 0x8, addend: 0x0, symName: __ZNSt3__120__shared_ptr_emplaceIKN8facebook5react29PullToRefreshViewEventEmitterENS_9allocatorIS3_EEE16__on_zero_sharedEv, symObjAddr: 0x32BC, symBinAddr: 0x2A550, symSize: 0xC }
  - { offset: 0x36B040, size: 0x8, addend: 0x0, symName: __ZNSt3__120__shared_ptr_emplaceIKN8facebook5react29PullToRefreshViewEventEmitterENS_9allocatorIS3_EEE16__on_zero_sharedEv, symObjAddr: 0x32BC, symBinAddr: 0x2A550, symSize: 0xC }
  - { offset: 0x36B05E, size: 0x8, addend: 0x0, symName: __ZNSt3__120__shared_ptr_emplaceIKN8facebook5react29PullToRefreshViewEventEmitterENS_9allocatorIS3_EEE16__on_zero_sharedEv, symObjAddr: 0x32BC, symBinAddr: 0x2A550, symSize: 0xC }
  - { offset: 0x36B08A, size: 0x8, addend: 0x0, symName: __ZNSt3__120__shared_ptr_emplaceIKN8facebook5react29PullToRefreshViewEventEmitterENS_9allocatorIS3_EEE21__on_zero_shared_weakEv, symObjAddr: 0x32C8, symBinAddr: 0x2A55C, symSize: 0x4 }
  - { offset: 0x36B0BD, size: 0x8, addend: 0x0, symName: __ZNSt3__120__shared_ptr_emplaceIKN8facebook5react29PullToRefreshViewEventEmitterENS_9allocatorIS3_EEE21__on_zero_shared_weakEv, symObjAddr: 0x32C8, symBinAddr: 0x2A55C, symSize: 0x4 }
  - { offset: 0x36B0DF, size: 0x8, addend: 0x0, symName: __ZNSt3__120__shared_ptr_emplaceIKN8facebook5react29PullToRefreshViewEventEmitterENS_9allocatorIS3_EEE21__on_zero_shared_weakEv, symObjAddr: 0x32C8, symBinAddr: 0x2A55C, symSize: 0x4 }
  - { offset: 0x36B102, size: 0x8, addend: 0x0, symName: __ZNSt3__120__shared_ptr_emplaceIKN8facebook5react29PullToRefreshViewEventEmitterENS_9allocatorIS3_EEE21__on_zero_shared_weakEv, symObjAddr: 0x32C8, symBinAddr: 0x2A55C, symSize: 0x4 }
  - { offset: 0x36B138, size: 0x8, addend: 0x0, symName: __ZNSt3__120__shared_ptr_emplaceIKN8facebook5react29PullToRefreshViewEventEmitterENS_9allocatorIS3_EEE21__on_zero_shared_weakEv, symObjAddr: 0x32C8, symBinAddr: 0x2A55C, symSize: 0x4 }
  - { offset: 0x36B673, size: 0x8, addend: 0x0, symName: __ZN8facebook5react29PullToRefreshViewEventEmitterD1Ev, symObjAddr: 0x340C, symBinAddr: 0x2A6A0, symSize: 0x34 }
  - { offset: 0x36B79F, size: 0x8, addend: 0x0, symName: __ZN8facebook5react29PullToRefreshViewEventEmitterD0Ev, symObjAddr: 0x3440, symBinAddr: 0x2A6D4, symSize: 0x38 }
  - { offset: 0x36BEDE, size: 0x8, addend: 0x0, symName: __ZNSt3__120__shared_ptr_emplaceIN8facebook5react16ShadowNodeFamilyENS_9allocatorIS3_EEEC2B8ne200100IJRKNS2_24ShadowNodeFamilyFragmentERNS_10shared_ptrIKNS2_29PullToRefreshViewEventEmitterEEERKNS_8weak_ptrIKNS2_15EventDispatcherEEERKNS2_27ConcreteComponentDescriptorINS2_22ConcreteViewShadowNodeIXadL_ZNS2_30PullToRefreshViewComponentNameEEENS2_22PullToRefreshViewPropsESC_NS2_9StateDataEEEEEES5_Li0EEES5_DpOT_, symObjAddr: 0x391C, symBinAddr: 0x2A784, symSize: 0x4C }
  - { offset: 0x36C3EB, size: 0x8, addend: 0x0, symName: __ZNSt3__120__shared_ptr_emplaceIKN8facebook5react22PullToRefreshViewPropsENS_9allocatorIS3_EEEC2B8ne200100IJES6_Li0EEES6_DpOT_, symObjAddr: 0x3C30, symBinAddr: 0x2A8F4, symSize: 0x58 }
  - { offset: 0x36C538, size: 0x8, addend: 0x0, symName: __ZNSt3__120__shared_ptr_emplaceIKN8facebook5react22PullToRefreshViewPropsENS_9allocatorIS3_EEED1Ev, symObjAddr: 0x3C88, symBinAddr: 0x2A94C, symSize: 0x14 }
  - { offset: 0x36C55A, size: 0x8, addend: 0x0, symName: __ZNSt3__120__shared_ptr_emplaceIKN8facebook5react22PullToRefreshViewPropsENS_9allocatorIS3_EEED1Ev, symObjAddr: 0x3C88, symBinAddr: 0x2A94C, symSize: 0x14 }
  - { offset: 0x36C58E, size: 0x8, addend: 0x0, symName: __ZNSt3__120__shared_ptr_emplaceIKN8facebook5react22PullToRefreshViewPropsENS_9allocatorIS3_EEED0Ev, symObjAddr: 0x3C9C, symBinAddr: 0x2A960, symSize: 0x24 }
  - { offset: 0x36C62C, size: 0x8, addend: 0x0, symName: __ZNSt3__120__shared_ptr_emplaceIKN8facebook5react22PullToRefreshViewPropsENS_9allocatorIS3_EEE16__on_zero_sharedEv, symObjAddr: 0x3CC0, symBinAddr: 0x2A984, symSize: 0x8 }
  - { offset: 0x36C654, size: 0x8, addend: 0x0, symName: __ZNSt3__120__shared_ptr_emplaceIKN8facebook5react22PullToRefreshViewPropsENS_9allocatorIS3_EEE16__on_zero_sharedEv, symObjAddr: 0x3CC0, symBinAddr: 0x2A984, symSize: 0x8 }
  - { offset: 0x36C672, size: 0x8, addend: 0x0, symName: __ZNSt3__120__shared_ptr_emplaceIKN8facebook5react22PullToRefreshViewPropsENS_9allocatorIS3_EEE16__on_zero_sharedEv, symObjAddr: 0x3CC0, symBinAddr: 0x2A984, symSize: 0x8 }
  - { offset: 0x36C6B0, size: 0x8, addend: 0x0, symName: __ZNSt3__120__shared_ptr_emplaceIKN8facebook5react22PullToRefreshViewPropsENS_9allocatorIS3_EEE21__on_zero_shared_weakEv, symObjAddr: 0x3CC8, symBinAddr: 0x2A98C, symSize: 0x4 }
  - { offset: 0x36C6E3, size: 0x8, addend: 0x0, symName: __ZNSt3__120__shared_ptr_emplaceIKN8facebook5react22PullToRefreshViewPropsENS_9allocatorIS3_EEE21__on_zero_shared_weakEv, symObjAddr: 0x3CC8, symBinAddr: 0x2A98C, symSize: 0x4 }
  - { offset: 0x36C705, size: 0x8, addend: 0x0, symName: __ZNSt3__120__shared_ptr_emplaceIKN8facebook5react22PullToRefreshViewPropsENS_9allocatorIS3_EEE21__on_zero_shared_weakEv, symObjAddr: 0x3CC8, symBinAddr: 0x2A98C, symSize: 0x4 }
  - { offset: 0x36C728, size: 0x8, addend: 0x0, symName: __ZNSt3__120__shared_ptr_emplaceIKN8facebook5react22PullToRefreshViewPropsENS_9allocatorIS3_EEE21__on_zero_shared_weakEv, symObjAddr: 0x3CC8, symBinAddr: 0x2A98C, symSize: 0x4 }
  - { offset: 0x36C75F, size: 0x8, addend: 0x0, symName: __ZNSt3__120__shared_ptr_emplaceIKN8facebook5react22PullToRefreshViewPropsENS_9allocatorIS3_EEE21__on_zero_shared_weakEv, symObjAddr: 0x3CC8, symBinAddr: 0x2A98C, symSize: 0x4 }
  - { offset: 0x36C801, size: 0x8, addend: 0x0, symName: __GLOBAL__sub_I_RCTPullToRefreshViewComponentView.mm, symObjAddr: 0x4038, symBinAddr: 0x2A990, symSize: 0x20 }
  - { offset: 0x36EAB5, size: 0x8, addend: 0x0, symName: __ZN8facebook5react17HostPlatformColorL14UndefinedColorE, symObjAddr: 0x289C8, symBinAddr: 0x9FEA8, symSize: 0x0 }
  - { offset: 0x373F83, size: 0x8, addend: 0x0, symName: __ZN12_GLOBAL__N_114RadiusToCornerEddddbN8facebook5react18RadialGradientSize11SizeKeywordE, symObjAddr: 0x418, symBinAddr: 0x2ADC8, symSize: 0x170 }
  - { offset: 0x37431F, size: 0x8, addend: 0x0, symName: '+[RCTRadialGradient gradientLayerWithSize:gradient:]', symObjAddr: 0x0, symBinAddr: 0x2A9B0, symSize: 0x418 }
  - { offset: 0x374D5C, size: 0x8, addend: 0x0, symName: __GLOBAL__sub_I_RCTRadialGradient.mm, symObjAddr: 0x694, symBinAddr: 0x2AF38, symSize: 0x20 }
  - { offset: 0x376EB8, size: 0x8, addend: 0x0, symName: '+[RCTReactTaggedView wrap:]', symObjAddr: 0x0, symBinAddr: 0x2AF58, symSize: 0x50 }
  - { offset: 0x376F6E, size: 0x8, addend: 0x0, symName: '+[RCTReactTaggedView wrap:]', symObjAddr: 0x0, symBinAddr: 0x2AF58, symSize: 0x50 }
  - { offset: 0x376FAE, size: 0x8, addend: 0x0, symName: '-[RCTReactTaggedView initWithView:]', symObjAddr: 0x50, symBinAddr: 0x2AFA8, symSize: 0x98 }
  - { offset: 0x376FF2, size: 0x8, addend: 0x0, symName: '-[RCTReactTaggedView view]', symObjAddr: 0xE8, symBinAddr: 0x2B040, symSize: 0x40 }
  - { offset: 0x377027, size: 0x8, addend: 0x0, symName: '-[RCTReactTaggedView tag]', symObjAddr: 0x128, symBinAddr: 0x2B080, symSize: 0x8 }
  - { offset: 0x37705C, size: 0x8, addend: 0x0, symName: '-[RCTReactTaggedView isEqual:]', symObjAddr: 0x130, symBinAddr: 0x2B088, symSize: 0x84 }
  - { offset: 0x3770A0, size: 0x8, addend: 0x0, symName: '-[RCTReactTaggedView hash]', symObjAddr: 0x1B4, symBinAddr: 0x2B10C, symSize: 0x8 }
  - { offset: 0x3770D5, size: 0x8, addend: 0x0, symName: '-[RCTReactTaggedView .cxx_destruct]', symObjAddr: 0x1BC, symBinAddr: 0x2B114, symSize: 0xC }
  - { offset: 0x37732C, size: 0x8, addend: 0x0, symName: __ZN8facebook5react17HostPlatformColorL14UndefinedColorE, symObjAddr: 0x162ED0, symBinAddr: 0x9FEC0, symSize: 0x0 }
  - { offset: 0x37A79F, size: 0x8, addend: 0x0, symName: __ZN8facebook5react38concreteComponentDescriptorConstructorINS0_27ConcreteComponentDescriptorINS0_14RootShadowNodeEEEEENSt3__110unique_ptrIKNS0_19ComponentDescriptorENS5_14default_deleteIS8_EEEERKNS0_29ComponentDescriptorParametersE, symObjAddr: 0x1194, symBinAddr: 0x2B520, symSize: 0x34 }
  - { offset: 0x396A84, size: 0x8, addend: 0x0, symName: __ZNSt3__115allocate_sharedB8ne200100IKN8facebook5react9RootPropsENS_9allocatorIS3_EEJELi0EEENS_10shared_ptrIT_EERKT0_DpOT1_, symObjAddr: 0x318, symBinAddr: 0x2B3B0, symSize: 0x48 }
  - { offset: 0x397B00, size: 0x8, addend: 0x0, symName: __ZNSt3__111make_uniqueB8ne200100IKN8facebook5react27ConcreteComponentDescriptorINS2_14RootShadowNodeEEEJRKNS2_29ComponentDescriptorParametersEELi0EEENS_10unique_ptrIT_NS_14default_deleteISB_EEEEDpOT0_, symObjAddr: 0x11C8, symBinAddr: 0x2B554, symSize: 0xD4 }
  - { offset: 0x39821A, size: 0x8, addend: 0x0, symName: __ZNSt3__115allocate_sharedB8ne200100IN8facebook5react14RootShadowNodeENS_9allocatorIS3_EEJRKNS2_18ShadowNodeFragmentERKNS_10shared_ptrIKNS2_16ShadowNodeFamilyEEENS2_16ShadowNodeTraitsEELi0EEENS9_IT_EERKT0_DpOT1_, symObjAddr: 0x1D08, symBinAddr: 0x2BD8C, symSize: 0x70 }
  - { offset: 0x39852F, size: 0x8, addend: 0x0, symName: __ZNSt3__115allocate_sharedB8ne200100IN8facebook5react14RootShadowNodeENS_9allocatorIS3_EEJRKNS2_10ShadowNodeERKNS2_18ShadowNodeFragmentEELi0EEENS_10shared_ptrIT_EERKT0_DpOT1_, symObjAddr: 0x2340, symBinAddr: 0x2C00C, symSize: 0x60 }
  - { offset: 0x398A9B, size: 0x8, addend: 0x0, symName: __ZNSt3__115allocate_sharedB8ne200100IKN8facebook5react20BaseViewEventEmitterENS_9allocatorIS3_EEJNS_10shared_ptrINS2_11EventTargetEEERKNS_8weak_ptrIKNS2_15EventDispatcherEEEELi0EEENS7_IT_EERKT0_DpOT1_, symObjAddr: 0x282C, symBinAddr: 0x2C244, symSize: 0x60 }
  - { offset: 0x398D3C, size: 0x8, addend: 0x0, symName: __ZNSt3__115allocate_sharedB8ne200100IN8facebook5react16ShadowNodeFamilyENS_9allocatorIS3_EEJRKNS2_24ShadowNodeFamilyFragmentERNS_10shared_ptrIKNS2_20BaseViewEventEmitterEEERKNS_8weak_ptrIKNS2_15EventDispatcherEEERKNS2_27ConcreteComponentDescriptorINS2_14RootShadowNodeEEEELi0EEENS9_IT_EERKT0_DpOT1_, symObjAddr: 0x2E7C, symBinAddr: 0x2C468, symSize: 0x78 }
  - { offset: 0x399C80, size: 0x8, addend: 0x0, symName: __ZNSt3__115allocate_sharedB8ne200100IN8facebook5react9RootPropsENS_9allocatorIS3_EEJRKNS2_18PropsParserContextERKS3_RKNS2_8RawPropsEELi0EEENS_10shared_ptrIT_EERKT0_DpOT1_, symObjAddr: 0x24C4, symBinAddr: 0x2C138, symSize: 0x70 }
  - { offset: 0x39A89C, size: 0x8, addend: 0x0, symName: __ZNSt3__112construct_atB8ne200100IN8facebook5react20BaseViewEventEmitterEJNS_10shared_ptrINS2_11EventTargetEEERKNS_8weak_ptrIKNS2_15EventDispatcherEEEEPS3_EEPT_SF_DpOT0_, symObjAddr: 0x2920, symBinAddr: 0x2C338, symSize: 0x130 }
  - { offset: 0x39B457, size: 0x8, addend: 0x0, symName: __ZNSt3__112construct_atB8ne200100IN8facebook5react16ShadowNodeFamilyEJRKNS2_24ShadowNodeFamilyFragmentERNS_10shared_ptrIKNS2_20BaseViewEventEmitterEEERKNS_8weak_ptrIKNS2_15EventDispatcherEEERKNS2_27ConcreteComponentDescriptorINS2_14RootShadowNodeEEEEPS3_EEPT_SP_DpOT0_, symObjAddr: 0x2F84, symBinAddr: 0x2C52C, symSize: 0xDC }
  - { offset: 0x39FF9F, size: 0x8, addend: 0x0, symName: __ZN8facebook5react18ConcreteShadowNodeIXadL_ZNS0_17RootComponentNameEEENS0_24YogaLayoutableShadowNodeENS0_9RootPropsENS0_20BaseViewEventEmitterENS0_9StateDataEE18defaultSharedPropsEv, symObjAddr: 0x88, symBinAddr: 0x2B1A8, symSize: 0x9C }
  - { offset: 0x39FFBF, size: 0x8, addend: 0x0, symName: __ZZN8facebook5react18ConcreteShadowNodeIXadL_ZNS0_17RootComponentNameEEENS0_24YogaLayoutableShadowNodeENS0_9RootPropsENS0_20BaseViewEventEmitterENS0_9StateDataEE18defaultSharedPropsEvE18defaultSharedProps, symObjAddr: 0x3F20, symBinAddr: 0x9F6D0, symSize: 0x0 }
  - { offset: 0x3A0296, size: 0x8, addend: 0x0, symName: '-[RCTRootComponentView initWithFrame:]', symObjAddr: 0x0, symBinAddr: 0x2B120, symSize: 0x88 }
  - { offset: 0x3A0520, size: 0x8, addend: 0x0, symName: '-[RCTRootComponentView prepareForRecycle]', symObjAddr: 0x19C, symBinAddr: 0x2B244, symSize: 0x4C }
  - { offset: 0x3A0551, size: 0x8, addend: 0x0, symName: '-[RCTRootComponentView mountChildComponentView:index:]', symObjAddr: 0x1E8, symBinAddr: 0x2B290, symSize: 0x98 }
  - { offset: 0x3A05D7, size: 0x8, addend: 0x0, symName: '___54-[RCTRootComponentView mountChildComponentView:index:]_block_invoke', symObjAddr: 0x280, symBinAddr: 0x2B328, symSize: 0x64 }
  - { offset: 0x3A068A, size: 0x8, addend: 0x0, symName: '+[RCTRootComponentView componentDescriptorProvider]', symObjAddr: 0x2F4, symBinAddr: 0x2B38C, symSize: 0x20 }
  - { offset: 0x3A06BD, size: 0x8, addend: 0x0, symName: '+[RCTRootComponentView componentDescriptorProvider]', symObjAddr: 0x2F4, symBinAddr: 0x2B38C, symSize: 0x20 }
  - { offset: 0x3A071B, size: 0x8, addend: 0x0, symName: __ZNSt3__110shared_ptrIKN8facebook5react9RootPropsEED1B8ne200100Ev, symObjAddr: 0x314, symBinAddr: 0x2B3AC, symSize: 0x4 }
  - { offset: 0x3A0747, size: 0x8, addend: 0x0, symName: __ZNSt3__110shared_ptrIKN8facebook5react9RootPropsEED1B8ne200100Ev, symObjAddr: 0x314, symBinAddr: 0x2B3AC, symSize: 0x4 }
  - { offset: 0x3A09C7, size: 0x8, addend: 0x0, symName: __ZNSt3__120__shared_ptr_emplaceIKN8facebook5react9RootPropsENS_9allocatorIS3_EEEC2B8ne200100IJES6_Li0EEES6_DpOT_, symObjAddr: 0x360, symBinAddr: 0x2B3F8, symSize: 0xA8 }
  - { offset: 0x3A1FEC, size: 0x8, addend: 0x0, symName: __ZNSt3__120__shared_ptr_emplaceIKN8facebook5react9RootPropsENS_9allocatorIS3_EEED1Ev, symObjAddr: 0x408, symBinAddr: 0x2B4A0, symSize: 0x14 }
  - { offset: 0x3A200E, size: 0x8, addend: 0x0, symName: __ZNSt3__120__shared_ptr_emplaceIKN8facebook5react9RootPropsENS_9allocatorIS3_EEED1Ev, symObjAddr: 0x408, symBinAddr: 0x2B4A0, symSize: 0x14 }
  - { offset: 0x3A2042, size: 0x8, addend: 0x0, symName: __ZNSt3__120__shared_ptr_emplaceIKN8facebook5react9RootPropsENS_9allocatorIS3_EEED0Ev, symObjAddr: 0x41C, symBinAddr: 0x2B4B4, symSize: 0x24 }
  - { offset: 0x3A214E, size: 0x8, addend: 0x0, symName: __ZNSt3__120__shared_ptr_emplaceIKN8facebook5react9RootPropsENS_9allocatorIS3_EEE16__on_zero_sharedEv, symObjAddr: 0x440, symBinAddr: 0x2B4D8, symSize: 0x14 }
  - { offset: 0x3A2176, size: 0x8, addend: 0x0, symName: __ZNSt3__120__shared_ptr_emplaceIKN8facebook5react9RootPropsENS_9allocatorIS3_EEE16__on_zero_sharedEv, symObjAddr: 0x440, symBinAddr: 0x2B4D8, symSize: 0x14 }
  - { offset: 0x3A2686, size: 0x8, addend: 0x0, symName: __ZNSt3__120__shared_ptr_emplaceIKN8facebook5react9RootPropsENS_9allocatorIS3_EEE21__on_zero_shared_weakEv, symObjAddr: 0x454, symBinAddr: 0x2B4EC, symSize: 0x4 }
  - { offset: 0x3A26B9, size: 0x8, addend: 0x0, symName: __ZNSt3__120__shared_ptr_emplaceIKN8facebook5react9RootPropsENS_9allocatorIS3_EEE21__on_zero_shared_weakEv, symObjAddr: 0x454, symBinAddr: 0x2B4EC, symSize: 0x4 }
  - { offset: 0x3A26DB, size: 0x8, addend: 0x0, symName: __ZNSt3__120__shared_ptr_emplaceIKN8facebook5react9RootPropsENS_9allocatorIS3_EEE21__on_zero_shared_weakEv, symObjAddr: 0x454, symBinAddr: 0x2B4EC, symSize: 0x4 }
  - { offset: 0x3A26FE, size: 0x8, addend: 0x0, symName: __ZNSt3__120__shared_ptr_emplaceIKN8facebook5react9RootPropsENS_9allocatorIS3_EEE21__on_zero_shared_weakEv, symObjAddr: 0x454, symBinAddr: 0x2B4EC, symSize: 0x4 }
  - { offset: 0x3A2734, size: 0x8, addend: 0x0, symName: __ZNSt3__120__shared_ptr_emplaceIKN8facebook5react9RootPropsENS_9allocatorIS3_EEE21__on_zero_shared_weakEv, symObjAddr: 0x454, symBinAddr: 0x2B4EC, symSize: 0x4 }
  - { offset: 0x3A3884, size: 0x8, addend: 0x0, symName: __ZN8facebook5react9RootPropsD1Ev, symObjAddr: 0x8A4, symBinAddr: 0x2B4F0, symSize: 0x10 }
  - { offset: 0x3A38A6, size: 0x8, addend: 0x0, symName: __ZN8facebook5react9RootPropsD1Ev, symObjAddr: 0x8A4, symBinAddr: 0x2B4F0, symSize: 0x10 }
  - { offset: 0x3A38DF, size: 0x8, addend: 0x0, symName: __ZN8facebook5react9RootPropsD0Ev, symObjAddr: 0x8B4, symBinAddr: 0x2B500, symSize: 0x20 }
  - { offset: 0x3A6B4D, size: 0x8, addend: 0x0, symName: __ZN8facebook5react14RawPropsParser7prepareINS0_9RootPropsEEEvv, symObjAddr: 0x12EC, symBinAddr: 0x2B628, symSize: 0x1FC }
  - { offset: 0x3A7BD3, size: 0x8, addend: 0x0, symName: __ZN8facebook5react27ConcreteComponentDescriptorINS0_14RootShadowNodeEED1Ev, symObjAddr: 0x14E8, symBinAddr: 0x2B824, symSize: 0x4 }
  - { offset: 0x3A7BF5, size: 0x8, addend: 0x0, symName: __ZN8facebook5react27ConcreteComponentDescriptorINS0_14RootShadowNodeEED1Ev, symObjAddr: 0x14E8, symBinAddr: 0x2B824, symSize: 0x4 }
  - { offset: 0x3A7C12, size: 0x8, addend: 0x0, symName: __ZN8facebook5react27ConcreteComponentDescriptorINS0_14RootShadowNodeEED1Ev, symObjAddr: 0x14E8, symBinAddr: 0x2B824, symSize: 0x4 }
  - { offset: 0x3A7EE7, size: 0x8, addend: 0x0, symName: __ZN8facebook5react27ConcreteComponentDescriptorINS0_14RootShadowNodeEED0Ev, symObjAddr: 0x14EC, symBinAddr: 0x2B828, symSize: 0x14 }
  - { offset: 0x3A7F60, size: 0x8, addend: 0x0, symName: __ZNK8facebook5react27ConcreteComponentDescriptorINS0_14RootShadowNodeEE18getComponentHandleEv, symObjAddr: 0x1500, symBinAddr: 0x2B83C, symSize: 0xC }
  - { offset: 0x3A7F86, size: 0x8, addend: 0x0, symName: __ZNK8facebook5react27ConcreteComponentDescriptorINS0_14RootShadowNodeEE16getComponentNameEv, symObjAddr: 0x150C, symBinAddr: 0x2B848, symSize: 0xC }
  - { offset: 0x3A7FAC, size: 0x8, addend: 0x0, symName: __ZNK8facebook5react27ConcreteComponentDescriptorINS0_14RootShadowNodeEE9getTraitsEv, symObjAddr: 0x1518, symBinAddr: 0x2B854, symSize: 0x8 }
  - { offset: 0x3A807A, size: 0x8, addend: 0x0, symName: __ZNK8facebook5react27ConcreteComponentDescriptorINS0_14RootShadowNodeEE16createShadowNodeERKNS0_18ShadowNodeFragmentERKNSt3__110shared_ptrIKNS0_16ShadowNodeFamilyEEE, symObjAddr: 0x1520, symBinAddr: 0x2B85C, symSize: 0x90 }
  - { offset: 0x3A82F2, size: 0x8, addend: 0x0, symName: __ZNK8facebook5react27ConcreteComponentDescriptorINS0_14RootShadowNodeEE15cloneShadowNodeERKNS0_10ShadowNodeERKNS0_18ShadowNodeFragmentE, symObjAddr: 0x15B0, symBinAddr: 0x2B8EC, symSize: 0xFC }
  - { offset: 0x3A8640, size: 0x8, addend: 0x0, symName: __ZNK8facebook5react27ConcreteComponentDescriptorINS0_14RootShadowNodeEE11appendChildERKNSt3__110shared_ptrIKNS0_10ShadowNodeEEESA_, symObjAddr: 0x16AC, symBinAddr: 0x2B9E8, symSize: 0xC }
  - { offset: 0x3A8696, size: 0x8, addend: 0x0, symName: __ZNK8facebook5react27ConcreteComponentDescriptorINS0_14RootShadowNodeEE11appendChildERKNSt3__110shared_ptrIKNS0_10ShadowNodeEEESA_, symObjAddr: 0x16AC, symBinAddr: 0x2B9E8, symSize: 0xC }
  - { offset: 0x3A8F1D, size: 0x8, addend: 0x0, symName: __ZNK8facebook5react27ConcreteComponentDescriptorINS0_14RootShadowNodeEE10clonePropsERKNS0_18PropsParserContextERKNSt3__110shared_ptrIKNS0_5PropsEEENS0_8RawPropsE, symObjAddr: 0x16B8, symBinAddr: 0x2B9F4, symSize: 0x21C }
  - { offset: 0x3A9A41, size: 0x8, addend: 0x0, symName: __ZN8facebook5react18ConcreteShadowNodeIXadL_ZNS0_17RootComponentNameEEENS0_24YogaLayoutableShadowNodeENS0_9RootPropsENS0_20BaseViewEventEmitterENS0_9StateDataEE5PropsERKNS0_18PropsParserContextERKNS0_8RawPropsERKNSt3__110shared_ptrIKNS0_5PropsEEE, symObjAddr: 0x246C, symBinAddr: 0x2C0E0, symSize: 0x58 }
  - { offset: 0x3A9C9F, size: 0x8, addend: 0x0, symName: __ZNK8facebook5react27ConcreteComponentDescriptorINS0_14RootShadowNodeEE18createInitialStateERKNSt3__110shared_ptrIKNS0_5PropsEEERKNS5_IKNS0_16ShadowNodeFamilyEEE, symObjAddr: 0x18D4, symBinAddr: 0x2BC10, symSize: 0x8 }
  - { offset: 0x3A9CE2, size: 0x8, addend: 0x0, symName: __ZNK8facebook5react27ConcreteComponentDescriptorINS0_14RootShadowNodeEE18createInitialStateERKNSt3__110shared_ptrIKNS0_5PropsEEERKNS5_IKNS0_16ShadowNodeFamilyEEE, symObjAddr: 0x18D4, symBinAddr: 0x2BC10, symSize: 0x8 }
  - { offset: 0x3A9D04, size: 0x8, addend: 0x0, symName: __ZNK8facebook5react27ConcreteComponentDescriptorINS0_14RootShadowNodeEE18createInitialStateERKNSt3__110shared_ptrIKNS0_5PropsEEERKNS5_IKNS0_16ShadowNodeFamilyEEE, symObjAddr: 0x18D4, symBinAddr: 0x2BC10, symSize: 0x8 }
  - { offset: 0x3A9D27, size: 0x8, addend: 0x0, symName: __ZNK8facebook5react27ConcreteComponentDescriptorINS0_14RootShadowNodeEE11createStateERKNS0_16ShadowNodeFamilyERKNSt3__110shared_ptrIKvEE, symObjAddr: 0x18DC, symBinAddr: 0x2BC18, symSize: 0x8 }
  - { offset: 0x3A9D6A, size: 0x8, addend: 0x0, symName: __ZNK8facebook5react27ConcreteComponentDescriptorINS0_14RootShadowNodeEE11createStateERKNS0_16ShadowNodeFamilyERKNSt3__110shared_ptrIKvEE, symObjAddr: 0x18DC, symBinAddr: 0x2BC18, symSize: 0x8 }
  - { offset: 0x3A9D8C, size: 0x8, addend: 0x0, symName: __ZNK8facebook5react27ConcreteComponentDescriptorINS0_14RootShadowNodeEE11createStateERKNS0_16ShadowNodeFamilyERKNSt3__110shared_ptrIKvEE, symObjAddr: 0x18DC, symBinAddr: 0x2BC18, symSize: 0x8 }
  - { offset: 0x3A9F8C, size: 0x8, addend: 0x0, symName: __ZNK8facebook5react27ConcreteComponentDescriptorINS0_14RootShadowNodeEE12createFamilyERKNS0_24ShadowNodeFamilyFragmentE, symObjAddr: 0x18E4, symBinAddr: 0x2BC20, symSize: 0x168 }
  - { offset: 0x3AA4E8, size: 0x8, addend: 0x0, symName: __ZNK8facebook5react27ConcreteComponentDescriptorINS0_14RootShadowNodeEE5adoptERNS0_10ShadowNodeE, symObjAddr: 0x1A4C, symBinAddr: 0x2BD88, symSize: 0x4 }
  - { offset: 0x3AAD05, size: 0x8, addend: 0x0, symName: __ZNSt3__120__shared_ptr_emplaceIN8facebook5react14RootShadowNodeENS_9allocatorIS3_EEEC2B8ne200100IJRKNS2_18ShadowNodeFragmentERKNS_10shared_ptrIKNS2_16ShadowNodeFamilyEEENS2_16ShadowNodeTraitsEES5_Li0EEES5_DpOT_, symObjAddr: 0x1D78, symBinAddr: 0x2BDFC, symSize: 0x78 }
  - { offset: 0x3AB114, size: 0x8, addend: 0x0, symName: __ZNSt3__120__shared_ptr_emplaceIN8facebook5react14RootShadowNodeENS_9allocatorIS3_EEED1Ev, symObjAddr: 0x1DF0, symBinAddr: 0x2BE74, symSize: 0x14 }
  - { offset: 0x3AB136, size: 0x8, addend: 0x0, symName: __ZNSt3__120__shared_ptr_emplaceIN8facebook5react14RootShadowNodeENS_9allocatorIS3_EEED1Ev, symObjAddr: 0x1DF0, symBinAddr: 0x2BE74, symSize: 0x14 }
  - { offset: 0x3AB16A, size: 0x8, addend: 0x0, symName: __ZNSt3__120__shared_ptr_emplaceIN8facebook5react14RootShadowNodeENS_9allocatorIS3_EEED0Ev, symObjAddr: 0x1E04, symBinAddr: 0x2BE88, symSize: 0x24 }
  - { offset: 0x3AB237, size: 0x8, addend: 0x0, symName: __ZNSt3__120__shared_ptr_emplaceIN8facebook5react14RootShadowNodeENS_9allocatorIS3_EEE16__on_zero_sharedEv, symObjAddr: 0x1E28, symBinAddr: 0x2BEAC, symSize: 0x8 }
