---
triple:          'arm64-apple-darwin'
binary-path:     '/Users/uk-aplatts/Development/InjuryIQ/ios/DerivedData/Build/Intermediates.noindex/ArchiveIntermediates/InjuryIQ/IntermediateBuildFilesPath/UninstalledProducts/iphoneos/RNSVG.framework/RNSVG'
relocations:
  - { offset: 0x33, size: 0x8, addend: 0x0, symName: _RNSVGVersionString, symObjAddr: 0x0, symBinAddr: 0x72240, symSize: 0x0 }
  - { offset: 0x67, size: 0x8, addend: 0x0, symName: _RNSVGVersionNumber, symObjAddr: 0x28, symBinAddr: 0x72268, symSize: 0x0 }
  - { offset: 0xCB, size: 0x8, addend: 0x0, symName: __ZN8facebook5react17HostPlatformColorL14UndefinedColorE, symObjAddr: 0x203B0, symBinAddr: 0xAFF78, symSize: 0x0 }
  - { offset: 0x5024, size: 0x8, addend: 0x0, symName: _RNSVGDigitRegEx, symObjAddr: 0x20448, symBinAddr: 0xB0AC0, symSize: 0x0 }
  - { offset: 0x5100, size: 0x8, addend: 0x0, symName: '+[RCTConvert(RNSVG) RNSVGCGFCRule:]', symObjAddr: 0x0, symBinAddr: 0x4000, symSize: 0x98 }
  - { offset: 0x5129, size: 0x8, addend: 0x0, symName: '__ZZ35+[RCTConvert(RNSVG) RNSVGCGFCRule:]E7mapping', symObjAddr: 0x203C8, symBinAddr: 0xAFF90, symSize: 0x0 }
  - { offset: 0x513E, size: 0x8, addend: 0x0, symName: '__ZZ35+[RCTConvert(RNSVG) RNSVGCGFCRule:]E9onceToken', symObjAddr: 0x203D0, symBinAddr: 0xAFF98, symSize: 0x0 }
  - { offset: 0x51D9, size: 0x8, addend: 0x0, symName: '+[RCTConvert(RNSVG) RNSVGVBMOS:]', symObjAddr: 0xB0, symBinAddr: 0x40B0, symSize: 0x98 }
  - { offset: 0x5202, size: 0x8, addend: 0x0, symName: '__ZZ32+[RCTConvert(RNSVG) RNSVGVBMOS:]E7mapping', symObjAddr: 0x203D8, symBinAddr: 0xAFFA0, symSize: 0x0 }
  - { offset: 0x5217, size: 0x8, addend: 0x0, symName: '__ZZ32+[RCTConvert(RNSVG) RNSVGVBMOS:]E9onceToken', symObjAddr: 0x203E0, symBinAddr: 0xAFFA8, symSize: 0x0 }
  - { offset: 0x526F, size: 0x8, addend: 0x0, symName: '+[RCTConvert(RNSVG) RNSVGUnits:]', symObjAddr: 0x160, symBinAddr: 0x4160, symSize: 0x98 }
  - { offset: 0x5298, size: 0x8, addend: 0x0, symName: '__ZZ32+[RCTConvert(RNSVG) RNSVGUnits:]E7mapping', symObjAddr: 0x203E8, symBinAddr: 0xAFFB0, symSize: 0x0 }
  - { offset: 0x52AD, size: 0x8, addend: 0x0, symName: '__ZZ32+[RCTConvert(RNSVG) RNSVGUnits:]E9onceToken', symObjAddr: 0x203F0, symBinAddr: 0xAFFB8, symSize: 0x0 }
  - { offset: 0x5305, size: 0x8, addend: 0x0, symName: '+[RCTConvert(RNSVG) RNSVGMaskType:]', symObjAddr: 0x210, symBinAddr: 0x4210, symSize: 0x98 }
  - { offset: 0x532E, size: 0x8, addend: 0x0, symName: '__ZZ35+[RCTConvert(RNSVG) RNSVGMaskType:]E7mapping', symObjAddr: 0x203F8, symBinAddr: 0xAFFC0, symSize: 0x0 }
  - { offset: 0x5343, size: 0x8, addend: 0x0, symName: '__ZZ35+[RCTConvert(RNSVG) RNSVGMaskType:]E9onceToken', symObjAddr: 0x20400, symBinAddr: 0xAFFC8, symSize: 0x0 }
  - { offset: 0x539B, size: 0x8, addend: 0x0, symName: '+[RCTConvert(RNSVG) RNSVGEdgeMode:]', symObjAddr: 0x2C0, symBinAddr: 0x42C0, symSize: 0x98 }
  - { offset: 0x53C4, size: 0x8, addend: 0x0, symName: '__ZZ35+[RCTConvert(RNSVG) RNSVGEdgeMode:]E7mapping', symObjAddr: 0x20408, symBinAddr: 0xAFFD0, symSize: 0x0 }
  - { offset: 0x53D9, size: 0x8, addend: 0x0, symName: '__ZZ35+[RCTConvert(RNSVG) RNSVGEdgeMode:]E9onceToken', symObjAddr: 0x20410, symBinAddr: 0xAFFD8, symSize: 0x0 }
  - { offset: 0x5431, size: 0x8, addend: 0x0, symName: '+[RCTConvert(RNSVG) RNSVGColorMatrixType:]', symObjAddr: 0x370, symBinAddr: 0x4370, symSize: 0x98 }
  - { offset: 0x545A, size: 0x8, addend: 0x0, symName: '__ZZ42+[RCTConvert(RNSVG) RNSVGColorMatrixType:]E7mapping', symObjAddr: 0x20418, symBinAddr: 0xAFFE0, symSize: 0x0 }
  - { offset: 0x546F, size: 0x8, addend: 0x0, symName: '__ZZ42+[RCTConvert(RNSVG) RNSVGColorMatrixType:]E9onceToken', symObjAddr: 0x20420, symBinAddr: 0xAFFE8, symSize: 0x0 }
  - { offset: 0x54C7, size: 0x8, addend: 0x0, symName: '+[RCTConvert(RNSVG) RNSVGBlendMode:]', symObjAddr: 0x420, symBinAddr: 0x4420, symSize: 0x98 }
  - { offset: 0x54F0, size: 0x8, addend: 0x0, symName: '__ZZ36+[RCTConvert(RNSVG) RNSVGBlendMode:]E7mapping', symObjAddr: 0x20428, symBinAddr: 0xAFFF0, symSize: 0x0 }
  - { offset: 0x5505, size: 0x8, addend: 0x0, symName: '__ZZ36+[RCTConvert(RNSVG) RNSVGBlendMode:]E9onceToken', symObjAddr: 0x20430, symBinAddr: 0xAFFF8, symSize: 0x0 }
  - { offset: 0x555D, size: 0x8, addend: 0x0, symName: '+[RCTConvert(RNSVG) RNSVGCompositeOperator:]', symObjAddr: 0x4D0, symBinAddr: 0x44D0, symSize: 0x98 }
  - { offset: 0x5586, size: 0x8, addend: 0x0, symName: '__ZZ44+[RCTConvert(RNSVG) RNSVGCompositeOperator:]E7mapping', symObjAddr: 0x20438, symBinAddr: 0xB0000, symSize: 0x0 }
  - { offset: 0x559B, size: 0x8, addend: 0x0, symName: '__ZZ44+[RCTConvert(RNSVG) RNSVGCompositeOperator:]E9onceToken', symObjAddr: 0x20440, symBinAddr: 0xB0008, symSize: 0x0 }
  - { offset: 0x5A4D, size: 0x8, addend: 0x0, symName: '+[RCTConvert(RNSVG) RNSVGCGFCRule:].cold.1', symObjAddr: 0x149C, symBinAddr: 0x6757C, symSize: 0x14 }
  - { offset: 0x5A68, size: 0x8, addend: 0x0, symName: '+[RCTConvert(RNSVG) RNSVGCGFCRule:].cold.1', symObjAddr: 0x149C, symBinAddr: 0x6757C, symSize: 0x14 }
  - { offset: 0x5A79, size: 0x8, addend: 0x0, symName: '___35+[RCTConvert(RNSVG) RNSVGCGFCRule:]_block_invoke', symObjAddr: 0x98, symBinAddr: 0x4098, symSize: 0x18 }
  - { offset: 0x5A9E, size: 0x8, addend: 0x0, symName: '+[RCTConvert(RNSVG) RNSVGVBMOS:].cold.1', symObjAddr: 0x14B0, symBinAddr: 0x67590, symSize: 0x14 }
  - { offset: 0x5AB9, size: 0x8, addend: 0x0, symName: '+[RCTConvert(RNSVG) RNSVGVBMOS:].cold.1', symObjAddr: 0x14B0, symBinAddr: 0x67590, symSize: 0x14 }
  - { offset: 0x5ACA, size: 0x8, addend: 0x0, symName: '___32+[RCTConvert(RNSVG) RNSVGVBMOS:]_block_invoke', symObjAddr: 0x148, symBinAddr: 0x4148, symSize: 0x18 }
  - { offset: 0x5AEF, size: 0x8, addend: 0x0, symName: '+[RCTConvert(RNSVG) RNSVGUnits:].cold.1', symObjAddr: 0x14C4, symBinAddr: 0x675A4, symSize: 0x14 }
  - { offset: 0x5B0A, size: 0x8, addend: 0x0, symName: '+[RCTConvert(RNSVG) RNSVGUnits:].cold.1', symObjAddr: 0x14C4, symBinAddr: 0x675A4, symSize: 0x14 }
  - { offset: 0x5B1B, size: 0x8, addend: 0x0, symName: '___32+[RCTConvert(RNSVG) RNSVGUnits:]_block_invoke', symObjAddr: 0x1F8, symBinAddr: 0x41F8, symSize: 0x18 }
  - { offset: 0x5B40, size: 0x8, addend: 0x0, symName: '+[RCTConvert(RNSVG) RNSVGMaskType:].cold.1', symObjAddr: 0x14D8, symBinAddr: 0x675B8, symSize: 0x14 }
  - { offset: 0x5B5B, size: 0x8, addend: 0x0, symName: '+[RCTConvert(RNSVG) RNSVGMaskType:].cold.1', symObjAddr: 0x14D8, symBinAddr: 0x675B8, symSize: 0x14 }
  - { offset: 0x5B6C, size: 0x8, addend: 0x0, symName: '___35+[RCTConvert(RNSVG) RNSVGMaskType:]_block_invoke', symObjAddr: 0x2A8, symBinAddr: 0x42A8, symSize: 0x18 }
  - { offset: 0x5B91, size: 0x8, addend: 0x0, symName: '+[RCTConvert(RNSVG) RNSVGEdgeMode:].cold.1', symObjAddr: 0x14EC, symBinAddr: 0x675CC, symSize: 0x14 }
  - { offset: 0x5BAC, size: 0x8, addend: 0x0, symName: '+[RCTConvert(RNSVG) RNSVGEdgeMode:].cold.1', symObjAddr: 0x14EC, symBinAddr: 0x675CC, symSize: 0x14 }
  - { offset: 0x5BBD, size: 0x8, addend: 0x0, symName: '___35+[RCTConvert(RNSVG) RNSVGEdgeMode:]_block_invoke', symObjAddr: 0x358, symBinAddr: 0x4358, symSize: 0x18 }
  - { offset: 0x5BE2, size: 0x8, addend: 0x0, symName: '+[RCTConvert(RNSVG) RNSVGColorMatrixType:].cold.1', symObjAddr: 0x1500, symBinAddr: 0x675E0, symSize: 0x14 }
  - { offset: 0x5BFD, size: 0x8, addend: 0x0, symName: '+[RCTConvert(RNSVG) RNSVGColorMatrixType:].cold.1', symObjAddr: 0x1500, symBinAddr: 0x675E0, symSize: 0x14 }
  - { offset: 0x5C0E, size: 0x8, addend: 0x0, symName: '___42+[RCTConvert(RNSVG) RNSVGColorMatrixType:]_block_invoke', symObjAddr: 0x408, symBinAddr: 0x4408, symSize: 0x18 }
  - { offset: 0x5C33, size: 0x8, addend: 0x0, symName: '+[RCTConvert(RNSVG) RNSVGBlendMode:].cold.1', symObjAddr: 0x1514, symBinAddr: 0x675F4, symSize: 0x14 }
  - { offset: 0x5C4E, size: 0x8, addend: 0x0, symName: '+[RCTConvert(RNSVG) RNSVGBlendMode:].cold.1', symObjAddr: 0x1514, symBinAddr: 0x675F4, symSize: 0x14 }
  - { offset: 0x5C5F, size: 0x8, addend: 0x0, symName: '___36+[RCTConvert(RNSVG) RNSVGBlendMode:]_block_invoke', symObjAddr: 0x4B8, symBinAddr: 0x44B8, symSize: 0x18 }
  - { offset: 0x5C84, size: 0x8, addend: 0x0, symName: '+[RCTConvert(RNSVG) RNSVGCompositeOperator:].cold.1', symObjAddr: 0x1528, symBinAddr: 0x67608, symSize: 0x14 }
  - { offset: 0x5C9F, size: 0x8, addend: 0x0, symName: '+[RCTConvert(RNSVG) RNSVGCompositeOperator:].cold.1', symObjAddr: 0x1528, symBinAddr: 0x67608, symSize: 0x14 }
  - { offset: 0x5CB0, size: 0x8, addend: 0x0, symName: '___44+[RCTConvert(RNSVG) RNSVGCompositeOperator:]_block_invoke', symObjAddr: 0x568, symBinAddr: 0x4568, symSize: 0x18 }
  - { offset: 0x5CD5, size: 0x8, addend: 0x0, symName: '+[RCTConvert(RNSVG) RNSVGBrush:]', symObjAddr: 0x580, symBinAddr: 0x4580, symSize: 0x578 }
  - { offset: 0x5E0E, size: 0x8, addend: 0x0, symName: '+[RCTConvert(RNSVG) RNSVGCGPath:]', symObjAddr: 0xAF8, symBinAddr: 0x4AF8, symSize: 0x50 }
  - { offset: 0x5E4D, size: 0x8, addend: 0x0, symName: '+[RCTConvert(RNSVG) RNSVGLength:]', symObjAddr: 0xB48, symBinAddr: 0x4B48, symSize: 0xB8 }
  - { offset: 0x5EA5, size: 0x8, addend: 0x0, symName: '+[RCTConvert(RNSVG) RNSVGLengthArray:]', symObjAddr: 0xC00, symBinAddr: 0x4C00, symSize: 0x3F4 }
  - { offset: 0x5F97, size: 0x8, addend: 0x0, symName: '+[RCTConvert(RNSVG) RNSVGCGRect:offset:]', symObjAddr: 0xFF4, symBinAddr: 0x4FF4, symSize: 0x18C }
  - { offset: 0x6012, size: 0x8, addend: 0x0, symName: '+[RCTConvert(RNSVG) UIColor:offset:]', symObjAddr: 0x1180, symBinAddr: 0x5180, symSize: 0x108 }
  - { offset: 0x608D, size: 0x8, addend: 0x0, symName: '+[RCTConvert(RNSVG) RNSVGCGGradient:]', symObjAddr: 0x1288, symBinAddr: 0x5288, symSize: 0x214 }
  - { offset: 0x63C4, size: 0x8, addend: 0x0, symName: __GLOBAL__sub_I_RCTConvert_RNSVG.mm, symObjAddr: 0x18D0, symBinAddr: 0x549C, symSize: 0x20 }
  - { offset: 0x90DD, size: 0x8, addend: 0x0, symName: '-[RNSVGArithmeticFilter init]', symObjAddr: 0x0, symBinAddr: 0x54BC, symSize: 0x98 }
  - { offset: 0x90F6, size: 0x8, addend: 0x0, symName: __ZL16arithmeticFilter, symObjAddr: 0x3CD8, symBinAddr: 0xB0010, symSize: 0x0 }
  - { offset: 0x9684, size: 0x8, addend: 0x0, symName: '-[RNSVGArithmeticFilter init]', symObjAddr: 0x0, symBinAddr: 0x54BC, symSize: 0x98 }
  - { offset: 0x96B8, size: 0x8, addend: 0x0, symName: '-[RNSVGArithmeticFilter customAttributes]', symObjAddr: 0x98, symBinAddr: 0x5554, symSize: 0x30C }
  - { offset: 0x96E8, size: 0x8, addend: 0x0, symName: '-[RNSVGArithmeticFilter outputImage]', symObjAddr: 0x3A4, symBinAddr: 0x5860, symSize: 0x18C }
  - { offset: 0x973B, size: 0x8, addend: 0x0, symName: '-[RNSVGArithmeticFilter .cxx_destruct]', symObjAddr: 0x530, symBinAddr: 0x59EC, symSize: 0x7C }
  - { offset: 0x9992, size: 0x8, addend: 0x0, symName: __ZN8facebook5react17HostPlatformColorL14UndefinedColorE, symObjAddr: 0x18280, symBinAddr: 0xB0018, symSize: 0x0 }
  - { offset: 0xA695, size: 0x8, addend: 0x0, symName: '-[RNSVGBezierElement init]', symObjAddr: 0x0, symBinAddr: 0x5A68, symSize: 0x50 }
  - { offset: 0xA6C9, size: 0x8, addend: 0x0, symName: '+[RNSVGBezierElement elementWithPathElement:]', symObjAddr: 0x50, symBinAddr: 0x5AB8, symSize: 0xB8 }
  - { offset: 0xA71C, size: 0x8, addend: 0x0, symName: __Z36RNSVGBezierElement_getBezierElementsPvPK13CGPathElement, symObjAddr: 0x108, symBinAddr: 0x5B70, symSize: 0x7C }
  - { offset: 0xA75F, size: 0x8, addend: 0x0, symName: '+[RNSVGBezierElement elementsFromCGPath:]', symObjAddr: 0x184, symBinAddr: 0x5BEC, symSize: 0x58 }
  - { offset: 0xA858, size: 0x8, addend: 0x0, symName: '-[RNSVGBezierElement elementType]', symObjAddr: 0x1DC, symBinAddr: 0x5C44, symSize: 0x8 }
  - { offset: 0xA88D, size: 0x8, addend: 0x0, symName: '-[RNSVGBezierElement setElementType:]', symObjAddr: 0x1E4, symBinAddr: 0x5C4C, symSize: 0x8 }
  - { offset: 0xA8C9, size: 0x8, addend: 0x0, symName: '-[RNSVGBezierElement point]', symObjAddr: 0x1EC, symBinAddr: 0x5C54, symSize: 0x8 }
  - { offset: 0xA8FD, size: 0x8, addend: 0x0, symName: '-[RNSVGBezierElement setPoint:]', symObjAddr: 0x1F4, symBinAddr: 0x5C5C, symSize: 0x8 }
  - { offset: 0xA93B, size: 0x8, addend: 0x0, symName: '-[RNSVGBezierElement controlPoint1]', symObjAddr: 0x1FC, symBinAddr: 0x5C64, symSize: 0x8 }
  - { offset: 0xA96F, size: 0x8, addend: 0x0, symName: '-[RNSVGBezierElement setControlPoint1:]', symObjAddr: 0x204, symBinAddr: 0x5C6C, symSize: 0x8 }
  - { offset: 0xA9AD, size: 0x8, addend: 0x0, symName: '-[RNSVGBezierElement controlPoint2]', symObjAddr: 0x20C, symBinAddr: 0x5C74, symSize: 0x8 }
  - { offset: 0xA9E1, size: 0x8, addend: 0x0, symName: '-[RNSVGBezierElement setControlPoint2:]', symObjAddr: 0x214, symBinAddr: 0x5C7C, symSize: 0x8 }
  - { offset: 0xAAA6, size: 0x8, addend: 0x0, symName: __GLOBAL__sub_I_RNSVGBezierElement.mm, symObjAddr: 0x254, symBinAddr: 0x5C84, symSize: 0x20 }
  - { offset: 0xCB48, size: 0x8, addend: 0x0, symName: __ZN8facebook5react17HostPlatformColorL14UndefinedColorE, symObjAddr: 0x17968, symBinAddr: 0xB0030, symSize: 0x0 }
  - { offset: 0xD7C0, size: 0x8, addend: 0x0, symName: '-[RNSVGBrush initWithArray:]', symObjAddr: 0x0, symBinAddr: 0x5CA4, symSize: 0x34 }
  - { offset: 0xD800, size: 0x8, addend: 0x0, symName: '-[RNSVGBrush paint:opacity:painter:bounds:]', symObjAddr: 0x34, symBinAddr: 0x5CD8, symSize: 0x4 }
  - { offset: 0xD859, size: 0x8, addend: 0x0, symName: '-[RNSVGBrush applyFillColor:opacity:]', symObjAddr: 0x38, symBinAddr: 0x5CDC, symSize: 0x8 }
  - { offset: 0xD8A0, size: 0x8, addend: 0x0, symName: '-[RNSVGBrush applyStrokeColor:opacity:]', symObjAddr: 0x40, symBinAddr: 0x5CE4, symSize: 0x8 }
  - { offset: 0xD8E7, size: 0x8, addend: 0x0, symName: '-[RNSVGBrush getColorWithOpacity:]', symObjAddr: 0x48, symBinAddr: 0x5CEC, symSize: 0x8 }
  - { offset: 0xD923, size: 0x8, addend: 0x0, symName: '-[RNSVGBrush paint:opacity:painter:]', symObjAddr: 0x50, symBinAddr: 0x5CF4, symSize: 0x4 }
  - { offset: 0xD971, size: 0x8, addend: 0x0, symName: '-[RNSVGBrush brushRef]', symObjAddr: 0x54, symBinAddr: 0x5CF8, symSize: 0x8 }
  - { offset: 0xD9A6, size: 0x8, addend: 0x0, symName: '-[RNSVGBrush setBrushRef:]', symObjAddr: 0x5C, symBinAddr: 0x5D00, symSize: 0xC }
  - { offset: 0xD9E5, size: 0x8, addend: 0x0, symName: '-[RNSVGBrush .cxx_destruct]', symObjAddr: 0x68, symBinAddr: 0x5D0C, symSize: 0xC }
  - { offset: 0xDA9D, size: 0x8, addend: 0x0, symName: __GLOBAL__sub_I_RNSVGBrush.mm, symObjAddr: 0x74, symBinAddr: 0x5D18, symSize: 0x20 }
  - { offset: 0xFBBC, size: 0x8, addend: 0x0, symName: __ZN8facebook5react17HostPlatformColorL14UndefinedColorE, symObjAddr: 0x17A628, symBinAddr: 0xB0048, symSize: 0x0 }
  - { offset: 0x15A39, size: 0x8, addend: 0x0, symName: __ZN8facebook5react38concreteComponentDescriptorConstructorINS0_27ConcreteComponentDescriptorINS0_23RNSVGConcreteShadowNodeIXadL_ZNS0_24RNSVGCircleComponentNameEEENS0_16RNSVGCirclePropsEEEEEEENSt3__110unique_ptrIKNS0_19ComponentDescriptorENS7_14default_deleteISA_EEEERKNS0_29ComponentDescriptorParametersE, symObjAddr: 0x2088, symBinAddr: 0x7CCC, symSize: 0x34 }
  - { offset: 0x4B1DA, size: 0x8, addend: 0x0, symName: __ZNSt3__115allocate_sharedB8ne200100IKN8facebook5react16RNSVGCirclePropsENS_9allocatorIS3_EEJELi0EEENS_10shared_ptrIT_EERKT0_DpOT1_, symObjAddr: 0x1038, symBinAddr: 0x6CD4, symSize: 0x48 }
  - { offset: 0x4B99D, size: 0x8, addend: 0x0, symName: __ZNSt3__120__throw_length_errorB8ne200100EPKc, symObjAddr: 0xFB4, symBinAddr: 0x6C50, symSize: 0x50 }
  - { offset: 0x4C461, size: 0x8, addend: 0x0, symName: __ZNSt3__112__destroy_atB8ne200100IN8facebook5react19AccessibilityActionELi0EEEvPT_, symObjAddr: 0x1D94, symBinAddr: 0x7A30, symSize: 0x50 }
  - { offset: 0x4CA8F, size: 0x8, addend: 0x0, symName: __ZNSt3__111make_uniqueB8ne200100IKN8facebook5react27ConcreteComponentDescriptorINS2_23RNSVGConcreteShadowNodeIXadL_ZNS2_24RNSVGCircleComponentNameEEENS2_16RNSVGCirclePropsEEEEEJRKNS2_29ComponentDescriptorParametersEELi0EEENS_10unique_ptrIT_NS_14default_deleteISD_EEEEDpOT0_, symObjAddr: 0x20BC, symBinAddr: 0x7D00, symSize: 0xD4 }
  - { offset: 0x4D461, size: 0x8, addend: 0x0, symName: __ZNSt3__115allocate_sharedB8ne200100IN8facebook5react23RNSVGConcreteShadowNodeIXadL_ZNS2_24RNSVGCircleComponentNameEEENS2_16RNSVGCirclePropsEEENS_9allocatorIS5_EEJRKNS2_18ShadowNodeFragmentERKNS_10shared_ptrIKNS2_16ShadowNodeFamilyEEENS2_16ShadowNodeTraitsEELi0EEENSB_IT_EERKT0_DpOT1_, symObjAddr: 0x2BEC, symBinAddr: 0x8778, symSize: 0x70 }
  - { offset: 0x4D790, size: 0x8, addend: 0x0, symName: __ZNSt3__115allocate_sharedB8ne200100IN8facebook5react23RNSVGConcreteShadowNodeIXadL_ZNS2_24RNSVGCircleComponentNameEEENS2_16RNSVGCirclePropsEEENS_9allocatorIS5_EEJRKNS2_10ShadowNodeERKNS2_18ShadowNodeFragmentEELi0EEENS_10shared_ptrIT_EERKT0_DpOT1_, symObjAddr: 0x3134, symBinAddr: 0x8AB0, symSize: 0x60 }
  - { offset: 0x4DF40, size: 0x8, addend: 0x0, symName: __ZNSt3__115allocate_sharedB8ne200100IN8facebook5react11EventTargetENS_9allocatorIS3_EEJRKNS_10shared_ptrIKNS2_14InstanceHandleEEERKiELi0EEENS6_IT_EERKT0_DpOT1_, symObjAddr: 0x3888, symBinAddr: 0x90A4, symSize: 0x60 }
  - { offset: 0x4E1FD, size: 0x8, addend: 0x0, symName: __ZNSt3__115allocate_sharedB8ne200100IKN8facebook5react20BaseViewEventEmitterENS_9allocatorIS3_EEJNS_10shared_ptrINS2_11EventTargetEEERKNS_8weak_ptrIKNS2_15EventDispatcherEEEELi0EEENS7_IT_EERKT0_DpOT1_, symObjAddr: 0x349C, symBinAddr: 0x8D68, symSize: 0x60 }
  - { offset: 0x4E4BA, size: 0x8, addend: 0x0, symName: __ZNSt3__115allocate_sharedB8ne200100IN8facebook5react16ShadowNodeFamilyENS_9allocatorIS3_EEJRKNS2_24ShadowNodeFamilyFragmentERNS_10shared_ptrIKNS2_20BaseViewEventEmitterEEERKNS_8weak_ptrIKNS2_15EventDispatcherEEERKNS2_27ConcreteComponentDescriptorINS2_23RNSVGConcreteShadowNodeIXadL_ZNS2_24RNSVGCircleComponentNameEEENS2_16RNSVGCirclePropsEEEEEELi0EEENS9_IT_EERKT0_DpOT1_, symObjAddr: 0x3AEC, symBinAddr: 0x9258, symSize: 0x78 }
  - { offset: 0x4E903, size: 0x8, addend: 0x0, symName: __ZNSt3__112__destroy_atB8ne200100INS_4pairIKNS_12basic_stringIcNS_11char_traitsIcEENS_9allocatorIcEEEENS_10shared_ptrIvEEEELi0EEEvPT_, symObjAddr: 0x29A8, symBinAddr: 0x85EC, symSize: 0x3C }
  - { offset: 0x4F3DA, size: 0x8, addend: 0x0, symName: __ZNSt3__115allocate_sharedB8ne200100IN8facebook5react16RNSVGCirclePropsENS_9allocatorIS3_EEJRKNS2_18PropsParserContextERKS3_RKNS2_8RawPropsEELi0EEENS_10shared_ptrIT_EERKT0_DpOT1_, symObjAddr: 0x333C, symBinAddr: 0x8C60, symSize: 0x70 }
  - { offset: 0x4FF20, size: 0x8, addend: 0x0, symName: __ZNSt3__112construct_atB8ne200100IN8facebook5react20BaseViewEventEmitterEJNS_10shared_ptrINS2_11EventTargetEEERKNS_8weak_ptrIKNS2_15EventDispatcherEEEEPS3_EEPT_SF_DpOT0_, symObjAddr: 0x3590, symBinAddr: 0x8E5C, symSize: 0x130 }
  - { offset: 0x50E78, size: 0x8, addend: 0x0, symName: __ZNSt3__112construct_atB8ne200100IN8facebook5react11EventTargetEJRKNS_10shared_ptrIKNS2_14InstanceHandleEEERKiEPS3_EEPT_SE_DpOT0_, symObjAddr: 0x3998, symBinAddr: 0x91B4, symSize: 0xA4 }
  - { offset: 0x51536, size: 0x8, addend: 0x0, symName: __ZNSt3__112construct_atB8ne200100IN8facebook5react16ShadowNodeFamilyEJRKNS2_24ShadowNodeFamilyFragmentERNS_10shared_ptrIKNS2_20BaseViewEventEmitterEEERKNS_8weak_ptrIKNS2_15EventDispatcherEEERKNS2_27ConcreteComponentDescriptorINS2_23RNSVGConcreteShadowNodeIXadL_ZNS2_24RNSVGCircleComponentNameEEENS2_16RNSVGCirclePropsEEEEEEPS3_EEPT_SR_DpOT0_, symObjAddr: 0x3BF4, symBinAddr: 0x9360, symSize: 0xDC }
  - { offset: 0x533D1, size: 0x8, addend: 0x0, symName: '-[RNSVGCircle initWithFrame:]', symObjAddr: 0x34, symBinAddr: 0x5D6C, symSize: 0xDC }
  - { offset: 0x533FA, size: 0x8, addend: 0x0, symName: '__ZZ29-[RNSVGCircle initWithFrame:]E12defaultProps', symObjAddr: 0x17A640, symBinAddr: 0xB0060, symSize: 0x0 }
  - { offset: 0x56421, size: 0x8, addend: 0x0, symName: __ZN5folly6detail16throw_exception_INS_9TypeErrorEJPKcNS_7dynamic4TypeEEEEvDpT0_, symObjAddr: 0xE24, symBinAddr: 0x6761C, symSize: 0x68 }
  - { offset: 0x574C8, size: 0x8, addend: 0x0, symName: __ZN5folly15throw_exceptionINS_9TypeErrorEEEvOT_, symObjAddr: 0xE8C, symBinAddr: 0x67684, symSize: 0x34 }
  - { offset: 0x5AF03, size: 0x8, addend: 0x0, symName: __ZN8facebook5react18ConcreteShadowNodeIXadL_ZNS0_24RNSVGCircleComponentNameEEENS0_25RNSVGLayoutableShadowNodeENS0_16RNSVGCirclePropsENS0_20BaseViewEventEmitterENS0_9StateDataEE18defaultSharedPropsEv, symObjAddr: 0x3248, symBinAddr: 0x8B6C, symSize: 0x9C }
  - { offset: 0x5AF22, size: 0x8, addend: 0x0, symName: __ZZN8facebook5react18ConcreteShadowNodeIXadL_ZNS0_24RNSVGCircleComponentNameEEENS0_25RNSVGLayoutableShadowNodeENS0_16RNSVGCirclePropsENS0_20BaseViewEventEmitterENS0_9StateDataEE18defaultSharedPropsEvE18defaultSharedProps, symObjAddr: 0x5F68, symBinAddr: 0xAF900, symSize: 0x0 }
  - { offset: 0x5AF65, size: 0x8, addend: 0x0, symName: __ZL20MinimalLayoutMetrics, symObjAddr: 0x56E8, symBinAddr: 0x72678, symSize: 0x0 }
  - { offset: 0x5C0B6, size: 0x8, addend: 0x0, symName: '+[RNSVGCircle load]', symObjAddr: 0x0, symBinAddr: 0x5D38, symSize: 0x34 }
  - { offset: 0x5C0E7, size: 0x8, addend: 0x0, symName: __ZNSt3__110shared_ptrIKN8facebook5react13BaseViewPropsEEaSB8ne200100IKNS2_16RNSVGCirclePropsELi0EEERS5_RKNS0_IT_EE, symObjAddr: 0x114, symBinAddr: 0x5E4C, symSize: 0x78 }
  - { offset: 0x5C2BE, size: 0x8, addend: 0x0, symName: __ZNSt3__110shared_ptrIKN8facebook5react16RNSVGCirclePropsEED1B8ne200100Ev, symObjAddr: 0x110, symBinAddr: 0x5E48, symSize: 0x4 }
  - { offset: 0x5C2E2, size: 0x8, addend: 0x0, symName: __ZNSt3__110shared_ptrIKN8facebook5react16RNSVGCirclePropsEED1B8ne200100Ev, symObjAddr: 0x110, symBinAddr: 0x5E48, symSize: 0x4 }
  - { offset: 0x5C50A, size: 0x8, addend: 0x0, symName: '+[RNSVGCircle componentDescriptorProvider]', symObjAddr: 0x18C, symBinAddr: 0x5EC4, symSize: 0x20 }
  - { offset: 0x5C53E, size: 0x8, addend: 0x0, symName: '+[RNSVGCircle componentDescriptorProvider]', symObjAddr: 0x18C, symBinAddr: 0x5EC4, symSize: 0x20 }
  - { offset: 0x5C67F, size: 0x8, addend: 0x0, symName: '-[RNSVGCircle updateProps:oldProps:]', symObjAddr: 0x1AC, symBinAddr: 0x5EE4, symSize: 0x1BC }
  - { offset: 0x5C93A, size: 0x8, addend: 0x0, symName: __ZL28RNSVGConvertFollyDynamicToIdRKN5folly7dynamicE, symObjAddr: 0x368, symBinAddr: 0x60A0, symSize: 0x274 }
  - { offset: 0x5CDF1, size: 0x8, addend: 0x0, symName: __Z24setCommonRenderablePropsIN8facebook5react16RNSVGCirclePropsEEvRKT_P15RNSVGRenderable, symObjAddr: 0x5DC, symBinAddr: 0x6314, symSize: 0x484 }
  - { offset: 0x5D475, size: 0x8, addend: 0x0, symName: __ZNSt3__110shared_ptrIKN8facebook5react13BaseViewPropsEEaSB8ne200100IKNS2_16RNSVGCirclePropsELi0EEERS5_ONS0_IT_EE, symObjAddr: 0xA60, symBinAddr: 0x6798, symSize: 0x64 }
  - { offset: 0x5D916, size: 0x8, addend: 0x0, symName: __ZL28RNSVGConvertFollyDynamicToIdRKN5folly7dynamicE.cold.1, symObjAddr: 0x44F8, symBinAddr: 0x676C0, symSize: 0x1C }
  - { offset: 0x5DBB1, size: 0x8, addend: 0x0, symName: __Z18setCommonNodePropsIN8facebook5react16RNSVGCirclePropsEEvRKT_P9RNSVGNode, symObjAddr: 0x3DD8, symBinAddr: 0x943C, symSize: 0x6A0 }
  - { offset: 0x5EC05, size: 0x8, addend: 0x0, symName: __ZNSt3__112basic_stringIcNS_11char_traitsIcEENS_9allocatorIcEEE25__init_copy_ctor_externalEPKcm, symObjAddr: 0x4478, symBinAddr: 0x9ADC, symSize: 0x80 }
  - { offset: 0x5EDF2, size: 0x8, addend: 0x0, symName: __ZL28RNSVGConvertFollyDynamicToIdRKN5folly7dynamicE.cold.1, symObjAddr: 0x44F8, symBinAddr: 0x676C0, symSize: 0x1C }
  - { offset: 0x5EE67, size: 0x8, addend: 0x0, symName: '-[RNSVGCircle prepareForRecycle]', symObjAddr: 0xAC4, symBinAddr: 0x67FC, symSize: 0x7C }
  - { offset: 0x5EE98, size: 0x8, addend: 0x0, symName: '-[RNSVGCircle setCx:]', symObjAddr: 0xB40, symBinAddr: 0x6878, symSize: 0x78 }
  - { offset: 0x5EED8, size: 0x8, addend: 0x0, symName: '-[RNSVGCircle setCy:]', symObjAddr: 0xBB8, symBinAddr: 0x68F0, symSize: 0x78 }
  - { offset: 0x5EF18, size: 0x8, addend: 0x0, symName: '-[RNSVGCircle setR:]', symObjAddr: 0xC30, symBinAddr: 0x6968, symSize: 0x78 }
  - { offset: 0x5EF57, size: 0x8, addend: 0x0, symName: '-[RNSVGCircle getPath:]', symObjAddr: 0xCA8, symBinAddr: 0x69E0, symSize: 0xEC }
  - { offset: 0x5F077, size: 0x8, addend: 0x0, symName: '-[RNSVGCircle cx]', symObjAddr: 0xD94, symBinAddr: 0x6ACC, symSize: 0x10 }
  - { offset: 0x5F0AD, size: 0x8, addend: 0x0, symName: '-[RNSVGCircle cy]', symObjAddr: 0xDA4, symBinAddr: 0x6ADC, symSize: 0x10 }
  - { offset: 0x5F0E3, size: 0x8, addend: 0x0, symName: '-[RNSVGCircle r]', symObjAddr: 0xDB4, symBinAddr: 0x6AEC, symSize: 0x10 }
  - { offset: 0x5F119, size: 0x8, addend: 0x0, symName: '-[RNSVGCircle .cxx_destruct]', symObjAddr: 0xDC4, symBinAddr: 0x6AFC, symSize: 0x54 }
  - { offset: 0x5F14A, size: 0x8, addend: 0x0, symName: __Z14RNSVGCircleClsv, symObjAddr: 0xE18, symBinAddr: 0x6B50, symSize: 0xC }
  - { offset: 0x5F1D4, size: 0x8, addend: 0x0, symName: __ZNSt3__112basic_stringIcNS_11char_traitsIcEENS_9allocatorIcEEEC2B8ne200100ILi0EEEPKc, symObjAddr: 0xEFC, symBinAddr: 0x6B98, symSize: 0xA4 }
  - { offset: 0x5F455, size: 0x8, addend: 0x0, symName: __ZNSt3__112basic_stringIcNS_11char_traitsIcEENS_9allocatorIcEEE20__throw_length_errorB8ne200100Ev, symObjAddr: 0xFA0, symBinAddr: 0x6C3C, symSize: 0x14 }
  - { offset: 0x5F46B, size: 0x8, addend: 0x0, symName: __ZN5folly9TypeErrorC1EOS0_, symObjAddr: 0xEC4, symBinAddr: 0x6B60, symSize: 0x24 }
  - { offset: 0x5F4C8, size: 0x8, addend: 0x0, symName: __ZN5folly9TypeErrorD1Ev, symObjAddr: 0xEC0, symBinAddr: 0x6B5C, symSize: 0x4 }
  - { offset: 0x5F4EC, size: 0x8, addend: 0x0, symName: __ZN5folly9TypeErrorD1Ev, symObjAddr: 0xEC0, symBinAddr: 0x6B5C, symSize: 0x4 }
  - { offset: 0x5F527, size: 0x8, addend: 0x0, symName: __ZN5folly9TypeErrorD0Ev, symObjAddr: 0xEE8, symBinAddr: 0x6B84, symSize: 0x14 }
  - { offset: 0x5F701, size: 0x8, addend: 0x0, symName: __ZNSt3__112basic_stringIcNS_11char_traitsIcEENS_9allocatorIcEEE20__throw_length_errorB8ne200100Ev, symObjAddr: 0xFA0, symBinAddr: 0x6C3C, symSize: 0x14 }
  - { offset: 0x5F718, size: 0x8, addend: 0x0, symName: __ZNSt3__120__throw_length_errorB8ne200100EPKc, symObjAddr: 0xFB4, symBinAddr: 0x6C50, symSize: 0x50 }
  - { offset: 0x5F723, size: 0x8, addend: 0x0, symName: __ZNSt12length_errorC1B8ne200100EPKc, symObjAddr: 0x1004, symBinAddr: 0x6CA0, symSize: 0x24 }
  - { offset: 0x5F9D2, size: 0x8, addend: 0x0, symName: __ZNSt3__120__shared_ptr_emplaceIKN8facebook5react16RNSVGCirclePropsENS_9allocatorIS3_EEEC2B8ne200100IJES6_Li0EEES6_DpOT_, symObjAddr: 0x1080, symBinAddr: 0x6D1C, symSize: 0x58 }
  - { offset: 0x5FB51, size: 0x8, addend: 0x0, symName: __ZN8facebook5react16RNSVGCirclePropsC1Ev, symObjAddr: 0x1124, symBinAddr: 0x6DC0, symSize: 0x11C }
  - { offset: 0x602F8, size: 0x8, addend: 0x0, symName: __ZNSt3__120__shared_ptr_emplaceIKN8facebook5react16RNSVGCirclePropsENS_9allocatorIS3_EEED1Ev, symObjAddr: 0x10D8, symBinAddr: 0x6D74, symSize: 0x14 }
  - { offset: 0x6031C, size: 0x8, addend: 0x0, symName: __ZNSt3__120__shared_ptr_emplaceIKN8facebook5react16RNSVGCirclePropsENS_9allocatorIS3_EEED1Ev, symObjAddr: 0x10D8, symBinAddr: 0x6D74, symSize: 0x14 }
  - { offset: 0x60352, size: 0x8, addend: 0x0, symName: __ZNSt3__120__shared_ptr_emplaceIKN8facebook5react16RNSVGCirclePropsENS_9allocatorIS3_EEED0Ev, symObjAddr: 0x10EC, symBinAddr: 0x6D88, symSize: 0x24 }
  - { offset: 0x6043D, size: 0x8, addend: 0x0, symName: __ZNSt3__120__shared_ptr_emplaceIKN8facebook5react16RNSVGCirclePropsENS_9allocatorIS3_EEE16__on_zero_sharedEv, symObjAddr: 0x1110, symBinAddr: 0x6DAC, symSize: 0x10 }
  - { offset: 0x60466, size: 0x8, addend: 0x0, symName: __ZNSt3__120__shared_ptr_emplaceIKN8facebook5react16RNSVGCirclePropsENS_9allocatorIS3_EEE16__on_zero_sharedEv, symObjAddr: 0x1110, symBinAddr: 0x6DAC, symSize: 0x10 }
  - { offset: 0x604DA, size: 0x8, addend: 0x0, symName: __ZN8facebook5react16RNSVGCirclePropsD2Ev, symObjAddr: 0x1F0C, symBinAddr: 0x7BA8, symSize: 0x124 }
  - { offset: 0x612D7, size: 0x8, addend: 0x0, symName: __ZNSt3__120__shared_ptr_emplaceIKN8facebook5react16RNSVGCirclePropsENS_9allocatorIS3_EEE21__on_zero_shared_weakEv, symObjAddr: 0x1120, symBinAddr: 0x6DBC, symSize: 0x4 }
  - { offset: 0x6130A, size: 0x8, addend: 0x0, symName: __ZNSt3__120__shared_ptr_emplaceIKN8facebook5react16RNSVGCirclePropsENS_9allocatorIS3_EEE21__on_zero_shared_weakEv, symObjAddr: 0x1120, symBinAddr: 0x6DBC, symSize: 0x4 }
  - { offset: 0x6132E, size: 0x8, addend: 0x0, symName: __ZNSt3__120__shared_ptr_emplaceIKN8facebook5react16RNSVGCirclePropsENS_9allocatorIS3_EEE21__on_zero_shared_weakEv, symObjAddr: 0x1120, symBinAddr: 0x6DBC, symSize: 0x4 }
  - { offset: 0x61353, size: 0x8, addend: 0x0, symName: __ZNSt3__120__shared_ptr_emplaceIKN8facebook5react16RNSVGCirclePropsENS_9allocatorIS3_EEE21__on_zero_shared_weakEv, symObjAddr: 0x1120, symBinAddr: 0x6DBC, symSize: 0x4 }
  - { offset: 0x6138B, size: 0x8, addend: 0x0, symName: __ZNSt3__120__shared_ptr_emplaceIKN8facebook5react16RNSVGCirclePropsENS_9allocatorIS3_EEE21__on_zero_shared_weakEv, symObjAddr: 0x1120, symBinAddr: 0x6DBC, symSize: 0x4 }
  - { offset: 0x61583, size: 0x8, addend: 0x0, symName: __ZN8facebook5react13BaseViewPropsC2Ev, symObjAddr: 0x1240, symBinAddr: 0x6EDC, symSize: 0x2E4 }
  - { offset: 0x64555, size: 0x8, addend: 0x0, symName: __ZN8facebook5react17YogaStylablePropsC2Ev, symObjAddr: 0x1784, symBinAddr: 0x7420, symSize: 0xF0 }
  - { offset: 0x6458D, size: 0x8, addend: 0x0, symName: __ZN8facebook5react17YogaStylablePropsC2Ev, symObjAddr: 0x1784, symBinAddr: 0x7420, symSize: 0xF0 }
  - { offset: 0x654A0, size: 0x8, addend: 0x0, symName: __ZN8facebook5react13BaseViewPropsD2Ev, symObjAddr: 0x1524, symBinAddr: 0x71C0, symSize: 0xD0 }
  - { offset: 0x65CA7, size: 0x8, addend: 0x0, symName: __ZNSt3__16vectorINS_7variantIJN8facebook5react14LinearGradientENS3_14RadialGradientEEEENS_9allocatorIS6_EEE16__destroy_vectorclB8ne200100Ev, symObjAddr: 0x1948, symBinAddr: 0x75E4, symSize: 0x70 }
  - { offset: 0x65F6B, size: 0x8, addend: 0x0, symName: __ZNSt3__16vectorIN8facebook5react14FilterFunctionENS_9allocatorIS3_EEE16__destroy_vectorclB8ne200100Ev, symObjAddr: 0x1ACC, symBinAddr: 0x7768, symSize: 0x74 }
  - { offset: 0x66282, size: 0x8, addend: 0x0, symName: __ZNSt3__16vectorIN8facebook5react9BoxShadowENS_9allocatorIS3_EEE16__destroy_vectorclB8ne200100Ev, symObjAddr: 0x1BA0, symBinAddr: 0x783C, symSize: 0x74 }
  - { offset: 0x664C5, size: 0x8, addend: 0x0, symName: __ZNSt3__110shared_ptrIvED2B8ne200100Ev, symObjAddr: 0x1EB4, symBinAddr: 0x7B50, symSize: 0x58 }
  - { offset: 0x6655D, size: 0x8, addend: 0x0, symName: __ZN8facebook5react22CascadedRectangleEdgesINS0_11SharedColorEED2Ev, symObjAddr: 0x1C14, symBinAddr: 0x78B0, symSize: 0x110 }
  - { offset: 0x6754D, size: 0x8, addend: 0x0, symName: __ZN8facebook5react18AccessibilityPropsD2Ev, symObjAddr: 0x1874, symBinAddr: 0x7510, symSize: 0xD4 }
  - { offset: 0x680C0, size: 0x8, addend: 0x0, symName: __ZNKSt3__114default_deleteIN8facebook4yoga16SmallValueBufferILm4EE8OverflowEEclB8ne200100EPS5_, symObjAddr: 0x1DE4, symBinAddr: 0x7A80, symSize: 0x44 }
  - { offset: 0x68346, size: 0x8, addend: 0x0, symName: __ZN8facebook5react13BaseViewPropsD1Ev, symObjAddr: 0x15F4, symBinAddr: 0x7290, symSize: 0xC }
  - { offset: 0x6839D, size: 0x8, addend: 0x0, symName: __ZN8facebook5react13BaseViewPropsD0Ev, symObjAddr: 0x1600, symBinAddr: 0x729C, symSize: 0x1C }
  - { offset: 0x683FB, size: 0x8, addend: 0x0, symName: __ZN8facebook5react17YogaStylablePropsD1Ev, symObjAddr: 0x161C, symBinAddr: 0x72B8, symSize: 0x60 }
  - { offset: 0x686CE, size: 0x8, addend: 0x0, symName: __ZN8facebook5react17YogaStylablePropsD0Ev, symObjAddr: 0x167C, symBinAddr: 0x7318, symSize: 0x60 }
  - { offset: 0x689AD, size: 0x8, addend: 0x0, symName: __ZN8facebook5react5PropsD1Ev, symObjAddr: 0x16DC, symBinAddr: 0x7378, symSize: 0x40 }
  - { offset: 0x68B20, size: 0x8, addend: 0x0, symName: __ZN8facebook5react5PropsD0Ev, symObjAddr: 0x171C, symBinAddr: 0x73B8, symSize: 0x40 }
  - { offset: 0x68C9F, size: 0x8, addend: 0x0, symName: __ZN8facebook5react16RNSVGCirclePropsD1Ev, symObjAddr: 0x175C, symBinAddr: 0x73F8, symSize: 0xC }
  - { offset: 0x68CD6, size: 0x8, addend: 0x0, symName: __ZN8facebook5react16RNSVGCirclePropsD0Ev, symObjAddr: 0x1768, symBinAddr: 0x7404, symSize: 0x1C }
  - { offset: 0x69143, size: 0x8, addend: 0x0, symName: __ZNSt3__16vectorIN8facebook5react19AccessibilityActionENS_9allocatorIS3_EEE16__destroy_vectorclB8ne200100Ev, symObjAddr: 0x1D24, symBinAddr: 0x79C0, symSize: 0x70 }
  - { offset: 0x69293, size: 0x8, addend: 0x0, symName: __ZNSt3__16vectorINS_12basic_stringIcNS_11char_traitsIcEENS_9allocatorIcEEEENS4_IS6_EEE16__destroy_vectorclB8ne200100Ev, symObjAddr: 0x1E28, symBinAddr: 0x7AC4, symSize: 0x40 }
  - { offset: 0x69596, size: 0x8, addend: 0x0, symName: __ZNSt3__116__variant_detail6__dtorINS0_8__traitsIJN8facebook5react14LinearGradientENS4_14RadialGradientEEEELNS0_6_TraitE1EE9__destroyB8ne200100Ev, symObjAddr: 0x19B8, symBinAddr: 0x7654, symSize: 0x54 }
  - { offset: 0x6992B, size: 0x8, addend: 0x0, symName: __ZNSt3__116__variant_detail12__visitation6__base12__dispatcherIJLm0EEE10__dispatchB8ne200100IOZNS0_6__dtorINS0_8__traitsIJN8facebook5react14LinearGradientENS9_14RadialGradientEEEELNS0_6_TraitE1EE9__destroyB8ne200100EvEUlRT_E_JRNS0_6__baseILSD_1EJSA_SB_EEEEEEDcSF_DpT0_, symObjAddr: 0x1A0C, symBinAddr: 0x76A8, symSize: 0x28 }
  - { offset: 0x69AD1, size: 0x8, addend: 0x0, symName: __ZNSt3__16vectorIN8facebook5react9ColorStopENS_9allocatorIS3_EEE16__destroy_vectorclB8ne200100Ev, symObjAddr: 0x1A5C, symBinAddr: 0x76F8, symSize: 0x70 }
  - { offset: 0x69DC2, size: 0x8, addend: 0x0, symName: __ZNSt3__116__variant_detail12__visitation6__base12__dispatcherIJLm1EEE10__dispatchB8ne200100IOZNS0_6__dtorINS0_8__traitsIJN8facebook5react14LinearGradientENS9_14RadialGradientEEEELNS0_6_TraitE1EE9__destroyB8ne200100EvEUlRT_E_JRNS0_6__baseILSD_1EJSA_SB_EEEEEEDcSF_DpT0_, symObjAddr: 0x1A34, symBinAddr: 0x76D0, symSize: 0x28 }
  - { offset: 0x6A330, size: 0x8, addend: 0x0, symName: __ZNSt3__116__variant_detail6__dtorINS0_8__traitsIJdN8facebook5react16DropShadowParamsEEEELNS0_6_TraitE1EE9__destroyB8ne200100Ev, symObjAddr: 0x1B40, symBinAddr: 0x77DC, symSize: 0x54 }
  - { offset: 0x6A55F, size: 0x8, addend: 0x0, symName: __ZNSt3__116__variant_detail12__visitation6__base12__dispatcherIJLm0EEE10__dispatchB8ne200100IOZNS0_6__dtorINS0_8__traitsIJdN8facebook5react16DropShadowParamsEEEELNS0_6_TraitE1EE9__destroyB8ne200100EvEUlRT_E_JRNS0_6__baseILSC_1EJdSA_EEEEEEDcSE_DpT0_, symObjAddr: 0x1B94, symBinAddr: 0x7830, symSize: 0x4 }
  - { offset: 0x6A66B, size: 0x8, addend: 0x0, symName: __ZNSt3__116__variant_detail12__visitation6__base12__dispatcherIJLm1EEE10__dispatchB8ne200100IOZNS0_6__dtorINS0_8__traitsIJdN8facebook5react16DropShadowParamsEEEELNS0_6_TraitE1EE9__destroyB8ne200100EvEUlRT_E_JRNS0_6__baseILSC_1EJdSA_EEEEEEDcSE_DpT0_, symObjAddr: 0x1B98, symBinAddr: 0x7834, symSize: 0x8 }
  - { offset: 0x6A6A3, size: 0x8, addend: 0x0, symName: __ZNSt3__116__variant_detail12__visitation6__base12__dispatcherIJLm1EEE10__dispatchB8ne200100IOZNS0_6__dtorINS0_8__traitsIJdN8facebook5react16DropShadowParamsEEEELNS0_6_TraitE1EE9__destroyB8ne200100EvEUlRT_E_JRNS0_6__baseILSC_1EJdSA_EEEEEEDcSE_DpT0_, symObjAddr: 0x1B98, symBinAddr: 0x7834, symSize: 0x8 }
  - { offset: 0x6A6CB, size: 0x8, addend: 0x0, symName: __ZNSt3__116__variant_detail12__visitation6__base12__dispatcherIJLm1EEE10__dispatchB8ne200100IOZNS0_6__dtorINS0_8__traitsIJdN8facebook5react16DropShadowParamsEEEELNS0_6_TraitE1EE9__destroyB8ne200100EvEUlRT_E_JRNS0_6__baseILSC_1EJdSA_EEEEEEDcSE_DpT0_, symObjAddr: 0x1B98, symBinAddr: 0x7834, symSize: 0x8 }
  - { offset: 0x6A6F3, size: 0x8, addend: 0x0, symName: __ZNSt3__116__variant_detail12__visitation6__base12__dispatcherIJLm1EEE10__dispatchB8ne200100IOZNS0_6__dtorINS0_8__traitsIJdN8facebook5react16DropShadowParamsEEEELNS0_6_TraitE1EE9__destroyB8ne200100EvEUlRT_E_JRNS0_6__baseILSC_1EJdSA_EEEEEEDcSE_DpT0_, symObjAddr: 0x1B98, symBinAddr: 0x7834, symSize: 0x8 }
  - { offset: 0x6A711, size: 0x8, addend: 0x0, symName: __ZNSt3__116__variant_detail12__visitation6__base12__dispatcherIJLm1EEE10__dispatchB8ne200100IOZNS0_6__dtorINS0_8__traitsIJdN8facebook5react16DropShadowParamsEEEELNS0_6_TraitE1EE9__destroyB8ne200100EvEUlRT_E_JRNS0_6__baseILSC_1EJdSA_EEEEEEDcSE_DpT0_, symObjAddr: 0x1B98, symBinAddr: 0x7834, symSize: 0x8 }
  - { offset: 0x6A72F, size: 0x8, addend: 0x0, symName: __ZNSt3__116__variant_detail12__visitation6__base12__dispatcherIJLm1EEE10__dispatchB8ne200100IOZNS0_6__dtorINS0_8__traitsIJdN8facebook5react16DropShadowParamsEEEELNS0_6_TraitE1EE9__destroyB8ne200100EvEUlRT_E_JRNS0_6__baseILSC_1EJdSA_EEEEEEDcSE_DpT0_, symObjAddr: 0x1B98, symBinAddr: 0x7834, symSize: 0x8 }
  - { offset: 0x6A74D, size: 0x8, addend: 0x0, symName: __ZNSt3__116__variant_detail12__visitation6__base12__dispatcherIJLm1EEE10__dispatchB8ne200100IOZNS0_6__dtorINS0_8__traitsIJdN8facebook5react16DropShadowParamsEEEELNS0_6_TraitE1EE9__destroyB8ne200100EvEUlRT_E_JRNS0_6__baseILSC_1EJdSA_EEEEEEDcSE_DpT0_, symObjAddr: 0x1B98, symBinAddr: 0x7834, symSize: 0x8 }
  - { offset: 0x6ADA4, size: 0x8, addend: 0x0, symName: __ZNSt3__16vectorINS_12basic_stringIcNS_11char_traitsIcEENS_9allocatorIcEEEENS4_IS6_EEE5clearB8ne200100Ev, symObjAddr: 0x1E68, symBinAddr: 0x7B04, symSize: 0x4C }
  - { offset: 0x6B631, size: 0x8, addend: 0x0, symName: __ZN8facebook5react14RawPropsParser7prepareINS0_16RNSVGCirclePropsEEEvv, symObjAddr: 0x21E0, symBinAddr: 0x7E24, symSize: 0x1DC }
  - { offset: 0x6BD1F, size: 0x8, addend: 0x0, symName: __ZN8facebook5react14RawPropsParserD1Ev, symObjAddr: 0x2190, symBinAddr: 0x7DD4, symSize: 0x50 }
  - { offset: 0x6C539, size: 0x8, addend: 0x0, symName: __ZNSt3__112__hash_tableINS_17__hash_value_typeINS_12basic_stringIcNS_11char_traitsIcEENS_9allocatorIcEEEENS_10shared_ptrIvEEEENS_22__unordered_map_hasherIS7_SA_NS_4hashIS7_EENS_8equal_toIS7_EELb1EEENS_21__unordered_map_equalIS7_SA_SF_SD_Lb1EEENS5_ISA_EEED2Ev, symObjAddr: 0x2934, symBinAddr: 0x8578, symSize: 0x38 }
  - { offset: 0x6C6A7, size: 0x8, addend: 0x0, symName: __ZNSt3__16vectorIN8facebook5react8RawValueENS_9allocatorIS3_EEE16__destroy_vectorclB8ne200100Ev, symObjAddr: 0x29E4, symBinAddr: 0x8628, symSize: 0x70 }
  - { offset: 0x6C9C2, size: 0x8, addend: 0x0, symName: __ZN8facebook5react27ConcreteComponentDescriptorINS0_23RNSVGConcreteShadowNodeIXadL_ZNS0_24RNSVGCircleComponentNameEEENS0_16RNSVGCirclePropsEEEED1Ev, symObjAddr: 0x23BC, symBinAddr: 0x8000, symSize: 0x4 }
  - { offset: 0x6C9E6, size: 0x8, addend: 0x0, symName: __ZN8facebook5react27ConcreteComponentDescriptorINS0_23RNSVGConcreteShadowNodeIXadL_ZNS0_24RNSVGCircleComponentNameEEENS0_16RNSVGCirclePropsEEEED1Ev, symObjAddr: 0x23BC, symBinAddr: 0x8000, symSize: 0x4 }
  - { offset: 0x6CA04, size: 0x8, addend: 0x0, symName: __ZN8facebook5react27ConcreteComponentDescriptorINS0_23RNSVGConcreteShadowNodeIXadL_ZNS0_24RNSVGCircleComponentNameEEENS0_16RNSVGCirclePropsEEEED1Ev, symObjAddr: 0x23BC, symBinAddr: 0x8000, symSize: 0x4 }
  - { offset: 0x6CA17, size: 0x8, addend: 0x0, symName: __ZN8facebook5react19ComponentDescriptorD2Ev, symObjAddr: 0x2AB8, symBinAddr: 0x86FC, symSize: 0x7C }
  - { offset: 0x6CF23, size: 0x8, addend: 0x0, symName: __ZN8facebook5react27ConcreteComponentDescriptorINS0_23RNSVGConcreteShadowNodeIXadL_ZNS0_24RNSVGCircleComponentNameEEENS0_16RNSVGCirclePropsEEEED0Ev, symObjAddr: 0x23C0, symBinAddr: 0x8004, symSize: 0x14 }
  - { offset: 0x6CF9F, size: 0x8, addend: 0x0, symName: __ZNK8facebook5react27ConcreteComponentDescriptorINS0_23RNSVGConcreteShadowNodeIXadL_ZNS0_24RNSVGCircleComponentNameEEENS0_16RNSVGCirclePropsEEEE18getComponentHandleEv, symObjAddr: 0x23D4, symBinAddr: 0x8018, symSize: 0xC }
  - { offset: 0x6CFC5, size: 0x8, addend: 0x0, symName: __ZNK8facebook5react27ConcreteComponentDescriptorINS0_23RNSVGConcreteShadowNodeIXadL_ZNS0_24RNSVGCircleComponentNameEEENS0_16RNSVGCirclePropsEEEE16getComponentNameEv, symObjAddr: 0x23E0, symBinAddr: 0x8024, symSize: 0xC }
  - { offset: 0x6CFEB, size: 0x8, addend: 0x0, symName: __ZNK8facebook5react27ConcreteComponentDescriptorINS0_23RNSVGConcreteShadowNodeIXadL_ZNS0_24RNSVGCircleComponentNameEEENS0_16RNSVGCirclePropsEEEE9getTraitsEv, symObjAddr: 0x23EC, symBinAddr: 0x8030, symSize: 0x8 }
  - { offset: 0x6D0E5, size: 0x8, addend: 0x0, symName: __ZNK8facebook5react27ConcreteComponentDescriptorINS0_23RNSVGConcreteShadowNodeIXadL_ZNS0_24RNSVGCircleComponentNameEEENS0_16RNSVGCirclePropsEEEE16createShadowNodeERKNS0_18ShadowNodeFragmentERKNSt3__110shared_ptrIKNS0_16ShadowNodeFamilyEEE, symObjAddr: 0x23F4, symBinAddr: 0x8038, symSize: 0x90 }
  - { offset: 0x6D371, size: 0x8, addend: 0x0, symName: __ZNK8facebook5react27ConcreteComponentDescriptorINS0_23RNSVGConcreteShadowNodeIXadL_ZNS0_24RNSVGCircleComponentNameEEENS0_16RNSVGCirclePropsEEEE15cloneShadowNodeERKNS0_10ShadowNodeERKNS0_18ShadowNodeFragmentE, symObjAddr: 0x2484, symBinAddr: 0x80C8, symSize: 0x104 }
  - { offset: 0x6D6FE, size: 0x8, addend: 0x0, symName: __ZNK8facebook5react27ConcreteComponentDescriptorINS0_23RNSVGConcreteShadowNodeIXadL_ZNS0_24RNSVGCircleComponentNameEEENS0_16RNSVGCirclePropsEEEE11appendChildERKNSt3__110shared_ptrIKNS0_10ShadowNodeEEESC_, symObjAddr: 0x2588, symBinAddr: 0x81CC, symSize: 0x14 }
  - { offset: 0x6D754, size: 0x8, addend: 0x0, symName: __ZNK8facebook5react27ConcreteComponentDescriptorINS0_23RNSVGConcreteShadowNodeIXadL_ZNS0_24RNSVGCircleComponentNameEEENS0_16RNSVGCirclePropsEEEE11appendChildERKNSt3__110shared_ptrIKNS0_10ShadowNodeEEESC_, symObjAddr: 0x2588, symBinAddr: 0x81CC, symSize: 0x14 }
  - { offset: 0x6DE9C, size: 0x8, addend: 0x0, symName: __ZNK8facebook5react27ConcreteComponentDescriptorINS0_23RNSVGConcreteShadowNodeIXadL_ZNS0_24RNSVGCircleComponentNameEEENS0_16RNSVGCirclePropsEEEE10clonePropsERKNS0_18PropsParserContextERKNSt3__110shared_ptrIKNS0_5PropsEEENS0_8RawPropsE, symObjAddr: 0x259C, symBinAddr: 0x81E0, symSize: 0x21C }
  - { offset: 0x6EA36, size: 0x8, addend: 0x0, symName: __ZN8facebook5react18ConcreteShadowNodeIXadL_ZNS0_24RNSVGCircleComponentNameEEENS0_25RNSVGLayoutableShadowNodeENS0_16RNSVGCirclePropsENS0_20BaseViewEventEmitterENS0_9StateDataEE5PropsERKNS0_18PropsParserContextERKNS0_8RawPropsERKNSt3__110shared_ptrIKNS0_5PropsEEE, symObjAddr: 0x32E4, symBinAddr: 0x8C08, symSize: 0x58 }
  - { offset: 0x6EB34, size: 0x8, addend: 0x0, symName: __ZNSt3__116__variant_detail6__dtorINS0_8__traitsIJN5folly7dynamicENS_4pairIPN8facebook3jsi7RuntimeENS7_5ValueEEEEEELNS0_6_TraitE1EE9__destroyB8ne200100Ev, symObjAddr: 0x2A54, symBinAddr: 0x8698, symSize: 0x54 }
  - { offset: 0x6ECFE, size: 0x8, addend: 0x0, symName: __ZNK8facebook5react27ConcreteComponentDescriptorINS0_23RNSVGConcreteShadowNodeIXadL_ZNS0_24RNSVGCircleComponentNameEEENS0_16RNSVGCirclePropsEEEE18createInitialStateERKNSt3__110shared_ptrIKNS0_5PropsEEERKNS7_IKNS0_16ShadowNodeFamilyEEE, symObjAddr: 0x27B8, symBinAddr: 0x83FC, symSize: 0x8 }
  - { offset: 0x6ED42, size: 0x8, addend: 0x0, symName: __ZNK8facebook5react27ConcreteComponentDescriptorINS0_23RNSVGConcreteShadowNodeIXadL_ZNS0_24RNSVGCircleComponentNameEEENS0_16RNSVGCirclePropsEEEE18createInitialStateERKNSt3__110shared_ptrIKNS0_5PropsEEERKNS7_IKNS0_16ShadowNodeFamilyEEE, symObjAddr: 0x27B8, symBinAddr: 0x83FC, symSize: 0x8 }
  - { offset: 0x6ED66, size: 0x8, addend: 0x0, symName: __ZNK8facebook5react27ConcreteComponentDescriptorINS0_23RNSVGConcreteShadowNodeIXadL_ZNS0_24RNSVGCircleComponentNameEEENS0_16RNSVGCirclePropsEEEE18createInitialStateERKNSt3__110shared_ptrIKNS0_5PropsEEERKNS7_IKNS0_16ShadowNodeFamilyEEE, symObjAddr: 0x27B8, symBinAddr: 0x83FC, symSize: 0x8 }
  - { offset: 0x6ED8A, size: 0x8, addend: 0x0, symName: __ZNK8facebook5react27ConcreteComponentDescriptorINS0_23RNSVGConcreteShadowNodeIXadL_ZNS0_24RNSVGCircleComponentNameEEENS0_16RNSVGCirclePropsEEEE11createStateERKNS0_16ShadowNodeFamilyERKNSt3__110shared_ptrIKvEE, symObjAddr: 0x27C0, symBinAddr: 0x8404, symSize: 0x8 }
  - { offset: 0x6EDCE, size: 0x8, addend: 0x0, symName: __ZNK8facebook5react27ConcreteComponentDescriptorINS0_23RNSVGConcreteShadowNodeIXadL_ZNS0_24RNSVGCircleComponentNameEEENS0_16RNSVGCirclePropsEEEE11createStateERKNS0_16ShadowNodeFamilyERKNSt3__110shared_ptrIKvEE, symObjAddr: 0x27C0, symBinAddr: 0x8404, symSize: 0x8 }
  - { offset: 0x6EDF2, size: 0x8, addend: 0x0, symName: __ZNK8facebook5react27ConcreteComponentDescriptorINS0_23RNSVGConcreteShadowNodeIXadL_ZNS0_24RNSVGCircleComponentNameEEENS0_16RNSVGCirclePropsEEEE11createStateERKNS0_16ShadowNodeFamilyERKNSt3__110shared_ptrIKvEE, symObjAddr: 0x27C0, symBinAddr: 0x8404, symSize: 0x8 }
  - { offset: 0x6F035, size: 0x8, addend: 0x0, symName: __ZNK8facebook5react27ConcreteComponentDescriptorINS0_23RNSVGConcreteShadowNodeIXadL_ZNS0_24RNSVGCircleComponentNameEEENS0_16RNSVGCirclePropsEEEE12createFamilyERKNS0_24ShadowNodeFamilyFragmentE, symObjAddr: 0x27C8, symBinAddr: 0x840C, symSize: 0x168 }
  - { offset: 0x6F5C4, size: 0x8, addend: 0x0, symName: __ZNK8facebook5react27ConcreteComponentDescriptorINS0_23RNSVGConcreteShadowNodeIXadL_ZNS0_24RNSVGCircleComponentNameEEENS0_16RNSVGCirclePropsEEEE5adoptERNS0_10ShadowNodeE, symObjAddr: 0x2930, symBinAddr: 0x8574, symSize: 0x4 }
  - { offset: 0x6F6E4, size: 0x8, addend: 0x0, symName: __ZNSt3__112__hash_tableINS_17__hash_value_typeINS_12basic_stringIcNS_11char_traitsIcEENS_9allocatorIcEEEENS_10shared_ptrIvEEEENS_22__unordered_map_hasherIS7_SA_NS_4hashIS7_EENS_8equal_toIS7_EELb1EEENS_21__unordered_map_equalIS7_SA_SF_SD_Lb1EEENS5_ISA_EEE17__deallocate_nodeEPNS_16__hash_node_baseIPNS_11__hash_nodeISA_PvEEEE, symObjAddr: 0x296C, symBinAddr: 0x85B0, symSize: 0x3C }
  - { offset: 0x6FB95, size: 0x8, addend: 0x0, symName: __ZNSt3__116__variant_detail12__visitation6__base12__dispatcherIJLm0EEE10__dispatchB8ne200100IOZNS0_6__dtorINS0_8__traitsIJN5folly7dynamicENS_4pairIPN8facebook3jsi7RuntimeENSC_5ValueEEEEEELNS0_6_TraitE1EE9__destroyB8ne200100EvEUlRT_E_JRNS0_6__baseILSI_1EJS9_SG_EEEEEEDcSK_DpT0_, symObjAddr: 0x2AA8, symBinAddr: 0x86EC, symSize: 0x8 }
  - { offset: 0x6FD4B, size: 0x8, addend: 0x0, symName: __ZNSt3__116__variant_detail12__visitation6__base12__dispatcherIJLm1EEE10__dispatchB8ne200100IOZNS0_6__dtorINS0_8__traitsIJN5folly7dynamicENS_4pairIPN8facebook3jsi7RuntimeENSC_5ValueEEEEEELNS0_6_TraitE1EE9__destroyB8ne200100EvEUlRT_E_JRNS0_6__baseILSI_1EJS9_SG_EEEEEEDcSK_DpT0_, symObjAddr: 0x2AB0, symBinAddr: 0x86F4, symSize: 0x8 }
  - { offset: 0x6FD83, size: 0x8, addend: 0x0, symName: __ZNSt3__116__variant_detail12__visitation6__base12__dispatcherIJLm1EEE10__dispatchB8ne200100IOZNS0_6__dtorINS0_8__traitsIJN5folly7dynamicENS_4pairIPN8facebook3jsi7RuntimeENSC_5ValueEEEEEELNS0_6_TraitE1EE9__destroyB8ne200100EvEUlRT_E_JRNS0_6__baseILSI_1EJS9_SG_EEEEEEDcSK_DpT0_, symObjAddr: 0x2AB0, symBinAddr: 0x86F4, symSize: 0x8 }
  - { offset: 0x6FDAB, size: 0x8, addend: 0x0, symName: __ZNSt3__116__variant_detail12__visitation6__base12__dispatcherIJLm1EEE10__dispatchB8ne200100IOZNS0_6__dtorINS0_8__traitsIJN5folly7dynamicENS_4pairIPN8facebook3jsi7RuntimeENSC_5ValueEEEEEELNS0_6_TraitE1EE9__destroyB8ne200100EvEUlRT_E_JRNS0_6__baseILSI_1EJS9_SG_EEEEEEDcSK_DpT0_, symObjAddr: 0x2AB0, symBinAddr: 0x86F4, symSize: 0x8 }
  - { offset: 0x6FDD3, size: 0x8, addend: 0x0, symName: __ZNSt3__116__variant_detail12__visitation6__base12__dispatcherIJLm1EEE10__dispatchB8ne200100IOZNS0_6__dtorINS0_8__traitsIJN5folly7dynamicENS_4pairIPN8facebook3jsi7RuntimeENSC_5ValueEEEEEELNS0_6_TraitE1EE9__destroyB8ne200100EvEUlRT_E_JRNS0_6__baseILSI_1EJS9_SG_EEEEEEDcSK_DpT0_, symObjAddr: 0x2AB0, symBinAddr: 0x86F4, symSize: 0x8 }
  - { offset: 0x6FDF1, size: 0x8, addend: 0x0, symName: __ZNSt3__116__variant_detail12__visitation6__base12__dispatcherIJLm1EEE10__dispatchB8ne200100IOZNS0_6__dtorINS0_8__traitsIJN5folly7dynamicENS_4pairIPN8facebook3jsi7RuntimeENSC_5ValueEEEEEELNS0_6_TraitE1EE9__destroyB8ne200100EvEUlRT_E_JRNS0_6__baseILSI_1EJS9_SG_EEEEEEDcSK_DpT0_, symObjAddr: 0x2AB0, symBinAddr: 0x86F4, symSize: 0x8 }
  - { offset: 0x6FE0F, size: 0x8, addend: 0x0, symName: __ZNSt3__116__variant_detail12__visitation6__base12__dispatcherIJLm1EEE10__dispatchB8ne200100IOZNS0_6__dtorINS0_8__traitsIJN5folly7dynamicENS_4pairIPN8facebook3jsi7RuntimeENSC_5ValueEEEEEELNS0_6_TraitE1EE9__destroyB8ne200100EvEUlRT_E_JRNS0_6__baseILSI_1EJS9_SG_EEEEEEDcSK_DpT0_, symObjAddr: 0x2AB0, symBinAddr: 0x86F4, symSize: 0x8 }
  - { offset: 0x6FE2D, size: 0x8, addend: 0x0, symName: __ZNSt3__116__variant_detail12__visitation6__base12__dispatcherIJLm1EEE10__dispatchB8ne200100IOZNS0_6__dtorINS0_8__traitsIJN5folly7dynamicENS_4pairIPN8facebook3jsi7RuntimeENSC_5ValueEEEEEELNS0_6_TraitE1EE9__destroyB8ne200100EvEUlRT_E_JRNS0_6__baseILSI_1EJS9_SG_EEEEEEDcSK_DpT0_, symObjAddr: 0x2AB0, symBinAddr: 0x86F4, symSize: 0x8 }
  - { offset: 0x6FF89, size: 0x8, addend: 0x0, symName: __ZN8facebook5react19ComponentDescriptorD1Ev, symObjAddr: 0x2B34, symBinAddr: 0x676B8, symSize: 0x4 }
  - { offset: 0x6FFB2, size: 0x8, addend: 0x0, symName: __ZN8facebook5react19ComponentDescriptorD0Ev, symObjAddr: 0x2B38, symBinAddr: 0x676BC, symSize: 0x4 }
  - { offset: 0x70231, size: 0x8, addend: 0x0, symName: __ZNSt3__120__shared_ptr_emplaceIN8facebook5react23RNSVGConcreteShadowNodeIXadL_ZNS2_24RNSVGCircleComponentNameEEENS2_16RNSVGCirclePropsEEENS_9allocatorIS5_EEEC2B8ne200100IJRKNS2_18ShadowNodeFragmentERKNS_10shared_ptrIKNS2_16ShadowNodeFamilyEEENS2_16ShadowNodeTraitsEES7_Li0EEES7_DpOT_, symObjAddr: 0x2C5C, symBinAddr: 0x87E8, symSize: 0x60 }
  - { offset: 0x70555, size: 0x8, addend: 0x0, symName: __ZNSt3__120__shared_ptr_emplaceIN8facebook5react23RNSVGConcreteShadowNodeIXadL_ZNS2_24RNSVGCircleComponentNameEEENS2_16RNSVGCirclePropsEEENS_9allocatorIS5_EEED1Ev, symObjAddr: 0x2CBC, symBinAddr: 0x8848, symSize: 0x14 }
  - { offset: 0x70579, size: 0x8, addend: 0x0, symName: __ZNSt3__120__shared_ptr_emplaceIN8facebook5react23RNSVGConcreteShadowNodeIXadL_ZNS2_24RNSVGCircleComponentNameEEENS2_16RNSVGCirclePropsEEENS_9allocatorIS5_EEED1Ev, symObjAddr: 0x2CBC, symBinAddr: 0x8848, symSize: 0x14 }
  - { offset: 0x705AF, size: 0x8, addend: 0x0, symName: __ZNSt3__120__shared_ptr_emplaceIN8facebook5react23RNSVGConcreteShadowNodeIXadL_ZNS2_24RNSVGCircleComponentNameEEENS2_16RNSVGCirclePropsEEENS_9allocatorIS5_EEED0Ev, symObjAddr: 0x2CD0, symBinAddr: 0x885C, symSize: 0x24 }
  - { offset: 0x7067F, size: 0x8, addend: 0x0, symName: __ZNSt3__120__shared_ptr_emplaceIN8facebook5react23RNSVGConcreteShadowNodeIXadL_ZNS2_24RNSVGCircleComponentNameEEENS2_16RNSVGCirclePropsEEENS_9allocatorIS5_EEE16__on_zero_sharedEv, symObjAddr: 0x2CF4, symBinAddr: 0x8880, symSize: 0xC }
  - { offset: 0x706A8, size: 0x8, addend: 0x0, symName: __ZNSt3__120__shared_ptr_emplaceIN8facebook5react23RNSVGConcreteShadowNodeIXadL_ZNS2_24RNSVGCircleComponentNameEEENS2_16RNSVGCirclePropsEEENS_9allocatorIS5_EEE16__on_zero_sharedEv, symObjAddr: 0x2CF4, symBinAddr: 0x8880, symSize: 0xC }
  - { offset: 0x706C7, size: 0x8, addend: 0x0, symName: __ZNSt3__120__shared_ptr_emplaceIN8facebook5react23RNSVGConcreteShadowNodeIXadL_ZNS2_24RNSVGCircleComponentNameEEENS2_16RNSVGCirclePropsEEENS_9allocatorIS5_EEE16__on_zero_sharedEv, symObjAddr: 0x2CF4, symBinAddr: 0x8880, symSize: 0xC }
  - { offset: 0x706E6, size: 0x8, addend: 0x0, symName: __ZNSt3__120__shared_ptr_emplaceIN8facebook5react23RNSVGConcreteShadowNodeIXadL_ZNS2_24RNSVGCircleComponentNameEEENS2_16RNSVGCirclePropsEEENS_9allocatorIS5_EEE16__on_zero_sharedEv, symObjAddr: 0x2CF4, symBinAddr: 0x8880, symSize: 0xC }
  - { offset: 0x70712, size: 0x8, addend: 0x0, symName: __ZNSt3__120__shared_ptr_emplaceIN8facebook5react23RNSVGConcreteShadowNodeIXadL_ZNS2_24RNSVGCircleComponentNameEEENS2_16RNSVGCirclePropsEEENS_9allocatorIS5_EEE21__on_zero_shared_weakEv, symObjAddr: 0x2D00, symBinAddr: 0x888C, symSize: 0x4 }
  - { offset: 0x70745, size: 0x8, addend: 0x0, symName: __ZNSt3__120__shared_ptr_emplaceIN8facebook5react23RNSVGConcreteShadowNodeIXadL_ZNS2_24RNSVGCircleComponentNameEEENS2_16RNSVGCirclePropsEEENS_9allocatorIS5_EEE21__on_zero_shared_weakEv, symObjAddr: 0x2D00, symBinAddr: 0x888C, symSize: 0x4 }
  - { offset: 0x70769, size: 0x8, addend: 0x0, symName: __ZNSt3__120__shared_ptr_emplaceIN8facebook5react23RNSVGConcreteShadowNodeIXadL_ZNS2_24RNSVGCircleComponentNameEEENS2_16RNSVGCirclePropsEEENS_9allocatorIS5_EEE21__on_zero_shared_weakEv, symObjAddr: 0x2D00, symBinAddr: 0x888C, symSize: 0x4 }
  - { offset: 0x7078E, size: 0x8, addend: 0x0, symName: __ZNSt3__120__shared_ptr_emplaceIN8facebook5react23RNSVGConcreteShadowNodeIXadL_ZNS2_24RNSVGCircleComponentNameEEENS2_16RNSVGCirclePropsEEENS_9allocatorIS5_EEE21__on_zero_shared_weakEv, symObjAddr: 0x2D00, symBinAddr: 0x888C, symSize: 0x4 }
  - { offset: 0x707C6, size: 0x8, addend: 0x0, symName: __ZNSt3__120__shared_ptr_emplaceIN8facebook5react23RNSVGConcreteShadowNodeIXadL_ZNS2_24RNSVGCircleComponentNameEEENS2_16RNSVGCirclePropsEEENS_9allocatorIS5_EEE21__on_zero_shared_weakEv, symObjAddr: 0x2D00, symBinAddr: 0x888C, symSize: 0x4 }
  - { offset: 0x70A46, size: 0x8, addend: 0x0, symName: __ZN8facebook5react23RNSVGConcreteShadowNodeIXadL_ZNS0_24RNSVGCircleComponentNameEEENS0_16RNSVGCirclePropsEED1Ev, symObjAddr: 0x2D04, symBinAddr: 0x8890, symSize: 0x70 }
  - { offset: 0x70E4B, size: 0x8, addend: 0x0, symName: __ZNSt3__16vectorINS_10shared_ptrIKN8facebook5react24YogaLayoutableShadowNodeEEENS_9allocatorIS6_EEE16__destroy_vectorclB8ne200100Ev, symObjAddr: 0x2E58, symBinAddr: 0x89E4, symSize: 0x70 }
  - { offset: 0x70FD2, size: 0x8, addend: 0x0, symName: __ZN8facebook5react10ShadowNodeD2Ev, symObjAddr: 0x2F20, symBinAddr: 0x8A54, symSize: 0x5C }
  - { offset: 0x710FB, size: 0x8, addend: 0x0, symName: __ZN8facebook5react23RNSVGConcreteShadowNodeIXadL_ZNS0_24RNSVGCircleComponentNameEEENS0_16RNSVGCirclePropsEED0Ev, symObjAddr: 0x2D74, symBinAddr: 0x8900, symSize: 0x74 }
  - { offset: 0x71541, size: 0x8, addend: 0x0, symName: __ZNK8facebook5react23RNSVGConcreteShadowNodeIXadL_ZNS0_24RNSVGCircleComponentNameEEENS0_16RNSVGCirclePropsEE12getTransformEv, symObjAddr: 0x2DE8, symBinAddr: 0x8974, symSize: 0x40 }
  - { offset: 0x715B4, size: 0x8, addend: 0x0, symName: __ZNK8facebook5react23RNSVGConcreteShadowNodeIXadL_ZNS0_24RNSVGCircleComponentNameEEENS0_16RNSVGCirclePropsEE16canBeTouchTargetEv, symObjAddr: 0x2E28, symBinAddr: 0x89B4, symSize: 0x18 }
  - { offset: 0x715EC, size: 0x8, addend: 0x0, symName: __ZNK8facebook5react23RNSVGConcreteShadowNodeIXadL_ZNS0_24RNSVGCircleComponentNameEEENS0_16RNSVGCirclePropsEE16canBeTouchTargetEv, symObjAddr: 0x2E28, symBinAddr: 0x89B4, symSize: 0x18 }
  - { offset: 0x71609, size: 0x8, addend: 0x0, symName: __ZNK8facebook5react23RNSVGConcreteShadowNodeIXadL_ZNS0_24RNSVGCircleComponentNameEEENS0_16RNSVGCirclePropsEE16canBeTouchTargetEv, symObjAddr: 0x2E28, symBinAddr: 0x89B4, symSize: 0x18 }
  - { offset: 0x71627, size: 0x8, addend: 0x0, symName: __ZNK8facebook5react23RNSVGConcreteShadowNodeIXadL_ZNS0_24RNSVGCircleComponentNameEEENS0_16RNSVGCirclePropsEE24canChildrenBeTouchTargetEv, symObjAddr: 0x2E40, symBinAddr: 0x89CC, symSize: 0x18 }
  - { offset: 0x7165B, size: 0x8, addend: 0x0, symName: __ZNK8facebook5react23RNSVGConcreteShadowNodeIXadL_ZNS0_24RNSVGCircleComponentNameEEENS0_16RNSVGCirclePropsEE24canChildrenBeTouchTargetEv, symObjAddr: 0x2E40, symBinAddr: 0x89CC, symSize: 0x18 }
  - { offset: 0x71678, size: 0x8, addend: 0x0, symName: __ZNK8facebook5react23RNSVGConcreteShadowNodeIXadL_ZNS0_24RNSVGCircleComponentNameEEENS0_16RNSVGCirclePropsEE24canChildrenBeTouchTargetEv, symObjAddr: 0x2E40, symBinAddr: 0x89CC, symSize: 0x18 }
  - { offset: 0x71A71, size: 0x8, addend: 0x0, symName: __ZNSt3__120__shared_ptr_emplaceIN8facebook5react23RNSVGConcreteShadowNodeIXadL_ZNS2_24RNSVGCircleComponentNameEEENS2_16RNSVGCirclePropsEEENS_9allocatorIS5_EEEC2B8ne200100IJRKNS2_10ShadowNodeERKNS2_18ShadowNodeFragmentEES7_Li0EEES7_DpOT_, symObjAddr: 0x3194, symBinAddr: 0x8B10, symSize: 0x5C }
  - { offset: 0x71F6C, size: 0x8, addend: 0x0, symName: __ZNSt3__120__shared_ptr_emplaceIN8facebook5react16RNSVGCirclePropsENS_9allocatorIS3_EEEC2B8ne200100IJRKNS2_18PropsParserContextERKS3_RKNS2_8RawPropsEES5_Li0EEES5_DpOT_, symObjAddr: 0x33AC, symBinAddr: 0x8CD0, symSize: 0x4C }
  - { offset: 0x7215A, size: 0x8, addend: 0x0, symName: __ZNSt3__120__shared_ptr_emplaceIN8facebook5react16RNSVGCirclePropsENS_9allocatorIS3_EEED1Ev, symObjAddr: 0x33F8, symBinAddr: 0x8D1C, symSize: 0x14 }
  - { offset: 0x7217E, size: 0x8, addend: 0x0, symName: __ZNSt3__120__shared_ptr_emplaceIN8facebook5react16RNSVGCirclePropsENS_9allocatorIS3_EEED1Ev, symObjAddr: 0x33F8, symBinAddr: 0x8D1C, symSize: 0x14 }
  - { offset: 0x721B4, size: 0x8, addend: 0x0, symName: __ZNSt3__120__shared_ptr_emplaceIN8facebook5react16RNSVGCirclePropsENS_9allocatorIS3_EEED0Ev, symObjAddr: 0x340C, symBinAddr: 0x8D30, symSize: 0x24 }
  - { offset: 0x72255, size: 0x8, addend: 0x0, symName: __ZNSt3__120__shared_ptr_emplaceIN8facebook5react16RNSVGCirclePropsENS_9allocatorIS3_EEE16__on_zero_sharedEv, symObjAddr: 0x3430, symBinAddr: 0x8D54, symSize: 0x10 }
  - { offset: 0x7227E, size: 0x8, addend: 0x0, symName: __ZNSt3__120__shared_ptr_emplaceIN8facebook5react16RNSVGCirclePropsENS_9allocatorIS3_EEE16__on_zero_sharedEv, symObjAddr: 0x3430, symBinAddr: 0x8D54, symSize: 0x10 }
  - { offset: 0x722F2, size: 0x8, addend: 0x0, symName: __ZNSt3__120__shared_ptr_emplaceIN8facebook5react16RNSVGCirclePropsENS_9allocatorIS3_EEE21__on_zero_shared_weakEv, symObjAddr: 0x3440, symBinAddr: 0x8D64, symSize: 0x4 }
  - { offset: 0x72325, size: 0x8, addend: 0x0, symName: __ZNSt3__120__shared_ptr_emplaceIN8facebook5react16RNSVGCirclePropsENS_9allocatorIS3_EEE21__on_zero_shared_weakEv, symObjAddr: 0x3440, symBinAddr: 0x8D64, symSize: 0x4 }
  - { offset: 0x72349, size: 0x8, addend: 0x0, symName: __ZNSt3__120__shared_ptr_emplaceIN8facebook5react16RNSVGCirclePropsENS_9allocatorIS3_EEE21__on_zero_shared_weakEv, symObjAddr: 0x3440, symBinAddr: 0x8D64, symSize: 0x4 }
  - { offset: 0x7236E, size: 0x8, addend: 0x0, symName: __ZNSt3__120__shared_ptr_emplaceIN8facebook5react16RNSVGCirclePropsENS_9allocatorIS3_EEE21__on_zero_shared_weakEv, symObjAddr: 0x3440, symBinAddr: 0x8D64, symSize: 0x4 }
  - { offset: 0x723A6, size: 0x8, addend: 0x0, symName: __ZNSt3__120__shared_ptr_emplaceIN8facebook5react16RNSVGCirclePropsENS_9allocatorIS3_EEE21__on_zero_shared_weakEv, symObjAddr: 0x3440, symBinAddr: 0x8D64, symSize: 0x4 }
  - { offset: 0x72616, size: 0x8, addend: 0x0, symName: __ZNSt3__120__shared_ptr_emplaceIKN8facebook5react20BaseViewEventEmitterENS_9allocatorIS3_EEEC2B8ne200100IJNS_10shared_ptrINS2_11EventTargetEEERKNS_8weak_ptrIKNS2_15EventDispatcherEEEES6_Li0EEES6_DpOT_, symObjAddr: 0x34FC, symBinAddr: 0x8DC8, symSize: 0x4C }
  - { offset: 0x727C0, size: 0x8, addend: 0x0, symName: __ZNSt3__120__shared_ptr_emplaceIKN8facebook5react20BaseViewEventEmitterENS_9allocatorIS3_EEED1Ev, symObjAddr: 0x3548, symBinAddr: 0x8E14, symSize: 0x14 }
  - { offset: 0x727E4, size: 0x8, addend: 0x0, symName: __ZNSt3__120__shared_ptr_emplaceIKN8facebook5react20BaseViewEventEmitterENS_9allocatorIS3_EEED1Ev, symObjAddr: 0x3548, symBinAddr: 0x8E14, symSize: 0x14 }
  - { offset: 0x7281A, size: 0x8, addend: 0x0, symName: __ZNSt3__120__shared_ptr_emplaceIKN8facebook5react20BaseViewEventEmitterENS_9allocatorIS3_EEED0Ev, symObjAddr: 0x355C, symBinAddr: 0x8E28, symSize: 0x24 }
  - { offset: 0x728EA, size: 0x8, addend: 0x0, symName: __ZNSt3__120__shared_ptr_emplaceIKN8facebook5react20BaseViewEventEmitterENS_9allocatorIS3_EEE16__on_zero_sharedEv, symObjAddr: 0x3580, symBinAddr: 0x8E4C, symSize: 0xC }
  - { offset: 0x72913, size: 0x8, addend: 0x0, symName: __ZNSt3__120__shared_ptr_emplaceIKN8facebook5react20BaseViewEventEmitterENS_9allocatorIS3_EEE16__on_zero_sharedEv, symObjAddr: 0x3580, symBinAddr: 0x8E4C, symSize: 0xC }
  - { offset: 0x72932, size: 0x8, addend: 0x0, symName: __ZNSt3__120__shared_ptr_emplaceIKN8facebook5react20BaseViewEventEmitterENS_9allocatorIS3_EEE16__on_zero_sharedEv, symObjAddr: 0x3580, symBinAddr: 0x8E4C, symSize: 0xC }
  - { offset: 0x72951, size: 0x8, addend: 0x0, symName: __ZNSt3__120__shared_ptr_emplaceIKN8facebook5react20BaseViewEventEmitterENS_9allocatorIS3_EEE16__on_zero_sharedEv, symObjAddr: 0x3580, symBinAddr: 0x8E4C, symSize: 0xC }
  - { offset: 0x7297D, size: 0x8, addend: 0x0, symName: __ZNSt3__120__shared_ptr_emplaceIKN8facebook5react20BaseViewEventEmitterENS_9allocatorIS3_EEE21__on_zero_shared_weakEv, symObjAddr: 0x358C, symBinAddr: 0x8E58, symSize: 0x4 }
  - { offset: 0x729B0, size: 0x8, addend: 0x0, symName: __ZNSt3__120__shared_ptr_emplaceIKN8facebook5react20BaseViewEventEmitterENS_9allocatorIS3_EEE21__on_zero_shared_weakEv, symObjAddr: 0x358C, symBinAddr: 0x8E58, symSize: 0x4 }
  - { offset: 0x729D4, size: 0x8, addend: 0x0, symName: __ZNSt3__120__shared_ptr_emplaceIKN8facebook5react20BaseViewEventEmitterENS_9allocatorIS3_EEE21__on_zero_shared_weakEv, symObjAddr: 0x358C, symBinAddr: 0x8E58, symSize: 0x4 }
  - { offset: 0x729F9, size: 0x8, addend: 0x0, symName: __ZNSt3__120__shared_ptr_emplaceIKN8facebook5react20BaseViewEventEmitterENS_9allocatorIS3_EEE21__on_zero_shared_weakEv, symObjAddr: 0x358C, symBinAddr: 0x8E58, symSize: 0x4 }
  - { offset: 0x72A30, size: 0x8, addend: 0x0, symName: __ZNSt3__120__shared_ptr_emplaceIKN8facebook5react20BaseViewEventEmitterENS_9allocatorIS3_EEE21__on_zero_shared_weakEv, symObjAddr: 0x358C, symBinAddr: 0x8E58, symSize: 0x4 }
  - { offset: 0x72E57, size: 0x8, addend: 0x0, symName: __ZN8facebook5react12EventEmitterD2Ev, symObjAddr: 0x37C8, symBinAddr: 0x903C, symSize: 0x50 }
  - { offset: 0x72FB8, size: 0x8, addend: 0x0, symName: __ZN8facebook5react20BaseViewEventEmitterD1Ev, symObjAddr: 0x36C0, symBinAddr: 0x8F8C, symSize: 0x34 }
  - { offset: 0x730CA, size: 0x8, addend: 0x0, symName: __ZN8facebook5react20BaseViewEventEmitterD0Ev, symObjAddr: 0x36F4, symBinAddr: 0x8FC0, symSize: 0x38 }
  - { offset: 0x731AA, size: 0x8, addend: 0x0, symName: __ZNSt3__120__shared_ptr_emplaceIN8facebook5react20BaseViewEventEmitter16LayoutEventStateENS_9allocatorIS4_EEED1Ev, symObjAddr: 0x372C, symBinAddr: 0x8FF8, symSize: 0x14 }
  - { offset: 0x731CE, size: 0x8, addend: 0x0, symName: __ZNSt3__120__shared_ptr_emplaceIN8facebook5react20BaseViewEventEmitter16LayoutEventStateENS_9allocatorIS4_EEED1Ev, symObjAddr: 0x372C, symBinAddr: 0x8FF8, symSize: 0x14 }
  - { offset: 0x73204, size: 0x8, addend: 0x0, symName: __ZNSt3__120__shared_ptr_emplaceIN8facebook5react20BaseViewEventEmitter16LayoutEventStateENS_9allocatorIS4_EEED0Ev, symObjAddr: 0x3740, symBinAddr: 0x900C, symSize: 0x24 }
  - { offset: 0x7331F, size: 0x8, addend: 0x0, symName: __ZNSt3__120__shared_ptr_emplaceIN8facebook5react20BaseViewEventEmitter16LayoutEventStateENS_9allocatorIS4_EEE16__on_zero_sharedEv, symObjAddr: 0x3764, symBinAddr: 0x9030, symSize: 0x8 }
  - { offset: 0x73348, size: 0x8, addend: 0x0, symName: __ZNSt3__120__shared_ptr_emplaceIN8facebook5react20BaseViewEventEmitter16LayoutEventStateENS_9allocatorIS4_EEE16__on_zero_sharedEv, symObjAddr: 0x3764, symBinAddr: 0x9030, symSize: 0x8 }
  - { offset: 0x73367, size: 0x8, addend: 0x0, symName: __ZNSt3__120__shared_ptr_emplaceIN8facebook5react20BaseViewEventEmitter16LayoutEventStateENS_9allocatorIS4_EEE16__on_zero_sharedEv, symObjAddr: 0x3764, symBinAddr: 0x9030, symSize: 0x8 }
  - { offset: 0x7343A, size: 0x8, addend: 0x0, symName: __ZNSt3__120__shared_ptr_emplaceIN8facebook5react20BaseViewEventEmitter16LayoutEventStateENS_9allocatorIS4_EEE21__on_zero_shared_weakEv, symObjAddr: 0x376C, symBinAddr: 0x9038, symSize: 0x4 }
  - { offset: 0x7346D, size: 0x8, addend: 0x0, symName: __ZNSt3__120__shared_ptr_emplaceIN8facebook5react20BaseViewEventEmitter16LayoutEventStateENS_9allocatorIS4_EEE21__on_zero_shared_weakEv, symObjAddr: 0x376C, symBinAddr: 0x9038, symSize: 0x4 }
  - { offset: 0x73491, size: 0x8, addend: 0x0, symName: __ZNSt3__120__shared_ptr_emplaceIN8facebook5react20BaseViewEventEmitter16LayoutEventStateENS_9allocatorIS4_EEE21__on_zero_shared_weakEv, symObjAddr: 0x376C, symBinAddr: 0x9038, symSize: 0x4 }
  - { offset: 0x734B6, size: 0x8, addend: 0x0, symName: __ZNSt3__120__shared_ptr_emplaceIN8facebook5react20BaseViewEventEmitter16LayoutEventStateENS_9allocatorIS4_EEE21__on_zero_shared_weakEv, symObjAddr: 0x376C, symBinAddr: 0x9038, symSize: 0x4 }
  - { offset: 0x734EE, size: 0x8, addend: 0x0, symName: __ZNSt3__120__shared_ptr_emplaceIN8facebook5react20BaseViewEventEmitter16LayoutEventStateENS_9allocatorIS4_EEE21__on_zero_shared_weakEv, symObjAddr: 0x376C, symBinAddr: 0x9038, symSize: 0x4 }
  - { offset: 0x73518, size: 0x8, addend: 0x0, symName: __ZN8facebook5react12EventEmitterD1Ev, symObjAddr: 0x3818, symBinAddr: 0x908C, symSize: 0x4 }
  - { offset: 0x7353C, size: 0x8, addend: 0x0, symName: __ZN8facebook5react12EventEmitterD1Ev, symObjAddr: 0x3818, symBinAddr: 0x908C, symSize: 0x4 }
  - { offset: 0x7356D, size: 0x8, addend: 0x0, symName: __ZN8facebook5react12EventEmitterD0Ev, symObjAddr: 0x381C, symBinAddr: 0x9090, symSize: 0x14 }
  - { offset: 0x7380F, size: 0x8, addend: 0x0, symName: __ZNSt3__120__shared_ptr_emplaceIN8facebook5react11EventTargetENS_9allocatorIS3_EEEC2B8ne200100IJRKNS_10shared_ptrIKNS2_14InstanceHandleEEERKiES5_Li0EEES5_DpOT_, symObjAddr: 0x38E8, symBinAddr: 0x9104, symSize: 0x4C }
  - { offset: 0x739B9, size: 0x8, addend: 0x0, symName: __ZNSt3__120__shared_ptr_emplaceIN8facebook5react11EventTargetENS_9allocatorIS3_EEED1Ev, symObjAddr: 0x3934, symBinAddr: 0x9150, symSize: 0x14 }
  - { offset: 0x739DD, size: 0x8, addend: 0x0, symName: __ZNSt3__120__shared_ptr_emplaceIN8facebook5react11EventTargetENS_9allocatorIS3_EEED1Ev, symObjAddr: 0x3934, symBinAddr: 0x9150, symSize: 0x14 }
  - { offset: 0x73A13, size: 0x8, addend: 0x0, symName: __ZNSt3__120__shared_ptr_emplaceIN8facebook5react11EventTargetENS_9allocatorIS3_EEED0Ev, symObjAddr: 0x3948, symBinAddr: 0x9164, symSize: 0x24 }
  - { offset: 0x73B37, size: 0x8, addend: 0x0, symName: __ZNSt3__120__shared_ptr_emplaceIN8facebook5react11EventTargetENS_9allocatorIS3_EEE16__on_zero_sharedEv, symObjAddr: 0x396C, symBinAddr: 0x9188, symSize: 0x28 }
  - { offset: 0x73C4B, size: 0x8, addend: 0x0, symName: __ZNSt3__120__shared_ptr_emplaceIN8facebook5react11EventTargetENS_9allocatorIS3_EEE21__on_zero_shared_weakEv, symObjAddr: 0x3994, symBinAddr: 0x91B0, symSize: 0x4 }
  - { offset: 0x73C7E, size: 0x8, addend: 0x0, symName: __ZNSt3__120__shared_ptr_emplaceIN8facebook5react11EventTargetENS_9allocatorIS3_EEE21__on_zero_shared_weakEv, symObjAddr: 0x3994, symBinAddr: 0x91B0, symSize: 0x4 }
  - { offset: 0x73CA2, size: 0x8, addend: 0x0, symName: __ZNSt3__120__shared_ptr_emplaceIN8facebook5react11EventTargetENS_9allocatorIS3_EEE21__on_zero_shared_weakEv, symObjAddr: 0x3994, symBinAddr: 0x91B0, symSize: 0x4 }
  - { offset: 0x73CC7, size: 0x8, addend: 0x0, symName: __ZNSt3__120__shared_ptr_emplaceIN8facebook5react11EventTargetENS_9allocatorIS3_EEE21__on_zero_shared_weakEv, symObjAddr: 0x3994, symBinAddr: 0x91B0, symSize: 0x4 }
  - { offset: 0x73CFE, size: 0x8, addend: 0x0, symName: __ZNSt3__120__shared_ptr_emplaceIN8facebook5react11EventTargetENS_9allocatorIS3_EEE21__on_zero_shared_weakEv, symObjAddr: 0x3994, symBinAddr: 0x91B0, symSize: 0x4 }
  - { offset: 0x73FF3, size: 0x8, addend: 0x0, symName: __ZNSt3__120__shared_ptr_emplaceIN8facebook5react16ShadowNodeFamilyENS_9allocatorIS3_EEEC2B8ne200100IJRKNS2_24ShadowNodeFamilyFragmentERNS_10shared_ptrIKNS2_20BaseViewEventEmitterEEERKNS_8weak_ptrIKNS2_15EventDispatcherEEERKNS2_27ConcreteComponentDescriptorINS2_23RNSVGConcreteShadowNodeIXadL_ZNS2_24RNSVGCircleComponentNameEEENS2_16RNSVGCirclePropsEEEEEES5_Li0EEES5_DpOT_, symObjAddr: 0x3B64, symBinAddr: 0x92D0, symSize: 0x4C }
  - { offset: 0x74217, size: 0x8, addend: 0x0, symName: __ZNSt3__120__shared_ptr_emplaceIN8facebook5react16ShadowNodeFamilyENS_9allocatorIS3_EEED1Ev, symObjAddr: 0x3BB0, symBinAddr: 0x931C, symSize: 0x14 }
  - { offset: 0x7423B, size: 0x8, addend: 0x0, symName: __ZNSt3__120__shared_ptr_emplaceIN8facebook5react16ShadowNodeFamilyENS_9allocatorIS3_EEED1Ev, symObjAddr: 0x3BB0, symBinAddr: 0x931C, symSize: 0x14 }
  - { offset: 0x74271, size: 0x8, addend: 0x0, symName: __ZNSt3__120__shared_ptr_emplaceIN8facebook5react16ShadowNodeFamilyENS_9allocatorIS3_EEED0Ev, symObjAddr: 0x3BC4, symBinAddr: 0x9330, symSize: 0x24 }
  - { offset: 0x74341, size: 0x8, addend: 0x0, symName: __ZNSt3__120__shared_ptr_emplaceIN8facebook5react16ShadowNodeFamilyENS_9allocatorIS3_EEE16__on_zero_sharedEv, symObjAddr: 0x3BE8, symBinAddr: 0x9354, symSize: 0x8 }
  - { offset: 0x7436A, size: 0x8, addend: 0x0, symName: __ZNSt3__120__shared_ptr_emplaceIN8facebook5react16ShadowNodeFamilyENS_9allocatorIS3_EEE16__on_zero_sharedEv, symObjAddr: 0x3BE8, symBinAddr: 0x9354, symSize: 0x8 }
  - { offset: 0x74389, size: 0x8, addend: 0x0, symName: __ZNSt3__120__shared_ptr_emplaceIN8facebook5react16ShadowNodeFamilyENS_9allocatorIS3_EEE16__on_zero_sharedEv, symObjAddr: 0x3BE8, symBinAddr: 0x9354, symSize: 0x8 }
  - { offset: 0x743D1, size: 0x8, addend: 0x0, symName: __ZNSt3__120__shared_ptr_emplaceIN8facebook5react16ShadowNodeFamilyENS_9allocatorIS3_EEE21__on_zero_shared_weakEv, symObjAddr: 0x3BF0, symBinAddr: 0x935C, symSize: 0x4 }
  - { offset: 0x74404, size: 0x8, addend: 0x0, symName: __ZNSt3__120__shared_ptr_emplaceIN8facebook5react16ShadowNodeFamilyENS_9allocatorIS3_EEE21__on_zero_shared_weakEv, symObjAddr: 0x3BF0, symBinAddr: 0x935C, symSize: 0x4 }
  - { offset: 0x74428, size: 0x8, addend: 0x0, symName: __ZNSt3__120__shared_ptr_emplaceIN8facebook5react16ShadowNodeFamilyENS_9allocatorIS3_EEE21__on_zero_shared_weakEv, symObjAddr: 0x3BF0, symBinAddr: 0x935C, symSize: 0x4 }
  - { offset: 0x7444D, size: 0x8, addend: 0x0, symName: __ZNSt3__120__shared_ptr_emplaceIN8facebook5react16ShadowNodeFamilyENS_9allocatorIS3_EEE21__on_zero_shared_weakEv, symObjAddr: 0x3BF0, symBinAddr: 0x935C, symSize: 0x4 }
  - { offset: 0x74485, size: 0x8, addend: 0x0, symName: __ZNSt3__120__shared_ptr_emplaceIN8facebook5react16ShadowNodeFamilyENS_9allocatorIS3_EEE21__on_zero_shared_weakEv, symObjAddr: 0x3BF0, symBinAddr: 0x935C, symSize: 0x4 }
  - { offset: 0x7469B, size: 0x8, addend: 0x0, symName: __GLOBAL__sub_I_RNSVGCircle.mm, symObjAddr: 0x4A70, symBinAddr: 0x9B5C, symSize: 0x20 }
  - { offset: 0x76B1D, size: 0x8, addend: 0x0, symName: __ZN8facebook5react17HostPlatformColorL14UndefinedColorE, symObjAddr: 0xDE358, symBinAddr: 0xB0078, symSize: 0x0 }
  - { offset: 0x77914, size: 0x8, addend: 0x0, symName: '+[RNSVGCircleManager moduleName]', symObjAddr: 0x0, symBinAddr: 0x9B7C, symSize: 0xC }
  - { offset: 0x77945, size: 0x8, addend: 0x0, symName: '+[RNSVGCircleManager load]', symObjAddr: 0xC, symBinAddr: 0x9B88, symSize: 0x4 }
  - { offset: 0x77978, size: 0x8, addend: 0x0, symName: '+[RNSVGCircleManager load]', symObjAddr: 0xC, symBinAddr: 0x9B88, symSize: 0x4 }
  - { offset: 0x77997, size: 0x8, addend: 0x0, symName: '-[RNSVGCircleManager node]', symObjAddr: 0x10, symBinAddr: 0x9B8C, symSize: 0x1C }
  - { offset: 0x779C8, size: 0x8, addend: 0x0, symName: '+[RNSVGCircleManager propConfig_cx]', symObjAddr: 0x2C, symBinAddr: 0x9BA8, symSize: 0xC }
  - { offset: 0x779F9, size: 0x8, addend: 0x0, symName: '+[RNSVGCircleManager propConfig_cy]', symObjAddr: 0x38, symBinAddr: 0x9BB4, symSize: 0xC }
  - { offset: 0x77A2A, size: 0x8, addend: 0x0, symName: '+[RNSVGCircleManager propConfig_r]', symObjAddr: 0x44, symBinAddr: 0x9BC0, symSize: 0xC }
  - { offset: 0x77AE2, size: 0x8, addend: 0x0, symName: __GLOBAL__sub_I_RNSVGCircleManager.mm, symObjAddr: 0x50, symBinAddr: 0x9BCC, symSize: 0x20 }
  - { offset: 0x79AF2, size: 0x8, addend: 0x0, symName: __ZN8facebook5react17HostPlatformColorL14UndefinedColorE, symObjAddr: 0x175B90, symBinAddr: 0xB0090, symSize: 0x0 }
  - { offset: 0x7D083, size: 0x8, addend: 0x0, symName: __ZN8facebook5react38concreteComponentDescriptorConstructorINS0_27ConcreteComponentDescriptorINS0_23RNSVGConcreteShadowNodeIXadL_ZNS0_26RNSVGClipPathComponentNameEEENS0_18RNSVGClipPathPropsEEEEEEENSt3__110unique_ptrIKNS0_19ComponentDescriptorENS7_14default_deleteISA_EEEERKNS0_29ComponentDescriptorParametersE, symObjAddr: 0x1B1C, symBinAddr: 0xA7FC, symSize: 0x34 }
  - { offset: 0x99AD4, size: 0x8, addend: 0x0, symName: __ZNSt3__115allocate_sharedB8ne200100IKN8facebook5react18RNSVGClipPathPropsENS_9allocatorIS3_EEJELi0EEENS_10shared_ptrIT_EERKT0_DpOT1_, symObjAddr: 0xABC, symBinAddr: 0xA5CC, symSize: 0x48 }
  - { offset: 0x9ACC9, size: 0x8, addend: 0x0, symName: __ZNSt3__111make_uniqueB8ne200100IKN8facebook5react27ConcreteComponentDescriptorINS2_23RNSVGConcreteShadowNodeIXadL_ZNS2_26RNSVGClipPathComponentNameEEENS2_18RNSVGClipPathPropsEEEEEJRKNS2_29ComponentDescriptorParametersEELi0EEENS_10unique_ptrIT_NS_14default_deleteISD_EEEEDpOT0_, symObjAddr: 0x1B50, symBinAddr: 0xA830, symSize: 0xD4 }
  - { offset: 0x9B641, size: 0x8, addend: 0x0, symName: __ZNSt3__115allocate_sharedB8ne200100IN8facebook5react23RNSVGConcreteShadowNodeIXadL_ZNS2_26RNSVGClipPathComponentNameEEENS2_18RNSVGClipPathPropsEEENS_9allocatorIS5_EEJRKNS2_18ShadowNodeFragmentERKNS_10shared_ptrIKNS2_16ShadowNodeFamilyEEENS2_16ShadowNodeTraitsEELi0EEENSB_IT_EERKT0_DpOT1_, symObjAddr: 0x2680, symBinAddr: 0xB058, symSize: 0x70 }
  - { offset: 0x9B970, size: 0x8, addend: 0x0, symName: __ZNSt3__115allocate_sharedB8ne200100IN8facebook5react23RNSVGConcreteShadowNodeIXadL_ZNS2_26RNSVGClipPathComponentNameEEENS2_18RNSVGClipPathPropsEEENS_9allocatorIS5_EEJRKNS2_10ShadowNodeERKNS2_18ShadowNodeFragmentEELi0EEENS_10shared_ptrIT_EERKT0_DpOT1_, symObjAddr: 0x2BC8, symBinAddr: 0xB2C4, symSize: 0x60 }
  - { offset: 0x9C0BB, size: 0x8, addend: 0x0, symName: __ZNSt3__115allocate_sharedB8ne200100IN8facebook5react16ShadowNodeFamilyENS_9allocatorIS3_EEJRKNS2_24ShadowNodeFamilyFragmentERNS_10shared_ptrIKNS2_20BaseViewEventEmitterEEERKNS_8weak_ptrIKNS2_15EventDispatcherEEERKNS2_27ConcreteComponentDescriptorINS2_23RNSVGConcreteShadowNodeIXadL_ZNS2_26RNSVGClipPathComponentNameEEENS2_18RNSVGClipPathPropsEEEEEELi0EEENS9_IT_EERKT0_DpOT1_, symObjAddr: 0x3784, symBinAddr: 0xB57C, symSize: 0x78 }
  - { offset: 0x9CE4E, size: 0x8, addend: 0x0, symName: __ZNSt3__115allocate_sharedB8ne200100IN8facebook5react18RNSVGClipPathPropsENS_9allocatorIS3_EEJRKNS2_18PropsParserContextERKS3_RKNS2_8RawPropsEELi0EEENS_10shared_ptrIT_EERKT0_DpOT1_, symObjAddr: 0x2DD0, symBinAddr: 0xB474, symSize: 0x70 }
  - { offset: 0x9E1C0, size: 0x8, addend: 0x0, symName: __ZNSt3__112construct_atB8ne200100IN8facebook5react16ShadowNodeFamilyEJRKNS2_24ShadowNodeFamilyFragmentERNS_10shared_ptrIKNS2_20BaseViewEventEmitterEEERKNS_8weak_ptrIKNS2_15EventDispatcherEEERKNS2_27ConcreteComponentDescriptorINS2_23RNSVGConcreteShadowNodeIXadL_ZNS2_26RNSVGClipPathComponentNameEEENS2_18RNSVGClipPathPropsEEEEEEPS3_EEPT_SR_DpOT0_, symObjAddr: 0x388C, symBinAddr: 0xB640, symSize: 0xDC }
  - { offset: 0x9F5A8, size: 0x8, addend: 0x0, symName: '-[RNSVGClipPath initWithFrame:]', symObjAddr: 0x34, symBinAddr: 0x9C20, symSize: 0xDC }
  - { offset: 0x9F5D1, size: 0x8, addend: 0x0, symName: '__ZZ31-[RNSVGClipPath initWithFrame:]E12defaultProps', symObjAddr: 0x175BA8, symBinAddr: 0xB00A8, symSize: 0x0 }
  - { offset: 0xA2F11, size: 0x8, addend: 0x0, symName: __ZN8facebook5react18ConcreteShadowNodeIXadL_ZNS0_26RNSVGClipPathComponentNameEEENS0_25RNSVGLayoutableShadowNodeENS0_18RNSVGClipPathPropsENS0_20BaseViewEventEmitterENS0_9StateDataEE18defaultSharedPropsEv, symObjAddr: 0x2CDC, symBinAddr: 0xB380, symSize: 0x9C }
  - { offset: 0xA2F30, size: 0x8, addend: 0x0, symName: __ZZN8facebook5react18ConcreteShadowNodeIXadL_ZNS0_26RNSVGClipPathComponentNameEEENS0_25RNSVGLayoutableShadowNodeENS0_18RNSVGClipPathPropsENS0_20BaseViewEventEmitterENS0_9StateDataEE18defaultSharedPropsEvE18defaultSharedProps, symObjAddr: 0x51C0, symBinAddr: 0xAF918, symSize: 0x0 }
  - { offset: 0xA2F6E, size: 0x8, addend: 0x0, symName: __ZL20MinimalLayoutMetrics, symObjAddr: 0x5128, symBinAddr: 0x72A88, symSize: 0x0 }
  - { offset: 0xA3169, size: 0x8, addend: 0x0, symName: '+[RNSVGClipPath load]', symObjAddr: 0x0, symBinAddr: 0x9BEC, symSize: 0x34 }
  - { offset: 0xA32A8, size: 0x8, addend: 0x0, symName: __ZNSt3__110shared_ptrIKN8facebook5react18RNSVGClipPathPropsEED1B8ne200100Ev, symObjAddr: 0x110, symBinAddr: 0x9CFC, symSize: 0x4 }
  - { offset: 0xA32CC, size: 0x8, addend: 0x0, symName: __ZNSt3__110shared_ptrIKN8facebook5react18RNSVGClipPathPropsEED1B8ne200100Ev, symObjAddr: 0x110, symBinAddr: 0x9CFC, symSize: 0x4 }
  - { offset: 0xA34D4, size: 0x8, addend: 0x0, symName: '+[RNSVGClipPath componentDescriptorProvider]', symObjAddr: 0x18C, symBinAddr: 0x9D00, symSize: 0x20 }
  - { offset: 0xA3508, size: 0x8, addend: 0x0, symName: '+[RNSVGClipPath componentDescriptorProvider]', symObjAddr: 0x18C, symBinAddr: 0x9D00, symSize: 0x20 }
  - { offset: 0xA3649, size: 0x8, addend: 0x0, symName: '-[RNSVGClipPath updateProps:oldProps:]', symObjAddr: 0x1AC, symBinAddr: 0x9D20, symSize: 0xA4 }
  - { offset: 0xA3892, size: 0x8, addend: 0x0, symName: __Z18setCommonNodePropsIN8facebook5react18RNSVGClipPathPropsEEvRKT_P9RNSVGNode, symObjAddr: 0x250, symBinAddr: 0x9DC4, symSize: 0x6A0 }
  - { offset: 0xA4EF6, size: 0x8, addend: 0x0, symName: '-[RNSVGClipPath prepareForRecycle]', symObjAddr: 0x954, symBinAddr: 0xA464, symSize: 0x34 }
  - { offset: 0xA4F27, size: 0x8, addend: 0x0, symName: '-[RNSVGClipPath parseReference]', symObjAddr: 0x988, symBinAddr: 0xA498, symSize: 0x84 }
  - { offset: 0xA4F57, size: 0x8, addend: 0x0, symName: '-[RNSVGClipPath isSimpleClipPath]', symObjAddr: 0xA0C, symBinAddr: 0xA51C, symSize: 0xA4 }
  - { offset: 0xA4FB8, size: 0x8, addend: 0x0, symName: __Z16RNSVGClipPathClsv, symObjAddr: 0xAB0, symBinAddr: 0xA5C0, symSize: 0xC }
  - { offset: 0xA51FC, size: 0x8, addend: 0x0, symName: __ZNSt3__120__shared_ptr_emplaceIKN8facebook5react18RNSVGClipPathPropsENS_9allocatorIS3_EEEC2B8ne200100IJES6_Li0EEES6_DpOT_, symObjAddr: 0xB04, symBinAddr: 0xA614, symSize: 0x58 }
  - { offset: 0xA537B, size: 0x8, addend: 0x0, symName: __ZN8facebook5react18RNSVGClipPathPropsC1Ev, symObjAddr: 0xBA8, symBinAddr: 0xA6B8, symSize: 0x11C }
  - { offset: 0xA5B27, size: 0x8, addend: 0x0, symName: __ZNSt3__120__shared_ptr_emplaceIKN8facebook5react18RNSVGClipPathPropsENS_9allocatorIS3_EEED1Ev, symObjAddr: 0xB5C, symBinAddr: 0xA66C, symSize: 0x14 }
  - { offset: 0xA5B4B, size: 0x8, addend: 0x0, symName: __ZNSt3__120__shared_ptr_emplaceIKN8facebook5react18RNSVGClipPathPropsENS_9allocatorIS3_EEED1Ev, symObjAddr: 0xB5C, symBinAddr: 0xA66C, symSize: 0x14 }
  - { offset: 0xA5B81, size: 0x8, addend: 0x0, symName: __ZNSt3__120__shared_ptr_emplaceIKN8facebook5react18RNSVGClipPathPropsENS_9allocatorIS3_EEED0Ev, symObjAddr: 0xB70, symBinAddr: 0xA680, symSize: 0x24 }
  - { offset: 0xA5C6C, size: 0x8, addend: 0x0, symName: __ZNSt3__120__shared_ptr_emplaceIKN8facebook5react18RNSVGClipPathPropsENS_9allocatorIS3_EEE16__on_zero_sharedEv, symObjAddr: 0xB94, symBinAddr: 0xA6A4, symSize: 0x10 }
  - { offset: 0xA5C95, size: 0x8, addend: 0x0, symName: __ZNSt3__120__shared_ptr_emplaceIKN8facebook5react18RNSVGClipPathPropsENS_9allocatorIS3_EEE16__on_zero_sharedEv, symObjAddr: 0xB94, symBinAddr: 0xA6A4, symSize: 0x10 }
  - { offset: 0xA647F, size: 0x8, addend: 0x0, symName: __ZNSt3__120__shared_ptr_emplaceIKN8facebook5react18RNSVGClipPathPropsENS_9allocatorIS3_EEE21__on_zero_shared_weakEv, symObjAddr: 0xBA4, symBinAddr: 0xA6B4, symSize: 0x4 }
  - { offset: 0xA64B2, size: 0x8, addend: 0x0, symName: __ZNSt3__120__shared_ptr_emplaceIKN8facebook5react18RNSVGClipPathPropsENS_9allocatorIS3_EEE21__on_zero_shared_weakEv, symObjAddr: 0xBA4, symBinAddr: 0xA6B4, symSize: 0x4 }
  - { offset: 0xA64D6, size: 0x8, addend: 0x0, symName: __ZNSt3__120__shared_ptr_emplaceIKN8facebook5react18RNSVGClipPathPropsENS_9allocatorIS3_EEE21__on_zero_shared_weakEv, symObjAddr: 0xBA4, symBinAddr: 0xA6B4, symSize: 0x4 }
  - { offset: 0xA64FB, size: 0x8, addend: 0x0, symName: __ZNSt3__120__shared_ptr_emplaceIKN8facebook5react18RNSVGClipPathPropsENS_9allocatorIS3_EEE21__on_zero_shared_weakEv, symObjAddr: 0xBA4, symBinAddr: 0xA6B4, symSize: 0x4 }
  - { offset: 0xA6533, size: 0x8, addend: 0x0, symName: __ZNSt3__120__shared_ptr_emplaceIKN8facebook5react18RNSVGClipPathPropsENS_9allocatorIS3_EEE21__on_zero_shared_weakEv, symObjAddr: 0xBA4, symBinAddr: 0xA6B4, symSize: 0x4 }
  - { offset: 0xAA6DD, size: 0x8, addend: 0x0, symName: __ZN8facebook5react18RNSVGClipPathPropsD1Ev, symObjAddr: 0x11E0, symBinAddr: 0xA7D4, symSize: 0xC }
  - { offset: 0xAA714, size: 0x8, addend: 0x0, symName: __ZN8facebook5react18RNSVGClipPathPropsD0Ev, symObjAddr: 0x11EC, symBinAddr: 0xA7E0, symSize: 0x1C }
  - { offset: 0xAC2F0, size: 0x8, addend: 0x0, symName: __ZN8facebook5react14RawPropsParser7prepareINS0_18RNSVGClipPathPropsEEEvv, symObjAddr: 0x1C74, symBinAddr: 0xA904, symSize: 0x1DC }
  - { offset: 0xAD2BB, size: 0x8, addend: 0x0, symName: __ZN8facebook5react27ConcreteComponentDescriptorINS0_23RNSVGConcreteShadowNodeIXadL_ZNS0_26RNSVGClipPathComponentNameEEENS0_18RNSVGClipPathPropsEEEED1Ev, symObjAddr: 0x1E50, symBinAddr: 0xAAE0, symSize: 0x4 }
  - { offset: 0xAD2DF, size: 0x8, addend: 0x0, symName: __ZN8facebook5react27ConcreteComponentDescriptorINS0_23RNSVGConcreteShadowNodeIXadL_ZNS0_26RNSVGClipPathComponentNameEEENS0_18RNSVGClipPathPropsEEEED1Ev, symObjAddr: 0x1E50, symBinAddr: 0xAAE0, symSize: 0x4 }
  - { offset: 0xAD2FD, size: 0x8, addend: 0x0, symName: __ZN8facebook5react27ConcreteComponentDescriptorINS0_23RNSVGConcreteShadowNodeIXadL_ZNS0_26RNSVGClipPathComponentNameEEENS0_18RNSVGClipPathPropsEEEED1Ev, symObjAddr: 0x1E50, symBinAddr: 0xAAE0, symSize: 0x4 }
  - { offset: 0xAD5D4, size: 0x8, addend: 0x0, symName: __ZN8facebook5react27ConcreteComponentDescriptorINS0_23RNSVGConcreteShadowNodeIXadL_ZNS0_26RNSVGClipPathComponentNameEEENS0_18RNSVGClipPathPropsEEEED0Ev, symObjAddr: 0x1E54, symBinAddr: 0xAAE4, symSize: 0x14 }
  - { offset: 0xAD650, size: 0x8, addend: 0x0, symName: __ZNK8facebook5react27ConcreteComponentDescriptorINS0_23RNSVGConcreteShadowNodeIXadL_ZNS0_26RNSVGClipPathComponentNameEEENS0_18RNSVGClipPathPropsEEEE18getComponentHandleEv, symObjAddr: 0x1E68, symBinAddr: 0xAAF8, symSize: 0xC }
  - { offset: 0xAD676, size: 0x8, addend: 0x0, symName: __ZNK8facebook5react27ConcreteComponentDescriptorINS0_23RNSVGConcreteShadowNodeIXadL_ZNS0_26RNSVGClipPathComponentNameEEENS0_18RNSVGClipPathPropsEEEE16getComponentNameEv, symObjAddr: 0x1E74, symBinAddr: 0xAB04, symSize: 0xC }
  - { offset: 0xAD69C, size: 0x8, addend: 0x0, symName: __ZNK8facebook5react27ConcreteComponentDescriptorINS0_23RNSVGConcreteShadowNodeIXadL_ZNS0_26RNSVGClipPathComponentNameEEENS0_18RNSVGClipPathPropsEEEE9getTraitsEv, symObjAddr: 0x1E80, symBinAddr: 0xAB10, symSize: 0x8 }
  - { offset: 0xAD796, size: 0x8, addend: 0x0, symName: __ZNK8facebook5react27ConcreteComponentDescriptorINS0_23RNSVGConcreteShadowNodeIXadL_ZNS0_26RNSVGClipPathComponentNameEEENS0_18RNSVGClipPathPropsEEEE16createShadowNodeERKNS0_18ShadowNodeFragmentERKNSt3__110shared_ptrIKNS0_16ShadowNodeFamilyEEE, symObjAddr: 0x1E88, symBinAddr: 0xAB18, symSize: 0x90 }
  - { offset: 0xADA22, size: 0x8, addend: 0x0, symName: __ZNK8facebook5react27ConcreteComponentDescriptorINS0_23RNSVGConcreteShadowNodeIXadL_ZNS0_26RNSVGClipPathComponentNameEEENS0_18RNSVGClipPathPropsEEEE15cloneShadowNodeERKNS0_10ShadowNodeERKNS0_18ShadowNodeFragmentE, symObjAddr: 0x1F18, symBinAddr: 0xABA8, symSize: 0x104 }
  - { offset: 0xADDAF, size: 0x8, addend: 0x0, symName: __ZNK8facebook5react27ConcreteComponentDescriptorINS0_23RNSVGConcreteShadowNodeIXadL_ZNS0_26RNSVGClipPathComponentNameEEENS0_18RNSVGClipPathPropsEEEE11appendChildERKNSt3__110shared_ptrIKNS0_10ShadowNodeEEESC_, symObjAddr: 0x201C, symBinAddr: 0xACAC, symSize: 0x14 }
  - { offset: 0xADE05, size: 0x8, addend: 0x0, symName: __ZNK8facebook5react27ConcreteComponentDescriptorINS0_23RNSVGConcreteShadowNodeIXadL_ZNS0_26RNSVGClipPathComponentNameEEENS0_18RNSVGClipPathPropsEEEE11appendChildERKNSt3__110shared_ptrIKNS0_10ShadowNodeEEESC_, symObjAddr: 0x201C, symBinAddr: 0xACAC, symSize: 0x14 }
  - { offset: 0xAE652, size: 0x8, addend: 0x0, symName: __ZNK8facebook5react27ConcreteComponentDescriptorINS0_23RNSVGConcreteShadowNodeIXadL_ZNS0_26RNSVGClipPathComponentNameEEENS0_18RNSVGClipPathPropsEEEE10clonePropsERKNS0_18PropsParserContextERKNSt3__110shared_ptrIKNS0_5PropsEEENS0_8RawPropsE, symObjAddr: 0x2030, symBinAddr: 0xACC0, symSize: 0x21C }
  - { offset: 0xAF1EC, size: 0x8, addend: 0x0, symName: __ZN8facebook5react18ConcreteShadowNodeIXadL_ZNS0_26RNSVGClipPathComponentNameEEENS0_25RNSVGLayoutableShadowNodeENS0_18RNSVGClipPathPropsENS0_20BaseViewEventEmitterENS0_9StateDataEE5PropsERKNS0_18PropsParserContextERKNS0_8RawPropsERKNSt3__110shared_ptrIKNS0_5PropsEEE, symObjAddr: 0x2D78, symBinAddr: 0xB41C, symSize: 0x58 }
  - { offset: 0xAF456, size: 0x8, addend: 0x0, symName: __ZNK8facebook5react27ConcreteComponentDescriptorINS0_23RNSVGConcreteShadowNodeIXadL_ZNS0_26RNSVGClipPathComponentNameEEENS0_18RNSVGClipPathPropsEEEE18createInitialStateERKNSt3__110shared_ptrIKNS0_5PropsEEERKNS7_IKNS0_16ShadowNodeFamilyEEE, symObjAddr: 0x224C, symBinAddr: 0xAEDC, symSize: 0x8 }
  - { offset: 0xAF49A, size: 0x8, addend: 0x0, symName: __ZNK8facebook5react27ConcreteComponentDescriptorINS0_23RNSVGConcreteShadowNodeIXadL_ZNS0_26RNSVGClipPathComponentNameEEENS0_18RNSVGClipPathPropsEEEE18createInitialStateERKNSt3__110shared_ptrIKNS0_5PropsEEERKNS7_IKNS0_16ShadowNodeFamilyEEE, symObjAddr: 0x224C, symBinAddr: 0xAEDC, symSize: 0x8 }
  - { offset: 0xAF4BE, size: 0x8, addend: 0x0, symName: __ZNK8facebook5react27ConcreteComponentDescriptorINS0_23RNSVGConcreteShadowNodeIXadL_ZNS0_26RNSVGClipPathComponentNameEEENS0_18RNSVGClipPathPropsEEEE18createInitialStateERKNSt3__110shared_ptrIKNS0_5PropsEEERKNS7_IKNS0_16ShadowNodeFamilyEEE, symObjAddr: 0x224C, symBinAddr: 0xAEDC, symSize: 0x8 }
  - { offset: 0xAF4E2, size: 0x8, addend: 0x0, symName: __ZNK8facebook5react27ConcreteComponentDescriptorINS0_23RNSVGConcreteShadowNodeIXadL_ZNS0_26RNSVGClipPathComponentNameEEENS0_18RNSVGClipPathPropsEEEE11createStateERKNS0_16ShadowNodeFamilyERKNSt3__110shared_ptrIKvEE, symObjAddr: 0x2254, symBinAddr: 0xAEE4, symSize: 0x8 }
  - { offset: 0xAF526, size: 0x8, addend: 0x0, symName: __ZNK8facebook5react27ConcreteComponentDescriptorINS0_23RNSVGConcreteShadowNodeIXadL_ZNS0_26RNSVGClipPathComponentNameEEENS0_18RNSVGClipPathPropsEEEE11createStateERKNS0_16ShadowNodeFamilyERKNSt3__110shared_ptrIKvEE, symObjAddr: 0x2254, symBinAddr: 0xAEE4, symSize: 0x8 }
  - { offset: 0xAF54A, size: 0x8, addend: 0x0, symName: __ZNK8facebook5react27ConcreteComponentDescriptorINS0_23RNSVGConcreteShadowNodeIXadL_ZNS0_26RNSVGClipPathComponentNameEEENS0_18RNSVGClipPathPropsEEEE11createStateERKNS0_16ShadowNodeFamilyERKNSt3__110shared_ptrIKvEE, symObjAddr: 0x2254, symBinAddr: 0xAEE4, symSize: 0x8 }
  - { offset: 0xAF756, size: 0x8, addend: 0x0, symName: __ZNK8facebook5react27ConcreteComponentDescriptorINS0_23RNSVGConcreteShadowNodeIXadL_ZNS0_26RNSVGClipPathComponentNameEEENS0_18RNSVGClipPathPropsEEEE12createFamilyERKNS0_24ShadowNodeFamilyFragmentE, symObjAddr: 0x225C, symBinAddr: 0xAEEC, symSize: 0x168 }
  - { offset: 0xAFCE5, size: 0x8, addend: 0x0, symName: __ZNK8facebook5react27ConcreteComponentDescriptorINS0_23RNSVGConcreteShadowNodeIXadL_ZNS0_26RNSVGClipPathComponentNameEEENS0_18RNSVGClipPathPropsEEEE5adoptERNS0_10ShadowNodeE, symObjAddr: 0x23C4, symBinAddr: 0xB054, symSize: 0x4 }
  - { offset: 0xB053E, size: 0x8, addend: 0x0, symName: __ZNSt3__120__shared_ptr_emplaceIN8facebook5react23RNSVGConcreteShadowNodeIXadL_ZNS2_26RNSVGClipPathComponentNameEEENS2_18RNSVGClipPathPropsEEENS_9allocatorIS5_EEEC2B8ne200100IJRKNS2_18ShadowNodeFragmentERKNS_10shared_ptrIKNS2_16ShadowNodeFamilyEEENS2_16ShadowNodeTraitsEES7_Li0EEES7_DpOT_, symObjAddr: 0x26F0, symBinAddr: 0xB0C8, symSize: 0x60 }
  - { offset: 0xB0862, size: 0x8, addend: 0x0, symName: __ZNSt3__120__shared_ptr_emplaceIN8facebook5react23RNSVGConcreteShadowNodeIXadL_ZNS2_26RNSVGClipPathComponentNameEEENS2_18RNSVGClipPathPropsEEENS_9allocatorIS5_EEED1Ev, symObjAddr: 0x2750, symBinAddr: 0xB128, symSize: 0x14 }
  - { offset: 0xB0886, size: 0x8, addend: 0x0, symName: __ZNSt3__120__shared_ptr_emplaceIN8facebook5react23RNSVGConcreteShadowNodeIXadL_ZNS2_26RNSVGClipPathComponentNameEEENS2_18RNSVGClipPathPropsEEENS_9allocatorIS5_EEED1Ev, symObjAddr: 0x2750, symBinAddr: 0xB128, symSize: 0x14 }
  - { offset: 0xB08BC, size: 0x8, addend: 0x0, symName: __ZNSt3__120__shared_ptr_emplaceIN8facebook5react23RNSVGConcreteShadowNodeIXadL_ZNS2_26RNSVGClipPathComponentNameEEENS2_18RNSVGClipPathPropsEEENS_9allocatorIS5_EEED0Ev, symObjAddr: 0x2764, symBinAddr: 0xB13C, symSize: 0x24 }
  - { offset: 0xB098C, size: 0x8, addend: 0x0, symName: __ZNSt3__120__shared_ptr_emplaceIN8facebook5react23RNSVGConcreteShadowNodeIXadL_ZNS2_26RNSVGClipPathComponentNameEEENS2_18RNSVGClipPathPropsEEENS_9allocatorIS5_EEE16__on_zero_sharedEv, symObjAddr: 0x2788, symBinAddr: 0xB160, symSize: 0xC }
  - { offset: 0xB09B5, size: 0x8, addend: 0x0, symName: __ZNSt3__120__shared_ptr_emplaceIN8facebook5react23RNSVGConcreteShadowNodeIXadL_ZNS2_26RNSVGClipPathComponentNameEEENS2_18RNSVGClipPathPropsEEENS_9allocatorIS5_EEE16__on_zero_sharedEv, symObjAddr: 0x2788, symBinAddr: 0xB160, symSize: 0xC }
  - { offset: 0xB09D4, size: 0x8, addend: 0x0, symName: __ZNSt3__120__shared_ptr_emplaceIN8facebook5react23RNSVGConcreteShadowNodeIXadL_ZNS2_26RNSVGClipPathComponentNameEEENS2_18RNSVGClipPathPropsEEENS_9allocatorIS5_EEE16__on_zero_sharedEv, symObjAddr: 0x2788, symBinAddr: 0xB160, symSize: 0xC }
  - { offset: 0xB09F3, size: 0x8, addend: 0x0, symName: __ZNSt3__120__shared_ptr_emplaceIN8facebook5react23RNSVGConcreteShadowNodeIXadL_ZNS2_26RNSVGClipPathComponentNameEEENS2_18RNSVGClipPathPropsEEENS_9allocatorIS5_EEE16__on_zero_sharedEv, symObjAddr: 0x2788, symBinAddr: 0xB160, symSize: 0xC }
  - { offset: 0xB0A1F, size: 0x8, addend: 0x0, symName: __ZNSt3__120__shared_ptr_emplaceIN8facebook5react23RNSVGConcreteShadowNodeIXadL_ZNS2_26RNSVGClipPathComponentNameEEENS2_18RNSVGClipPathPropsEEENS_9allocatorIS5_EEE21__on_zero_shared_weakEv, symObjAddr: 0x2794, symBinAddr: 0xB16C, symSize: 0x4 }
  - { offset: 0xB0A52, size: 0x8, addend: 0x0, symName: __ZNSt3__120__shared_ptr_emplaceIN8facebook5react23RNSVGConcreteShadowNodeIXadL_ZNS2_26RNSVGClipPathComponentNameEEENS2_18RNSVGClipPathPropsEEENS_9allocatorIS5_EEE21__on_zero_shared_weakEv, symObjAddr: 0x2794, symBinAddr: 0xB16C, symSize: 0x4 }
  - { offset: 0xB0A76, size: 0x8, addend: 0x0, symName: __ZNSt3__120__shared_ptr_emplaceIN8facebook5react23RNSVGConcreteShadowNodeIXadL_ZNS2_26RNSVGClipPathComponentNameEEENS2_18RNSVGClipPathPropsEEENS_9allocatorIS5_EEE21__on_zero_shared_weakEv, symObjAddr: 0x2794, symBinAddr: 0xB16C, symSize: 0x4 }
  - { offset: 0xB0A9B, size: 0x8, addend: 0x0, symName: __ZNSt3__120__shared_ptr_emplaceIN8facebook5react23RNSVGConcreteShadowNodeIXadL_ZNS2_26RNSVGClipPathComponentNameEEENS2_18RNSVGClipPathPropsEEENS_9allocatorIS5_EEE21__on_zero_shared_weakEv, symObjAddr: 0x2794, symBinAddr: 0xB16C, symSize: 0x4 }
  - { offset: 0xB0AD3, size: 0x8, addend: 0x0, symName: __ZNSt3__120__shared_ptr_emplaceIN8facebook5react23RNSVGConcreteShadowNodeIXadL_ZNS2_26RNSVGClipPathComponentNameEEENS2_18RNSVGClipPathPropsEEENS_9allocatorIS5_EEE21__on_zero_shared_weakEv, symObjAddr: 0x2794, symBinAddr: 0xB16C, symSize: 0x4 }
  - { offset: 0xB0D53, size: 0x8, addend: 0x0, symName: __ZN8facebook5react23RNSVGConcreteShadowNodeIXadL_ZNS0_26RNSVGClipPathComponentNameEEENS0_18RNSVGClipPathPropsEED1Ev, symObjAddr: 0x2798, symBinAddr: 0xB170, symSize: 0x70 }
  - { offset: 0xB1304, size: 0x8, addend: 0x0, symName: __ZN8facebook5react23RNSVGConcreteShadowNodeIXadL_ZNS0_26RNSVGClipPathComponentNameEEENS0_18RNSVGClipPathPropsEED0Ev, symObjAddr: 0x2808, symBinAddr: 0xB1E0, symSize: 0x74 }
  - { offset: 0xB174A, size: 0x8, addend: 0x0, symName: __ZNK8facebook5react23RNSVGConcreteShadowNodeIXadL_ZNS0_26RNSVGClipPathComponentNameEEENS0_18RNSVGClipPathPropsEE12getTransformEv, symObjAddr: 0x287C, symBinAddr: 0xB254, symSize: 0x40 }
  - { offset: 0xB17BD, size: 0x8, addend: 0x0, symName: __ZNK8facebook5react23RNSVGConcreteShadowNodeIXadL_ZNS0_26RNSVGClipPathComponentNameEEENS0_18RNSVGClipPathPropsEE16canBeTouchTargetEv, symObjAddr: 0x28BC, symBinAddr: 0xB294, symSize: 0x18 }
  - { offset: 0xB17F5, size: 0x8, addend: 0x0, symName: __ZNK8facebook5react23RNSVGConcreteShadowNodeIXadL_ZNS0_26RNSVGClipPathComponentNameEEENS0_18RNSVGClipPathPropsEE16canBeTouchTargetEv, symObjAddr: 0x28BC, symBinAddr: 0xB294, symSize: 0x18 }
  - { offset: 0xB1812, size: 0x8, addend: 0x0, symName: __ZNK8facebook5react23RNSVGConcreteShadowNodeIXadL_ZNS0_26RNSVGClipPathComponentNameEEENS0_18RNSVGClipPathPropsEE16canBeTouchTargetEv, symObjAddr: 0x28BC, symBinAddr: 0xB294, symSize: 0x18 }
  - { offset: 0xB1830, size: 0x8, addend: 0x0, symName: __ZNK8facebook5react23RNSVGConcreteShadowNodeIXadL_ZNS0_26RNSVGClipPathComponentNameEEENS0_18RNSVGClipPathPropsEE24canChildrenBeTouchTargetEv, symObjAddr: 0x28D4, symBinAddr: 0xB2AC, symSize: 0x18 }
  - { offset: 0xB1864, size: 0x8, addend: 0x0, symName: __ZNK8facebook5react23RNSVGConcreteShadowNodeIXadL_ZNS0_26RNSVGClipPathComponentNameEEENS0_18RNSVGClipPathPropsEE24canChildrenBeTouchTargetEv, symObjAddr: 0x28D4, symBinAddr: 0xB2AC, symSize: 0x18 }
  - { offset: 0xB1881, size: 0x8, addend: 0x0, symName: __ZNK8facebook5react23RNSVGConcreteShadowNodeIXadL_ZNS0_26RNSVGClipPathComponentNameEEENS0_18RNSVGClipPathPropsEE24canChildrenBeTouchTargetEv, symObjAddr: 0x28D4, symBinAddr: 0xB2AC, symSize: 0x18 }
  - { offset: 0xB1C7A, size: 0x8, addend: 0x0, symName: __ZNSt3__120__shared_ptr_emplaceIN8facebook5react23RNSVGConcreteShadowNodeIXadL_ZNS2_26RNSVGClipPathComponentNameEEENS2_18RNSVGClipPathPropsEEENS_9allocatorIS5_EEEC2B8ne200100IJRKNS2_10ShadowNodeERKNS2_18ShadowNodeFragmentEES7_Li0EEES7_DpOT_, symObjAddr: 0x2C28, symBinAddr: 0xB324, symSize: 0x5C }
  - { offset: 0xB2175, size: 0x8, addend: 0x0, symName: __ZNSt3__120__shared_ptr_emplaceIN8facebook5react18RNSVGClipPathPropsENS_9allocatorIS3_EEEC2B8ne200100IJRKNS2_18PropsParserContextERKS3_RKNS2_8RawPropsEES5_Li0EEES5_DpOT_, symObjAddr: 0x2E40, symBinAddr: 0xB4E4, symSize: 0x4C }
  - { offset: 0xB2363, size: 0x8, addend: 0x0, symName: __ZNSt3__120__shared_ptr_emplaceIN8facebook5react18RNSVGClipPathPropsENS_9allocatorIS3_EEED1Ev, symObjAddr: 0x2E8C, symBinAddr: 0xB530, symSize: 0x14 }
  - { offset: 0xB2387, size: 0x8, addend: 0x0, symName: __ZNSt3__120__shared_ptr_emplaceIN8facebook5react18RNSVGClipPathPropsENS_9allocatorIS3_EEED1Ev, symObjAddr: 0x2E8C, symBinAddr: 0xB530, symSize: 0x14 }
  - { offset: 0xB23BD, size: 0x8, addend: 0x0, symName: __ZNSt3__120__shared_ptr_emplaceIN8facebook5react18RNSVGClipPathPropsENS_9allocatorIS3_EEED0Ev, symObjAddr: 0x2EA0, symBinAddr: 0xB544, symSize: 0x24 }
  - { offset: 0xB245E, size: 0x8, addend: 0x0, symName: __ZNSt3__120__shared_ptr_emplaceIN8facebook5react18RNSVGClipPathPropsENS_9allocatorIS3_EEE16__on_zero_sharedEv, symObjAddr: 0x2EC4, symBinAddr: 0xB568, symSize: 0x10 }
  - { offset: 0xB2487, size: 0x8, addend: 0x0, symName: __ZNSt3__120__shared_ptr_emplaceIN8facebook5react18RNSVGClipPathPropsENS_9allocatorIS3_EEE16__on_zero_sharedEv, symObjAddr: 0x2EC4, symBinAddr: 0xB568, symSize: 0x10 }
  - { offset: 0xB24FB, size: 0x8, addend: 0x0, symName: __ZNSt3__120__shared_ptr_emplaceIN8facebook5react18RNSVGClipPathPropsENS_9allocatorIS3_EEE21__on_zero_shared_weakEv, symObjAddr: 0x2ED4, symBinAddr: 0xB578, symSize: 0x4 }
  - { offset: 0xB252E, size: 0x8, addend: 0x0, symName: __ZNSt3__120__shared_ptr_emplaceIN8facebook5react18RNSVGClipPathPropsENS_9allocatorIS3_EEE21__on_zero_shared_weakEv, symObjAddr: 0x2ED4, symBinAddr: 0xB578, symSize: 0x4 }
  - { offset: 0xB2552, size: 0x8, addend: 0x0, symName: __ZNSt3__120__shared_ptr_emplaceIN8facebook5react18RNSVGClipPathPropsENS_9allocatorIS3_EEE21__on_zero_shared_weakEv, symObjAddr: 0x2ED4, symBinAddr: 0xB578, symSize: 0x4 }
  - { offset: 0xB2577, size: 0x8, addend: 0x0, symName: __ZNSt3__120__shared_ptr_emplaceIN8facebook5react18RNSVGClipPathPropsENS_9allocatorIS3_EEE21__on_zero_shared_weakEv, symObjAddr: 0x2ED4, symBinAddr: 0xB578, symSize: 0x4 }
  - { offset: 0xB25AF, size: 0x8, addend: 0x0, symName: __ZNSt3__120__shared_ptr_emplaceIN8facebook5react18RNSVGClipPathPropsENS_9allocatorIS3_EEE21__on_zero_shared_weakEv, symObjAddr: 0x2ED4, symBinAddr: 0xB578, symSize: 0x4 }
  - { offset: 0xB3894, size: 0x8, addend: 0x0, symName: __ZNSt3__120__shared_ptr_emplaceIN8facebook5react16ShadowNodeFamilyENS_9allocatorIS3_EEEC2B8ne200100IJRKNS2_24ShadowNodeFamilyFragmentERNS_10shared_ptrIKNS2_20BaseViewEventEmitterEEERKNS_8weak_ptrIKNS2_15EventDispatcherEEERKNS2_27ConcreteComponentDescriptorINS2_23RNSVGConcreteShadowNodeIXadL_ZNS2_26RNSVGClipPathComponentNameEEENS2_18RNSVGClipPathPropsEEEEEES5_Li0EEES5_DpOT_, symObjAddr: 0x37FC, symBinAddr: 0xB5F4, symSize: 0x4C }
  - { offset: 0xB3C0F, size: 0x8, addend: 0x0, symName: __GLOBAL__sub_I_RNSVGClipPath.mm, symObjAddr: 0x3EA8, symBinAddr: 0xB71C, symSize: 0x20 }
  - { offset: 0xB604D, size: 0x8, addend: 0x0, symName: __ZN8facebook5react17HostPlatformColorL14UndefinedColorE, symObjAddr: 0xDE648, symBinAddr: 0xB00C0, symSize: 0x0 }
  - { offset: 0xB6D41, size: 0x8, addend: 0x0, symName: '+[RNSVGClipPathManager moduleName]', symObjAddr: 0x0, symBinAddr: 0xB73C, symSize: 0xC }
  - { offset: 0xB6D72, size: 0x8, addend: 0x0, symName: '+[RNSVGClipPathManager load]', symObjAddr: 0xC, symBinAddr: 0xB748, symSize: 0x4 }
  - { offset: 0xB6DA5, size: 0x8, addend: 0x0, symName: '+[RNSVGClipPathManager load]', symObjAddr: 0xC, symBinAddr: 0xB748, symSize: 0x4 }
  - { offset: 0xB6DC4, size: 0x8, addend: 0x0, symName: '-[RNSVGClipPathManager node]', symObjAddr: 0x10, symBinAddr: 0xB74C, symSize: 0x1C }
  - { offset: 0xB6E7C, size: 0x8, addend: 0x0, symName: __GLOBAL__sub_I_RNSVGClipPathManager.mm, symObjAddr: 0x2C, symBinAddr: 0xB768, symSize: 0x20 }
  - { offset: 0xB8E65, size: 0x8, addend: 0x0, symName: '-[RNSVGCompositeXor init]', symObjAddr: 0x0, symBinAddr: 0xB788, symSize: 0x98 }
  - { offset: 0xB8E7E, size: 0x8, addend: 0x0, symName: __ZL12compositeXor, symObjAddr: 0x3700, symBinAddr: 0xB00D8, symSize: 0x0 }
  - { offset: 0xB8F43, size: 0x8, addend: 0x0, symName: '-[RNSVGCompositeXor init]', symObjAddr: 0x0, symBinAddr: 0xB788, symSize: 0x98 }
  - { offset: 0xB8F77, size: 0x8, addend: 0x0, symName: '-[RNSVGCompositeXor customAttributes]', symObjAddr: 0x98, symBinAddr: 0xB820, symSize: 0x190 }
  - { offset: 0xB8FA7, size: 0x8, addend: 0x0, symName: '-[RNSVGCompositeXor outputImage]', symObjAddr: 0x228, symBinAddr: 0xB9B0, symSize: 0x154 }
  - { offset: 0xB8FFA, size: 0x8, addend: 0x0, symName: '-[RNSVGCompositeXor .cxx_destruct]', symObjAddr: 0x37C, symBinAddr: 0xBB04, symSize: 0x14 }
  - { offset: 0xB921A, size: 0x8, addend: 0x0, symName: __ZN8facebook5react17HostPlatformColorL14UndefinedColorE, symObjAddr: 0xDE198, symBinAddr: 0xB00E0, symSize: 0x0 }
  - { offset: 0xB9EF2, size: 0x8, addend: 0x0, symName: '-[RNSVGContextBrush initFill]', symObjAddr: 0x0, symBinAddr: 0xBB18, symSize: 0x48 }
  - { offset: 0xB9F26, size: 0x8, addend: 0x0, symName: '-[RNSVGContextBrush initStroke]', symObjAddr: 0x48, symBinAddr: 0xBB60, symSize: 0x4C }
  - { offset: 0xB9F5B, size: 0x8, addend: 0x0, symName: '-[RNSVGContextBrush dealloc]', symObjAddr: 0x94, symBinAddr: 0xBBAC, symSize: 0x34 }
  - { offset: 0xB9F8B, size: 0x8, addend: 0x0, symName: '-[RNSVGContextBrush applyFillColor:opacity:]', symObjAddr: 0xC8, symBinAddr: 0xBBE0, symSize: 0x100 }
  - { offset: 0xBA053, size: 0x8, addend: 0x0, symName: '-[RNSVGContextBrush applyStrokeColor:opacity:]', symObjAddr: 0x1C8, symBinAddr: 0xBCE0, symSize: 0xF8 }
  - { offset: 0xBA179, size: 0x8, addend: 0x0, symName: __GLOBAL__sub_I_RNSVGContextBrush.mm, symObjAddr: 0x2F8, symBinAddr: 0xBDD8, symSize: 0x20 }
  - { offset: 0xBC189, size: 0x8, addend: 0x0, symName: __ZN8facebook5react17HostPlatformColorL14UndefinedColorE, symObjAddr: 0x17CE8, symBinAddr: 0xB00F8, symSize: 0x0 }
  - { offset: 0xBEE21, size: 0x8, addend: 0x0, symName: '+[RNSVGConvert RNSVGUnitsFromFilterUnitsCppEquivalent:]', symObjAddr: 0x0, symBinAddr: 0xBDF8, symSize: 0xC }
  - { offset: 0xBEE60, size: 0x8, addend: 0x0, symName: '+[RNSVGConvert RNSVGUnitsFromPrimitiveUnitsCppEquivalent:]', symObjAddr: 0xC, symBinAddr: 0xBE04, symSize: 0xC }
  - { offset: 0xBEE9F, size: 0x8, addend: 0x0, symName: '+[RNSVGConvert RNSVGBlendModeFromCppEquivalent:]', symObjAddr: 0x18, symBinAddr: 0xBE10, symSize: 0x10 }
  - { offset: 0xBEEDE, size: 0x8, addend: 0x0, symName: '+[RNSVGConvert RNSVGColorMatrixTypeFromCppEquivalent:]', symObjAddr: 0x28, symBinAddr: 0xBE20, symSize: 0x14 }
  - { offset: 0xBEF1D, size: 0x8, addend: 0x0, symName: '+[RNSVGConvert RNSVGRNSVGCompositeOperatorFromCppEquivalent:]', symObjAddr: 0x3C, symBinAddr: 0xBE34, symSize: 0x14 }
  - { offset: 0xBEF5C, size: 0x8, addend: 0x0, symName: '+[RNSVGConvert RNSVGEdgeModeFromCppEquivalent:]', symObjAddr: 0x50, symBinAddr: 0xBE48, symSize: 0x10 }
  - { offset: 0xBF022, size: 0x8, addend: 0x0, symName: __GLOBAL__sub_I_RNSVGConvert.mm, symObjAddr: 0x60, symBinAddr: 0xBE58, symSize: 0x20 }
  - { offset: 0xC120D, size: 0x8, addend: 0x0, symName: '-[RNSVGCustomFilter getWithName:]', symObjAddr: 0x0, symBinAddr: 0xBE78, symSize: 0x1E4 }
  - { offset: 0xC12DE, size: 0x8, addend: 0x0, symName: '-[RNSVGCustomFilter getWithName:]', symObjAddr: 0x0, symBinAddr: 0xBE78, symSize: 0x1E4 }
  - { offset: 0xC13BB, size: 0x8, addend: 0x0, symName: '-[RNSVGCustomFilter .cxx_destruct]', symObjAddr: 0x1E4, symBinAddr: 0xC05C, symSize: 0x14 }
  - { offset: 0xC188C, size: 0x8, addend: 0x0, symName: __ZN8facebook5react17HostPlatformColorL14UndefinedColorE, symObjAddr: 0x16FC38, symBinAddr: 0xB0110, symSize: 0x0 }
  - { offset: 0xC4D13, size: 0x8, addend: 0x0, symName: __ZN8facebook5react38concreteComponentDescriptorConstructorINS0_27ConcreteComponentDescriptorINS0_23RNSVGConcreteShadowNodeIXadL_ZNS0_22RNSVGDefsComponentNameEEENS0_14RNSVGDefsPropsEEEEEEENSt3__110unique_ptrIKNS0_19ComponentDescriptorENS7_14default_deleteISA_EEEERKNS0_29ComponentDescriptorParametersE, symObjAddr: 0x1184, symBinAddr: 0xC470, symSize: 0x34 }
  - { offset: 0xE16F4, size: 0x8, addend: 0x0, symName: __ZNSt3__115allocate_sharedB8ne200100IKN8facebook5react14RNSVGDefsPropsENS_9allocatorIS3_EEJELi0EEENS_10shared_ptrIT_EERKT0_DpOT1_, symObjAddr: 0x250, symBinAddr: 0xC248, symSize: 0x48 }
  - { offset: 0xE28B7, size: 0x8, addend: 0x0, symName: __ZNSt3__111make_uniqueB8ne200100IKN8facebook5react27ConcreteComponentDescriptorINS2_23RNSVGConcreteShadowNodeIXadL_ZNS2_22RNSVGDefsComponentNameEEENS2_14RNSVGDefsPropsEEEEEJRKNS2_29ComponentDescriptorParametersEELi0EEENS_10unique_ptrIT_NS_14default_deleteISD_EEEEDpOT0_, symObjAddr: 0x11B8, symBinAddr: 0xC4A4, symSize: 0xD4 }
  - { offset: 0xE322F, size: 0x8, addend: 0x0, symName: __ZNSt3__115allocate_sharedB8ne200100IN8facebook5react23RNSVGConcreteShadowNodeIXadL_ZNS2_22RNSVGDefsComponentNameEEENS2_14RNSVGDefsPropsEEENS_9allocatorIS5_EEJRKNS2_18ShadowNodeFragmentERKNS_10shared_ptrIKNS2_16ShadowNodeFamilyEEENS2_16ShadowNodeTraitsEELi0EEENSB_IT_EERKT0_DpOT1_, symObjAddr: 0x1D44, symBinAddr: 0xCD28, symSize: 0x70 }
  - { offset: 0xE355E, size: 0x8, addend: 0x0, symName: __ZNSt3__115allocate_sharedB8ne200100IN8facebook5react23RNSVGConcreteShadowNodeIXadL_ZNS2_22RNSVGDefsComponentNameEEENS2_14RNSVGDefsPropsEEENS_9allocatorIS5_EEJRKNS2_10ShadowNodeERKNS2_18ShadowNodeFragmentEELi0EEENS_10shared_ptrIT_EERKT0_DpOT1_, symObjAddr: 0x228C, symBinAddr: 0xCF94, symSize: 0x60 }
  - { offset: 0xE3CA9, size: 0x8, addend: 0x0, symName: __ZNSt3__115allocate_sharedB8ne200100IN8facebook5react16ShadowNodeFamilyENS_9allocatorIS3_EEJRKNS2_24ShadowNodeFamilyFragmentERNS_10shared_ptrIKNS2_20BaseViewEventEmitterEEERKNS_8weak_ptrIKNS2_15EventDispatcherEEERKNS2_27ConcreteComponentDescriptorINS2_23RNSVGConcreteShadowNodeIXadL_ZNS2_22RNSVGDefsComponentNameEEENS2_14RNSVGDefsPropsEEEEEELi0EEENS9_IT_EERKT0_DpOT1_, symObjAddr: 0x2E48, symBinAddr: 0xD24C, symSize: 0x78 }
  - { offset: 0xE4A3C, size: 0x8, addend: 0x0, symName: __ZNSt3__115allocate_sharedB8ne200100IN8facebook5react14RNSVGDefsPropsENS_9allocatorIS3_EEJRKNS2_18PropsParserContextERKS3_RKNS2_8RawPropsEELi0EEENS_10shared_ptrIT_EERKT0_DpOT1_, symObjAddr: 0x2494, symBinAddr: 0xD144, symSize: 0x70 }
  - { offset: 0xE5DAE, size: 0x8, addend: 0x0, symName: __ZNSt3__112construct_atB8ne200100IN8facebook5react16ShadowNodeFamilyEJRKNS2_24ShadowNodeFamilyFragmentERNS_10shared_ptrIKNS2_20BaseViewEventEmitterEEERKNS_8weak_ptrIKNS2_15EventDispatcherEEERKNS2_27ConcreteComponentDescriptorINS2_23RNSVGConcreteShadowNodeIXadL_ZNS2_22RNSVGDefsComponentNameEEENS2_14RNSVGDefsPropsEEEEEEPS3_EEPT_SR_DpOT0_, symObjAddr: 0x2F50, symBinAddr: 0xD310, symSize: 0xDC }
  - { offset: 0xE71A8, size: 0x8, addend: 0x0, symName: '-[RNSVGDefs initWithFrame:]', symObjAddr: 0x34, symBinAddr: 0xC0A4, symSize: 0xDC }
  - { offset: 0xE71D1, size: 0x8, addend: 0x0, symName: '__ZZ27-[RNSVGDefs initWithFrame:]E12defaultProps', symObjAddr: 0x16FC50, symBinAddr: 0xB0128, symSize: 0x0 }
  - { offset: 0xEAB11, size: 0x8, addend: 0x0, symName: __ZN8facebook5react18ConcreteShadowNodeIXadL_ZNS0_22RNSVGDefsComponentNameEEENS0_25RNSVGLayoutableShadowNodeENS0_14RNSVGDefsPropsENS0_20BaseViewEventEmitterENS0_9StateDataEE18defaultSharedPropsEv, symObjAddr: 0x23A0, symBinAddr: 0xD050, symSize: 0x9C }
  - { offset: 0xEAB30, size: 0x8, addend: 0x0, symName: __ZZN8facebook5react18ConcreteShadowNodeIXadL_ZNS0_22RNSVGDefsComponentNameEEENS0_25RNSVGLayoutableShadowNodeENS0_14RNSVGDefsPropsENS0_20BaseViewEventEmitterENS0_9StateDataEE18defaultSharedPropsEvE18defaultSharedProps, symObjAddr: 0x4580, symBinAddr: 0xAF930, symSize: 0x0 }
  - { offset: 0xEADE3, size: 0x8, addend: 0x0, symName: '+[RNSVGDefs load]', symObjAddr: 0x0, symBinAddr: 0xC070, symSize: 0x34 }
  - { offset: 0xEAF22, size: 0x8, addend: 0x0, symName: __ZNSt3__110shared_ptrIKN8facebook5react14RNSVGDefsPropsEED1B8ne200100Ev, symObjAddr: 0x110, symBinAddr: 0xC180, symSize: 0x4 }
  - { offset: 0xEAF4E, size: 0x8, addend: 0x0, symName: __ZNSt3__110shared_ptrIKN8facebook5react14RNSVGDefsPropsEED1B8ne200100Ev, symObjAddr: 0x110, symBinAddr: 0xC180, symSize: 0x4 }
  - { offset: 0xEB15D, size: 0x8, addend: 0x0, symName: '+[RNSVGDefs componentDescriptorProvider]', symObjAddr: 0x18C, symBinAddr: 0xC184, symSize: 0x20 }
  - { offset: 0xEB191, size: 0x8, addend: 0x0, symName: '+[RNSVGDefs componentDescriptorProvider]', symObjAddr: 0x18C, symBinAddr: 0xC184, symSize: 0x20 }
  - { offset: 0xEB1F4, size: 0x8, addend: 0x0, symName: '-[RNSVGDefs renderTo:]', symObjAddr: 0x1AC, symBinAddr: 0xC1A4, symSize: 0x4 }
  - { offset: 0xEB22C, size: 0x8, addend: 0x0, symName: '-[RNSVGDefs parseReference]', symObjAddr: 0x1B0, symBinAddr: 0xC1A8, symSize: 0x30 }
  - { offset: 0xEB25D, size: 0x8, addend: 0x0, symName: '___27-[RNSVGDefs parseReference]_block_invoke', symObjAddr: 0x1E0, symBinAddr: 0xC1D8, symSize: 0x5C }
  - { offset: 0xEB296, size: 0x8, addend: 0x0, symName: '-[RNSVGDefs hitTest:withEvent:]', symObjAddr: 0x23C, symBinAddr: 0xC234, symSize: 0x8 }
  - { offset: 0xEB2DD, size: 0x8, addend: 0x0, symName: __Z12RNSVGDefsClsv, symObjAddr: 0x244, symBinAddr: 0xC23C, symSize: 0xC }
  - { offset: 0xEB526, size: 0x8, addend: 0x0, symName: __ZNSt3__120__shared_ptr_emplaceIKN8facebook5react14RNSVGDefsPropsENS_9allocatorIS3_EEEC2B8ne200100IJES6_Li0EEES6_DpOT_, symObjAddr: 0x298, symBinAddr: 0xC290, symSize: 0xB4 }
  - { offset: 0xECC52, size: 0x8, addend: 0x0, symName: __ZNSt3__120__shared_ptr_emplaceIKN8facebook5react14RNSVGDefsPropsENS_9allocatorIS3_EEED1Ev, symObjAddr: 0x34C, symBinAddr: 0xC344, symSize: 0x14 }
  - { offset: 0xECC76, size: 0x8, addend: 0x0, symName: __ZNSt3__120__shared_ptr_emplaceIKN8facebook5react14RNSVGDefsPropsENS_9allocatorIS3_EEED1Ev, symObjAddr: 0x34C, symBinAddr: 0xC344, symSize: 0x14 }
  - { offset: 0xECCAC, size: 0x8, addend: 0x0, symName: __ZNSt3__120__shared_ptr_emplaceIKN8facebook5react14RNSVGDefsPropsENS_9allocatorIS3_EEED0Ev, symObjAddr: 0x360, symBinAddr: 0xC358, symSize: 0x24 }
  - { offset: 0xECD98, size: 0x8, addend: 0x0, symName: __ZNSt3__120__shared_ptr_emplaceIKN8facebook5react14RNSVGDefsPropsENS_9allocatorIS3_EEE16__on_zero_sharedEv, symObjAddr: 0x384, symBinAddr: 0xC37C, symSize: 0x10 }
  - { offset: 0xECDC1, size: 0x8, addend: 0x0, symName: __ZNSt3__120__shared_ptr_emplaceIKN8facebook5react14RNSVGDefsPropsENS_9allocatorIS3_EEE16__on_zero_sharedEv, symObjAddr: 0x384, symBinAddr: 0xC37C, symSize: 0x10 }
  - { offset: 0xECE35, size: 0x8, addend: 0x0, symName: __ZN8facebook5react14RNSVGDefsPropsD2Ev, symObjAddr: 0x1074, symBinAddr: 0xC3B8, symSize: 0xB8 }
  - { offset: 0xED8BA, size: 0x8, addend: 0x0, symName: __ZNSt3__120__shared_ptr_emplaceIKN8facebook5react14RNSVGDefsPropsENS_9allocatorIS3_EEE21__on_zero_shared_weakEv, symObjAddr: 0x394, symBinAddr: 0xC38C, symSize: 0x4 }
  - { offset: 0xED8ED, size: 0x8, addend: 0x0, symName: __ZNSt3__120__shared_ptr_emplaceIKN8facebook5react14RNSVGDefsPropsENS_9allocatorIS3_EEE21__on_zero_shared_weakEv, symObjAddr: 0x394, symBinAddr: 0xC38C, symSize: 0x4 }
  - { offset: 0xED911, size: 0x8, addend: 0x0, symName: __ZNSt3__120__shared_ptr_emplaceIKN8facebook5react14RNSVGDefsPropsENS_9allocatorIS3_EEE21__on_zero_shared_weakEv, symObjAddr: 0x394, symBinAddr: 0xC38C, symSize: 0x4 }
  - { offset: 0xED936, size: 0x8, addend: 0x0, symName: __ZNSt3__120__shared_ptr_emplaceIKN8facebook5react14RNSVGDefsPropsENS_9allocatorIS3_EEE21__on_zero_shared_weakEv, symObjAddr: 0x394, symBinAddr: 0xC38C, symSize: 0x4 }
  - { offset: 0xED96E, size: 0x8, addend: 0x0, symName: __ZNSt3__120__shared_ptr_emplaceIKN8facebook5react14RNSVGDefsPropsENS_9allocatorIS3_EEE21__on_zero_shared_weakEv, symObjAddr: 0x394, symBinAddr: 0xC38C, symSize: 0x4 }
  - { offset: 0xEEF49, size: 0x8, addend: 0x0, symName: __ZN8facebook5react14RNSVGDefsPropsD1Ev, symObjAddr: 0x7E4, symBinAddr: 0xC390, symSize: 0xC }
  - { offset: 0xEEF80, size: 0x8, addend: 0x0, symName: __ZN8facebook5react14RNSVGDefsPropsD0Ev, symObjAddr: 0x7F0, symBinAddr: 0xC39C, symSize: 0x1C }
  - { offset: 0xF238E, size: 0x8, addend: 0x0, symName: __ZN8facebook5react14RawPropsParser7prepareINS0_14RNSVGDefsPropsEEEvv, symObjAddr: 0x12DC, symBinAddr: 0xC578, symSize: 0x238 }
  - { offset: 0xF34FC, size: 0x8, addend: 0x0, symName: __ZN8facebook5react27ConcreteComponentDescriptorINS0_23RNSVGConcreteShadowNodeIXadL_ZNS0_22RNSVGDefsComponentNameEEENS0_14RNSVGDefsPropsEEEED1Ev, symObjAddr: 0x1514, symBinAddr: 0xC7B0, symSize: 0x4 }
  - { offset: 0xF3520, size: 0x8, addend: 0x0, symName: __ZN8facebook5react27ConcreteComponentDescriptorINS0_23RNSVGConcreteShadowNodeIXadL_ZNS0_22RNSVGDefsComponentNameEEENS0_14RNSVGDefsPropsEEEED1Ev, symObjAddr: 0x1514, symBinAddr: 0xC7B0, symSize: 0x4 }
  - { offset: 0xF353E, size: 0x8, addend: 0x0, symName: __ZN8facebook5react27ConcreteComponentDescriptorINS0_23RNSVGConcreteShadowNodeIXadL_ZNS0_22RNSVGDefsComponentNameEEENS0_14RNSVGDefsPropsEEEED1Ev, symObjAddr: 0x1514, symBinAddr: 0xC7B0, symSize: 0x4 }
  - { offset: 0xF3815, size: 0x8, addend: 0x0, symName: __ZN8facebook5react27ConcreteComponentDescriptorINS0_23RNSVGConcreteShadowNodeIXadL_ZNS0_22RNSVGDefsComponentNameEEENS0_14RNSVGDefsPropsEEEED0Ev, symObjAddr: 0x1518, symBinAddr: 0xC7B4, symSize: 0x14 }
  - { offset: 0xF3891, size: 0x8, addend: 0x0, symName: __ZNK8facebook5react27ConcreteComponentDescriptorINS0_23RNSVGConcreteShadowNodeIXadL_ZNS0_22RNSVGDefsComponentNameEEENS0_14RNSVGDefsPropsEEEE18getComponentHandleEv, symObjAddr: 0x152C, symBinAddr: 0xC7C8, symSize: 0xC }
  - { offset: 0xF38B7, size: 0x8, addend: 0x0, symName: __ZNK8facebook5react27ConcreteComponentDescriptorINS0_23RNSVGConcreteShadowNodeIXadL_ZNS0_22RNSVGDefsComponentNameEEENS0_14RNSVGDefsPropsEEEE16getComponentNameEv, symObjAddr: 0x1538, symBinAddr: 0xC7D4, symSize: 0xC }
  - { offset: 0xF38DD, size: 0x8, addend: 0x0, symName: __ZNK8facebook5react27ConcreteComponentDescriptorINS0_23RNSVGConcreteShadowNodeIXadL_ZNS0_22RNSVGDefsComponentNameEEENS0_14RNSVGDefsPropsEEEE9getTraitsEv, symObjAddr: 0x1544, symBinAddr: 0xC7E0, symSize: 0x8 }
  - { offset: 0xF39D7, size: 0x8, addend: 0x0, symName: __ZNK8facebook5react27ConcreteComponentDescriptorINS0_23RNSVGConcreteShadowNodeIXadL_ZNS0_22RNSVGDefsComponentNameEEENS0_14RNSVGDefsPropsEEEE16createShadowNodeERKNS0_18ShadowNodeFragmentERKNSt3__110shared_ptrIKNS0_16ShadowNodeFamilyEEE, symObjAddr: 0x154C, symBinAddr: 0xC7E8, symSize: 0x90 }
  - { offset: 0xF3C63, size: 0x8, addend: 0x0, symName: __ZNK8facebook5react27ConcreteComponentDescriptorINS0_23RNSVGConcreteShadowNodeIXadL_ZNS0_22RNSVGDefsComponentNameEEENS0_14RNSVGDefsPropsEEEE15cloneShadowNodeERKNS0_10ShadowNodeERKNS0_18ShadowNodeFragmentE, symObjAddr: 0x15DC, symBinAddr: 0xC878, symSize: 0x104 }
  - { offset: 0xF3FF0, size: 0x8, addend: 0x0, symName: __ZNK8facebook5react27ConcreteComponentDescriptorINS0_23RNSVGConcreteShadowNodeIXadL_ZNS0_22RNSVGDefsComponentNameEEENS0_14RNSVGDefsPropsEEEE11appendChildERKNSt3__110shared_ptrIKNS0_10ShadowNodeEEESC_, symObjAddr: 0x16E0, symBinAddr: 0xC97C, symSize: 0x14 }
  - { offset: 0xF4046, size: 0x8, addend: 0x0, symName: __ZNK8facebook5react27ConcreteComponentDescriptorINS0_23RNSVGConcreteShadowNodeIXadL_ZNS0_22RNSVGDefsComponentNameEEENS0_14RNSVGDefsPropsEEEE11appendChildERKNSt3__110shared_ptrIKNS0_10ShadowNodeEEESC_, symObjAddr: 0x16E0, symBinAddr: 0xC97C, symSize: 0x14 }
  - { offset: 0xF4901, size: 0x8, addend: 0x0, symName: __ZNK8facebook5react27ConcreteComponentDescriptorINS0_23RNSVGConcreteShadowNodeIXadL_ZNS0_22RNSVGDefsComponentNameEEENS0_14RNSVGDefsPropsEEEE10clonePropsERKNS0_18PropsParserContextERKNSt3__110shared_ptrIKNS0_5PropsEEENS0_8RawPropsE, symObjAddr: 0x16F4, symBinAddr: 0xC990, symSize: 0x21C }
  - { offset: 0xF549B, size: 0x8, addend: 0x0, symName: __ZN8facebook5react18ConcreteShadowNodeIXadL_ZNS0_22RNSVGDefsComponentNameEEENS0_25RNSVGLayoutableShadowNodeENS0_14RNSVGDefsPropsENS0_20BaseViewEventEmitterENS0_9StateDataEE5PropsERKNS0_18PropsParserContextERKNS0_8RawPropsERKNSt3__110shared_ptrIKNS0_5PropsEEE, symObjAddr: 0x243C, symBinAddr: 0xD0EC, symSize: 0x58 }
  - { offset: 0xF5705, size: 0x8, addend: 0x0, symName: __ZNK8facebook5react27ConcreteComponentDescriptorINS0_23RNSVGConcreteShadowNodeIXadL_ZNS0_22RNSVGDefsComponentNameEEENS0_14RNSVGDefsPropsEEEE18createInitialStateERKNSt3__110shared_ptrIKNS0_5PropsEEERKNS7_IKNS0_16ShadowNodeFamilyEEE, symObjAddr: 0x1910, symBinAddr: 0xCBAC, symSize: 0x8 }
  - { offset: 0xF5749, size: 0x8, addend: 0x0, symName: __ZNK8facebook5react27ConcreteComponentDescriptorINS0_23RNSVGConcreteShadowNodeIXadL_ZNS0_22RNSVGDefsComponentNameEEENS0_14RNSVGDefsPropsEEEE18createInitialStateERKNSt3__110shared_ptrIKNS0_5PropsEEERKNS7_IKNS0_16ShadowNodeFamilyEEE, symObjAddr: 0x1910, symBinAddr: 0xCBAC, symSize: 0x8 }
  - { offset: 0xF576D, size: 0x8, addend: 0x0, symName: __ZNK8facebook5react27ConcreteComponentDescriptorINS0_23RNSVGConcreteShadowNodeIXadL_ZNS0_22RNSVGDefsComponentNameEEENS0_14RNSVGDefsPropsEEEE18createInitialStateERKNSt3__110shared_ptrIKNS0_5PropsEEERKNS7_IKNS0_16ShadowNodeFamilyEEE, symObjAddr: 0x1910, symBinAddr: 0xCBAC, symSize: 0x8 }
  - { offset: 0xF5791, size: 0x8, addend: 0x0, symName: __ZNK8facebook5react27ConcreteComponentDescriptorINS0_23RNSVGConcreteShadowNodeIXadL_ZNS0_22RNSVGDefsComponentNameEEENS0_14RNSVGDefsPropsEEEE11createStateERKNS0_16ShadowNodeFamilyERKNSt3__110shared_ptrIKvEE, symObjAddr: 0x1918, symBinAddr: 0xCBB4, symSize: 0x8 }
  - { offset: 0xF57D5, size: 0x8, addend: 0x0, symName: __ZNK8facebook5react27ConcreteComponentDescriptorINS0_23RNSVGConcreteShadowNodeIXadL_ZNS0_22RNSVGDefsComponentNameEEENS0_14RNSVGDefsPropsEEEE11createStateERKNS0_16ShadowNodeFamilyERKNSt3__110shared_ptrIKvEE, symObjAddr: 0x1918, symBinAddr: 0xCBB4, symSize: 0x8 }
  - { offset: 0xF57F9, size: 0x8, addend: 0x0, symName: __ZNK8facebook5react27ConcreteComponentDescriptorINS0_23RNSVGConcreteShadowNodeIXadL_ZNS0_22RNSVGDefsComponentNameEEENS0_14RNSVGDefsPropsEEEE11createStateERKNS0_16ShadowNodeFamilyERKNSt3__110shared_ptrIKvEE, symObjAddr: 0x1918, symBinAddr: 0xCBB4, symSize: 0x8 }
  - { offset: 0xF5A05, size: 0x8, addend: 0x0, symName: __ZNK8facebook5react27ConcreteComponentDescriptorINS0_23RNSVGConcreteShadowNodeIXadL_ZNS0_22RNSVGDefsComponentNameEEENS0_14RNSVGDefsPropsEEEE12createFamilyERKNS0_24ShadowNodeFamilyFragmentE, symObjAddr: 0x1920, symBinAddr: 0xCBBC, symSize: 0x168 }
  - { offset: 0xF5F94, size: 0x8, addend: 0x0, symName: __ZNK8facebook5react27ConcreteComponentDescriptorINS0_23RNSVGConcreteShadowNodeIXadL_ZNS0_22RNSVGDefsComponentNameEEENS0_14RNSVGDefsPropsEEEE5adoptERNS0_10ShadowNodeE, symObjAddr: 0x1A88, symBinAddr: 0xCD24, symSize: 0x4 }
  - { offset: 0xF67ED, size: 0x8, addend: 0x0, symName: __ZNSt3__120__shared_ptr_emplaceIN8facebook5react23RNSVGConcreteShadowNodeIXadL_ZNS2_22RNSVGDefsComponentNameEEENS2_14RNSVGDefsPropsEEENS_9allocatorIS5_EEEC2B8ne200100IJRKNS2_18ShadowNodeFragmentERKNS_10shared_ptrIKNS2_16ShadowNodeFamilyEEENS2_16ShadowNodeTraitsEES7_Li0EEES7_DpOT_, symObjAddr: 0x1DB4, symBinAddr: 0xCD98, symSize: 0x60 }
  - { offset: 0xF6B11, size: 0x8, addend: 0x0, symName: __ZNSt3__120__shared_ptr_emplaceIN8facebook5react23RNSVGConcreteShadowNodeIXadL_ZNS2_22RNSVGDefsComponentNameEEENS2_14RNSVGDefsPropsEEENS_9allocatorIS5_EEED1Ev, symObjAddr: 0x1E14, symBinAddr: 0xCDF8, symSize: 0x14 }
  - { offset: 0xF6B35, size: 0x8, addend: 0x0, symName: __ZNSt3__120__shared_ptr_emplaceIN8facebook5react23RNSVGConcreteShadowNodeIXadL_ZNS2_22RNSVGDefsComponentNameEEENS2_14RNSVGDefsPropsEEENS_9allocatorIS5_EEED1Ev, symObjAddr: 0x1E14, symBinAddr: 0xCDF8, symSize: 0x14 }
  - { offset: 0xF6B6B, size: 0x8, addend: 0x0, symName: __ZNSt3__120__shared_ptr_emplaceIN8facebook5react23RNSVGConcreteShadowNodeIXadL_ZNS2_22RNSVGDefsComponentNameEEENS2_14RNSVGDefsPropsEEENS_9allocatorIS5_EEED0Ev, symObjAddr: 0x1E28, symBinAddr: 0xCE0C, symSize: 0x24 }
  - { offset: 0xF6C3B, size: 0x8, addend: 0x0, symName: __ZNSt3__120__shared_ptr_emplaceIN8facebook5react23RNSVGConcreteShadowNodeIXadL_ZNS2_22RNSVGDefsComponentNameEEENS2_14RNSVGDefsPropsEEENS_9allocatorIS5_EEE16__on_zero_sharedEv, symObjAddr: 0x1E4C, symBinAddr: 0xCE30, symSize: 0xC }
  - { offset: 0xF6C64, size: 0x8, addend: 0x0, symName: __ZNSt3__120__shared_ptr_emplaceIN8facebook5react23RNSVGConcreteShadowNodeIXadL_ZNS2_22RNSVGDefsComponentNameEEENS2_14RNSVGDefsPropsEEENS_9allocatorIS5_EEE16__on_zero_sharedEv, symObjAddr: 0x1E4C, symBinAddr: 0xCE30, symSize: 0xC }
  - { offset: 0xF6C83, size: 0x8, addend: 0x0, symName: __ZNSt3__120__shared_ptr_emplaceIN8facebook5react23RNSVGConcreteShadowNodeIXadL_ZNS2_22RNSVGDefsComponentNameEEENS2_14RNSVGDefsPropsEEENS_9allocatorIS5_EEE16__on_zero_sharedEv, symObjAddr: 0x1E4C, symBinAddr: 0xCE30, symSize: 0xC }
  - { offset: 0xF6CA2, size: 0x8, addend: 0x0, symName: __ZNSt3__120__shared_ptr_emplaceIN8facebook5react23RNSVGConcreteShadowNodeIXadL_ZNS2_22RNSVGDefsComponentNameEEENS2_14RNSVGDefsPropsEEENS_9allocatorIS5_EEE16__on_zero_sharedEv, symObjAddr: 0x1E4C, symBinAddr: 0xCE30, symSize: 0xC }
  - { offset: 0xF6CCE, size: 0x8, addend: 0x0, symName: __ZNSt3__120__shared_ptr_emplaceIN8facebook5react23RNSVGConcreteShadowNodeIXadL_ZNS2_22RNSVGDefsComponentNameEEENS2_14RNSVGDefsPropsEEENS_9allocatorIS5_EEE21__on_zero_shared_weakEv, symObjAddr: 0x1E58, symBinAddr: 0xCE3C, symSize: 0x4 }
  - { offset: 0xF6D01, size: 0x8, addend: 0x0, symName: __ZNSt3__120__shared_ptr_emplaceIN8facebook5react23RNSVGConcreteShadowNodeIXadL_ZNS2_22RNSVGDefsComponentNameEEENS2_14RNSVGDefsPropsEEENS_9allocatorIS5_EEE21__on_zero_shared_weakEv, symObjAddr: 0x1E58, symBinAddr: 0xCE3C, symSize: 0x4 }
  - { offset: 0xF6D25, size: 0x8, addend: 0x0, symName: __ZNSt3__120__shared_ptr_emplaceIN8facebook5react23RNSVGConcreteShadowNodeIXadL_ZNS2_22RNSVGDefsComponentNameEEENS2_14RNSVGDefsPropsEEENS_9allocatorIS5_EEE21__on_zero_shared_weakEv, symObjAddr: 0x1E58, symBinAddr: 0xCE3C, symSize: 0x4 }
  - { offset: 0xF6D4A, size: 0x8, addend: 0x0, symName: __ZNSt3__120__shared_ptr_emplaceIN8facebook5react23RNSVGConcreteShadowNodeIXadL_ZNS2_22RNSVGDefsComponentNameEEENS2_14RNSVGDefsPropsEEENS_9allocatorIS5_EEE21__on_zero_shared_weakEv, symObjAddr: 0x1E58, symBinAddr: 0xCE3C, symSize: 0x4 }
  - { offset: 0xF6D82, size: 0x8, addend: 0x0, symName: __ZNSt3__120__shared_ptr_emplaceIN8facebook5react23RNSVGConcreteShadowNodeIXadL_ZNS2_22RNSVGDefsComponentNameEEENS2_14RNSVGDefsPropsEEENS_9allocatorIS5_EEE21__on_zero_shared_weakEv, symObjAddr: 0x1E58, symBinAddr: 0xCE3C, symSize: 0x4 }
  - { offset: 0xF7002, size: 0x8, addend: 0x0, symName: __ZN8facebook5react23RNSVGConcreteShadowNodeIXadL_ZNS0_22RNSVGDefsComponentNameEEENS0_14RNSVGDefsPropsEED1Ev, symObjAddr: 0x1E5C, symBinAddr: 0xCE40, symSize: 0x70 }
  - { offset: 0xF75B3, size: 0x8, addend: 0x0, symName: __ZN8facebook5react23RNSVGConcreteShadowNodeIXadL_ZNS0_22RNSVGDefsComponentNameEEENS0_14RNSVGDefsPropsEED0Ev, symObjAddr: 0x1ECC, symBinAddr: 0xCEB0, symSize: 0x74 }
  - { offset: 0xF7A0E, size: 0x8, addend: 0x0, symName: __ZNK8facebook5react23RNSVGConcreteShadowNodeIXadL_ZNS0_22RNSVGDefsComponentNameEEENS0_14RNSVGDefsPropsEE12getTransformEv, symObjAddr: 0x1F40, symBinAddr: 0xCF24, symSize: 0x40 }
  - { offset: 0xF7A81, size: 0x8, addend: 0x0, symName: __ZNK8facebook5react23RNSVGConcreteShadowNodeIXadL_ZNS0_22RNSVGDefsComponentNameEEENS0_14RNSVGDefsPropsEE16canBeTouchTargetEv, symObjAddr: 0x1F80, symBinAddr: 0xCF64, symSize: 0x18 }
  - { offset: 0xF7AB9, size: 0x8, addend: 0x0, symName: __ZNK8facebook5react23RNSVGConcreteShadowNodeIXadL_ZNS0_22RNSVGDefsComponentNameEEENS0_14RNSVGDefsPropsEE16canBeTouchTargetEv, symObjAddr: 0x1F80, symBinAddr: 0xCF64, symSize: 0x18 }
  - { offset: 0xF7AD6, size: 0x8, addend: 0x0, symName: __ZNK8facebook5react23RNSVGConcreteShadowNodeIXadL_ZNS0_22RNSVGDefsComponentNameEEENS0_14RNSVGDefsPropsEE16canBeTouchTargetEv, symObjAddr: 0x1F80, symBinAddr: 0xCF64, symSize: 0x18 }
  - { offset: 0xF7AF4, size: 0x8, addend: 0x0, symName: __ZNK8facebook5react23RNSVGConcreteShadowNodeIXadL_ZNS0_22RNSVGDefsComponentNameEEENS0_14RNSVGDefsPropsEE24canChildrenBeTouchTargetEv, symObjAddr: 0x1F98, symBinAddr: 0xCF7C, symSize: 0x18 }
  - { offset: 0xF7B28, size: 0x8, addend: 0x0, symName: __ZNK8facebook5react23RNSVGConcreteShadowNodeIXadL_ZNS0_22RNSVGDefsComponentNameEEENS0_14RNSVGDefsPropsEE24canChildrenBeTouchTargetEv, symObjAddr: 0x1F98, symBinAddr: 0xCF7C, symSize: 0x18 }
  - { offset: 0xF7B45, size: 0x8, addend: 0x0, symName: __ZNK8facebook5react23RNSVGConcreteShadowNodeIXadL_ZNS0_22RNSVGDefsComponentNameEEENS0_14RNSVGDefsPropsEE24canChildrenBeTouchTargetEv, symObjAddr: 0x1F98, symBinAddr: 0xCF7C, symSize: 0x18 }
  - { offset: 0xF7F3E, size: 0x8, addend: 0x0, symName: __ZNSt3__120__shared_ptr_emplaceIN8facebook5react23RNSVGConcreteShadowNodeIXadL_ZNS2_22RNSVGDefsComponentNameEEENS2_14RNSVGDefsPropsEEENS_9allocatorIS5_EEEC2B8ne200100IJRKNS2_10ShadowNodeERKNS2_18ShadowNodeFragmentEES7_Li0EEES7_DpOT_, symObjAddr: 0x22EC, symBinAddr: 0xCFF4, symSize: 0x5C }
  - { offset: 0xF8439, size: 0x8, addend: 0x0, symName: __ZNSt3__120__shared_ptr_emplaceIN8facebook5react14RNSVGDefsPropsENS_9allocatorIS3_EEEC2B8ne200100IJRKNS2_18PropsParserContextERKS3_RKNS2_8RawPropsEES5_Li0EEES5_DpOT_, symObjAddr: 0x2504, symBinAddr: 0xD1B4, symSize: 0x4C }
  - { offset: 0xF8627, size: 0x8, addend: 0x0, symName: __ZNSt3__120__shared_ptr_emplaceIN8facebook5react14RNSVGDefsPropsENS_9allocatorIS3_EEED1Ev, symObjAddr: 0x2550, symBinAddr: 0xD200, symSize: 0x14 }
  - { offset: 0xF864B, size: 0x8, addend: 0x0, symName: __ZNSt3__120__shared_ptr_emplaceIN8facebook5react14RNSVGDefsPropsENS_9allocatorIS3_EEED1Ev, symObjAddr: 0x2550, symBinAddr: 0xD200, symSize: 0x14 }
  - { offset: 0xF8681, size: 0x8, addend: 0x0, symName: __ZNSt3__120__shared_ptr_emplaceIN8facebook5react14RNSVGDefsPropsENS_9allocatorIS3_EEED0Ev, symObjAddr: 0x2564, symBinAddr: 0xD214, symSize: 0x24 }
  - { offset: 0xF8722, size: 0x8, addend: 0x0, symName: __ZNSt3__120__shared_ptr_emplaceIN8facebook5react14RNSVGDefsPropsENS_9allocatorIS3_EEE16__on_zero_sharedEv, symObjAddr: 0x2588, symBinAddr: 0xD238, symSize: 0x10 }
  - { offset: 0xF874B, size: 0x8, addend: 0x0, symName: __ZNSt3__120__shared_ptr_emplaceIN8facebook5react14RNSVGDefsPropsENS_9allocatorIS3_EEE16__on_zero_sharedEv, symObjAddr: 0x2588, symBinAddr: 0xD238, symSize: 0x10 }
  - { offset: 0xF87BF, size: 0x8, addend: 0x0, symName: __ZNSt3__120__shared_ptr_emplaceIN8facebook5react14RNSVGDefsPropsENS_9allocatorIS3_EEE21__on_zero_shared_weakEv, symObjAddr: 0x2598, symBinAddr: 0xD248, symSize: 0x4 }
  - { offset: 0xF87F2, size: 0x8, addend: 0x0, symName: __ZNSt3__120__shared_ptr_emplaceIN8facebook5react14RNSVGDefsPropsENS_9allocatorIS3_EEE21__on_zero_shared_weakEv, symObjAddr: 0x2598, symBinAddr: 0xD248, symSize: 0x4 }
  - { offset: 0xF8816, size: 0x8, addend: 0x0, symName: __ZNSt3__120__shared_ptr_emplaceIN8facebook5react14RNSVGDefsPropsENS_9allocatorIS3_EEE21__on_zero_shared_weakEv, symObjAddr: 0x2598, symBinAddr: 0xD248, symSize: 0x4 }
  - { offset: 0xF883B, size: 0x8, addend: 0x0, symName: __ZNSt3__120__shared_ptr_emplaceIN8facebook5react14RNSVGDefsPropsENS_9allocatorIS3_EEE21__on_zero_shared_weakEv, symObjAddr: 0x2598, symBinAddr: 0xD248, symSize: 0x4 }
  - { offset: 0xF8873, size: 0x8, addend: 0x0, symName: __ZNSt3__120__shared_ptr_emplaceIN8facebook5react14RNSVGDefsPropsENS_9allocatorIS3_EEE21__on_zero_shared_weakEv, symObjAddr: 0x2598, symBinAddr: 0xD248, symSize: 0x4 }
  - { offset: 0xF9B58, size: 0x8, addend: 0x0, symName: __ZNSt3__120__shared_ptr_emplaceIN8facebook5react16ShadowNodeFamilyENS_9allocatorIS3_EEEC2B8ne200100IJRKNS2_24ShadowNodeFamilyFragmentERNS_10shared_ptrIKNS2_20BaseViewEventEmitterEEERKNS_8weak_ptrIKNS2_15EventDispatcherEEERKNS2_27ConcreteComponentDescriptorINS2_23RNSVGConcreteShadowNodeIXadL_ZNS2_22RNSVGDefsComponentNameEEENS2_14RNSVGDefsPropsEEEEEES5_Li0EEES5_DpOT_, symObjAddr: 0x2EC0, symBinAddr: 0xD2C4, symSize: 0x4C }
  - { offset: 0xF9ED3, size: 0x8, addend: 0x0, symName: __GLOBAL__sub_I_RNSVGDefs.mm, symObjAddr: 0x33C8, symBinAddr: 0xD3EC, symSize: 0x20 }
  - { offset: 0xFC478, size: 0x8, addend: 0x0, symName: __ZN8facebook5react17HostPlatformColorL14UndefinedColorE, symObjAddr: 0xDD9B0, symBinAddr: 0xB0140, symSize: 0x0 }
  - { offset: 0xFD15C, size: 0x8, addend: 0x0, symName: '+[RNSVGDefsManager moduleName]', symObjAddr: 0x0, symBinAddr: 0xD40C, symSize: 0xC }
  - { offset: 0xFD18D, size: 0x8, addend: 0x0, symName: '+[RNSVGDefsManager load]', symObjAddr: 0xC, symBinAddr: 0xD418, symSize: 0x4 }
  - { offset: 0xFD1C0, size: 0x8, addend: 0x0, symName: '+[RNSVGDefsManager load]', symObjAddr: 0xC, symBinAddr: 0xD418, symSize: 0x4 }
  - { offset: 0xFD1DF, size: 0x8, addend: 0x0, symName: '-[RNSVGDefsManager node]', symObjAddr: 0x10, symBinAddr: 0xD41C, symSize: 0x1C }
  - { offset: 0xFD210, size: 0x8, addend: 0x0, symName: '-[RNSVGDefsManager view]', symObjAddr: 0x2C, symBinAddr: 0xD438, symSize: 0x4 }
  - { offset: 0xFD2CB, size: 0x8, addend: 0x0, symName: __GLOBAL__sub_I_RNSVGDefsManager.mm, symObjAddr: 0x30, symBinAddr: 0xD43C, symSize: 0x20 }
  - { offset: 0xFF2E0, size: 0x8, addend: 0x0, symName: __ZN8facebook5react17HostPlatformColorL14UndefinedColorE, symObjAddr: 0x17B0E0, symBinAddr: 0xB0158, symSize: 0x0 }
  - { offset: 0x102897, size: 0x8, addend: 0x0, symName: __ZN8facebook5react38concreteComponentDescriptorConstructorINS0_27ConcreteComponentDescriptorINS0_23RNSVGConcreteShadowNodeIXadL_ZNS0_25RNSVGEllipseComponentNameEEENS0_17RNSVGEllipsePropsEEEEEEENSt3__110unique_ptrIKNS0_19ComponentDescriptorENS7_14default_deleteISA_EEEERKNS0_29ComponentDescriptorParametersE, symObjAddr: 0x21B4, symBinAddr: 0xE624, symSize: 0x34 }
  - { offset: 0x11F2E8, size: 0x8, addend: 0x0, symName: __ZNSt3__115allocate_sharedB8ne200100IKN8facebook5react17RNSVGEllipsePropsENS_9allocatorIS3_EEJELi0EEENS_10shared_ptrIT_EERKT0_DpOT1_, symObjAddr: 0x1154, symBinAddr: 0xE2C0, symSize: 0x48 }
  - { offset: 0x120642, size: 0x8, addend: 0x0, symName: __ZNSt3__111make_uniqueB8ne200100IKN8facebook5react27ConcreteComponentDescriptorINS2_23RNSVGConcreteShadowNodeIXadL_ZNS2_25RNSVGEllipseComponentNameEEENS2_17RNSVGEllipsePropsEEEEEJRKNS2_29ComponentDescriptorParametersEELi0EEENS_10unique_ptrIT_NS_14default_deleteISD_EEEEDpOT0_, symObjAddr: 0x21E8, symBinAddr: 0xE658, symSize: 0xD4 }
  - { offset: 0x120FBA, size: 0x8, addend: 0x0, symName: __ZNSt3__115allocate_sharedB8ne200100IN8facebook5react23RNSVGConcreteShadowNodeIXadL_ZNS2_25RNSVGEllipseComponentNameEEENS2_17RNSVGEllipsePropsEEENS_9allocatorIS5_EEJRKNS2_18ShadowNodeFragmentERKNS_10shared_ptrIKNS2_16ShadowNodeFamilyEEENS2_16ShadowNodeTraitsEELi0EEENSB_IT_EERKT0_DpOT1_, symObjAddr: 0x2D18, symBinAddr: 0xEE80, symSize: 0x70 }
  - { offset: 0x1212E9, size: 0x8, addend: 0x0, symName: __ZNSt3__115allocate_sharedB8ne200100IN8facebook5react23RNSVGConcreteShadowNodeIXadL_ZNS2_25RNSVGEllipseComponentNameEEENS2_17RNSVGEllipsePropsEEENS_9allocatorIS5_EEJRKNS2_10ShadowNodeERKNS2_18ShadowNodeFragmentEELi0EEENS_10shared_ptrIT_EERKT0_DpOT1_, symObjAddr: 0x3260, symBinAddr: 0xF0EC, symSize: 0x60 }
  - { offset: 0x121A34, size: 0x8, addend: 0x0, symName: __ZNSt3__115allocate_sharedB8ne200100IN8facebook5react16ShadowNodeFamilyENS_9allocatorIS3_EEJRKNS2_24ShadowNodeFamilyFragmentERNS_10shared_ptrIKNS2_20BaseViewEventEmitterEEERKNS_8weak_ptrIKNS2_15EventDispatcherEEERKNS2_27ConcreteComponentDescriptorINS2_23RNSVGConcreteShadowNodeIXadL_ZNS2_25RNSVGEllipseComponentNameEEENS2_17RNSVGEllipsePropsEEEEEELi0EEENS9_IT_EERKT0_DpOT1_, symObjAddr: 0x3C18, symBinAddr: 0xF3A4, symSize: 0x78 }
  - { offset: 0x1227C7, size: 0x8, addend: 0x0, symName: __ZNSt3__115allocate_sharedB8ne200100IN8facebook5react17RNSVGEllipsePropsENS_9allocatorIS3_EEJRKNS2_18PropsParserContextERKS3_RKNS2_8RawPropsEELi0EEENS_10shared_ptrIT_EERKT0_DpOT1_, symObjAddr: 0x3468, symBinAddr: 0xF29C, symSize: 0x70 }
  - { offset: 0x1239D4, size: 0x8, addend: 0x0, symName: __ZNSt3__112construct_atB8ne200100IN8facebook5react16ShadowNodeFamilyEJRKNS2_24ShadowNodeFamilyFragmentERNS_10shared_ptrIKNS2_20BaseViewEventEmitterEEERKNS_8weak_ptrIKNS2_15EventDispatcherEEERKNS2_27ConcreteComponentDescriptorINS2_23RNSVGConcreteShadowNodeIXadL_ZNS2_25RNSVGEllipseComponentNameEEENS2_17RNSVGEllipsePropsEEEEEEPS3_EEPT_SR_DpOT0_, symObjAddr: 0x3D20, symBinAddr: 0xF468, symSize: 0xDC }
  - { offset: 0x124DBC, size: 0x8, addend: 0x0, symName: '-[RNSVGEllipse initWithFrame:]', symObjAddr: 0x34, symBinAddr: 0xD490, symSize: 0xDC }
  - { offset: 0x124DE5, size: 0x8, addend: 0x0, symName: '__ZZ30-[RNSVGEllipse initWithFrame:]E12defaultProps', symObjAddr: 0x17B0F8, symBinAddr: 0xB0170, symSize: 0x0 }
  - { offset: 0x128843, size: 0x8, addend: 0x0, symName: __ZN8facebook5react18ConcreteShadowNodeIXadL_ZNS0_25RNSVGEllipseComponentNameEEENS0_25RNSVGLayoutableShadowNodeENS0_17RNSVGEllipsePropsENS0_20BaseViewEventEmitterENS0_9StateDataEE18defaultSharedPropsEv, symObjAddr: 0x3374, symBinAddr: 0xF1A8, symSize: 0x9C }
  - { offset: 0x128862, size: 0x8, addend: 0x0, symName: __ZZN8facebook5react18ConcreteShadowNodeIXadL_ZNS0_25RNSVGEllipseComponentNameEEENS0_25RNSVGLayoutableShadowNodeENS0_17RNSVGEllipsePropsENS0_20BaseViewEventEmitterENS0_9StateDataEE18defaultSharedPropsEvE18defaultSharedProps, symObjAddr: 0x6160, symBinAddr: 0xAF948, symSize: 0x0 }
  - { offset: 0x1288A0, size: 0x8, addend: 0x0, symName: __ZL20MinimalLayoutMetrics, symObjAddr: 0x58E0, symBinAddr: 0x73200, symSize: 0x0 }
  - { offset: 0x128B1D, size: 0x8, addend: 0x0, symName: '+[RNSVGEllipse load]', symObjAddr: 0x0, symBinAddr: 0xD45C, symSize: 0x34 }
  - { offset: 0x128C5C, size: 0x8, addend: 0x0, symName: __ZNSt3__110shared_ptrIKN8facebook5react17RNSVGEllipsePropsEED1B8ne200100Ev, symObjAddr: 0x110, symBinAddr: 0xD56C, symSize: 0x4 }
  - { offset: 0x128C80, size: 0x8, addend: 0x0, symName: __ZNSt3__110shared_ptrIKN8facebook5react17RNSVGEllipsePropsEED1B8ne200100Ev, symObjAddr: 0x110, symBinAddr: 0xD56C, symSize: 0x4 }
  - { offset: 0x128E88, size: 0x8, addend: 0x0, symName: '+[RNSVGEllipse componentDescriptorProvider]', symObjAddr: 0x18C, symBinAddr: 0xD570, symSize: 0x20 }
  - { offset: 0x128EBC, size: 0x8, addend: 0x0, symName: '+[RNSVGEllipse componentDescriptorProvider]', symObjAddr: 0x18C, symBinAddr: 0xD570, symSize: 0x20 }
  - { offset: 0x128FFD, size: 0x8, addend: 0x0, symName: '-[RNSVGEllipse updateProps:oldProps:]', symObjAddr: 0x1AC, symBinAddr: 0xD590, symSize: 0x20C }
  - { offset: 0x1292DC, size: 0x8, addend: 0x0, symName: __ZL28RNSVGConvertFollyDynamicToIdRKN5folly7dynamicE, symObjAddr: 0x3B8, symBinAddr: 0xD79C, symSize: 0x274 }
  - { offset: 0x129793, size: 0x8, addend: 0x0, symName: __Z24setCommonRenderablePropsIN8facebook5react17RNSVGEllipsePropsEEvRKT_P15RNSVGRenderable, symObjAddr: 0x62C, symBinAddr: 0xDA10, symSize: 0x484 }
  - { offset: 0x12A457, size: 0x8, addend: 0x0, symName: __Z18setCommonNodePropsIN8facebook5react17RNSVGEllipsePropsEEvRKT_P9RNSVGNode, symObjAddr: 0x3F04, symBinAddr: 0xF544, symSize: 0x6A0 }
  - { offset: 0x12B646, size: 0x8, addend: 0x0, symName: '-[RNSVGEllipse prepareForRecycle]', symObjAddr: 0xB14, symBinAddr: 0xDE94, symSize: 0x90 }
  - { offset: 0x12B677, size: 0x8, addend: 0x0, symName: '-[RNSVGEllipse setCx:]', symObjAddr: 0xBA4, symBinAddr: 0xDF24, symSize: 0x78 }
  - { offset: 0x12B6B7, size: 0x8, addend: 0x0, symName: '-[RNSVGEllipse setCy:]', symObjAddr: 0xC1C, symBinAddr: 0xDF9C, symSize: 0x78 }
  - { offset: 0x12B6F7, size: 0x8, addend: 0x0, symName: '-[RNSVGEllipse setRx:]', symObjAddr: 0xC94, symBinAddr: 0xE014, symSize: 0x78 }
  - { offset: 0x12B737, size: 0x8, addend: 0x0, symName: '-[RNSVGEllipse setRy:]', symObjAddr: 0xD0C, symBinAddr: 0xE08C, symSize: 0x78 }
  - { offset: 0x12B776, size: 0x8, addend: 0x0, symName: '-[RNSVGEllipse getPath:]', symObjAddr: 0xD84, symBinAddr: 0xE104, symSize: 0x108 }
  - { offset: 0x12B886, size: 0x8, addend: 0x0, symName: '-[RNSVGEllipse cx]', symObjAddr: 0xE8C, symBinAddr: 0xE20C, symSize: 0x10 }
  - { offset: 0x12B8BC, size: 0x8, addend: 0x0, symName: '-[RNSVGEllipse cy]', symObjAddr: 0xE9C, symBinAddr: 0xE21C, symSize: 0x10 }
  - { offset: 0x12B8F2, size: 0x8, addend: 0x0, symName: '-[RNSVGEllipse rx]', symObjAddr: 0xEAC, symBinAddr: 0xE22C, symSize: 0x10 }
  - { offset: 0x12B928, size: 0x8, addend: 0x0, symName: '-[RNSVGEllipse ry]', symObjAddr: 0xEBC, symBinAddr: 0xE23C, symSize: 0x10 }
  - { offset: 0x12B95E, size: 0x8, addend: 0x0, symName: '-[RNSVGEllipse .cxx_destruct]', symObjAddr: 0xECC, symBinAddr: 0xE24C, symSize: 0x68 }
  - { offset: 0x12B98F, size: 0x8, addend: 0x0, symName: __Z15RNSVGEllipseClsv, symObjAddr: 0xF34, symBinAddr: 0xE2B4, symSize: 0xC }
  - { offset: 0x12C011, size: 0x8, addend: 0x0, symName: __ZNSt3__120__shared_ptr_emplaceIKN8facebook5react17RNSVGEllipsePropsENS_9allocatorIS3_EEEC2B8ne200100IJES6_Li0EEES6_DpOT_, symObjAddr: 0x119C, symBinAddr: 0xE308, symSize: 0x58 }
  - { offset: 0x12C190, size: 0x8, addend: 0x0, symName: __ZN8facebook5react17RNSVGEllipsePropsC1Ev, symObjAddr: 0x1240, symBinAddr: 0xE3AC, symSize: 0x124 }
  - { offset: 0x12C9FB, size: 0x8, addend: 0x0, symName: __ZNSt3__120__shared_ptr_emplaceIKN8facebook5react17RNSVGEllipsePropsENS_9allocatorIS3_EEED1Ev, symObjAddr: 0x11F4, symBinAddr: 0xE360, symSize: 0x14 }
  - { offset: 0x12CA1F, size: 0x8, addend: 0x0, symName: __ZNSt3__120__shared_ptr_emplaceIKN8facebook5react17RNSVGEllipsePropsENS_9allocatorIS3_EEED1Ev, symObjAddr: 0x11F4, symBinAddr: 0xE360, symSize: 0x14 }
  - { offset: 0x12CA55, size: 0x8, addend: 0x0, symName: __ZNSt3__120__shared_ptr_emplaceIKN8facebook5react17RNSVGEllipsePropsENS_9allocatorIS3_EEED0Ev, symObjAddr: 0x1208, symBinAddr: 0xE374, symSize: 0x24 }
  - { offset: 0x12CB41, size: 0x8, addend: 0x0, symName: __ZNSt3__120__shared_ptr_emplaceIKN8facebook5react17RNSVGEllipsePropsENS_9allocatorIS3_EEE16__on_zero_sharedEv, symObjAddr: 0x122C, symBinAddr: 0xE398, symSize: 0x10 }
  - { offset: 0x12CB6A, size: 0x8, addend: 0x0, symName: __ZNSt3__120__shared_ptr_emplaceIKN8facebook5react17RNSVGEllipsePropsENS_9allocatorIS3_EEE16__on_zero_sharedEv, symObjAddr: 0x122C, symBinAddr: 0xE398, symSize: 0x10 }
  - { offset: 0x12CBDE, size: 0x8, addend: 0x0, symName: __ZN8facebook5react17RNSVGEllipsePropsD2Ev, symObjAddr: 0x2030, symBinAddr: 0xE4F8, symSize: 0x12C }
  - { offset: 0x12DA1C, size: 0x8, addend: 0x0, symName: __ZNSt3__120__shared_ptr_emplaceIKN8facebook5react17RNSVGEllipsePropsENS_9allocatorIS3_EEE21__on_zero_shared_weakEv, symObjAddr: 0x123C, symBinAddr: 0xE3A8, symSize: 0x4 }
  - { offset: 0x12DA4F, size: 0x8, addend: 0x0, symName: __ZNSt3__120__shared_ptr_emplaceIKN8facebook5react17RNSVGEllipsePropsENS_9allocatorIS3_EEE21__on_zero_shared_weakEv, symObjAddr: 0x123C, symBinAddr: 0xE3A8, symSize: 0x4 }
  - { offset: 0x12DA73, size: 0x8, addend: 0x0, symName: __ZNSt3__120__shared_ptr_emplaceIKN8facebook5react17RNSVGEllipsePropsENS_9allocatorIS3_EEE21__on_zero_shared_weakEv, symObjAddr: 0x123C, symBinAddr: 0xE3A8, symSize: 0x4 }
  - { offset: 0x12DA98, size: 0x8, addend: 0x0, symName: __ZNSt3__120__shared_ptr_emplaceIKN8facebook5react17RNSVGEllipsePropsENS_9allocatorIS3_EEE21__on_zero_shared_weakEv, symObjAddr: 0x123C, symBinAddr: 0xE3A8, symSize: 0x4 }
  - { offset: 0x12DAD0, size: 0x8, addend: 0x0, symName: __ZNSt3__120__shared_ptr_emplaceIKN8facebook5react17RNSVGEllipsePropsENS_9allocatorIS3_EEE21__on_zero_shared_weakEv, symObjAddr: 0x123C, symBinAddr: 0xE3A8, symSize: 0x4 }
  - { offset: 0x131DBB, size: 0x8, addend: 0x0, symName: __ZN8facebook5react17RNSVGEllipsePropsD1Ev, symObjAddr: 0x1880, symBinAddr: 0xE4D0, symSize: 0xC }
  - { offset: 0x131DF2, size: 0x8, addend: 0x0, symName: __ZN8facebook5react17RNSVGEllipsePropsD0Ev, symObjAddr: 0x188C, symBinAddr: 0xE4DC, symSize: 0x1C }
  - { offset: 0x1339B6, size: 0x8, addend: 0x0, symName: __ZN8facebook5react14RawPropsParser7prepareINS0_17RNSVGEllipsePropsEEEvv, symObjAddr: 0x230C, symBinAddr: 0xE72C, symSize: 0x1DC }
  - { offset: 0x134981, size: 0x8, addend: 0x0, symName: __ZN8facebook5react27ConcreteComponentDescriptorINS0_23RNSVGConcreteShadowNodeIXadL_ZNS0_25RNSVGEllipseComponentNameEEENS0_17RNSVGEllipsePropsEEEED1Ev, symObjAddr: 0x24E8, symBinAddr: 0xE908, symSize: 0x4 }
  - { offset: 0x1349A5, size: 0x8, addend: 0x0, symName: __ZN8facebook5react27ConcreteComponentDescriptorINS0_23RNSVGConcreteShadowNodeIXadL_ZNS0_25RNSVGEllipseComponentNameEEENS0_17RNSVGEllipsePropsEEEED1Ev, symObjAddr: 0x24E8, symBinAddr: 0xE908, symSize: 0x4 }
  - { offset: 0x1349C3, size: 0x8, addend: 0x0, symName: __ZN8facebook5react27ConcreteComponentDescriptorINS0_23RNSVGConcreteShadowNodeIXadL_ZNS0_25RNSVGEllipseComponentNameEEENS0_17RNSVGEllipsePropsEEEED1Ev, symObjAddr: 0x24E8, symBinAddr: 0xE908, symSize: 0x4 }
  - { offset: 0x134C9A, size: 0x8, addend: 0x0, symName: __ZN8facebook5react27ConcreteComponentDescriptorINS0_23RNSVGConcreteShadowNodeIXadL_ZNS0_25RNSVGEllipseComponentNameEEENS0_17RNSVGEllipsePropsEEEED0Ev, symObjAddr: 0x24EC, symBinAddr: 0xE90C, symSize: 0x14 }
  - { offset: 0x134D16, size: 0x8, addend: 0x0, symName: __ZNK8facebook5react27ConcreteComponentDescriptorINS0_23RNSVGConcreteShadowNodeIXadL_ZNS0_25RNSVGEllipseComponentNameEEENS0_17RNSVGEllipsePropsEEEE18getComponentHandleEv, symObjAddr: 0x2500, symBinAddr: 0xE920, symSize: 0xC }
  - { offset: 0x134D3C, size: 0x8, addend: 0x0, symName: __ZNK8facebook5react27ConcreteComponentDescriptorINS0_23RNSVGConcreteShadowNodeIXadL_ZNS0_25RNSVGEllipseComponentNameEEENS0_17RNSVGEllipsePropsEEEE16getComponentNameEv, symObjAddr: 0x250C, symBinAddr: 0xE92C, symSize: 0xC }
  - { offset: 0x134D62, size: 0x8, addend: 0x0, symName: __ZNK8facebook5react27ConcreteComponentDescriptorINS0_23RNSVGConcreteShadowNodeIXadL_ZNS0_25RNSVGEllipseComponentNameEEENS0_17RNSVGEllipsePropsEEEE9getTraitsEv, symObjAddr: 0x2518, symBinAddr: 0xE938, symSize: 0x8 }
  - { offset: 0x134E5C, size: 0x8, addend: 0x0, symName: __ZNK8facebook5react27ConcreteComponentDescriptorINS0_23RNSVGConcreteShadowNodeIXadL_ZNS0_25RNSVGEllipseComponentNameEEENS0_17RNSVGEllipsePropsEEEE16createShadowNodeERKNS0_18ShadowNodeFragmentERKNSt3__110shared_ptrIKNS0_16ShadowNodeFamilyEEE, symObjAddr: 0x2520, symBinAddr: 0xE940, symSize: 0x90 }
  - { offset: 0x1350E8, size: 0x8, addend: 0x0, symName: __ZNK8facebook5react27ConcreteComponentDescriptorINS0_23RNSVGConcreteShadowNodeIXadL_ZNS0_25RNSVGEllipseComponentNameEEENS0_17RNSVGEllipsePropsEEEE15cloneShadowNodeERKNS0_10ShadowNodeERKNS0_18ShadowNodeFragmentE, symObjAddr: 0x25B0, symBinAddr: 0xE9D0, symSize: 0x104 }
  - { offset: 0x135475, size: 0x8, addend: 0x0, symName: __ZNK8facebook5react27ConcreteComponentDescriptorINS0_23RNSVGConcreteShadowNodeIXadL_ZNS0_25RNSVGEllipseComponentNameEEENS0_17RNSVGEllipsePropsEEEE11appendChildERKNSt3__110shared_ptrIKNS0_10ShadowNodeEEESC_, symObjAddr: 0x26B4, symBinAddr: 0xEAD4, symSize: 0x14 }
  - { offset: 0x1354CB, size: 0x8, addend: 0x0, symName: __ZNK8facebook5react27ConcreteComponentDescriptorINS0_23RNSVGConcreteShadowNodeIXadL_ZNS0_25RNSVGEllipseComponentNameEEENS0_17RNSVGEllipsePropsEEEE11appendChildERKNSt3__110shared_ptrIKNS0_10ShadowNodeEEESC_, symObjAddr: 0x26B4, symBinAddr: 0xEAD4, symSize: 0x14 }
  - { offset: 0x135C13, size: 0x8, addend: 0x0, symName: __ZNK8facebook5react27ConcreteComponentDescriptorINS0_23RNSVGConcreteShadowNodeIXadL_ZNS0_25RNSVGEllipseComponentNameEEENS0_17RNSVGEllipsePropsEEEE10clonePropsERKNS0_18PropsParserContextERKNSt3__110shared_ptrIKNS0_5PropsEEENS0_8RawPropsE, symObjAddr: 0x26C8, symBinAddr: 0xEAE8, symSize: 0x21C }
  - { offset: 0x1367AD, size: 0x8, addend: 0x0, symName: __ZN8facebook5react18ConcreteShadowNodeIXadL_ZNS0_25RNSVGEllipseComponentNameEEENS0_25RNSVGLayoutableShadowNodeENS0_17RNSVGEllipsePropsENS0_20BaseViewEventEmitterENS0_9StateDataEE5PropsERKNS0_18PropsParserContextERKNS0_8RawPropsERKNSt3__110shared_ptrIKNS0_5PropsEEE, symObjAddr: 0x3410, symBinAddr: 0xF244, symSize: 0x58 }
  - { offset: 0x136A17, size: 0x8, addend: 0x0, symName: __ZNK8facebook5react27ConcreteComponentDescriptorINS0_23RNSVGConcreteShadowNodeIXadL_ZNS0_25RNSVGEllipseComponentNameEEENS0_17RNSVGEllipsePropsEEEE18createInitialStateERKNSt3__110shared_ptrIKNS0_5PropsEEERKNS7_IKNS0_16ShadowNodeFamilyEEE, symObjAddr: 0x28E4, symBinAddr: 0xED04, symSize: 0x8 }
  - { offset: 0x136A5B, size: 0x8, addend: 0x0, symName: __ZNK8facebook5react27ConcreteComponentDescriptorINS0_23RNSVGConcreteShadowNodeIXadL_ZNS0_25RNSVGEllipseComponentNameEEENS0_17RNSVGEllipsePropsEEEE18createInitialStateERKNSt3__110shared_ptrIKNS0_5PropsEEERKNS7_IKNS0_16ShadowNodeFamilyEEE, symObjAddr: 0x28E4, symBinAddr: 0xED04, symSize: 0x8 }
  - { offset: 0x136A7F, size: 0x8, addend: 0x0, symName: __ZNK8facebook5react27ConcreteComponentDescriptorINS0_23RNSVGConcreteShadowNodeIXadL_ZNS0_25RNSVGEllipseComponentNameEEENS0_17RNSVGEllipsePropsEEEE18createInitialStateERKNSt3__110shared_ptrIKNS0_5PropsEEERKNS7_IKNS0_16ShadowNodeFamilyEEE, symObjAddr: 0x28E4, symBinAddr: 0xED04, symSize: 0x8 }
  - { offset: 0x136AA3, size: 0x8, addend: 0x0, symName: __ZNK8facebook5react27ConcreteComponentDescriptorINS0_23RNSVGConcreteShadowNodeIXadL_ZNS0_25RNSVGEllipseComponentNameEEENS0_17RNSVGEllipsePropsEEEE11createStateERKNS0_16ShadowNodeFamilyERKNSt3__110shared_ptrIKvEE, symObjAddr: 0x28EC, symBinAddr: 0xED0C, symSize: 0x8 }
  - { offset: 0x136AE7, size: 0x8, addend: 0x0, symName: __ZNK8facebook5react27ConcreteComponentDescriptorINS0_23RNSVGConcreteShadowNodeIXadL_ZNS0_25RNSVGEllipseComponentNameEEENS0_17RNSVGEllipsePropsEEEE11createStateERKNS0_16ShadowNodeFamilyERKNSt3__110shared_ptrIKvEE, symObjAddr: 0x28EC, symBinAddr: 0xED0C, symSize: 0x8 }
  - { offset: 0x136B0B, size: 0x8, addend: 0x0, symName: __ZNK8facebook5react27ConcreteComponentDescriptorINS0_23RNSVGConcreteShadowNodeIXadL_ZNS0_25RNSVGEllipseComponentNameEEENS0_17RNSVGEllipsePropsEEEE11createStateERKNS0_16ShadowNodeFamilyERKNSt3__110shared_ptrIKvEE, symObjAddr: 0x28EC, symBinAddr: 0xED0C, symSize: 0x8 }
  - { offset: 0x136D17, size: 0x8, addend: 0x0, symName: __ZNK8facebook5react27ConcreteComponentDescriptorINS0_23RNSVGConcreteShadowNodeIXadL_ZNS0_25RNSVGEllipseComponentNameEEENS0_17RNSVGEllipsePropsEEEE12createFamilyERKNS0_24ShadowNodeFamilyFragmentE, symObjAddr: 0x28F4, symBinAddr: 0xED14, symSize: 0x168 }
  - { offset: 0x1372A6, size: 0x8, addend: 0x0, symName: __ZNK8facebook5react27ConcreteComponentDescriptorINS0_23RNSVGConcreteShadowNodeIXadL_ZNS0_25RNSVGEllipseComponentNameEEENS0_17RNSVGEllipsePropsEEEE5adoptERNS0_10ShadowNodeE, symObjAddr: 0x2A5C, symBinAddr: 0xEE7C, symSize: 0x4 }
  - { offset: 0x137AFF, size: 0x8, addend: 0x0, symName: __ZNSt3__120__shared_ptr_emplaceIN8facebook5react23RNSVGConcreteShadowNodeIXadL_ZNS2_25RNSVGEllipseComponentNameEEENS2_17RNSVGEllipsePropsEEENS_9allocatorIS5_EEEC2B8ne200100IJRKNS2_18ShadowNodeFragmentERKNS_10shared_ptrIKNS2_16ShadowNodeFamilyEEENS2_16ShadowNodeTraitsEES7_Li0EEES7_DpOT_, symObjAddr: 0x2D88, symBinAddr: 0xEEF0, symSize: 0x60 }
  - { offset: 0x137E23, size: 0x8, addend: 0x0, symName: __ZNSt3__120__shared_ptr_emplaceIN8facebook5react23RNSVGConcreteShadowNodeIXadL_ZNS2_25RNSVGEllipseComponentNameEEENS2_17RNSVGEllipsePropsEEENS_9allocatorIS5_EEED1Ev, symObjAddr: 0x2DE8, symBinAddr: 0xEF50, symSize: 0x14 }
  - { offset: 0x137E47, size: 0x8, addend: 0x0, symName: __ZNSt3__120__shared_ptr_emplaceIN8facebook5react23RNSVGConcreteShadowNodeIXadL_ZNS2_25RNSVGEllipseComponentNameEEENS2_17RNSVGEllipsePropsEEENS_9allocatorIS5_EEED1Ev, symObjAddr: 0x2DE8, symBinAddr: 0xEF50, symSize: 0x14 }
  - { offset: 0x137E7D, size: 0x8, addend: 0x0, symName: __ZNSt3__120__shared_ptr_emplaceIN8facebook5react23RNSVGConcreteShadowNodeIXadL_ZNS2_25RNSVGEllipseComponentNameEEENS2_17RNSVGEllipsePropsEEENS_9allocatorIS5_EEED0Ev, symObjAddr: 0x2DFC, symBinAddr: 0xEF64, symSize: 0x24 }
  - { offset: 0x137F4D, size: 0x8, addend: 0x0, symName: __ZNSt3__120__shared_ptr_emplaceIN8facebook5react23RNSVGConcreteShadowNodeIXadL_ZNS2_25RNSVGEllipseComponentNameEEENS2_17RNSVGEllipsePropsEEENS_9allocatorIS5_EEE16__on_zero_sharedEv, symObjAddr: 0x2E20, symBinAddr: 0xEF88, symSize: 0xC }
  - { offset: 0x137F76, size: 0x8, addend: 0x0, symName: __ZNSt3__120__shared_ptr_emplaceIN8facebook5react23RNSVGConcreteShadowNodeIXadL_ZNS2_25RNSVGEllipseComponentNameEEENS2_17RNSVGEllipsePropsEEENS_9allocatorIS5_EEE16__on_zero_sharedEv, symObjAddr: 0x2E20, symBinAddr: 0xEF88, symSize: 0xC }
  - { offset: 0x137F95, size: 0x8, addend: 0x0, symName: __ZNSt3__120__shared_ptr_emplaceIN8facebook5react23RNSVGConcreteShadowNodeIXadL_ZNS2_25RNSVGEllipseComponentNameEEENS2_17RNSVGEllipsePropsEEENS_9allocatorIS5_EEE16__on_zero_sharedEv, symObjAddr: 0x2E20, symBinAddr: 0xEF88, symSize: 0xC }
  - { offset: 0x137FB4, size: 0x8, addend: 0x0, symName: __ZNSt3__120__shared_ptr_emplaceIN8facebook5react23RNSVGConcreteShadowNodeIXadL_ZNS2_25RNSVGEllipseComponentNameEEENS2_17RNSVGEllipsePropsEEENS_9allocatorIS5_EEE16__on_zero_sharedEv, symObjAddr: 0x2E20, symBinAddr: 0xEF88, symSize: 0xC }
  - { offset: 0x137FE0, size: 0x8, addend: 0x0, symName: __ZNSt3__120__shared_ptr_emplaceIN8facebook5react23RNSVGConcreteShadowNodeIXadL_ZNS2_25RNSVGEllipseComponentNameEEENS2_17RNSVGEllipsePropsEEENS_9allocatorIS5_EEE21__on_zero_shared_weakEv, symObjAddr: 0x2E2C, symBinAddr: 0xEF94, symSize: 0x4 }
  - { offset: 0x138013, size: 0x8, addend: 0x0, symName: __ZNSt3__120__shared_ptr_emplaceIN8facebook5react23RNSVGConcreteShadowNodeIXadL_ZNS2_25RNSVGEllipseComponentNameEEENS2_17RNSVGEllipsePropsEEENS_9allocatorIS5_EEE21__on_zero_shared_weakEv, symObjAddr: 0x2E2C, symBinAddr: 0xEF94, symSize: 0x4 }
  - { offset: 0x138037, size: 0x8, addend: 0x0, symName: __ZNSt3__120__shared_ptr_emplaceIN8facebook5react23RNSVGConcreteShadowNodeIXadL_ZNS2_25RNSVGEllipseComponentNameEEENS2_17RNSVGEllipsePropsEEENS_9allocatorIS5_EEE21__on_zero_shared_weakEv, symObjAddr: 0x2E2C, symBinAddr: 0xEF94, symSize: 0x4 }
  - { offset: 0x13805C, size: 0x8, addend: 0x0, symName: __ZNSt3__120__shared_ptr_emplaceIN8facebook5react23RNSVGConcreteShadowNodeIXadL_ZNS2_25RNSVGEllipseComponentNameEEENS2_17RNSVGEllipsePropsEEENS_9allocatorIS5_EEE21__on_zero_shared_weakEv, symObjAddr: 0x2E2C, symBinAddr: 0xEF94, symSize: 0x4 }
  - { offset: 0x138094, size: 0x8, addend: 0x0, symName: __ZNSt3__120__shared_ptr_emplaceIN8facebook5react23RNSVGConcreteShadowNodeIXadL_ZNS2_25RNSVGEllipseComponentNameEEENS2_17RNSVGEllipsePropsEEENS_9allocatorIS5_EEE21__on_zero_shared_weakEv, symObjAddr: 0x2E2C, symBinAddr: 0xEF94, symSize: 0x4 }
  - { offset: 0x138314, size: 0x8, addend: 0x0, symName: __ZN8facebook5react23RNSVGConcreteShadowNodeIXadL_ZNS0_25RNSVGEllipseComponentNameEEENS0_17RNSVGEllipsePropsEED1Ev, symObjAddr: 0x2E30, symBinAddr: 0xEF98, symSize: 0x70 }
  - { offset: 0x1388C5, size: 0x8, addend: 0x0, symName: __ZN8facebook5react23RNSVGConcreteShadowNodeIXadL_ZNS0_25RNSVGEllipseComponentNameEEENS0_17RNSVGEllipsePropsEED0Ev, symObjAddr: 0x2EA0, symBinAddr: 0xF008, symSize: 0x74 }
  - { offset: 0x138D0B, size: 0x8, addend: 0x0, symName: __ZNK8facebook5react23RNSVGConcreteShadowNodeIXadL_ZNS0_25RNSVGEllipseComponentNameEEENS0_17RNSVGEllipsePropsEE12getTransformEv, symObjAddr: 0x2F14, symBinAddr: 0xF07C, symSize: 0x40 }
  - { offset: 0x138D7E, size: 0x8, addend: 0x0, symName: __ZNK8facebook5react23RNSVGConcreteShadowNodeIXadL_ZNS0_25RNSVGEllipseComponentNameEEENS0_17RNSVGEllipsePropsEE16canBeTouchTargetEv, symObjAddr: 0x2F54, symBinAddr: 0xF0BC, symSize: 0x18 }
  - { offset: 0x138DB6, size: 0x8, addend: 0x0, symName: __ZNK8facebook5react23RNSVGConcreteShadowNodeIXadL_ZNS0_25RNSVGEllipseComponentNameEEENS0_17RNSVGEllipsePropsEE16canBeTouchTargetEv, symObjAddr: 0x2F54, symBinAddr: 0xF0BC, symSize: 0x18 }
  - { offset: 0x138DD3, size: 0x8, addend: 0x0, symName: __ZNK8facebook5react23RNSVGConcreteShadowNodeIXadL_ZNS0_25RNSVGEllipseComponentNameEEENS0_17RNSVGEllipsePropsEE16canBeTouchTargetEv, symObjAddr: 0x2F54, symBinAddr: 0xF0BC, symSize: 0x18 }
  - { offset: 0x138DF1, size: 0x8, addend: 0x0, symName: __ZNK8facebook5react23RNSVGConcreteShadowNodeIXadL_ZNS0_25RNSVGEllipseComponentNameEEENS0_17RNSVGEllipsePropsEE24canChildrenBeTouchTargetEv, symObjAddr: 0x2F6C, symBinAddr: 0xF0D4, symSize: 0x18 }
  - { offset: 0x138E25, size: 0x8, addend: 0x0, symName: __ZNK8facebook5react23RNSVGConcreteShadowNodeIXadL_ZNS0_25RNSVGEllipseComponentNameEEENS0_17RNSVGEllipsePropsEE24canChildrenBeTouchTargetEv, symObjAddr: 0x2F6C, symBinAddr: 0xF0D4, symSize: 0x18 }
  - { offset: 0x138E42, size: 0x8, addend: 0x0, symName: __ZNK8facebook5react23RNSVGConcreteShadowNodeIXadL_ZNS0_25RNSVGEllipseComponentNameEEENS0_17RNSVGEllipsePropsEE24canChildrenBeTouchTargetEv, symObjAddr: 0x2F6C, symBinAddr: 0xF0D4, symSize: 0x18 }
  - { offset: 0x13923B, size: 0x8, addend: 0x0, symName: __ZNSt3__120__shared_ptr_emplaceIN8facebook5react23RNSVGConcreteShadowNodeIXadL_ZNS2_25RNSVGEllipseComponentNameEEENS2_17RNSVGEllipsePropsEEENS_9allocatorIS5_EEEC2B8ne200100IJRKNS2_10ShadowNodeERKNS2_18ShadowNodeFragmentEES7_Li0EEES7_DpOT_, symObjAddr: 0x32C0, symBinAddr: 0xF14C, symSize: 0x5C }
  - { offset: 0x139736, size: 0x8, addend: 0x0, symName: __ZNSt3__120__shared_ptr_emplaceIN8facebook5react17RNSVGEllipsePropsENS_9allocatorIS3_EEEC2B8ne200100IJRKNS2_18PropsParserContextERKS3_RKNS2_8RawPropsEES5_Li0EEES5_DpOT_, symObjAddr: 0x34D8, symBinAddr: 0xF30C, symSize: 0x4C }
  - { offset: 0x139924, size: 0x8, addend: 0x0, symName: __ZNSt3__120__shared_ptr_emplaceIN8facebook5react17RNSVGEllipsePropsENS_9allocatorIS3_EEED1Ev, symObjAddr: 0x3524, symBinAddr: 0xF358, symSize: 0x14 }
  - { offset: 0x139948, size: 0x8, addend: 0x0, symName: __ZNSt3__120__shared_ptr_emplaceIN8facebook5react17RNSVGEllipsePropsENS_9allocatorIS3_EEED1Ev, symObjAddr: 0x3524, symBinAddr: 0xF358, symSize: 0x14 }
  - { offset: 0x13997E, size: 0x8, addend: 0x0, symName: __ZNSt3__120__shared_ptr_emplaceIN8facebook5react17RNSVGEllipsePropsENS_9allocatorIS3_EEED0Ev, symObjAddr: 0x3538, symBinAddr: 0xF36C, symSize: 0x24 }
  - { offset: 0x139A1F, size: 0x8, addend: 0x0, symName: __ZNSt3__120__shared_ptr_emplaceIN8facebook5react17RNSVGEllipsePropsENS_9allocatorIS3_EEE16__on_zero_sharedEv, symObjAddr: 0x355C, symBinAddr: 0xF390, symSize: 0x10 }
  - { offset: 0x139A48, size: 0x8, addend: 0x0, symName: __ZNSt3__120__shared_ptr_emplaceIN8facebook5react17RNSVGEllipsePropsENS_9allocatorIS3_EEE16__on_zero_sharedEv, symObjAddr: 0x355C, symBinAddr: 0xF390, symSize: 0x10 }
  - { offset: 0x139ABC, size: 0x8, addend: 0x0, symName: __ZNSt3__120__shared_ptr_emplaceIN8facebook5react17RNSVGEllipsePropsENS_9allocatorIS3_EEE21__on_zero_shared_weakEv, symObjAddr: 0x356C, symBinAddr: 0xF3A0, symSize: 0x4 }
  - { offset: 0x139AEF, size: 0x8, addend: 0x0, symName: __ZNSt3__120__shared_ptr_emplaceIN8facebook5react17RNSVGEllipsePropsENS_9allocatorIS3_EEE21__on_zero_shared_weakEv, symObjAddr: 0x356C, symBinAddr: 0xF3A0, symSize: 0x4 }
  - { offset: 0x139B13, size: 0x8, addend: 0x0, symName: __ZNSt3__120__shared_ptr_emplaceIN8facebook5react17RNSVGEllipsePropsENS_9allocatorIS3_EEE21__on_zero_shared_weakEv, symObjAddr: 0x356C, symBinAddr: 0xF3A0, symSize: 0x4 }
  - { offset: 0x139B38, size: 0x8, addend: 0x0, symName: __ZNSt3__120__shared_ptr_emplaceIN8facebook5react17RNSVGEllipsePropsENS_9allocatorIS3_EEE21__on_zero_shared_weakEv, symObjAddr: 0x356C, symBinAddr: 0xF3A0, symSize: 0x4 }
  - { offset: 0x139B70, size: 0x8, addend: 0x0, symName: __ZNSt3__120__shared_ptr_emplaceIN8facebook5react17RNSVGEllipsePropsENS_9allocatorIS3_EEE21__on_zero_shared_weakEv, symObjAddr: 0x356C, symBinAddr: 0xF3A0, symSize: 0x4 }
  - { offset: 0x13AA17, size: 0x8, addend: 0x0, symName: __ZNSt3__120__shared_ptr_emplaceIN8facebook5react16ShadowNodeFamilyENS_9allocatorIS3_EEEC2B8ne200100IJRKNS2_24ShadowNodeFamilyFragmentERNS_10shared_ptrIKNS2_20BaseViewEventEmitterEEERKNS_8weak_ptrIKNS2_15EventDispatcherEEERKNS2_27ConcreteComponentDescriptorINS2_23RNSVGConcreteShadowNodeIXadL_ZNS2_25RNSVGEllipseComponentNameEEENS2_17RNSVGEllipsePropsEEEEEES5_Li0EEES5_DpOT_, symObjAddr: 0x3C90, symBinAddr: 0xF41C, symSize: 0x4C }
  - { offset: 0x13AE0C, size: 0x8, addend: 0x0, symName: __GLOBAL__sub_I_RNSVGEllipse.mm, symObjAddr: 0x4BC8, symBinAddr: 0xFBE4, symSize: 0x20 }
  - { offset: 0x13D26B, size: 0x8, addend: 0x0, symName: __ZN8facebook5react17HostPlatformColorL14UndefinedColorE, symObjAddr: 0xDE480, symBinAddr: 0xB0188, symSize: 0x0 }
  - { offset: 0x13DF54, size: 0x8, addend: 0x0, symName: '+[RNSVGEllipseManager moduleName]', symObjAddr: 0x0, symBinAddr: 0xFC04, symSize: 0xC }
  - { offset: 0x13DF85, size: 0x8, addend: 0x0, symName: '+[RNSVGEllipseManager load]', symObjAddr: 0xC, symBinAddr: 0xFC10, symSize: 0x4 }
  - { offset: 0x13DFB8, size: 0x8, addend: 0x0, symName: '+[RNSVGEllipseManager load]', symObjAddr: 0xC, symBinAddr: 0xFC10, symSize: 0x4 }
  - { offset: 0x13DFD7, size: 0x8, addend: 0x0, symName: '-[RNSVGEllipseManager node]', symObjAddr: 0x10, symBinAddr: 0xFC14, symSize: 0x1C }
  - { offset: 0x13E008, size: 0x8, addend: 0x0, symName: '+[RNSVGEllipseManager propConfig_cx]', symObjAddr: 0x2C, symBinAddr: 0xFC30, symSize: 0xC }
  - { offset: 0x13E039, size: 0x8, addend: 0x0, symName: '+[RNSVGEllipseManager propConfig_cy]', symObjAddr: 0x38, symBinAddr: 0xFC3C, symSize: 0xC }
  - { offset: 0x13E06A, size: 0x8, addend: 0x0, symName: '+[RNSVGEllipseManager propConfig_rx]', symObjAddr: 0x44, symBinAddr: 0xFC48, symSize: 0xC }
  - { offset: 0x13E09B, size: 0x8, addend: 0x0, symName: '+[RNSVGEllipseManager propConfig_ry]', symObjAddr: 0x50, symBinAddr: 0xFC54, symSize: 0xC }
  - { offset: 0x13E153, size: 0x8, addend: 0x0, symName: __GLOBAL__sub_I_RNSVGEllipseManager.mm, symObjAddr: 0x5C, symBinAddr: 0xFC60, symSize: 0x20 }
  - { offset: 0x140163, size: 0x8, addend: 0x0, symName: __ZN8facebook5react17HostPlatformColorL14UndefinedColorE, symObjAddr: 0x174358, symBinAddr: 0xB01A0, symSize: 0x0 }
  - { offset: 0x1435AA, size: 0x8, addend: 0x0, symName: __ZN8facebook5react38concreteComponentDescriptorConstructorINS0_27ConcreteComponentDescriptorINS0_23RNSVGConcreteShadowNodeIXadL_ZNS0_25RNSVGFeBlendComponentNameEEENS0_17RNSVGFeBlendPropsEEEEEEENSt3__110unique_ptrIKNS0_19ComponentDescriptorENS7_14default_deleteISA_EEEERKNS0_29ComponentDescriptorParametersE, symObjAddr: 0x19E4, symBinAddr: 0x1087C, symSize: 0x34 }
  - { offset: 0x15F65C, size: 0x8, addend: 0x0, symName: __ZNSt3__115allocate_sharedB8ne200100IKN8facebook5react17RNSVGFeBlendPropsENS_9allocatorIS3_EEJELi0EEENS_10shared_ptrIT_EERKT0_DpOT1_, symObjAddr: 0xA24, symBinAddr: 0x105C8, symSize: 0x48 }
  - { offset: 0x160027, size: 0x8, addend: 0x0, symName: __ZNSt3__112__destroy_atB8ne200100IN8facebook5react17RNSVGFeBlendPropsELi0EEEvPT_, symObjAddr: 0x1910, symBinAddr: 0x10800, symSize: 0x7C }
  - { offset: 0x160C43, size: 0x8, addend: 0x0, symName: __ZNSt3__111make_uniqueB8ne200100IKN8facebook5react27ConcreteComponentDescriptorINS2_23RNSVGConcreteShadowNodeIXadL_ZNS2_25RNSVGFeBlendComponentNameEEENS2_17RNSVGFeBlendPropsEEEEEJRKNS2_29ComponentDescriptorParametersEELi0EEENS_10unique_ptrIT_NS_14default_deleteISD_EEEEDpOT0_, symObjAddr: 0x1A18, symBinAddr: 0x108B0, symSize: 0xD4 }
  - { offset: 0x1615BB, size: 0x8, addend: 0x0, symName: __ZNSt3__115allocate_sharedB8ne200100IN8facebook5react23RNSVGConcreteShadowNodeIXadL_ZNS2_25RNSVGFeBlendComponentNameEEENS2_17RNSVGFeBlendPropsEEENS_9allocatorIS5_EEJRKNS2_18ShadowNodeFragmentERKNS_10shared_ptrIKNS2_16ShadowNodeFamilyEEENS2_16ShadowNodeTraitsEELi0EEENSB_IT_EERKT0_DpOT1_, symObjAddr: 0x2638, symBinAddr: 0x111C8, symSize: 0x70 }
  - { offset: 0x1618EA, size: 0x8, addend: 0x0, symName: __ZNSt3__115allocate_sharedB8ne200100IN8facebook5react23RNSVGConcreteShadowNodeIXadL_ZNS2_25RNSVGFeBlendComponentNameEEENS2_17RNSVGFeBlendPropsEEENS_9allocatorIS5_EEJRKNS2_10ShadowNodeERKNS2_18ShadowNodeFragmentEELi0EEENS_10shared_ptrIT_EERKT0_DpOT1_, symObjAddr: 0x2B80, symBinAddr: 0x11434, symSize: 0x60 }
  - { offset: 0x162035, size: 0x8, addend: 0x0, symName: __ZNSt3__115allocate_sharedB8ne200100IN8facebook5react16ShadowNodeFamilyENS_9allocatorIS3_EEJRKNS2_24ShadowNodeFamilyFragmentERNS_10shared_ptrIKNS2_20BaseViewEventEmitterEEERKNS_8weak_ptrIKNS2_15EventDispatcherEEERKNS2_27ConcreteComponentDescriptorINS2_23RNSVGConcreteShadowNodeIXadL_ZNS2_25RNSVGFeBlendComponentNameEEENS2_17RNSVGFeBlendPropsEEEEEELi0EEENS9_IT_EERKT0_DpOT1_, symObjAddr: 0x3734, symBinAddr: 0x116E4, symSize: 0x78 }
  - { offset: 0x162DC8, size: 0x8, addend: 0x0, symName: __ZNSt3__115allocate_sharedB8ne200100IN8facebook5react17RNSVGFeBlendPropsENS_9allocatorIS3_EEJRKNS2_18PropsParserContextERKS3_RKNS2_8RawPropsEELi0EEENS_10shared_ptrIT_EERKT0_DpOT1_, symObjAddr: 0x2D88, symBinAddr: 0x115E4, symSize: 0x70 }
  - { offset: 0x16413A, size: 0x8, addend: 0x0, symName: __ZNSt3__112construct_atB8ne200100IN8facebook5react16ShadowNodeFamilyEJRKNS2_24ShadowNodeFamilyFragmentERNS_10shared_ptrIKNS2_20BaseViewEventEmitterEEERKNS_8weak_ptrIKNS2_15EventDispatcherEEERKNS2_27ConcreteComponentDescriptorINS2_23RNSVGConcreteShadowNodeIXadL_ZNS2_25RNSVGFeBlendComponentNameEEENS2_17RNSVGFeBlendPropsEEEEEEPS3_EEPT_SR_DpOT0_, symObjAddr: 0x383C, symBinAddr: 0x117A8, symSize: 0xDC }
  - { offset: 0x165539, size: 0x8, addend: 0x0, symName: '-[RNSVGFeBlend initWithFrame:]', symObjAddr: 0x34, symBinAddr: 0xFCB4, symSize: 0xDC }
  - { offset: 0x165562, size: 0x8, addend: 0x0, symName: '__ZZ30-[RNSVGFeBlend initWithFrame:]E12defaultProps', symObjAddr: 0x174370, symBinAddr: 0xB01B8, symSize: 0x0 }
  - { offset: 0x168F66, size: 0x8, addend: 0x0, symName: __ZN8facebook5react18ConcreteShadowNodeIXadL_ZNS0_25RNSVGFeBlendComponentNameEEENS0_25RNSVGLayoutableShadowNodeENS0_17RNSVGFeBlendPropsENS0_20BaseViewEventEmitterENS0_9StateDataEE18defaultSharedPropsEv, symObjAddr: 0x2C94, symBinAddr: 0x114F0, symSize: 0x9C }
  - { offset: 0x168F85, size: 0x8, addend: 0x0, symName: __ZZN8facebook5react18ConcreteShadowNodeIXadL_ZNS0_25RNSVGFeBlendComponentNameEEENS0_25RNSVGLayoutableShadowNodeENS0_17RNSVGFeBlendPropsENS0_20BaseViewEventEmitterENS0_9StateDataEE18defaultSharedPropsEvE18defaultSharedProps, symObjAddr: 0x5640, symBinAddr: 0xAF960, symSize: 0x0 }
  - { offset: 0x169284, size: 0x8, addend: 0x0, symName: '+[RNSVGFeBlend load]', symObjAddr: 0x0, symBinAddr: 0xFC80, symSize: 0x34 }
  - { offset: 0x1693C3, size: 0x8, addend: 0x0, symName: __ZNSt3__110shared_ptrIKN8facebook5react17RNSVGFeBlendPropsEED1B8ne200100Ev, symObjAddr: 0x110, symBinAddr: 0xFD90, symSize: 0x4 }
  - { offset: 0x1693E7, size: 0x8, addend: 0x0, symName: __ZNSt3__110shared_ptrIKN8facebook5react17RNSVGFeBlendPropsEED1B8ne200100Ev, symObjAddr: 0x110, symBinAddr: 0xFD90, symSize: 0x4 }
  - { offset: 0x1695EF, size: 0x8, addend: 0x0, symName: '+[RNSVGFeBlend componentDescriptorProvider]', symObjAddr: 0x18C, symBinAddr: 0xFD94, symSize: 0x20 }
  - { offset: 0x169623, size: 0x8, addend: 0x0, symName: '+[RNSVGFeBlend componentDescriptorProvider]', symObjAddr: 0x18C, symBinAddr: 0xFD94, symSize: 0x20 }
  - { offset: 0x169846, size: 0x8, addend: 0x0, symName: '-[RNSVGFeBlend updateProps:oldProps:]', symObjAddr: 0x1AC, symBinAddr: 0xFDB4, symSize: 0x1CC }
  - { offset: 0x169C8D, size: 0x8, addend: 0x0, symName: __Z20setCommonFilterPropsIN8facebook5react17RNSVGFeBlendPropsEEvRKT_P20RNSVGFilterPrimitive, symObjAddr: 0x378, symBinAddr: 0xFF80, symSize: 0x224 }
  - { offset: 0x169F47, size: 0x8, addend: 0x0, symName: __ZL28RNSVGConvertFollyDynamicToIdRKN5folly7dynamicE, symObjAddr: 0x3A20, symBinAddr: 0x11884, symSize: 0x274 }
  - { offset: 0x16A483, size: 0x8, addend: 0x0, symName: '-[RNSVGFeBlend prepareForRecycle]', symObjAddr: 0x600, symBinAddr: 0x101A4, symSize: 0x78 }
  - { offset: 0x16A4B4, size: 0x8, addend: 0x0, symName: '-[RNSVGFeBlend setIn1:]', symObjAddr: 0x678, symBinAddr: 0x1021C, symSize: 0x78 }
  - { offset: 0x16A4F4, size: 0x8, addend: 0x0, symName: '-[RNSVGFeBlend setIn2:]', symObjAddr: 0x6F0, symBinAddr: 0x10294, symSize: 0x78 }
  - { offset: 0x16A534, size: 0x8, addend: 0x0, symName: '-[RNSVGFeBlend setMode:]', symObjAddr: 0x768, symBinAddr: 0x1030C, symSize: 0x20 }
  - { offset: 0x16A571, size: 0x8, addend: 0x0, symName: '-[RNSVGFeBlend applyFilter:previousFilterResult:]', symObjAddr: 0x788, symBinAddr: 0x1032C, symSize: 0x220 }
  - { offset: 0x16A60F, size: 0x8, addend: 0x0, symName: __Z15RNSVGFeBlendClsv, symObjAddr: 0x9A8, symBinAddr: 0x1054C, symSize: 0xC }
  - { offset: 0x16A62D, size: 0x8, addend: 0x0, symName: '-[RNSVGFeBlend in1]', symObjAddr: 0x9B4, symBinAddr: 0x10558, symSize: 0x10 }
  - { offset: 0x16A663, size: 0x8, addend: 0x0, symName: '-[RNSVGFeBlend in2]', symObjAddr: 0x9C4, symBinAddr: 0x10568, symSize: 0x10 }
  - { offset: 0x16A699, size: 0x8, addend: 0x0, symName: '-[RNSVGFeBlend mode]', symObjAddr: 0x9D4, symBinAddr: 0x10578, symSize: 0x10 }
  - { offset: 0x16A6CF, size: 0x8, addend: 0x0, symName: '-[RNSVGFeBlend .cxx_destruct]', symObjAddr: 0x9E4, symBinAddr: 0x10588, symSize: 0x40 }
  - { offset: 0x16A92B, size: 0x8, addend: 0x0, symName: __ZNSt3__120__shared_ptr_emplaceIKN8facebook5react17RNSVGFeBlendPropsENS_9allocatorIS3_EEEC2B8ne200100IJES6_Li0EEES6_DpOT_, symObjAddr: 0xA6C, symBinAddr: 0x10610, symSize: 0xB0 }
  - { offset: 0x16C342, size: 0x8, addend: 0x0, symName: __ZNSt3__120__shared_ptr_emplaceIKN8facebook5react17RNSVGFeBlendPropsENS_9allocatorIS3_EEED1Ev, symObjAddr: 0xB1C, symBinAddr: 0x106C0, symSize: 0x14 }
  - { offset: 0x16C366, size: 0x8, addend: 0x0, symName: __ZNSt3__120__shared_ptr_emplaceIKN8facebook5react17RNSVGFeBlendPropsENS_9allocatorIS3_EEED1Ev, symObjAddr: 0xB1C, symBinAddr: 0x106C0, symSize: 0x14 }
  - { offset: 0x16C39C, size: 0x8, addend: 0x0, symName: __ZNSt3__120__shared_ptr_emplaceIKN8facebook5react17RNSVGFeBlendPropsENS_9allocatorIS3_EEED0Ev, symObjAddr: 0xB30, symBinAddr: 0x106D4, symSize: 0x24 }
  - { offset: 0x16C46C, size: 0x8, addend: 0x0, symName: __ZNSt3__120__shared_ptr_emplaceIKN8facebook5react17RNSVGFeBlendPropsENS_9allocatorIS3_EEE16__on_zero_sharedEv, symObjAddr: 0xB54, symBinAddr: 0x106F8, symSize: 0x8 }
  - { offset: 0x16C495, size: 0x8, addend: 0x0, symName: __ZNSt3__120__shared_ptr_emplaceIKN8facebook5react17RNSVGFeBlendPropsENS_9allocatorIS3_EEE16__on_zero_sharedEv, symObjAddr: 0xB54, symBinAddr: 0x106F8, symSize: 0x8 }
  - { offset: 0x16C4B4, size: 0x8, addend: 0x0, symName: __ZNSt3__120__shared_ptr_emplaceIKN8facebook5react17RNSVGFeBlendPropsENS_9allocatorIS3_EEE16__on_zero_sharedEv, symObjAddr: 0xB54, symBinAddr: 0x106F8, symSize: 0x8 }
  - { offset: 0x16C4F2, size: 0x8, addend: 0x0, symName: __ZNSt3__120__shared_ptr_emplaceIKN8facebook5react17RNSVGFeBlendPropsENS_9allocatorIS3_EEE21__on_zero_shared_weakEv, symObjAddr: 0xB5C, symBinAddr: 0x10700, symSize: 0x4 }
  - { offset: 0x16C525, size: 0x8, addend: 0x0, symName: __ZNSt3__120__shared_ptr_emplaceIKN8facebook5react17RNSVGFeBlendPropsENS_9allocatorIS3_EEE21__on_zero_shared_weakEv, symObjAddr: 0xB5C, symBinAddr: 0x10700, symSize: 0x4 }
  - { offset: 0x16C549, size: 0x8, addend: 0x0, symName: __ZNSt3__120__shared_ptr_emplaceIKN8facebook5react17RNSVGFeBlendPropsENS_9allocatorIS3_EEE21__on_zero_shared_weakEv, symObjAddr: 0xB5C, symBinAddr: 0x10700, symSize: 0x4 }
  - { offset: 0x16C56E, size: 0x8, addend: 0x0, symName: __ZNSt3__120__shared_ptr_emplaceIKN8facebook5react17RNSVGFeBlendPropsENS_9allocatorIS3_EEE21__on_zero_shared_weakEv, symObjAddr: 0xB5C, symBinAddr: 0x10700, symSize: 0x4 }
  - { offset: 0x16C5A6, size: 0x8, addend: 0x0, symName: __ZNSt3__120__shared_ptr_emplaceIKN8facebook5react17RNSVGFeBlendPropsENS_9allocatorIS3_EEE21__on_zero_shared_weakEv, symObjAddr: 0xB5C, symBinAddr: 0x10700, symSize: 0x4 }
  - { offset: 0x16F42C, size: 0x8, addend: 0x0, symName: __ZN8facebook5react17RNSVGFeBlendPropsD1Ev, symObjAddr: 0x107C, symBinAddr: 0x10704, symSize: 0x7C }
  - { offset: 0x16F8AE, size: 0x8, addend: 0x0, symName: __ZN8facebook5react17RNSVGFeBlendPropsD0Ev, symObjAddr: 0x10F8, symBinAddr: 0x10780, symSize: 0x80 }
  - { offset: 0x171786, size: 0x8, addend: 0x0, symName: __ZN8facebook5react14RawPropsParser7prepareINS0_17RNSVGFeBlendPropsEEEvv, symObjAddr: 0x1B3C, symBinAddr: 0x10984, symSize: 0x2CC }
  - { offset: 0x1731BD, size: 0x8, addend: 0x0, symName: __ZN8facebook5react27ConcreteComponentDescriptorINS0_23RNSVGConcreteShadowNodeIXadL_ZNS0_25RNSVGFeBlendComponentNameEEENS0_17RNSVGFeBlendPropsEEEED1Ev, symObjAddr: 0x1E08, symBinAddr: 0x10C50, symSize: 0x4 }
  - { offset: 0x1731E1, size: 0x8, addend: 0x0, symName: __ZN8facebook5react27ConcreteComponentDescriptorINS0_23RNSVGConcreteShadowNodeIXadL_ZNS0_25RNSVGFeBlendComponentNameEEENS0_17RNSVGFeBlendPropsEEEED1Ev, symObjAddr: 0x1E08, symBinAddr: 0x10C50, symSize: 0x4 }
  - { offset: 0x1731FF, size: 0x8, addend: 0x0, symName: __ZN8facebook5react27ConcreteComponentDescriptorINS0_23RNSVGConcreteShadowNodeIXadL_ZNS0_25RNSVGFeBlendComponentNameEEENS0_17RNSVGFeBlendPropsEEEED1Ev, symObjAddr: 0x1E08, symBinAddr: 0x10C50, symSize: 0x4 }
  - { offset: 0x1734D6, size: 0x8, addend: 0x0, symName: __ZN8facebook5react27ConcreteComponentDescriptorINS0_23RNSVGConcreteShadowNodeIXadL_ZNS0_25RNSVGFeBlendComponentNameEEENS0_17RNSVGFeBlendPropsEEEED0Ev, symObjAddr: 0x1E0C, symBinAddr: 0x10C54, symSize: 0x14 }
  - { offset: 0x173552, size: 0x8, addend: 0x0, symName: __ZNK8facebook5react27ConcreteComponentDescriptorINS0_23RNSVGConcreteShadowNodeIXadL_ZNS0_25RNSVGFeBlendComponentNameEEENS0_17RNSVGFeBlendPropsEEEE18getComponentHandleEv, symObjAddr: 0x1E20, symBinAddr: 0x10C68, symSize: 0xC }
  - { offset: 0x173578, size: 0x8, addend: 0x0, symName: __ZNK8facebook5react27ConcreteComponentDescriptorINS0_23RNSVGConcreteShadowNodeIXadL_ZNS0_25RNSVGFeBlendComponentNameEEENS0_17RNSVGFeBlendPropsEEEE16getComponentNameEv, symObjAddr: 0x1E2C, symBinAddr: 0x10C74, symSize: 0xC }
  - { offset: 0x17359E, size: 0x8, addend: 0x0, symName: __ZNK8facebook5react27ConcreteComponentDescriptorINS0_23RNSVGConcreteShadowNodeIXadL_ZNS0_25RNSVGFeBlendComponentNameEEENS0_17RNSVGFeBlendPropsEEEE9getTraitsEv, symObjAddr: 0x1E38, symBinAddr: 0x10C80, symSize: 0x8 }
  - { offset: 0x173698, size: 0x8, addend: 0x0, symName: __ZNK8facebook5react27ConcreteComponentDescriptorINS0_23RNSVGConcreteShadowNodeIXadL_ZNS0_25RNSVGFeBlendComponentNameEEENS0_17RNSVGFeBlendPropsEEEE16createShadowNodeERKNS0_18ShadowNodeFragmentERKNSt3__110shared_ptrIKNS0_16ShadowNodeFamilyEEE, symObjAddr: 0x1E40, symBinAddr: 0x10C88, symSize: 0x90 }
  - { offset: 0x173924, size: 0x8, addend: 0x0, symName: __ZNK8facebook5react27ConcreteComponentDescriptorINS0_23RNSVGConcreteShadowNodeIXadL_ZNS0_25RNSVGFeBlendComponentNameEEENS0_17RNSVGFeBlendPropsEEEE15cloneShadowNodeERKNS0_10ShadowNodeERKNS0_18ShadowNodeFragmentE, symObjAddr: 0x1ED0, symBinAddr: 0x10D18, symSize: 0x104 }
  - { offset: 0x173CB1, size: 0x8, addend: 0x0, symName: __ZNK8facebook5react27ConcreteComponentDescriptorINS0_23RNSVGConcreteShadowNodeIXadL_ZNS0_25RNSVGFeBlendComponentNameEEENS0_17RNSVGFeBlendPropsEEEE11appendChildERKNSt3__110shared_ptrIKNS0_10ShadowNodeEEESC_, symObjAddr: 0x1FD4, symBinAddr: 0x10E1C, symSize: 0x14 }
  - { offset: 0x173D07, size: 0x8, addend: 0x0, symName: __ZNK8facebook5react27ConcreteComponentDescriptorINS0_23RNSVGConcreteShadowNodeIXadL_ZNS0_25RNSVGFeBlendComponentNameEEENS0_17RNSVGFeBlendPropsEEEE11appendChildERKNSt3__110shared_ptrIKNS0_10ShadowNodeEEESC_, symObjAddr: 0x1FD4, symBinAddr: 0x10E1C, symSize: 0x14 }
  - { offset: 0x174569, size: 0x8, addend: 0x0, symName: __ZNK8facebook5react27ConcreteComponentDescriptorINS0_23RNSVGConcreteShadowNodeIXadL_ZNS0_25RNSVGFeBlendComponentNameEEENS0_17RNSVGFeBlendPropsEEEE10clonePropsERKNS0_18PropsParserContextERKNSt3__110shared_ptrIKNS0_5PropsEEENS0_8RawPropsE, symObjAddr: 0x1FE8, symBinAddr: 0x10E30, symSize: 0x21C }
  - { offset: 0x175103, size: 0x8, addend: 0x0, symName: __ZN8facebook5react18ConcreteShadowNodeIXadL_ZNS0_25RNSVGFeBlendComponentNameEEENS0_25RNSVGLayoutableShadowNodeENS0_17RNSVGFeBlendPropsENS0_20BaseViewEventEmitterENS0_9StateDataEE5PropsERKNS0_18PropsParserContextERKNS0_8RawPropsERKNSt3__110shared_ptrIKNS0_5PropsEEE, symObjAddr: 0x2D30, symBinAddr: 0x1158C, symSize: 0x58 }
  - { offset: 0x17536D, size: 0x8, addend: 0x0, symName: __ZNK8facebook5react27ConcreteComponentDescriptorINS0_23RNSVGConcreteShadowNodeIXadL_ZNS0_25RNSVGFeBlendComponentNameEEENS0_17RNSVGFeBlendPropsEEEE18createInitialStateERKNSt3__110shared_ptrIKNS0_5PropsEEERKNS7_IKNS0_16ShadowNodeFamilyEEE, symObjAddr: 0x2204, symBinAddr: 0x1104C, symSize: 0x8 }
  - { offset: 0x1753B1, size: 0x8, addend: 0x0, symName: __ZNK8facebook5react27ConcreteComponentDescriptorINS0_23RNSVGConcreteShadowNodeIXadL_ZNS0_25RNSVGFeBlendComponentNameEEENS0_17RNSVGFeBlendPropsEEEE18createInitialStateERKNSt3__110shared_ptrIKNS0_5PropsEEERKNS7_IKNS0_16ShadowNodeFamilyEEE, symObjAddr: 0x2204, symBinAddr: 0x1104C, symSize: 0x8 }
  - { offset: 0x1753D5, size: 0x8, addend: 0x0, symName: __ZNK8facebook5react27ConcreteComponentDescriptorINS0_23RNSVGConcreteShadowNodeIXadL_ZNS0_25RNSVGFeBlendComponentNameEEENS0_17RNSVGFeBlendPropsEEEE18createInitialStateERKNSt3__110shared_ptrIKNS0_5PropsEEERKNS7_IKNS0_16ShadowNodeFamilyEEE, symObjAddr: 0x2204, symBinAddr: 0x1104C, symSize: 0x8 }
  - { offset: 0x1753F9, size: 0x8, addend: 0x0, symName: __ZNK8facebook5react27ConcreteComponentDescriptorINS0_23RNSVGConcreteShadowNodeIXadL_ZNS0_25RNSVGFeBlendComponentNameEEENS0_17RNSVGFeBlendPropsEEEE11createStateERKNS0_16ShadowNodeFamilyERKNSt3__110shared_ptrIKvEE, symObjAddr: 0x220C, symBinAddr: 0x11054, symSize: 0x8 }
  - { offset: 0x17543D, size: 0x8, addend: 0x0, symName: __ZNK8facebook5react27ConcreteComponentDescriptorINS0_23RNSVGConcreteShadowNodeIXadL_ZNS0_25RNSVGFeBlendComponentNameEEENS0_17RNSVGFeBlendPropsEEEE11createStateERKNS0_16ShadowNodeFamilyERKNSt3__110shared_ptrIKvEE, symObjAddr: 0x220C, symBinAddr: 0x11054, symSize: 0x8 }
  - { offset: 0x175461, size: 0x8, addend: 0x0, symName: __ZNK8facebook5react27ConcreteComponentDescriptorINS0_23RNSVGConcreteShadowNodeIXadL_ZNS0_25RNSVGFeBlendComponentNameEEENS0_17RNSVGFeBlendPropsEEEE11createStateERKNS0_16ShadowNodeFamilyERKNSt3__110shared_ptrIKvEE, symObjAddr: 0x220C, symBinAddr: 0x11054, symSize: 0x8 }
  - { offset: 0x17566D, size: 0x8, addend: 0x0, symName: __ZNK8facebook5react27ConcreteComponentDescriptorINS0_23RNSVGConcreteShadowNodeIXadL_ZNS0_25RNSVGFeBlendComponentNameEEENS0_17RNSVGFeBlendPropsEEEE12createFamilyERKNS0_24ShadowNodeFamilyFragmentE, symObjAddr: 0x2214, symBinAddr: 0x1105C, symSize: 0x168 }
  - { offset: 0x175BFC, size: 0x8, addend: 0x0, symName: __ZNK8facebook5react27ConcreteComponentDescriptorINS0_23RNSVGConcreteShadowNodeIXadL_ZNS0_25RNSVGFeBlendComponentNameEEENS0_17RNSVGFeBlendPropsEEEE5adoptERNS0_10ShadowNodeE, symObjAddr: 0x237C, symBinAddr: 0x111C4, symSize: 0x4 }
  - { offset: 0x176455, size: 0x8, addend: 0x0, symName: __ZNSt3__120__shared_ptr_emplaceIN8facebook5react23RNSVGConcreteShadowNodeIXadL_ZNS2_25RNSVGFeBlendComponentNameEEENS2_17RNSVGFeBlendPropsEEENS_9allocatorIS5_EEEC2B8ne200100IJRKNS2_18ShadowNodeFragmentERKNS_10shared_ptrIKNS2_16ShadowNodeFamilyEEENS2_16ShadowNodeTraitsEES7_Li0EEES7_DpOT_, symObjAddr: 0x26A8, symBinAddr: 0x11238, symSize: 0x60 }
  - { offset: 0x176779, size: 0x8, addend: 0x0, symName: __ZNSt3__120__shared_ptr_emplaceIN8facebook5react23RNSVGConcreteShadowNodeIXadL_ZNS2_25RNSVGFeBlendComponentNameEEENS2_17RNSVGFeBlendPropsEEENS_9allocatorIS5_EEED1Ev, symObjAddr: 0x2708, symBinAddr: 0x11298, symSize: 0x14 }
  - { offset: 0x17679D, size: 0x8, addend: 0x0, symName: __ZNSt3__120__shared_ptr_emplaceIN8facebook5react23RNSVGConcreteShadowNodeIXadL_ZNS2_25RNSVGFeBlendComponentNameEEENS2_17RNSVGFeBlendPropsEEENS_9allocatorIS5_EEED1Ev, symObjAddr: 0x2708, symBinAddr: 0x11298, symSize: 0x14 }
  - { offset: 0x1767D3, size: 0x8, addend: 0x0, symName: __ZNSt3__120__shared_ptr_emplaceIN8facebook5react23RNSVGConcreteShadowNodeIXadL_ZNS2_25RNSVGFeBlendComponentNameEEENS2_17RNSVGFeBlendPropsEEENS_9allocatorIS5_EEED0Ev, symObjAddr: 0x271C, symBinAddr: 0x112AC, symSize: 0x24 }
  - { offset: 0x1768A3, size: 0x8, addend: 0x0, symName: __ZNSt3__120__shared_ptr_emplaceIN8facebook5react23RNSVGConcreteShadowNodeIXadL_ZNS2_25RNSVGFeBlendComponentNameEEENS2_17RNSVGFeBlendPropsEEENS_9allocatorIS5_EEE16__on_zero_sharedEv, symObjAddr: 0x2740, symBinAddr: 0x112D0, symSize: 0xC }
  - { offset: 0x1768CC, size: 0x8, addend: 0x0, symName: __ZNSt3__120__shared_ptr_emplaceIN8facebook5react23RNSVGConcreteShadowNodeIXadL_ZNS2_25RNSVGFeBlendComponentNameEEENS2_17RNSVGFeBlendPropsEEENS_9allocatorIS5_EEE16__on_zero_sharedEv, symObjAddr: 0x2740, symBinAddr: 0x112D0, symSize: 0xC }
  - { offset: 0x1768EB, size: 0x8, addend: 0x0, symName: __ZNSt3__120__shared_ptr_emplaceIN8facebook5react23RNSVGConcreteShadowNodeIXadL_ZNS2_25RNSVGFeBlendComponentNameEEENS2_17RNSVGFeBlendPropsEEENS_9allocatorIS5_EEE16__on_zero_sharedEv, symObjAddr: 0x2740, symBinAddr: 0x112D0, symSize: 0xC }
  - { offset: 0x17690A, size: 0x8, addend: 0x0, symName: __ZNSt3__120__shared_ptr_emplaceIN8facebook5react23RNSVGConcreteShadowNodeIXadL_ZNS2_25RNSVGFeBlendComponentNameEEENS2_17RNSVGFeBlendPropsEEENS_9allocatorIS5_EEE16__on_zero_sharedEv, symObjAddr: 0x2740, symBinAddr: 0x112D0, symSize: 0xC }
  - { offset: 0x176936, size: 0x8, addend: 0x0, symName: __ZNSt3__120__shared_ptr_emplaceIN8facebook5react23RNSVGConcreteShadowNodeIXadL_ZNS2_25RNSVGFeBlendComponentNameEEENS2_17RNSVGFeBlendPropsEEENS_9allocatorIS5_EEE21__on_zero_shared_weakEv, symObjAddr: 0x274C, symBinAddr: 0x112DC, symSize: 0x4 }
  - { offset: 0x176969, size: 0x8, addend: 0x0, symName: __ZNSt3__120__shared_ptr_emplaceIN8facebook5react23RNSVGConcreteShadowNodeIXadL_ZNS2_25RNSVGFeBlendComponentNameEEENS2_17RNSVGFeBlendPropsEEENS_9allocatorIS5_EEE21__on_zero_shared_weakEv, symObjAddr: 0x274C, symBinAddr: 0x112DC, symSize: 0x4 }
  - { offset: 0x17698D, size: 0x8, addend: 0x0, symName: __ZNSt3__120__shared_ptr_emplaceIN8facebook5react23RNSVGConcreteShadowNodeIXadL_ZNS2_25RNSVGFeBlendComponentNameEEENS2_17RNSVGFeBlendPropsEEENS_9allocatorIS5_EEE21__on_zero_shared_weakEv, symObjAddr: 0x274C, symBinAddr: 0x112DC, symSize: 0x4 }
  - { offset: 0x1769B2, size: 0x8, addend: 0x0, symName: __ZNSt3__120__shared_ptr_emplaceIN8facebook5react23RNSVGConcreteShadowNodeIXadL_ZNS2_25RNSVGFeBlendComponentNameEEENS2_17RNSVGFeBlendPropsEEENS_9allocatorIS5_EEE21__on_zero_shared_weakEv, symObjAddr: 0x274C, symBinAddr: 0x112DC, symSize: 0x4 }
  - { offset: 0x1769EA, size: 0x8, addend: 0x0, symName: __ZNSt3__120__shared_ptr_emplaceIN8facebook5react23RNSVGConcreteShadowNodeIXadL_ZNS2_25RNSVGFeBlendComponentNameEEENS2_17RNSVGFeBlendPropsEEENS_9allocatorIS5_EEE21__on_zero_shared_weakEv, symObjAddr: 0x274C, symBinAddr: 0x112DC, symSize: 0x4 }
  - { offset: 0x176C6A, size: 0x8, addend: 0x0, symName: __ZN8facebook5react23RNSVGConcreteShadowNodeIXadL_ZNS0_25RNSVGFeBlendComponentNameEEENS0_17RNSVGFeBlendPropsEED1Ev, symObjAddr: 0x2750, symBinAddr: 0x112E0, symSize: 0x70 }
  - { offset: 0x17721B, size: 0x8, addend: 0x0, symName: __ZN8facebook5react23RNSVGConcreteShadowNodeIXadL_ZNS0_25RNSVGFeBlendComponentNameEEENS0_17RNSVGFeBlendPropsEED0Ev, symObjAddr: 0x27C0, symBinAddr: 0x11350, symSize: 0x74 }
  - { offset: 0x177661, size: 0x8, addend: 0x0, symName: __ZNK8facebook5react23RNSVGConcreteShadowNodeIXadL_ZNS0_25RNSVGFeBlendComponentNameEEENS0_17RNSVGFeBlendPropsEE12getTransformEv, symObjAddr: 0x2834, symBinAddr: 0x113C4, symSize: 0x40 }
  - { offset: 0x1776D4, size: 0x8, addend: 0x0, symName: __ZNK8facebook5react23RNSVGConcreteShadowNodeIXadL_ZNS0_25RNSVGFeBlendComponentNameEEENS0_17RNSVGFeBlendPropsEE16canBeTouchTargetEv, symObjAddr: 0x2874, symBinAddr: 0x11404, symSize: 0x18 }
  - { offset: 0x17770C, size: 0x8, addend: 0x0, symName: __ZNK8facebook5react23RNSVGConcreteShadowNodeIXadL_ZNS0_25RNSVGFeBlendComponentNameEEENS0_17RNSVGFeBlendPropsEE16canBeTouchTargetEv, symObjAddr: 0x2874, symBinAddr: 0x11404, symSize: 0x18 }
  - { offset: 0x177729, size: 0x8, addend: 0x0, symName: __ZNK8facebook5react23RNSVGConcreteShadowNodeIXadL_ZNS0_25RNSVGFeBlendComponentNameEEENS0_17RNSVGFeBlendPropsEE16canBeTouchTargetEv, symObjAddr: 0x2874, symBinAddr: 0x11404, symSize: 0x18 }
  - { offset: 0x177747, size: 0x8, addend: 0x0, symName: __ZNK8facebook5react23RNSVGConcreteShadowNodeIXadL_ZNS0_25RNSVGFeBlendComponentNameEEENS0_17RNSVGFeBlendPropsEE24canChildrenBeTouchTargetEv, symObjAddr: 0x288C, symBinAddr: 0x1141C, symSize: 0x18 }
  - { offset: 0x17777B, size: 0x8, addend: 0x0, symName: __ZNK8facebook5react23RNSVGConcreteShadowNodeIXadL_ZNS0_25RNSVGFeBlendComponentNameEEENS0_17RNSVGFeBlendPropsEE24canChildrenBeTouchTargetEv, symObjAddr: 0x288C, symBinAddr: 0x1141C, symSize: 0x18 }
  - { offset: 0x177798, size: 0x8, addend: 0x0, symName: __ZNK8facebook5react23RNSVGConcreteShadowNodeIXadL_ZNS0_25RNSVGFeBlendComponentNameEEENS0_17RNSVGFeBlendPropsEE24canChildrenBeTouchTargetEv, symObjAddr: 0x288C, symBinAddr: 0x1141C, symSize: 0x18 }
  - { offset: 0x177B91, size: 0x8, addend: 0x0, symName: __ZNSt3__120__shared_ptr_emplaceIN8facebook5react23RNSVGConcreteShadowNodeIXadL_ZNS2_25RNSVGFeBlendComponentNameEEENS2_17RNSVGFeBlendPropsEEENS_9allocatorIS5_EEEC2B8ne200100IJRKNS2_10ShadowNodeERKNS2_18ShadowNodeFragmentEES7_Li0EEES7_DpOT_, symObjAddr: 0x2BE0, symBinAddr: 0x11494, symSize: 0x5C }
  - { offset: 0x17808C, size: 0x8, addend: 0x0, symName: __ZNSt3__120__shared_ptr_emplaceIN8facebook5react17RNSVGFeBlendPropsENS_9allocatorIS3_EEEC2B8ne200100IJRKNS2_18PropsParserContextERKS3_RKNS2_8RawPropsEES5_Li0EEES5_DpOT_, symObjAddr: 0x2DF8, symBinAddr: 0x11654, symSize: 0x4C }
  - { offset: 0x17827A, size: 0x8, addend: 0x0, symName: __ZNSt3__120__shared_ptr_emplaceIN8facebook5react17RNSVGFeBlendPropsENS_9allocatorIS3_EEED1Ev, symObjAddr: 0x2E44, symBinAddr: 0x116A0, symSize: 0x14 }
  - { offset: 0x17829E, size: 0x8, addend: 0x0, symName: __ZNSt3__120__shared_ptr_emplaceIN8facebook5react17RNSVGFeBlendPropsENS_9allocatorIS3_EEED1Ev, symObjAddr: 0x2E44, symBinAddr: 0x116A0, symSize: 0x14 }
  - { offset: 0x1782D4, size: 0x8, addend: 0x0, symName: __ZNSt3__120__shared_ptr_emplaceIN8facebook5react17RNSVGFeBlendPropsENS_9allocatorIS3_EEED0Ev, symObjAddr: 0x2E58, symBinAddr: 0x116B4, symSize: 0x24 }
  - { offset: 0x178375, size: 0x8, addend: 0x0, symName: __ZNSt3__120__shared_ptr_emplaceIN8facebook5react17RNSVGFeBlendPropsENS_9allocatorIS3_EEE16__on_zero_sharedEv, symObjAddr: 0x2E7C, symBinAddr: 0x116D8, symSize: 0x8 }
  - { offset: 0x17839E, size: 0x8, addend: 0x0, symName: __ZNSt3__120__shared_ptr_emplaceIN8facebook5react17RNSVGFeBlendPropsENS_9allocatorIS3_EEE16__on_zero_sharedEv, symObjAddr: 0x2E7C, symBinAddr: 0x116D8, symSize: 0x8 }
  - { offset: 0x1783BD, size: 0x8, addend: 0x0, symName: __ZNSt3__120__shared_ptr_emplaceIN8facebook5react17RNSVGFeBlendPropsENS_9allocatorIS3_EEE16__on_zero_sharedEv, symObjAddr: 0x2E7C, symBinAddr: 0x116D8, symSize: 0x8 }
  - { offset: 0x1783FB, size: 0x8, addend: 0x0, symName: __ZNSt3__120__shared_ptr_emplaceIN8facebook5react17RNSVGFeBlendPropsENS_9allocatorIS3_EEE21__on_zero_shared_weakEv, symObjAddr: 0x2E84, symBinAddr: 0x116E0, symSize: 0x4 }
  - { offset: 0x17842E, size: 0x8, addend: 0x0, symName: __ZNSt3__120__shared_ptr_emplaceIN8facebook5react17RNSVGFeBlendPropsENS_9allocatorIS3_EEE21__on_zero_shared_weakEv, symObjAddr: 0x2E84, symBinAddr: 0x116E0, symSize: 0x4 }
  - { offset: 0x178452, size: 0x8, addend: 0x0, symName: __ZNSt3__120__shared_ptr_emplaceIN8facebook5react17RNSVGFeBlendPropsENS_9allocatorIS3_EEE21__on_zero_shared_weakEv, symObjAddr: 0x2E84, symBinAddr: 0x116E0, symSize: 0x4 }
  - { offset: 0x178477, size: 0x8, addend: 0x0, symName: __ZNSt3__120__shared_ptr_emplaceIN8facebook5react17RNSVGFeBlendPropsENS_9allocatorIS3_EEE21__on_zero_shared_weakEv, symObjAddr: 0x2E84, symBinAddr: 0x116E0, symSize: 0x4 }
  - { offset: 0x1784AF, size: 0x8, addend: 0x0, symName: __ZNSt3__120__shared_ptr_emplaceIN8facebook5react17RNSVGFeBlendPropsENS_9allocatorIS3_EEE21__on_zero_shared_weakEv, symObjAddr: 0x2E84, symBinAddr: 0x116E0, symSize: 0x4 }
  - { offset: 0x179794, size: 0x8, addend: 0x0, symName: __ZNSt3__120__shared_ptr_emplaceIN8facebook5react16ShadowNodeFamilyENS_9allocatorIS3_EEEC2B8ne200100IJRKNS2_24ShadowNodeFamilyFragmentERNS_10shared_ptrIKNS2_20BaseViewEventEmitterEEERKNS_8weak_ptrIKNS2_15EventDispatcherEEERKNS2_27ConcreteComponentDescriptorINS2_23RNSVGConcreteShadowNodeIXadL_ZNS2_25RNSVGFeBlendComponentNameEEENS2_17RNSVGFeBlendPropsEEEEEES5_Li0EEES5_DpOT_, symObjAddr: 0x37AC, symBinAddr: 0x1175C, symSize: 0x4C }
  - { offset: 0x179CFC, size: 0x8, addend: 0x0, symName: __GLOBAL__sub_I_RNSVGFeBlend.mm, symObjAddr: 0x4088, symBinAddr: 0x11AF8, symSize: 0x20 }
  - { offset: 0x17C15B, size: 0x8, addend: 0x0, symName: __ZN8facebook5react17HostPlatformColorL14UndefinedColorE, symObjAddr: 0xDE240, symBinAddr: 0xB01D0, symSize: 0x0 }
  - { offset: 0x17CE54, size: 0x8, addend: 0x0, symName: '+[RNSVGFeBlendManager moduleName]', symObjAddr: 0x0, symBinAddr: 0x11B18, symSize: 0xC }
  - { offset: 0x17CE85, size: 0x8, addend: 0x0, symName: '+[RNSVGFeBlendManager load]', symObjAddr: 0xC, symBinAddr: 0x11B24, symSize: 0x4 }
  - { offset: 0x17CEB8, size: 0x8, addend: 0x0, symName: '+[RNSVGFeBlendManager load]', symObjAddr: 0xC, symBinAddr: 0x11B24, symSize: 0x4 }
  - { offset: 0x17CED7, size: 0x8, addend: 0x0, symName: '-[RNSVGFeBlendManager node]', symObjAddr: 0x10, symBinAddr: 0x11B28, symSize: 0x1C }
  - { offset: 0x17CF08, size: 0x8, addend: 0x0, symName: '+[RNSVGFeBlendManager propConfig_in1]', symObjAddr: 0x2C, symBinAddr: 0x11B44, symSize: 0xC }
  - { offset: 0x17CF39, size: 0x8, addend: 0x0, symName: '+[RNSVGFeBlendManager propConfig_in2]', symObjAddr: 0x38, symBinAddr: 0x11B50, symSize: 0xC }
  - { offset: 0x17CF6A, size: 0x8, addend: 0x0, symName: '+[RNSVGFeBlendManager propConfig_mode]', symObjAddr: 0x44, symBinAddr: 0x11B5C, symSize: 0xC }
  - { offset: 0x17D022, size: 0x8, addend: 0x0, symName: __GLOBAL__sub_I_RNSVGFeBlendManager.mm, symObjAddr: 0x50, symBinAddr: 0x11B68, symSize: 0x20 }
  - { offset: 0x17F071, size: 0x8, addend: 0x0, symName: __ZN8facebook5react17HostPlatformColorL14UndefinedColorE, symObjAddr: 0x17A290, symBinAddr: 0xB01E8, symSize: 0x0 }
  - { offset: 0x1824B8, size: 0x8, addend: 0x0, symName: __ZN8facebook5react38concreteComponentDescriptorConstructorINS0_27ConcreteComponentDescriptorINS0_23RNSVGConcreteShadowNodeIXadL_ZNS0_31RNSVGFeColorMatrixComponentNameEEENS0_23RNSVGFeColorMatrixPropsEEEEEEENSt3__110unique_ptrIKNS0_19ComponentDescriptorENS7_14default_deleteISA_EEEERKNS0_29ComponentDescriptorParametersE, symObjAddr: 0x1E54, symBinAddr: 0x12BF4, symSize: 0x34 }
  - { offset: 0x19F0D6, size: 0x8, addend: 0x0, symName: __ZNSt3__115allocate_sharedB8ne200100IKN8facebook5react23RNSVGFeColorMatrixPropsENS_9allocatorIS3_EEJELi0EEENS_10shared_ptrIT_EERKT0_DpOT1_, symObjAddr: 0xE90, symBinAddr: 0x1293C, symSize: 0x48 }
  - { offset: 0x19FAA1, size: 0x8, addend: 0x0, symName: __ZNSt3__112__destroy_atB8ne200100IN8facebook5react23RNSVGFeColorMatrixPropsELi0EEEvPT_, symObjAddr: 0x1D80, symBinAddr: 0x12B78, symSize: 0x7C }
  - { offset: 0x1A075D, size: 0x8, addend: 0x0, symName: __ZNSt3__111make_uniqueB8ne200100IKN8facebook5react27ConcreteComponentDescriptorINS2_23RNSVGConcreteShadowNodeIXadL_ZNS2_31RNSVGFeColorMatrixComponentNameEEENS2_23RNSVGFeColorMatrixPropsEEEEEJRKNS2_29ComponentDescriptorParametersEELi0EEENS_10unique_ptrIT_NS_14default_deleteISD_EEEEDpOT0_, symObjAddr: 0x1E88, symBinAddr: 0x12C28, symSize: 0xD4 }
  - { offset: 0x1A10D5, size: 0x8, addend: 0x0, symName: __ZNSt3__115allocate_sharedB8ne200100IN8facebook5react23RNSVGConcreteShadowNodeIXadL_ZNS2_31RNSVGFeColorMatrixComponentNameEEENS2_23RNSVGFeColorMatrixPropsEEENS_9allocatorIS5_EEJRKNS2_18ShadowNodeFragmentERKNS_10shared_ptrIKNS2_16ShadowNodeFamilyEEENS2_16ShadowNodeTraitsEELi0EEENSB_IT_EERKT0_DpOT1_, symObjAddr: 0x2AA8, symBinAddr: 0x13540, symSize: 0x70 }
  - { offset: 0x1A1404, size: 0x8, addend: 0x0, symName: __ZNSt3__115allocate_sharedB8ne200100IN8facebook5react23RNSVGConcreteShadowNodeIXadL_ZNS2_31RNSVGFeColorMatrixComponentNameEEENS2_23RNSVGFeColorMatrixPropsEEENS_9allocatorIS5_EEJRKNS2_10ShadowNodeERKNS2_18ShadowNodeFragmentEELi0EEENS_10shared_ptrIT_EERKT0_DpOT1_, symObjAddr: 0x2FF0, symBinAddr: 0x137AC, symSize: 0x60 }
  - { offset: 0x1A1B4F, size: 0x8, addend: 0x0, symName: __ZNSt3__115allocate_sharedB8ne200100IN8facebook5react16ShadowNodeFamilyENS_9allocatorIS3_EEJRKNS2_24ShadowNodeFamilyFragmentERNS_10shared_ptrIKNS2_20BaseViewEventEmitterEEERKNS_8weak_ptrIKNS2_15EventDispatcherEEERKNS2_27ConcreteComponentDescriptorINS2_23RNSVGConcreteShadowNodeIXadL_ZNS2_31RNSVGFeColorMatrixComponentNameEEENS2_23RNSVGFeColorMatrixPropsEEEEEELi0EEENS9_IT_EERKT0_DpOT1_, symObjAddr: 0x3BA4, symBinAddr: 0x13A5C, symSize: 0x78 }
  - { offset: 0x1A28E2, size: 0x8, addend: 0x0, symName: __ZNSt3__115allocate_sharedB8ne200100IN8facebook5react23RNSVGFeColorMatrixPropsENS_9allocatorIS3_EEJRKNS2_18PropsParserContextERKS3_RKNS2_8RawPropsEELi0EEENS_10shared_ptrIT_EERKT0_DpOT1_, symObjAddr: 0x31F8, symBinAddr: 0x1395C, symSize: 0x70 }
  - { offset: 0x1A3C54, size: 0x8, addend: 0x0, symName: __ZNSt3__112construct_atB8ne200100IN8facebook5react16ShadowNodeFamilyEJRKNS2_24ShadowNodeFamilyFragmentERNS_10shared_ptrIKNS2_20BaseViewEventEmitterEEERKNS_8weak_ptrIKNS2_15EventDispatcherEEERKNS2_27ConcreteComponentDescriptorINS2_23RNSVGConcreteShadowNodeIXadL_ZNS2_31RNSVGFeColorMatrixComponentNameEEENS2_23RNSVGFeColorMatrixPropsEEEEEEPS3_EEPT_SR_DpOT0_, symObjAddr: 0x3CAC, symBinAddr: 0x13B20, symSize: 0xDC }
  - { offset: 0x1A503C, size: 0x8, addend: 0x0, symName: '-[RNSVGFeColorMatrix initWithFrame:]', symObjAddr: 0x34, symBinAddr: 0x11BBC, symSize: 0xDC }
  - { offset: 0x1A5065, size: 0x8, addend: 0x0, symName: '__ZZ36-[RNSVGFeColorMatrix initWithFrame:]E12defaultProps', symObjAddr: 0x17A2A8, symBinAddr: 0xB0200, symSize: 0x0 }
  - { offset: 0x1A8AE6, size: 0x8, addend: 0x0, symName: __ZN8facebook5react18ConcreteShadowNodeIXadL_ZNS0_31RNSVGFeColorMatrixComponentNameEEENS0_25RNSVGLayoutableShadowNodeENS0_23RNSVGFeColorMatrixPropsENS0_20BaseViewEventEmitterENS0_9StateDataEE18defaultSharedPropsEv, symObjAddr: 0x3104, symBinAddr: 0x13868, symSize: 0x9C }
  - { offset: 0x1A8B05, size: 0x8, addend: 0x0, symName: __ZZN8facebook5react18ConcreteShadowNodeIXadL_ZNS0_31RNSVGFeColorMatrixComponentNameEEENS0_25RNSVGLayoutableShadowNodeENS0_23RNSVGFeColorMatrixPropsENS0_20BaseViewEventEmitterENS0_9StateDataEE18defaultSharedPropsEvE18defaultSharedProps, symObjAddr: 0x5CE8, symBinAddr: 0xAF978, symSize: 0x0 }
  - { offset: 0x1A8D7A, size: 0x8, addend: 0x0, symName: '+[RNSVGFeColorMatrix load]', symObjAddr: 0x0, symBinAddr: 0x11B88, symSize: 0x34 }
  - { offset: 0x1A8EB9, size: 0x8, addend: 0x0, symName: __ZNSt3__110shared_ptrIKN8facebook5react23RNSVGFeColorMatrixPropsEED1B8ne200100Ev, symObjAddr: 0x110, symBinAddr: 0x11C98, symSize: 0x4 }
  - { offset: 0x1A8EDD, size: 0x8, addend: 0x0, symName: __ZNSt3__110shared_ptrIKN8facebook5react23RNSVGFeColorMatrixPropsEED1B8ne200100Ev, symObjAddr: 0x110, symBinAddr: 0x11C98, symSize: 0x4 }
  - { offset: 0x1A90E5, size: 0x8, addend: 0x0, symName: '+[RNSVGFeColorMatrix componentDescriptorProvider]', symObjAddr: 0x18C, symBinAddr: 0x11C9C, symSize: 0x20 }
  - { offset: 0x1A9119, size: 0x8, addend: 0x0, symName: '+[RNSVGFeColorMatrix componentDescriptorProvider]', symObjAddr: 0x18C, symBinAddr: 0x11C9C, symSize: 0x20 }
  - { offset: 0x1A939A, size: 0x8, addend: 0x0, symName: '-[RNSVGFeColorMatrix updateProps:oldProps:]', symObjAddr: 0x1AC, symBinAddr: 0x11CBC, symSize: 0x1EC }
  - { offset: 0x1A97B6, size: 0x8, addend: 0x0, symName: __Z20setCommonFilterPropsIN8facebook5react23RNSVGFeColorMatrixPropsEEvRKT_P20RNSVGFilterPrimitive, symObjAddr: 0x398, symBinAddr: 0x11EA8, symSize: 0x224 }
  - { offset: 0x1A9A70, size: 0x8, addend: 0x0, symName: __ZL28RNSVGConvertFollyDynamicToIdRKN5folly7dynamicE, symObjAddr: 0x3E90, symBinAddr: 0x13BFC, symSize: 0x274 }
  - { offset: 0x1A9FAC, size: 0x8, addend: 0x0, symName: '-[RNSVGFeColorMatrix prepareForRecycle]', symObjAddr: 0x620, symBinAddr: 0x120CC, symSize: 0x78 }
  - { offset: 0x1A9FDD, size: 0x8, addend: 0x0, symName: '-[RNSVGFeColorMatrix setIn1:]', symObjAddr: 0x698, symBinAddr: 0x12144, symSize: 0x78 }
  - { offset: 0x1AA01D, size: 0x8, addend: 0x0, symName: '-[RNSVGFeColorMatrix setValues:]', symObjAddr: 0x710, symBinAddr: 0x121BC, symSize: 0x70 }
  - { offset: 0x1AA05D, size: 0x8, addend: 0x0, symName: '-[RNSVGFeColorMatrix setType:]', symObjAddr: 0x780, symBinAddr: 0x1222C, symSize: 0x20 }
  - { offset: 0x1AA09A, size: 0x8, addend: 0x0, symName: '-[RNSVGFeColorMatrix applyFilter:previousFilterResult:]', symObjAddr: 0x7A0, symBinAddr: 0x1224C, symSize: 0x674 }
  - { offset: 0x1AA1C6, size: 0x8, addend: 0x0, symName: __Z21RNSVGFeColorMatrixClsv, symObjAddr: 0xE14, symBinAddr: 0x128C0, symSize: 0xC }
  - { offset: 0x1AA1E4, size: 0x8, addend: 0x0, symName: '-[RNSVGFeColorMatrix in1]', symObjAddr: 0xE20, symBinAddr: 0x128CC, symSize: 0x10 }
  - { offset: 0x1AA21A, size: 0x8, addend: 0x0, symName: '-[RNSVGFeColorMatrix type]', symObjAddr: 0xE30, symBinAddr: 0x128DC, symSize: 0x10 }
  - { offset: 0x1AA250, size: 0x8, addend: 0x0, symName: '-[RNSVGFeColorMatrix values]', symObjAddr: 0xE40, symBinAddr: 0x128EC, symSize: 0x10 }
  - { offset: 0x1AA286, size: 0x8, addend: 0x0, symName: '-[RNSVGFeColorMatrix .cxx_destruct]', symObjAddr: 0xE50, symBinAddr: 0x128FC, symSize: 0x40 }
  - { offset: 0x1AA4E2, size: 0x8, addend: 0x0, symName: __ZNSt3__120__shared_ptr_emplaceIKN8facebook5react23RNSVGFeColorMatrixPropsENS_9allocatorIS3_EEEC2B8ne200100IJES6_Li0EEES6_DpOT_, symObjAddr: 0xED8, symBinAddr: 0x12984, symSize: 0xB4 }
  - { offset: 0x1ABF73, size: 0x8, addend: 0x0, symName: __ZNSt3__120__shared_ptr_emplaceIKN8facebook5react23RNSVGFeColorMatrixPropsENS_9allocatorIS3_EEED1Ev, symObjAddr: 0xF8C, symBinAddr: 0x12A38, symSize: 0x14 }
  - { offset: 0x1ABF97, size: 0x8, addend: 0x0, symName: __ZNSt3__120__shared_ptr_emplaceIKN8facebook5react23RNSVGFeColorMatrixPropsENS_9allocatorIS3_EEED1Ev, symObjAddr: 0xF8C, symBinAddr: 0x12A38, symSize: 0x14 }
  - { offset: 0x1ABFCD, size: 0x8, addend: 0x0, symName: __ZNSt3__120__shared_ptr_emplaceIKN8facebook5react23RNSVGFeColorMatrixPropsENS_9allocatorIS3_EEED0Ev, symObjAddr: 0xFA0, symBinAddr: 0x12A4C, symSize: 0x24 }
  - { offset: 0x1AC09D, size: 0x8, addend: 0x0, symName: __ZNSt3__120__shared_ptr_emplaceIKN8facebook5react23RNSVGFeColorMatrixPropsENS_9allocatorIS3_EEE16__on_zero_sharedEv, symObjAddr: 0xFC4, symBinAddr: 0x12A70, symSize: 0x8 }
  - { offset: 0x1AC0C6, size: 0x8, addend: 0x0, symName: __ZNSt3__120__shared_ptr_emplaceIKN8facebook5react23RNSVGFeColorMatrixPropsENS_9allocatorIS3_EEE16__on_zero_sharedEv, symObjAddr: 0xFC4, symBinAddr: 0x12A70, symSize: 0x8 }
  - { offset: 0x1AC0E5, size: 0x8, addend: 0x0, symName: __ZNSt3__120__shared_ptr_emplaceIKN8facebook5react23RNSVGFeColorMatrixPropsENS_9allocatorIS3_EEE16__on_zero_sharedEv, symObjAddr: 0xFC4, symBinAddr: 0x12A70, symSize: 0x8 }
  - { offset: 0x1AC123, size: 0x8, addend: 0x0, symName: __ZNSt3__120__shared_ptr_emplaceIKN8facebook5react23RNSVGFeColorMatrixPropsENS_9allocatorIS3_EEE21__on_zero_shared_weakEv, symObjAddr: 0xFCC, symBinAddr: 0x12A78, symSize: 0x4 }
  - { offset: 0x1AC156, size: 0x8, addend: 0x0, symName: __ZNSt3__120__shared_ptr_emplaceIKN8facebook5react23RNSVGFeColorMatrixPropsENS_9allocatorIS3_EEE21__on_zero_shared_weakEv, symObjAddr: 0xFCC, symBinAddr: 0x12A78, symSize: 0x4 }
  - { offset: 0x1AC17A, size: 0x8, addend: 0x0, symName: __ZNSt3__120__shared_ptr_emplaceIKN8facebook5react23RNSVGFeColorMatrixPropsENS_9allocatorIS3_EEE21__on_zero_shared_weakEv, symObjAddr: 0xFCC, symBinAddr: 0x12A78, symSize: 0x4 }
  - { offset: 0x1AC19F, size: 0x8, addend: 0x0, symName: __ZNSt3__120__shared_ptr_emplaceIKN8facebook5react23RNSVGFeColorMatrixPropsENS_9allocatorIS3_EEE21__on_zero_shared_weakEv, symObjAddr: 0xFCC, symBinAddr: 0x12A78, symSize: 0x4 }
  - { offset: 0x1AC1D7, size: 0x8, addend: 0x0, symName: __ZNSt3__120__shared_ptr_emplaceIKN8facebook5react23RNSVGFeColorMatrixPropsENS_9allocatorIS3_EEE21__on_zero_shared_weakEv, symObjAddr: 0xFCC, symBinAddr: 0x12A78, symSize: 0x4 }
  - { offset: 0x1AF15E, size: 0x8, addend: 0x0, symName: __ZN8facebook5react23RNSVGFeColorMatrixPropsD1Ev, symObjAddr: 0x14EC, symBinAddr: 0x12A7C, symSize: 0x7C }
  - { offset: 0x1AF5FD, size: 0x8, addend: 0x0, symName: __ZN8facebook5react23RNSVGFeColorMatrixPropsD0Ev, symObjAddr: 0x1568, symBinAddr: 0x12AF8, symSize: 0x80 }
  - { offset: 0x1B14F2, size: 0x8, addend: 0x0, symName: __ZN8facebook5react14RawPropsParser7prepareINS0_23RNSVGFeColorMatrixPropsEEEvv, symObjAddr: 0x1FAC, symBinAddr: 0x12CFC, symSize: 0x2CC }
  - { offset: 0x1B2FEB, size: 0x8, addend: 0x0, symName: __ZN8facebook5react27ConcreteComponentDescriptorINS0_23RNSVGConcreteShadowNodeIXadL_ZNS0_31RNSVGFeColorMatrixComponentNameEEENS0_23RNSVGFeColorMatrixPropsEEEED1Ev, symObjAddr: 0x2278, symBinAddr: 0x12FC8, symSize: 0x4 }
  - { offset: 0x1B300F, size: 0x8, addend: 0x0, symName: __ZN8facebook5react27ConcreteComponentDescriptorINS0_23RNSVGConcreteShadowNodeIXadL_ZNS0_31RNSVGFeColorMatrixComponentNameEEENS0_23RNSVGFeColorMatrixPropsEEEED1Ev, symObjAddr: 0x2278, symBinAddr: 0x12FC8, symSize: 0x4 }
  - { offset: 0x1B302D, size: 0x8, addend: 0x0, symName: __ZN8facebook5react27ConcreteComponentDescriptorINS0_23RNSVGConcreteShadowNodeIXadL_ZNS0_31RNSVGFeColorMatrixComponentNameEEENS0_23RNSVGFeColorMatrixPropsEEEED1Ev, symObjAddr: 0x2278, symBinAddr: 0x12FC8, symSize: 0x4 }
  - { offset: 0x1B3304, size: 0x8, addend: 0x0, symName: __ZN8facebook5react27ConcreteComponentDescriptorINS0_23RNSVGConcreteShadowNodeIXadL_ZNS0_31RNSVGFeColorMatrixComponentNameEEENS0_23RNSVGFeColorMatrixPropsEEEED0Ev, symObjAddr: 0x227C, symBinAddr: 0x12FCC, symSize: 0x14 }
  - { offset: 0x1B3380, size: 0x8, addend: 0x0, symName: __ZNK8facebook5react27ConcreteComponentDescriptorINS0_23RNSVGConcreteShadowNodeIXadL_ZNS0_31RNSVGFeColorMatrixComponentNameEEENS0_23RNSVGFeColorMatrixPropsEEEE18getComponentHandleEv, symObjAddr: 0x2290, symBinAddr: 0x12FE0, symSize: 0xC }
  - { offset: 0x1B33A6, size: 0x8, addend: 0x0, symName: __ZNK8facebook5react27ConcreteComponentDescriptorINS0_23RNSVGConcreteShadowNodeIXadL_ZNS0_31RNSVGFeColorMatrixComponentNameEEENS0_23RNSVGFeColorMatrixPropsEEEE16getComponentNameEv, symObjAddr: 0x229C, symBinAddr: 0x12FEC, symSize: 0xC }
  - { offset: 0x1B33CC, size: 0x8, addend: 0x0, symName: __ZNK8facebook5react27ConcreteComponentDescriptorINS0_23RNSVGConcreteShadowNodeIXadL_ZNS0_31RNSVGFeColorMatrixComponentNameEEENS0_23RNSVGFeColorMatrixPropsEEEE9getTraitsEv, symObjAddr: 0x22A8, symBinAddr: 0x12FF8, symSize: 0x8 }
  - { offset: 0x1B34C6, size: 0x8, addend: 0x0, symName: __ZNK8facebook5react27ConcreteComponentDescriptorINS0_23RNSVGConcreteShadowNodeIXadL_ZNS0_31RNSVGFeColorMatrixComponentNameEEENS0_23RNSVGFeColorMatrixPropsEEEE16createShadowNodeERKNS0_18ShadowNodeFragmentERKNSt3__110shared_ptrIKNS0_16ShadowNodeFamilyEEE, symObjAddr: 0x22B0, symBinAddr: 0x13000, symSize: 0x90 }
  - { offset: 0x1B3752, size: 0x8, addend: 0x0, symName: __ZNK8facebook5react27ConcreteComponentDescriptorINS0_23RNSVGConcreteShadowNodeIXadL_ZNS0_31RNSVGFeColorMatrixComponentNameEEENS0_23RNSVGFeColorMatrixPropsEEEE15cloneShadowNodeERKNS0_10ShadowNodeERKNS0_18ShadowNodeFragmentE, symObjAddr: 0x2340, symBinAddr: 0x13090, symSize: 0x104 }
  - { offset: 0x1B3ADF, size: 0x8, addend: 0x0, symName: __ZNK8facebook5react27ConcreteComponentDescriptorINS0_23RNSVGConcreteShadowNodeIXadL_ZNS0_31RNSVGFeColorMatrixComponentNameEEENS0_23RNSVGFeColorMatrixPropsEEEE11appendChildERKNSt3__110shared_ptrIKNS0_10ShadowNodeEEESC_, symObjAddr: 0x2444, symBinAddr: 0x13194, symSize: 0x14 }
  - { offset: 0x1B3B35, size: 0x8, addend: 0x0, symName: __ZNK8facebook5react27ConcreteComponentDescriptorINS0_23RNSVGConcreteShadowNodeIXadL_ZNS0_31RNSVGFeColorMatrixComponentNameEEENS0_23RNSVGFeColorMatrixPropsEEEE11appendChildERKNSt3__110shared_ptrIKNS0_10ShadowNodeEEESC_, symObjAddr: 0x2444, symBinAddr: 0x13194, symSize: 0x14 }
  - { offset: 0x1B4397, size: 0x8, addend: 0x0, symName: __ZNK8facebook5react27ConcreteComponentDescriptorINS0_23RNSVGConcreteShadowNodeIXadL_ZNS0_31RNSVGFeColorMatrixComponentNameEEENS0_23RNSVGFeColorMatrixPropsEEEE10clonePropsERKNS0_18PropsParserContextERKNSt3__110shared_ptrIKNS0_5PropsEEENS0_8RawPropsE, symObjAddr: 0x2458, symBinAddr: 0x131A8, symSize: 0x21C }
  - { offset: 0x1B4F31, size: 0x8, addend: 0x0, symName: __ZN8facebook5react18ConcreteShadowNodeIXadL_ZNS0_31RNSVGFeColorMatrixComponentNameEEENS0_25RNSVGLayoutableShadowNodeENS0_23RNSVGFeColorMatrixPropsENS0_20BaseViewEventEmitterENS0_9StateDataEE5PropsERKNS0_18PropsParserContextERKNS0_8RawPropsERKNSt3__110shared_ptrIKNS0_5PropsEEE, symObjAddr: 0x31A0, symBinAddr: 0x13904, symSize: 0x58 }
  - { offset: 0x1B519B, size: 0x8, addend: 0x0, symName: __ZNK8facebook5react27ConcreteComponentDescriptorINS0_23RNSVGConcreteShadowNodeIXadL_ZNS0_31RNSVGFeColorMatrixComponentNameEEENS0_23RNSVGFeColorMatrixPropsEEEE18createInitialStateERKNSt3__110shared_ptrIKNS0_5PropsEEERKNS7_IKNS0_16ShadowNodeFamilyEEE, symObjAddr: 0x2674, symBinAddr: 0x133C4, symSize: 0x8 }
  - { offset: 0x1B51DF, size: 0x8, addend: 0x0, symName: __ZNK8facebook5react27ConcreteComponentDescriptorINS0_23RNSVGConcreteShadowNodeIXadL_ZNS0_31RNSVGFeColorMatrixComponentNameEEENS0_23RNSVGFeColorMatrixPropsEEEE18createInitialStateERKNSt3__110shared_ptrIKNS0_5PropsEEERKNS7_IKNS0_16ShadowNodeFamilyEEE, symObjAddr: 0x2674, symBinAddr: 0x133C4, symSize: 0x8 }
  - { offset: 0x1B5203, size: 0x8, addend: 0x0, symName: __ZNK8facebook5react27ConcreteComponentDescriptorINS0_23RNSVGConcreteShadowNodeIXadL_ZNS0_31RNSVGFeColorMatrixComponentNameEEENS0_23RNSVGFeColorMatrixPropsEEEE18createInitialStateERKNSt3__110shared_ptrIKNS0_5PropsEEERKNS7_IKNS0_16ShadowNodeFamilyEEE, symObjAddr: 0x2674, symBinAddr: 0x133C4, symSize: 0x8 }
  - { offset: 0x1B5227, size: 0x8, addend: 0x0, symName: __ZNK8facebook5react27ConcreteComponentDescriptorINS0_23RNSVGConcreteShadowNodeIXadL_ZNS0_31RNSVGFeColorMatrixComponentNameEEENS0_23RNSVGFeColorMatrixPropsEEEE11createStateERKNS0_16ShadowNodeFamilyERKNSt3__110shared_ptrIKvEE, symObjAddr: 0x267C, symBinAddr: 0x133CC, symSize: 0x8 }
  - { offset: 0x1B526B, size: 0x8, addend: 0x0, symName: __ZNK8facebook5react27ConcreteComponentDescriptorINS0_23RNSVGConcreteShadowNodeIXadL_ZNS0_31RNSVGFeColorMatrixComponentNameEEENS0_23RNSVGFeColorMatrixPropsEEEE11createStateERKNS0_16ShadowNodeFamilyERKNSt3__110shared_ptrIKvEE, symObjAddr: 0x267C, symBinAddr: 0x133CC, symSize: 0x8 }
  - { offset: 0x1B528F, size: 0x8, addend: 0x0, symName: __ZNK8facebook5react27ConcreteComponentDescriptorINS0_23RNSVGConcreteShadowNodeIXadL_ZNS0_31RNSVGFeColorMatrixComponentNameEEENS0_23RNSVGFeColorMatrixPropsEEEE11createStateERKNS0_16ShadowNodeFamilyERKNSt3__110shared_ptrIKvEE, symObjAddr: 0x267C, symBinAddr: 0x133CC, symSize: 0x8 }
  - { offset: 0x1B549B, size: 0x8, addend: 0x0, symName: __ZNK8facebook5react27ConcreteComponentDescriptorINS0_23RNSVGConcreteShadowNodeIXadL_ZNS0_31RNSVGFeColorMatrixComponentNameEEENS0_23RNSVGFeColorMatrixPropsEEEE12createFamilyERKNS0_24ShadowNodeFamilyFragmentE, symObjAddr: 0x2684, symBinAddr: 0x133D4, symSize: 0x168 }
  - { offset: 0x1B5A2A, size: 0x8, addend: 0x0, symName: __ZNK8facebook5react27ConcreteComponentDescriptorINS0_23RNSVGConcreteShadowNodeIXadL_ZNS0_31RNSVGFeColorMatrixComponentNameEEENS0_23RNSVGFeColorMatrixPropsEEEE5adoptERNS0_10ShadowNodeE, symObjAddr: 0x27EC, symBinAddr: 0x1353C, symSize: 0x4 }
  - { offset: 0x1B6283, size: 0x8, addend: 0x0, symName: __ZNSt3__120__shared_ptr_emplaceIN8facebook5react23RNSVGConcreteShadowNodeIXadL_ZNS2_31RNSVGFeColorMatrixComponentNameEEENS2_23RNSVGFeColorMatrixPropsEEENS_9allocatorIS5_EEEC2B8ne200100IJRKNS2_18ShadowNodeFragmentERKNS_10shared_ptrIKNS2_16ShadowNodeFamilyEEENS2_16ShadowNodeTraitsEES7_Li0EEES7_DpOT_, symObjAddr: 0x2B18, symBinAddr: 0x135B0, symSize: 0x60 }
  - { offset: 0x1B65A7, size: 0x8, addend: 0x0, symName: __ZNSt3__120__shared_ptr_emplaceIN8facebook5react23RNSVGConcreteShadowNodeIXadL_ZNS2_31RNSVGFeColorMatrixComponentNameEEENS2_23RNSVGFeColorMatrixPropsEEENS_9allocatorIS5_EEED1Ev, symObjAddr: 0x2B78, symBinAddr: 0x13610, symSize: 0x14 }
  - { offset: 0x1B65CB, size: 0x8, addend: 0x0, symName: __ZNSt3__120__shared_ptr_emplaceIN8facebook5react23RNSVGConcreteShadowNodeIXadL_ZNS2_31RNSVGFeColorMatrixComponentNameEEENS2_23RNSVGFeColorMatrixPropsEEENS_9allocatorIS5_EEED1Ev, symObjAddr: 0x2B78, symBinAddr: 0x13610, symSize: 0x14 }
  - { offset: 0x1B6601, size: 0x8, addend: 0x0, symName: __ZNSt3__120__shared_ptr_emplaceIN8facebook5react23RNSVGConcreteShadowNodeIXadL_ZNS2_31RNSVGFeColorMatrixComponentNameEEENS2_23RNSVGFeColorMatrixPropsEEENS_9allocatorIS5_EEED0Ev, symObjAddr: 0x2B8C, symBinAddr: 0x13624, symSize: 0x24 }
  - { offset: 0x1B66D1, size: 0x8, addend: 0x0, symName: __ZNSt3__120__shared_ptr_emplaceIN8facebook5react23RNSVGConcreteShadowNodeIXadL_ZNS2_31RNSVGFeColorMatrixComponentNameEEENS2_23RNSVGFeColorMatrixPropsEEENS_9allocatorIS5_EEE16__on_zero_sharedEv, symObjAddr: 0x2BB0, symBinAddr: 0x13648, symSize: 0xC }
  - { offset: 0x1B66FA, size: 0x8, addend: 0x0, symName: __ZNSt3__120__shared_ptr_emplaceIN8facebook5react23RNSVGConcreteShadowNodeIXadL_ZNS2_31RNSVGFeColorMatrixComponentNameEEENS2_23RNSVGFeColorMatrixPropsEEENS_9allocatorIS5_EEE16__on_zero_sharedEv, symObjAddr: 0x2BB0, symBinAddr: 0x13648, symSize: 0xC }
  - { offset: 0x1B6719, size: 0x8, addend: 0x0, symName: __ZNSt3__120__shared_ptr_emplaceIN8facebook5react23RNSVGConcreteShadowNodeIXadL_ZNS2_31RNSVGFeColorMatrixComponentNameEEENS2_23RNSVGFeColorMatrixPropsEEENS_9allocatorIS5_EEE16__on_zero_sharedEv, symObjAddr: 0x2BB0, symBinAddr: 0x13648, symSize: 0xC }
  - { offset: 0x1B6738, size: 0x8, addend: 0x0, symName: __ZNSt3__120__shared_ptr_emplaceIN8facebook5react23RNSVGConcreteShadowNodeIXadL_ZNS2_31RNSVGFeColorMatrixComponentNameEEENS2_23RNSVGFeColorMatrixPropsEEENS_9allocatorIS5_EEE16__on_zero_sharedEv, symObjAddr: 0x2BB0, symBinAddr: 0x13648, symSize: 0xC }
  - { offset: 0x1B6764, size: 0x8, addend: 0x0, symName: __ZNSt3__120__shared_ptr_emplaceIN8facebook5react23RNSVGConcreteShadowNodeIXadL_ZNS2_31RNSVGFeColorMatrixComponentNameEEENS2_23RNSVGFeColorMatrixPropsEEENS_9allocatorIS5_EEE21__on_zero_shared_weakEv, symObjAddr: 0x2BBC, symBinAddr: 0x13654, symSize: 0x4 }
  - { offset: 0x1B6797, size: 0x8, addend: 0x0, symName: __ZNSt3__120__shared_ptr_emplaceIN8facebook5react23RNSVGConcreteShadowNodeIXadL_ZNS2_31RNSVGFeColorMatrixComponentNameEEENS2_23RNSVGFeColorMatrixPropsEEENS_9allocatorIS5_EEE21__on_zero_shared_weakEv, symObjAddr: 0x2BBC, symBinAddr: 0x13654, symSize: 0x4 }
  - { offset: 0x1B67BB, size: 0x8, addend: 0x0, symName: __ZNSt3__120__shared_ptr_emplaceIN8facebook5react23RNSVGConcreteShadowNodeIXadL_ZNS2_31RNSVGFeColorMatrixComponentNameEEENS2_23RNSVGFeColorMatrixPropsEEENS_9allocatorIS5_EEE21__on_zero_shared_weakEv, symObjAddr: 0x2BBC, symBinAddr: 0x13654, symSize: 0x4 }
  - { offset: 0x1B67E0, size: 0x8, addend: 0x0, symName: __ZNSt3__120__shared_ptr_emplaceIN8facebook5react23RNSVGConcreteShadowNodeIXadL_ZNS2_31RNSVGFeColorMatrixComponentNameEEENS2_23RNSVGFeColorMatrixPropsEEENS_9allocatorIS5_EEE21__on_zero_shared_weakEv, symObjAddr: 0x2BBC, symBinAddr: 0x13654, symSize: 0x4 }
  - { offset: 0x1B6818, size: 0x8, addend: 0x0, symName: __ZNSt3__120__shared_ptr_emplaceIN8facebook5react23RNSVGConcreteShadowNodeIXadL_ZNS2_31RNSVGFeColorMatrixComponentNameEEENS2_23RNSVGFeColorMatrixPropsEEENS_9allocatorIS5_EEE21__on_zero_shared_weakEv, symObjAddr: 0x2BBC, symBinAddr: 0x13654, symSize: 0x4 }
  - { offset: 0x1B6A98, size: 0x8, addend: 0x0, symName: __ZN8facebook5react23RNSVGConcreteShadowNodeIXadL_ZNS0_31RNSVGFeColorMatrixComponentNameEEENS0_23RNSVGFeColorMatrixPropsEED1Ev, symObjAddr: 0x2BC0, symBinAddr: 0x13658, symSize: 0x70 }
  - { offset: 0x1B7049, size: 0x8, addend: 0x0, symName: __ZN8facebook5react23RNSVGConcreteShadowNodeIXadL_ZNS0_31RNSVGFeColorMatrixComponentNameEEENS0_23RNSVGFeColorMatrixPropsEED0Ev, symObjAddr: 0x2C30, symBinAddr: 0x136C8, symSize: 0x74 }
  - { offset: 0x1B748F, size: 0x8, addend: 0x0, symName: __ZNK8facebook5react23RNSVGConcreteShadowNodeIXadL_ZNS0_31RNSVGFeColorMatrixComponentNameEEENS0_23RNSVGFeColorMatrixPropsEE12getTransformEv, symObjAddr: 0x2CA4, symBinAddr: 0x1373C, symSize: 0x40 }
  - { offset: 0x1B7502, size: 0x8, addend: 0x0, symName: __ZNK8facebook5react23RNSVGConcreteShadowNodeIXadL_ZNS0_31RNSVGFeColorMatrixComponentNameEEENS0_23RNSVGFeColorMatrixPropsEE16canBeTouchTargetEv, symObjAddr: 0x2CE4, symBinAddr: 0x1377C, symSize: 0x18 }
  - { offset: 0x1B753A, size: 0x8, addend: 0x0, symName: __ZNK8facebook5react23RNSVGConcreteShadowNodeIXadL_ZNS0_31RNSVGFeColorMatrixComponentNameEEENS0_23RNSVGFeColorMatrixPropsEE16canBeTouchTargetEv, symObjAddr: 0x2CE4, symBinAddr: 0x1377C, symSize: 0x18 }
  - { offset: 0x1B7557, size: 0x8, addend: 0x0, symName: __ZNK8facebook5react23RNSVGConcreteShadowNodeIXadL_ZNS0_31RNSVGFeColorMatrixComponentNameEEENS0_23RNSVGFeColorMatrixPropsEE16canBeTouchTargetEv, symObjAddr: 0x2CE4, symBinAddr: 0x1377C, symSize: 0x18 }
  - { offset: 0x1B7575, size: 0x8, addend: 0x0, symName: __ZNK8facebook5react23RNSVGConcreteShadowNodeIXadL_ZNS0_31RNSVGFeColorMatrixComponentNameEEENS0_23RNSVGFeColorMatrixPropsEE24canChildrenBeTouchTargetEv, symObjAddr: 0x2CFC, symBinAddr: 0x13794, symSize: 0x18 }
  - { offset: 0x1B75A9, size: 0x8, addend: 0x0, symName: __ZNK8facebook5react23RNSVGConcreteShadowNodeIXadL_ZNS0_31RNSVGFeColorMatrixComponentNameEEENS0_23RNSVGFeColorMatrixPropsEE24canChildrenBeTouchTargetEv, symObjAddr: 0x2CFC, symBinAddr: 0x13794, symSize: 0x18 }
  - { offset: 0x1B75C6, size: 0x8, addend: 0x0, symName: __ZNK8facebook5react23RNSVGConcreteShadowNodeIXadL_ZNS0_31RNSVGFeColorMatrixComponentNameEEENS0_23RNSVGFeColorMatrixPropsEE24canChildrenBeTouchTargetEv, symObjAddr: 0x2CFC, symBinAddr: 0x13794, symSize: 0x18 }
  - { offset: 0x1B79BF, size: 0x8, addend: 0x0, symName: __ZNSt3__120__shared_ptr_emplaceIN8facebook5react23RNSVGConcreteShadowNodeIXadL_ZNS2_31RNSVGFeColorMatrixComponentNameEEENS2_23RNSVGFeColorMatrixPropsEEENS_9allocatorIS5_EEEC2B8ne200100IJRKNS2_10ShadowNodeERKNS2_18ShadowNodeFragmentEES7_Li0EEES7_DpOT_, symObjAddr: 0x3050, symBinAddr: 0x1380C, symSize: 0x5C }
  - { offset: 0x1B7EBA, size: 0x8, addend: 0x0, symName: __ZNSt3__120__shared_ptr_emplaceIN8facebook5react23RNSVGFeColorMatrixPropsENS_9allocatorIS3_EEEC2B8ne200100IJRKNS2_18PropsParserContextERKS3_RKNS2_8RawPropsEES5_Li0EEES5_DpOT_, symObjAddr: 0x3268, symBinAddr: 0x139CC, symSize: 0x4C }
  - { offset: 0x1B80A8, size: 0x8, addend: 0x0, symName: __ZNSt3__120__shared_ptr_emplaceIN8facebook5react23RNSVGFeColorMatrixPropsENS_9allocatorIS3_EEED1Ev, symObjAddr: 0x32B4, symBinAddr: 0x13A18, symSize: 0x14 }
  - { offset: 0x1B80CC, size: 0x8, addend: 0x0, symName: __ZNSt3__120__shared_ptr_emplaceIN8facebook5react23RNSVGFeColorMatrixPropsENS_9allocatorIS3_EEED1Ev, symObjAddr: 0x32B4, symBinAddr: 0x13A18, symSize: 0x14 }
  - { offset: 0x1B8102, size: 0x8, addend: 0x0, symName: __ZNSt3__120__shared_ptr_emplaceIN8facebook5react23RNSVGFeColorMatrixPropsENS_9allocatorIS3_EEED0Ev, symObjAddr: 0x32C8, symBinAddr: 0x13A2C, symSize: 0x24 }
  - { offset: 0x1B81A3, size: 0x8, addend: 0x0, symName: __ZNSt3__120__shared_ptr_emplaceIN8facebook5react23RNSVGFeColorMatrixPropsENS_9allocatorIS3_EEE16__on_zero_sharedEv, symObjAddr: 0x32EC, symBinAddr: 0x13A50, symSize: 0x8 }
  - { offset: 0x1B81CC, size: 0x8, addend: 0x0, symName: __ZNSt3__120__shared_ptr_emplaceIN8facebook5react23RNSVGFeColorMatrixPropsENS_9allocatorIS3_EEE16__on_zero_sharedEv, symObjAddr: 0x32EC, symBinAddr: 0x13A50, symSize: 0x8 }
  - { offset: 0x1B81EB, size: 0x8, addend: 0x0, symName: __ZNSt3__120__shared_ptr_emplaceIN8facebook5react23RNSVGFeColorMatrixPropsENS_9allocatorIS3_EEE16__on_zero_sharedEv, symObjAddr: 0x32EC, symBinAddr: 0x13A50, symSize: 0x8 }
  - { offset: 0x1B8229, size: 0x8, addend: 0x0, symName: __ZNSt3__120__shared_ptr_emplaceIN8facebook5react23RNSVGFeColorMatrixPropsENS_9allocatorIS3_EEE21__on_zero_shared_weakEv, symObjAddr: 0x32F4, symBinAddr: 0x13A58, symSize: 0x4 }
  - { offset: 0x1B825C, size: 0x8, addend: 0x0, symName: __ZNSt3__120__shared_ptr_emplaceIN8facebook5react23RNSVGFeColorMatrixPropsENS_9allocatorIS3_EEE21__on_zero_shared_weakEv, symObjAddr: 0x32F4, symBinAddr: 0x13A58, symSize: 0x4 }
  - { offset: 0x1B8280, size: 0x8, addend: 0x0, symName: __ZNSt3__120__shared_ptr_emplaceIN8facebook5react23RNSVGFeColorMatrixPropsENS_9allocatorIS3_EEE21__on_zero_shared_weakEv, symObjAddr: 0x32F4, symBinAddr: 0x13A58, symSize: 0x4 }
  - { offset: 0x1B82A5, size: 0x8, addend: 0x0, symName: __ZNSt3__120__shared_ptr_emplaceIN8facebook5react23RNSVGFeColorMatrixPropsENS_9allocatorIS3_EEE21__on_zero_shared_weakEv, symObjAddr: 0x32F4, symBinAddr: 0x13A58, symSize: 0x4 }
  - { offset: 0x1B82DD, size: 0x8, addend: 0x0, symName: __ZNSt3__120__shared_ptr_emplaceIN8facebook5react23RNSVGFeColorMatrixPropsENS_9allocatorIS3_EEE21__on_zero_shared_weakEv, symObjAddr: 0x32F4, symBinAddr: 0x13A58, symSize: 0x4 }
  - { offset: 0x1B95C2, size: 0x8, addend: 0x0, symName: __ZNSt3__120__shared_ptr_emplaceIN8facebook5react16ShadowNodeFamilyENS_9allocatorIS3_EEEC2B8ne200100IJRKNS2_24ShadowNodeFamilyFragmentERNS_10shared_ptrIKNS2_20BaseViewEventEmitterEEERKNS_8weak_ptrIKNS2_15EventDispatcherEEERKNS2_27ConcreteComponentDescriptorINS2_23RNSVGConcreteShadowNodeIXadL_ZNS2_31RNSVGFeColorMatrixComponentNameEEENS2_23RNSVGFeColorMatrixPropsEEEEEES5_Li0EEES5_DpOT_, symObjAddr: 0x3C1C, symBinAddr: 0x13AD4, symSize: 0x4C }
  - { offset: 0x1B9B2A, size: 0x8, addend: 0x0, symName: __GLOBAL__sub_I_RNSVGFeColorMatrix.mm, symObjAddr: 0x4640, symBinAddr: 0x13E70, symSize: 0x20 }
  - { offset: 0x1BBFA1, size: 0x8, addend: 0x0, symName: __ZN8facebook5react17HostPlatformColorL14UndefinedColorE, symObjAddr: 0xDE2E0, symBinAddr: 0xB0218, symSize: 0x0 }
  - { offset: 0x1BCC8A, size: 0x8, addend: 0x0, symName: '+[RNSVGFeColorMatrixManager moduleName]', symObjAddr: 0x0, symBinAddr: 0x13E90, symSize: 0xC }
  - { offset: 0x1BCCBB, size: 0x8, addend: 0x0, symName: '+[RNSVGFeColorMatrixManager load]', symObjAddr: 0xC, symBinAddr: 0x13E9C, symSize: 0x4 }
  - { offset: 0x1BCCEE, size: 0x8, addend: 0x0, symName: '+[RNSVGFeColorMatrixManager load]', symObjAddr: 0xC, symBinAddr: 0x13E9C, symSize: 0x4 }
  - { offset: 0x1BCD0D, size: 0x8, addend: 0x0, symName: '-[RNSVGFeColorMatrixManager node]', symObjAddr: 0x10, symBinAddr: 0x13EA0, symSize: 0x1C }
  - { offset: 0x1BCD3E, size: 0x8, addend: 0x0, symName: '+[RNSVGFeColorMatrixManager propConfig_in1]', symObjAddr: 0x2C, symBinAddr: 0x13EBC, symSize: 0xC }
  - { offset: 0x1BCD6F, size: 0x8, addend: 0x0, symName: '+[RNSVGFeColorMatrixManager propConfig_type]', symObjAddr: 0x38, symBinAddr: 0x13EC8, symSize: 0xC }
  - { offset: 0x1BCDA0, size: 0x8, addend: 0x0, symName: '+[RNSVGFeColorMatrixManager propConfig_values]', symObjAddr: 0x44, symBinAddr: 0x13ED4, symSize: 0xC }
  - { offset: 0x1BCE58, size: 0x8, addend: 0x0, symName: __GLOBAL__sub_I_RNSVGFeColorMatrixManager.mm, symObjAddr: 0x50, symBinAddr: 0x13EE0, symSize: 0x20 }
  - { offset: 0x1BEEA7, size: 0x8, addend: 0x0, symName: __ZN8facebook5react17HostPlatformColorL14UndefinedColorE, symObjAddr: 0x176668, symBinAddr: 0xB0230, symSize: 0x0 }
  - { offset: 0x1C232E, size: 0x8, addend: 0x0, symName: __ZN8facebook5react38concreteComponentDescriptorConstructorINS0_27ConcreteComponentDescriptorINS0_23RNSVGConcreteShadowNodeIXadL_ZNS0_29RNSVGFeCompositeComponentNameEEENS0_21RNSVGFeCompositePropsEEEEEEENSt3__110unique_ptrIKNS0_19ComponentDescriptorENS7_14default_deleteISA_EEEERKNS0_29ComponentDescriptorParametersE, symObjAddr: 0x1F70, symBinAddr: 0x15088, symSize: 0x34 }
  - { offset: 0x1DE3D0, size: 0x8, addend: 0x0, symName: __ZNSt3__115allocate_sharedB8ne200100IKN8facebook5react21RNSVGFeCompositePropsENS_9allocatorIS3_EEJELi0EEENS_10shared_ptrIT_EERKT0_DpOT1_, symObjAddr: 0xFB0, symBinAddr: 0x14DD4, symSize: 0x48 }
  - { offset: 0x1DED9B, size: 0x8, addend: 0x0, symName: __ZNSt3__112__destroy_atB8ne200100IN8facebook5react21RNSVGFeCompositePropsELi0EEEvPT_, symObjAddr: 0x1E9C, symBinAddr: 0x1500C, symSize: 0x7C }
  - { offset: 0x1DF9B7, size: 0x8, addend: 0x0, symName: __ZNSt3__111make_uniqueB8ne200100IKN8facebook5react27ConcreteComponentDescriptorINS2_23RNSVGConcreteShadowNodeIXadL_ZNS2_29RNSVGFeCompositeComponentNameEEENS2_21RNSVGFeCompositePropsEEEEEJRKNS2_29ComponentDescriptorParametersEELi0EEENS_10unique_ptrIT_NS_14default_deleteISD_EEEEDpOT0_, symObjAddr: 0x1FA4, symBinAddr: 0x150BC, symSize: 0xD4 }
  - { offset: 0x1E032F, size: 0x8, addend: 0x0, symName: __ZNSt3__115allocate_sharedB8ne200100IN8facebook5react23RNSVGConcreteShadowNodeIXadL_ZNS2_29RNSVGFeCompositeComponentNameEEENS2_21RNSVGFeCompositePropsEEENS_9allocatorIS5_EEJRKNS2_18ShadowNodeFragmentERKNS_10shared_ptrIKNS2_16ShadowNodeFamilyEEENS2_16ShadowNodeTraitsEELi0EEENSB_IT_EERKT0_DpOT1_, symObjAddr: 0x2BC8, symBinAddr: 0x159D8, symSize: 0x70 }
  - { offset: 0x1E065E, size: 0x8, addend: 0x0, symName: __ZNSt3__115allocate_sharedB8ne200100IN8facebook5react23RNSVGConcreteShadowNodeIXadL_ZNS2_29RNSVGFeCompositeComponentNameEEENS2_21RNSVGFeCompositePropsEEENS_9allocatorIS5_EEJRKNS2_10ShadowNodeERKNS2_18ShadowNodeFragmentEELi0EEENS_10shared_ptrIT_EERKT0_DpOT1_, symObjAddr: 0x3110, symBinAddr: 0x15C44, symSize: 0x60 }
  - { offset: 0x1E0DA9, size: 0x8, addend: 0x0, symName: __ZNSt3__115allocate_sharedB8ne200100IN8facebook5react16ShadowNodeFamilyENS_9allocatorIS3_EEJRKNS2_24ShadowNodeFamilyFragmentERNS_10shared_ptrIKNS2_20BaseViewEventEmitterEEERKNS_8weak_ptrIKNS2_15EventDispatcherEEERKNS2_27ConcreteComponentDescriptorINS2_23RNSVGConcreteShadowNodeIXadL_ZNS2_29RNSVGFeCompositeComponentNameEEENS2_21RNSVGFeCompositePropsEEEEEELi0EEENS9_IT_EERKT0_DpOT1_, symObjAddr: 0x3CC4, symBinAddr: 0x15EF4, symSize: 0x78 }
  - { offset: 0x1E1B3C, size: 0x8, addend: 0x0, symName: __ZNSt3__115allocate_sharedB8ne200100IN8facebook5react21RNSVGFeCompositePropsENS_9allocatorIS3_EEJRKNS2_18PropsParserContextERKS3_RKNS2_8RawPropsEELi0EEENS_10shared_ptrIT_EERKT0_DpOT1_, symObjAddr: 0x3318, symBinAddr: 0x15DF4, symSize: 0x70 }
  - { offset: 0x1E2EAE, size: 0x8, addend: 0x0, symName: __ZNSt3__112construct_atB8ne200100IN8facebook5react16ShadowNodeFamilyEJRKNS2_24ShadowNodeFamilyFragmentERNS_10shared_ptrIKNS2_20BaseViewEventEmitterEEERKNS_8weak_ptrIKNS2_15EventDispatcherEEERKNS2_27ConcreteComponentDescriptorINS2_23RNSVGConcreteShadowNodeIXadL_ZNS2_29RNSVGFeCompositeComponentNameEEENS2_21RNSVGFeCompositePropsEEEEEEPS3_EEPT_SR_DpOT0_, symObjAddr: 0x3DCC, symBinAddr: 0x15FB8, symSize: 0xDC }
  - { offset: 0x1E42AD, size: 0x8, addend: 0x0, symName: '-[RNSVGFeComposite initWithFrame:]', symObjAddr: 0x34, symBinAddr: 0x13F34, symSize: 0xDC }
  - { offset: 0x1E42D6, size: 0x8, addend: 0x0, symName: '__ZZ34-[RNSVGFeComposite initWithFrame:]E12defaultProps', symObjAddr: 0x176680, symBinAddr: 0xB0248, symSize: 0x0 }
  - { offset: 0x1E7CD9, size: 0x8, addend: 0x0, symName: __ZN8facebook5react18ConcreteShadowNodeIXadL_ZNS0_29RNSVGFeCompositeComponentNameEEENS0_25RNSVGLayoutableShadowNodeENS0_21RNSVGFeCompositePropsENS0_20BaseViewEventEmitterENS0_9StateDataEE18defaultSharedPropsEv, symObjAddr: 0x3224, symBinAddr: 0x15D00, symSize: 0x9C }
  - { offset: 0x1E7CF8, size: 0x8, addend: 0x0, symName: __ZZN8facebook5react18ConcreteShadowNodeIXadL_ZNS0_29RNSVGFeCompositeComponentNameEEENS0_25RNSVGLayoutableShadowNodeENS0_21RNSVGFeCompositePropsENS0_20BaseViewEventEmitterENS0_9StateDataEE18defaultSharedPropsEvE18defaultSharedProps, symObjAddr: 0x5FF0, symBinAddr: 0xAF990, symSize: 0x0 }
  - { offset: 0x1E7FE0, size: 0x8, addend: 0x0, symName: '+[RNSVGFeComposite load]', symObjAddr: 0x0, symBinAddr: 0x13F00, symSize: 0x34 }
  - { offset: 0x1E811F, size: 0x8, addend: 0x0, symName: __ZNSt3__110shared_ptrIKN8facebook5react21RNSVGFeCompositePropsEED1B8ne200100Ev, symObjAddr: 0x110, symBinAddr: 0x14010, symSize: 0x4 }
  - { offset: 0x1E8143, size: 0x8, addend: 0x0, symName: __ZNSt3__110shared_ptrIKN8facebook5react21RNSVGFeCompositePropsEED1B8ne200100Ev, symObjAddr: 0x110, symBinAddr: 0x14010, symSize: 0x4 }
  - { offset: 0x1E834B, size: 0x8, addend: 0x0, symName: '+[RNSVGFeComposite componentDescriptorProvider]', symObjAddr: 0x18C, symBinAddr: 0x14014, symSize: 0x20 }
  - { offset: 0x1E837F, size: 0x8, addend: 0x0, symName: '+[RNSVGFeComposite componentDescriptorProvider]', symObjAddr: 0x18C, symBinAddr: 0x14014, symSize: 0x20 }
  - { offset: 0x1E85A2, size: 0x8, addend: 0x0, symName: '-[RNSVGFeComposite updateProps:oldProps:]', symObjAddr: 0x1AC, symBinAddr: 0x14034, symSize: 0x280 }
  - { offset: 0x1E89E9, size: 0x8, addend: 0x0, symName: __Z20setCommonFilterPropsIN8facebook5react21RNSVGFeCompositePropsEEvRKT_P20RNSVGFilterPrimitive, symObjAddr: 0x42C, symBinAddr: 0x142B4, symSize: 0x224 }
  - { offset: 0x1E8CA3, size: 0x8, addend: 0x0, symName: __ZL28RNSVGConvertFollyDynamicToIdRKN5folly7dynamicE, symObjAddr: 0x3FB0, symBinAddr: 0x16094, symSize: 0x274 }
  - { offset: 0x1E91DF, size: 0x8, addend: 0x0, symName: '-[RNSVGFeComposite prepareForRecycle]', symObjAddr: 0x6B4, symBinAddr: 0x144D8, symSize: 0xC4 }
  - { offset: 0x1E9210, size: 0x8, addend: 0x0, symName: '-[RNSVGFeComposite setIn1:]', symObjAddr: 0x778, symBinAddr: 0x1459C, symSize: 0x78 }
  - { offset: 0x1E9250, size: 0x8, addend: 0x0, symName: '-[RNSVGFeComposite setIn2:]', symObjAddr: 0x7F0, symBinAddr: 0x14614, symSize: 0x78 }
  - { offset: 0x1E9290, size: 0x8, addend: 0x0, symName: '-[RNSVGFeComposite setK1:]', symObjAddr: 0x868, symBinAddr: 0x1468C, symSize: 0x70 }
  - { offset: 0x1E92D0, size: 0x8, addend: 0x0, symName: '-[RNSVGFeComposite setK2:]', symObjAddr: 0x8D8, symBinAddr: 0x146FC, symSize: 0x70 }
  - { offset: 0x1E9310, size: 0x8, addend: 0x0, symName: '-[RNSVGFeComposite setK3:]', symObjAddr: 0x948, symBinAddr: 0x1476C, symSize: 0x70 }
  - { offset: 0x1E9350, size: 0x8, addend: 0x0, symName: '-[RNSVGFeComposite setK4:]', symObjAddr: 0x9B8, symBinAddr: 0x147DC, symSize: 0x70 }
  - { offset: 0x1E9390, size: 0x8, addend: 0x0, symName: '-[RNSVGFeComposite setOperator1:]', symObjAddr: 0xA28, symBinAddr: 0x1484C, symSize: 0x20 }
  - { offset: 0x1E93CD, size: 0x8, addend: 0x0, symName: '-[RNSVGFeComposite applyFilter:previousFilterResult:]', symObjAddr: 0xA48, symBinAddr: 0x1486C, symSize: 0x45C }
  - { offset: 0x1E946B, size: 0x8, addend: 0x0, symName: __Z19RNSVGFeCompositeClsv, symObjAddr: 0xEA4, symBinAddr: 0x14CC8, symSize: 0xC }
  - { offset: 0x1E9489, size: 0x8, addend: 0x0, symName: '-[RNSVGFeComposite in1]', symObjAddr: 0xEB0, symBinAddr: 0x14CD4, symSize: 0x10 }
  - { offset: 0x1E94BF, size: 0x8, addend: 0x0, symName: '-[RNSVGFeComposite in2]', symObjAddr: 0xEC0, symBinAddr: 0x14CE4, symSize: 0x10 }
  - { offset: 0x1E94F5, size: 0x8, addend: 0x0, symName: '-[RNSVGFeComposite operator1]', symObjAddr: 0xED0, symBinAddr: 0x14CF4, symSize: 0x10 }
  - { offset: 0x1E952B, size: 0x8, addend: 0x0, symName: '-[RNSVGFeComposite k1]', symObjAddr: 0xEE0, symBinAddr: 0x14D04, symSize: 0x10 }
  - { offset: 0x1E9561, size: 0x8, addend: 0x0, symName: '-[RNSVGFeComposite k2]', symObjAddr: 0xEF0, symBinAddr: 0x14D14, symSize: 0x10 }
  - { offset: 0x1E9597, size: 0x8, addend: 0x0, symName: '-[RNSVGFeComposite k3]', symObjAddr: 0xF00, symBinAddr: 0x14D24, symSize: 0x10 }
  - { offset: 0x1E95CD, size: 0x8, addend: 0x0, symName: '-[RNSVGFeComposite k4]', symObjAddr: 0xF10, symBinAddr: 0x14D34, symSize: 0x10 }
  - { offset: 0x1E9603, size: 0x8, addend: 0x0, symName: '-[RNSVGFeComposite .cxx_destruct]', symObjAddr: 0xF20, symBinAddr: 0x14D44, symSize: 0x90 }
  - { offset: 0x1E985F, size: 0x8, addend: 0x0, symName: __ZNSt3__120__shared_ptr_emplaceIKN8facebook5react21RNSVGFeCompositePropsENS_9allocatorIS3_EEEC2B8ne200100IJES6_Li0EEES6_DpOT_, symObjAddr: 0xFF8, symBinAddr: 0x14E1C, symSize: 0xB0 }
  - { offset: 0x1EB276, size: 0x8, addend: 0x0, symName: __ZNSt3__120__shared_ptr_emplaceIKN8facebook5react21RNSVGFeCompositePropsENS_9allocatorIS3_EEED1Ev, symObjAddr: 0x10A8, symBinAddr: 0x14ECC, symSize: 0x14 }
  - { offset: 0x1EB29A, size: 0x8, addend: 0x0, symName: __ZNSt3__120__shared_ptr_emplaceIKN8facebook5react21RNSVGFeCompositePropsENS_9allocatorIS3_EEED1Ev, symObjAddr: 0x10A8, symBinAddr: 0x14ECC, symSize: 0x14 }
  - { offset: 0x1EB2D0, size: 0x8, addend: 0x0, symName: __ZNSt3__120__shared_ptr_emplaceIKN8facebook5react21RNSVGFeCompositePropsENS_9allocatorIS3_EEED0Ev, symObjAddr: 0x10BC, symBinAddr: 0x14EE0, symSize: 0x24 }
  - { offset: 0x1EB3A0, size: 0x8, addend: 0x0, symName: __ZNSt3__120__shared_ptr_emplaceIKN8facebook5react21RNSVGFeCompositePropsENS_9allocatorIS3_EEE16__on_zero_sharedEv, symObjAddr: 0x10E0, symBinAddr: 0x14F04, symSize: 0x8 }
  - { offset: 0x1EB3C9, size: 0x8, addend: 0x0, symName: __ZNSt3__120__shared_ptr_emplaceIKN8facebook5react21RNSVGFeCompositePropsENS_9allocatorIS3_EEE16__on_zero_sharedEv, symObjAddr: 0x10E0, symBinAddr: 0x14F04, symSize: 0x8 }
  - { offset: 0x1EB3E8, size: 0x8, addend: 0x0, symName: __ZNSt3__120__shared_ptr_emplaceIKN8facebook5react21RNSVGFeCompositePropsENS_9allocatorIS3_EEE16__on_zero_sharedEv, symObjAddr: 0x10E0, symBinAddr: 0x14F04, symSize: 0x8 }
  - { offset: 0x1EB426, size: 0x8, addend: 0x0, symName: __ZNSt3__120__shared_ptr_emplaceIKN8facebook5react21RNSVGFeCompositePropsENS_9allocatorIS3_EEE21__on_zero_shared_weakEv, symObjAddr: 0x10E8, symBinAddr: 0x14F0C, symSize: 0x4 }
  - { offset: 0x1EB459, size: 0x8, addend: 0x0, symName: __ZNSt3__120__shared_ptr_emplaceIKN8facebook5react21RNSVGFeCompositePropsENS_9allocatorIS3_EEE21__on_zero_shared_weakEv, symObjAddr: 0x10E8, symBinAddr: 0x14F0C, symSize: 0x4 }
  - { offset: 0x1EB47D, size: 0x8, addend: 0x0, symName: __ZNSt3__120__shared_ptr_emplaceIKN8facebook5react21RNSVGFeCompositePropsENS_9allocatorIS3_EEE21__on_zero_shared_weakEv, symObjAddr: 0x10E8, symBinAddr: 0x14F0C, symSize: 0x4 }
  - { offset: 0x1EB4A2, size: 0x8, addend: 0x0, symName: __ZNSt3__120__shared_ptr_emplaceIKN8facebook5react21RNSVGFeCompositePropsENS_9allocatorIS3_EEE21__on_zero_shared_weakEv, symObjAddr: 0x10E8, symBinAddr: 0x14F0C, symSize: 0x4 }
  - { offset: 0x1EB4DA, size: 0x8, addend: 0x0, symName: __ZNSt3__120__shared_ptr_emplaceIKN8facebook5react21RNSVGFeCompositePropsENS_9allocatorIS3_EEE21__on_zero_shared_weakEv, symObjAddr: 0x10E8, symBinAddr: 0x14F0C, symSize: 0x4 }
  - { offset: 0x1EE360, size: 0x8, addend: 0x0, symName: __ZN8facebook5react21RNSVGFeCompositePropsD1Ev, symObjAddr: 0x1608, symBinAddr: 0x14F10, symSize: 0x7C }
  - { offset: 0x1EE7E2, size: 0x8, addend: 0x0, symName: __ZN8facebook5react21RNSVGFeCompositePropsD0Ev, symObjAddr: 0x1684, symBinAddr: 0x14F8C, symSize: 0x80 }
  - { offset: 0x1F06BA, size: 0x8, addend: 0x0, symName: __ZN8facebook5react14RawPropsParser7prepareINS0_21RNSVGFeCompositePropsEEEvv, symObjAddr: 0x20C8, symBinAddr: 0x15190, symSize: 0x2D0 }
  - { offset: 0x1F20EB, size: 0x8, addend: 0x0, symName: __ZN8facebook5react27ConcreteComponentDescriptorINS0_23RNSVGConcreteShadowNodeIXadL_ZNS0_29RNSVGFeCompositeComponentNameEEENS0_21RNSVGFeCompositePropsEEEED1Ev, symObjAddr: 0x2398, symBinAddr: 0x15460, symSize: 0x4 }
  - { offset: 0x1F210F, size: 0x8, addend: 0x0, symName: __ZN8facebook5react27ConcreteComponentDescriptorINS0_23RNSVGConcreteShadowNodeIXadL_ZNS0_29RNSVGFeCompositeComponentNameEEENS0_21RNSVGFeCompositePropsEEEED1Ev, symObjAddr: 0x2398, symBinAddr: 0x15460, symSize: 0x4 }
  - { offset: 0x1F212D, size: 0x8, addend: 0x0, symName: __ZN8facebook5react27ConcreteComponentDescriptorINS0_23RNSVGConcreteShadowNodeIXadL_ZNS0_29RNSVGFeCompositeComponentNameEEENS0_21RNSVGFeCompositePropsEEEED1Ev, symObjAddr: 0x2398, symBinAddr: 0x15460, symSize: 0x4 }
  - { offset: 0x1F2404, size: 0x8, addend: 0x0, symName: __ZN8facebook5react27ConcreteComponentDescriptorINS0_23RNSVGConcreteShadowNodeIXadL_ZNS0_29RNSVGFeCompositeComponentNameEEENS0_21RNSVGFeCompositePropsEEEED0Ev, symObjAddr: 0x239C, symBinAddr: 0x15464, symSize: 0x14 }
  - { offset: 0x1F2480, size: 0x8, addend: 0x0, symName: __ZNK8facebook5react27ConcreteComponentDescriptorINS0_23RNSVGConcreteShadowNodeIXadL_ZNS0_29RNSVGFeCompositeComponentNameEEENS0_21RNSVGFeCompositePropsEEEE18getComponentHandleEv, symObjAddr: 0x23B0, symBinAddr: 0x15478, symSize: 0xC }
  - { offset: 0x1F24A6, size: 0x8, addend: 0x0, symName: __ZNK8facebook5react27ConcreteComponentDescriptorINS0_23RNSVGConcreteShadowNodeIXadL_ZNS0_29RNSVGFeCompositeComponentNameEEENS0_21RNSVGFeCompositePropsEEEE16getComponentNameEv, symObjAddr: 0x23BC, symBinAddr: 0x15484, symSize: 0xC }
  - { offset: 0x1F24CC, size: 0x8, addend: 0x0, symName: __ZNK8facebook5react27ConcreteComponentDescriptorINS0_23RNSVGConcreteShadowNodeIXadL_ZNS0_29RNSVGFeCompositeComponentNameEEENS0_21RNSVGFeCompositePropsEEEE9getTraitsEv, symObjAddr: 0x23C8, symBinAddr: 0x15490, symSize: 0x8 }
  - { offset: 0x1F25C6, size: 0x8, addend: 0x0, symName: __ZNK8facebook5react27ConcreteComponentDescriptorINS0_23RNSVGConcreteShadowNodeIXadL_ZNS0_29RNSVGFeCompositeComponentNameEEENS0_21RNSVGFeCompositePropsEEEE16createShadowNodeERKNS0_18ShadowNodeFragmentERKNSt3__110shared_ptrIKNS0_16ShadowNodeFamilyEEE, symObjAddr: 0x23D0, symBinAddr: 0x15498, symSize: 0x90 }
  - { offset: 0x1F2852, size: 0x8, addend: 0x0, symName: __ZNK8facebook5react27ConcreteComponentDescriptorINS0_23RNSVGConcreteShadowNodeIXadL_ZNS0_29RNSVGFeCompositeComponentNameEEENS0_21RNSVGFeCompositePropsEEEE15cloneShadowNodeERKNS0_10ShadowNodeERKNS0_18ShadowNodeFragmentE, symObjAddr: 0x2460, symBinAddr: 0x15528, symSize: 0x104 }
  - { offset: 0x1F2BDF, size: 0x8, addend: 0x0, symName: __ZNK8facebook5react27ConcreteComponentDescriptorINS0_23RNSVGConcreteShadowNodeIXadL_ZNS0_29RNSVGFeCompositeComponentNameEEENS0_21RNSVGFeCompositePropsEEEE11appendChildERKNSt3__110shared_ptrIKNS0_10ShadowNodeEEESC_, symObjAddr: 0x2564, symBinAddr: 0x1562C, symSize: 0x14 }
  - { offset: 0x1F2C35, size: 0x8, addend: 0x0, symName: __ZNK8facebook5react27ConcreteComponentDescriptorINS0_23RNSVGConcreteShadowNodeIXadL_ZNS0_29RNSVGFeCompositeComponentNameEEENS0_21RNSVGFeCompositePropsEEEE11appendChildERKNSt3__110shared_ptrIKNS0_10ShadowNodeEEESC_, symObjAddr: 0x2564, symBinAddr: 0x1562C, symSize: 0x14 }
  - { offset: 0x1F3497, size: 0x8, addend: 0x0, symName: __ZNK8facebook5react27ConcreteComponentDescriptorINS0_23RNSVGConcreteShadowNodeIXadL_ZNS0_29RNSVGFeCompositeComponentNameEEENS0_21RNSVGFeCompositePropsEEEE10clonePropsERKNS0_18PropsParserContextERKNSt3__110shared_ptrIKNS0_5PropsEEENS0_8RawPropsE, symObjAddr: 0x2578, symBinAddr: 0x15640, symSize: 0x21C }
  - { offset: 0x1F4031, size: 0x8, addend: 0x0, symName: __ZN8facebook5react18ConcreteShadowNodeIXadL_ZNS0_29RNSVGFeCompositeComponentNameEEENS0_25RNSVGLayoutableShadowNodeENS0_21RNSVGFeCompositePropsENS0_20BaseViewEventEmitterENS0_9StateDataEE5PropsERKNS0_18PropsParserContextERKNS0_8RawPropsERKNSt3__110shared_ptrIKNS0_5PropsEEE, symObjAddr: 0x32C0, symBinAddr: 0x15D9C, symSize: 0x58 }
  - { offset: 0x1F429B, size: 0x8, addend: 0x0, symName: __ZNK8facebook5react27ConcreteComponentDescriptorINS0_23RNSVGConcreteShadowNodeIXadL_ZNS0_29RNSVGFeCompositeComponentNameEEENS0_21RNSVGFeCompositePropsEEEE18createInitialStateERKNSt3__110shared_ptrIKNS0_5PropsEEERKNS7_IKNS0_16ShadowNodeFamilyEEE, symObjAddr: 0x2794, symBinAddr: 0x1585C, symSize: 0x8 }
  - { offset: 0x1F42DF, size: 0x8, addend: 0x0, symName: __ZNK8facebook5react27ConcreteComponentDescriptorINS0_23RNSVGConcreteShadowNodeIXadL_ZNS0_29RNSVGFeCompositeComponentNameEEENS0_21RNSVGFeCompositePropsEEEE18createInitialStateERKNSt3__110shared_ptrIKNS0_5PropsEEERKNS7_IKNS0_16ShadowNodeFamilyEEE, symObjAddr: 0x2794, symBinAddr: 0x1585C, symSize: 0x8 }
  - { offset: 0x1F4303, size: 0x8, addend: 0x0, symName: __ZNK8facebook5react27ConcreteComponentDescriptorINS0_23RNSVGConcreteShadowNodeIXadL_ZNS0_29RNSVGFeCompositeComponentNameEEENS0_21RNSVGFeCompositePropsEEEE18createInitialStateERKNSt3__110shared_ptrIKNS0_5PropsEEERKNS7_IKNS0_16ShadowNodeFamilyEEE, symObjAddr: 0x2794, symBinAddr: 0x1585C, symSize: 0x8 }
  - { offset: 0x1F4327, size: 0x8, addend: 0x0, symName: __ZNK8facebook5react27ConcreteComponentDescriptorINS0_23RNSVGConcreteShadowNodeIXadL_ZNS0_29RNSVGFeCompositeComponentNameEEENS0_21RNSVGFeCompositePropsEEEE11createStateERKNS0_16ShadowNodeFamilyERKNSt3__110shared_ptrIKvEE, symObjAddr: 0x279C, symBinAddr: 0x15864, symSize: 0x8 }
  - { offset: 0x1F436B, size: 0x8, addend: 0x0, symName: __ZNK8facebook5react27ConcreteComponentDescriptorINS0_23RNSVGConcreteShadowNodeIXadL_ZNS0_29RNSVGFeCompositeComponentNameEEENS0_21RNSVGFeCompositePropsEEEE11createStateERKNS0_16ShadowNodeFamilyERKNSt3__110shared_ptrIKvEE, symObjAddr: 0x279C, symBinAddr: 0x15864, symSize: 0x8 }
  - { offset: 0x1F438F, size: 0x8, addend: 0x0, symName: __ZNK8facebook5react27ConcreteComponentDescriptorINS0_23RNSVGConcreteShadowNodeIXadL_ZNS0_29RNSVGFeCompositeComponentNameEEENS0_21RNSVGFeCompositePropsEEEE11createStateERKNS0_16ShadowNodeFamilyERKNSt3__110shared_ptrIKvEE, symObjAddr: 0x279C, symBinAddr: 0x15864, symSize: 0x8 }
  - { offset: 0x1F459B, size: 0x8, addend: 0x0, symName: __ZNK8facebook5react27ConcreteComponentDescriptorINS0_23RNSVGConcreteShadowNodeIXadL_ZNS0_29RNSVGFeCompositeComponentNameEEENS0_21RNSVGFeCompositePropsEEEE12createFamilyERKNS0_24ShadowNodeFamilyFragmentE, symObjAddr: 0x27A4, symBinAddr: 0x1586C, symSize: 0x168 }
  - { offset: 0x1F4B2A, size: 0x8, addend: 0x0, symName: __ZNK8facebook5react27ConcreteComponentDescriptorINS0_23RNSVGConcreteShadowNodeIXadL_ZNS0_29RNSVGFeCompositeComponentNameEEENS0_21RNSVGFeCompositePropsEEEE5adoptERNS0_10ShadowNodeE, symObjAddr: 0x290C, symBinAddr: 0x159D4, symSize: 0x4 }
  - { offset: 0x1F5383, size: 0x8, addend: 0x0, symName: __ZNSt3__120__shared_ptr_emplaceIN8facebook5react23RNSVGConcreteShadowNodeIXadL_ZNS2_29RNSVGFeCompositeComponentNameEEENS2_21RNSVGFeCompositePropsEEENS_9allocatorIS5_EEEC2B8ne200100IJRKNS2_18ShadowNodeFragmentERKNS_10shared_ptrIKNS2_16ShadowNodeFamilyEEENS2_16ShadowNodeTraitsEES7_Li0EEES7_DpOT_, symObjAddr: 0x2C38, symBinAddr: 0x15A48, symSize: 0x60 }
  - { offset: 0x1F56A7, size: 0x8, addend: 0x0, symName: __ZNSt3__120__shared_ptr_emplaceIN8facebook5react23RNSVGConcreteShadowNodeIXadL_ZNS2_29RNSVGFeCompositeComponentNameEEENS2_21RNSVGFeCompositePropsEEENS_9allocatorIS5_EEED1Ev, symObjAddr: 0x2C98, symBinAddr: 0x15AA8, symSize: 0x14 }
  - { offset: 0x1F56CB, size: 0x8, addend: 0x0, symName: __ZNSt3__120__shared_ptr_emplaceIN8facebook5react23RNSVGConcreteShadowNodeIXadL_ZNS2_29RNSVGFeCompositeComponentNameEEENS2_21RNSVGFeCompositePropsEEENS_9allocatorIS5_EEED1Ev, symObjAddr: 0x2C98, symBinAddr: 0x15AA8, symSize: 0x14 }
  - { offset: 0x1F5701, size: 0x8, addend: 0x0, symName: __ZNSt3__120__shared_ptr_emplaceIN8facebook5react23RNSVGConcreteShadowNodeIXadL_ZNS2_29RNSVGFeCompositeComponentNameEEENS2_21RNSVGFeCompositePropsEEENS_9allocatorIS5_EEED0Ev, symObjAddr: 0x2CAC, symBinAddr: 0x15ABC, symSize: 0x24 }
  - { offset: 0x1F57D1, size: 0x8, addend: 0x0, symName: __ZNSt3__120__shared_ptr_emplaceIN8facebook5react23RNSVGConcreteShadowNodeIXadL_ZNS2_29RNSVGFeCompositeComponentNameEEENS2_21RNSVGFeCompositePropsEEENS_9allocatorIS5_EEE16__on_zero_sharedEv, symObjAddr: 0x2CD0, symBinAddr: 0x15AE0, symSize: 0xC }
  - { offset: 0x1F57FA, size: 0x8, addend: 0x0, symName: __ZNSt3__120__shared_ptr_emplaceIN8facebook5react23RNSVGConcreteShadowNodeIXadL_ZNS2_29RNSVGFeCompositeComponentNameEEENS2_21RNSVGFeCompositePropsEEENS_9allocatorIS5_EEE16__on_zero_sharedEv, symObjAddr: 0x2CD0, symBinAddr: 0x15AE0, symSize: 0xC }
  - { offset: 0x1F5819, size: 0x8, addend: 0x0, symName: __ZNSt3__120__shared_ptr_emplaceIN8facebook5react23RNSVGConcreteShadowNodeIXadL_ZNS2_29RNSVGFeCompositeComponentNameEEENS2_21RNSVGFeCompositePropsEEENS_9allocatorIS5_EEE16__on_zero_sharedEv, symObjAddr: 0x2CD0, symBinAddr: 0x15AE0, symSize: 0xC }
  - { offset: 0x1F5838, size: 0x8, addend: 0x0, symName: __ZNSt3__120__shared_ptr_emplaceIN8facebook5react23RNSVGConcreteShadowNodeIXadL_ZNS2_29RNSVGFeCompositeComponentNameEEENS2_21RNSVGFeCompositePropsEEENS_9allocatorIS5_EEE16__on_zero_sharedEv, symObjAddr: 0x2CD0, symBinAddr: 0x15AE0, symSize: 0xC }
  - { offset: 0x1F5864, size: 0x8, addend: 0x0, symName: __ZNSt3__120__shared_ptr_emplaceIN8facebook5react23RNSVGConcreteShadowNodeIXadL_ZNS2_29RNSVGFeCompositeComponentNameEEENS2_21RNSVGFeCompositePropsEEENS_9allocatorIS5_EEE21__on_zero_shared_weakEv, symObjAddr: 0x2CDC, symBinAddr: 0x15AEC, symSize: 0x4 }
  - { offset: 0x1F5897, size: 0x8, addend: 0x0, symName: __ZNSt3__120__shared_ptr_emplaceIN8facebook5react23RNSVGConcreteShadowNodeIXadL_ZNS2_29RNSVGFeCompositeComponentNameEEENS2_21RNSVGFeCompositePropsEEENS_9allocatorIS5_EEE21__on_zero_shared_weakEv, symObjAddr: 0x2CDC, symBinAddr: 0x15AEC, symSize: 0x4 }
  - { offset: 0x1F58BB, size: 0x8, addend: 0x0, symName: __ZNSt3__120__shared_ptr_emplaceIN8facebook5react23RNSVGConcreteShadowNodeIXadL_ZNS2_29RNSVGFeCompositeComponentNameEEENS2_21RNSVGFeCompositePropsEEENS_9allocatorIS5_EEE21__on_zero_shared_weakEv, symObjAddr: 0x2CDC, symBinAddr: 0x15AEC, symSize: 0x4 }
  - { offset: 0x1F58E0, size: 0x8, addend: 0x0, symName: __ZNSt3__120__shared_ptr_emplaceIN8facebook5react23RNSVGConcreteShadowNodeIXadL_ZNS2_29RNSVGFeCompositeComponentNameEEENS2_21RNSVGFeCompositePropsEEENS_9allocatorIS5_EEE21__on_zero_shared_weakEv, symObjAddr: 0x2CDC, symBinAddr: 0x15AEC, symSize: 0x4 }
  - { offset: 0x1F5918, size: 0x8, addend: 0x0, symName: __ZNSt3__120__shared_ptr_emplaceIN8facebook5react23RNSVGConcreteShadowNodeIXadL_ZNS2_29RNSVGFeCompositeComponentNameEEENS2_21RNSVGFeCompositePropsEEENS_9allocatorIS5_EEE21__on_zero_shared_weakEv, symObjAddr: 0x2CDC, symBinAddr: 0x15AEC, symSize: 0x4 }
  - { offset: 0x1F5B98, size: 0x8, addend: 0x0, symName: __ZN8facebook5react23RNSVGConcreteShadowNodeIXadL_ZNS0_29RNSVGFeCompositeComponentNameEEENS0_21RNSVGFeCompositePropsEED1Ev, symObjAddr: 0x2CE0, symBinAddr: 0x15AF0, symSize: 0x70 }
  - { offset: 0x1F6149, size: 0x8, addend: 0x0, symName: __ZN8facebook5react23RNSVGConcreteShadowNodeIXadL_ZNS0_29RNSVGFeCompositeComponentNameEEENS0_21RNSVGFeCompositePropsEED0Ev, symObjAddr: 0x2D50, symBinAddr: 0x15B60, symSize: 0x74 }
  - { offset: 0x1F658F, size: 0x8, addend: 0x0, symName: __ZNK8facebook5react23RNSVGConcreteShadowNodeIXadL_ZNS0_29RNSVGFeCompositeComponentNameEEENS0_21RNSVGFeCompositePropsEE12getTransformEv, symObjAddr: 0x2DC4, symBinAddr: 0x15BD4, symSize: 0x40 }
  - { offset: 0x1F6602, size: 0x8, addend: 0x0, symName: __ZNK8facebook5react23RNSVGConcreteShadowNodeIXadL_ZNS0_29RNSVGFeCompositeComponentNameEEENS0_21RNSVGFeCompositePropsEE16canBeTouchTargetEv, symObjAddr: 0x2E04, symBinAddr: 0x15C14, symSize: 0x18 }
  - { offset: 0x1F663A, size: 0x8, addend: 0x0, symName: __ZNK8facebook5react23RNSVGConcreteShadowNodeIXadL_ZNS0_29RNSVGFeCompositeComponentNameEEENS0_21RNSVGFeCompositePropsEE16canBeTouchTargetEv, symObjAddr: 0x2E04, symBinAddr: 0x15C14, symSize: 0x18 }
  - { offset: 0x1F6657, size: 0x8, addend: 0x0, symName: __ZNK8facebook5react23RNSVGConcreteShadowNodeIXadL_ZNS0_29RNSVGFeCompositeComponentNameEEENS0_21RNSVGFeCompositePropsEE16canBeTouchTargetEv, symObjAddr: 0x2E04, symBinAddr: 0x15C14, symSize: 0x18 }
  - { offset: 0x1F6675, size: 0x8, addend: 0x0, symName: __ZNK8facebook5react23RNSVGConcreteShadowNodeIXadL_ZNS0_29RNSVGFeCompositeComponentNameEEENS0_21RNSVGFeCompositePropsEE24canChildrenBeTouchTargetEv, symObjAddr: 0x2E1C, symBinAddr: 0x15C2C, symSize: 0x18 }
  - { offset: 0x1F66A9, size: 0x8, addend: 0x0, symName: __ZNK8facebook5react23RNSVGConcreteShadowNodeIXadL_ZNS0_29RNSVGFeCompositeComponentNameEEENS0_21RNSVGFeCompositePropsEE24canChildrenBeTouchTargetEv, symObjAddr: 0x2E1C, symBinAddr: 0x15C2C, symSize: 0x18 }
  - { offset: 0x1F66C6, size: 0x8, addend: 0x0, symName: __ZNK8facebook5react23RNSVGConcreteShadowNodeIXadL_ZNS0_29RNSVGFeCompositeComponentNameEEENS0_21RNSVGFeCompositePropsEE24canChildrenBeTouchTargetEv, symObjAddr: 0x2E1C, symBinAddr: 0x15C2C, symSize: 0x18 }
  - { offset: 0x1F6ABF, size: 0x8, addend: 0x0, symName: __ZNSt3__120__shared_ptr_emplaceIN8facebook5react23RNSVGConcreteShadowNodeIXadL_ZNS2_29RNSVGFeCompositeComponentNameEEENS2_21RNSVGFeCompositePropsEEENS_9allocatorIS5_EEEC2B8ne200100IJRKNS2_10ShadowNodeERKNS2_18ShadowNodeFragmentEES7_Li0EEES7_DpOT_, symObjAddr: 0x3170, symBinAddr: 0x15CA4, symSize: 0x5C }
  - { offset: 0x1F6FBA, size: 0x8, addend: 0x0, symName: __ZNSt3__120__shared_ptr_emplaceIN8facebook5react21RNSVGFeCompositePropsENS_9allocatorIS3_EEEC2B8ne200100IJRKNS2_18PropsParserContextERKS3_RKNS2_8RawPropsEES5_Li0EEES5_DpOT_, symObjAddr: 0x3388, symBinAddr: 0x15E64, symSize: 0x4C }
  - { offset: 0x1F71A8, size: 0x8, addend: 0x0, symName: __ZNSt3__120__shared_ptr_emplaceIN8facebook5react21RNSVGFeCompositePropsENS_9allocatorIS3_EEED1Ev, symObjAddr: 0x33D4, symBinAddr: 0x15EB0, symSize: 0x14 }
  - { offset: 0x1F71CC, size: 0x8, addend: 0x0, symName: __ZNSt3__120__shared_ptr_emplaceIN8facebook5react21RNSVGFeCompositePropsENS_9allocatorIS3_EEED1Ev, symObjAddr: 0x33D4, symBinAddr: 0x15EB0, symSize: 0x14 }
  - { offset: 0x1F7202, size: 0x8, addend: 0x0, symName: __ZNSt3__120__shared_ptr_emplaceIN8facebook5react21RNSVGFeCompositePropsENS_9allocatorIS3_EEED0Ev, symObjAddr: 0x33E8, symBinAddr: 0x15EC4, symSize: 0x24 }
  - { offset: 0x1F72A3, size: 0x8, addend: 0x0, symName: __ZNSt3__120__shared_ptr_emplaceIN8facebook5react21RNSVGFeCompositePropsENS_9allocatorIS3_EEE16__on_zero_sharedEv, symObjAddr: 0x340C, symBinAddr: 0x15EE8, symSize: 0x8 }
  - { offset: 0x1F72CC, size: 0x8, addend: 0x0, symName: __ZNSt3__120__shared_ptr_emplaceIN8facebook5react21RNSVGFeCompositePropsENS_9allocatorIS3_EEE16__on_zero_sharedEv, symObjAddr: 0x340C, symBinAddr: 0x15EE8, symSize: 0x8 }
  - { offset: 0x1F72EB, size: 0x8, addend: 0x0, symName: __ZNSt3__120__shared_ptr_emplaceIN8facebook5react21RNSVGFeCompositePropsENS_9allocatorIS3_EEE16__on_zero_sharedEv, symObjAddr: 0x340C, symBinAddr: 0x15EE8, symSize: 0x8 }
  - { offset: 0x1F7329, size: 0x8, addend: 0x0, symName: __ZNSt3__120__shared_ptr_emplaceIN8facebook5react21RNSVGFeCompositePropsENS_9allocatorIS3_EEE21__on_zero_shared_weakEv, symObjAddr: 0x3414, symBinAddr: 0x15EF0, symSize: 0x4 }
  - { offset: 0x1F735C, size: 0x8, addend: 0x0, symName: __ZNSt3__120__shared_ptr_emplaceIN8facebook5react21RNSVGFeCompositePropsENS_9allocatorIS3_EEE21__on_zero_shared_weakEv, symObjAddr: 0x3414, symBinAddr: 0x15EF0, symSize: 0x4 }
  - { offset: 0x1F7380, size: 0x8, addend: 0x0, symName: __ZNSt3__120__shared_ptr_emplaceIN8facebook5react21RNSVGFeCompositePropsENS_9allocatorIS3_EEE21__on_zero_shared_weakEv, symObjAddr: 0x3414, symBinAddr: 0x15EF0, symSize: 0x4 }
  - { offset: 0x1F73A5, size: 0x8, addend: 0x0, symName: __ZNSt3__120__shared_ptr_emplaceIN8facebook5react21RNSVGFeCompositePropsENS_9allocatorIS3_EEE21__on_zero_shared_weakEv, symObjAddr: 0x3414, symBinAddr: 0x15EF0, symSize: 0x4 }
  - { offset: 0x1F73DD, size: 0x8, addend: 0x0, symName: __ZNSt3__120__shared_ptr_emplaceIN8facebook5react21RNSVGFeCompositePropsENS_9allocatorIS3_EEE21__on_zero_shared_weakEv, symObjAddr: 0x3414, symBinAddr: 0x15EF0, symSize: 0x4 }
  - { offset: 0x1F86C2, size: 0x8, addend: 0x0, symName: __ZNSt3__120__shared_ptr_emplaceIN8facebook5react16ShadowNodeFamilyENS_9allocatorIS3_EEEC2B8ne200100IJRKNS2_24ShadowNodeFamilyFragmentERNS_10shared_ptrIKNS2_20BaseViewEventEmitterEEERKNS_8weak_ptrIKNS2_15EventDispatcherEEERKNS2_27ConcreteComponentDescriptorINS2_23RNSVGConcreteShadowNodeIXadL_ZNS2_29RNSVGFeCompositeComponentNameEEENS2_21RNSVGFeCompositePropsEEEEEES5_Li0EEES5_DpOT_, symObjAddr: 0x3D3C, symBinAddr: 0x15F6C, symSize: 0x4C }
  - { offset: 0x1F8C2A, size: 0x8, addend: 0x0, symName: __GLOBAL__sub_I_RNSVGFeComposite.mm, symObjAddr: 0x46E8, symBinAddr: 0x16308, symSize: 0x20 }
  - { offset: 0x1FB089, size: 0x8, addend: 0x0, symName: __ZN8facebook5react17HostPlatformColorL14UndefinedColorE, symObjAddr: 0xDE7B8, symBinAddr: 0xB0260, symSize: 0x0 }
  - { offset: 0x1FBD77, size: 0x8, addend: 0x0, symName: '+[RNSVGFeCompositeManager moduleName]', symObjAddr: 0x0, symBinAddr: 0x16328, symSize: 0xC }
  - { offset: 0x1FBDA8, size: 0x8, addend: 0x0, symName: '+[RNSVGFeCompositeManager load]', symObjAddr: 0xC, symBinAddr: 0x16334, symSize: 0x4 }
  - { offset: 0x1FBDDB, size: 0x8, addend: 0x0, symName: '+[RNSVGFeCompositeManager load]', symObjAddr: 0xC, symBinAddr: 0x16334, symSize: 0x4 }
  - { offset: 0x1FBDFA, size: 0x8, addend: 0x0, symName: '-[RNSVGFeCompositeManager node]', symObjAddr: 0x10, symBinAddr: 0x16338, symSize: 0x1C }
  - { offset: 0x1FBE2B, size: 0x8, addend: 0x0, symName: '+[RNSVGFeCompositeManager propConfig_in1]', symObjAddr: 0x2C, symBinAddr: 0x16354, symSize: 0xC }
  - { offset: 0x1FBE5C, size: 0x8, addend: 0x0, symName: '+[RNSVGFeCompositeManager propConfig_in2]', symObjAddr: 0x38, symBinAddr: 0x16360, symSize: 0xC }
  - { offset: 0x1FBE8D, size: 0x8, addend: 0x0, symName: '+[RNSVGFeCompositeManager propConfig_operator1]', symObjAddr: 0x44, symBinAddr: 0x1636C, symSize: 0xC }
  - { offset: 0x1FBEBE, size: 0x8, addend: 0x0, symName: '+[RNSVGFeCompositeManager propConfig_k1]', symObjAddr: 0x50, symBinAddr: 0x16378, symSize: 0xC }
  - { offset: 0x1FBEEF, size: 0x8, addend: 0x0, symName: '+[RNSVGFeCompositeManager propConfig_k2]', symObjAddr: 0x5C, symBinAddr: 0x16384, symSize: 0xC }
  - { offset: 0x1FBF20, size: 0x8, addend: 0x0, symName: '+[RNSVGFeCompositeManager propConfig_k3]', symObjAddr: 0x68, symBinAddr: 0x16390, symSize: 0xC }
  - { offset: 0x1FBF51, size: 0x8, addend: 0x0, symName: '+[RNSVGFeCompositeManager propConfig_k4]', symObjAddr: 0x74, symBinAddr: 0x1639C, symSize: 0xC }
  - { offset: 0x1FC009, size: 0x8, addend: 0x0, symName: __GLOBAL__sub_I_RNSVGFeCompositeManager.mm, symObjAddr: 0x80, symBinAddr: 0x163A8, symSize: 0x20 }
  - { offset: 0x1FE094, size: 0x8, addend: 0x0, symName: __ZN8facebook5react17HostPlatformColorL14UndefinedColorE, symObjAddr: 0x172350, symBinAddr: 0xB0278, symSize: 0x0 }
  - { offset: 0x2014CB, size: 0x8, addend: 0x0, symName: __ZN8facebook5react38concreteComponentDescriptorConstructorINS0_27ConcreteComponentDescriptorINS0_23RNSVGConcreteShadowNodeIXadL_ZNS0_25RNSVGFeFloodComponentNameEEENS0_17RNSVGFeFloodPropsEEEEEEENSt3__110unique_ptrIKNS0_19ComponentDescriptorENS7_14default_deleteISA_EEEERKNS0_29ComponentDescriptorParametersE, symObjAddr: 0x1B18, symBinAddr: 0x16EF4, symSize: 0x34 }
  - { offset: 0x21D56D, size: 0x8, addend: 0x0, symName: __ZNSt3__115allocate_sharedB8ne200100IKN8facebook5react17RNSVGFeFloodPropsENS_9allocatorIS3_EEJELi0EEENS_10shared_ptrIT_EERKT0_DpOT1_, symObjAddr: 0xBB0, symBinAddr: 0x16C88, symSize: 0x48 }
  - { offset: 0x21E120, size: 0x8, addend: 0x0, symName: __ZNSt3__112__destroy_atB8ne200100IN8facebook5react17RNSVGFeFloodPropsELi0EEEvPT_, symObjAddr: 0x1A5C, symBinAddr: 0x16E90, symSize: 0x64 }
  - { offset: 0x21EAA6, size: 0x8, addend: 0x0, symName: __ZNSt3__111make_uniqueB8ne200100IKN8facebook5react27ConcreteComponentDescriptorINS2_23RNSVGConcreteShadowNodeIXadL_ZNS2_25RNSVGFeFloodComponentNameEEENS2_17RNSVGFeFloodPropsEEEEEJRKNS2_29ComponentDescriptorParametersEELi0EEENS_10unique_ptrIT_NS_14default_deleteISD_EEEEDpOT0_, symObjAddr: 0x1B4C, symBinAddr: 0x16F28, symSize: 0xD4 }
  - { offset: 0x21F41E, size: 0x8, addend: 0x0, symName: __ZNSt3__115allocate_sharedB8ne200100IN8facebook5react23RNSVGConcreteShadowNodeIXadL_ZNS2_25RNSVGFeFloodComponentNameEEENS2_17RNSVGFeFloodPropsEEENS_9allocatorIS5_EEJRKNS2_18ShadowNodeFragmentERKNS_10shared_ptrIKNS2_16ShadowNodeFamilyEEENS2_16ShadowNodeTraitsEELi0EEENSB_IT_EERKT0_DpOT1_, symObjAddr: 0x2740, symBinAddr: 0x17814, symSize: 0x70 }
  - { offset: 0x21F74D, size: 0x8, addend: 0x0, symName: __ZNSt3__115allocate_sharedB8ne200100IN8facebook5react23RNSVGConcreteShadowNodeIXadL_ZNS2_25RNSVGFeFloodComponentNameEEENS2_17RNSVGFeFloodPropsEEENS_9allocatorIS5_EEJRKNS2_10ShadowNodeERKNS2_18ShadowNodeFragmentEELi0EEENS_10shared_ptrIT_EERKT0_DpOT1_, symObjAddr: 0x2C88, symBinAddr: 0x17A80, symSize: 0x60 }
  - { offset: 0x21FE98, size: 0x8, addend: 0x0, symName: __ZNSt3__115allocate_sharedB8ne200100IN8facebook5react16ShadowNodeFamilyENS_9allocatorIS3_EEJRKNS2_24ShadowNodeFamilyFragmentERNS_10shared_ptrIKNS2_20BaseViewEventEmitterEEERKNS_8weak_ptrIKNS2_15EventDispatcherEEERKNS2_27ConcreteComponentDescriptorINS2_23RNSVGConcreteShadowNodeIXadL_ZNS2_25RNSVGFeFloodComponentNameEEENS2_17RNSVGFeFloodPropsEEEEEELi0EEENS9_IT_EERKT0_DpOT1_, symObjAddr: 0x3638, symBinAddr: 0x17D30, symSize: 0x78 }
  - { offset: 0x220C2B, size: 0x8, addend: 0x0, symName: __ZNSt3__115allocate_sharedB8ne200100IN8facebook5react17RNSVGFeFloodPropsENS_9allocatorIS3_EEJRKNS2_18PropsParserContextERKS3_RKNS2_8RawPropsEELi0EEENS_10shared_ptrIT_EERKT0_DpOT1_, symObjAddr: 0x2E90, symBinAddr: 0x17C30, symSize: 0x70 }
  - { offset: 0x221E38, size: 0x8, addend: 0x0, symName: __ZNSt3__112construct_atB8ne200100IN8facebook5react16ShadowNodeFamilyEJRKNS2_24ShadowNodeFamilyFragmentERNS_10shared_ptrIKNS2_20BaseViewEventEmitterEEERKNS_8weak_ptrIKNS2_15EventDispatcherEEERKNS2_27ConcreteComponentDescriptorINS2_23RNSVGConcreteShadowNodeIXadL_ZNS2_25RNSVGFeFloodComponentNameEEENS2_17RNSVGFeFloodPropsEEEEEEPS3_EEPT_SR_DpOT0_, symObjAddr: 0x3740, symBinAddr: 0x17DF4, symSize: 0xDC }
  - { offset: 0x223220, size: 0x8, addend: 0x0, symName: '-[RNSVGFeFlood initWithFrame:]', symObjAddr: 0x34, symBinAddr: 0x163FC, symSize: 0xDC }
  - { offset: 0x223249, size: 0x8, addend: 0x0, symName: '__ZZ30-[RNSVGFeFlood initWithFrame:]E12defaultProps', symObjAddr: 0x172368, symBinAddr: 0xB0290, symSize: 0x0 }
  - { offset: 0x226C4D, size: 0x8, addend: 0x0, symName: __ZN8facebook5react18ConcreteShadowNodeIXadL_ZNS0_25RNSVGFeFloodComponentNameEEENS0_25RNSVGLayoutableShadowNodeENS0_17RNSVGFeFloodPropsENS0_20BaseViewEventEmitterENS0_9StateDataEE18defaultSharedPropsEv, symObjAddr: 0x2D9C, symBinAddr: 0x17B3C, symSize: 0x9C }
  - { offset: 0x226C6C, size: 0x8, addend: 0x0, symName: __ZZN8facebook5react18ConcreteShadowNodeIXadL_ZNS0_25RNSVGFeFloodComponentNameEEENS0_25RNSVGLayoutableShadowNodeENS0_17RNSVGFeFloodPropsENS0_20BaseViewEventEmitterENS0_9StateDataEE18defaultSharedPropsEvE18defaultSharedProps, symObjAddr: 0x5078, symBinAddr: 0xAF9A8, symSize: 0x0 }
  - { offset: 0x226EBE, size: 0x8, addend: 0x0, symName: '+[RNSVGFeFlood load]', symObjAddr: 0x0, symBinAddr: 0x163C8, symSize: 0x34 }
  - { offset: 0x226FFD, size: 0x8, addend: 0x0, symName: __ZNSt3__110shared_ptrIKN8facebook5react17RNSVGFeFloodPropsEED1B8ne200100Ev, symObjAddr: 0x110, symBinAddr: 0x164D8, symSize: 0x4 }
  - { offset: 0x227021, size: 0x8, addend: 0x0, symName: __ZNSt3__110shared_ptrIKN8facebook5react17RNSVGFeFloodPropsEED1B8ne200100Ev, symObjAddr: 0x110, symBinAddr: 0x164D8, symSize: 0x4 }
  - { offset: 0x227229, size: 0x8, addend: 0x0, symName: '+[RNSVGFeFlood componentDescriptorProvider]', symObjAddr: 0x18C, symBinAddr: 0x164DC, symSize: 0x20 }
  - { offset: 0x22725D, size: 0x8, addend: 0x0, symName: '+[RNSVGFeFlood componentDescriptorProvider]', symObjAddr: 0x18C, symBinAddr: 0x164DC, symSize: 0x20 }
  - { offset: 0x22739E, size: 0x8, addend: 0x0, symName: '-[RNSVGFeFlood updateProps:oldProps:]', symObjAddr: 0x1AC, symBinAddr: 0x164FC, symSize: 0x120 }
  - { offset: 0x227611, size: 0x8, addend: 0x0, symName: __ZL28RNSVGConvertFollyDynamicToIdRKN5folly7dynamicE, symObjAddr: 0x2CC, symBinAddr: 0x1661C, symSize: 0x274 }
  - { offset: 0x227AE3, size: 0x8, addend: 0x0, symName: __Z20setCommonFilterPropsIN8facebook5react17RNSVGFeFloodPropsEEvRKT_P20RNSVGFilterPrimitive, symObjAddr: 0x540, symBinAddr: 0x16890, symSize: 0x224 }
  - { offset: 0x2281DB, size: 0x8, addend: 0x0, symName: '-[RNSVGFeFlood prepareForRecycle]', symObjAddr: 0x7C8, symBinAddr: 0x16AB4, symSize: 0x64 }
  - { offset: 0x22820C, size: 0x8, addend: 0x0, symName: '-[RNSVGFeFlood setFloodColor:]', symObjAddr: 0x82C, symBinAddr: 0x16B18, symSize: 0x70 }
  - { offset: 0x22824C, size: 0x8, addend: 0x0, symName: '-[RNSVGFeFlood setFloodOpacity:]', symObjAddr: 0x89C, symBinAddr: 0x16B88, symSize: 0x20 }
  - { offset: 0x22828A, size: 0x8, addend: 0x0, symName: '-[RNSVGFeFlood applyFilter:previousFilterResult:]', symObjAddr: 0x8BC, symBinAddr: 0x16BA8, symSize: 0xA0 }
  - { offset: 0x2282D5, size: 0x8, addend: 0x0, symName: __Z15RNSVGFeFloodClsv, symObjAddr: 0x95C, symBinAddr: 0x16C48, symSize: 0xC }
  - { offset: 0x2282F3, size: 0x8, addend: 0x0, symName: '-[RNSVGFeFlood floodColor]', symObjAddr: 0x968, symBinAddr: 0x16C54, symSize: 0x10 }
  - { offset: 0x228329, size: 0x8, addend: 0x0, symName: '-[RNSVGFeFlood floodOpacity]', symObjAddr: 0x978, symBinAddr: 0x16C64, symSize: 0x10 }
  - { offset: 0x22835E, size: 0x8, addend: 0x0, symName: '-[RNSVGFeFlood .cxx_destruct]', symObjAddr: 0x988, symBinAddr: 0x16C74, symSize: 0x14 }
  - { offset: 0x228AA3, size: 0x8, addend: 0x0, symName: __ZNSt3__120__shared_ptr_emplaceIKN8facebook5react17RNSVGFeFloodPropsENS_9allocatorIS3_EEEC2B8ne200100IJES6_Li0EEES6_DpOT_, symObjAddr: 0xBF8, symBinAddr: 0x16CD0, symSize: 0xB0 }
  - { offset: 0x22A57E, size: 0x8, addend: 0x0, symName: __ZNSt3__120__shared_ptr_emplaceIKN8facebook5react17RNSVGFeFloodPropsENS_9allocatorIS3_EEED1Ev, symObjAddr: 0xCA8, symBinAddr: 0x16D80, symSize: 0x14 }
  - { offset: 0x22A5A2, size: 0x8, addend: 0x0, symName: __ZNSt3__120__shared_ptr_emplaceIKN8facebook5react17RNSVGFeFloodPropsENS_9allocatorIS3_EEED1Ev, symObjAddr: 0xCA8, symBinAddr: 0x16D80, symSize: 0x14 }
  - { offset: 0x22A5D8, size: 0x8, addend: 0x0, symName: __ZNSt3__120__shared_ptr_emplaceIKN8facebook5react17RNSVGFeFloodPropsENS_9allocatorIS3_EEED0Ev, symObjAddr: 0xCBC, symBinAddr: 0x16D94, symSize: 0x24 }
  - { offset: 0x22A6A8, size: 0x8, addend: 0x0, symName: __ZNSt3__120__shared_ptr_emplaceIKN8facebook5react17RNSVGFeFloodPropsENS_9allocatorIS3_EEE16__on_zero_sharedEv, symObjAddr: 0xCE0, symBinAddr: 0x16DB8, symSize: 0x8 }
  - { offset: 0x22A6D1, size: 0x8, addend: 0x0, symName: __ZNSt3__120__shared_ptr_emplaceIKN8facebook5react17RNSVGFeFloodPropsENS_9allocatorIS3_EEE16__on_zero_sharedEv, symObjAddr: 0xCE0, symBinAddr: 0x16DB8, symSize: 0x8 }
  - { offset: 0x22A6F0, size: 0x8, addend: 0x0, symName: __ZNSt3__120__shared_ptr_emplaceIKN8facebook5react17RNSVGFeFloodPropsENS_9allocatorIS3_EEE16__on_zero_sharedEv, symObjAddr: 0xCE0, symBinAddr: 0x16DB8, symSize: 0x8 }
  - { offset: 0x22A72E, size: 0x8, addend: 0x0, symName: __ZNSt3__120__shared_ptr_emplaceIKN8facebook5react17RNSVGFeFloodPropsENS_9allocatorIS3_EEE21__on_zero_shared_weakEv, symObjAddr: 0xCE8, symBinAddr: 0x16DC0, symSize: 0x4 }
  - { offset: 0x22A761, size: 0x8, addend: 0x0, symName: __ZNSt3__120__shared_ptr_emplaceIKN8facebook5react17RNSVGFeFloodPropsENS_9allocatorIS3_EEE21__on_zero_shared_weakEv, symObjAddr: 0xCE8, symBinAddr: 0x16DC0, symSize: 0x4 }
  - { offset: 0x22A785, size: 0x8, addend: 0x0, symName: __ZNSt3__120__shared_ptr_emplaceIKN8facebook5react17RNSVGFeFloodPropsENS_9allocatorIS3_EEE21__on_zero_shared_weakEv, symObjAddr: 0xCE8, symBinAddr: 0x16DC0, symSize: 0x4 }
  - { offset: 0x22A7AA, size: 0x8, addend: 0x0, symName: __ZNSt3__120__shared_ptr_emplaceIKN8facebook5react17RNSVGFeFloodPropsENS_9allocatorIS3_EEE21__on_zero_shared_weakEv, symObjAddr: 0xCE8, symBinAddr: 0x16DC0, symSize: 0x4 }
  - { offset: 0x22A7E2, size: 0x8, addend: 0x0, symName: __ZNSt3__120__shared_ptr_emplaceIKN8facebook5react17RNSVGFeFloodPropsENS_9allocatorIS3_EEE21__on_zero_shared_weakEv, symObjAddr: 0xCE8, symBinAddr: 0x16DC0, symSize: 0x4 }
  - { offset: 0x22D5BD, size: 0x8, addend: 0x0, symName: __ZN8facebook5react17RNSVGFeFloodPropsD1Ev, symObjAddr: 0x1208, symBinAddr: 0x16DC4, symSize: 0x64 }
  - { offset: 0x22D82C, size: 0x8, addend: 0x0, symName: __ZN8facebook5react17RNSVGFeFloodPropsD0Ev, symObjAddr: 0x126C, symBinAddr: 0x16E28, symSize: 0x68 }
  - { offset: 0x22F4F1, size: 0x8, addend: 0x0, symName: __ZN8facebook5react14RawPropsParser7prepareINS0_17RNSVGFeFloodPropsEEEvv, symObjAddr: 0x1C70, symBinAddr: 0x16FFC, symSize: 0x2A0 }
  - { offset: 0x230C34, size: 0x8, addend: 0x0, symName: __ZN8facebook5react27ConcreteComponentDescriptorINS0_23RNSVGConcreteShadowNodeIXadL_ZNS0_25RNSVGFeFloodComponentNameEEENS0_17RNSVGFeFloodPropsEEEED1Ev, symObjAddr: 0x1F10, symBinAddr: 0x1729C, symSize: 0x4 }
  - { offset: 0x230C58, size: 0x8, addend: 0x0, symName: __ZN8facebook5react27ConcreteComponentDescriptorINS0_23RNSVGConcreteShadowNodeIXadL_ZNS0_25RNSVGFeFloodComponentNameEEENS0_17RNSVGFeFloodPropsEEEED1Ev, symObjAddr: 0x1F10, symBinAddr: 0x1729C, symSize: 0x4 }
  - { offset: 0x230C76, size: 0x8, addend: 0x0, symName: __ZN8facebook5react27ConcreteComponentDescriptorINS0_23RNSVGConcreteShadowNodeIXadL_ZNS0_25RNSVGFeFloodComponentNameEEENS0_17RNSVGFeFloodPropsEEEED1Ev, symObjAddr: 0x1F10, symBinAddr: 0x1729C, symSize: 0x4 }
  - { offset: 0x230F4D, size: 0x8, addend: 0x0, symName: __ZN8facebook5react27ConcreteComponentDescriptorINS0_23RNSVGConcreteShadowNodeIXadL_ZNS0_25RNSVGFeFloodComponentNameEEENS0_17RNSVGFeFloodPropsEEEED0Ev, symObjAddr: 0x1F14, symBinAddr: 0x172A0, symSize: 0x14 }
  - { offset: 0x230FC9, size: 0x8, addend: 0x0, symName: __ZNK8facebook5react27ConcreteComponentDescriptorINS0_23RNSVGConcreteShadowNodeIXadL_ZNS0_25RNSVGFeFloodComponentNameEEENS0_17RNSVGFeFloodPropsEEEE18getComponentHandleEv, symObjAddr: 0x1F28, symBinAddr: 0x172B4, symSize: 0xC }
  - { offset: 0x230FEF, size: 0x8, addend: 0x0, symName: __ZNK8facebook5react27ConcreteComponentDescriptorINS0_23RNSVGConcreteShadowNodeIXadL_ZNS0_25RNSVGFeFloodComponentNameEEENS0_17RNSVGFeFloodPropsEEEE16getComponentNameEv, symObjAddr: 0x1F34, symBinAddr: 0x172C0, symSize: 0xC }
  - { offset: 0x231015, size: 0x8, addend: 0x0, symName: __ZNK8facebook5react27ConcreteComponentDescriptorINS0_23RNSVGConcreteShadowNodeIXadL_ZNS0_25RNSVGFeFloodComponentNameEEENS0_17RNSVGFeFloodPropsEEEE9getTraitsEv, symObjAddr: 0x1F40, symBinAddr: 0x172CC, symSize: 0x8 }
  - { offset: 0x23110F, size: 0x8, addend: 0x0, symName: __ZNK8facebook5react27ConcreteComponentDescriptorINS0_23RNSVGConcreteShadowNodeIXadL_ZNS0_25RNSVGFeFloodComponentNameEEENS0_17RNSVGFeFloodPropsEEEE16createShadowNodeERKNS0_18ShadowNodeFragmentERKNSt3__110shared_ptrIKNS0_16ShadowNodeFamilyEEE, symObjAddr: 0x1F48, symBinAddr: 0x172D4, symSize: 0x90 }
  - { offset: 0x23139B, size: 0x8, addend: 0x0, symName: __ZNK8facebook5react27ConcreteComponentDescriptorINS0_23RNSVGConcreteShadowNodeIXadL_ZNS0_25RNSVGFeFloodComponentNameEEENS0_17RNSVGFeFloodPropsEEEE15cloneShadowNodeERKNS0_10ShadowNodeERKNS0_18ShadowNodeFragmentE, symObjAddr: 0x1FD8, symBinAddr: 0x17364, symSize: 0x104 }
  - { offset: 0x231728, size: 0x8, addend: 0x0, symName: __ZNK8facebook5react27ConcreteComponentDescriptorINS0_23RNSVGConcreteShadowNodeIXadL_ZNS0_25RNSVGFeFloodComponentNameEEENS0_17RNSVGFeFloodPropsEEEE11appendChildERKNSt3__110shared_ptrIKNS0_10ShadowNodeEEESC_, symObjAddr: 0x20DC, symBinAddr: 0x17468, symSize: 0x14 }
  - { offset: 0x23177E, size: 0x8, addend: 0x0, symName: __ZNK8facebook5react27ConcreteComponentDescriptorINS0_23RNSVGConcreteShadowNodeIXadL_ZNS0_25RNSVGFeFloodComponentNameEEENS0_17RNSVGFeFloodPropsEEEE11appendChildERKNSt3__110shared_ptrIKNS0_10ShadowNodeEEESC_, symObjAddr: 0x20DC, symBinAddr: 0x17468, symSize: 0x14 }
  - { offset: 0x231EDB, size: 0x8, addend: 0x0, symName: __ZNK8facebook5react27ConcreteComponentDescriptorINS0_23RNSVGConcreteShadowNodeIXadL_ZNS0_25RNSVGFeFloodComponentNameEEENS0_17RNSVGFeFloodPropsEEEE10clonePropsERKNS0_18PropsParserContextERKNSt3__110shared_ptrIKNS0_5PropsEEENS0_8RawPropsE, symObjAddr: 0x20F0, symBinAddr: 0x1747C, symSize: 0x21C }
  - { offset: 0x232A75, size: 0x8, addend: 0x0, symName: __ZN8facebook5react18ConcreteShadowNodeIXadL_ZNS0_25RNSVGFeFloodComponentNameEEENS0_25RNSVGLayoutableShadowNodeENS0_17RNSVGFeFloodPropsENS0_20BaseViewEventEmitterENS0_9StateDataEE5PropsERKNS0_18PropsParserContextERKNS0_8RawPropsERKNSt3__110shared_ptrIKNS0_5PropsEEE, symObjAddr: 0x2E38, symBinAddr: 0x17BD8, symSize: 0x58 }
  - { offset: 0x232CDF, size: 0x8, addend: 0x0, symName: __ZNK8facebook5react27ConcreteComponentDescriptorINS0_23RNSVGConcreteShadowNodeIXadL_ZNS0_25RNSVGFeFloodComponentNameEEENS0_17RNSVGFeFloodPropsEEEE18createInitialStateERKNSt3__110shared_ptrIKNS0_5PropsEEERKNS7_IKNS0_16ShadowNodeFamilyEEE, symObjAddr: 0x230C, symBinAddr: 0x17698, symSize: 0x8 }
  - { offset: 0x232D23, size: 0x8, addend: 0x0, symName: __ZNK8facebook5react27ConcreteComponentDescriptorINS0_23RNSVGConcreteShadowNodeIXadL_ZNS0_25RNSVGFeFloodComponentNameEEENS0_17RNSVGFeFloodPropsEEEE18createInitialStateERKNSt3__110shared_ptrIKNS0_5PropsEEERKNS7_IKNS0_16ShadowNodeFamilyEEE, symObjAddr: 0x230C, symBinAddr: 0x17698, symSize: 0x8 }
  - { offset: 0x232D47, size: 0x8, addend: 0x0, symName: __ZNK8facebook5react27ConcreteComponentDescriptorINS0_23RNSVGConcreteShadowNodeIXadL_ZNS0_25RNSVGFeFloodComponentNameEEENS0_17RNSVGFeFloodPropsEEEE18createInitialStateERKNSt3__110shared_ptrIKNS0_5PropsEEERKNS7_IKNS0_16ShadowNodeFamilyEEE, symObjAddr: 0x230C, symBinAddr: 0x17698, symSize: 0x8 }
  - { offset: 0x232D6B, size: 0x8, addend: 0x0, symName: __ZNK8facebook5react27ConcreteComponentDescriptorINS0_23RNSVGConcreteShadowNodeIXadL_ZNS0_25RNSVGFeFloodComponentNameEEENS0_17RNSVGFeFloodPropsEEEE11createStateERKNS0_16ShadowNodeFamilyERKNSt3__110shared_ptrIKvEE, symObjAddr: 0x2314, symBinAddr: 0x176A0, symSize: 0x8 }
  - { offset: 0x232DAF, size: 0x8, addend: 0x0, symName: __ZNK8facebook5react27ConcreteComponentDescriptorINS0_23RNSVGConcreteShadowNodeIXadL_ZNS0_25RNSVGFeFloodComponentNameEEENS0_17RNSVGFeFloodPropsEEEE11createStateERKNS0_16ShadowNodeFamilyERKNSt3__110shared_ptrIKvEE, symObjAddr: 0x2314, symBinAddr: 0x176A0, symSize: 0x8 }
  - { offset: 0x232DD3, size: 0x8, addend: 0x0, symName: __ZNK8facebook5react27ConcreteComponentDescriptorINS0_23RNSVGConcreteShadowNodeIXadL_ZNS0_25RNSVGFeFloodComponentNameEEENS0_17RNSVGFeFloodPropsEEEE11createStateERKNS0_16ShadowNodeFamilyERKNSt3__110shared_ptrIKvEE, symObjAddr: 0x2314, symBinAddr: 0x176A0, symSize: 0x8 }
  - { offset: 0x232FDF, size: 0x8, addend: 0x0, symName: __ZNK8facebook5react27ConcreteComponentDescriptorINS0_23RNSVGConcreteShadowNodeIXadL_ZNS0_25RNSVGFeFloodComponentNameEEENS0_17RNSVGFeFloodPropsEEEE12createFamilyERKNS0_24ShadowNodeFamilyFragmentE, symObjAddr: 0x231C, symBinAddr: 0x176A8, symSize: 0x168 }
  - { offset: 0x23356E, size: 0x8, addend: 0x0, symName: __ZNK8facebook5react27ConcreteComponentDescriptorINS0_23RNSVGConcreteShadowNodeIXadL_ZNS0_25RNSVGFeFloodComponentNameEEENS0_17RNSVGFeFloodPropsEEEE5adoptERNS0_10ShadowNodeE, symObjAddr: 0x2484, symBinAddr: 0x17810, symSize: 0x4 }
  - { offset: 0x233DC7, size: 0x8, addend: 0x0, symName: __ZNSt3__120__shared_ptr_emplaceIN8facebook5react23RNSVGConcreteShadowNodeIXadL_ZNS2_25RNSVGFeFloodComponentNameEEENS2_17RNSVGFeFloodPropsEEENS_9allocatorIS5_EEEC2B8ne200100IJRKNS2_18ShadowNodeFragmentERKNS_10shared_ptrIKNS2_16ShadowNodeFamilyEEENS2_16ShadowNodeTraitsEES7_Li0EEES7_DpOT_, symObjAddr: 0x27B0, symBinAddr: 0x17884, symSize: 0x60 }
  - { offset: 0x2340EB, size: 0x8, addend: 0x0, symName: __ZNSt3__120__shared_ptr_emplaceIN8facebook5react23RNSVGConcreteShadowNodeIXadL_ZNS2_25RNSVGFeFloodComponentNameEEENS2_17RNSVGFeFloodPropsEEENS_9allocatorIS5_EEED1Ev, symObjAddr: 0x2810, symBinAddr: 0x178E4, symSize: 0x14 }
  - { offset: 0x23410F, size: 0x8, addend: 0x0, symName: __ZNSt3__120__shared_ptr_emplaceIN8facebook5react23RNSVGConcreteShadowNodeIXadL_ZNS2_25RNSVGFeFloodComponentNameEEENS2_17RNSVGFeFloodPropsEEENS_9allocatorIS5_EEED1Ev, symObjAddr: 0x2810, symBinAddr: 0x178E4, symSize: 0x14 }
  - { offset: 0x234145, size: 0x8, addend: 0x0, symName: __ZNSt3__120__shared_ptr_emplaceIN8facebook5react23RNSVGConcreteShadowNodeIXadL_ZNS2_25RNSVGFeFloodComponentNameEEENS2_17RNSVGFeFloodPropsEEENS_9allocatorIS5_EEED0Ev, symObjAddr: 0x2824, symBinAddr: 0x178F8, symSize: 0x24 }
  - { offset: 0x234215, size: 0x8, addend: 0x0, symName: __ZNSt3__120__shared_ptr_emplaceIN8facebook5react23RNSVGConcreteShadowNodeIXadL_ZNS2_25RNSVGFeFloodComponentNameEEENS2_17RNSVGFeFloodPropsEEENS_9allocatorIS5_EEE16__on_zero_sharedEv, symObjAddr: 0x2848, symBinAddr: 0x1791C, symSize: 0xC }
  - { offset: 0x23423E, size: 0x8, addend: 0x0, symName: __ZNSt3__120__shared_ptr_emplaceIN8facebook5react23RNSVGConcreteShadowNodeIXadL_ZNS2_25RNSVGFeFloodComponentNameEEENS2_17RNSVGFeFloodPropsEEENS_9allocatorIS5_EEE16__on_zero_sharedEv, symObjAddr: 0x2848, symBinAddr: 0x1791C, symSize: 0xC }
  - { offset: 0x23425D, size: 0x8, addend: 0x0, symName: __ZNSt3__120__shared_ptr_emplaceIN8facebook5react23RNSVGConcreteShadowNodeIXadL_ZNS2_25RNSVGFeFloodComponentNameEEENS2_17RNSVGFeFloodPropsEEENS_9allocatorIS5_EEE16__on_zero_sharedEv, symObjAddr: 0x2848, symBinAddr: 0x1791C, symSize: 0xC }
  - { offset: 0x23427C, size: 0x8, addend: 0x0, symName: __ZNSt3__120__shared_ptr_emplaceIN8facebook5react23RNSVGConcreteShadowNodeIXadL_ZNS2_25RNSVGFeFloodComponentNameEEENS2_17RNSVGFeFloodPropsEEENS_9allocatorIS5_EEE16__on_zero_sharedEv, symObjAddr: 0x2848, symBinAddr: 0x1791C, symSize: 0xC }
  - { offset: 0x2342A8, size: 0x8, addend: 0x0, symName: __ZNSt3__120__shared_ptr_emplaceIN8facebook5react23RNSVGConcreteShadowNodeIXadL_ZNS2_25RNSVGFeFloodComponentNameEEENS2_17RNSVGFeFloodPropsEEENS_9allocatorIS5_EEE21__on_zero_shared_weakEv, symObjAddr: 0x2854, symBinAddr: 0x17928, symSize: 0x4 }
  - { offset: 0x2342DB, size: 0x8, addend: 0x0, symName: __ZNSt3__120__shared_ptr_emplaceIN8facebook5react23RNSVGConcreteShadowNodeIXadL_ZNS2_25RNSVGFeFloodComponentNameEEENS2_17RNSVGFeFloodPropsEEENS_9allocatorIS5_EEE21__on_zero_shared_weakEv, symObjAddr: 0x2854, symBinAddr: 0x17928, symSize: 0x4 }
  - { offset: 0x2342FF, size: 0x8, addend: 0x0, symName: __ZNSt3__120__shared_ptr_emplaceIN8facebook5react23RNSVGConcreteShadowNodeIXadL_ZNS2_25RNSVGFeFloodComponentNameEEENS2_17RNSVGFeFloodPropsEEENS_9allocatorIS5_EEE21__on_zero_shared_weakEv, symObjAddr: 0x2854, symBinAddr: 0x17928, symSize: 0x4 }
  - { offset: 0x234324, size: 0x8, addend: 0x0, symName: __ZNSt3__120__shared_ptr_emplaceIN8facebook5react23RNSVGConcreteShadowNodeIXadL_ZNS2_25RNSVGFeFloodComponentNameEEENS2_17RNSVGFeFloodPropsEEENS_9allocatorIS5_EEE21__on_zero_shared_weakEv, symObjAddr: 0x2854, symBinAddr: 0x17928, symSize: 0x4 }
  - { offset: 0x23435C, size: 0x8, addend: 0x0, symName: __ZNSt3__120__shared_ptr_emplaceIN8facebook5react23RNSVGConcreteShadowNodeIXadL_ZNS2_25RNSVGFeFloodComponentNameEEENS2_17RNSVGFeFloodPropsEEENS_9allocatorIS5_EEE21__on_zero_shared_weakEv, symObjAddr: 0x2854, symBinAddr: 0x17928, symSize: 0x4 }
  - { offset: 0x2345DC, size: 0x8, addend: 0x0, symName: __ZN8facebook5react23RNSVGConcreteShadowNodeIXadL_ZNS0_25RNSVGFeFloodComponentNameEEENS0_17RNSVGFeFloodPropsEED1Ev, symObjAddr: 0x2858, symBinAddr: 0x1792C, symSize: 0x70 }
  - { offset: 0x234B8D, size: 0x8, addend: 0x0, symName: __ZN8facebook5react23RNSVGConcreteShadowNodeIXadL_ZNS0_25RNSVGFeFloodComponentNameEEENS0_17RNSVGFeFloodPropsEED0Ev, symObjAddr: 0x28C8, symBinAddr: 0x1799C, symSize: 0x74 }
  - { offset: 0x234FD3, size: 0x8, addend: 0x0, symName: __ZNK8facebook5react23RNSVGConcreteShadowNodeIXadL_ZNS0_25RNSVGFeFloodComponentNameEEENS0_17RNSVGFeFloodPropsEE12getTransformEv, symObjAddr: 0x293C, symBinAddr: 0x17A10, symSize: 0x40 }
  - { offset: 0x235046, size: 0x8, addend: 0x0, symName: __ZNK8facebook5react23RNSVGConcreteShadowNodeIXadL_ZNS0_25RNSVGFeFloodComponentNameEEENS0_17RNSVGFeFloodPropsEE16canBeTouchTargetEv, symObjAddr: 0x297C, symBinAddr: 0x17A50, symSize: 0x18 }
  - { offset: 0x23507E, size: 0x8, addend: 0x0, symName: __ZNK8facebook5react23RNSVGConcreteShadowNodeIXadL_ZNS0_25RNSVGFeFloodComponentNameEEENS0_17RNSVGFeFloodPropsEE16canBeTouchTargetEv, symObjAddr: 0x297C, symBinAddr: 0x17A50, symSize: 0x18 }
  - { offset: 0x23509B, size: 0x8, addend: 0x0, symName: __ZNK8facebook5react23RNSVGConcreteShadowNodeIXadL_ZNS0_25RNSVGFeFloodComponentNameEEENS0_17RNSVGFeFloodPropsEE16canBeTouchTargetEv, symObjAddr: 0x297C, symBinAddr: 0x17A50, symSize: 0x18 }
  - { offset: 0x2350B9, size: 0x8, addend: 0x0, symName: __ZNK8facebook5react23RNSVGConcreteShadowNodeIXadL_ZNS0_25RNSVGFeFloodComponentNameEEENS0_17RNSVGFeFloodPropsEE24canChildrenBeTouchTargetEv, symObjAddr: 0x2994, symBinAddr: 0x17A68, symSize: 0x18 }
  - { offset: 0x2350ED, size: 0x8, addend: 0x0, symName: __ZNK8facebook5react23RNSVGConcreteShadowNodeIXadL_ZNS0_25RNSVGFeFloodComponentNameEEENS0_17RNSVGFeFloodPropsEE24canChildrenBeTouchTargetEv, symObjAddr: 0x2994, symBinAddr: 0x17A68, symSize: 0x18 }
  - { offset: 0x23510A, size: 0x8, addend: 0x0, symName: __ZNK8facebook5react23RNSVGConcreteShadowNodeIXadL_ZNS0_25RNSVGFeFloodComponentNameEEENS0_17RNSVGFeFloodPropsEE24canChildrenBeTouchTargetEv, symObjAddr: 0x2994, symBinAddr: 0x17A68, symSize: 0x18 }
  - { offset: 0x235503, size: 0x8, addend: 0x0, symName: __ZNSt3__120__shared_ptr_emplaceIN8facebook5react23RNSVGConcreteShadowNodeIXadL_ZNS2_25RNSVGFeFloodComponentNameEEENS2_17RNSVGFeFloodPropsEEENS_9allocatorIS5_EEEC2B8ne200100IJRKNS2_10ShadowNodeERKNS2_18ShadowNodeFragmentEES7_Li0EEES7_DpOT_, symObjAddr: 0x2CE8, symBinAddr: 0x17AE0, symSize: 0x5C }
  - { offset: 0x2359FE, size: 0x8, addend: 0x0, symName: __ZNSt3__120__shared_ptr_emplaceIN8facebook5react17RNSVGFeFloodPropsENS_9allocatorIS3_EEEC2B8ne200100IJRKNS2_18PropsParserContextERKS3_RKNS2_8RawPropsEES5_Li0EEES5_DpOT_, symObjAddr: 0x2F00, symBinAddr: 0x17CA0, symSize: 0x4C }
  - { offset: 0x235BEC, size: 0x8, addend: 0x0, symName: __ZNSt3__120__shared_ptr_emplaceIN8facebook5react17RNSVGFeFloodPropsENS_9allocatorIS3_EEED1Ev, symObjAddr: 0x2F4C, symBinAddr: 0x17CEC, symSize: 0x14 }
  - { offset: 0x235C10, size: 0x8, addend: 0x0, symName: __ZNSt3__120__shared_ptr_emplaceIN8facebook5react17RNSVGFeFloodPropsENS_9allocatorIS3_EEED1Ev, symObjAddr: 0x2F4C, symBinAddr: 0x17CEC, symSize: 0x14 }
  - { offset: 0x235C46, size: 0x8, addend: 0x0, symName: __ZNSt3__120__shared_ptr_emplaceIN8facebook5react17RNSVGFeFloodPropsENS_9allocatorIS3_EEED0Ev, symObjAddr: 0x2F60, symBinAddr: 0x17D00, symSize: 0x24 }
  - { offset: 0x235CE7, size: 0x8, addend: 0x0, symName: __ZNSt3__120__shared_ptr_emplaceIN8facebook5react17RNSVGFeFloodPropsENS_9allocatorIS3_EEE16__on_zero_sharedEv, symObjAddr: 0x2F84, symBinAddr: 0x17D24, symSize: 0x8 }
  - { offset: 0x235D10, size: 0x8, addend: 0x0, symName: __ZNSt3__120__shared_ptr_emplaceIN8facebook5react17RNSVGFeFloodPropsENS_9allocatorIS3_EEE16__on_zero_sharedEv, symObjAddr: 0x2F84, symBinAddr: 0x17D24, symSize: 0x8 }
  - { offset: 0x235D2F, size: 0x8, addend: 0x0, symName: __ZNSt3__120__shared_ptr_emplaceIN8facebook5react17RNSVGFeFloodPropsENS_9allocatorIS3_EEE16__on_zero_sharedEv, symObjAddr: 0x2F84, symBinAddr: 0x17D24, symSize: 0x8 }
  - { offset: 0x235D6D, size: 0x8, addend: 0x0, symName: __ZNSt3__120__shared_ptr_emplaceIN8facebook5react17RNSVGFeFloodPropsENS_9allocatorIS3_EEE21__on_zero_shared_weakEv, symObjAddr: 0x2F8C, symBinAddr: 0x17D2C, symSize: 0x4 }
  - { offset: 0x235DA0, size: 0x8, addend: 0x0, symName: __ZNSt3__120__shared_ptr_emplaceIN8facebook5react17RNSVGFeFloodPropsENS_9allocatorIS3_EEE21__on_zero_shared_weakEv, symObjAddr: 0x2F8C, symBinAddr: 0x17D2C, symSize: 0x4 }
  - { offset: 0x235DC4, size: 0x8, addend: 0x0, symName: __ZNSt3__120__shared_ptr_emplaceIN8facebook5react17RNSVGFeFloodPropsENS_9allocatorIS3_EEE21__on_zero_shared_weakEv, symObjAddr: 0x2F8C, symBinAddr: 0x17D2C, symSize: 0x4 }
  - { offset: 0x235DE9, size: 0x8, addend: 0x0, symName: __ZNSt3__120__shared_ptr_emplaceIN8facebook5react17RNSVGFeFloodPropsENS_9allocatorIS3_EEE21__on_zero_shared_weakEv, symObjAddr: 0x2F8C, symBinAddr: 0x17D2C, symSize: 0x4 }
  - { offset: 0x235E21, size: 0x8, addend: 0x0, symName: __ZNSt3__120__shared_ptr_emplaceIN8facebook5react17RNSVGFeFloodPropsENS_9allocatorIS3_EEE21__on_zero_shared_weakEv, symObjAddr: 0x2F8C, symBinAddr: 0x17D2C, symSize: 0x4 }
  - { offset: 0x236CC8, size: 0x8, addend: 0x0, symName: __ZNSt3__120__shared_ptr_emplaceIN8facebook5react16ShadowNodeFamilyENS_9allocatorIS3_EEEC2B8ne200100IJRKNS2_24ShadowNodeFamilyFragmentERNS_10shared_ptrIKNS2_20BaseViewEventEmitterEEERKNS_8weak_ptrIKNS2_15EventDispatcherEEERKNS2_27ConcreteComponentDescriptorINS2_23RNSVGConcreteShadowNodeIXadL_ZNS2_25RNSVGFeFloodComponentNameEEENS2_17RNSVGFeFloodPropsEEEEEES5_Li0EEES5_DpOT_, symObjAddr: 0x36B0, symBinAddr: 0x17DA8, symSize: 0x4C }
  - { offset: 0x237043, size: 0x8, addend: 0x0, symName: __GLOBAL__sub_I_RNSVGFeFlood.mm, symObjAddr: 0x3CD8, symBinAddr: 0x17ED0, symSize: 0x20 }
  - { offset: 0x23949D, size: 0x8, addend: 0x0, symName: __ZN8facebook5react17HostPlatformColorL14UndefinedColorE, symObjAddr: 0xDDFE8, symBinAddr: 0xB02A8, symSize: 0x0 }
  - { offset: 0x23A186, size: 0x8, addend: 0x0, symName: '+[RNSVGFeFloodManager moduleName]', symObjAddr: 0x0, symBinAddr: 0x17EF0, symSize: 0xC }
  - { offset: 0x23A1B7, size: 0x8, addend: 0x0, symName: '+[RNSVGFeFloodManager load]', symObjAddr: 0xC, symBinAddr: 0x17EFC, symSize: 0x4 }
  - { offset: 0x23A1EA, size: 0x8, addend: 0x0, symName: '+[RNSVGFeFloodManager load]', symObjAddr: 0xC, symBinAddr: 0x17EFC, symSize: 0x4 }
  - { offset: 0x23A209, size: 0x8, addend: 0x0, symName: '-[RNSVGFeFloodManager node]', symObjAddr: 0x10, symBinAddr: 0x17F00, symSize: 0x1C }
  - { offset: 0x23A23A, size: 0x8, addend: 0x0, symName: '+[RNSVGFeFloodManager propConfig_floodColor]', symObjAddr: 0x2C, symBinAddr: 0x17F1C, symSize: 0xC }
  - { offset: 0x23A26B, size: 0x8, addend: 0x0, symName: '+[RNSVGFeFloodManager propConfig_floodOpacity]', symObjAddr: 0x38, symBinAddr: 0x17F28, symSize: 0xC }
  - { offset: 0x23A323, size: 0x8, addend: 0x0, symName: __GLOBAL__sub_I_RNSVGFeFloodManager.mm, symObjAddr: 0x44, symBinAddr: 0x17F34, symSize: 0x20 }
  - { offset: 0x23C368, size: 0x8, addend: 0x0, symName: __ZN8facebook5react17HostPlatformColorL14UndefinedColorE, symObjAddr: 0x175098, symBinAddr: 0xB02C0, symSize: 0x0 }
  - { offset: 0x23F7BF, size: 0x8, addend: 0x0, symName: __ZN8facebook5react38concreteComponentDescriptorConstructorINS0_27ConcreteComponentDescriptorINS0_23RNSVGConcreteShadowNodeIXadL_ZNS0_32RNSVGFeGaussianBlurComponentNameEEENS0_24RNSVGFeGaussianBlurPropsEEEEEEENSt3__110unique_ptrIKNS0_19ComponentDescriptorENS7_14default_deleteISA_EEEERKNS0_29ComponentDescriptorParametersE, symObjAddr: 0x1AEC, symBinAddr: 0x18C58, symSize: 0x34 }
  - { offset: 0x25B871, size: 0x8, addend: 0x0, symName: __ZNSt3__115allocate_sharedB8ne200100IKN8facebook5react24RNSVGFeGaussianBlurPropsENS_9allocatorIS3_EEJELi0EEENS_10shared_ptrIT_EERKT0_DpOT1_, symObjAddr: 0xB60, symBinAddr: 0x189D8, symSize: 0x48 }
  - { offset: 0x25C23C, size: 0x8, addend: 0x0, symName: __ZNSt3__112__destroy_atB8ne200100IN8facebook5react24RNSVGFeGaussianBlurPropsELi0EEEvPT_, symObjAddr: 0x1A28, symBinAddr: 0x18BEC, symSize: 0x6C }
  - { offset: 0x25CD38, size: 0x8, addend: 0x0, symName: __ZNSt3__111make_uniqueB8ne200100IKN8facebook5react27ConcreteComponentDescriptorINS2_23RNSVGConcreteShadowNodeIXadL_ZNS2_32RNSVGFeGaussianBlurComponentNameEEENS2_24RNSVGFeGaussianBlurPropsEEEEEJRKNS2_29ComponentDescriptorParametersEELi0EEENS_10unique_ptrIT_NS_14default_deleteISD_EEEEDpOT0_, symObjAddr: 0x1B20, symBinAddr: 0x18C8C, symSize: 0xD4 }
  - { offset: 0x25D6B0, size: 0x8, addend: 0x0, symName: __ZNSt3__115allocate_sharedB8ne200100IN8facebook5react23RNSVGConcreteShadowNodeIXadL_ZNS2_32RNSVGFeGaussianBlurComponentNameEEENS2_24RNSVGFeGaussianBlurPropsEEENS_9allocatorIS5_EEJRKNS2_18ShadowNodeFragmentERKNS_10shared_ptrIKNS2_16ShadowNodeFamilyEEENS2_16ShadowNodeTraitsEELi0EEENSB_IT_EERKT0_DpOT1_, symObjAddr: 0x271C, symBinAddr: 0x19580, symSize: 0x70 }
  - { offset: 0x25D9DF, size: 0x8, addend: 0x0, symName: __ZNSt3__115allocate_sharedB8ne200100IN8facebook5react23RNSVGConcreteShadowNodeIXadL_ZNS2_32RNSVGFeGaussianBlurComponentNameEEENS2_24RNSVGFeGaussianBlurPropsEEENS_9allocatorIS5_EEJRKNS2_10ShadowNodeERKNS2_18ShadowNodeFragmentEELi0EEENS_10shared_ptrIT_EERKT0_DpOT1_, symObjAddr: 0x2C64, symBinAddr: 0x197EC, symSize: 0x60 }
  - { offset: 0x25E12A, size: 0x8, addend: 0x0, symName: __ZNSt3__115allocate_sharedB8ne200100IN8facebook5react16ShadowNodeFamilyENS_9allocatorIS3_EEJRKNS2_24ShadowNodeFamilyFragmentERNS_10shared_ptrIKNS2_20BaseViewEventEmitterEEERKNS_8weak_ptrIKNS2_15EventDispatcherEEERKNS2_27ConcreteComponentDescriptorINS2_23RNSVGConcreteShadowNodeIXadL_ZNS2_32RNSVGFeGaussianBlurComponentNameEEENS2_24RNSVGFeGaussianBlurPropsEEEEEELi0EEENS9_IT_EERKT0_DpOT1_, symObjAddr: 0x3818, symBinAddr: 0x19A9C, symSize: 0x78 }
  - { offset: 0x25EEBD, size: 0x8, addend: 0x0, symName: __ZNSt3__115allocate_sharedB8ne200100IN8facebook5react24RNSVGFeGaussianBlurPropsENS_9allocatorIS3_EEJRKNS2_18PropsParserContextERKS3_RKNS2_8RawPropsEELi0EEENS_10shared_ptrIT_EERKT0_DpOT1_, symObjAddr: 0x2E6C, symBinAddr: 0x1999C, symSize: 0x70 }
  - { offset: 0x26022F, size: 0x8, addend: 0x0, symName: __ZNSt3__112construct_atB8ne200100IN8facebook5react16ShadowNodeFamilyEJRKNS2_24ShadowNodeFamilyFragmentERNS_10shared_ptrIKNS2_20BaseViewEventEmitterEEERKNS_8weak_ptrIKNS2_15EventDispatcherEEERKNS2_27ConcreteComponentDescriptorINS2_23RNSVGConcreteShadowNodeIXadL_ZNS2_32RNSVGFeGaussianBlurComponentNameEEENS2_24RNSVGFeGaussianBlurPropsEEEEEEPS3_EEPT_SR_DpOT0_, symObjAddr: 0x3920, symBinAddr: 0x19B60, symSize: 0xDC }
  - { offset: 0x261617, size: 0x8, addend: 0x0, symName: '-[RNSVGFeGaussianBlur initWithFrame:]', symObjAddr: 0x34, symBinAddr: 0x17F88, symSize: 0xDC }
  - { offset: 0x261640, size: 0x8, addend: 0x0, symName: '__ZZ37-[RNSVGFeGaussianBlur initWithFrame:]E12defaultProps', symObjAddr: 0x1750B0, symBinAddr: 0xB02D8, symSize: 0x0 }
  - { offset: 0x265044, size: 0x8, addend: 0x0, symName: __ZN8facebook5react18ConcreteShadowNodeIXadL_ZNS0_32RNSVGFeGaussianBlurComponentNameEEENS0_25RNSVGLayoutableShadowNodeENS0_24RNSVGFeGaussianBlurPropsENS0_20BaseViewEventEmitterENS0_9StateDataEE18defaultSharedPropsEv, symObjAddr: 0x2D78, symBinAddr: 0x198A8, symSize: 0x9C }
  - { offset: 0x265063, size: 0x8, addend: 0x0, symName: __ZZN8facebook5react18ConcreteShadowNodeIXadL_ZNS0_32RNSVGFeGaussianBlurComponentNameEEENS0_25RNSVGLayoutableShadowNodeENS0_24RNSVGFeGaussianBlurPropsENS0_20BaseViewEventEmitterENS0_9StateDataEE18defaultSharedPropsEvE18defaultSharedProps, symObjAddr: 0x5850, symBinAddr: 0xAF9C0, symSize: 0x0 }
  - { offset: 0x2652FD, size: 0x8, addend: 0x0, symName: '+[RNSVGFeGaussianBlur load]', symObjAddr: 0x0, symBinAddr: 0x17F54, symSize: 0x34 }
  - { offset: 0x26543C, size: 0x8, addend: 0x0, symName: __ZNSt3__110shared_ptrIKN8facebook5react24RNSVGFeGaussianBlurPropsEED1B8ne200100Ev, symObjAddr: 0x110, symBinAddr: 0x18064, symSize: 0x4 }
  - { offset: 0x265460, size: 0x8, addend: 0x0, symName: __ZNSt3__110shared_ptrIKN8facebook5react24RNSVGFeGaussianBlurPropsEED1B8ne200100Ev, symObjAddr: 0x110, symBinAddr: 0x18064, symSize: 0x4 }
  - { offset: 0x265668, size: 0x8, addend: 0x0, symName: '+[RNSVGFeGaussianBlur componentDescriptorProvider]', symObjAddr: 0x18C, symBinAddr: 0x18068, symSize: 0x20 }
  - { offset: 0x26569C, size: 0x8, addend: 0x0, symName: '+[RNSVGFeGaussianBlur componentDescriptorProvider]', symObjAddr: 0x18C, symBinAddr: 0x18068, symSize: 0x20 }
  - { offset: 0x2658BF, size: 0x8, addend: 0x0, symName: '-[RNSVGFeGaussianBlur updateProps:oldProps:]', symObjAddr: 0x1AC, symBinAddr: 0x18088, symSize: 0x1B4 }
  - { offset: 0x265C0A, size: 0x8, addend: 0x0, symName: __Z20setCommonFilterPropsIN8facebook5react24RNSVGFeGaussianBlurPropsEEvRKT_P20RNSVGFilterPrimitive, symObjAddr: 0x360, symBinAddr: 0x1823C, symSize: 0x224 }
  - { offset: 0x265EC4, size: 0x8, addend: 0x0, symName: __ZL28RNSVGConvertFollyDynamicToIdRKN5folly7dynamicE, symObjAddr: 0x3B04, symBinAddr: 0x19C3C, symSize: 0x274 }
  - { offset: 0x266400, size: 0x8, addend: 0x0, symName: '-[RNSVGFeGaussianBlur prepareForRecycle]', symObjAddr: 0x5E8, symBinAddr: 0x18460, symSize: 0x88 }
  - { offset: 0x266430, size: 0x8, addend: 0x0, symName: '-[RNSVGFeGaussianBlur applyFilter:previousFilterResult:]', symObjAddr: 0x670, symBinAddr: 0x184E8, symSize: 0x2D8 }
  - { offset: 0x2664BF, size: 0x8, addend: 0x0, symName: '-[RNSVGFeGaussianBlur setIn1:]', symObjAddr: 0x948, symBinAddr: 0x187C0, symSize: 0x78 }
  - { offset: 0x2664FF, size: 0x8, addend: 0x0, symName: '-[RNSVGFeGaussianBlur setStdDeviationX:]', symObjAddr: 0x9C0, symBinAddr: 0x18838, symSize: 0x70 }
  - { offset: 0x26653F, size: 0x8, addend: 0x0, symName: '-[RNSVGFeGaussianBlur setStdDeviationY:]', symObjAddr: 0xA30, symBinAddr: 0x188A8, symSize: 0x70 }
  - { offset: 0x26657F, size: 0x8, addend: 0x0, symName: '-[RNSVGFeGaussianBlur setEdgeMode:]', symObjAddr: 0xAA0, symBinAddr: 0x18918, symSize: 0x20 }
  - { offset: 0x2665BD, size: 0x8, addend: 0x0, symName: __Z22RNSVGFeGaussianBlurClsv, symObjAddr: 0xAC0, symBinAddr: 0x18938, symSize: 0xC }
  - { offset: 0x2665DB, size: 0x8, addend: 0x0, symName: '-[RNSVGFeGaussianBlur in1]', symObjAddr: 0xACC, symBinAddr: 0x18944, symSize: 0x10 }
  - { offset: 0x266611, size: 0x8, addend: 0x0, symName: '-[RNSVGFeGaussianBlur stdDeviationX]', symObjAddr: 0xADC, symBinAddr: 0x18954, symSize: 0x10 }
  - { offset: 0x266647, size: 0x8, addend: 0x0, symName: '-[RNSVGFeGaussianBlur stdDeviationY]', symObjAddr: 0xAEC, symBinAddr: 0x18964, symSize: 0x10 }
  - { offset: 0x26667D, size: 0x8, addend: 0x0, symName: '-[RNSVGFeGaussianBlur edgeMode]', symObjAddr: 0xAFC, symBinAddr: 0x18974, symSize: 0x10 }
  - { offset: 0x2666B3, size: 0x8, addend: 0x0, symName: '-[RNSVGFeGaussianBlur .cxx_destruct]', symObjAddr: 0xB0C, symBinAddr: 0x18984, symSize: 0x54 }
  - { offset: 0x26690F, size: 0x8, addend: 0x0, symName: __ZNSt3__120__shared_ptr_emplaceIKN8facebook5react24RNSVGFeGaussianBlurPropsENS_9allocatorIS3_EEEC2B8ne200100IJES6_Li0EEES6_DpOT_, symObjAddr: 0xBA8, symBinAddr: 0x18A20, symSize: 0xAC }
  - { offset: 0x268326, size: 0x8, addend: 0x0, symName: __ZNSt3__120__shared_ptr_emplaceIKN8facebook5react24RNSVGFeGaussianBlurPropsENS_9allocatorIS3_EEED1Ev, symObjAddr: 0xC54, symBinAddr: 0x18ACC, symSize: 0x14 }
  - { offset: 0x26834A, size: 0x8, addend: 0x0, symName: __ZNSt3__120__shared_ptr_emplaceIKN8facebook5react24RNSVGFeGaussianBlurPropsENS_9allocatorIS3_EEED1Ev, symObjAddr: 0xC54, symBinAddr: 0x18ACC, symSize: 0x14 }
  - { offset: 0x268380, size: 0x8, addend: 0x0, symName: __ZNSt3__120__shared_ptr_emplaceIKN8facebook5react24RNSVGFeGaussianBlurPropsENS_9allocatorIS3_EEED0Ev, symObjAddr: 0xC68, symBinAddr: 0x18AE0, symSize: 0x24 }
  - { offset: 0x268450, size: 0x8, addend: 0x0, symName: __ZNSt3__120__shared_ptr_emplaceIKN8facebook5react24RNSVGFeGaussianBlurPropsENS_9allocatorIS3_EEE16__on_zero_sharedEv, symObjAddr: 0xC8C, symBinAddr: 0x18B04, symSize: 0x8 }
  - { offset: 0x268479, size: 0x8, addend: 0x0, symName: __ZNSt3__120__shared_ptr_emplaceIKN8facebook5react24RNSVGFeGaussianBlurPropsENS_9allocatorIS3_EEE16__on_zero_sharedEv, symObjAddr: 0xC8C, symBinAddr: 0x18B04, symSize: 0x8 }
  - { offset: 0x268498, size: 0x8, addend: 0x0, symName: __ZNSt3__120__shared_ptr_emplaceIKN8facebook5react24RNSVGFeGaussianBlurPropsENS_9allocatorIS3_EEE16__on_zero_sharedEv, symObjAddr: 0xC8C, symBinAddr: 0x18B04, symSize: 0x8 }
  - { offset: 0x2684D6, size: 0x8, addend: 0x0, symName: __ZNSt3__120__shared_ptr_emplaceIKN8facebook5react24RNSVGFeGaussianBlurPropsENS_9allocatorIS3_EEE21__on_zero_shared_weakEv, symObjAddr: 0xC94, symBinAddr: 0x18B0C, symSize: 0x4 }
  - { offset: 0x268509, size: 0x8, addend: 0x0, symName: __ZNSt3__120__shared_ptr_emplaceIKN8facebook5react24RNSVGFeGaussianBlurPropsENS_9allocatorIS3_EEE21__on_zero_shared_weakEv, symObjAddr: 0xC94, symBinAddr: 0x18B0C, symSize: 0x4 }
  - { offset: 0x26852D, size: 0x8, addend: 0x0, symName: __ZNSt3__120__shared_ptr_emplaceIKN8facebook5react24RNSVGFeGaussianBlurPropsENS_9allocatorIS3_EEE21__on_zero_shared_weakEv, symObjAddr: 0xC94, symBinAddr: 0x18B0C, symSize: 0x4 }
  - { offset: 0x268552, size: 0x8, addend: 0x0, symName: __ZNSt3__120__shared_ptr_emplaceIKN8facebook5react24RNSVGFeGaussianBlurPropsENS_9allocatorIS3_EEE21__on_zero_shared_weakEv, symObjAddr: 0xC94, symBinAddr: 0x18B0C, symSize: 0x4 }
  - { offset: 0x26858A, size: 0x8, addend: 0x0, symName: __ZNSt3__120__shared_ptr_emplaceIKN8facebook5react24RNSVGFeGaussianBlurPropsENS_9allocatorIS3_EEE21__on_zero_shared_weakEv, symObjAddr: 0xC94, symBinAddr: 0x18B0C, symSize: 0x4 }
  - { offset: 0x26B410, size: 0x8, addend: 0x0, symName: __ZN8facebook5react24RNSVGFeGaussianBlurPropsD1Ev, symObjAddr: 0x11B4, symBinAddr: 0x18B10, symSize: 0x6C }
  - { offset: 0x26B772, size: 0x8, addend: 0x0, symName: __ZN8facebook5react24RNSVGFeGaussianBlurPropsD0Ev, symObjAddr: 0x1220, symBinAddr: 0x18B7C, symSize: 0x70 }
  - { offset: 0x26D52A, size: 0x8, addend: 0x0, symName: __ZN8facebook5react14RawPropsParser7prepareINS0_24RNSVGFeGaussianBlurPropsEEEvv, symObjAddr: 0x1C44, symBinAddr: 0x18D60, symSize: 0x2A8 }
  - { offset: 0x26ED64, size: 0x8, addend: 0x0, symName: __ZN8facebook5react27ConcreteComponentDescriptorINS0_23RNSVGConcreteShadowNodeIXadL_ZNS0_32RNSVGFeGaussianBlurComponentNameEEENS0_24RNSVGFeGaussianBlurPropsEEEED1Ev, symObjAddr: 0x1EEC, symBinAddr: 0x19008, symSize: 0x4 }
  - { offset: 0x26ED88, size: 0x8, addend: 0x0, symName: __ZN8facebook5react27ConcreteComponentDescriptorINS0_23RNSVGConcreteShadowNodeIXadL_ZNS0_32RNSVGFeGaussianBlurComponentNameEEENS0_24RNSVGFeGaussianBlurPropsEEEED1Ev, symObjAddr: 0x1EEC, symBinAddr: 0x19008, symSize: 0x4 }
  - { offset: 0x26EDA6, size: 0x8, addend: 0x0, symName: __ZN8facebook5react27ConcreteComponentDescriptorINS0_23RNSVGConcreteShadowNodeIXadL_ZNS0_32RNSVGFeGaussianBlurComponentNameEEENS0_24RNSVGFeGaussianBlurPropsEEEED1Ev, symObjAddr: 0x1EEC, symBinAddr: 0x19008, symSize: 0x4 }
  - { offset: 0x26F07D, size: 0x8, addend: 0x0, symName: __ZN8facebook5react27ConcreteComponentDescriptorINS0_23RNSVGConcreteShadowNodeIXadL_ZNS0_32RNSVGFeGaussianBlurComponentNameEEENS0_24RNSVGFeGaussianBlurPropsEEEED0Ev, symObjAddr: 0x1EF0, symBinAddr: 0x1900C, symSize: 0x14 }
  - { offset: 0x26F0F9, size: 0x8, addend: 0x0, symName: __ZNK8facebook5react27ConcreteComponentDescriptorINS0_23RNSVGConcreteShadowNodeIXadL_ZNS0_32RNSVGFeGaussianBlurComponentNameEEENS0_24RNSVGFeGaussianBlurPropsEEEE18getComponentHandleEv, symObjAddr: 0x1F04, symBinAddr: 0x19020, symSize: 0xC }
  - { offset: 0x26F11F, size: 0x8, addend: 0x0, symName: __ZNK8facebook5react27ConcreteComponentDescriptorINS0_23RNSVGConcreteShadowNodeIXadL_ZNS0_32RNSVGFeGaussianBlurComponentNameEEENS0_24RNSVGFeGaussianBlurPropsEEEE16getComponentNameEv, symObjAddr: 0x1F10, symBinAddr: 0x1902C, symSize: 0xC }
  - { offset: 0x26F145, size: 0x8, addend: 0x0, symName: __ZNK8facebook5react27ConcreteComponentDescriptorINS0_23RNSVGConcreteShadowNodeIXadL_ZNS0_32RNSVGFeGaussianBlurComponentNameEEENS0_24RNSVGFeGaussianBlurPropsEEEE9getTraitsEv, symObjAddr: 0x1F1C, symBinAddr: 0x19038, symSize: 0x8 }
  - { offset: 0x26F23F, size: 0x8, addend: 0x0, symName: __ZNK8facebook5react27ConcreteComponentDescriptorINS0_23RNSVGConcreteShadowNodeIXadL_ZNS0_32RNSVGFeGaussianBlurComponentNameEEENS0_24RNSVGFeGaussianBlurPropsEEEE16createShadowNodeERKNS0_18ShadowNodeFragmentERKNSt3__110shared_ptrIKNS0_16ShadowNodeFamilyEEE, symObjAddr: 0x1F24, symBinAddr: 0x19040, symSize: 0x90 }
  - { offset: 0x26F4CB, size: 0x8, addend: 0x0, symName: __ZNK8facebook5react27ConcreteComponentDescriptorINS0_23RNSVGConcreteShadowNodeIXadL_ZNS0_32RNSVGFeGaussianBlurComponentNameEEENS0_24RNSVGFeGaussianBlurPropsEEEE15cloneShadowNodeERKNS0_10ShadowNodeERKNS0_18ShadowNodeFragmentE, symObjAddr: 0x1FB4, symBinAddr: 0x190D0, symSize: 0x104 }
  - { offset: 0x26F858, size: 0x8, addend: 0x0, symName: __ZNK8facebook5react27ConcreteComponentDescriptorINS0_23RNSVGConcreteShadowNodeIXadL_ZNS0_32RNSVGFeGaussianBlurComponentNameEEENS0_24RNSVGFeGaussianBlurPropsEEEE11appendChildERKNSt3__110shared_ptrIKNS0_10ShadowNodeEEESC_, symObjAddr: 0x20B8, symBinAddr: 0x191D4, symSize: 0x14 }
  - { offset: 0x26F8AE, size: 0x8, addend: 0x0, symName: __ZNK8facebook5react27ConcreteComponentDescriptorINS0_23RNSVGConcreteShadowNodeIXadL_ZNS0_32RNSVGFeGaussianBlurComponentNameEEENS0_24RNSVGFeGaussianBlurPropsEEEE11appendChildERKNSt3__110shared_ptrIKNS0_10ShadowNodeEEESC_, symObjAddr: 0x20B8, symBinAddr: 0x191D4, symSize: 0x14 }
  - { offset: 0x270110, size: 0x8, addend: 0x0, symName: __ZNK8facebook5react27ConcreteComponentDescriptorINS0_23RNSVGConcreteShadowNodeIXadL_ZNS0_32RNSVGFeGaussianBlurComponentNameEEENS0_24RNSVGFeGaussianBlurPropsEEEE10clonePropsERKNS0_18PropsParserContextERKNSt3__110shared_ptrIKNS0_5PropsEEENS0_8RawPropsE, symObjAddr: 0x20CC, symBinAddr: 0x191E8, symSize: 0x21C }
  - { offset: 0x270CAA, size: 0x8, addend: 0x0, symName: __ZN8facebook5react18ConcreteShadowNodeIXadL_ZNS0_32RNSVGFeGaussianBlurComponentNameEEENS0_25RNSVGLayoutableShadowNodeENS0_24RNSVGFeGaussianBlurPropsENS0_20BaseViewEventEmitterENS0_9StateDataEE5PropsERKNS0_18PropsParserContextERKNS0_8RawPropsERKNSt3__110shared_ptrIKNS0_5PropsEEE, symObjAddr: 0x2E14, symBinAddr: 0x19944, symSize: 0x58 }
  - { offset: 0x270F14, size: 0x8, addend: 0x0, symName: __ZNK8facebook5react27ConcreteComponentDescriptorINS0_23RNSVGConcreteShadowNodeIXadL_ZNS0_32RNSVGFeGaussianBlurComponentNameEEENS0_24RNSVGFeGaussianBlurPropsEEEE18createInitialStateERKNSt3__110shared_ptrIKNS0_5PropsEEERKNS7_IKNS0_16ShadowNodeFamilyEEE, symObjAddr: 0x22E8, symBinAddr: 0x19404, symSize: 0x8 }
  - { offset: 0x270F58, size: 0x8, addend: 0x0, symName: __ZNK8facebook5react27ConcreteComponentDescriptorINS0_23RNSVGConcreteShadowNodeIXadL_ZNS0_32RNSVGFeGaussianBlurComponentNameEEENS0_24RNSVGFeGaussianBlurPropsEEEE18createInitialStateERKNSt3__110shared_ptrIKNS0_5PropsEEERKNS7_IKNS0_16ShadowNodeFamilyEEE, symObjAddr: 0x22E8, symBinAddr: 0x19404, symSize: 0x8 }
  - { offset: 0x270F7C, size: 0x8, addend: 0x0, symName: __ZNK8facebook5react27ConcreteComponentDescriptorINS0_23RNSVGConcreteShadowNodeIXadL_ZNS0_32RNSVGFeGaussianBlurComponentNameEEENS0_24RNSVGFeGaussianBlurPropsEEEE18createInitialStateERKNSt3__110shared_ptrIKNS0_5PropsEEERKNS7_IKNS0_16ShadowNodeFamilyEEE, symObjAddr: 0x22E8, symBinAddr: 0x19404, symSize: 0x8 }
  - { offset: 0x270FA0, size: 0x8, addend: 0x0, symName: __ZNK8facebook5react27ConcreteComponentDescriptorINS0_23RNSVGConcreteShadowNodeIXadL_ZNS0_32RNSVGFeGaussianBlurComponentNameEEENS0_24RNSVGFeGaussianBlurPropsEEEE11createStateERKNS0_16ShadowNodeFamilyERKNSt3__110shared_ptrIKvEE, symObjAddr: 0x22F0, symBinAddr: 0x1940C, symSize: 0x8 }
  - { offset: 0x270FE4, size: 0x8, addend: 0x0, symName: __ZNK8facebook5react27ConcreteComponentDescriptorINS0_23RNSVGConcreteShadowNodeIXadL_ZNS0_32RNSVGFeGaussianBlurComponentNameEEENS0_24RNSVGFeGaussianBlurPropsEEEE11createStateERKNS0_16ShadowNodeFamilyERKNSt3__110shared_ptrIKvEE, symObjAddr: 0x22F0, symBinAddr: 0x1940C, symSize: 0x8 }
  - { offset: 0x271008, size: 0x8, addend: 0x0, symName: __ZNK8facebook5react27ConcreteComponentDescriptorINS0_23RNSVGConcreteShadowNodeIXadL_ZNS0_32RNSVGFeGaussianBlurComponentNameEEENS0_24RNSVGFeGaussianBlurPropsEEEE11createStateERKNS0_16ShadowNodeFamilyERKNSt3__110shared_ptrIKvEE, symObjAddr: 0x22F0, symBinAddr: 0x1940C, symSize: 0x8 }
  - { offset: 0x271214, size: 0x8, addend: 0x0, symName: __ZNK8facebook5react27ConcreteComponentDescriptorINS0_23RNSVGConcreteShadowNodeIXadL_ZNS0_32RNSVGFeGaussianBlurComponentNameEEENS0_24RNSVGFeGaussianBlurPropsEEEE12createFamilyERKNS0_24ShadowNodeFamilyFragmentE, symObjAddr: 0x22F8, symBinAddr: 0x19414, symSize: 0x168 }
  - { offset: 0x2717A3, size: 0x8, addend: 0x0, symName: __ZNK8facebook5react27ConcreteComponentDescriptorINS0_23RNSVGConcreteShadowNodeIXadL_ZNS0_32RNSVGFeGaussianBlurComponentNameEEENS0_24RNSVGFeGaussianBlurPropsEEEE5adoptERNS0_10ShadowNodeE, symObjAddr: 0x2460, symBinAddr: 0x1957C, symSize: 0x4 }
  - { offset: 0x271FFC, size: 0x8, addend: 0x0, symName: __ZNSt3__120__shared_ptr_emplaceIN8facebook5react23RNSVGConcreteShadowNodeIXadL_ZNS2_32RNSVGFeGaussianBlurComponentNameEEENS2_24RNSVGFeGaussianBlurPropsEEENS_9allocatorIS5_EEEC2B8ne200100IJRKNS2_18ShadowNodeFragmentERKNS_10shared_ptrIKNS2_16ShadowNodeFamilyEEENS2_16ShadowNodeTraitsEES7_Li0EEES7_DpOT_, symObjAddr: 0x278C, symBinAddr: 0x195F0, symSize: 0x60 }
  - { offset: 0x272320, size: 0x8, addend: 0x0, symName: __ZNSt3__120__shared_ptr_emplaceIN8facebook5react23RNSVGConcreteShadowNodeIXadL_ZNS2_32RNSVGFeGaussianBlurComponentNameEEENS2_24RNSVGFeGaussianBlurPropsEEENS_9allocatorIS5_EEED1Ev, symObjAddr: 0x27EC, symBinAddr: 0x19650, symSize: 0x14 }
  - { offset: 0x272344, size: 0x8, addend: 0x0, symName: __ZNSt3__120__shared_ptr_emplaceIN8facebook5react23RNSVGConcreteShadowNodeIXadL_ZNS2_32RNSVGFeGaussianBlurComponentNameEEENS2_24RNSVGFeGaussianBlurPropsEEENS_9allocatorIS5_EEED1Ev, symObjAddr: 0x27EC, symBinAddr: 0x19650, symSize: 0x14 }
  - { offset: 0x27237A, size: 0x8, addend: 0x0, symName: __ZNSt3__120__shared_ptr_emplaceIN8facebook5react23RNSVGConcreteShadowNodeIXadL_ZNS2_32RNSVGFeGaussianBlurComponentNameEEENS2_24RNSVGFeGaussianBlurPropsEEENS_9allocatorIS5_EEED0Ev, symObjAddr: 0x2800, symBinAddr: 0x19664, symSize: 0x24 }
  - { offset: 0x27244A, size: 0x8, addend: 0x0, symName: __ZNSt3__120__shared_ptr_emplaceIN8facebook5react23RNSVGConcreteShadowNodeIXadL_ZNS2_32RNSVGFeGaussianBlurComponentNameEEENS2_24RNSVGFeGaussianBlurPropsEEENS_9allocatorIS5_EEE16__on_zero_sharedEv, symObjAddr: 0x2824, symBinAddr: 0x19688, symSize: 0xC }
  - { offset: 0x272473, size: 0x8, addend: 0x0, symName: __ZNSt3__120__shared_ptr_emplaceIN8facebook5react23RNSVGConcreteShadowNodeIXadL_ZNS2_32RNSVGFeGaussianBlurComponentNameEEENS2_24RNSVGFeGaussianBlurPropsEEENS_9allocatorIS5_EEE16__on_zero_sharedEv, symObjAddr: 0x2824, symBinAddr: 0x19688, symSize: 0xC }
  - { offset: 0x272492, size: 0x8, addend: 0x0, symName: __ZNSt3__120__shared_ptr_emplaceIN8facebook5react23RNSVGConcreteShadowNodeIXadL_ZNS2_32RNSVGFeGaussianBlurComponentNameEEENS2_24RNSVGFeGaussianBlurPropsEEENS_9allocatorIS5_EEE16__on_zero_sharedEv, symObjAddr: 0x2824, symBinAddr: 0x19688, symSize: 0xC }
  - { offset: 0x2724B1, size: 0x8, addend: 0x0, symName: __ZNSt3__120__shared_ptr_emplaceIN8facebook5react23RNSVGConcreteShadowNodeIXadL_ZNS2_32RNSVGFeGaussianBlurComponentNameEEENS2_24RNSVGFeGaussianBlurPropsEEENS_9allocatorIS5_EEE16__on_zero_sharedEv, symObjAddr: 0x2824, symBinAddr: 0x19688, symSize: 0xC }
  - { offset: 0x2724DD, size: 0x8, addend: 0x0, symName: __ZNSt3__120__shared_ptr_emplaceIN8facebook5react23RNSVGConcreteShadowNodeIXadL_ZNS2_32RNSVGFeGaussianBlurComponentNameEEENS2_24RNSVGFeGaussianBlurPropsEEENS_9allocatorIS5_EEE21__on_zero_shared_weakEv, symObjAddr: 0x2830, symBinAddr: 0x19694, symSize: 0x4 }
  - { offset: 0x272510, size: 0x8, addend: 0x0, symName: __ZNSt3__120__shared_ptr_emplaceIN8facebook5react23RNSVGConcreteShadowNodeIXadL_ZNS2_32RNSVGFeGaussianBlurComponentNameEEENS2_24RNSVGFeGaussianBlurPropsEEENS_9allocatorIS5_EEE21__on_zero_shared_weakEv, symObjAddr: 0x2830, symBinAddr: 0x19694, symSize: 0x4 }
  - { offset: 0x272534, size: 0x8, addend: 0x0, symName: __ZNSt3__120__shared_ptr_emplaceIN8facebook5react23RNSVGConcreteShadowNodeIXadL_ZNS2_32RNSVGFeGaussianBlurComponentNameEEENS2_24RNSVGFeGaussianBlurPropsEEENS_9allocatorIS5_EEE21__on_zero_shared_weakEv, symObjAddr: 0x2830, symBinAddr: 0x19694, symSize: 0x4 }
  - { offset: 0x272559, size: 0x8, addend: 0x0, symName: __ZNSt3__120__shared_ptr_emplaceIN8facebook5react23RNSVGConcreteShadowNodeIXadL_ZNS2_32RNSVGFeGaussianBlurComponentNameEEENS2_24RNSVGFeGaussianBlurPropsEEENS_9allocatorIS5_EEE21__on_zero_shared_weakEv, symObjAddr: 0x2830, symBinAddr: 0x19694, symSize: 0x4 }
  - { offset: 0x272591, size: 0x8, addend: 0x0, symName: __ZNSt3__120__shared_ptr_emplaceIN8facebook5react23RNSVGConcreteShadowNodeIXadL_ZNS2_32RNSVGFeGaussianBlurComponentNameEEENS2_24RNSVGFeGaussianBlurPropsEEENS_9allocatorIS5_EEE21__on_zero_shared_weakEv, symObjAddr: 0x2830, symBinAddr: 0x19694, symSize: 0x4 }
  - { offset: 0x272811, size: 0x8, addend: 0x0, symName: __ZN8facebook5react23RNSVGConcreteShadowNodeIXadL_ZNS0_32RNSVGFeGaussianBlurComponentNameEEENS0_24RNSVGFeGaussianBlurPropsEED1Ev, symObjAddr: 0x2834, symBinAddr: 0x19698, symSize: 0x70 }
  - { offset: 0x272DC2, size: 0x8, addend: 0x0, symName: __ZN8facebook5react23RNSVGConcreteShadowNodeIXadL_ZNS0_32RNSVGFeGaussianBlurComponentNameEEENS0_24RNSVGFeGaussianBlurPropsEED0Ev, symObjAddr: 0x28A4, symBinAddr: 0x19708, symSize: 0x74 }
  - { offset: 0x273208, size: 0x8, addend: 0x0, symName: __ZNK8facebook5react23RNSVGConcreteShadowNodeIXadL_ZNS0_32RNSVGFeGaussianBlurComponentNameEEENS0_24RNSVGFeGaussianBlurPropsEE12getTransformEv, symObjAddr: 0x2918, symBinAddr: 0x1977C, symSize: 0x40 }
  - { offset: 0x27327B, size: 0x8, addend: 0x0, symName: __ZNK8facebook5react23RNSVGConcreteShadowNodeIXadL_ZNS0_32RNSVGFeGaussianBlurComponentNameEEENS0_24RNSVGFeGaussianBlurPropsEE16canBeTouchTargetEv, symObjAddr: 0x2958, symBinAddr: 0x197BC, symSize: 0x18 }
  - { offset: 0x2732B3, size: 0x8, addend: 0x0, symName: __ZNK8facebook5react23RNSVGConcreteShadowNodeIXadL_ZNS0_32RNSVGFeGaussianBlurComponentNameEEENS0_24RNSVGFeGaussianBlurPropsEE16canBeTouchTargetEv, symObjAddr: 0x2958, symBinAddr: 0x197BC, symSize: 0x18 }
  - { offset: 0x2732D0, size: 0x8, addend: 0x0, symName: __ZNK8facebook5react23RNSVGConcreteShadowNodeIXadL_ZNS0_32RNSVGFeGaussianBlurComponentNameEEENS0_24RNSVGFeGaussianBlurPropsEE16canBeTouchTargetEv, symObjAddr: 0x2958, symBinAddr: 0x197BC, symSize: 0x18 }
  - { offset: 0x2732EE, size: 0x8, addend: 0x0, symName: __ZNK8facebook5react23RNSVGConcreteShadowNodeIXadL_ZNS0_32RNSVGFeGaussianBlurComponentNameEEENS0_24RNSVGFeGaussianBlurPropsEE24canChildrenBeTouchTargetEv, symObjAddr: 0x2970, symBinAddr: 0x197D4, symSize: 0x18 }
  - { offset: 0x273322, size: 0x8, addend: 0x0, symName: __ZNK8facebook5react23RNSVGConcreteShadowNodeIXadL_ZNS0_32RNSVGFeGaussianBlurComponentNameEEENS0_24RNSVGFeGaussianBlurPropsEE24canChildrenBeTouchTargetEv, symObjAddr: 0x2970, symBinAddr: 0x197D4, symSize: 0x18 }
  - { offset: 0x27333F, size: 0x8, addend: 0x0, symName: __ZNK8facebook5react23RNSVGConcreteShadowNodeIXadL_ZNS0_32RNSVGFeGaussianBlurComponentNameEEENS0_24RNSVGFeGaussianBlurPropsEE24canChildrenBeTouchTargetEv, symObjAddr: 0x2970, symBinAddr: 0x197D4, symSize: 0x18 }
  - { offset: 0x273738, size: 0x8, addend: 0x0, symName: __ZNSt3__120__shared_ptr_emplaceIN8facebook5react23RNSVGConcreteShadowNodeIXadL_ZNS2_32RNSVGFeGaussianBlurComponentNameEEENS2_24RNSVGFeGaussianBlurPropsEEENS_9allocatorIS5_EEEC2B8ne200100IJRKNS2_10ShadowNodeERKNS2_18ShadowNodeFragmentEES7_Li0EEES7_DpOT_, symObjAddr: 0x2CC4, symBinAddr: 0x1984C, symSize: 0x5C }
  - { offset: 0x273C33, size: 0x8, addend: 0x0, symName: __ZNSt3__120__shared_ptr_emplaceIN8facebook5react24RNSVGFeGaussianBlurPropsENS_9allocatorIS3_EEEC2B8ne200100IJRKNS2_18PropsParserContextERKS3_RKNS2_8RawPropsEES5_Li0EEES5_DpOT_, symObjAddr: 0x2EDC, symBinAddr: 0x19A0C, symSize: 0x4C }
  - { offset: 0x273E21, size: 0x8, addend: 0x0, symName: __ZNSt3__120__shared_ptr_emplaceIN8facebook5react24RNSVGFeGaussianBlurPropsENS_9allocatorIS3_EEED1Ev, symObjAddr: 0x2F28, symBinAddr: 0x19A58, symSize: 0x14 }
  - { offset: 0x273E45, size: 0x8, addend: 0x0, symName: __ZNSt3__120__shared_ptr_emplaceIN8facebook5react24RNSVGFeGaussianBlurPropsENS_9allocatorIS3_EEED1Ev, symObjAddr: 0x2F28, symBinAddr: 0x19A58, symSize: 0x14 }
  - { offset: 0x273E7B, size: 0x8, addend: 0x0, symName: __ZNSt3__120__shared_ptr_emplaceIN8facebook5react24RNSVGFeGaussianBlurPropsENS_9allocatorIS3_EEED0Ev, symObjAddr: 0x2F3C, symBinAddr: 0x19A6C, symSize: 0x24 }
  - { offset: 0x273F1C, size: 0x8, addend: 0x0, symName: __ZNSt3__120__shared_ptr_emplaceIN8facebook5react24RNSVGFeGaussianBlurPropsENS_9allocatorIS3_EEE16__on_zero_sharedEv, symObjAddr: 0x2F60, symBinAddr: 0x19A90, symSize: 0x8 }
  - { offset: 0x273F45, size: 0x8, addend: 0x0, symName: __ZNSt3__120__shared_ptr_emplaceIN8facebook5react24RNSVGFeGaussianBlurPropsENS_9allocatorIS3_EEE16__on_zero_sharedEv, symObjAddr: 0x2F60, symBinAddr: 0x19A90, symSize: 0x8 }
  - { offset: 0x273F64, size: 0x8, addend: 0x0, symName: __ZNSt3__120__shared_ptr_emplaceIN8facebook5react24RNSVGFeGaussianBlurPropsENS_9allocatorIS3_EEE16__on_zero_sharedEv, symObjAddr: 0x2F60, symBinAddr: 0x19A90, symSize: 0x8 }
  - { offset: 0x273FA2, size: 0x8, addend: 0x0, symName: __ZNSt3__120__shared_ptr_emplaceIN8facebook5react24RNSVGFeGaussianBlurPropsENS_9allocatorIS3_EEE21__on_zero_shared_weakEv, symObjAddr: 0x2F68, symBinAddr: 0x19A98, symSize: 0x4 }
  - { offset: 0x273FD5, size: 0x8, addend: 0x0, symName: __ZNSt3__120__shared_ptr_emplaceIN8facebook5react24RNSVGFeGaussianBlurPropsENS_9allocatorIS3_EEE21__on_zero_shared_weakEv, symObjAddr: 0x2F68, symBinAddr: 0x19A98, symSize: 0x4 }
  - { offset: 0x273FF9, size: 0x8, addend: 0x0, symName: __ZNSt3__120__shared_ptr_emplaceIN8facebook5react24RNSVGFeGaussianBlurPropsENS_9allocatorIS3_EEE21__on_zero_shared_weakEv, symObjAddr: 0x2F68, symBinAddr: 0x19A98, symSize: 0x4 }
  - { offset: 0x27401E, size: 0x8, addend: 0x0, symName: __ZNSt3__120__shared_ptr_emplaceIN8facebook5react24RNSVGFeGaussianBlurPropsENS_9allocatorIS3_EEE21__on_zero_shared_weakEv, symObjAddr: 0x2F68, symBinAddr: 0x19A98, symSize: 0x4 }
  - { offset: 0x274056, size: 0x8, addend: 0x0, symName: __ZNSt3__120__shared_ptr_emplaceIN8facebook5react24RNSVGFeGaussianBlurPropsENS_9allocatorIS3_EEE21__on_zero_shared_weakEv, symObjAddr: 0x2F68, symBinAddr: 0x19A98, symSize: 0x4 }
  - { offset: 0x27533B, size: 0x8, addend: 0x0, symName: __ZNSt3__120__shared_ptr_emplaceIN8facebook5react16ShadowNodeFamilyENS_9allocatorIS3_EEEC2B8ne200100IJRKNS2_24ShadowNodeFamilyFragmentERNS_10shared_ptrIKNS2_20BaseViewEventEmitterEEERKNS_8weak_ptrIKNS2_15EventDispatcherEEERKNS2_27ConcreteComponentDescriptorINS2_23RNSVGConcreteShadowNodeIXadL_ZNS2_32RNSVGFeGaussianBlurComponentNameEEENS2_24RNSVGFeGaussianBlurPropsEEEEEES5_Li0EEES5_DpOT_, symObjAddr: 0x3890, symBinAddr: 0x19B14, symSize: 0x4C }
  - { offset: 0x2758A3, size: 0x8, addend: 0x0, symName: __GLOBAL__sub_I_RNSVGFeGaussianBlur.mm, symObjAddr: 0x41D8, symBinAddr: 0x19EB0, symSize: 0x20 }
  - { offset: 0x277D02, size: 0x8, addend: 0x0, symName: __ZN8facebook5react17HostPlatformColorL14UndefinedColorE, symObjAddr: 0xDE408, symBinAddr: 0xB02F0, symSize: 0x0 }
  - { offset: 0x2789F0, size: 0x8, addend: 0x0, symName: '+[RNSVGFeGaussianBlurManager moduleName]', symObjAddr: 0x0, symBinAddr: 0x19ED0, symSize: 0xC }
  - { offset: 0x278A21, size: 0x8, addend: 0x0, symName: '+[RNSVGFeGaussianBlurManager load]', symObjAddr: 0xC, symBinAddr: 0x19EDC, symSize: 0x4 }
  - { offset: 0x278A54, size: 0x8, addend: 0x0, symName: '+[RNSVGFeGaussianBlurManager load]', symObjAddr: 0xC, symBinAddr: 0x19EDC, symSize: 0x4 }
  - { offset: 0x278A73, size: 0x8, addend: 0x0, symName: '-[RNSVGFeGaussianBlurManager node]', symObjAddr: 0x10, symBinAddr: 0x19EE0, symSize: 0x1C }
  - { offset: 0x278AA4, size: 0x8, addend: 0x0, symName: '+[RNSVGFeGaussianBlurManager propConfig_in1]', symObjAddr: 0x2C, symBinAddr: 0x19EFC, symSize: 0xC }
  - { offset: 0x278AD5, size: 0x8, addend: 0x0, symName: '+[RNSVGFeGaussianBlurManager propConfig_stdDeviationX]', symObjAddr: 0x38, symBinAddr: 0x19F08, symSize: 0xC }
  - { offset: 0x278B06, size: 0x8, addend: 0x0, symName: '+[RNSVGFeGaussianBlurManager propConfig_stdDeviationY]', symObjAddr: 0x44, symBinAddr: 0x19F14, symSize: 0xC }
  - { offset: 0x278B37, size: 0x8, addend: 0x0, symName: '+[RNSVGFeGaussianBlurManager propConfig_edgeMode]', symObjAddr: 0x50, symBinAddr: 0x19F20, symSize: 0xC }
  - { offset: 0x278BEF, size: 0x8, addend: 0x0, symName: __GLOBAL__sub_I_RNSVGFeGaussianBlurManager.mm, symObjAddr: 0x5C, symBinAddr: 0x19F2C, symSize: 0x20 }
  - { offset: 0x27AC4D, size: 0x8, addend: 0x0, symName: __ZN8facebook5react17HostPlatformColorL14UndefinedColorE, symObjAddr: 0x173778, symBinAddr: 0xB0308, symSize: 0x0 }
  - { offset: 0x27E074, size: 0x8, addend: 0x0, symName: __ZN8facebook5react38concreteComponentDescriptorConstructorINS0_27ConcreteComponentDescriptorINS0_23RNSVGConcreteShadowNodeIXadL_ZNS0_25RNSVGFeMergeComponentNameEEENS0_17RNSVGFeMergePropsEEEEEEENSt3__110unique_ptrIKNS0_19ComponentDescriptorENS7_14default_deleteISA_EEEERKNS0_29ComponentDescriptorParametersE, symObjAddr: 0x1960, symBinAddr: 0x1A9BC, symSize: 0x34 }
  - { offset: 0x29A116, size: 0x8, addend: 0x0, symName: __ZNSt3__115allocate_sharedB8ne200100IKN8facebook5react17RNSVGFeMergePropsENS_9allocatorIS3_EEJELi0EEENS_10shared_ptrIT_EERKT0_DpOT1_, symObjAddr: 0x9C8, symBinAddr: 0x1A720, symSize: 0x48 }
  - { offset: 0x29ACA0, size: 0x8, addend: 0x0, symName: __ZNSt3__112__destroy_atB8ne200100IN8facebook5react17RNSVGFeMergePropsELi0EEEvPT_, symObjAddr: 0x1890, symBinAddr: 0x1A944, symSize: 0x78 }
  - { offset: 0x29B69E, size: 0x8, addend: 0x0, symName: __ZNSt3__111make_uniqueB8ne200100IKN8facebook5react27ConcreteComponentDescriptorINS2_23RNSVGConcreteShadowNodeIXadL_ZNS2_25RNSVGFeMergeComponentNameEEENS2_17RNSVGFeMergePropsEEEEEJRKNS2_29ComponentDescriptorParametersEELi0EEENS_10unique_ptrIT_NS_14default_deleteISD_EEEEDpOT0_, symObjAddr: 0x1994, symBinAddr: 0x1A9F0, symSize: 0xD4 }
  - { offset: 0x29C016, size: 0x8, addend: 0x0, symName: __ZNSt3__115allocate_sharedB8ne200100IN8facebook5react23RNSVGConcreteShadowNodeIXadL_ZNS2_25RNSVGFeMergeComponentNameEEENS2_17RNSVGFeMergePropsEEENS_9allocatorIS5_EEJRKNS2_18ShadowNodeFragmentERKNS_10shared_ptrIKNS2_16ShadowNodeFamilyEEENS2_16ShadowNodeTraitsEELi0EEENSB_IT_EERKT0_DpOT1_, symObjAddr: 0x258C, symBinAddr: 0x1B2E0, symSize: 0x70 }
  - { offset: 0x29C345, size: 0x8, addend: 0x0, symName: __ZNSt3__115allocate_sharedB8ne200100IN8facebook5react23RNSVGConcreteShadowNodeIXadL_ZNS2_25RNSVGFeMergeComponentNameEEENS2_17RNSVGFeMergePropsEEENS_9allocatorIS5_EEJRKNS2_10ShadowNodeERKNS2_18ShadowNodeFragmentEELi0EEENS_10shared_ptrIT_EERKT0_DpOT1_, symObjAddr: 0x2AD4, symBinAddr: 0x1B54C, symSize: 0x60 }
  - { offset: 0x29CA90, size: 0x8, addend: 0x0, symName: __ZNSt3__115allocate_sharedB8ne200100IN8facebook5react16ShadowNodeFamilyENS_9allocatorIS3_EEJRKNS2_24ShadowNodeFamilyFragmentERNS_10shared_ptrIKNS2_20BaseViewEventEmitterEEERKNS_8weak_ptrIKNS2_15EventDispatcherEEERKNS2_27ConcreteComponentDescriptorINS2_23RNSVGConcreteShadowNodeIXadL_ZNS2_25RNSVGFeMergeComponentNameEEENS2_17RNSVGFeMergePropsEEEEEELi0EEENS9_IT_EERKT0_DpOT1_, symObjAddr: 0x3600, symBinAddr: 0x1B7FC, symSize: 0x78 }
  - { offset: 0x29D823, size: 0x8, addend: 0x0, symName: __ZNSt3__115allocate_sharedB8ne200100IN8facebook5react17RNSVGFeMergePropsENS_9allocatorIS3_EEJRKNS2_18PropsParserContextERKS3_RKNS2_8RawPropsEELi0EEENS_10shared_ptrIT_EERKT0_DpOT1_, symObjAddr: 0x2CDC, symBinAddr: 0x1B6FC, symSize: 0x70 }
  - { offset: 0x29EA59, size: 0x8, addend: 0x0, symName: __ZNSt3__112construct_atB8ne200100IN8facebook5react16ShadowNodeFamilyEJRKNS2_24ShadowNodeFamilyFragmentERNS_10shared_ptrIKNS2_20BaseViewEventEmitterEEERKNS_8weak_ptrIKNS2_15EventDispatcherEEERKNS2_27ConcreteComponentDescriptorINS2_23RNSVGConcreteShadowNodeIXadL_ZNS2_25RNSVGFeMergeComponentNameEEENS2_17RNSVGFeMergePropsEEEEEEPS3_EEPT_SR_DpOT0_, symObjAddr: 0x3708, symBinAddr: 0x1B8C0, symSize: 0xDC }
  - { offset: 0x29FE41, size: 0x8, addend: 0x0, symName: '-[RNSVGFeMerge initWithFrame:]', symObjAddr: 0x34, symBinAddr: 0x19F80, symSize: 0xDC }
  - { offset: 0x29FE6A, size: 0x8, addend: 0x0, symName: '__ZZ30-[RNSVGFeMerge initWithFrame:]E12defaultProps', symObjAddr: 0x173790, symBinAddr: 0xB0320, symSize: 0x0 }
  - { offset: 0x2A386E, size: 0x8, addend: 0x0, symName: __ZN8facebook5react18ConcreteShadowNodeIXadL_ZNS0_25RNSVGFeMergeComponentNameEEENS0_25RNSVGLayoutableShadowNodeENS0_17RNSVGFeMergePropsENS0_20BaseViewEventEmitterENS0_9StateDataEE18defaultSharedPropsEv, symObjAddr: 0x2BE8, symBinAddr: 0x1B608, symSize: 0x9C }
  - { offset: 0x2A388D, size: 0x8, addend: 0x0, symName: __ZZN8facebook5react18ConcreteShadowNodeIXadL_ZNS0_25RNSVGFeMergeComponentNameEEENS0_25RNSVGLayoutableShadowNodeENS0_17RNSVGFeMergePropsENS0_20BaseViewEventEmitterENS0_9StateDataEE18defaultSharedPropsEvE18defaultSharedProps, symObjAddr: 0x5310, symBinAddr: 0xAF9D8, symSize: 0x0 }
  - { offset: 0x2A3AC0, size: 0x8, addend: 0x0, symName: '+[RNSVGFeMerge load]', symObjAddr: 0x0, symBinAddr: 0x19F4C, symSize: 0x34 }
  - { offset: 0x2A3BFF, size: 0x8, addend: 0x0, symName: __ZNSt3__110shared_ptrIKN8facebook5react17RNSVGFeMergePropsEED1B8ne200100Ev, symObjAddr: 0x110, symBinAddr: 0x1A05C, symSize: 0x4 }
  - { offset: 0x2A3C23, size: 0x8, addend: 0x0, symName: __ZNSt3__110shared_ptrIKN8facebook5react17RNSVGFeMergePropsEED1B8ne200100Ev, symObjAddr: 0x110, symBinAddr: 0x1A05C, symSize: 0x4 }
  - { offset: 0x2A3E2B, size: 0x8, addend: 0x0, symName: '+[RNSVGFeMerge componentDescriptorProvider]', symObjAddr: 0x18C, symBinAddr: 0x1A060, symSize: 0x20 }
  - { offset: 0x2A3E5F, size: 0x8, addend: 0x0, symName: '+[RNSVGFeMerge componentDescriptorProvider]', symObjAddr: 0x18C, symBinAddr: 0x1A060, symSize: 0x20 }
  - { offset: 0x2A4163, size: 0x8, addend: 0x0, symName: '-[RNSVGFeMerge updateProps:oldProps:]', symObjAddr: 0x1AC, symBinAddr: 0x1A080, symSize: 0x1C0 }
  - { offset: 0x2A48E8, size: 0x8, addend: 0x0, symName: __Z20setCommonFilterPropsIN8facebook5react17RNSVGFeMergePropsEEvRKT_P20RNSVGFilterPrimitive, symObjAddr: 0x36C, symBinAddr: 0x1A240, symSize: 0x224 }
  - { offset: 0x2A4C30, size: 0x8, addend: 0x0, symName: __ZL28RNSVGConvertFollyDynamicToIdRKN5folly7dynamicE, symObjAddr: 0x38EC, symBinAddr: 0x1B99C, symSize: 0x274 }
  - { offset: 0x2A516C, size: 0x8, addend: 0x0, symName: '-[RNSVGFeMerge prepareForRecycle]', symObjAddr: 0x5F4, symBinAddr: 0x1A464, symSize: 0x54 }
  - { offset: 0x2A519D, size: 0x8, addend: 0x0, symName: '-[RNSVGFeMerge setNodes:]', symObjAddr: 0x648, symBinAddr: 0x1A4B8, symSize: 0x70 }
  - { offset: 0x2A51DC, size: 0x8, addend: 0x0, symName: '-[RNSVGFeMerge applyFilter:previousFilterResult:ctm:]', symObjAddr: 0x6B8, symBinAddr: 0x1A528, symSize: 0x1C8 }
  - { offset: 0x2A528D, size: 0x8, addend: 0x0, symName: __Z15RNSVGFeMergeClsv, symObjAddr: 0x880, symBinAddr: 0x1A6F0, symSize: 0xC }
  - { offset: 0x2A52AB, size: 0x8, addend: 0x0, symName: '-[RNSVGFeMerge nodes]', symObjAddr: 0x88C, symBinAddr: 0x1A6FC, symSize: 0x10 }
  - { offset: 0x2A52E1, size: 0x8, addend: 0x0, symName: '-[RNSVGFeMerge .cxx_destruct]', symObjAddr: 0x89C, symBinAddr: 0x1A70C, symSize: 0x14 }
  - { offset: 0x2A5691, size: 0x8, addend: 0x0, symName: __ZNSt3__120__shared_ptr_emplaceIKN8facebook5react17RNSVGFeMergePropsENS_9allocatorIS3_EEEC2B8ne200100IJES6_Li0EEES6_DpOT_, symObjAddr: 0xA10, symBinAddr: 0x1A768, symSize: 0xA4 }
  - { offset: 0x2A70A8, size: 0x8, addend: 0x0, symName: __ZNSt3__120__shared_ptr_emplaceIKN8facebook5react17RNSVGFeMergePropsENS_9allocatorIS3_EEED1Ev, symObjAddr: 0xAB4, symBinAddr: 0x1A80C, symSize: 0x14 }
  - { offset: 0x2A70CC, size: 0x8, addend: 0x0, symName: __ZNSt3__120__shared_ptr_emplaceIKN8facebook5react17RNSVGFeMergePropsENS_9allocatorIS3_EEED1Ev, symObjAddr: 0xAB4, symBinAddr: 0x1A80C, symSize: 0x14 }
  - { offset: 0x2A7102, size: 0x8, addend: 0x0, symName: __ZNSt3__120__shared_ptr_emplaceIKN8facebook5react17RNSVGFeMergePropsENS_9allocatorIS3_EEED0Ev, symObjAddr: 0xAC8, symBinAddr: 0x1A820, symSize: 0x24 }
  - { offset: 0x2A71D2, size: 0x8, addend: 0x0, symName: __ZNSt3__120__shared_ptr_emplaceIKN8facebook5react17RNSVGFeMergePropsENS_9allocatorIS3_EEE16__on_zero_sharedEv, symObjAddr: 0xAEC, symBinAddr: 0x1A844, symSize: 0x8 }
  - { offset: 0x2A71FB, size: 0x8, addend: 0x0, symName: __ZNSt3__120__shared_ptr_emplaceIKN8facebook5react17RNSVGFeMergePropsENS_9allocatorIS3_EEE16__on_zero_sharedEv, symObjAddr: 0xAEC, symBinAddr: 0x1A844, symSize: 0x8 }
  - { offset: 0x2A721A, size: 0x8, addend: 0x0, symName: __ZNSt3__120__shared_ptr_emplaceIKN8facebook5react17RNSVGFeMergePropsENS_9allocatorIS3_EEE16__on_zero_sharedEv, symObjAddr: 0xAEC, symBinAddr: 0x1A844, symSize: 0x8 }
  - { offset: 0x2A7258, size: 0x8, addend: 0x0, symName: __ZNSt3__120__shared_ptr_emplaceIKN8facebook5react17RNSVGFeMergePropsENS_9allocatorIS3_EEE21__on_zero_shared_weakEv, symObjAddr: 0xAF4, symBinAddr: 0x1A84C, symSize: 0x4 }
  - { offset: 0x2A728B, size: 0x8, addend: 0x0, symName: __ZNSt3__120__shared_ptr_emplaceIKN8facebook5react17RNSVGFeMergePropsENS_9allocatorIS3_EEE21__on_zero_shared_weakEv, symObjAddr: 0xAF4, symBinAddr: 0x1A84C, symSize: 0x4 }
  - { offset: 0x2A72AF, size: 0x8, addend: 0x0, symName: __ZNSt3__120__shared_ptr_emplaceIKN8facebook5react17RNSVGFeMergePropsENS_9allocatorIS3_EEE21__on_zero_shared_weakEv, symObjAddr: 0xAF4, symBinAddr: 0x1A84C, symSize: 0x4 }
  - { offset: 0x2A72D4, size: 0x8, addend: 0x0, symName: __ZNSt3__120__shared_ptr_emplaceIKN8facebook5react17RNSVGFeMergePropsENS_9allocatorIS3_EEE21__on_zero_shared_weakEv, symObjAddr: 0xAF4, symBinAddr: 0x1A84C, symSize: 0x4 }
  - { offset: 0x2A730C, size: 0x8, addend: 0x0, symName: __ZNSt3__120__shared_ptr_emplaceIKN8facebook5react17RNSVGFeMergePropsENS_9allocatorIS3_EEE21__on_zero_shared_weakEv, symObjAddr: 0xAF4, symBinAddr: 0x1A84C, symSize: 0x4 }
  - { offset: 0x2AA16B, size: 0x8, addend: 0x0, symName: __ZN8facebook5react17RNSVGFeMergePropsD1Ev, symObjAddr: 0x1014, symBinAddr: 0x1A850, symSize: 0x78 }
  - { offset: 0x2AA4BE, size: 0x8, addend: 0x0, symName: __ZN8facebook5react17RNSVGFeMergePropsD0Ev, symObjAddr: 0x108C, symBinAddr: 0x1A8C8, symSize: 0x7C }
  - { offset: 0x2AC0F1, size: 0x8, addend: 0x0, symName: __ZN8facebook5react14RawPropsParser7prepareINS0_17RNSVGFeMergePropsEEEvv, symObjAddr: 0x1AB8, symBinAddr: 0x1AAC4, symSize: 0x2A4 }
  - { offset: 0x2AD839, size: 0x8, addend: 0x0, symName: __ZN8facebook5react27ConcreteComponentDescriptorINS0_23RNSVGConcreteShadowNodeIXadL_ZNS0_25RNSVGFeMergeComponentNameEEENS0_17RNSVGFeMergePropsEEEED1Ev, symObjAddr: 0x1D5C, symBinAddr: 0x1AD68, symSize: 0x4 }
  - { offset: 0x2AD85D, size: 0x8, addend: 0x0, symName: __ZN8facebook5react27ConcreteComponentDescriptorINS0_23RNSVGConcreteShadowNodeIXadL_ZNS0_25RNSVGFeMergeComponentNameEEENS0_17RNSVGFeMergePropsEEEED1Ev, symObjAddr: 0x1D5C, symBinAddr: 0x1AD68, symSize: 0x4 }
  - { offset: 0x2AD87B, size: 0x8, addend: 0x0, symName: __ZN8facebook5react27ConcreteComponentDescriptorINS0_23RNSVGConcreteShadowNodeIXadL_ZNS0_25RNSVGFeMergeComponentNameEEENS0_17RNSVGFeMergePropsEEEED1Ev, symObjAddr: 0x1D5C, symBinAddr: 0x1AD68, symSize: 0x4 }
  - { offset: 0x2ADB52, size: 0x8, addend: 0x0, symName: __ZN8facebook5react27ConcreteComponentDescriptorINS0_23RNSVGConcreteShadowNodeIXadL_ZNS0_25RNSVGFeMergeComponentNameEEENS0_17RNSVGFeMergePropsEEEED0Ev, symObjAddr: 0x1D60, symBinAddr: 0x1AD6C, symSize: 0x14 }
  - { offset: 0x2ADBCE, size: 0x8, addend: 0x0, symName: __ZNK8facebook5react27ConcreteComponentDescriptorINS0_23RNSVGConcreteShadowNodeIXadL_ZNS0_25RNSVGFeMergeComponentNameEEENS0_17RNSVGFeMergePropsEEEE18getComponentHandleEv, symObjAddr: 0x1D74, symBinAddr: 0x1AD80, symSize: 0xC }
  - { offset: 0x2ADBF4, size: 0x8, addend: 0x0, symName: __ZNK8facebook5react27ConcreteComponentDescriptorINS0_23RNSVGConcreteShadowNodeIXadL_ZNS0_25RNSVGFeMergeComponentNameEEENS0_17RNSVGFeMergePropsEEEE16getComponentNameEv, symObjAddr: 0x1D80, symBinAddr: 0x1AD8C, symSize: 0xC }
  - { offset: 0x2ADC1A, size: 0x8, addend: 0x0, symName: __ZNK8facebook5react27ConcreteComponentDescriptorINS0_23RNSVGConcreteShadowNodeIXadL_ZNS0_25RNSVGFeMergeComponentNameEEENS0_17RNSVGFeMergePropsEEEE9getTraitsEv, symObjAddr: 0x1D8C, symBinAddr: 0x1AD98, symSize: 0x8 }
  - { offset: 0x2ADD14, size: 0x8, addend: 0x0, symName: __ZNK8facebook5react27ConcreteComponentDescriptorINS0_23RNSVGConcreteShadowNodeIXadL_ZNS0_25RNSVGFeMergeComponentNameEEENS0_17RNSVGFeMergePropsEEEE16createShadowNodeERKNS0_18ShadowNodeFragmentERKNSt3__110shared_ptrIKNS0_16ShadowNodeFamilyEEE, symObjAddr: 0x1D94, symBinAddr: 0x1ADA0, symSize: 0x90 }
  - { offset: 0x2ADFA0, size: 0x8, addend: 0x0, symName: __ZNK8facebook5react27ConcreteComponentDescriptorINS0_23RNSVGConcreteShadowNodeIXadL_ZNS0_25RNSVGFeMergeComponentNameEEENS0_17RNSVGFeMergePropsEEEE15cloneShadowNodeERKNS0_10ShadowNodeERKNS0_18ShadowNodeFragmentE, symObjAddr: 0x1E24, symBinAddr: 0x1AE30, symSize: 0x104 }
  - { offset: 0x2AE32D, size: 0x8, addend: 0x0, symName: __ZNK8facebook5react27ConcreteComponentDescriptorINS0_23RNSVGConcreteShadowNodeIXadL_ZNS0_25RNSVGFeMergeComponentNameEEENS0_17RNSVGFeMergePropsEEEE11appendChildERKNSt3__110shared_ptrIKNS0_10ShadowNodeEEESC_, symObjAddr: 0x1F28, symBinAddr: 0x1AF34, symSize: 0x14 }
  - { offset: 0x2AE383, size: 0x8, addend: 0x0, symName: __ZNK8facebook5react27ConcreteComponentDescriptorINS0_23RNSVGConcreteShadowNodeIXadL_ZNS0_25RNSVGFeMergeComponentNameEEENS0_17RNSVGFeMergePropsEEEE11appendChildERKNSt3__110shared_ptrIKNS0_10ShadowNodeEEESC_, symObjAddr: 0x1F28, symBinAddr: 0x1AF34, symSize: 0x14 }
  - { offset: 0x2AEBD0, size: 0x8, addend: 0x0, symName: __ZNK8facebook5react27ConcreteComponentDescriptorINS0_23RNSVGConcreteShadowNodeIXadL_ZNS0_25RNSVGFeMergeComponentNameEEENS0_17RNSVGFeMergePropsEEEE10clonePropsERKNS0_18PropsParserContextERKNSt3__110shared_ptrIKNS0_5PropsEEENS0_8RawPropsE, symObjAddr: 0x1F3C, symBinAddr: 0x1AF48, symSize: 0x21C }
  - { offset: 0x2AF76A, size: 0x8, addend: 0x0, symName: __ZN8facebook5react18ConcreteShadowNodeIXadL_ZNS0_25RNSVGFeMergeComponentNameEEENS0_25RNSVGLayoutableShadowNodeENS0_17RNSVGFeMergePropsENS0_20BaseViewEventEmitterENS0_9StateDataEE5PropsERKNS0_18PropsParserContextERKNS0_8RawPropsERKNSt3__110shared_ptrIKNS0_5PropsEEE, symObjAddr: 0x2C84, symBinAddr: 0x1B6A4, symSize: 0x58 }
  - { offset: 0x2AF9D4, size: 0x8, addend: 0x0, symName: __ZNK8facebook5react27ConcreteComponentDescriptorINS0_23RNSVGConcreteShadowNodeIXadL_ZNS0_25RNSVGFeMergeComponentNameEEENS0_17RNSVGFeMergePropsEEEE18createInitialStateERKNSt3__110shared_ptrIKNS0_5PropsEEERKNS7_IKNS0_16ShadowNodeFamilyEEE, symObjAddr: 0x2158, symBinAddr: 0x1B164, symSize: 0x8 }
  - { offset: 0x2AFA18, size: 0x8, addend: 0x0, symName: __ZNK8facebook5react27ConcreteComponentDescriptorINS0_23RNSVGConcreteShadowNodeIXadL_ZNS0_25RNSVGFeMergeComponentNameEEENS0_17RNSVGFeMergePropsEEEE18createInitialStateERKNSt3__110shared_ptrIKNS0_5PropsEEERKNS7_IKNS0_16ShadowNodeFamilyEEE, symObjAddr: 0x2158, symBinAddr: 0x1B164, symSize: 0x8 }
  - { offset: 0x2AFA3C, size: 0x8, addend: 0x0, symName: __ZNK8facebook5react27ConcreteComponentDescriptorINS0_23RNSVGConcreteShadowNodeIXadL_ZNS0_25RNSVGFeMergeComponentNameEEENS0_17RNSVGFeMergePropsEEEE18createInitialStateERKNSt3__110shared_ptrIKNS0_5PropsEEERKNS7_IKNS0_16ShadowNodeFamilyEEE, symObjAddr: 0x2158, symBinAddr: 0x1B164, symSize: 0x8 }
  - { offset: 0x2AFA60, size: 0x8, addend: 0x0, symName: __ZNK8facebook5react27ConcreteComponentDescriptorINS0_23RNSVGConcreteShadowNodeIXadL_ZNS0_25RNSVGFeMergeComponentNameEEENS0_17RNSVGFeMergePropsEEEE11createStateERKNS0_16ShadowNodeFamilyERKNSt3__110shared_ptrIKvEE, symObjAddr: 0x2160, symBinAddr: 0x1B16C, symSize: 0x8 }
  - { offset: 0x2AFAA4, size: 0x8, addend: 0x0, symName: __ZNK8facebook5react27ConcreteComponentDescriptorINS0_23RNSVGConcreteShadowNodeIXadL_ZNS0_25RNSVGFeMergeComponentNameEEENS0_17RNSVGFeMergePropsEEEE11createStateERKNS0_16ShadowNodeFamilyERKNSt3__110shared_ptrIKvEE, symObjAddr: 0x2160, symBinAddr: 0x1B16C, symSize: 0x8 }
  - { offset: 0x2AFAC8, size: 0x8, addend: 0x0, symName: __ZNK8facebook5react27ConcreteComponentDescriptorINS0_23RNSVGConcreteShadowNodeIXadL_ZNS0_25RNSVGFeMergeComponentNameEEENS0_17RNSVGFeMergePropsEEEE11createStateERKNS0_16ShadowNodeFamilyERKNSt3__110shared_ptrIKvEE, symObjAddr: 0x2160, symBinAddr: 0x1B16C, symSize: 0x8 }
  - { offset: 0x2AFCD4, size: 0x8, addend: 0x0, symName: __ZNK8facebook5react27ConcreteComponentDescriptorINS0_23RNSVGConcreteShadowNodeIXadL_ZNS0_25RNSVGFeMergeComponentNameEEENS0_17RNSVGFeMergePropsEEEE12createFamilyERKNS0_24ShadowNodeFamilyFragmentE, symObjAddr: 0x2168, symBinAddr: 0x1B174, symSize: 0x168 }
  - { offset: 0x2B0263, size: 0x8, addend: 0x0, symName: __ZNK8facebook5react27ConcreteComponentDescriptorINS0_23RNSVGConcreteShadowNodeIXadL_ZNS0_25RNSVGFeMergeComponentNameEEENS0_17RNSVGFeMergePropsEEEE5adoptERNS0_10ShadowNodeE, symObjAddr: 0x22D0, symBinAddr: 0x1B2DC, symSize: 0x4 }
  - { offset: 0x2B0ABC, size: 0x8, addend: 0x0, symName: __ZNSt3__120__shared_ptr_emplaceIN8facebook5react23RNSVGConcreteShadowNodeIXadL_ZNS2_25RNSVGFeMergeComponentNameEEENS2_17RNSVGFeMergePropsEEENS_9allocatorIS5_EEEC2B8ne200100IJRKNS2_18ShadowNodeFragmentERKNS_10shared_ptrIKNS2_16ShadowNodeFamilyEEENS2_16ShadowNodeTraitsEES7_Li0EEES7_DpOT_, symObjAddr: 0x25FC, symBinAddr: 0x1B350, symSize: 0x60 }
  - { offset: 0x2B0DE0, size: 0x8, addend: 0x0, symName: __ZNSt3__120__shared_ptr_emplaceIN8facebook5react23RNSVGConcreteShadowNodeIXadL_ZNS2_25RNSVGFeMergeComponentNameEEENS2_17RNSVGFeMergePropsEEENS_9allocatorIS5_EEED1Ev, symObjAddr: 0x265C, symBinAddr: 0x1B3B0, symSize: 0x14 }
  - { offset: 0x2B0E04, size: 0x8, addend: 0x0, symName: __ZNSt3__120__shared_ptr_emplaceIN8facebook5react23RNSVGConcreteShadowNodeIXadL_ZNS2_25RNSVGFeMergeComponentNameEEENS2_17RNSVGFeMergePropsEEENS_9allocatorIS5_EEED1Ev, symObjAddr: 0x265C, symBinAddr: 0x1B3B0, symSize: 0x14 }
  - { offset: 0x2B0E3A, size: 0x8, addend: 0x0, symName: __ZNSt3__120__shared_ptr_emplaceIN8facebook5react23RNSVGConcreteShadowNodeIXadL_ZNS2_25RNSVGFeMergeComponentNameEEENS2_17RNSVGFeMergePropsEEENS_9allocatorIS5_EEED0Ev, symObjAddr: 0x2670, symBinAddr: 0x1B3C4, symSize: 0x24 }
  - { offset: 0x2B0F0A, size: 0x8, addend: 0x0, symName: __ZNSt3__120__shared_ptr_emplaceIN8facebook5react23RNSVGConcreteShadowNodeIXadL_ZNS2_25RNSVGFeMergeComponentNameEEENS2_17RNSVGFeMergePropsEEENS_9allocatorIS5_EEE16__on_zero_sharedEv, symObjAddr: 0x2694, symBinAddr: 0x1B3E8, symSize: 0xC }
  - { offset: 0x2B0F33, size: 0x8, addend: 0x0, symName: __ZNSt3__120__shared_ptr_emplaceIN8facebook5react23RNSVGConcreteShadowNodeIXadL_ZNS2_25RNSVGFeMergeComponentNameEEENS2_17RNSVGFeMergePropsEEENS_9allocatorIS5_EEE16__on_zero_sharedEv, symObjAddr: 0x2694, symBinAddr: 0x1B3E8, symSize: 0xC }
  - { offset: 0x2B0F52, size: 0x8, addend: 0x0, symName: __ZNSt3__120__shared_ptr_emplaceIN8facebook5react23RNSVGConcreteShadowNodeIXadL_ZNS2_25RNSVGFeMergeComponentNameEEENS2_17RNSVGFeMergePropsEEENS_9allocatorIS5_EEE16__on_zero_sharedEv, symObjAddr: 0x2694, symBinAddr: 0x1B3E8, symSize: 0xC }
  - { offset: 0x2B0F71, size: 0x8, addend: 0x0, symName: __ZNSt3__120__shared_ptr_emplaceIN8facebook5react23RNSVGConcreteShadowNodeIXadL_ZNS2_25RNSVGFeMergeComponentNameEEENS2_17RNSVGFeMergePropsEEENS_9allocatorIS5_EEE16__on_zero_sharedEv, symObjAddr: 0x2694, symBinAddr: 0x1B3E8, symSize: 0xC }
  - { offset: 0x2B0F9D, size: 0x8, addend: 0x0, symName: __ZNSt3__120__shared_ptr_emplaceIN8facebook5react23RNSVGConcreteShadowNodeIXadL_ZNS2_25RNSVGFeMergeComponentNameEEENS2_17RNSVGFeMergePropsEEENS_9allocatorIS5_EEE21__on_zero_shared_weakEv, symObjAddr: 0x26A0, symBinAddr: 0x1B3F4, symSize: 0x4 }
  - { offset: 0x2B0FD0, size: 0x8, addend: 0x0, symName: __ZNSt3__120__shared_ptr_emplaceIN8facebook5react23RNSVGConcreteShadowNodeIXadL_ZNS2_25RNSVGFeMergeComponentNameEEENS2_17RNSVGFeMergePropsEEENS_9allocatorIS5_EEE21__on_zero_shared_weakEv, symObjAddr: 0x26A0, symBinAddr: 0x1B3F4, symSize: 0x4 }
  - { offset: 0x2B0FF4, size: 0x8, addend: 0x0, symName: __ZNSt3__120__shared_ptr_emplaceIN8facebook5react23RNSVGConcreteShadowNodeIXadL_ZNS2_25RNSVGFeMergeComponentNameEEENS2_17RNSVGFeMergePropsEEENS_9allocatorIS5_EEE21__on_zero_shared_weakEv, symObjAddr: 0x26A0, symBinAddr: 0x1B3F4, symSize: 0x4 }
  - { offset: 0x2B1019, size: 0x8, addend: 0x0, symName: __ZNSt3__120__shared_ptr_emplaceIN8facebook5react23RNSVGConcreteShadowNodeIXadL_ZNS2_25RNSVGFeMergeComponentNameEEENS2_17RNSVGFeMergePropsEEENS_9allocatorIS5_EEE21__on_zero_shared_weakEv, symObjAddr: 0x26A0, symBinAddr: 0x1B3F4, symSize: 0x4 }
  - { offset: 0x2B1051, size: 0x8, addend: 0x0, symName: __ZNSt3__120__shared_ptr_emplaceIN8facebook5react23RNSVGConcreteShadowNodeIXadL_ZNS2_25RNSVGFeMergeComponentNameEEENS2_17RNSVGFeMergePropsEEENS_9allocatorIS5_EEE21__on_zero_shared_weakEv, symObjAddr: 0x26A0, symBinAddr: 0x1B3F4, symSize: 0x4 }
  - { offset: 0x2B12D1, size: 0x8, addend: 0x0, symName: __ZN8facebook5react23RNSVGConcreteShadowNodeIXadL_ZNS0_25RNSVGFeMergeComponentNameEEENS0_17RNSVGFeMergePropsEED1Ev, symObjAddr: 0x26A4, symBinAddr: 0x1B3F8, symSize: 0x70 }
  - { offset: 0x2B1882, size: 0x8, addend: 0x0, symName: __ZN8facebook5react23RNSVGConcreteShadowNodeIXadL_ZNS0_25RNSVGFeMergeComponentNameEEENS0_17RNSVGFeMergePropsEED0Ev, symObjAddr: 0x2714, symBinAddr: 0x1B468, symSize: 0x74 }
  - { offset: 0x2B1CC8, size: 0x8, addend: 0x0, symName: __ZNK8facebook5react23RNSVGConcreteShadowNodeIXadL_ZNS0_25RNSVGFeMergeComponentNameEEENS0_17RNSVGFeMergePropsEE12getTransformEv, symObjAddr: 0x2788, symBinAddr: 0x1B4DC, symSize: 0x40 }
  - { offset: 0x2B1D3B, size: 0x8, addend: 0x0, symName: __ZNK8facebook5react23RNSVGConcreteShadowNodeIXadL_ZNS0_25RNSVGFeMergeComponentNameEEENS0_17RNSVGFeMergePropsEE16canBeTouchTargetEv, symObjAddr: 0x27C8, symBinAddr: 0x1B51C, symSize: 0x18 }
  - { offset: 0x2B1D73, size: 0x8, addend: 0x0, symName: __ZNK8facebook5react23RNSVGConcreteShadowNodeIXadL_ZNS0_25RNSVGFeMergeComponentNameEEENS0_17RNSVGFeMergePropsEE16canBeTouchTargetEv, symObjAddr: 0x27C8, symBinAddr: 0x1B51C, symSize: 0x18 }
  - { offset: 0x2B1D90, size: 0x8, addend: 0x0, symName: __ZNK8facebook5react23RNSVGConcreteShadowNodeIXadL_ZNS0_25RNSVGFeMergeComponentNameEEENS0_17RNSVGFeMergePropsEE16canBeTouchTargetEv, symObjAddr: 0x27C8, symBinAddr: 0x1B51C, symSize: 0x18 }
  - { offset: 0x2B1DAE, size: 0x8, addend: 0x0, symName: __ZNK8facebook5react23RNSVGConcreteShadowNodeIXadL_ZNS0_25RNSVGFeMergeComponentNameEEENS0_17RNSVGFeMergePropsEE24canChildrenBeTouchTargetEv, symObjAddr: 0x27E0, symBinAddr: 0x1B534, symSize: 0x18 }
  - { offset: 0x2B1DE2, size: 0x8, addend: 0x0, symName: __ZNK8facebook5react23RNSVGConcreteShadowNodeIXadL_ZNS0_25RNSVGFeMergeComponentNameEEENS0_17RNSVGFeMergePropsEE24canChildrenBeTouchTargetEv, symObjAddr: 0x27E0, symBinAddr: 0x1B534, symSize: 0x18 }
  - { offset: 0x2B1DFF, size: 0x8, addend: 0x0, symName: __ZNK8facebook5react23RNSVGConcreteShadowNodeIXadL_ZNS0_25RNSVGFeMergeComponentNameEEENS0_17RNSVGFeMergePropsEE24canChildrenBeTouchTargetEv, symObjAddr: 0x27E0, symBinAddr: 0x1B534, symSize: 0x18 }
  - { offset: 0x2B21F8, size: 0x8, addend: 0x0, symName: __ZNSt3__120__shared_ptr_emplaceIN8facebook5react23RNSVGConcreteShadowNodeIXadL_ZNS2_25RNSVGFeMergeComponentNameEEENS2_17RNSVGFeMergePropsEEENS_9allocatorIS5_EEEC2B8ne200100IJRKNS2_10ShadowNodeERKNS2_18ShadowNodeFragmentEES7_Li0EEES7_DpOT_, symObjAddr: 0x2B34, symBinAddr: 0x1B5AC, symSize: 0x5C }
  - { offset: 0x2B26F3, size: 0x8, addend: 0x0, symName: __ZNSt3__120__shared_ptr_emplaceIN8facebook5react17RNSVGFeMergePropsENS_9allocatorIS3_EEEC2B8ne200100IJRKNS2_18PropsParserContextERKS3_RKNS2_8RawPropsEES5_Li0EEES5_DpOT_, symObjAddr: 0x2D4C, symBinAddr: 0x1B76C, symSize: 0x4C }
  - { offset: 0x2B28E1, size: 0x8, addend: 0x0, symName: __ZNSt3__120__shared_ptr_emplaceIN8facebook5react17RNSVGFeMergePropsENS_9allocatorIS3_EEED1Ev, symObjAddr: 0x2D98, symBinAddr: 0x1B7B8, symSize: 0x14 }
  - { offset: 0x2B2905, size: 0x8, addend: 0x0, symName: __ZNSt3__120__shared_ptr_emplaceIN8facebook5react17RNSVGFeMergePropsENS_9allocatorIS3_EEED1Ev, symObjAddr: 0x2D98, symBinAddr: 0x1B7B8, symSize: 0x14 }
  - { offset: 0x2B293B, size: 0x8, addend: 0x0, symName: __ZNSt3__120__shared_ptr_emplaceIN8facebook5react17RNSVGFeMergePropsENS_9allocatorIS3_EEED0Ev, symObjAddr: 0x2DAC, symBinAddr: 0x1B7CC, symSize: 0x24 }
  - { offset: 0x2B29DC, size: 0x8, addend: 0x0, symName: __ZNSt3__120__shared_ptr_emplaceIN8facebook5react17RNSVGFeMergePropsENS_9allocatorIS3_EEE16__on_zero_sharedEv, symObjAddr: 0x2DD0, symBinAddr: 0x1B7F0, symSize: 0x8 }
  - { offset: 0x2B2A05, size: 0x8, addend: 0x0, symName: __ZNSt3__120__shared_ptr_emplaceIN8facebook5react17RNSVGFeMergePropsENS_9allocatorIS3_EEE16__on_zero_sharedEv, symObjAddr: 0x2DD0, symBinAddr: 0x1B7F0, symSize: 0x8 }
  - { offset: 0x2B2A24, size: 0x8, addend: 0x0, symName: __ZNSt3__120__shared_ptr_emplaceIN8facebook5react17RNSVGFeMergePropsENS_9allocatorIS3_EEE16__on_zero_sharedEv, symObjAddr: 0x2DD0, symBinAddr: 0x1B7F0, symSize: 0x8 }
  - { offset: 0x2B2A62, size: 0x8, addend: 0x0, symName: __ZNSt3__120__shared_ptr_emplaceIN8facebook5react17RNSVGFeMergePropsENS_9allocatorIS3_EEE21__on_zero_shared_weakEv, symObjAddr: 0x2DD8, symBinAddr: 0x1B7F8, symSize: 0x4 }
  - { offset: 0x2B2A95, size: 0x8, addend: 0x0, symName: __ZNSt3__120__shared_ptr_emplaceIN8facebook5react17RNSVGFeMergePropsENS_9allocatorIS3_EEE21__on_zero_shared_weakEv, symObjAddr: 0x2DD8, symBinAddr: 0x1B7F8, symSize: 0x4 }
  - { offset: 0x2B2AB9, size: 0x8, addend: 0x0, symName: __ZNSt3__120__shared_ptr_emplaceIN8facebook5react17RNSVGFeMergePropsENS_9allocatorIS3_EEE21__on_zero_shared_weakEv, symObjAddr: 0x2DD8, symBinAddr: 0x1B7F8, symSize: 0x4 }
  - { offset: 0x2B2ADE, size: 0x8, addend: 0x0, symName: __ZNSt3__120__shared_ptr_emplaceIN8facebook5react17RNSVGFeMergePropsENS_9allocatorIS3_EEE21__on_zero_shared_weakEv, symObjAddr: 0x2DD8, symBinAddr: 0x1B7F8, symSize: 0x4 }
  - { offset: 0x2B2B16, size: 0x8, addend: 0x0, symName: __ZNSt3__120__shared_ptr_emplaceIN8facebook5react17RNSVGFeMergePropsENS_9allocatorIS3_EEE21__on_zero_shared_weakEv, symObjAddr: 0x2DD8, symBinAddr: 0x1B7F8, symSize: 0x4 }
  - { offset: 0x2B3CA2, size: 0x8, addend: 0x0, symName: __ZNSt3__120__shared_ptr_emplaceIN8facebook5react16ShadowNodeFamilyENS_9allocatorIS3_EEEC2B8ne200100IJRKNS2_24ShadowNodeFamilyFragmentERNS_10shared_ptrIKNS2_20BaseViewEventEmitterEEERKNS_8weak_ptrIKNS2_15EventDispatcherEEERKNS2_27ConcreteComponentDescriptorINS2_23RNSVGConcreteShadowNodeIXadL_ZNS2_25RNSVGFeMergeComponentNameEEENS2_17RNSVGFeMergePropsEEEEEES5_Li0EEES5_DpOT_, symObjAddr: 0x3678, symBinAddr: 0x1B874, symSize: 0x4C }
  - { offset: 0x2B420A, size: 0x8, addend: 0x0, symName: __GLOBAL__sub_I_RNSVGFeMerge.mm, symObjAddr: 0x3F58, symBinAddr: 0x1BC10, symSize: 0x20 }
  - { offset: 0x2B665C, size: 0x8, addend: 0x0, symName: __ZN8facebook5react17HostPlatformColorL14UndefinedColorE, symObjAddr: 0xDDDE8, symBinAddr: 0xB0338, symSize: 0x0 }
  - { offset: 0x2B7345, size: 0x8, addend: 0x0, symName: '+[RNSVGFeMergeManager moduleName]', symObjAddr: 0x0, symBinAddr: 0x1BC30, symSize: 0xC }
  - { offset: 0x2B7376, size: 0x8, addend: 0x0, symName: '+[RNSVGFeMergeManager load]', symObjAddr: 0xC, symBinAddr: 0x1BC3C, symSize: 0x4 }
  - { offset: 0x2B73A9, size: 0x8, addend: 0x0, symName: '+[RNSVGFeMergeManager load]', symObjAddr: 0xC, symBinAddr: 0x1BC3C, symSize: 0x4 }
  - { offset: 0x2B73C8, size: 0x8, addend: 0x0, symName: '-[RNSVGFeMergeManager node]', symObjAddr: 0x10, symBinAddr: 0x1BC40, symSize: 0x1C }
  - { offset: 0x2B73F9, size: 0x8, addend: 0x0, symName: '+[RNSVGFeMergeManager propConfig_nodes]', symObjAddr: 0x2C, symBinAddr: 0x1BC5C, symSize: 0xC }
  - { offset: 0x2B74B1, size: 0x8, addend: 0x0, symName: __GLOBAL__sub_I_RNSVGFeMergeManager.mm, symObjAddr: 0x38, symBinAddr: 0x1BC68, symSize: 0x20 }
  - { offset: 0x2B94E1, size: 0x8, addend: 0x0, symName: __ZN8facebook5react17HostPlatformColorL14UndefinedColorE, symObjAddr: 0x172BD0, symBinAddr: 0xB0350, symSize: 0x0 }
  - { offset: 0x2BC928, size: 0x8, addend: 0x0, symName: __ZN8facebook5react38concreteComponentDescriptorConstructorINS0_27ConcreteComponentDescriptorINS0_23RNSVGConcreteShadowNodeIXadL_ZNS0_26RNSVGFeOffsetComponentNameEEENS0_18RNSVGFeOffsetPropsEEEEEEENSt3__110unique_ptrIKNS0_19ComponentDescriptorENS7_14default_deleteISA_EEEERKNS0_29ComponentDescriptorParametersE, symObjAddr: 0x1E74, symBinAddr: 0x1CB10, symSize: 0x34 }
  - { offset: 0x2D89CA, size: 0x8, addend: 0x0, symName: __ZNSt3__115allocate_sharedB8ne200100IKN8facebook5react18RNSVGFeOffsetPropsENS_9allocatorIS3_EEJELi0EEENS_10shared_ptrIT_EERKT0_DpOT1_, symObjAddr: 0xF88, symBinAddr: 0x1C920, symSize: 0x48 }
  - { offset: 0x2D9549, size: 0x8, addend: 0x0, symName: __ZNSt3__112construct_atB8ne200100IN8facebook5react18RNSVGFeOffsetPropsEJEPS3_EEPT_S6_DpOT0_, symObjAddr: 0x1060, symBinAddr: 0x1C9F8, symSize: 0x88 }
  - { offset: 0x2DA179, size: 0x8, addend: 0x0, symName: __ZNSt3__111make_uniqueB8ne200100IKN8facebook5react27ConcreteComponentDescriptorINS2_23RNSVGConcreteShadowNodeIXadL_ZNS2_26RNSVGFeOffsetComponentNameEEENS2_18RNSVGFeOffsetPropsEEEEEJRKNS2_29ComponentDescriptorParametersEELi0EEENS_10unique_ptrIT_NS_14default_deleteISD_EEEEDpOT0_, symObjAddr: 0x1EA8, symBinAddr: 0x1CB44, symSize: 0xD4 }
  - { offset: 0x2DAAF1, size: 0x8, addend: 0x0, symName: __ZNSt3__115allocate_sharedB8ne200100IN8facebook5react23RNSVGConcreteShadowNodeIXadL_ZNS2_26RNSVGFeOffsetComponentNameEEENS2_18RNSVGFeOffsetPropsEEENS_9allocatorIS5_EEJRKNS2_18ShadowNodeFragmentERKNS_10shared_ptrIKNS2_16ShadowNodeFamilyEEENS2_16ShadowNodeTraitsEELi0EEENSB_IT_EERKT0_DpOT1_, symObjAddr: 0x2A10, symBinAddr: 0x1D3A4, symSize: 0x70 }
  - { offset: 0x2DAE20, size: 0x8, addend: 0x0, symName: __ZNSt3__115allocate_sharedB8ne200100IN8facebook5react23RNSVGConcreteShadowNodeIXadL_ZNS2_26RNSVGFeOffsetComponentNameEEENS2_18RNSVGFeOffsetPropsEEENS_9allocatorIS5_EEJRKNS2_10ShadowNodeERKNS2_18ShadowNodeFragmentEELi0EEENS_10shared_ptrIT_EERKT0_DpOT1_, symObjAddr: 0x2F58, symBinAddr: 0x1D610, symSize: 0x60 }
  - { offset: 0x2DB56B, size: 0x8, addend: 0x0, symName: __ZNSt3__115allocate_sharedB8ne200100IN8facebook5react16ShadowNodeFamilyENS_9allocatorIS3_EEJRKNS2_24ShadowNodeFamilyFragmentERNS_10shared_ptrIKNS2_20BaseViewEventEmitterEEERKNS_8weak_ptrIKNS2_15EventDispatcherEEERKNS2_27ConcreteComponentDescriptorINS2_23RNSVGConcreteShadowNodeIXadL_ZNS2_26RNSVGFeOffsetComponentNameEEENS2_18RNSVGFeOffsetPropsEEEEEELi0EEENS9_IT_EERKT0_DpOT1_, symObjAddr: 0x3908, symBinAddr: 0x1D8C0, symSize: 0x78 }
  - { offset: 0x2DC2FE, size: 0x8, addend: 0x0, symName: __ZNSt3__115allocate_sharedB8ne200100IN8facebook5react18RNSVGFeOffsetPropsENS_9allocatorIS3_EEJRKNS2_18PropsParserContextERKS3_RKNS2_8RawPropsEELi0EEENS_10shared_ptrIT_EERKT0_DpOT1_, symObjAddr: 0x3160, symBinAddr: 0x1D7C0, symSize: 0x70 }
  - { offset: 0x2DD50B, size: 0x8, addend: 0x0, symName: __ZNSt3__112construct_atB8ne200100IN8facebook5react16ShadowNodeFamilyEJRKNS2_24ShadowNodeFamilyFragmentERNS_10shared_ptrIKNS2_20BaseViewEventEmitterEEERKNS_8weak_ptrIKNS2_15EventDispatcherEEERKNS2_27ConcreteComponentDescriptorINS2_23RNSVGConcreteShadowNodeIXadL_ZNS2_26RNSVGFeOffsetComponentNameEEENS2_18RNSVGFeOffsetPropsEEEEEEPS3_EEPT_SR_DpOT0_, symObjAddr: 0x3A10, symBinAddr: 0x1D984, symSize: 0xDC }
  - { offset: 0x2DE8F3, size: 0x8, addend: 0x0, symName: '-[RNSVGFeOffset initWithFrame:]', symObjAddr: 0x34, symBinAddr: 0x1BCBC, symSize: 0xDC }
  - { offset: 0x2DE91C, size: 0x8, addend: 0x0, symName: '__ZZ31-[RNSVGFeOffset initWithFrame:]E12defaultProps', symObjAddr: 0x172BE8, symBinAddr: 0xB0368, symSize: 0x0 }
  - { offset: 0x2E2320, size: 0x8, addend: 0x0, symName: __ZN8facebook5react18ConcreteShadowNodeIXadL_ZNS0_26RNSVGFeOffsetComponentNameEEENS0_25RNSVGLayoutableShadowNodeENS0_18RNSVGFeOffsetPropsENS0_20BaseViewEventEmitterENS0_9StateDataEE18defaultSharedPropsEv, symObjAddr: 0x306C, symBinAddr: 0x1D6CC, symSize: 0x9C }
  - { offset: 0x2E233F, size: 0x8, addend: 0x0, symName: __ZZN8facebook5react18ConcreteShadowNodeIXadL_ZNS0_26RNSVGFeOffsetComponentNameEEENS0_25RNSVGLayoutableShadowNodeENS0_18RNSVGFeOffsetPropsENS0_20BaseViewEventEmitterENS0_9StateDataEE18defaultSharedPropsEvE18defaultSharedProps, symObjAddr: 0x5528, symBinAddr: 0xAF9F0, symSize: 0x0 }
  - { offset: 0x2E25AF, size: 0x8, addend: 0x0, symName: '+[RNSVGFeOffset load]', symObjAddr: 0x0, symBinAddr: 0x1BC88, symSize: 0x34 }
  - { offset: 0x2E26EE, size: 0x8, addend: 0x0, symName: __ZNSt3__110shared_ptrIKN8facebook5react18RNSVGFeOffsetPropsEED1B8ne200100Ev, symObjAddr: 0x110, symBinAddr: 0x1BD98, symSize: 0x4 }
  - { offset: 0x2E2712, size: 0x8, addend: 0x0, symName: __ZNSt3__110shared_ptrIKN8facebook5react18RNSVGFeOffsetPropsEED1B8ne200100Ev, symObjAddr: 0x110, symBinAddr: 0x1BD98, symSize: 0x4 }
  - { offset: 0x2E291A, size: 0x8, addend: 0x0, symName: '+[RNSVGFeOffset componentDescriptorProvider]', symObjAddr: 0x18C, symBinAddr: 0x1BD9C, symSize: 0x20 }
  - { offset: 0x2E294E, size: 0x8, addend: 0x0, symName: '+[RNSVGFeOffset componentDescriptorProvider]', symObjAddr: 0x18C, symBinAddr: 0x1BD9C, symSize: 0x20 }
  - { offset: 0x2E2B71, size: 0x8, addend: 0x0, symName: '-[RNSVGFeOffset updateProps:oldProps:]', symObjAddr: 0x1AC, symBinAddr: 0x1BDBC, symSize: 0x1DC }
  - { offset: 0x2E2F04, size: 0x8, addend: 0x0, symName: __ZL28RNSVGConvertFollyDynamicToIdRKN5folly7dynamicE, symObjAddr: 0x388, symBinAddr: 0x1BF98, symSize: 0x274 }
  - { offset: 0x2E33D6, size: 0x8, addend: 0x0, symName: __Z20setCommonFilterPropsIN8facebook5react18RNSVGFeOffsetPropsEEvRKT_P20RNSVGFilterPrimitive, symObjAddr: 0x5FC, symBinAddr: 0x1C20C, symSize: 0x224 }
  - { offset: 0x2E39EC, size: 0x8, addend: 0x0, symName: '-[RNSVGFeOffset prepareForRecycle]', symObjAddr: 0x884, symBinAddr: 0x1C430, symSize: 0x7C }
  - { offset: 0x2E3A1D, size: 0x8, addend: 0x0, symName: '-[RNSVGFeOffset setIn1:]', symObjAddr: 0x900, symBinAddr: 0x1C4AC, symSize: 0x78 }
  - { offset: 0x2E3A5D, size: 0x8, addend: 0x0, symName: '-[RNSVGFeOffset setDx:]', symObjAddr: 0x978, symBinAddr: 0x1C524, symSize: 0x78 }
  - { offset: 0x2E3A9D, size: 0x8, addend: 0x0, symName: '-[RNSVGFeOffset setDy:]', symObjAddr: 0x9F0, symBinAddr: 0x1C59C, symSize: 0x78 }
  - { offset: 0x2E3B16, size: 0x8, addend: 0x0, symName: '-[RNSVGFeOffset applyFilter:previousFilterResult:ctm:]', symObjAddr: 0xA68, symBinAddr: 0x1C614, symSize: 0x27C }
  - { offset: 0x2E3C9E, size: 0x8, addend: 0x0, symName: __Z16RNSVGFeOffsetClsv, symObjAddr: 0xCE4, symBinAddr: 0x1C890, symSize: 0xC }
  - { offset: 0x2E3CBC, size: 0x8, addend: 0x0, symName: '-[RNSVGFeOffset in1]', symObjAddr: 0xCF0, symBinAddr: 0x1C89C, symSize: 0x10 }
  - { offset: 0x2E3CF2, size: 0x8, addend: 0x0, symName: '-[RNSVGFeOffset dx]', symObjAddr: 0xD00, symBinAddr: 0x1C8AC, symSize: 0x10 }
  - { offset: 0x2E3D28, size: 0x8, addend: 0x0, symName: '-[RNSVGFeOffset dy]', symObjAddr: 0xD10, symBinAddr: 0x1C8BC, symSize: 0x10 }
  - { offset: 0x2E3D5E, size: 0x8, addend: 0x0, symName: '-[RNSVGFeOffset .cxx_destruct]', symObjAddr: 0xD20, symBinAddr: 0x1C8CC, symSize: 0x54 }
  - { offset: 0x2E44A3, size: 0x8, addend: 0x0, symName: __ZNSt3__120__shared_ptr_emplaceIKN8facebook5react18RNSVGFeOffsetPropsENS_9allocatorIS3_EEEC2B8ne200100IJES6_Li0EEES6_DpOT_, symObjAddr: 0xFD0, symBinAddr: 0x1C968, symSize: 0x4C }
  - { offset: 0x2E4619, size: 0x8, addend: 0x0, symName: __ZNSt3__120__shared_ptr_emplaceIKN8facebook5react18RNSVGFeOffsetPropsENS_9allocatorIS3_EEED1Ev, symObjAddr: 0x101C, symBinAddr: 0x1C9B4, symSize: 0x14 }
  - { offset: 0x2E463D, size: 0x8, addend: 0x0, symName: __ZNSt3__120__shared_ptr_emplaceIKN8facebook5react18RNSVGFeOffsetPropsENS_9allocatorIS3_EEED1Ev, symObjAddr: 0x101C, symBinAddr: 0x1C9B4, symSize: 0x14 }
  - { offset: 0x2E4673, size: 0x8, addend: 0x0, symName: __ZNSt3__120__shared_ptr_emplaceIKN8facebook5react18RNSVGFeOffsetPropsENS_9allocatorIS3_EEED0Ev, symObjAddr: 0x1030, symBinAddr: 0x1C9C8, symSize: 0x24 }
  - { offset: 0x2E4743, size: 0x8, addend: 0x0, symName: __ZNSt3__120__shared_ptr_emplaceIKN8facebook5react18RNSVGFeOffsetPropsENS_9allocatorIS3_EEE16__on_zero_sharedEv, symObjAddr: 0x1054, symBinAddr: 0x1C9EC, symSize: 0x8 }
  - { offset: 0x2E476C, size: 0x8, addend: 0x0, symName: __ZNSt3__120__shared_ptr_emplaceIKN8facebook5react18RNSVGFeOffsetPropsENS_9allocatorIS3_EEE16__on_zero_sharedEv, symObjAddr: 0x1054, symBinAddr: 0x1C9EC, symSize: 0x8 }
  - { offset: 0x2E478B, size: 0x8, addend: 0x0, symName: __ZNSt3__120__shared_ptr_emplaceIKN8facebook5react18RNSVGFeOffsetPropsENS_9allocatorIS3_EEE16__on_zero_sharedEv, symObjAddr: 0x1054, symBinAddr: 0x1C9EC, symSize: 0x8 }
  - { offset: 0x2E47E1, size: 0x8, addend: 0x0, symName: __ZN8facebook5react18RNSVGFeOffsetPropsD1Ev, symObjAddr: 0x1604, symBinAddr: 0x1CA80, symSize: 0x7C }
  - { offset: 0x2E4B8B, size: 0x8, addend: 0x0, symName: __ZNSt3__120__shared_ptr_emplaceIKN8facebook5react18RNSVGFeOffsetPropsENS_9allocatorIS3_EEE21__on_zero_shared_weakEv, symObjAddr: 0x105C, symBinAddr: 0x1C9F4, symSize: 0x4 }
  - { offset: 0x2E4BBE, size: 0x8, addend: 0x0, symName: __ZNSt3__120__shared_ptr_emplaceIKN8facebook5react18RNSVGFeOffsetPropsENS_9allocatorIS3_EEE21__on_zero_shared_weakEv, symObjAddr: 0x105C, symBinAddr: 0x1C9F4, symSize: 0x4 }
  - { offset: 0x2E4BE2, size: 0x8, addend: 0x0, symName: __ZNSt3__120__shared_ptr_emplaceIKN8facebook5react18RNSVGFeOffsetPropsENS_9allocatorIS3_EEE21__on_zero_shared_weakEv, symObjAddr: 0x105C, symBinAddr: 0x1C9F4, symSize: 0x4 }
  - { offset: 0x2E4C07, size: 0x8, addend: 0x0, symName: __ZNSt3__120__shared_ptr_emplaceIKN8facebook5react18RNSVGFeOffsetPropsENS_9allocatorIS3_EEE21__on_zero_shared_weakEv, symObjAddr: 0x105C, symBinAddr: 0x1C9F4, symSize: 0x4 }
  - { offset: 0x2E4C3F, size: 0x8, addend: 0x0, symName: __ZNSt3__120__shared_ptr_emplaceIKN8facebook5react18RNSVGFeOffsetPropsENS_9allocatorIS3_EEE21__on_zero_shared_weakEv, symObjAddr: 0x105C, symBinAddr: 0x1C9F4, symSize: 0x4 }
  - { offset: 0x2E8F69, size: 0x8, addend: 0x0, symName: __ZN8facebook5react18RNSVGFeOffsetPropsD0Ev, symObjAddr: 0x1680, symBinAddr: 0x1CAFC, symSize: 0x14 }
  - { offset: 0x2EA9EF, size: 0x8, addend: 0x0, symName: __ZN8facebook5react14RawPropsParser7prepareINS0_18RNSVGFeOffsetPropsEEEvv, symObjAddr: 0x1FCC, symBinAddr: 0x1CC18, symSize: 0x214 }
  - { offset: 0x2EBCAC, size: 0x8, addend: 0x0, symName: __ZN8facebook5react27ConcreteComponentDescriptorINS0_23RNSVGConcreteShadowNodeIXadL_ZNS0_26RNSVGFeOffsetComponentNameEEENS0_18RNSVGFeOffsetPropsEEEED1Ev, symObjAddr: 0x21E0, symBinAddr: 0x1CE2C, symSize: 0x4 }
  - { offset: 0x2EBCD0, size: 0x8, addend: 0x0, symName: __ZN8facebook5react27ConcreteComponentDescriptorINS0_23RNSVGConcreteShadowNodeIXadL_ZNS0_26RNSVGFeOffsetComponentNameEEENS0_18RNSVGFeOffsetPropsEEEED1Ev, symObjAddr: 0x21E0, symBinAddr: 0x1CE2C, symSize: 0x4 }
  - { offset: 0x2EBCEE, size: 0x8, addend: 0x0, symName: __ZN8facebook5react27ConcreteComponentDescriptorINS0_23RNSVGConcreteShadowNodeIXadL_ZNS0_26RNSVGFeOffsetComponentNameEEENS0_18RNSVGFeOffsetPropsEEEED1Ev, symObjAddr: 0x21E0, symBinAddr: 0x1CE2C, symSize: 0x4 }
  - { offset: 0x2EBFC5, size: 0x8, addend: 0x0, symName: __ZN8facebook5react27ConcreteComponentDescriptorINS0_23RNSVGConcreteShadowNodeIXadL_ZNS0_26RNSVGFeOffsetComponentNameEEENS0_18RNSVGFeOffsetPropsEEEED0Ev, symObjAddr: 0x21E4, symBinAddr: 0x1CE30, symSize: 0x14 }
  - { offset: 0x2EC041, size: 0x8, addend: 0x0, symName: __ZNK8facebook5react27ConcreteComponentDescriptorINS0_23RNSVGConcreteShadowNodeIXadL_ZNS0_26RNSVGFeOffsetComponentNameEEENS0_18RNSVGFeOffsetPropsEEEE18getComponentHandleEv, symObjAddr: 0x21F8, symBinAddr: 0x1CE44, symSize: 0xC }
  - { offset: 0x2EC067, size: 0x8, addend: 0x0, symName: __ZNK8facebook5react27ConcreteComponentDescriptorINS0_23RNSVGConcreteShadowNodeIXadL_ZNS0_26RNSVGFeOffsetComponentNameEEENS0_18RNSVGFeOffsetPropsEEEE16getComponentNameEv, symObjAddr: 0x2204, symBinAddr: 0x1CE50, symSize: 0xC }
  - { offset: 0x2EC08D, size: 0x8, addend: 0x0, symName: __ZNK8facebook5react27ConcreteComponentDescriptorINS0_23RNSVGConcreteShadowNodeIXadL_ZNS0_26RNSVGFeOffsetComponentNameEEENS0_18RNSVGFeOffsetPropsEEEE9getTraitsEv, symObjAddr: 0x2210, symBinAddr: 0x1CE5C, symSize: 0x8 }
  - { offset: 0x2EC187, size: 0x8, addend: 0x0, symName: __ZNK8facebook5react27ConcreteComponentDescriptorINS0_23RNSVGConcreteShadowNodeIXadL_ZNS0_26RNSVGFeOffsetComponentNameEEENS0_18RNSVGFeOffsetPropsEEEE16createShadowNodeERKNS0_18ShadowNodeFragmentERKNSt3__110shared_ptrIKNS0_16ShadowNodeFamilyEEE, symObjAddr: 0x2218, symBinAddr: 0x1CE64, symSize: 0x90 }
  - { offset: 0x2EC413, size: 0x8, addend: 0x0, symName: __ZNK8facebook5react27ConcreteComponentDescriptorINS0_23RNSVGConcreteShadowNodeIXadL_ZNS0_26RNSVGFeOffsetComponentNameEEENS0_18RNSVGFeOffsetPropsEEEE15cloneShadowNodeERKNS0_10ShadowNodeERKNS0_18ShadowNodeFragmentE, symObjAddr: 0x22A8, symBinAddr: 0x1CEF4, symSize: 0x104 }
  - { offset: 0x2EC7A0, size: 0x8, addend: 0x0, symName: __ZNK8facebook5react27ConcreteComponentDescriptorINS0_23RNSVGConcreteShadowNodeIXadL_ZNS0_26RNSVGFeOffsetComponentNameEEENS0_18RNSVGFeOffsetPropsEEEE11appendChildERKNSt3__110shared_ptrIKNS0_10ShadowNodeEEESC_, symObjAddr: 0x23AC, symBinAddr: 0x1CFF8, symSize: 0x14 }
  - { offset: 0x2EC7F6, size: 0x8, addend: 0x0, symName: __ZNK8facebook5react27ConcreteComponentDescriptorINS0_23RNSVGConcreteShadowNodeIXadL_ZNS0_26RNSVGFeOffsetComponentNameEEENS0_18RNSVGFeOffsetPropsEEEE11appendChildERKNSt3__110shared_ptrIKNS0_10ShadowNodeEEESC_, symObjAddr: 0x23AC, symBinAddr: 0x1CFF8, symSize: 0x14 }
  - { offset: 0x2ECF53, size: 0x8, addend: 0x0, symName: __ZNK8facebook5react27ConcreteComponentDescriptorINS0_23RNSVGConcreteShadowNodeIXadL_ZNS0_26RNSVGFeOffsetComponentNameEEENS0_18RNSVGFeOffsetPropsEEEE10clonePropsERKNS0_18PropsParserContextERKNSt3__110shared_ptrIKNS0_5PropsEEENS0_8RawPropsE, symObjAddr: 0x23C0, symBinAddr: 0x1D00C, symSize: 0x21C }
  - { offset: 0x2EDAED, size: 0x8, addend: 0x0, symName: __ZN8facebook5react18ConcreteShadowNodeIXadL_ZNS0_26RNSVGFeOffsetComponentNameEEENS0_25RNSVGLayoutableShadowNodeENS0_18RNSVGFeOffsetPropsENS0_20BaseViewEventEmitterENS0_9StateDataEE5PropsERKNS0_18PropsParserContextERKNS0_8RawPropsERKNSt3__110shared_ptrIKNS0_5PropsEEE, symObjAddr: 0x3108, symBinAddr: 0x1D768, symSize: 0x58 }
  - { offset: 0x2EDD57, size: 0x8, addend: 0x0, symName: __ZNK8facebook5react27ConcreteComponentDescriptorINS0_23RNSVGConcreteShadowNodeIXadL_ZNS0_26RNSVGFeOffsetComponentNameEEENS0_18RNSVGFeOffsetPropsEEEE18createInitialStateERKNSt3__110shared_ptrIKNS0_5PropsEEERKNS7_IKNS0_16ShadowNodeFamilyEEE, symObjAddr: 0x25DC, symBinAddr: 0x1D228, symSize: 0x8 }
  - { offset: 0x2EDD9B, size: 0x8, addend: 0x0, symName: __ZNK8facebook5react27ConcreteComponentDescriptorINS0_23RNSVGConcreteShadowNodeIXadL_ZNS0_26RNSVGFeOffsetComponentNameEEENS0_18RNSVGFeOffsetPropsEEEE18createInitialStateERKNSt3__110shared_ptrIKNS0_5PropsEEERKNS7_IKNS0_16ShadowNodeFamilyEEE, symObjAddr: 0x25DC, symBinAddr: 0x1D228, symSize: 0x8 }
  - { offset: 0x2EDDBF, size: 0x8, addend: 0x0, symName: __ZNK8facebook5react27ConcreteComponentDescriptorINS0_23RNSVGConcreteShadowNodeIXadL_ZNS0_26RNSVGFeOffsetComponentNameEEENS0_18RNSVGFeOffsetPropsEEEE18createInitialStateERKNSt3__110shared_ptrIKNS0_5PropsEEERKNS7_IKNS0_16ShadowNodeFamilyEEE, symObjAddr: 0x25DC, symBinAddr: 0x1D228, symSize: 0x8 }
  - { offset: 0x2EDDE3, size: 0x8, addend: 0x0, symName: __ZNK8facebook5react27ConcreteComponentDescriptorINS0_23RNSVGConcreteShadowNodeIXadL_ZNS0_26RNSVGFeOffsetComponentNameEEENS0_18RNSVGFeOffsetPropsEEEE11createStateERKNS0_16ShadowNodeFamilyERKNSt3__110shared_ptrIKvEE, symObjAddr: 0x25E4, symBinAddr: 0x1D230, symSize: 0x8 }
  - { offset: 0x2EDE27, size: 0x8, addend: 0x0, symName: __ZNK8facebook5react27ConcreteComponentDescriptorINS0_23RNSVGConcreteShadowNodeIXadL_ZNS0_26RNSVGFeOffsetComponentNameEEENS0_18RNSVGFeOffsetPropsEEEE11createStateERKNS0_16ShadowNodeFamilyERKNSt3__110shared_ptrIKvEE, symObjAddr: 0x25E4, symBinAddr: 0x1D230, symSize: 0x8 }
  - { offset: 0x2EDE4B, size: 0x8, addend: 0x0, symName: __ZNK8facebook5react27ConcreteComponentDescriptorINS0_23RNSVGConcreteShadowNodeIXadL_ZNS0_26RNSVGFeOffsetComponentNameEEENS0_18RNSVGFeOffsetPropsEEEE11createStateERKNS0_16ShadowNodeFamilyERKNSt3__110shared_ptrIKvEE, symObjAddr: 0x25E4, symBinAddr: 0x1D230, symSize: 0x8 }
  - { offset: 0x2EE057, size: 0x8, addend: 0x0, symName: __ZNK8facebook5react27ConcreteComponentDescriptorINS0_23RNSVGConcreteShadowNodeIXadL_ZNS0_26RNSVGFeOffsetComponentNameEEENS0_18RNSVGFeOffsetPropsEEEE12createFamilyERKNS0_24ShadowNodeFamilyFragmentE, symObjAddr: 0x25EC, symBinAddr: 0x1D238, symSize: 0x168 }
  - { offset: 0x2EE5E6, size: 0x8, addend: 0x0, symName: __ZNK8facebook5react27ConcreteComponentDescriptorINS0_23RNSVGConcreteShadowNodeIXadL_ZNS0_26RNSVGFeOffsetComponentNameEEENS0_18RNSVGFeOffsetPropsEEEE5adoptERNS0_10ShadowNodeE, symObjAddr: 0x2754, symBinAddr: 0x1D3A0, symSize: 0x4 }
  - { offset: 0x2EEE3F, size: 0x8, addend: 0x0, symName: __ZNSt3__120__shared_ptr_emplaceIN8facebook5react23RNSVGConcreteShadowNodeIXadL_ZNS2_26RNSVGFeOffsetComponentNameEEENS2_18RNSVGFeOffsetPropsEEENS_9allocatorIS5_EEEC2B8ne200100IJRKNS2_18ShadowNodeFragmentERKNS_10shared_ptrIKNS2_16ShadowNodeFamilyEEENS2_16ShadowNodeTraitsEES7_Li0EEES7_DpOT_, symObjAddr: 0x2A80, symBinAddr: 0x1D414, symSize: 0x60 }
  - { offset: 0x2EF163, size: 0x8, addend: 0x0, symName: __ZNSt3__120__shared_ptr_emplaceIN8facebook5react23RNSVGConcreteShadowNodeIXadL_ZNS2_26RNSVGFeOffsetComponentNameEEENS2_18RNSVGFeOffsetPropsEEENS_9allocatorIS5_EEED1Ev, symObjAddr: 0x2AE0, symBinAddr: 0x1D474, symSize: 0x14 }
  - { offset: 0x2EF187, size: 0x8, addend: 0x0, symName: __ZNSt3__120__shared_ptr_emplaceIN8facebook5react23RNSVGConcreteShadowNodeIXadL_ZNS2_26RNSVGFeOffsetComponentNameEEENS2_18RNSVGFeOffsetPropsEEENS_9allocatorIS5_EEED1Ev, symObjAddr: 0x2AE0, symBinAddr: 0x1D474, symSize: 0x14 }
  - { offset: 0x2EF1BD, size: 0x8, addend: 0x0, symName: __ZNSt3__120__shared_ptr_emplaceIN8facebook5react23RNSVGConcreteShadowNodeIXadL_ZNS2_26RNSVGFeOffsetComponentNameEEENS2_18RNSVGFeOffsetPropsEEENS_9allocatorIS5_EEED0Ev, symObjAddr: 0x2AF4, symBinAddr: 0x1D488, symSize: 0x24 }
  - { offset: 0x2EF28D, size: 0x8, addend: 0x0, symName: __ZNSt3__120__shared_ptr_emplaceIN8facebook5react23RNSVGConcreteShadowNodeIXadL_ZNS2_26RNSVGFeOffsetComponentNameEEENS2_18RNSVGFeOffsetPropsEEENS_9allocatorIS5_EEE16__on_zero_sharedEv, symObjAddr: 0x2B18, symBinAddr: 0x1D4AC, symSize: 0xC }
  - { offset: 0x2EF2B6, size: 0x8, addend: 0x0, symName: __ZNSt3__120__shared_ptr_emplaceIN8facebook5react23RNSVGConcreteShadowNodeIXadL_ZNS2_26RNSVGFeOffsetComponentNameEEENS2_18RNSVGFeOffsetPropsEEENS_9allocatorIS5_EEE16__on_zero_sharedEv, symObjAddr: 0x2B18, symBinAddr: 0x1D4AC, symSize: 0xC }
  - { offset: 0x2EF2D5, size: 0x8, addend: 0x0, symName: __ZNSt3__120__shared_ptr_emplaceIN8facebook5react23RNSVGConcreteShadowNodeIXadL_ZNS2_26RNSVGFeOffsetComponentNameEEENS2_18RNSVGFeOffsetPropsEEENS_9allocatorIS5_EEE16__on_zero_sharedEv, symObjAddr: 0x2B18, symBinAddr: 0x1D4AC, symSize: 0xC }
  - { offset: 0x2EF2F4, size: 0x8, addend: 0x0, symName: __ZNSt3__120__shared_ptr_emplaceIN8facebook5react23RNSVGConcreteShadowNodeIXadL_ZNS2_26RNSVGFeOffsetComponentNameEEENS2_18RNSVGFeOffsetPropsEEENS_9allocatorIS5_EEE16__on_zero_sharedEv, symObjAddr: 0x2B18, symBinAddr: 0x1D4AC, symSize: 0xC }
  - { offset: 0x2EF320, size: 0x8, addend: 0x0, symName: __ZNSt3__120__shared_ptr_emplaceIN8facebook5react23RNSVGConcreteShadowNodeIXadL_ZNS2_26RNSVGFeOffsetComponentNameEEENS2_18RNSVGFeOffsetPropsEEENS_9allocatorIS5_EEE21__on_zero_shared_weakEv, symObjAddr: 0x2B24, symBinAddr: 0x1D4B8, symSize: 0x4 }
  - { offset: 0x2EF353, size: 0x8, addend: 0x0, symName: __ZNSt3__120__shared_ptr_emplaceIN8facebook5react23RNSVGConcreteShadowNodeIXadL_ZNS2_26RNSVGFeOffsetComponentNameEEENS2_18RNSVGFeOffsetPropsEEENS_9allocatorIS5_EEE21__on_zero_shared_weakEv, symObjAddr: 0x2B24, symBinAddr: 0x1D4B8, symSize: 0x4 }
  - { offset: 0x2EF377, size: 0x8, addend: 0x0, symName: __ZNSt3__120__shared_ptr_emplaceIN8facebook5react23RNSVGConcreteShadowNodeIXadL_ZNS2_26RNSVGFeOffsetComponentNameEEENS2_18RNSVGFeOffsetPropsEEENS_9allocatorIS5_EEE21__on_zero_shared_weakEv, symObjAddr: 0x2B24, symBinAddr: 0x1D4B8, symSize: 0x4 }
  - { offset: 0x2EF39C, size: 0x8, addend: 0x0, symName: __ZNSt3__120__shared_ptr_emplaceIN8facebook5react23RNSVGConcreteShadowNodeIXadL_ZNS2_26RNSVGFeOffsetComponentNameEEENS2_18RNSVGFeOffsetPropsEEENS_9allocatorIS5_EEE21__on_zero_shared_weakEv, symObjAddr: 0x2B24, symBinAddr: 0x1D4B8, symSize: 0x4 }
  - { offset: 0x2EF3D4, size: 0x8, addend: 0x0, symName: __ZNSt3__120__shared_ptr_emplaceIN8facebook5react23RNSVGConcreteShadowNodeIXadL_ZNS2_26RNSVGFeOffsetComponentNameEEENS2_18RNSVGFeOffsetPropsEEENS_9allocatorIS5_EEE21__on_zero_shared_weakEv, symObjAddr: 0x2B24, symBinAddr: 0x1D4B8, symSize: 0x4 }
  - { offset: 0x2EF654, size: 0x8, addend: 0x0, symName: __ZN8facebook5react23RNSVGConcreteShadowNodeIXadL_ZNS0_26RNSVGFeOffsetComponentNameEEENS0_18RNSVGFeOffsetPropsEED1Ev, symObjAddr: 0x2B28, symBinAddr: 0x1D4BC, symSize: 0x70 }
  - { offset: 0x2EFC05, size: 0x8, addend: 0x0, symName: __ZN8facebook5react23RNSVGConcreteShadowNodeIXadL_ZNS0_26RNSVGFeOffsetComponentNameEEENS0_18RNSVGFeOffsetPropsEED0Ev, symObjAddr: 0x2B98, symBinAddr: 0x1D52C, symSize: 0x74 }
  - { offset: 0x2F004B, size: 0x8, addend: 0x0, symName: __ZNK8facebook5react23RNSVGConcreteShadowNodeIXadL_ZNS0_26RNSVGFeOffsetComponentNameEEENS0_18RNSVGFeOffsetPropsEE12getTransformEv, symObjAddr: 0x2C0C, symBinAddr: 0x1D5A0, symSize: 0x40 }
  - { offset: 0x2F00BE, size: 0x8, addend: 0x0, symName: __ZNK8facebook5react23RNSVGConcreteShadowNodeIXadL_ZNS0_26RNSVGFeOffsetComponentNameEEENS0_18RNSVGFeOffsetPropsEE16canBeTouchTargetEv, symObjAddr: 0x2C4C, symBinAddr: 0x1D5E0, symSize: 0x18 }
  - { offset: 0x2F00F6, size: 0x8, addend: 0x0, symName: __ZNK8facebook5react23RNSVGConcreteShadowNodeIXadL_ZNS0_26RNSVGFeOffsetComponentNameEEENS0_18RNSVGFeOffsetPropsEE16canBeTouchTargetEv, symObjAddr: 0x2C4C, symBinAddr: 0x1D5E0, symSize: 0x18 }
  - { offset: 0x2F0113, size: 0x8, addend: 0x0, symName: __ZNK8facebook5react23RNSVGConcreteShadowNodeIXadL_ZNS0_26RNSVGFeOffsetComponentNameEEENS0_18RNSVGFeOffsetPropsEE16canBeTouchTargetEv, symObjAddr: 0x2C4C, symBinAddr: 0x1D5E0, symSize: 0x18 }
  - { offset: 0x2F0131, size: 0x8, addend: 0x0, symName: __ZNK8facebook5react23RNSVGConcreteShadowNodeIXadL_ZNS0_26RNSVGFeOffsetComponentNameEEENS0_18RNSVGFeOffsetPropsEE24canChildrenBeTouchTargetEv, symObjAddr: 0x2C64, symBinAddr: 0x1D5F8, symSize: 0x18 }
  - { offset: 0x2F0165, size: 0x8, addend: 0x0, symName: __ZNK8facebook5react23RNSVGConcreteShadowNodeIXadL_ZNS0_26RNSVGFeOffsetComponentNameEEENS0_18RNSVGFeOffsetPropsEE24canChildrenBeTouchTargetEv, symObjAddr: 0x2C64, symBinAddr: 0x1D5F8, symSize: 0x18 }
  - { offset: 0x2F0182, size: 0x8, addend: 0x0, symName: __ZNK8facebook5react23RNSVGConcreteShadowNodeIXadL_ZNS0_26RNSVGFeOffsetComponentNameEEENS0_18RNSVGFeOffsetPropsEE24canChildrenBeTouchTargetEv, symObjAddr: 0x2C64, symBinAddr: 0x1D5F8, symSize: 0x18 }
  - { offset: 0x2F057B, size: 0x8, addend: 0x0, symName: __ZNSt3__120__shared_ptr_emplaceIN8facebook5react23RNSVGConcreteShadowNodeIXadL_ZNS2_26RNSVGFeOffsetComponentNameEEENS2_18RNSVGFeOffsetPropsEEENS_9allocatorIS5_EEEC2B8ne200100IJRKNS2_10ShadowNodeERKNS2_18ShadowNodeFragmentEES7_Li0EEES7_DpOT_, symObjAddr: 0x2FB8, symBinAddr: 0x1D670, symSize: 0x5C }
  - { offset: 0x2F0A76, size: 0x8, addend: 0x0, symName: __ZNSt3__120__shared_ptr_emplaceIN8facebook5react18RNSVGFeOffsetPropsENS_9allocatorIS3_EEEC2B8ne200100IJRKNS2_18PropsParserContextERKS3_RKNS2_8RawPropsEES5_Li0EEES5_DpOT_, symObjAddr: 0x31D0, symBinAddr: 0x1D830, symSize: 0x4C }
  - { offset: 0x2F0C64, size: 0x8, addend: 0x0, symName: __ZNSt3__120__shared_ptr_emplaceIN8facebook5react18RNSVGFeOffsetPropsENS_9allocatorIS3_EEED1Ev, symObjAddr: 0x321C, symBinAddr: 0x1D87C, symSize: 0x14 }
  - { offset: 0x2F0C88, size: 0x8, addend: 0x0, symName: __ZNSt3__120__shared_ptr_emplaceIN8facebook5react18RNSVGFeOffsetPropsENS_9allocatorIS3_EEED1Ev, symObjAddr: 0x321C, symBinAddr: 0x1D87C, symSize: 0x14 }
  - { offset: 0x2F0CBE, size: 0x8, addend: 0x0, symName: __ZNSt3__120__shared_ptr_emplaceIN8facebook5react18RNSVGFeOffsetPropsENS_9allocatorIS3_EEED0Ev, symObjAddr: 0x3230, symBinAddr: 0x1D890, symSize: 0x24 }
  - { offset: 0x2F0D5F, size: 0x8, addend: 0x0, symName: __ZNSt3__120__shared_ptr_emplaceIN8facebook5react18RNSVGFeOffsetPropsENS_9allocatorIS3_EEE16__on_zero_sharedEv, symObjAddr: 0x3254, symBinAddr: 0x1D8B4, symSize: 0x8 }
  - { offset: 0x2F0D88, size: 0x8, addend: 0x0, symName: __ZNSt3__120__shared_ptr_emplaceIN8facebook5react18RNSVGFeOffsetPropsENS_9allocatorIS3_EEE16__on_zero_sharedEv, symObjAddr: 0x3254, symBinAddr: 0x1D8B4, symSize: 0x8 }
  - { offset: 0x2F0DA7, size: 0x8, addend: 0x0, symName: __ZNSt3__120__shared_ptr_emplaceIN8facebook5react18RNSVGFeOffsetPropsENS_9allocatorIS3_EEE16__on_zero_sharedEv, symObjAddr: 0x3254, symBinAddr: 0x1D8B4, symSize: 0x8 }
  - { offset: 0x2F0DFD, size: 0x8, addend: 0x0, symName: __ZNSt3__120__shared_ptr_emplaceIN8facebook5react18RNSVGFeOffsetPropsENS_9allocatorIS3_EEE21__on_zero_shared_weakEv, symObjAddr: 0x325C, symBinAddr: 0x1D8BC, symSize: 0x4 }
  - { offset: 0x2F0E30, size: 0x8, addend: 0x0, symName: __ZNSt3__120__shared_ptr_emplaceIN8facebook5react18RNSVGFeOffsetPropsENS_9allocatorIS3_EEE21__on_zero_shared_weakEv, symObjAddr: 0x325C, symBinAddr: 0x1D8BC, symSize: 0x4 }
  - { offset: 0x2F0E54, size: 0x8, addend: 0x0, symName: __ZNSt3__120__shared_ptr_emplaceIN8facebook5react18RNSVGFeOffsetPropsENS_9allocatorIS3_EEE21__on_zero_shared_weakEv, symObjAddr: 0x325C, symBinAddr: 0x1D8BC, symSize: 0x4 }
  - { offset: 0x2F0E79, size: 0x8, addend: 0x0, symName: __ZNSt3__120__shared_ptr_emplaceIN8facebook5react18RNSVGFeOffsetPropsENS_9allocatorIS3_EEE21__on_zero_shared_weakEv, symObjAddr: 0x325C, symBinAddr: 0x1D8BC, symSize: 0x4 }
  - { offset: 0x2F0EB1, size: 0x8, addend: 0x0, symName: __ZNSt3__120__shared_ptr_emplaceIN8facebook5react18RNSVGFeOffsetPropsENS_9allocatorIS3_EEE21__on_zero_shared_weakEv, symObjAddr: 0x325C, symBinAddr: 0x1D8BC, symSize: 0x4 }
  - { offset: 0x2F1D58, size: 0x8, addend: 0x0, symName: __ZNSt3__120__shared_ptr_emplaceIN8facebook5react16ShadowNodeFamilyENS_9allocatorIS3_EEEC2B8ne200100IJRKNS2_24ShadowNodeFamilyFragmentERNS_10shared_ptrIKNS2_20BaseViewEventEmitterEEERKNS_8weak_ptrIKNS2_15EventDispatcherEEERKNS2_27ConcreteComponentDescriptorINS2_23RNSVGConcreteShadowNodeIXadL_ZNS2_26RNSVGFeOffsetComponentNameEEENS2_18RNSVGFeOffsetPropsEEEEEES5_Li0EEES5_DpOT_, symObjAddr: 0x3980, symBinAddr: 0x1D938, symSize: 0x4C }
  - { offset: 0x2F20D3, size: 0x8, addend: 0x0, symName: __GLOBAL__sub_I_RNSVGFeOffset.mm, symObjAddr: 0x4048, symBinAddr: 0x1DA60, symSize: 0x20 }
  - { offset: 0x2F4525, size: 0x8, addend: 0x0, symName: __ZN8facebook5react17HostPlatformColorL14UndefinedColorE, symObjAddr: 0xDE048, symBinAddr: 0xB0380, symSize: 0x0 }
  - { offset: 0x2F520E, size: 0x8, addend: 0x0, symName: '+[RNSVGFeOffsetManager moduleName]', symObjAddr: 0x0, symBinAddr: 0x1DA80, symSize: 0xC }
  - { offset: 0x2F523F, size: 0x8, addend: 0x0, symName: '+[RNSVGFeOffsetManager load]', symObjAddr: 0xC, symBinAddr: 0x1DA8C, symSize: 0x4 }
  - { offset: 0x2F5272, size: 0x8, addend: 0x0, symName: '+[RNSVGFeOffsetManager load]', symObjAddr: 0xC, symBinAddr: 0x1DA8C, symSize: 0x4 }
  - { offset: 0x2F5291, size: 0x8, addend: 0x0, symName: '-[RNSVGFeOffsetManager node]', symObjAddr: 0x10, symBinAddr: 0x1DA90, symSize: 0x1C }
  - { offset: 0x2F52C2, size: 0x8, addend: 0x0, symName: '+[RNSVGFeOffsetManager propConfig_in1]', symObjAddr: 0x2C, symBinAddr: 0x1DAAC, symSize: 0xC }
  - { offset: 0x2F52F3, size: 0x8, addend: 0x0, symName: '+[RNSVGFeOffsetManager propConfig_dx]', symObjAddr: 0x38, symBinAddr: 0x1DAB8, symSize: 0xC }
  - { offset: 0x2F5324, size: 0x8, addend: 0x0, symName: '+[RNSVGFeOffsetManager propConfig_dy]', symObjAddr: 0x44, symBinAddr: 0x1DAC4, symSize: 0xC }
  - { offset: 0x2F53DC, size: 0x8, addend: 0x0, symName: __GLOBAL__sub_I_RNSVGFeOffsetManager.mm, symObjAddr: 0x50, symBinAddr: 0x1DAD0, symSize: 0x20 }
  - { offset: 0x2F7430, size: 0x8, addend: 0x0, symName: __ZN8facebook5react17HostPlatformColorL14UndefinedColorE, symObjAddr: 0x176658, symBinAddr: 0xB0398, symSize: 0x0 }
  - { offset: 0x2FA867, size: 0x8, addend: 0x0, symName: __ZN8facebook5react38concreteComponentDescriptorConstructorINS0_27ConcreteComponentDescriptorINS0_23RNSVGConcreteShadowNodeIXadL_ZNS0_24RNSVGFilterComponentNameEEENS0_16RNSVGFilterPropsEEEEEEENSt3__110unique_ptrIKNS0_19ComponentDescriptorENS7_14default_deleteISA_EEEERKNS0_29ComponentDescriptorParametersE, symObjAddr: 0x2764, symBinAddr: 0x1F268, symSize: 0x34 }
  - { offset: 0x316909, size: 0x8, addend: 0x0, symName: __ZNSt3__115allocate_sharedB8ne200100IKN8facebook5react16RNSVGFilterPropsENS_9allocatorIS3_EEJELi0EEENS_10shared_ptrIT_EERKT0_DpOT1_, symObjAddr: 0x1814, symBinAddr: 0x1F014, symSize: 0x48 }
  - { offset: 0x3174BC, size: 0x8, addend: 0x0, symName: __ZNSt3__112__destroy_atB8ne200100IN8facebook5react16RNSVGFilterPropsELi0EEEvPT_, symObjAddr: 0x26B0, symBinAddr: 0x1F20C, symSize: 0x5C }
  - { offset: 0x317E15, size: 0x8, addend: 0x0, symName: __ZNSt3__111make_uniqueB8ne200100IKN8facebook5react27ConcreteComponentDescriptorINS2_23RNSVGConcreteShadowNodeIXadL_ZNS2_24RNSVGFilterComponentNameEEENS2_16RNSVGFilterPropsEEEEEJRKNS2_29ComponentDescriptorParametersEELi0EEENS_10unique_ptrIT_NS_14default_deleteISD_EEEEDpOT0_, symObjAddr: 0x2798, symBinAddr: 0x1F29C, symSize: 0xD4 }
  - { offset: 0x31878D, size: 0x8, addend: 0x0, symName: __ZNSt3__115allocate_sharedB8ne200100IN8facebook5react23RNSVGConcreteShadowNodeIXadL_ZNS2_24RNSVGFilterComponentNameEEENS2_16RNSVGFilterPropsEEENS_9allocatorIS5_EEJRKNS2_18ShadowNodeFragmentERKNS_10shared_ptrIKNS2_16ShadowNodeFamilyEEENS2_16ShadowNodeTraitsEELi0EEENSB_IT_EERKT0_DpOT1_, symObjAddr: 0x337C, symBinAddr: 0x1FB78, symSize: 0x70 }
  - { offset: 0x318ABC, size: 0x8, addend: 0x0, symName: __ZNSt3__115allocate_sharedB8ne200100IN8facebook5react23RNSVGConcreteShadowNodeIXadL_ZNS2_24RNSVGFilterComponentNameEEENS2_16RNSVGFilterPropsEEENS_9allocatorIS5_EEJRKNS2_10ShadowNodeERKNS2_18ShadowNodeFragmentEELi0EEENS_10shared_ptrIT_EERKT0_DpOT1_, symObjAddr: 0x38C4, symBinAddr: 0x1FDE4, symSize: 0x60 }
  - { offset: 0x319207, size: 0x8, addend: 0x0, symName: __ZNSt3__115allocate_sharedB8ne200100IN8facebook5react16ShadowNodeFamilyENS_9allocatorIS3_EEJRKNS2_24ShadowNodeFamilyFragmentERNS_10shared_ptrIKNS2_20BaseViewEventEmitterEEERKNS_8weak_ptrIKNS2_15EventDispatcherEEERKNS2_27ConcreteComponentDescriptorINS2_23RNSVGConcreteShadowNodeIXadL_ZNS2_24RNSVGFilterComponentNameEEENS2_16RNSVGFilterPropsEEEEEELi0EEENS9_IT_EERKT0_DpOT1_, symObjAddr: 0x4274, symBinAddr: 0x20094, symSize: 0x78 }
  - { offset: 0x319F9A, size: 0x8, addend: 0x0, symName: __ZNSt3__115allocate_sharedB8ne200100IN8facebook5react16RNSVGFilterPropsENS_9allocatorIS3_EEJRKNS2_18PropsParserContextERKS3_RKNS2_8RawPropsEELi0EEENS_10shared_ptrIT_EERKT0_DpOT1_, symObjAddr: 0x3ACC, symBinAddr: 0x1FF94, symSize: 0x70 }
  - { offset: 0x31B1A7, size: 0x8, addend: 0x0, symName: __ZNSt3__112construct_atB8ne200100IN8facebook5react16ShadowNodeFamilyEJRKNS2_24ShadowNodeFamilyFragmentERNS_10shared_ptrIKNS2_20BaseViewEventEmitterEEERKNS_8weak_ptrIKNS2_15EventDispatcherEEERKNS2_27ConcreteComponentDescriptorINS2_23RNSVGConcreteShadowNodeIXadL_ZNS2_24RNSVGFilterComponentNameEEENS2_16RNSVGFilterPropsEEEEEEPS3_EEPT_SR_DpOT0_, symObjAddr: 0x437C, symBinAddr: 0x20158, symSize: 0xDC }
  - { offset: 0x31C58F, size: 0x8, addend: 0x0, symName: '-[RNSVGFilter initWithFrame:]', symObjAddr: 0x34, symBinAddr: 0x1DB24, symSize: 0xDC }
  - { offset: 0x31C5B8, size: 0x8, addend: 0x0, symName: '__ZZ29-[RNSVGFilter initWithFrame:]E12defaultProps', symObjAddr: 0x176670, symBinAddr: 0xB03B0, symSize: 0x0 }
  - { offset: 0x31FFBC, size: 0x8, addend: 0x0, symName: __ZN8facebook5react18ConcreteShadowNodeIXadL_ZNS0_24RNSVGFilterComponentNameEEENS0_25RNSVGLayoutableShadowNodeENS0_16RNSVGFilterPropsENS0_20BaseViewEventEmitterENS0_9StateDataEE18defaultSharedPropsEv, symObjAddr: 0x39D8, symBinAddr: 0x1FEA0, symSize: 0x9C }
  - { offset: 0x31FFDB, size: 0x8, addend: 0x0, symName: __ZZN8facebook5react18ConcreteShadowNodeIXadL_ZNS0_24RNSVGFilterComponentNameEEENS0_25RNSVGLayoutableShadowNodeENS0_16RNSVGFilterPropsENS0_20BaseViewEventEmitterENS0_9StateDataEE18defaultSharedPropsEvE18defaultSharedProps, symObjAddr: 0x6640, symBinAddr: 0xAFA08, symSize: 0x0 }
  - { offset: 0x320267, size: 0x8, addend: 0x0, symName: '+[RNSVGFilter load]', symObjAddr: 0x0, symBinAddr: 0x1DAF0, symSize: 0x34 }
  - { offset: 0x3203A6, size: 0x8, addend: 0x0, symName: __ZNSt3__110shared_ptrIKN8facebook5react16RNSVGFilterPropsEED1B8ne200100Ev, symObjAddr: 0x110, symBinAddr: 0x1DC00, symSize: 0x4 }
  - { offset: 0x3203CA, size: 0x8, addend: 0x0, symName: __ZNSt3__110shared_ptrIKN8facebook5react16RNSVGFilterPropsEED1B8ne200100Ev, symObjAddr: 0x110, symBinAddr: 0x1DC00, symSize: 0x4 }
  - { offset: 0x3205D2, size: 0x8, addend: 0x0, symName: '+[RNSVGFilter componentDescriptorProvider]', symObjAddr: 0x18C, symBinAddr: 0x1DC04, symSize: 0x20 }
  - { offset: 0x320606, size: 0x8, addend: 0x0, symName: '+[RNSVGFilter componentDescriptorProvider]', symObjAddr: 0x18C, symBinAddr: 0x1DC04, symSize: 0x20 }
  - { offset: 0x320829, size: 0x8, addend: 0x0, symName: '-[RNSVGFilter updateProps:oldProps:]', symObjAddr: 0x1AC, symBinAddr: 0x1DC24, symSize: 0x2AC }
  - { offset: 0x320BEA, size: 0x8, addend: 0x0, symName: __ZL28RNSVGConvertFollyDynamicToIdRKN5folly7dynamicE, symObjAddr: 0x458, symBinAddr: 0x1DED0, symSize: 0x274 }
  - { offset: 0x3214F6, size: 0x8, addend: 0x0, symName: '-[RNSVGFilter prepareForRecycle]', symObjAddr: 0x730, symBinAddr: 0x1E144, symSize: 0x7C }
  - { offset: 0x321526, size: 0x8, addend: 0x0, symName: '-[RNSVGFilter init]', symObjAddr: 0x7AC, symBinAddr: 0x1E1C0, symSize: 0xA8 }
  - { offset: 0x32155A, size: 0x8, addend: 0x0, symName: '-[RNSVGFilter applyFilter:backgroundImg:renderableBounds:canvasBounds:ctm:]', symObjAddr: 0x854, symBinAddr: 0x1E268, symSize: 0x6B4 }
  - { offset: 0x3216DC, size: 0x8, addend: 0x0, symName: __ZL22applySourceAlphaFilterP7CIImage, symObjAddr: 0xF08, symBinAddr: 0x1E91C, symSize: 0x238 }
  - { offset: 0x3217E7, size: 0x8, addend: 0x0, symName: '-[RNSVGFilter openContext:]', symObjAddr: 0x1140, symBinAddr: 0x1EB54, symSize: 0x58 }
  - { offset: 0x3218E1, size: 0x8, addend: 0x0, symName: '-[RNSVGFilter endContext:]', symObjAddr: 0x1198, symBinAddr: 0x1EBAC, symSize: 0x4 }
  - { offset: 0x32191C, size: 0x8, addend: 0x0, symName: '-[RNSVGFilter endContext:]', symObjAddr: 0x1198, symBinAddr: 0x1EBAC, symSize: 0x4 }
  - { offset: 0x32192F, size: 0x8, addend: 0x0, symName: '-[RNSVGFilter getMaskFromRect:rect:ctm:]', symObjAddr: 0x119C, symBinAddr: 0x1EBB0, symSize: 0xA4 }
  - { offset: 0x321AFD, size: 0x8, addend: 0x0, symName: '-[RNSVGFilter hitTest:withEvent:]', symObjAddr: 0x1240, symBinAddr: 0x1EC54, symSize: 0x8 }
  - { offset: 0x321B44, size: 0x8, addend: 0x0, symName: '-[RNSVGFilter parseReference]', symObjAddr: 0x1248, symBinAddr: 0x1EC5C, symSize: 0x78 }
  - { offset: 0x321B75, size: 0x8, addend: 0x0, symName: '-[RNSVGFilter setX:]', symObjAddr: 0x12C0, symBinAddr: 0x1ECD4, symSize: 0x9C }
  - { offset: 0x321BB5, size: 0x8, addend: 0x0, symName: '-[RNSVGFilter setY:]', symObjAddr: 0x135C, symBinAddr: 0x1ED70, symSize: 0x9C }
  - { offset: 0x321BF5, size: 0x8, addend: 0x0, symName: '-[RNSVGFilter setWidth:]', symObjAddr: 0x13F8, symBinAddr: 0x1EE0C, symSize: 0x9C }
  - { offset: 0x321C35, size: 0x8, addend: 0x0, symName: '-[RNSVGFilter setHeight:]', symObjAddr: 0x1494, symBinAddr: 0x1EEA8, symSize: 0x9C }
  - { offset: 0x321C75, size: 0x8, addend: 0x0, symName: '-[RNSVGFilter setFilterUnits:]', symObjAddr: 0x1530, symBinAddr: 0x1EF44, symSize: 0x20 }
  - { offset: 0x321CB3, size: 0x8, addend: 0x0, symName: '-[RNSVGFilter setPrimitiveUnits:]', symObjAddr: 0x1550, symBinAddr: 0x1EF64, symSize: 0x20 }
  - { offset: 0x321CF3, size: 0x8, addend: 0x0, symName: '-[RNSVGFilter filterUnits]', symObjAddr: 0x1570, symBinAddr: 0x1EF84, symSize: 0x10 }
  - { offset: 0x321D29, size: 0x8, addend: 0x0, symName: '-[RNSVGFilter primitiveUnits]', symObjAddr: 0x1580, symBinAddr: 0x1EF94, symSize: 0x10 }
  - { offset: 0x321D5F, size: 0x8, addend: 0x0, symName: '-[RNSVGFilter filterRegion]', symObjAddr: 0x1590, symBinAddr: 0x1EFA4, symSize: 0x10 }
  - { offset: 0x321D95, size: 0x8, addend: 0x0, symName: '-[RNSVGFilter setFilterRegion:]', symObjAddr: 0x15A0, symBinAddr: 0x1EFB4, symSize: 0x14 }
  - { offset: 0x321DD5, size: 0x8, addend: 0x0, symName: '-[RNSVGFilter .cxx_destruct]', symObjAddr: 0x15B4, symBinAddr: 0x1EFC8, symSize: 0x40 }
  - { offset: 0x321E06, size: 0x8, addend: 0x0, symName: __Z14RNSVGFilterClsv, symObjAddr: 0x15F4, symBinAddr: 0x1F008, symSize: 0xC }
  - { offset: 0x322539, size: 0x8, addend: 0x0, symName: __ZNSt3__120__shared_ptr_emplaceIKN8facebook5react16RNSVGFilterPropsENS_9allocatorIS3_EEEC2B8ne200100IJES6_Li0EEES6_DpOT_, symObjAddr: 0x185C, symBinAddr: 0x1F05C, symSize: 0xB0 }
  - { offset: 0x323ECE, size: 0x8, addend: 0x0, symName: __ZNSt3__120__shared_ptr_emplaceIKN8facebook5react16RNSVGFilterPropsENS_9allocatorIS3_EEED1Ev, symObjAddr: 0x190C, symBinAddr: 0x1F10C, symSize: 0x14 }
  - { offset: 0x323EF2, size: 0x8, addend: 0x0, symName: __ZNSt3__120__shared_ptr_emplaceIKN8facebook5react16RNSVGFilterPropsENS_9allocatorIS3_EEED1Ev, symObjAddr: 0x190C, symBinAddr: 0x1F10C, symSize: 0x14 }
  - { offset: 0x323F28, size: 0x8, addend: 0x0, symName: __ZNSt3__120__shared_ptr_emplaceIKN8facebook5react16RNSVGFilterPropsENS_9allocatorIS3_EEED0Ev, symObjAddr: 0x1920, symBinAddr: 0x1F120, symSize: 0x24 }
  - { offset: 0x323FF8, size: 0x8, addend: 0x0, symName: __ZNSt3__120__shared_ptr_emplaceIKN8facebook5react16RNSVGFilterPropsENS_9allocatorIS3_EEE16__on_zero_sharedEv, symObjAddr: 0x1944, symBinAddr: 0x1F144, symSize: 0x8 }
  - { offset: 0x324021, size: 0x8, addend: 0x0, symName: __ZNSt3__120__shared_ptr_emplaceIKN8facebook5react16RNSVGFilterPropsENS_9allocatorIS3_EEE16__on_zero_sharedEv, symObjAddr: 0x1944, symBinAddr: 0x1F144, symSize: 0x8 }
  - { offset: 0x324040, size: 0x8, addend: 0x0, symName: __ZNSt3__120__shared_ptr_emplaceIKN8facebook5react16RNSVGFilterPropsENS_9allocatorIS3_EEE16__on_zero_sharedEv, symObjAddr: 0x1944, symBinAddr: 0x1F144, symSize: 0x8 }
  - { offset: 0x32407E, size: 0x8, addend: 0x0, symName: __ZNSt3__120__shared_ptr_emplaceIKN8facebook5react16RNSVGFilterPropsENS_9allocatorIS3_EEE21__on_zero_shared_weakEv, symObjAddr: 0x194C, symBinAddr: 0x1F14C, symSize: 0x4 }
  - { offset: 0x3240B1, size: 0x8, addend: 0x0, symName: __ZNSt3__120__shared_ptr_emplaceIKN8facebook5react16RNSVGFilterPropsENS_9allocatorIS3_EEE21__on_zero_shared_weakEv, symObjAddr: 0x194C, symBinAddr: 0x1F14C, symSize: 0x4 }
  - { offset: 0x3240D5, size: 0x8, addend: 0x0, symName: __ZNSt3__120__shared_ptr_emplaceIKN8facebook5react16RNSVGFilterPropsENS_9allocatorIS3_EEE21__on_zero_shared_weakEv, symObjAddr: 0x194C, symBinAddr: 0x1F14C, symSize: 0x4 }
  - { offset: 0x3240FA, size: 0x8, addend: 0x0, symName: __ZNSt3__120__shared_ptr_emplaceIKN8facebook5react16RNSVGFilterPropsENS_9allocatorIS3_EEE21__on_zero_shared_weakEv, symObjAddr: 0x194C, symBinAddr: 0x1F14C, symSize: 0x4 }
  - { offset: 0x324132, size: 0x8, addend: 0x0, symName: __ZNSt3__120__shared_ptr_emplaceIKN8facebook5react16RNSVGFilterPropsENS_9allocatorIS3_EEE21__on_zero_shared_weakEv, symObjAddr: 0x194C, symBinAddr: 0x1F14C, symSize: 0x4 }
  - { offset: 0x326F3F, size: 0x8, addend: 0x0, symName: __ZN8facebook5react16RNSVGFilterPropsD1Ev, symObjAddr: 0x1E6C, symBinAddr: 0x1F150, symSize: 0x5C }
  - { offset: 0x327181, size: 0x8, addend: 0x0, symName: __ZN8facebook5react16RNSVGFilterPropsD0Ev, symObjAddr: 0x1EC8, symBinAddr: 0x1F1AC, symSize: 0x60 }
  - { offset: 0x328E19, size: 0x8, addend: 0x0, symName: __ZN8facebook5react14RawPropsParser7prepareINS0_16RNSVGFilterPropsEEEvv, symObjAddr: 0x28BC, symBinAddr: 0x1F370, symSize: 0x290 }
  - { offset: 0x32A3B0, size: 0x8, addend: 0x0, symName: __ZN8facebook5react27ConcreteComponentDescriptorINS0_23RNSVGConcreteShadowNodeIXadL_ZNS0_24RNSVGFilterComponentNameEEENS0_16RNSVGFilterPropsEEEED1Ev, symObjAddr: 0x2B4C, symBinAddr: 0x1F600, symSize: 0x4 }
  - { offset: 0x32A3D4, size: 0x8, addend: 0x0, symName: __ZN8facebook5react27ConcreteComponentDescriptorINS0_23RNSVGConcreteShadowNodeIXadL_ZNS0_24RNSVGFilterComponentNameEEENS0_16RNSVGFilterPropsEEEED1Ev, symObjAddr: 0x2B4C, symBinAddr: 0x1F600, symSize: 0x4 }
  - { offset: 0x32A3F2, size: 0x8, addend: 0x0, symName: __ZN8facebook5react27ConcreteComponentDescriptorINS0_23RNSVGConcreteShadowNodeIXadL_ZNS0_24RNSVGFilterComponentNameEEENS0_16RNSVGFilterPropsEEEED1Ev, symObjAddr: 0x2B4C, symBinAddr: 0x1F600, symSize: 0x4 }
  - { offset: 0x32A6C9, size: 0x8, addend: 0x0, symName: __ZN8facebook5react27ConcreteComponentDescriptorINS0_23RNSVGConcreteShadowNodeIXadL_ZNS0_24RNSVGFilterComponentNameEEENS0_16RNSVGFilterPropsEEEED0Ev, symObjAddr: 0x2B50, symBinAddr: 0x1F604, symSize: 0x14 }
  - { offset: 0x32A745, size: 0x8, addend: 0x0, symName: __ZNK8facebook5react27ConcreteComponentDescriptorINS0_23RNSVGConcreteShadowNodeIXadL_ZNS0_24RNSVGFilterComponentNameEEENS0_16RNSVGFilterPropsEEEE18getComponentHandleEv, symObjAddr: 0x2B64, symBinAddr: 0x1F618, symSize: 0xC }
  - { offset: 0x32A76B, size: 0x8, addend: 0x0, symName: __ZNK8facebook5react27ConcreteComponentDescriptorINS0_23RNSVGConcreteShadowNodeIXadL_ZNS0_24RNSVGFilterComponentNameEEENS0_16RNSVGFilterPropsEEEE16getComponentNameEv, symObjAddr: 0x2B70, symBinAddr: 0x1F624, symSize: 0xC }
  - { offset: 0x32A791, size: 0x8, addend: 0x0, symName: __ZNK8facebook5react27ConcreteComponentDescriptorINS0_23RNSVGConcreteShadowNodeIXadL_ZNS0_24RNSVGFilterComponentNameEEENS0_16RNSVGFilterPropsEEEE9getTraitsEv, symObjAddr: 0x2B7C, symBinAddr: 0x1F630, symSize: 0x8 }
  - { offset: 0x32A88B, size: 0x8, addend: 0x0, symName: __ZNK8facebook5react27ConcreteComponentDescriptorINS0_23RNSVGConcreteShadowNodeIXadL_ZNS0_24RNSVGFilterComponentNameEEENS0_16RNSVGFilterPropsEEEE16createShadowNodeERKNS0_18ShadowNodeFragmentERKNSt3__110shared_ptrIKNS0_16ShadowNodeFamilyEEE, symObjAddr: 0x2B84, symBinAddr: 0x1F638, symSize: 0x90 }
  - { offset: 0x32AB17, size: 0x8, addend: 0x0, symName: __ZNK8facebook5react27ConcreteComponentDescriptorINS0_23RNSVGConcreteShadowNodeIXadL_ZNS0_24RNSVGFilterComponentNameEEENS0_16RNSVGFilterPropsEEEE15cloneShadowNodeERKNS0_10ShadowNodeERKNS0_18ShadowNodeFragmentE, symObjAddr: 0x2C14, symBinAddr: 0x1F6C8, symSize: 0x104 }
  - { offset: 0x32AEA4, size: 0x8, addend: 0x0, symName: __ZNK8facebook5react27ConcreteComponentDescriptorINS0_23RNSVGConcreteShadowNodeIXadL_ZNS0_24RNSVGFilterComponentNameEEENS0_16RNSVGFilterPropsEEEE11appendChildERKNSt3__110shared_ptrIKNS0_10ShadowNodeEEESC_, symObjAddr: 0x2D18, symBinAddr: 0x1F7CC, symSize: 0x14 }
  - { offset: 0x32AEFA, size: 0x8, addend: 0x0, symName: __ZNK8facebook5react27ConcreteComponentDescriptorINS0_23RNSVGConcreteShadowNodeIXadL_ZNS0_24RNSVGFilterComponentNameEEENS0_16RNSVGFilterPropsEEEE11appendChildERKNSt3__110shared_ptrIKNS0_10ShadowNodeEEESC_, symObjAddr: 0x2D18, symBinAddr: 0x1F7CC, symSize: 0x14 }
  - { offset: 0x32B657, size: 0x8, addend: 0x0, symName: __ZNK8facebook5react27ConcreteComponentDescriptorINS0_23RNSVGConcreteShadowNodeIXadL_ZNS0_24RNSVGFilterComponentNameEEENS0_16RNSVGFilterPropsEEEE10clonePropsERKNS0_18PropsParserContextERKNSt3__110shared_ptrIKNS0_5PropsEEENS0_8RawPropsE, symObjAddr: 0x2D2C, symBinAddr: 0x1F7E0, symSize: 0x21C }
  - { offset: 0x32C1F1, size: 0x8, addend: 0x0, symName: __ZN8facebook5react18ConcreteShadowNodeIXadL_ZNS0_24RNSVGFilterComponentNameEEENS0_25RNSVGLayoutableShadowNodeENS0_16RNSVGFilterPropsENS0_20BaseViewEventEmitterENS0_9StateDataEE5PropsERKNS0_18PropsParserContextERKNS0_8RawPropsERKNSt3__110shared_ptrIKNS0_5PropsEEE, symObjAddr: 0x3A74, symBinAddr: 0x1FF3C, symSize: 0x58 }
  - { offset: 0x32C45B, size: 0x8, addend: 0x0, symName: __ZNK8facebook5react27ConcreteComponentDescriptorINS0_23RNSVGConcreteShadowNodeIXadL_ZNS0_24RNSVGFilterComponentNameEEENS0_16RNSVGFilterPropsEEEE18createInitialStateERKNSt3__110shared_ptrIKNS0_5PropsEEERKNS7_IKNS0_16ShadowNodeFamilyEEE, symObjAddr: 0x2F48, symBinAddr: 0x1F9FC, symSize: 0x8 }
  - { offset: 0x32C49F, size: 0x8, addend: 0x0, symName: __ZNK8facebook5react27ConcreteComponentDescriptorINS0_23RNSVGConcreteShadowNodeIXadL_ZNS0_24RNSVGFilterComponentNameEEENS0_16RNSVGFilterPropsEEEE18createInitialStateERKNSt3__110shared_ptrIKNS0_5PropsEEERKNS7_IKNS0_16ShadowNodeFamilyEEE, symObjAddr: 0x2F48, symBinAddr: 0x1F9FC, symSize: 0x8 }
  - { offset: 0x32C4C3, size: 0x8, addend: 0x0, symName: __ZNK8facebook5react27ConcreteComponentDescriptorINS0_23RNSVGConcreteShadowNodeIXadL_ZNS0_24RNSVGFilterComponentNameEEENS0_16RNSVGFilterPropsEEEE18createInitialStateERKNSt3__110shared_ptrIKNS0_5PropsEEERKNS7_IKNS0_16ShadowNodeFamilyEEE, symObjAddr: 0x2F48, symBinAddr: 0x1F9FC, symSize: 0x8 }
  - { offset: 0x32C4E7, size: 0x8, addend: 0x0, symName: __ZNK8facebook5react27ConcreteComponentDescriptorINS0_23RNSVGConcreteShadowNodeIXadL_ZNS0_24RNSVGFilterComponentNameEEENS0_16RNSVGFilterPropsEEEE11createStateERKNS0_16ShadowNodeFamilyERKNSt3__110shared_ptrIKvEE, symObjAddr: 0x2F50, symBinAddr: 0x1FA04, symSize: 0x8 }
  - { offset: 0x32C52B, size: 0x8, addend: 0x0, symName: __ZNK8facebook5react27ConcreteComponentDescriptorINS0_23RNSVGConcreteShadowNodeIXadL_ZNS0_24RNSVGFilterComponentNameEEENS0_16RNSVGFilterPropsEEEE11createStateERKNS0_16ShadowNodeFamilyERKNSt3__110shared_ptrIKvEE, symObjAddr: 0x2F50, symBinAddr: 0x1FA04, symSize: 0x8 }
  - { offset: 0x32C54F, size: 0x8, addend: 0x0, symName: __ZNK8facebook5react27ConcreteComponentDescriptorINS0_23RNSVGConcreteShadowNodeIXadL_ZNS0_24RNSVGFilterComponentNameEEENS0_16RNSVGFilterPropsEEEE11createStateERKNS0_16ShadowNodeFamilyERKNSt3__110shared_ptrIKvEE, symObjAddr: 0x2F50, symBinAddr: 0x1FA04, symSize: 0x8 }
  - { offset: 0x32C75B, size: 0x8, addend: 0x0, symName: __ZNK8facebook5react27ConcreteComponentDescriptorINS0_23RNSVGConcreteShadowNodeIXadL_ZNS0_24RNSVGFilterComponentNameEEENS0_16RNSVGFilterPropsEEEE12createFamilyERKNS0_24ShadowNodeFamilyFragmentE, symObjAddr: 0x2F58, symBinAddr: 0x1FA0C, symSize: 0x168 }
  - { offset: 0x32CCEA, size: 0x8, addend: 0x0, symName: __ZNK8facebook5react27ConcreteComponentDescriptorINS0_23RNSVGConcreteShadowNodeIXadL_ZNS0_24RNSVGFilterComponentNameEEENS0_16RNSVGFilterPropsEEEE5adoptERNS0_10ShadowNodeE, symObjAddr: 0x30C0, symBinAddr: 0x1FB74, symSize: 0x4 }
  - { offset: 0x32D543, size: 0x8, addend: 0x0, symName: __ZNSt3__120__shared_ptr_emplaceIN8facebook5react23RNSVGConcreteShadowNodeIXadL_ZNS2_24RNSVGFilterComponentNameEEENS2_16RNSVGFilterPropsEEENS_9allocatorIS5_EEEC2B8ne200100IJRKNS2_18ShadowNodeFragmentERKNS_10shared_ptrIKNS2_16ShadowNodeFamilyEEENS2_16ShadowNodeTraitsEES7_Li0EEES7_DpOT_, symObjAddr: 0x33EC, symBinAddr: 0x1FBE8, symSize: 0x60 }
  - { offset: 0x32D867, size: 0x8, addend: 0x0, symName: __ZNSt3__120__shared_ptr_emplaceIN8facebook5react23RNSVGConcreteShadowNodeIXadL_ZNS2_24RNSVGFilterComponentNameEEENS2_16RNSVGFilterPropsEEENS_9allocatorIS5_EEED1Ev, symObjAddr: 0x344C, symBinAddr: 0x1FC48, symSize: 0x14 }
  - { offset: 0x32D88B, size: 0x8, addend: 0x0, symName: __ZNSt3__120__shared_ptr_emplaceIN8facebook5react23RNSVGConcreteShadowNodeIXadL_ZNS2_24RNSVGFilterComponentNameEEENS2_16RNSVGFilterPropsEEENS_9allocatorIS5_EEED1Ev, symObjAddr: 0x344C, symBinAddr: 0x1FC48, symSize: 0x14 }
  - { offset: 0x32D8C1, size: 0x8, addend: 0x0, symName: __ZNSt3__120__shared_ptr_emplaceIN8facebook5react23RNSVGConcreteShadowNodeIXadL_ZNS2_24RNSVGFilterComponentNameEEENS2_16RNSVGFilterPropsEEENS_9allocatorIS5_EEED0Ev, symObjAddr: 0x3460, symBinAddr: 0x1FC5C, symSize: 0x24 }
  - { offset: 0x32D991, size: 0x8, addend: 0x0, symName: __ZNSt3__120__shared_ptr_emplaceIN8facebook5react23RNSVGConcreteShadowNodeIXadL_ZNS2_24RNSVGFilterComponentNameEEENS2_16RNSVGFilterPropsEEENS_9allocatorIS5_EEE16__on_zero_sharedEv, symObjAddr: 0x3484, symBinAddr: 0x1FC80, symSize: 0xC }
  - { offset: 0x32D9BA, size: 0x8, addend: 0x0, symName: __ZNSt3__120__shared_ptr_emplaceIN8facebook5react23RNSVGConcreteShadowNodeIXadL_ZNS2_24RNSVGFilterComponentNameEEENS2_16RNSVGFilterPropsEEENS_9allocatorIS5_EEE16__on_zero_sharedEv, symObjAddr: 0x3484, symBinAddr: 0x1FC80, symSize: 0xC }
  - { offset: 0x32D9D9, size: 0x8, addend: 0x0, symName: __ZNSt3__120__shared_ptr_emplaceIN8facebook5react23RNSVGConcreteShadowNodeIXadL_ZNS2_24RNSVGFilterComponentNameEEENS2_16RNSVGFilterPropsEEENS_9allocatorIS5_EEE16__on_zero_sharedEv, symObjAddr: 0x3484, symBinAddr: 0x1FC80, symSize: 0xC }
  - { offset: 0x32D9F8, size: 0x8, addend: 0x0, symName: __ZNSt3__120__shared_ptr_emplaceIN8facebook5react23RNSVGConcreteShadowNodeIXadL_ZNS2_24RNSVGFilterComponentNameEEENS2_16RNSVGFilterPropsEEENS_9allocatorIS5_EEE16__on_zero_sharedEv, symObjAddr: 0x3484, symBinAddr: 0x1FC80, symSize: 0xC }
  - { offset: 0x32DA24, size: 0x8, addend: 0x0, symName: __ZNSt3__120__shared_ptr_emplaceIN8facebook5react23RNSVGConcreteShadowNodeIXadL_ZNS2_24RNSVGFilterComponentNameEEENS2_16RNSVGFilterPropsEEENS_9allocatorIS5_EEE21__on_zero_shared_weakEv, symObjAddr: 0x3490, symBinAddr: 0x1FC8C, symSize: 0x4 }
  - { offset: 0x32DA57, size: 0x8, addend: 0x0, symName: __ZNSt3__120__shared_ptr_emplaceIN8facebook5react23RNSVGConcreteShadowNodeIXadL_ZNS2_24RNSVGFilterComponentNameEEENS2_16RNSVGFilterPropsEEENS_9allocatorIS5_EEE21__on_zero_shared_weakEv, symObjAddr: 0x3490, symBinAddr: 0x1FC8C, symSize: 0x4 }
  - { offset: 0x32DA7B, size: 0x8, addend: 0x0, symName: __ZNSt3__120__shared_ptr_emplaceIN8facebook5react23RNSVGConcreteShadowNodeIXadL_ZNS2_24RNSVGFilterComponentNameEEENS2_16RNSVGFilterPropsEEENS_9allocatorIS5_EEE21__on_zero_shared_weakEv, symObjAddr: 0x3490, symBinAddr: 0x1FC8C, symSize: 0x4 }
  - { offset: 0x32DAA0, size: 0x8, addend: 0x0, symName: __ZNSt3__120__shared_ptr_emplaceIN8facebook5react23RNSVGConcreteShadowNodeIXadL_ZNS2_24RNSVGFilterComponentNameEEENS2_16RNSVGFilterPropsEEENS_9allocatorIS5_EEE21__on_zero_shared_weakEv, symObjAddr: 0x3490, symBinAddr: 0x1FC8C, symSize: 0x4 }
  - { offset: 0x32DAD8, size: 0x8, addend: 0x0, symName: __ZNSt3__120__shared_ptr_emplaceIN8facebook5react23RNSVGConcreteShadowNodeIXadL_ZNS2_24RNSVGFilterComponentNameEEENS2_16RNSVGFilterPropsEEENS_9allocatorIS5_EEE21__on_zero_shared_weakEv, symObjAddr: 0x3490, symBinAddr: 0x1FC8C, symSize: 0x4 }
  - { offset: 0x32DD58, size: 0x8, addend: 0x0, symName: __ZN8facebook5react23RNSVGConcreteShadowNodeIXadL_ZNS0_24RNSVGFilterComponentNameEEENS0_16RNSVGFilterPropsEED1Ev, symObjAddr: 0x3494, symBinAddr: 0x1FC90, symSize: 0x70 }
  - { offset: 0x32E309, size: 0x8, addend: 0x0, symName: __ZN8facebook5react23RNSVGConcreteShadowNodeIXadL_ZNS0_24RNSVGFilterComponentNameEEENS0_16RNSVGFilterPropsEED0Ev, symObjAddr: 0x3504, symBinAddr: 0x1FD00, symSize: 0x74 }
  - { offset: 0x32E74F, size: 0x8, addend: 0x0, symName: __ZNK8facebook5react23RNSVGConcreteShadowNodeIXadL_ZNS0_24RNSVGFilterComponentNameEEENS0_16RNSVGFilterPropsEE12getTransformEv, symObjAddr: 0x3578, symBinAddr: 0x1FD74, symSize: 0x40 }
  - { offset: 0x32E7C2, size: 0x8, addend: 0x0, symName: __ZNK8facebook5react23RNSVGConcreteShadowNodeIXadL_ZNS0_24RNSVGFilterComponentNameEEENS0_16RNSVGFilterPropsEE16canBeTouchTargetEv, symObjAddr: 0x35B8, symBinAddr: 0x1FDB4, symSize: 0x18 }
  - { offset: 0x32E7FA, size: 0x8, addend: 0x0, symName: __ZNK8facebook5react23RNSVGConcreteShadowNodeIXadL_ZNS0_24RNSVGFilterComponentNameEEENS0_16RNSVGFilterPropsEE16canBeTouchTargetEv, symObjAddr: 0x35B8, symBinAddr: 0x1FDB4, symSize: 0x18 }
  - { offset: 0x32E817, size: 0x8, addend: 0x0, symName: __ZNK8facebook5react23RNSVGConcreteShadowNodeIXadL_ZNS0_24RNSVGFilterComponentNameEEENS0_16RNSVGFilterPropsEE16canBeTouchTargetEv, symObjAddr: 0x35B8, symBinAddr: 0x1FDB4, symSize: 0x18 }
  - { offset: 0x32E835, size: 0x8, addend: 0x0, symName: __ZNK8facebook5react23RNSVGConcreteShadowNodeIXadL_ZNS0_24RNSVGFilterComponentNameEEENS0_16RNSVGFilterPropsEE24canChildrenBeTouchTargetEv, symObjAddr: 0x35D0, symBinAddr: 0x1FDCC, symSize: 0x18 }
  - { offset: 0x32E869, size: 0x8, addend: 0x0, symName: __ZNK8facebook5react23RNSVGConcreteShadowNodeIXadL_ZNS0_24RNSVGFilterComponentNameEEENS0_16RNSVGFilterPropsEE24canChildrenBeTouchTargetEv, symObjAddr: 0x35D0, symBinAddr: 0x1FDCC, symSize: 0x18 }
  - { offset: 0x32E886, size: 0x8, addend: 0x0, symName: __ZNK8facebook5react23RNSVGConcreteShadowNodeIXadL_ZNS0_24RNSVGFilterComponentNameEEENS0_16RNSVGFilterPropsEE24canChildrenBeTouchTargetEv, symObjAddr: 0x35D0, symBinAddr: 0x1FDCC, symSize: 0x18 }
  - { offset: 0x32EC7F, size: 0x8, addend: 0x0, symName: __ZNSt3__120__shared_ptr_emplaceIN8facebook5react23RNSVGConcreteShadowNodeIXadL_ZNS2_24RNSVGFilterComponentNameEEENS2_16RNSVGFilterPropsEEENS_9allocatorIS5_EEEC2B8ne200100IJRKNS2_10ShadowNodeERKNS2_18ShadowNodeFragmentEES7_Li0EEES7_DpOT_, symObjAddr: 0x3924, symBinAddr: 0x1FE44, symSize: 0x5C }
  - { offset: 0x32F17A, size: 0x8, addend: 0x0, symName: __ZNSt3__120__shared_ptr_emplaceIN8facebook5react16RNSVGFilterPropsENS_9allocatorIS3_EEEC2B8ne200100IJRKNS2_18PropsParserContextERKS3_RKNS2_8RawPropsEES5_Li0EEES5_DpOT_, symObjAddr: 0x3B3C, symBinAddr: 0x20004, symSize: 0x4C }
  - { offset: 0x32F368, size: 0x8, addend: 0x0, symName: __ZNSt3__120__shared_ptr_emplaceIN8facebook5react16RNSVGFilterPropsENS_9allocatorIS3_EEED1Ev, symObjAddr: 0x3B88, symBinAddr: 0x20050, symSize: 0x14 }
  - { offset: 0x32F38C, size: 0x8, addend: 0x0, symName: __ZNSt3__120__shared_ptr_emplaceIN8facebook5react16RNSVGFilterPropsENS_9allocatorIS3_EEED1Ev, symObjAddr: 0x3B88, symBinAddr: 0x20050, symSize: 0x14 }
  - { offset: 0x32F3C2, size: 0x8, addend: 0x0, symName: __ZNSt3__120__shared_ptr_emplaceIN8facebook5react16RNSVGFilterPropsENS_9allocatorIS3_EEED0Ev, symObjAddr: 0x3B9C, symBinAddr: 0x20064, symSize: 0x24 }
  - { offset: 0x32F463, size: 0x8, addend: 0x0, symName: __ZNSt3__120__shared_ptr_emplaceIN8facebook5react16RNSVGFilterPropsENS_9allocatorIS3_EEE16__on_zero_sharedEv, symObjAddr: 0x3BC0, symBinAddr: 0x20088, symSize: 0x8 }
  - { offset: 0x32F48C, size: 0x8, addend: 0x0, symName: __ZNSt3__120__shared_ptr_emplaceIN8facebook5react16RNSVGFilterPropsENS_9allocatorIS3_EEE16__on_zero_sharedEv, symObjAddr: 0x3BC0, symBinAddr: 0x20088, symSize: 0x8 }
  - { offset: 0x32F4AB, size: 0x8, addend: 0x0, symName: __ZNSt3__120__shared_ptr_emplaceIN8facebook5react16RNSVGFilterPropsENS_9allocatorIS3_EEE16__on_zero_sharedEv, symObjAddr: 0x3BC0, symBinAddr: 0x20088, symSize: 0x8 }
  - { offset: 0x32F4E9, size: 0x8, addend: 0x0, symName: __ZNSt3__120__shared_ptr_emplaceIN8facebook5react16RNSVGFilterPropsENS_9allocatorIS3_EEE21__on_zero_shared_weakEv, symObjAddr: 0x3BC8, symBinAddr: 0x20090, symSize: 0x4 }
  - { offset: 0x32F51C, size: 0x8, addend: 0x0, symName: __ZNSt3__120__shared_ptr_emplaceIN8facebook5react16RNSVGFilterPropsENS_9allocatorIS3_EEE21__on_zero_shared_weakEv, symObjAddr: 0x3BC8, symBinAddr: 0x20090, symSize: 0x4 }
  - { offset: 0x32F540, size: 0x8, addend: 0x0, symName: __ZNSt3__120__shared_ptr_emplaceIN8facebook5react16RNSVGFilterPropsENS_9allocatorIS3_EEE21__on_zero_shared_weakEv, symObjAddr: 0x3BC8, symBinAddr: 0x20090, symSize: 0x4 }
  - { offset: 0x32F565, size: 0x8, addend: 0x0, symName: __ZNSt3__120__shared_ptr_emplaceIN8facebook5react16RNSVGFilterPropsENS_9allocatorIS3_EEE21__on_zero_shared_weakEv, symObjAddr: 0x3BC8, symBinAddr: 0x20090, symSize: 0x4 }
  - { offset: 0x32F59D, size: 0x8, addend: 0x0, symName: __ZNSt3__120__shared_ptr_emplaceIN8facebook5react16RNSVGFilterPropsENS_9allocatorIS3_EEE21__on_zero_shared_weakEv, symObjAddr: 0x3BC8, symBinAddr: 0x20090, symSize: 0x4 }
  - { offset: 0x330444, size: 0x8, addend: 0x0, symName: __ZNSt3__120__shared_ptr_emplaceIN8facebook5react16ShadowNodeFamilyENS_9allocatorIS3_EEEC2B8ne200100IJRKNS2_24ShadowNodeFamilyFragmentERNS_10shared_ptrIKNS2_20BaseViewEventEmitterEEERKNS_8weak_ptrIKNS2_15EventDispatcherEEERKNS2_27ConcreteComponentDescriptorINS2_23RNSVGConcreteShadowNodeIXadL_ZNS2_24RNSVGFilterComponentNameEEENS2_16RNSVGFilterPropsEEEEEES5_Li0EEES5_DpOT_, symObjAddr: 0x42EC, symBinAddr: 0x2010C, symSize: 0x4C }
  - { offset: 0x3307BF, size: 0x8, addend: 0x0, symName: __GLOBAL__sub_I_RNSVGFilter.mm, symObjAddr: 0x4B40, symBinAddr: 0x20234, symSize: 0x20 }
  - { offset: 0x332C1E, size: 0x8, addend: 0x0, symName: __ZN8facebook5react17HostPlatformColorL14UndefinedColorE, symObjAddr: 0xDE9B0, symBinAddr: 0xB03C8, symSize: 0x0 }
  - { offset: 0x333926, size: 0x8, addend: 0x0, symName: '+[RNSVGFilterManager moduleName]', symObjAddr: 0x0, symBinAddr: 0x20254, symSize: 0xC }
  - { offset: 0x333957, size: 0x8, addend: 0x0, symName: '+[RNSVGFilterManager load]', symObjAddr: 0xC, symBinAddr: 0x20260, symSize: 0x4 }
  - { offset: 0x33398A, size: 0x8, addend: 0x0, symName: '+[RNSVGFilterManager load]', symObjAddr: 0xC, symBinAddr: 0x20260, symSize: 0x4 }
  - { offset: 0x3339A9, size: 0x8, addend: 0x0, symName: '-[RNSVGFilterManager node]', symObjAddr: 0x10, symBinAddr: 0x20264, symSize: 0x1C }
  - { offset: 0x3339DA, size: 0x8, addend: 0x0, symName: '+[RNSVGFilterManager propConfig_x]', symObjAddr: 0x2C, symBinAddr: 0x20280, symSize: 0xC }
  - { offset: 0x333A0B, size: 0x8, addend: 0x0, symName: '+[RNSVGFilterManager propConfig_y]', symObjAddr: 0x38, symBinAddr: 0x2028C, symSize: 0xC }
  - { offset: 0x333A3C, size: 0x8, addend: 0x0, symName: '+[RNSVGFilterManager propConfig_width]', symObjAddr: 0x44, symBinAddr: 0x20298, symSize: 0xC }
  - { offset: 0x333A6D, size: 0x8, addend: 0x0, symName: '-[RNSVGFilterManager set_width:forView:withDefaultView:]', symObjAddr: 0x50, symBinAddr: 0x202A4, symSize: 0x78 }
  - { offset: 0x333AC3, size: 0x8, addend: 0x0, symName: '+[RNSVGFilterManager propConfig_height]', symObjAddr: 0xC8, symBinAddr: 0x2031C, symSize: 0xC }
  - { offset: 0x333AF4, size: 0x8, addend: 0x0, symName: '-[RNSVGFilterManager set_height:forView:withDefaultView:]', symObjAddr: 0xD4, symBinAddr: 0x20328, symSize: 0x78 }
  - { offset: 0x333B4A, size: 0x8, addend: 0x0, symName: '+[RNSVGFilterManager propConfig_filterUnits]', symObjAddr: 0x14C, symBinAddr: 0x203A0, symSize: 0xC }
  - { offset: 0x333B7B, size: 0x8, addend: 0x0, symName: '+[RNSVGFilterManager propConfig_primitiveUnits]', symObjAddr: 0x158, symBinAddr: 0x203AC, symSize: 0xC }
  - { offset: 0x333C33, size: 0x8, addend: 0x0, symName: __GLOBAL__sub_I_RNSVGFilterManager.mm, symObjAddr: 0x18C, symBinAddr: 0x203B8, symSize: 0x20 }
  - { offset: 0x335C87, size: 0x8, addend: 0x0, symName: __ZN8facebook5react17HostPlatformColorL14UndefinedColorE, symObjAddr: 0xF1F80, symBinAddr: 0xB03E0, symSize: 0x0 }
  - { offset: 0x338A96, size: 0x8, addend: 0x0, symName: '-[RNSVGFilterPrimitive prepareForRecycle]', symObjAddr: 0x0, symBinAddr: 0x203D8, symSize: 0x74 }
  - { offset: 0x338AC6, size: 0x8, addend: 0x0, symName: '-[RNSVGFilterPrimitive init]', symObjAddr: 0x74, symBinAddr: 0x2044C, symSize: 0x80 }
  - { offset: 0x338AFB, size: 0x8, addend: 0x0, symName: '-[RNSVGFilterPrimitive hitTest:withEvent:]', symObjAddr: 0xF4, symBinAddr: 0x204CC, symSize: 0x8 }
  - { offset: 0x338B42, size: 0x8, addend: 0x0, symName: '-[RNSVGFilterPrimitive parseReference]', symObjAddr: 0xFC, symBinAddr: 0x204D4, symSize: 0x4 }
  - { offset: 0x338B6F, size: 0x8, addend: 0x0, symName: '-[RNSVGFilterPrimitive invalidate]', symObjAddr: 0x100, symBinAddr: 0x204D8, symSize: 0x48 }
  - { offset: 0x338BA0, size: 0x8, addend: 0x0, symName: '-[RNSVGFilterPrimitive setX:]', symObjAddr: 0x148, symBinAddr: 0x20520, symSize: 0x9C }
  - { offset: 0x338BE0, size: 0x8, addend: 0x0, symName: '-[RNSVGFilterPrimitive setY:]', symObjAddr: 0x1E4, symBinAddr: 0x205BC, symSize: 0x9C }
  - { offset: 0x338C20, size: 0x8, addend: 0x0, symName: '-[RNSVGFilterPrimitive setWidth:]', symObjAddr: 0x280, symBinAddr: 0x20658, symSize: 0x9C }
  - { offset: 0x338C60, size: 0x8, addend: 0x0, symName: '-[RNSVGFilterPrimitive setHeight:]', symObjAddr: 0x31C, symBinAddr: 0x206F4, symSize: 0x9C }
  - { offset: 0x338CA0, size: 0x8, addend: 0x0, symName: '-[RNSVGFilterPrimitive setResult:]', symObjAddr: 0x3B8, symBinAddr: 0x20790, symSize: 0x78 }
  - { offset: 0x338CE0, size: 0x8, addend: 0x0, symName: '-[RNSVGFilterPrimitive applyFilter:previousFilterResult:]', symObjAddr: 0x430, symBinAddr: 0x20808, symSize: 0x8 }
  - { offset: 0x338CF9, size: 0x8, addend: 0x0, symName: '-[RNSVGFilterPrimitive applyFilter:previousFilterResult:ctm:]', symObjAddr: 0x438, symBinAddr: 0x20810, symSize: 0x18 }
  - { offset: 0x338D57, size: 0x8, addend: 0x0, symName: '-[RNSVGFilterPrimitive result]', symObjAddr: 0x450, symBinAddr: 0x20828, symSize: 0x10 }
  - { offset: 0x338D8C, size: 0x8, addend: 0x0, symName: '-[RNSVGFilterPrimitive filterSubregion]', symObjAddr: 0x460, symBinAddr: 0x20838, symSize: 0x10 }
  - { offset: 0x338DC1, size: 0x8, addend: 0x0, symName: '-[RNSVGFilterPrimitive setFilterSubregion:]', symObjAddr: 0x470, symBinAddr: 0x20848, symSize: 0x14 }
  - { offset: 0x338E00, size: 0x8, addend: 0x0, symName: '-[RNSVGFilterPrimitive .cxx_destruct]', symObjAddr: 0x484, symBinAddr: 0x2085C, symSize: 0x40 }
  - { offset: 0x338EB8, size: 0x8, addend: 0x0, symName: __GLOBAL__sub_I_RNSVGFilterPrimitive.mm, symObjAddr: 0x568, symBinAddr: 0x2089C, symSize: 0x20 }
  - { offset: 0x33B1A8, size: 0x8, addend: 0x0, symName: __ZN8facebook5react17HostPlatformColorL14UndefinedColorE, symObjAddr: 0xDE6C8, symBinAddr: 0xB03F8, symSize: 0x0 }
  - { offset: 0x33BE9F, size: 0x8, addend: 0x0, symName: '+[RNSVGFilterPrimitiveManager moduleName]', symObjAddr: 0x0, symBinAddr: 0x208BC, symSize: 0xC }
  - { offset: 0x33BED0, size: 0x8, addend: 0x0, symName: '+[RNSVGFilterPrimitiveManager load]', symObjAddr: 0xC, symBinAddr: 0x208C8, symSize: 0x4 }
  - { offset: 0x33BF03, size: 0x8, addend: 0x0, symName: '+[RNSVGFilterPrimitiveManager load]', symObjAddr: 0xC, symBinAddr: 0x208C8, symSize: 0x4 }
  - { offset: 0x33BF22, size: 0x8, addend: 0x0, symName: '-[RNSVGFilterPrimitiveManager node]', symObjAddr: 0x10, symBinAddr: 0x208CC, symSize: 0x1C }
  - { offset: 0x33BF53, size: 0x8, addend: 0x0, symName: '+[RNSVGFilterPrimitiveManager propConfig_x]', symObjAddr: 0x2C, symBinAddr: 0x208E8, symSize: 0xC }
  - { offset: 0x33BF84, size: 0x8, addend: 0x0, symName: '+[RNSVGFilterPrimitiveManager propConfig_y]', symObjAddr: 0x38, symBinAddr: 0x208F4, symSize: 0xC }
  - { offset: 0x33BFB5, size: 0x8, addend: 0x0, symName: '+[RNSVGFilterPrimitiveManager propConfig_width]', symObjAddr: 0x44, symBinAddr: 0x20900, symSize: 0xC }
  - { offset: 0x33BFE6, size: 0x8, addend: 0x0, symName: '-[RNSVGFilterPrimitiveManager set_width:forView:withDefaultView:]', symObjAddr: 0x50, symBinAddr: 0x2090C, symSize: 0x78 }
  - { offset: 0x33C03C, size: 0x8, addend: 0x0, symName: '+[RNSVGFilterPrimitiveManager propConfig_height]', symObjAddr: 0xC8, symBinAddr: 0x20984, symSize: 0xC }
  - { offset: 0x33C06D, size: 0x8, addend: 0x0, symName: '-[RNSVGFilterPrimitiveManager set_height:forView:withDefaultView:]', symObjAddr: 0xD4, symBinAddr: 0x20990, symSize: 0x78 }
  - { offset: 0x33C0C3, size: 0x8, addend: 0x0, symName: '+[RNSVGFilterPrimitiveManager propConfig_result]', symObjAddr: 0x14C, symBinAddr: 0x20A08, symSize: 0xC }
  - { offset: 0x33C17B, size: 0x8, addend: 0x0, symName: __GLOBAL__sub_I_RNSVGFilterPrimitiveManager.mm, symObjAddr: 0x180, symBinAddr: 0x20A14, symSize: 0x20 }
  - { offset: 0x33E18B, size: 0x8, addend: 0x0, symName: __ZN8facebook5react17HostPlatformColorL14UndefinedColorE, symObjAddr: 0xDEFA8, symBinAddr: 0xB0410, symSize: 0x0 }
  - { offset: 0x33EEED, size: 0x8, addend: 0x0, symName: '-[RNSVGFilterRegion init]', symObjAddr: 0x0, symBinAddr: 0x20A34, symSize: 0x34 }
  - { offset: 0x33EF21, size: 0x8, addend: 0x0, symName: '+[RNSVGFilterRegion regionWithX:y:width:height:]', symObjAddr: 0x34, symBinAddr: 0x20A68, symSize: 0xCC }
  - { offset: 0x33EFA1, size: 0x8, addend: 0x0, symName: '-[RNSVGFilterRegion setX:]', symObjAddr: 0x100, symBinAddr: 0x20B34, symSize: 0xC }
  - { offset: 0x33EFE1, size: 0x8, addend: 0x0, symName: '-[RNSVGFilterRegion setY:]', symObjAddr: 0x10C, symBinAddr: 0x20B40, symSize: 0xC }
  - { offset: 0x33F021, size: 0x8, addend: 0x0, symName: '-[RNSVGFilterRegion setWidth:]', symObjAddr: 0x118, symBinAddr: 0x20B4C, symSize: 0xC }
  - { offset: 0x33F061, size: 0x8, addend: 0x0, symName: '-[RNSVGFilterRegion setHeight:]', symObjAddr: 0x124, symBinAddr: 0x20B58, symSize: 0xC }
  - { offset: 0x33F0A0, size: 0x8, addend: 0x0, symName: '+[RNSVGFilterRegion getRelativeOrDefault:value:relativeOn:defaultValue:]', symObjAddr: 0x130, symBinAddr: 0x20B64, symSize: 0x88 }
  - { offset: 0x33F10C, size: 0x8, addend: 0x0, symName: '-[RNSVGFilterRegion getCropRect:units:bounds:]', symObjAddr: 0x1B8, symBinAddr: 0x20BEC, symSize: 0x24C }
  - { offset: 0x33F1AA, size: 0x8, addend: 0x0, symName: '-[RNSVGFilterRegion x]', symObjAddr: 0x404, symBinAddr: 0x20E38, symSize: 0x8 }
  - { offset: 0x33F1DF, size: 0x8, addend: 0x0, symName: '-[RNSVGFilterRegion y]', symObjAddr: 0x40C, symBinAddr: 0x20E40, symSize: 0x8 }
  - { offset: 0x33F214, size: 0x8, addend: 0x0, symName: '-[RNSVGFilterRegion width]', symObjAddr: 0x414, symBinAddr: 0x20E48, symSize: 0x8 }
  - { offset: 0x33F249, size: 0x8, addend: 0x0, symName: '-[RNSVGFilterRegion height]', symObjAddr: 0x41C, symBinAddr: 0x20E50, symSize: 0x8 }
  - { offset: 0x33F27E, size: 0x8, addend: 0x0, symName: '-[RNSVGFilterRegion .cxx_destruct]', symObjAddr: 0x424, symBinAddr: 0x20E58, symSize: 0x48 }
  - { offset: 0x33F336, size: 0x8, addend: 0x0, symName: __GLOBAL__sub_I_RNSVGFilterRegion.mm, symObjAddr: 0x524, symBinAddr: 0x20EA0, symSize: 0x20 }
  - { offset: 0x341346, size: 0x8, addend: 0x0, symName: __ZN8facebook5react17HostPlatformColorL14UndefinedColorE, symObjAddr: 0x1AA10, symBinAddr: 0xB0428, symSize: 0x0 }
  - { offset: 0x341F9F, size: 0x8, addend: 0x0, symName: _RNSVGFontData_Defaults, symObjAddr: 0x1AA28, symBinAddr: 0xB0AC8, symSize: 0x0 }
  - { offset: 0x342199, size: 0x8, addend: 0x0, symName: __ZL16RNSVGFontWeights, symObjAddr: 0xCD0, symBinAddr: 0x74ED8, symSize: 0x0 }
  - { offset: 0x3421CE, size: 0x8, addend: 0x0, symName: __ZL24RNSVGAbsoluteFontWeights, symObjAddr: 0xD28, symBinAddr: 0x74F30, symSize: 0x0 }
  - { offset: 0x3421EC, size: 0x8, addend: 0x0, symName: '+[RNSVGFontData Defaults]', symObjAddr: 0x0, symBinAddr: 0x20EC0, symSize: 0xAC }
  - { offset: 0x34223A, size: 0x8, addend: 0x0, symName: '+[RNSVGFontData toAbsoluteWithNSString:fontSize:]', symObjAddr: 0xAC, symBinAddr: 0x20F6C, symSize: 0x14 }
  - { offset: 0x342288, size: 0x8, addend: 0x0, symName: '-[RNSVGFontData setInheritedWeight:]', symObjAddr: 0xC0, symBinAddr: 0x20F80, symSize: 0x14 }
  - { offset: 0x3422C6, size: 0x8, addend: 0x0, symName: __Z17nearestFontWeighti, symObjAddr: 0xD4, symBinAddr: 0x20F94, symSize: 0x24 }
  - { offset: 0x342301, size: 0x8, addend: 0x0, symName: '-[RNSVGFontData handleNumericWeight:weight:]', symObjAddr: 0xF8, symBinAddr: 0x20FB8, symSize: 0x9C }
  - { offset: 0x3423A3, size: 0x8, addend: 0x0, symName: __Z18AbsoluteFontWeight15RNSVGFontWeightP13RNSVGFontData, symObjAddr: 0x194, symBinAddr: 0x21054, symSize: 0x98 }
  - { offset: 0x342418, size: 0x8, addend: 0x0, symName: __Z6bolderi, symObjAddr: 0x22C, symBinAddr: 0x210EC, symSize: 0x28 }
  - { offset: 0x342437, size: 0x8, addend: 0x0, symName: __Z7lighteri, symObjAddr: 0x254, symBinAddr: 0x21114, symSize: 0x28 }
  - { offset: 0x342455, size: 0x8, addend: 0x0, symName: '+[RNSVGFontData initWithNSDictionary:parent:]', symObjAddr: 0x27C, symBinAddr: 0x2113C, symSize: 0x620 }
  - { offset: 0x3426FF, size: 0x8, addend: 0x0, symName: '-[RNSVGFontData .cxx_destruct]', symObjAddr: 0x89C, symBinAddr: 0x2175C, symSize: 0x48 }
  - { offset: 0x3427B7, size: 0x8, addend: 0x0, symName: __GLOBAL__sub_I_RNSVGFontData.mm, symObjAddr: 0xA0C, symBinAddr: 0x217A4, symSize: 0x20 }
  - { offset: 0x34486F, size: 0x8, addend: 0x0, symName: __ZN8facebook5react17HostPlatformColorL14UndefinedColorE, symObjAddr: 0x17F988, symBinAddr: 0xB0440, symSize: 0x0 }
  - { offset: 0x347E76, size: 0x8, addend: 0x0, symName: __ZN8facebook5react38concreteComponentDescriptorConstructorINS0_27ConcreteComponentDescriptorINS0_23RNSVGConcreteShadowNodeIXadL_ZNS0_31RNSVGForeignObjectComponentNameEEENS0_23RNSVGForeignObjectPropsEEEEEEENSt3__110unique_ptrIKNS0_19ComponentDescriptorENS7_14default_deleteISA_EEEERKNS0_29ComponentDescriptorParametersE, symObjAddr: 0x2684, symBinAddr: 0x22E5C, symSize: 0x34 }
  - { offset: 0x3648C7, size: 0x8, addend: 0x0, symName: __ZNSt3__115allocate_sharedB8ne200100IKN8facebook5react23RNSVGForeignObjectPropsENS_9allocatorIS3_EEJELi0EEENS_10shared_ptrIT_EERKT0_DpOT1_, symObjAddr: 0x15F4, symBinAddr: 0x22AC8, symSize: 0x48 }
  - { offset: 0x365C24, size: 0x8, addend: 0x0, symName: __ZNSt3__111make_uniqueB8ne200100IKN8facebook5react27ConcreteComponentDescriptorINS2_23RNSVGConcreteShadowNodeIXadL_ZNS2_31RNSVGForeignObjectComponentNameEEENS2_23RNSVGForeignObjectPropsEEEEEJRKNS2_29ComponentDescriptorParametersEELi0EEENS_10unique_ptrIT_NS_14default_deleteISD_EEEEDpOT0_, symObjAddr: 0x26B8, symBinAddr: 0x22E90, symSize: 0xD4 }
  - { offset: 0x36659D, size: 0x8, addend: 0x0, symName: __ZNSt3__115allocate_sharedB8ne200100IN8facebook5react23RNSVGConcreteShadowNodeIXadL_ZNS2_31RNSVGForeignObjectComponentNameEEENS2_23RNSVGForeignObjectPropsEEENS_9allocatorIS5_EEJRKNS2_18ShadowNodeFragmentERKNS_10shared_ptrIKNS2_16ShadowNodeFamilyEEENS2_16ShadowNodeTraitsEELi0EEENSB_IT_EERKT0_DpOT1_, symObjAddr: 0x31E8, symBinAddr: 0x236B8, symSize: 0x70 }
  - { offset: 0x3668CC, size: 0x8, addend: 0x0, symName: __ZNSt3__115allocate_sharedB8ne200100IN8facebook5react23RNSVGConcreteShadowNodeIXadL_ZNS2_31RNSVGForeignObjectComponentNameEEENS2_23RNSVGForeignObjectPropsEEENS_9allocatorIS5_EEJRKNS2_10ShadowNodeERKNS2_18ShadowNodeFragmentEELi0EEENS_10shared_ptrIT_EERKT0_DpOT1_, symObjAddr: 0x3730, symBinAddr: 0x23924, symSize: 0x60 }
  - { offset: 0x367017, size: 0x8, addend: 0x0, symName: __ZNSt3__115allocate_sharedB8ne200100IN8facebook5react16ShadowNodeFamilyENS_9allocatorIS3_EEJRKNS2_24ShadowNodeFamilyFragmentERNS_10shared_ptrIKNS2_20BaseViewEventEmitterEEERKNS_8weak_ptrIKNS2_15EventDispatcherEEERKNS2_27ConcreteComponentDescriptorINS2_23RNSVGConcreteShadowNodeIXadL_ZNS2_31RNSVGForeignObjectComponentNameEEENS2_23RNSVGForeignObjectPropsEEEEEELi0EEENS9_IT_EERKT0_DpOT1_, symObjAddr: 0x40E8, symBinAddr: 0x23BDC, symSize: 0x78 }
  - { offset: 0x367DAA, size: 0x8, addend: 0x0, symName: __ZNSt3__115allocate_sharedB8ne200100IN8facebook5react23RNSVGForeignObjectPropsENS_9allocatorIS3_EEJRKNS2_18PropsParserContextERKS3_RKNS2_8RawPropsEELi0EEENS_10shared_ptrIT_EERKT0_DpOT1_, symObjAddr: 0x3938, symBinAddr: 0x23AD4, symSize: 0x70 }
  - { offset: 0x368FB7, size: 0x8, addend: 0x0, symName: __ZNSt3__112construct_atB8ne200100IN8facebook5react16ShadowNodeFamilyEJRKNS2_24ShadowNodeFamilyFragmentERNS_10shared_ptrIKNS2_20BaseViewEventEmitterEEERKNS_8weak_ptrIKNS2_15EventDispatcherEEERKNS2_27ConcreteComponentDescriptorINS2_23RNSVGConcreteShadowNodeIXadL_ZNS2_31RNSVGForeignObjectComponentNameEEENS2_23RNSVGForeignObjectPropsEEEEEEPS3_EEPT_SR_DpOT0_, symObjAddr: 0x41F0, symBinAddr: 0x23CA0, symSize: 0xDC }
  - { offset: 0x36A39F, size: 0x8, addend: 0x0, symName: '-[RNSVGForeignObject initWithFrame:]', symObjAddr: 0x34, symBinAddr: 0x217F8, symSize: 0xDC }
  - { offset: 0x36A3C8, size: 0x8, addend: 0x0, symName: '__ZZ36-[RNSVGForeignObject initWithFrame:]E12defaultProps', symObjAddr: 0x17F9A0, symBinAddr: 0xB0458, symSize: 0x0 }
  - { offset: 0x36DE26, size: 0x8, addend: 0x0, symName: __ZN8facebook5react18ConcreteShadowNodeIXadL_ZNS0_31RNSVGForeignObjectComponentNameEEENS0_25RNSVGLayoutableShadowNodeENS0_23RNSVGForeignObjectPropsENS0_20BaseViewEventEmitterENS0_9StateDataEE18defaultSharedPropsEv, symObjAddr: 0x3844, symBinAddr: 0x239E0, symSize: 0x9C }
  - { offset: 0x36DE45, size: 0x8, addend: 0x0, symName: __ZZN8facebook5react18ConcreteShadowNodeIXadL_ZNS0_31RNSVGForeignObjectComponentNameEEENS0_25RNSVGLayoutableShadowNodeENS0_23RNSVGForeignObjectPropsENS0_20BaseViewEventEmitterENS0_9StateDataEE18defaultSharedPropsEvE18defaultSharedProps, symObjAddr: 0x6F20, symBinAddr: 0xAFA20, symSize: 0x0 }
  - { offset: 0x36DE83, size: 0x8, addend: 0x0, symName: __ZL20MinimalLayoutMetrics, symObjAddr: 0x6E88, symBinAddr: 0x752E8, symSize: 0x0 }
  - { offset: 0x36E10F, size: 0x8, addend: 0x0, symName: '+[RNSVGForeignObject load]', symObjAddr: 0x0, symBinAddr: 0x217C4, symSize: 0x34 }
  - { offset: 0x36E24E, size: 0x8, addend: 0x0, symName: __ZNSt3__110shared_ptrIKN8facebook5react23RNSVGForeignObjectPropsEED1B8ne200100Ev, symObjAddr: 0x110, symBinAddr: 0x218D4, symSize: 0x4 }
  - { offset: 0x36E272, size: 0x8, addend: 0x0, symName: __ZNSt3__110shared_ptrIKN8facebook5react23RNSVGForeignObjectPropsEED1B8ne200100Ev, symObjAddr: 0x110, symBinAddr: 0x218D4, symSize: 0x4 }
  - { offset: 0x36E47A, size: 0x8, addend: 0x0, symName: '+[RNSVGForeignObject componentDescriptorProvider]', symObjAddr: 0x18C, symBinAddr: 0x218D8, symSize: 0x20 }
  - { offset: 0x36E4AE, size: 0x8, addend: 0x0, symName: '+[RNSVGForeignObject componentDescriptorProvider]', symObjAddr: 0x18C, symBinAddr: 0x218D8, symSize: 0x20 }
  - { offset: 0x36E5EF, size: 0x8, addend: 0x0, symName: '-[RNSVGForeignObject updateProps:oldProps:]', symObjAddr: 0x1AC, symBinAddr: 0x218F8, symSize: 0x20C }
  - { offset: 0x36E8CE, size: 0x8, addend: 0x0, symName: __ZL28RNSVGConvertFollyDynamicToIdRKN5folly7dynamicE, symObjAddr: 0x3B8, symBinAddr: 0x21B04, symSize: 0x274 }
  - { offset: 0x36ED85, size: 0x8, addend: 0x0, symName: __Z19setCommonGroupPropsIN8facebook5react23RNSVGForeignObjectPropsEEvRKT_P10RNSVGGroup, symObjAddr: 0x62C, symBinAddr: 0x21D78, symSize: 0x1F0 }
  - { offset: 0x36F285, size: 0x8, addend: 0x0, symName: __Z24setCommonRenderablePropsIN8facebook5react23RNSVGForeignObjectPropsEEvRKT_P15RNSVGRenderable, symObjAddr: 0x43D4, symBinAddr: 0x23D7C, symSize: 0x484 }
  - { offset: 0x36F973, size: 0x8, addend: 0x0, symName: '-[RNSVGForeignObject prepareForRecycle]', symObjAddr: 0x880, symBinAddr: 0x21F68, symSize: 0x90 }
  - { offset: 0x36F9A4, size: 0x8, addend: 0x0, symName: '-[RNSVGForeignObject hitTest:withEvent:]', symObjAddr: 0x910, symBinAddr: 0x21FF8, symSize: 0x8 }
  - { offset: 0x36F9EB, size: 0x8, addend: 0x0, symName: '-[RNSVGForeignObject parseReference]', symObjAddr: 0x918, symBinAddr: 0x22000, symSize: 0x8 }
  - { offset: 0x36FA1B, size: 0x8, addend: 0x0, symName: '-[RNSVGForeignObject renderLayerTo:rect:]', symObjAddr: 0x920, symBinAddr: 0x22008, symSize: 0x164 }
  - { offset: 0x36FB1C, size: 0x8, addend: 0x0, symName: '-[RNSVGForeignObject renderGroupTo:rect:]', symObjAddr: 0xA84, symBinAddr: 0x2216C, symSize: 0x334 }
  - { offset: 0x36FD18, size: 0x8, addend: 0x0, symName: ___Block_byref_object_copy_, symObjAddr: 0xDB8, symBinAddr: 0x224A0, symSize: 0xC }
  - { offset: 0x36FD3D, size: 0x8, addend: 0x0, symName: ___Block_byref_object_dispose_, symObjAddr: 0xDC4, symBinAddr: 0x224AC, symSize: 0x4 }
  - { offset: 0x36FD57, size: 0x8, addend: 0x0, symName: '___41-[RNSVGForeignObject renderGroupTo:rect:]_block_invoke', symObjAddr: 0xDC8, symBinAddr: 0x224B0, symSize: 0x320 }
  - { offset: 0x36FE76, size: 0x8, addend: 0x0, symName: ___copy_helper_block_ea8_32s40r, symObjAddr: 0x10E8, symBinAddr: 0x227D0, symSize: 0x34 }
  - { offset: 0x36FE9F, size: 0x8, addend: 0x0, symName: ___destroy_helper_block_ea8_32s40r, symObjAddr: 0x111C, symBinAddr: 0x22804, symSize: 0x2C }
  - { offset: 0x36FEBE, size: 0x8, addend: 0x0, symName: '-[RNSVGForeignObject drawRect:]', symObjAddr: 0x1148, symBinAddr: 0x22830, symSize: 0x4 }
  - { offset: 0x36FEF9, size: 0x8, addend: 0x0, symName: '-[RNSVGForeignObject setX:]', symObjAddr: 0x114C, symBinAddr: 0x22834, symSize: 0x78 }
  - { offset: 0x36FF39, size: 0x8, addend: 0x0, symName: '-[RNSVGForeignObject setY:]', symObjAddr: 0x11C4, symBinAddr: 0x228AC, symSize: 0x78 }
  - { offset: 0x36FF79, size: 0x8, addend: 0x0, symName: '-[RNSVGForeignObject setForeignObjectwidth:]', symObjAddr: 0x123C, symBinAddr: 0x22924, symSize: 0x78 }
  - { offset: 0x36FFB9, size: 0x8, addend: 0x0, symName: '-[RNSVGForeignObject setForeignObjectheight:]', symObjAddr: 0x12B4, symBinAddr: 0x2299C, symSize: 0x78 }
  - { offset: 0x36FFF9, size: 0x8, addend: 0x0, symName: '-[RNSVGForeignObject x]', symObjAddr: 0x132C, symBinAddr: 0x22A14, symSize: 0x10 }
  - { offset: 0x37002F, size: 0x8, addend: 0x0, symName: '-[RNSVGForeignObject y]', symObjAddr: 0x133C, symBinAddr: 0x22A24, symSize: 0x10 }
  - { offset: 0x370065, size: 0x8, addend: 0x0, symName: '-[RNSVGForeignObject foreignObjectwidth]', symObjAddr: 0x134C, symBinAddr: 0x22A34, symSize: 0x10 }
  - { offset: 0x37009B, size: 0x8, addend: 0x0, symName: '-[RNSVGForeignObject foreignObjectheight]', symObjAddr: 0x135C, symBinAddr: 0x22A44, symSize: 0x10 }
  - { offset: 0x3700D1, size: 0x8, addend: 0x0, symName: '-[RNSVGForeignObject .cxx_destruct]', symObjAddr: 0x136C, symBinAddr: 0x22A54, symSize: 0x68 }
  - { offset: 0x370102, size: 0x8, addend: 0x0, symName: __Z21RNSVGForeignObjectClsv, symObjAddr: 0x13D4, symBinAddr: 0x22ABC, symSize: 0xC }
  - { offset: 0x370839, size: 0x8, addend: 0x0, symName: __ZNSt3__120__shared_ptr_emplaceIKN8facebook5react23RNSVGForeignObjectPropsENS_9allocatorIS3_EEEC2B8ne200100IJES6_Li0EEES6_DpOT_, symObjAddr: 0x163C, symBinAddr: 0x22B10, symSize: 0x58 }
  - { offset: 0x3709B8, size: 0x8, addend: 0x0, symName: __ZN8facebook5react23RNSVGForeignObjectPropsC1Ev, symObjAddr: 0x16E0, symBinAddr: 0x22BB4, symSize: 0x13C }
  - { offset: 0x37144B, size: 0x8, addend: 0x0, symName: __ZNSt3__120__shared_ptr_emplaceIKN8facebook5react23RNSVGForeignObjectPropsENS_9allocatorIS3_EEED1Ev, symObjAddr: 0x1694, symBinAddr: 0x22B68, symSize: 0x14 }
  - { offset: 0x37146F, size: 0x8, addend: 0x0, symName: __ZNSt3__120__shared_ptr_emplaceIKN8facebook5react23RNSVGForeignObjectPropsENS_9allocatorIS3_EEED1Ev, symObjAddr: 0x1694, symBinAddr: 0x22B68, symSize: 0x14 }
  - { offset: 0x3714A5, size: 0x8, addend: 0x0, symName: __ZNSt3__120__shared_ptr_emplaceIKN8facebook5react23RNSVGForeignObjectPropsENS_9allocatorIS3_EEED0Ev, symObjAddr: 0x16A8, symBinAddr: 0x22B7C, symSize: 0x24 }
  - { offset: 0x371591, size: 0x8, addend: 0x0, symName: __ZNSt3__120__shared_ptr_emplaceIKN8facebook5react23RNSVGForeignObjectPropsENS_9allocatorIS3_EEE16__on_zero_sharedEv, symObjAddr: 0x16CC, symBinAddr: 0x22BA0, symSize: 0x10 }
  - { offset: 0x3715BA, size: 0x8, addend: 0x0, symName: __ZNSt3__120__shared_ptr_emplaceIKN8facebook5react23RNSVGForeignObjectPropsENS_9allocatorIS3_EEE16__on_zero_sharedEv, symObjAddr: 0x16CC, symBinAddr: 0x22BA0, symSize: 0x10 }
  - { offset: 0x37162E, size: 0x8, addend: 0x0, symName: __ZN8facebook5react23RNSVGForeignObjectPropsD2Ev, symObjAddr: 0x24E8, symBinAddr: 0x22D18, symSize: 0x144 }
  - { offset: 0x3724F3, size: 0x8, addend: 0x0, symName: __ZNSt3__120__shared_ptr_emplaceIKN8facebook5react23RNSVGForeignObjectPropsENS_9allocatorIS3_EEE21__on_zero_shared_weakEv, symObjAddr: 0x16DC, symBinAddr: 0x22BB0, symSize: 0x4 }
  - { offset: 0x372526, size: 0x8, addend: 0x0, symName: __ZNSt3__120__shared_ptr_emplaceIKN8facebook5react23RNSVGForeignObjectPropsENS_9allocatorIS3_EEE21__on_zero_shared_weakEv, symObjAddr: 0x16DC, symBinAddr: 0x22BB0, symSize: 0x4 }
  - { offset: 0x37254A, size: 0x8, addend: 0x0, symName: __ZNSt3__120__shared_ptr_emplaceIKN8facebook5react23RNSVGForeignObjectPropsENS_9allocatorIS3_EEE21__on_zero_shared_weakEv, symObjAddr: 0x16DC, symBinAddr: 0x22BB0, symSize: 0x4 }
  - { offset: 0x37256F, size: 0x8, addend: 0x0, symName: __ZNSt3__120__shared_ptr_emplaceIKN8facebook5react23RNSVGForeignObjectPropsENS_9allocatorIS3_EEE21__on_zero_shared_weakEv, symObjAddr: 0x16DC, symBinAddr: 0x22BB0, symSize: 0x4 }
  - { offset: 0x3725A7, size: 0x8, addend: 0x0, symName: __ZNSt3__120__shared_ptr_emplaceIKN8facebook5react23RNSVGForeignObjectPropsENS_9allocatorIS3_EEE21__on_zero_shared_weakEv, symObjAddr: 0x16DC, symBinAddr: 0x22BB0, symSize: 0x4 }
  - { offset: 0x376892, size: 0x8, addend: 0x0, symName: __ZN8facebook5react23RNSVGForeignObjectPropsD1Ev, symObjAddr: 0x1D38, symBinAddr: 0x22CF0, symSize: 0xC }
  - { offset: 0x3768C9, size: 0x8, addend: 0x0, symName: __ZN8facebook5react23RNSVGForeignObjectPropsD0Ev, symObjAddr: 0x1D44, symBinAddr: 0x22CFC, symSize: 0x1C }
  - { offset: 0x3784AF, size: 0x8, addend: 0x0, symName: __ZN8facebook5react14RawPropsParser7prepareINS0_23RNSVGForeignObjectPropsEEEvv, symObjAddr: 0x27DC, symBinAddr: 0x22F64, symSize: 0x1DC }
  - { offset: 0x37947B, size: 0x8, addend: 0x0, symName: __ZN8facebook5react27ConcreteComponentDescriptorINS0_23RNSVGConcreteShadowNodeIXadL_ZNS0_31RNSVGForeignObjectComponentNameEEENS0_23RNSVGForeignObjectPropsEEEED1Ev, symObjAddr: 0x29B8, symBinAddr: 0x23140, symSize: 0x4 }
  - { offset: 0x37949F, size: 0x8, addend: 0x0, symName: __ZN8facebook5react27ConcreteComponentDescriptorINS0_23RNSVGConcreteShadowNodeIXadL_ZNS0_31RNSVGForeignObjectComponentNameEEENS0_23RNSVGForeignObjectPropsEEEED1Ev, symObjAddr: 0x29B8, symBinAddr: 0x23140, symSize: 0x4 }
  - { offset: 0x3794BE, size: 0x8, addend: 0x0, symName: __ZN8facebook5react27ConcreteComponentDescriptorINS0_23RNSVGConcreteShadowNodeIXadL_ZNS0_31RNSVGForeignObjectComponentNameEEENS0_23RNSVGForeignObjectPropsEEEED1Ev, symObjAddr: 0x29B8, symBinAddr: 0x23140, symSize: 0x4 }
  - { offset: 0x379796, size: 0x8, addend: 0x0, symName: __ZN8facebook5react27ConcreteComponentDescriptorINS0_23RNSVGConcreteShadowNodeIXadL_ZNS0_31RNSVGForeignObjectComponentNameEEENS0_23RNSVGForeignObjectPropsEEEED0Ev, symObjAddr: 0x29BC, symBinAddr: 0x23144, symSize: 0x14 }
  - { offset: 0x379815, size: 0x8, addend: 0x0, symName: __ZNK8facebook5react27ConcreteComponentDescriptorINS0_23RNSVGConcreteShadowNodeIXadL_ZNS0_31RNSVGForeignObjectComponentNameEEENS0_23RNSVGForeignObjectPropsEEEE18getComponentHandleEv, symObjAddr: 0x29D0, symBinAddr: 0x23158, symSize: 0xC }
  - { offset: 0x37983B, size: 0x8, addend: 0x0, symName: __ZNK8facebook5react27ConcreteComponentDescriptorINS0_23RNSVGConcreteShadowNodeIXadL_ZNS0_31RNSVGForeignObjectComponentNameEEENS0_23RNSVGForeignObjectPropsEEEE16getComponentNameEv, symObjAddr: 0x29DC, symBinAddr: 0x23164, symSize: 0xC }
  - { offset: 0x379861, size: 0x8, addend: 0x0, symName: __ZNK8facebook5react27ConcreteComponentDescriptorINS0_23RNSVGConcreteShadowNodeIXadL_ZNS0_31RNSVGForeignObjectComponentNameEEENS0_23RNSVGForeignObjectPropsEEEE9getTraitsEv, symObjAddr: 0x29E8, symBinAddr: 0x23170, symSize: 0x8 }
  - { offset: 0x37995B, size: 0x8, addend: 0x0, symName: __ZNK8facebook5react27ConcreteComponentDescriptorINS0_23RNSVGConcreteShadowNodeIXadL_ZNS0_31RNSVGForeignObjectComponentNameEEENS0_23RNSVGForeignObjectPropsEEEE16createShadowNodeERKNS0_18ShadowNodeFragmentERKNSt3__110shared_ptrIKNS0_16ShadowNodeFamilyEEE, symObjAddr: 0x29F0, symBinAddr: 0x23178, symSize: 0x90 }
  - { offset: 0x379BF0, size: 0x8, addend: 0x0, symName: __ZNK8facebook5react27ConcreteComponentDescriptorINS0_23RNSVGConcreteShadowNodeIXadL_ZNS0_31RNSVGForeignObjectComponentNameEEENS0_23RNSVGForeignObjectPropsEEEE15cloneShadowNodeERKNS0_10ShadowNodeERKNS0_18ShadowNodeFragmentE, symObjAddr: 0x2A80, symBinAddr: 0x23208, symSize: 0x104 }
  - { offset: 0x379F8A, size: 0x8, addend: 0x0, symName: __ZNK8facebook5react27ConcreteComponentDescriptorINS0_23RNSVGConcreteShadowNodeIXadL_ZNS0_31RNSVGForeignObjectComponentNameEEENS0_23RNSVGForeignObjectPropsEEEE11appendChildERKNSt3__110shared_ptrIKNS0_10ShadowNodeEEESC_, symObjAddr: 0x2B84, symBinAddr: 0x2330C, symSize: 0x14 }
  - { offset: 0x379FE6, size: 0x8, addend: 0x0, symName: __ZNK8facebook5react27ConcreteComponentDescriptorINS0_23RNSVGConcreteShadowNodeIXadL_ZNS0_31RNSVGForeignObjectComponentNameEEENS0_23RNSVGForeignObjectPropsEEEE11appendChildERKNSt3__110shared_ptrIKNS0_10ShadowNodeEEESC_, symObjAddr: 0x2B84, symBinAddr: 0x2330C, symSize: 0x14 }
  - { offset: 0x37A744, size: 0x8, addend: 0x0, symName: __ZNK8facebook5react27ConcreteComponentDescriptorINS0_23RNSVGConcreteShadowNodeIXadL_ZNS0_31RNSVGForeignObjectComponentNameEEENS0_23RNSVGForeignObjectPropsEEEE10clonePropsERKNS0_18PropsParserContextERKNSt3__110shared_ptrIKNS0_5PropsEEENS0_8RawPropsE, symObjAddr: 0x2B98, symBinAddr: 0x23320, symSize: 0x21C }
  - { offset: 0x37B2FB, size: 0x8, addend: 0x0, symName: __ZN8facebook5react18ConcreteShadowNodeIXadL_ZNS0_31RNSVGForeignObjectComponentNameEEENS0_25RNSVGLayoutableShadowNodeENS0_23RNSVGForeignObjectPropsENS0_20BaseViewEventEmitterENS0_9StateDataEE5PropsERKNS0_18PropsParserContextERKNS0_8RawPropsERKNSt3__110shared_ptrIKNS0_5PropsEEE, symObjAddr: 0x38E0, symBinAddr: 0x23A7C, symSize: 0x58 }
  - { offset: 0x37B565, size: 0x8, addend: 0x0, symName: __ZNK8facebook5react27ConcreteComponentDescriptorINS0_23RNSVGConcreteShadowNodeIXadL_ZNS0_31RNSVGForeignObjectComponentNameEEENS0_23RNSVGForeignObjectPropsEEEE18createInitialStateERKNSt3__110shared_ptrIKNS0_5PropsEEERKNS7_IKNS0_16ShadowNodeFamilyEEE, symObjAddr: 0x2DB4, symBinAddr: 0x2353C, symSize: 0x8 }
  - { offset: 0x37B5AB, size: 0x8, addend: 0x0, symName: __ZNK8facebook5react27ConcreteComponentDescriptorINS0_23RNSVGConcreteShadowNodeIXadL_ZNS0_31RNSVGForeignObjectComponentNameEEENS0_23RNSVGForeignObjectPropsEEEE18createInitialStateERKNSt3__110shared_ptrIKNS0_5PropsEEERKNS7_IKNS0_16ShadowNodeFamilyEEE, symObjAddr: 0x2DB4, symBinAddr: 0x2353C, symSize: 0x8 }
  - { offset: 0x37B5D0, size: 0x8, addend: 0x0, symName: __ZNK8facebook5react27ConcreteComponentDescriptorINS0_23RNSVGConcreteShadowNodeIXadL_ZNS0_31RNSVGForeignObjectComponentNameEEENS0_23RNSVGForeignObjectPropsEEEE18createInitialStateERKNSt3__110shared_ptrIKNS0_5PropsEEERKNS7_IKNS0_16ShadowNodeFamilyEEE, symObjAddr: 0x2DB4, symBinAddr: 0x2353C, symSize: 0x8 }
  - { offset: 0x37B5F4, size: 0x8, addend: 0x0, symName: __ZNK8facebook5react27ConcreteComponentDescriptorINS0_23RNSVGConcreteShadowNodeIXadL_ZNS0_31RNSVGForeignObjectComponentNameEEENS0_23RNSVGForeignObjectPropsEEEE11createStateERKNS0_16ShadowNodeFamilyERKNSt3__110shared_ptrIKvEE, symObjAddr: 0x2DBC, symBinAddr: 0x23544, symSize: 0x8 }
  - { offset: 0x37B63A, size: 0x8, addend: 0x0, symName: __ZNK8facebook5react27ConcreteComponentDescriptorINS0_23RNSVGConcreteShadowNodeIXadL_ZNS0_31RNSVGForeignObjectComponentNameEEENS0_23RNSVGForeignObjectPropsEEEE11createStateERKNS0_16ShadowNodeFamilyERKNSt3__110shared_ptrIKvEE, symObjAddr: 0x2DBC, symBinAddr: 0x23544, symSize: 0x8 }
  - { offset: 0x37B65F, size: 0x8, addend: 0x0, symName: __ZNK8facebook5react27ConcreteComponentDescriptorINS0_23RNSVGConcreteShadowNodeIXadL_ZNS0_31RNSVGForeignObjectComponentNameEEENS0_23RNSVGForeignObjectPropsEEEE11createStateERKNS0_16ShadowNodeFamilyERKNSt3__110shared_ptrIKvEE, symObjAddr: 0x2DBC, symBinAddr: 0x23544, symSize: 0x8 }
  - { offset: 0x37B86B, size: 0x8, addend: 0x0, symName: __ZNK8facebook5react27ConcreteComponentDescriptorINS0_23RNSVGConcreteShadowNodeIXadL_ZNS0_31RNSVGForeignObjectComponentNameEEENS0_23RNSVGForeignObjectPropsEEEE12createFamilyERKNS0_24ShadowNodeFamilyFragmentE, symObjAddr: 0x2DC4, symBinAddr: 0x2354C, symSize: 0x168 }
  - { offset: 0x37BE0C, size: 0x8, addend: 0x0, symName: __ZNK8facebook5react27ConcreteComponentDescriptorINS0_23RNSVGConcreteShadowNodeIXadL_ZNS0_31RNSVGForeignObjectComponentNameEEENS0_23RNSVGForeignObjectPropsEEEE5adoptERNS0_10ShadowNodeE, symObjAddr: 0x2F2C, symBinAddr: 0x236B4, symSize: 0x4 }
  - { offset: 0x37C666, size: 0x8, addend: 0x0, symName: __ZNSt3__120__shared_ptr_emplaceIN8facebook5react23RNSVGConcreteShadowNodeIXadL_ZNS2_31RNSVGForeignObjectComponentNameEEENS2_23RNSVGForeignObjectPropsEEENS_9allocatorIS5_EEEC2B8ne200100IJRKNS2_18ShadowNodeFragmentERKNS_10shared_ptrIKNS2_16ShadowNodeFamilyEEENS2_16ShadowNodeTraitsEES7_Li0EEES7_DpOT_, symObjAddr: 0x3258, symBinAddr: 0x23728, symSize: 0x60 }
  - { offset: 0x37C98E, size: 0x8, addend: 0x0, symName: __ZNSt3__120__shared_ptr_emplaceIN8facebook5react23RNSVGConcreteShadowNodeIXadL_ZNS2_31RNSVGForeignObjectComponentNameEEENS2_23RNSVGForeignObjectPropsEEENS_9allocatorIS5_EEED1Ev, symObjAddr: 0x32B8, symBinAddr: 0x23788, symSize: 0x14 }
  - { offset: 0x37C9B2, size: 0x8, addend: 0x0, symName: __ZNSt3__120__shared_ptr_emplaceIN8facebook5react23RNSVGConcreteShadowNodeIXadL_ZNS2_31RNSVGForeignObjectComponentNameEEENS2_23RNSVGForeignObjectPropsEEENS_9allocatorIS5_EEED1Ev, symObjAddr: 0x32B8, symBinAddr: 0x23788, symSize: 0x14 }
  - { offset: 0x37C9E8, size: 0x8, addend: 0x0, symName: __ZNSt3__120__shared_ptr_emplaceIN8facebook5react23RNSVGConcreteShadowNodeIXadL_ZNS2_31RNSVGForeignObjectComponentNameEEENS2_23RNSVGForeignObjectPropsEEENS_9allocatorIS5_EEED0Ev, symObjAddr: 0x32CC, symBinAddr: 0x2379C, symSize: 0x24 }
  - { offset: 0x37CAB8, size: 0x8, addend: 0x0, symName: __ZNSt3__120__shared_ptr_emplaceIN8facebook5react23RNSVGConcreteShadowNodeIXadL_ZNS2_31RNSVGForeignObjectComponentNameEEENS2_23RNSVGForeignObjectPropsEEENS_9allocatorIS5_EEE16__on_zero_sharedEv, symObjAddr: 0x32F0, symBinAddr: 0x237C0, symSize: 0xC }
  - { offset: 0x37CAE1, size: 0x8, addend: 0x0, symName: __ZNSt3__120__shared_ptr_emplaceIN8facebook5react23RNSVGConcreteShadowNodeIXadL_ZNS2_31RNSVGForeignObjectComponentNameEEENS2_23RNSVGForeignObjectPropsEEENS_9allocatorIS5_EEE16__on_zero_sharedEv, symObjAddr: 0x32F0, symBinAddr: 0x237C0, symSize: 0xC }
  - { offset: 0x37CB00, size: 0x8, addend: 0x0, symName: __ZNSt3__120__shared_ptr_emplaceIN8facebook5react23RNSVGConcreteShadowNodeIXadL_ZNS2_31RNSVGForeignObjectComponentNameEEENS2_23RNSVGForeignObjectPropsEEENS_9allocatorIS5_EEE16__on_zero_sharedEv, symObjAddr: 0x32F0, symBinAddr: 0x237C0, symSize: 0xC }
  - { offset: 0x37CB1F, size: 0x8, addend: 0x0, symName: __ZNSt3__120__shared_ptr_emplaceIN8facebook5react23RNSVGConcreteShadowNodeIXadL_ZNS2_31RNSVGForeignObjectComponentNameEEENS2_23RNSVGForeignObjectPropsEEENS_9allocatorIS5_EEE16__on_zero_sharedEv, symObjAddr: 0x32F0, symBinAddr: 0x237C0, symSize: 0xC }
  - { offset: 0x37CB4B, size: 0x8, addend: 0x0, symName: __ZNSt3__120__shared_ptr_emplaceIN8facebook5react23RNSVGConcreteShadowNodeIXadL_ZNS2_31RNSVGForeignObjectComponentNameEEENS2_23RNSVGForeignObjectPropsEEENS_9allocatorIS5_EEE21__on_zero_shared_weakEv, symObjAddr: 0x32FC, symBinAddr: 0x237CC, symSize: 0x4 }
  - { offset: 0x37CB7E, size: 0x8, addend: 0x0, symName: __ZNSt3__120__shared_ptr_emplaceIN8facebook5react23RNSVGConcreteShadowNodeIXadL_ZNS2_31RNSVGForeignObjectComponentNameEEENS2_23RNSVGForeignObjectPropsEEENS_9allocatorIS5_EEE21__on_zero_shared_weakEv, symObjAddr: 0x32FC, symBinAddr: 0x237CC, symSize: 0x4 }
  - { offset: 0x37CBA2, size: 0x8, addend: 0x0, symName: __ZNSt3__120__shared_ptr_emplaceIN8facebook5react23RNSVGConcreteShadowNodeIXadL_ZNS2_31RNSVGForeignObjectComponentNameEEENS2_23RNSVGForeignObjectPropsEEENS_9allocatorIS5_EEE21__on_zero_shared_weakEv, symObjAddr: 0x32FC, symBinAddr: 0x237CC, symSize: 0x4 }
  - { offset: 0x37CBC7, size: 0x8, addend: 0x0, symName: __ZNSt3__120__shared_ptr_emplaceIN8facebook5react23RNSVGConcreteShadowNodeIXadL_ZNS2_31RNSVGForeignObjectComponentNameEEENS2_23RNSVGForeignObjectPropsEEENS_9allocatorIS5_EEE21__on_zero_shared_weakEv, symObjAddr: 0x32FC, symBinAddr: 0x237CC, symSize: 0x4 }
  - { offset: 0x37CBFF, size: 0x8, addend: 0x0, symName: __ZNSt3__120__shared_ptr_emplaceIN8facebook5react23RNSVGConcreteShadowNodeIXadL_ZNS2_31RNSVGForeignObjectComponentNameEEENS2_23RNSVGForeignObjectPropsEEENS_9allocatorIS5_EEE21__on_zero_shared_weakEv, symObjAddr: 0x32FC, symBinAddr: 0x237CC, symSize: 0x4 }
  - { offset: 0x37CE80, size: 0x8, addend: 0x0, symName: __ZN8facebook5react23RNSVGConcreteShadowNodeIXadL_ZNS0_31RNSVGForeignObjectComponentNameEEENS0_23RNSVGForeignObjectPropsEED1Ev, symObjAddr: 0x3300, symBinAddr: 0x237D0, symSize: 0x70 }
  - { offset: 0x37D434, size: 0x8, addend: 0x0, symName: __ZN8facebook5react23RNSVGConcreteShadowNodeIXadL_ZNS0_31RNSVGForeignObjectComponentNameEEENS0_23RNSVGForeignObjectPropsEED0Ev, symObjAddr: 0x3370, symBinAddr: 0x23840, symSize: 0x74 }
  - { offset: 0x37D87E, size: 0x8, addend: 0x0, symName: __ZNK8facebook5react23RNSVGConcreteShadowNodeIXadL_ZNS0_31RNSVGForeignObjectComponentNameEEENS0_23RNSVGForeignObjectPropsEE12getTransformEv, symObjAddr: 0x33E4, symBinAddr: 0x238B4, symSize: 0x40 }
  - { offset: 0x37D8F3, size: 0x8, addend: 0x0, symName: __ZNK8facebook5react23RNSVGConcreteShadowNodeIXadL_ZNS0_31RNSVGForeignObjectComponentNameEEENS0_23RNSVGForeignObjectPropsEE16canBeTouchTargetEv, symObjAddr: 0x3424, symBinAddr: 0x238F4, symSize: 0x18 }
  - { offset: 0x37D92D, size: 0x8, addend: 0x0, symName: __ZNK8facebook5react23RNSVGConcreteShadowNodeIXadL_ZNS0_31RNSVGForeignObjectComponentNameEEENS0_23RNSVGForeignObjectPropsEE16canBeTouchTargetEv, symObjAddr: 0x3424, symBinAddr: 0x238F4, symSize: 0x18 }
  - { offset: 0x37D94B, size: 0x8, addend: 0x0, symName: __ZNK8facebook5react23RNSVGConcreteShadowNodeIXadL_ZNS0_31RNSVGForeignObjectComponentNameEEENS0_23RNSVGForeignObjectPropsEE16canBeTouchTargetEv, symObjAddr: 0x3424, symBinAddr: 0x238F4, symSize: 0x18 }
  - { offset: 0x37D969, size: 0x8, addend: 0x0, symName: __ZNK8facebook5react23RNSVGConcreteShadowNodeIXadL_ZNS0_31RNSVGForeignObjectComponentNameEEENS0_23RNSVGForeignObjectPropsEE24canChildrenBeTouchTargetEv, symObjAddr: 0x343C, symBinAddr: 0x2390C, symSize: 0x18 }
  - { offset: 0x37D99F, size: 0x8, addend: 0x0, symName: __ZNK8facebook5react23RNSVGConcreteShadowNodeIXadL_ZNS0_31RNSVGForeignObjectComponentNameEEENS0_23RNSVGForeignObjectPropsEE24canChildrenBeTouchTargetEv, symObjAddr: 0x343C, symBinAddr: 0x2390C, symSize: 0x18 }
  - { offset: 0x37D9BD, size: 0x8, addend: 0x0, symName: __ZNK8facebook5react23RNSVGConcreteShadowNodeIXadL_ZNS0_31RNSVGForeignObjectComponentNameEEENS0_23RNSVGForeignObjectPropsEE24canChildrenBeTouchTargetEv, symObjAddr: 0x343C, symBinAddr: 0x2390C, symSize: 0x18 }
  - { offset: 0x37DDB6, size: 0x8, addend: 0x0, symName: __ZNSt3__120__shared_ptr_emplaceIN8facebook5react23RNSVGConcreteShadowNodeIXadL_ZNS2_31RNSVGForeignObjectComponentNameEEENS2_23RNSVGForeignObjectPropsEEENS_9allocatorIS5_EEEC2B8ne200100IJRKNS2_10ShadowNodeERKNS2_18ShadowNodeFragmentEES7_Li0EEES7_DpOT_, symObjAddr: 0x3790, symBinAddr: 0x23984, symSize: 0x5C }
  - { offset: 0x37E2B5, size: 0x8, addend: 0x0, symName: __ZNSt3__120__shared_ptr_emplaceIN8facebook5react23RNSVGForeignObjectPropsENS_9allocatorIS3_EEEC2B8ne200100IJRKNS2_18PropsParserContextERKS3_RKNS2_8RawPropsEES5_Li0EEES5_DpOT_, symObjAddr: 0x39A8, symBinAddr: 0x23B44, symSize: 0x4C }
  - { offset: 0x37E4A3, size: 0x8, addend: 0x0, symName: __ZNSt3__120__shared_ptr_emplaceIN8facebook5react23RNSVGForeignObjectPropsENS_9allocatorIS3_EEED1Ev, symObjAddr: 0x39F4, symBinAddr: 0x23B90, symSize: 0x14 }
  - { offset: 0x37E4C7, size: 0x8, addend: 0x0, symName: __ZNSt3__120__shared_ptr_emplaceIN8facebook5react23RNSVGForeignObjectPropsENS_9allocatorIS3_EEED1Ev, symObjAddr: 0x39F4, symBinAddr: 0x23B90, symSize: 0x14 }
  - { offset: 0x37E4FD, size: 0x8, addend: 0x0, symName: __ZNSt3__120__shared_ptr_emplaceIN8facebook5react23RNSVGForeignObjectPropsENS_9allocatorIS3_EEED0Ev, symObjAddr: 0x3A08, symBinAddr: 0x23BA4, symSize: 0x24 }
  - { offset: 0x37E59E, size: 0x8, addend: 0x0, symName: __ZNSt3__120__shared_ptr_emplaceIN8facebook5react23RNSVGForeignObjectPropsENS_9allocatorIS3_EEE16__on_zero_sharedEv, symObjAddr: 0x3A2C, symBinAddr: 0x23BC8, symSize: 0x10 }
  - { offset: 0x37E5C7, size: 0x8, addend: 0x0, symName: __ZNSt3__120__shared_ptr_emplaceIN8facebook5react23RNSVGForeignObjectPropsENS_9allocatorIS3_EEE16__on_zero_sharedEv, symObjAddr: 0x3A2C, symBinAddr: 0x23BC8, symSize: 0x10 }
  - { offset: 0x37E63B, size: 0x8, addend: 0x0, symName: __ZNSt3__120__shared_ptr_emplaceIN8facebook5react23RNSVGForeignObjectPropsENS_9allocatorIS3_EEE21__on_zero_shared_weakEv, symObjAddr: 0x3A3C, symBinAddr: 0x23BD8, symSize: 0x4 }
  - { offset: 0x37E66E, size: 0x8, addend: 0x0, symName: __ZNSt3__120__shared_ptr_emplaceIN8facebook5react23RNSVGForeignObjectPropsENS_9allocatorIS3_EEE21__on_zero_shared_weakEv, symObjAddr: 0x3A3C, symBinAddr: 0x23BD8, symSize: 0x4 }
  - { offset: 0x37E692, size: 0x8, addend: 0x0, symName: __ZNSt3__120__shared_ptr_emplaceIN8facebook5react23RNSVGForeignObjectPropsENS_9allocatorIS3_EEE21__on_zero_shared_weakEv, symObjAddr: 0x3A3C, symBinAddr: 0x23BD8, symSize: 0x4 }
  - { offset: 0x37E6B7, size: 0x8, addend: 0x0, symName: __ZNSt3__120__shared_ptr_emplaceIN8facebook5react23RNSVGForeignObjectPropsENS_9allocatorIS3_EEE21__on_zero_shared_weakEv, symObjAddr: 0x3A3C, symBinAddr: 0x23BD8, symSize: 0x4 }
  - { offset: 0x37E6EF, size: 0x8, addend: 0x0, symName: __ZNSt3__120__shared_ptr_emplaceIN8facebook5react23RNSVGForeignObjectPropsENS_9allocatorIS3_EEE21__on_zero_shared_weakEv, symObjAddr: 0x3A3C, symBinAddr: 0x23BD8, symSize: 0x4 }
  - { offset: 0x37F596, size: 0x8, addend: 0x0, symName: __ZNSt3__120__shared_ptr_emplaceIN8facebook5react16ShadowNodeFamilyENS_9allocatorIS3_EEEC2B8ne200100IJRKNS2_24ShadowNodeFamilyFragmentERNS_10shared_ptrIKNS2_20BaseViewEventEmitterEEERKNS_8weak_ptrIKNS2_15EventDispatcherEEERKNS2_27ConcreteComponentDescriptorINS2_23RNSVGConcreteShadowNodeIXadL_ZNS2_31RNSVGForeignObjectComponentNameEEENS2_23RNSVGForeignObjectPropsEEEEEES5_Li0EEES5_DpOT_, symObjAddr: 0x4160, symBinAddr: 0x23C54, symSize: 0x4C }
  - { offset: 0x37F9D2, size: 0x8, addend: 0x0, symName: __Z18setCommonNodePropsIN8facebook5react23RNSVGForeignObjectPropsEEvRKT_P9RNSVGNode, symObjAddr: 0x4858, symBinAddr: 0x24200, symSize: 0x6A0 }
  - { offset: 0x380C4E, size: 0x8, addend: 0x0, symName: __GLOBAL__sub_I_RNSVGForeignObject.mm, symObjAddr: 0x56C0, symBinAddr: 0x248A0, symSize: 0x20 }
  - { offset: 0x3831D1, size: 0x8, addend: 0x0, symName: __ZN8facebook5react17HostPlatformColorL14UndefinedColorE, symObjAddr: 0xDF260, symBinAddr: 0xB0470, symSize: 0x0 }
  - { offset: 0x383ED9, size: 0x8, addend: 0x0, symName: '+[RNSVGForeignObjectManager moduleName]', symObjAddr: 0x0, symBinAddr: 0x248C0, symSize: 0xC }
  - { offset: 0x383F0A, size: 0x8, addend: 0x0, symName: '+[RNSVGForeignObjectManager load]', symObjAddr: 0xC, symBinAddr: 0x248CC, symSize: 0x4 }
  - { offset: 0x383F3D, size: 0x8, addend: 0x0, symName: '+[RNSVGForeignObjectManager load]', symObjAddr: 0xC, symBinAddr: 0x248CC, symSize: 0x4 }
  - { offset: 0x383F5C, size: 0x8, addend: 0x0, symName: '-[RNSVGForeignObjectManager node]', symObjAddr: 0x10, symBinAddr: 0x248D0, symSize: 0x1C }
  - { offset: 0x383F8D, size: 0x8, addend: 0x0, symName: '+[RNSVGForeignObjectManager propConfig_x]', symObjAddr: 0x2C, symBinAddr: 0x248EC, symSize: 0xC }
  - { offset: 0x383FBE, size: 0x8, addend: 0x0, symName: '+[RNSVGForeignObjectManager propConfig_y]', symObjAddr: 0x38, symBinAddr: 0x248F8, symSize: 0xC }
  - { offset: 0x383FEF, size: 0x8, addend: 0x0, symName: '+[RNSVGForeignObjectManager propConfig_height]', symObjAddr: 0x44, symBinAddr: 0x24904, symSize: 0xC }
  - { offset: 0x384020, size: 0x8, addend: 0x0, symName: '-[RNSVGForeignObjectManager set_height:forView:withDefaultView:]', symObjAddr: 0x50, symBinAddr: 0x24910, symSize: 0x78 }
  - { offset: 0x384076, size: 0x8, addend: 0x0, symName: '+[RNSVGForeignObjectManager propConfig_width]', symObjAddr: 0xC8, symBinAddr: 0x24988, symSize: 0xC }
  - { offset: 0x3840A7, size: 0x8, addend: 0x0, symName: '-[RNSVGForeignObjectManager set_width:forView:withDefaultView:]', symObjAddr: 0xD4, symBinAddr: 0x24994, symSize: 0x78 }
  - { offset: 0x384184, size: 0x8, addend: 0x0, symName: __GLOBAL__sub_I_RNSVGForeignObjectManager.mm, symObjAddr: 0x174, symBinAddr: 0x24A0C, symSize: 0x20 }
  - { offset: 0x3861E7, size: 0x8, addend: 0x0, symName: __ZN8facebook5react17HostPlatformColorL14UndefinedColorE, symObjAddr: 0xE54E8, symBinAddr: 0xB0488, symSize: 0x0 }
  - { offset: 0x386FD5, size: 0x8, addend: 0x0, symName: __ZL21RNSVGFontStyleStrings, symObjAddr: 0x1E60, symBinAddr: 0x97C70, symSize: 0x0 }
  - { offset: 0x386FFA, size: 0x8, addend: 0x0, symName: __ZL22RNSVGFontWeightStrings, symObjAddr: 0x1E80, symBinAddr: 0x97C90, symSize: 0x0 }
  - { offset: 0x3873F8, size: 0x8, addend: 0x0, symName: '-[RNSVGGlyphContext getFontContext]', symObjAddr: 0x0, symBinAddr: 0x24A2C, symSize: 0x8 }
  - { offset: 0x38742C, size: 0x8, addend: 0x0, symName: '-[RNSVGGlyphContext getGlyphFont]', symObjAddr: 0x8, symBinAddr: 0x24A34, symSize: 0x420 }
  - { offset: 0x38793E, size: 0x8, addend: 0x0, symName: '-[RNSVGGlyphContext pushIndices]', symObjAddr: 0x428, symBinAddr: 0x24E54, symSize: 0x12C }
  - { offset: 0x38796E, size: 0x8, addend: 0x0, symName: '-[RNSVGGlyphContext initWithWidth:height:]', symObjAddr: 0x554, symBinAddr: 0x24F80, symSize: 0x468 }
  - { offset: 0x3879C1, size: 0x8, addend: 0x0, symName: '-[RNSVGGlyphContext getFont]', symObjAddr: 0x9BC, symBinAddr: 0x253E8, symSize: 0x8 }
  - { offset: 0x3879F7, size: 0x8, addend: 0x0, symName: '-[RNSVGGlyphContext getTopOrParentFont:]', symObjAddr: 0x9C4, symBinAddr: 0x253F0, symSize: 0x120 }
  - { offset: 0x387A7D, size: 0x8, addend: 0x0, symName: '-[RNSVGGlyphContext pushNode:andFont:]', symObjAddr: 0xAE4, symBinAddr: 0x25510, symSize: 0xFC }
  - { offset: 0x387AF3, size: 0x8, addend: 0x0, symName: '-[RNSVGGlyphContext pushContext:font:]', symObjAddr: 0xBE0, symBinAddr: 0x2560C, symSize: 0x70 }
  - { offset: 0x387B47, size: 0x8, addend: 0x0, symName: '-[RNSVGGlyphContext pushContext:font:x:y:deltaX:deltaY:rotate:]', symObjAddr: 0xC50, symBinAddr: 0x2567C, symSize: 0x340 }
  - { offset: 0x387BEF, size: 0x8, addend: 0x0, symName: '-[RNSVGGlyphContext popContext]', symObjAddr: 0xF90, symBinAddr: 0x259BC, symSize: 0x338 }
  - { offset: 0x387C76, size: 0x8, addend: 0x0, symName: '+[RNSVGGlyphContext incrementIndices:topIndex:]', symObjAddr: 0x12C8, symBinAddr: 0x25CF4, symSize: 0xBC }
  - { offset: 0x387CF4, size: 0x8, addend: 0x0, symName: '-[RNSVGGlyphContext getFontSize]', symObjAddr: 0x1384, symBinAddr: 0x25DB0, symSize: 0x8 }
  - { offset: 0x387D29, size: 0x8, addend: 0x0, symName: '-[RNSVGGlyphContext nextXWithDouble:]', symObjAddr: 0x138C, symBinAddr: 0x25DB8, symSize: 0xAC }
  - { offset: 0x387DA0, size: 0x8, addend: 0x0, symName: '-[RNSVGGlyphContext nextY]', symObjAddr: 0x1438, symBinAddr: 0x25E64, symSize: 0x98 }
  - { offset: 0x387E06, size: 0x8, addend: 0x0, symName: '-[RNSVGGlyphContext nextDeltaX]', symObjAddr: 0x14D0, symBinAddr: 0x25EFC, symSize: 0x9C }
  - { offset: 0x387E7D, size: 0x8, addend: 0x0, symName: '-[RNSVGGlyphContext nextDeltaY]', symObjAddr: 0x156C, symBinAddr: 0x25F98, symSize: 0x9C }
  - { offset: 0x387EF4, size: 0x8, addend: 0x0, symName: '-[RNSVGGlyphContext nextRotation]', symObjAddr: 0x1608, symBinAddr: 0x26034, symSize: 0x90 }
  - { offset: 0x387F4C, size: 0x8, addend: 0x0, symName: '-[RNSVGGlyphContext getWidth]', symObjAddr: 0x1698, symBinAddr: 0x260C4, symSize: 0x8 }
  - { offset: 0x387F81, size: 0x8, addend: 0x0, symName: '-[RNSVGGlyphContext getHeight]', symObjAddr: 0x16A0, symBinAddr: 0x260CC, symSize: 0x8 }
  - { offset: 0x387FB6, size: 0x8, addend: 0x0, symName: '-[RNSVGGlyphContext .cxx_destruct]', symObjAddr: 0x16A8, symBinAddr: 0x260D4, symSize: 0x120 }
  - { offset: 0x38806E, size: 0x8, addend: 0x0, symName: __GLOBAL__sub_I_RNSVGGlyphContext.mm, symObjAddr: 0x1BA4, symBinAddr: 0x261F4, symSize: 0x20 }
  - { offset: 0x38A386, size: 0x8, addend: 0x0, symName: __ZN8facebook5react17HostPlatformColorL14UndefinedColorE, symObjAddr: 0x1803B0, symBinAddr: 0xB04A0, symSize: 0x0 }
  - { offset: 0x38D94D, size: 0x8, addend: 0x0, symName: __ZN8facebook5react38concreteComponentDescriptorConstructorINS0_27ConcreteComponentDescriptorINS0_23RNSVGConcreteShadowNodeIXadL_ZNS0_23RNSVGGroupComponentNameEEENS0_15RNSVGGroupPropsEEEEEEENSt3__110unique_ptrIKNS0_19ComponentDescriptorENS7_14default_deleteISA_EEEERKNS0_29ComponentDescriptorParametersE, symObjAddr: 0x2864, symBinAddr: 0x27B0C, symSize: 0x34 }
  - { offset: 0x3AA39E, size: 0x8, addend: 0x0, symName: __ZNSt3__115allocate_sharedB8ne200100IKN8facebook5react15RNSVGGroupPropsENS_9allocatorIS3_EEJELi0EEENS_10shared_ptrIT_EERKT0_DpOT1_, symObjAddr: 0x1804, symBinAddr: 0x278DC, symSize: 0x48 }
  - { offset: 0x3AB593, size: 0x8, addend: 0x0, symName: __ZNSt3__111make_uniqueB8ne200100IKN8facebook5react27ConcreteComponentDescriptorINS2_23RNSVGConcreteShadowNodeIXadL_ZNS2_23RNSVGGroupComponentNameEEENS2_15RNSVGGroupPropsEEEEEJRKNS2_29ComponentDescriptorParametersEELi0EEENS_10unique_ptrIT_NS_14default_deleteISD_EEEEDpOT0_, symObjAddr: 0x2898, symBinAddr: 0x27B40, symSize: 0xD4 }
  - { offset: 0x3ABF0C, size: 0x8, addend: 0x0, symName: __ZNSt3__115allocate_sharedB8ne200100IN8facebook5react23RNSVGConcreteShadowNodeIXadL_ZNS2_23RNSVGGroupComponentNameEEENS2_15RNSVGGroupPropsEEENS_9allocatorIS5_EEJRKNS2_18ShadowNodeFragmentERKNS_10shared_ptrIKNS2_16ShadowNodeFamilyEEENS2_16ShadowNodeTraitsEELi0EEENSB_IT_EERKT0_DpOT1_, symObjAddr: 0x33C8, symBinAddr: 0x28368, symSize: 0x70 }
  - { offset: 0x3AC23B, size: 0x8, addend: 0x0, symName: __ZNSt3__115allocate_sharedB8ne200100IN8facebook5react23RNSVGConcreteShadowNodeIXadL_ZNS2_23RNSVGGroupComponentNameEEENS2_15RNSVGGroupPropsEEENS_9allocatorIS5_EEJRKNS2_10ShadowNodeERKNS2_18ShadowNodeFragmentEELi0EEENS_10shared_ptrIT_EERKT0_DpOT1_, symObjAddr: 0x3910, symBinAddr: 0x285D4, symSize: 0x60 }
  - { offset: 0x3AC986, size: 0x8, addend: 0x0, symName: __ZNSt3__115allocate_sharedB8ne200100IN8facebook5react16ShadowNodeFamilyENS_9allocatorIS3_EEJRKNS2_24ShadowNodeFamilyFragmentERNS_10shared_ptrIKNS2_20BaseViewEventEmitterEEERKNS_8weak_ptrIKNS2_15EventDispatcherEEERKNS2_27ConcreteComponentDescriptorINS2_23RNSVGConcreteShadowNodeIXadL_ZNS2_23RNSVGGroupComponentNameEEENS2_15RNSVGGroupPropsEEEEEELi0EEENS9_IT_EERKT0_DpOT1_, symObjAddr: 0x44CC, symBinAddr: 0x2888C, symSize: 0x78 }
  - { offset: 0x3AD719, size: 0x8, addend: 0x0, symName: __ZNSt3__115allocate_sharedB8ne200100IN8facebook5react15RNSVGGroupPropsENS_9allocatorIS3_EEJRKNS2_18PropsParserContextERKS3_RKNS2_8RawPropsEELi0EEENS_10shared_ptrIT_EERKT0_DpOT1_, symObjAddr: 0x3B18, symBinAddr: 0x28784, symSize: 0x70 }
  - { offset: 0x3AEA8E, size: 0x8, addend: 0x0, symName: __ZNSt3__112construct_atB8ne200100IN8facebook5react16ShadowNodeFamilyEJRKNS2_24ShadowNodeFamilyFragmentERNS_10shared_ptrIKNS2_20BaseViewEventEmitterEEERKNS_8weak_ptrIKNS2_15EventDispatcherEEERKNS2_27ConcreteComponentDescriptorINS2_23RNSVGConcreteShadowNodeIXadL_ZNS2_23RNSVGGroupComponentNameEEENS2_15RNSVGGroupPropsEEEEEEPS3_EEPT_SR_DpOT0_, symObjAddr: 0x45D4, symBinAddr: 0x28950, symSize: 0xDC }
  - { offset: 0x3AFE8D, size: 0x8, addend: 0x0, symName: '-[RNSVGGroup initWithFrame:]', symObjAddr: 0x34, symBinAddr: 0x26248, symSize: 0xDC }
  - { offset: 0x3AFEB6, size: 0x8, addend: 0x0, symName: '__ZZ28-[RNSVGGroup initWithFrame:]E12defaultProps', symObjAddr: 0x1803C8, symBinAddr: 0xB04B8, symSize: 0x0 }
  - { offset: 0x3B3914, size: 0x8, addend: 0x0, symName: __ZN8facebook5react18ConcreteShadowNodeIXadL_ZNS0_23RNSVGGroupComponentNameEEENS0_25RNSVGLayoutableShadowNodeENS0_15RNSVGGroupPropsENS0_20BaseViewEventEmitterENS0_9StateDataEE18defaultSharedPropsEv, symObjAddr: 0x3A24, symBinAddr: 0x28690, symSize: 0x9C }
  - { offset: 0x3B3933, size: 0x8, addend: 0x0, symName: __ZZN8facebook5react18ConcreteShadowNodeIXadL_ZNS0_23RNSVGGroupComponentNameEEENS0_25RNSVGLayoutableShadowNodeENS0_15RNSVGGroupPropsENS0_20BaseViewEventEmitterENS0_9StateDataEE18defaultSharedPropsEvE18defaultSharedProps, symObjAddr: 0x7530, symBinAddr: 0xAFAF8, symSize: 0x0 }
  - { offset: 0x3B3971, size: 0x8, addend: 0x0, symName: __ZL20MinimalLayoutMetrics, symObjAddr: 0x7BD0, symBinAddr: 0x756A8, symSize: 0x0 }
  - { offset: 0x3B3BC7, size: 0x8, addend: 0x0, symName: '+[RNSVGGroup load]', symObjAddr: 0x0, symBinAddr: 0x26214, symSize: 0x34 }
  - { offset: 0x3B3D06, size: 0x8, addend: 0x0, symName: __ZNSt3__110shared_ptrIKN8facebook5react15RNSVGGroupPropsEED1B8ne200100Ev, symObjAddr: 0x110, symBinAddr: 0x26324, symSize: 0x4 }
  - { offset: 0x3B3D2A, size: 0x8, addend: 0x0, symName: __ZNSt3__110shared_ptrIKN8facebook5react15RNSVGGroupPropsEED1B8ne200100Ev, symObjAddr: 0x110, symBinAddr: 0x26324, symSize: 0x4 }
  - { offset: 0x3B3F32, size: 0x8, addend: 0x0, symName: '+[RNSVGGroup componentDescriptorProvider]', symObjAddr: 0x18C, symBinAddr: 0x26328, symSize: 0x20 }
  - { offset: 0x3B3F66, size: 0x8, addend: 0x0, symName: '+[RNSVGGroup componentDescriptorProvider]', symObjAddr: 0x18C, symBinAddr: 0x26328, symSize: 0x20 }
  - { offset: 0x3B40A7, size: 0x8, addend: 0x0, symName: '-[RNSVGGroup updateProps:oldProps:]', symObjAddr: 0x1AC, symBinAddr: 0x26348, symSize: 0xA4 }
  - { offset: 0x3B42F0, size: 0x8, addend: 0x0, symName: __Z19setCommonGroupPropsIN8facebook5react15RNSVGGroupPropsEEvRKT_P10RNSVGGroup, symObjAddr: 0x250, symBinAddr: 0x263EC, symSize: 0x1F0 }
  - { offset: 0x3B44AB, size: 0x8, addend: 0x0, symName: __Z24setCommonRenderablePropsIN8facebook5react15RNSVGGroupPropsEEvRKT_P15RNSVGRenderable, symObjAddr: 0x47B8, symBinAddr: 0x28A2C, symSize: 0x484 }
  - { offset: 0x3B4B2F, size: 0x8, addend: 0x0, symName: __ZL28RNSVGConvertFollyDynamicToIdRKN5folly7dynamicE, symObjAddr: 0x4C3C, symBinAddr: 0x28EB0, symSize: 0x274 }
  - { offset: 0x3B5050, size: 0x8, addend: 0x0, symName: '-[RNSVGGroup prepareForRecycle]', symObjAddr: 0x4A4, symBinAddr: 0x265DC, symSize: 0x68 }
  - { offset: 0x3B5081, size: 0x8, addend: 0x0, symName: '-[RNSVGGroup setFont:]', symObjAddr: 0x50C, symBinAddr: 0x26644, symSize: 0x78 }
  - { offset: 0x3B50C1, size: 0x8, addend: 0x0, symName: '-[RNSVGGroup renderLayerTo:rect:]', symObjAddr: 0x584, symBinAddr: 0x266BC, symSize: 0x68 }
  - { offset: 0x3B5146, size: 0x8, addend: 0x0, symName: '-[RNSVGGroup renderGroupTo:rect:]', symObjAddr: 0x5EC, symBinAddr: 0x26724, symSize: 0x334 }
  - { offset: 0x3B5359, size: 0x8, addend: 0x0, symName: ___Block_byref_object_copy_, symObjAddr: 0x920, symBinAddr: 0x26A58, symSize: 0xC }
  - { offset: 0x3B537E, size: 0x8, addend: 0x0, symName: ___Block_byref_object_dispose_, symObjAddr: 0x92C, symBinAddr: 0x26A64, symSize: 0x4 }
  - { offset: 0x3B5398, size: 0x8, addend: 0x0, symName: '___33-[RNSVGGroup renderGroupTo:rect:]_block_invoke', symObjAddr: 0x930, symBinAddr: 0x26A68, symSize: 0x2F8 }
  - { offset: 0x3B54CC, size: 0x8, addend: 0x0, symName: '-[RNSVGGroup setupGlyphContext:]', symObjAddr: 0xC88, symBinAddr: 0x26D60, symSize: 0xD4 }
  - { offset: 0x3B55CE, size: 0x8, addend: 0x0, symName: '-[RNSVGGroup getGlyphContext]', symObjAddr: 0xD5C, symBinAddr: 0x26E34, symSize: 0x10 }
  - { offset: 0x3B5603, size: 0x8, addend: 0x0, symName: '-[RNSVGGroup pushGlyphContext]', symObjAddr: 0xD6C, symBinAddr: 0x26E44, symSize: 0xD8 }
  - { offset: 0x3B5643, size: 0x8, addend: 0x0, symName: '-[RNSVGGroup popGlyphContext]', symObjAddr: 0xE44, symBinAddr: 0x26F1C, symSize: 0x64 }
  - { offset: 0x3B5674, size: 0x8, addend: 0x0, symName: '-[RNSVGGroup renderPathTo:rect:]', symObjAddr: 0xEA8, symBinAddr: 0x26F80, symSize: 0x34 }
  - { offset: 0x3B56BE, size: 0x8, addend: 0x0, symName: '-[RNSVGGroup getPath:]', symObjAddr: 0xEDC, symBinAddr: 0x26FB4, symSize: 0xDC }
  - { offset: 0x3B578D, size: 0x8, addend: 0x0, symName: '___22-[RNSVGGroup getPath:]_block_invoke', symObjAddr: 0xFB8, symBinAddr: 0x27090, symSize: 0xFC }
  - { offset: 0x3B585C, size: 0x8, addend: 0x0, symName: ___copy_helper_block_ea8_32r, symObjAddr: 0x10B4, symBinAddr: 0x2718C, symSize: 0x10 }
  - { offset: 0x3B5885, size: 0x8, addend: 0x0, symName: ___destroy_helper_block_ea8_32r, symObjAddr: 0x10C4, symBinAddr: 0x2719C, symSize: 0xC }
  - { offset: 0x3B58A3, size: 0x8, addend: 0x0, symName: '-[RNSVGGroup hitTest:withEvent:]', symObjAddr: 0x10D0, symBinAddr: 0x271A8, symSize: 0x52C }
  - { offset: 0x3B5A79, size: 0x8, addend: 0x0, symName: '-[RNSVGGroup parseReference]', symObjAddr: 0x15FC, symBinAddr: 0x276D4, symSize: 0xE8 }
  - { offset: 0x3B5AC2, size: 0x8, addend: 0x0, symName: '___28-[RNSVGGroup parseReference]_block_invoke', symObjAddr: 0x16E4, symBinAddr: 0x277BC, symSize: 0x5C }
  - { offset: 0x3B5B00, size: 0x8, addend: 0x0, symName: '-[RNSVGGroup resetProperties]', symObjAddr: 0x1740, symBinAddr: 0x27818, symSize: 0xC }
  - { offset: 0x3B5B31, size: 0x8, addend: 0x0, symName: '___29-[RNSVGGroup resetProperties]_block_invoke', symObjAddr: 0x174C, symBinAddr: 0x27824, symSize: 0x5C }
  - { offset: 0x3B5B6F, size: 0x8, addend: 0x0, symName: '-[RNSVGGroup font]', symObjAddr: 0x17A8, symBinAddr: 0x27880, symSize: 0x10 }
  - { offset: 0x3B5BA4, size: 0x8, addend: 0x0, symName: '-[RNSVGGroup .cxx_destruct]', symObjAddr: 0x17B8, symBinAddr: 0x27890, symSize: 0x40 }
  - { offset: 0x3B5BD5, size: 0x8, addend: 0x0, symName: __Z13RNSVGGroupClsv, symObjAddr: 0x17F8, symBinAddr: 0x278D0, symSize: 0xC }
  - { offset: 0x3B5E1F, size: 0x8, addend: 0x0, symName: __ZNSt3__120__shared_ptr_emplaceIKN8facebook5react15RNSVGGroupPropsENS_9allocatorIS3_EEEC2B8ne200100IJES6_Li0EEES6_DpOT_, symObjAddr: 0x184C, symBinAddr: 0x27924, symSize: 0x58 }
  - { offset: 0x3B5F9E, size: 0x8, addend: 0x0, symName: __ZN8facebook5react15RNSVGGroupPropsC1Ev, symObjAddr: 0x18F0, symBinAddr: 0x279C8, symSize: 0x11C }
  - { offset: 0x3B6751, size: 0x8, addend: 0x0, symName: __ZNSt3__120__shared_ptr_emplaceIKN8facebook5react15RNSVGGroupPropsENS_9allocatorIS3_EEED1Ev, symObjAddr: 0x18A4, symBinAddr: 0x2797C, symSize: 0x14 }
  - { offset: 0x3B6775, size: 0x8, addend: 0x0, symName: __ZNSt3__120__shared_ptr_emplaceIKN8facebook5react15RNSVGGroupPropsENS_9allocatorIS3_EEED1Ev, symObjAddr: 0x18A4, symBinAddr: 0x2797C, symSize: 0x14 }
  - { offset: 0x3B67AB, size: 0x8, addend: 0x0, symName: __ZNSt3__120__shared_ptr_emplaceIKN8facebook5react15RNSVGGroupPropsENS_9allocatorIS3_EEED0Ev, symObjAddr: 0x18B8, symBinAddr: 0x27990, symSize: 0x24 }
  - { offset: 0x3B6897, size: 0x8, addend: 0x0, symName: __ZNSt3__120__shared_ptr_emplaceIKN8facebook5react15RNSVGGroupPropsENS_9allocatorIS3_EEE16__on_zero_sharedEv, symObjAddr: 0x18DC, symBinAddr: 0x279B4, symSize: 0x10 }
  - { offset: 0x3B68C0, size: 0x8, addend: 0x0, symName: __ZNSt3__120__shared_ptr_emplaceIKN8facebook5react15RNSVGGroupPropsENS_9allocatorIS3_EEE16__on_zero_sharedEv, symObjAddr: 0x18DC, symBinAddr: 0x279B4, symSize: 0x10 }
  - { offset: 0x3B70BE, size: 0x8, addend: 0x0, symName: __ZNSt3__120__shared_ptr_emplaceIKN8facebook5react15RNSVGGroupPropsENS_9allocatorIS3_EEE21__on_zero_shared_weakEv, symObjAddr: 0x18EC, symBinAddr: 0x279C4, symSize: 0x4 }
  - { offset: 0x3B70F1, size: 0x8, addend: 0x0, symName: __ZNSt3__120__shared_ptr_emplaceIKN8facebook5react15RNSVGGroupPropsENS_9allocatorIS3_EEE21__on_zero_shared_weakEv, symObjAddr: 0x18EC, symBinAddr: 0x279C4, symSize: 0x4 }
  - { offset: 0x3B7115, size: 0x8, addend: 0x0, symName: __ZNSt3__120__shared_ptr_emplaceIKN8facebook5react15RNSVGGroupPropsENS_9allocatorIS3_EEE21__on_zero_shared_weakEv, symObjAddr: 0x18EC, symBinAddr: 0x279C4, symSize: 0x4 }
  - { offset: 0x3B713A, size: 0x8, addend: 0x0, symName: __ZNSt3__120__shared_ptr_emplaceIKN8facebook5react15RNSVGGroupPropsENS_9allocatorIS3_EEE21__on_zero_shared_weakEv, symObjAddr: 0x18EC, symBinAddr: 0x279C4, symSize: 0x4 }
  - { offset: 0x3B7172, size: 0x8, addend: 0x0, symName: __ZNSt3__120__shared_ptr_emplaceIKN8facebook5react15RNSVGGroupPropsENS_9allocatorIS3_EEE21__on_zero_shared_weakEv, symObjAddr: 0x18EC, symBinAddr: 0x279C4, symSize: 0x4 }
  - { offset: 0x3BB51D, size: 0x8, addend: 0x0, symName: __ZN8facebook5react15RNSVGGroupPropsD1Ev, symObjAddr: 0x1F28, symBinAddr: 0x27AE4, symSize: 0xC }
  - { offset: 0x3BB554, size: 0x8, addend: 0x0, symName: __ZN8facebook5react15RNSVGGroupPropsD0Ev, symObjAddr: 0x1F34, symBinAddr: 0x27AF0, symSize: 0x1C }
  - { offset: 0x3BD13A, size: 0x8, addend: 0x0, symName: __ZN8facebook5react14RawPropsParser7prepareINS0_15RNSVGGroupPropsEEEvv, symObjAddr: 0x29BC, symBinAddr: 0x27C14, symSize: 0x1DC }
  - { offset: 0x3BE106, size: 0x8, addend: 0x0, symName: __ZN8facebook5react27ConcreteComponentDescriptorINS0_23RNSVGConcreteShadowNodeIXadL_ZNS0_23RNSVGGroupComponentNameEEENS0_15RNSVGGroupPropsEEEED1Ev, symObjAddr: 0x2B98, symBinAddr: 0x27DF0, symSize: 0x4 }
  - { offset: 0x3BE12A, size: 0x8, addend: 0x0, symName: __ZN8facebook5react27ConcreteComponentDescriptorINS0_23RNSVGConcreteShadowNodeIXadL_ZNS0_23RNSVGGroupComponentNameEEENS0_15RNSVGGroupPropsEEEED1Ev, symObjAddr: 0x2B98, symBinAddr: 0x27DF0, symSize: 0x4 }
  - { offset: 0x3BE149, size: 0x8, addend: 0x0, symName: __ZN8facebook5react27ConcreteComponentDescriptorINS0_23RNSVGConcreteShadowNodeIXadL_ZNS0_23RNSVGGroupComponentNameEEENS0_15RNSVGGroupPropsEEEED1Ev, symObjAddr: 0x2B98, symBinAddr: 0x27DF0, symSize: 0x4 }
  - { offset: 0x3BE421, size: 0x8, addend: 0x0, symName: __ZN8facebook5react27ConcreteComponentDescriptorINS0_23RNSVGConcreteShadowNodeIXadL_ZNS0_23RNSVGGroupComponentNameEEENS0_15RNSVGGroupPropsEEEED0Ev, symObjAddr: 0x2B9C, symBinAddr: 0x27DF4, symSize: 0x14 }
  - { offset: 0x3BE4A0, size: 0x8, addend: 0x0, symName: __ZNK8facebook5react27ConcreteComponentDescriptorINS0_23RNSVGConcreteShadowNodeIXadL_ZNS0_23RNSVGGroupComponentNameEEENS0_15RNSVGGroupPropsEEEE18getComponentHandleEv, symObjAddr: 0x2BB0, symBinAddr: 0x27E08, symSize: 0xC }
  - { offset: 0x3BE4C6, size: 0x8, addend: 0x0, symName: __ZNK8facebook5react27ConcreteComponentDescriptorINS0_23RNSVGConcreteShadowNodeIXadL_ZNS0_23RNSVGGroupComponentNameEEENS0_15RNSVGGroupPropsEEEE16getComponentNameEv, symObjAddr: 0x2BBC, symBinAddr: 0x27E14, symSize: 0xC }
  - { offset: 0x3BE4EC, size: 0x8, addend: 0x0, symName: __ZNK8facebook5react27ConcreteComponentDescriptorINS0_23RNSVGConcreteShadowNodeIXadL_ZNS0_23RNSVGGroupComponentNameEEENS0_15RNSVGGroupPropsEEEE9getTraitsEv, symObjAddr: 0x2BC8, symBinAddr: 0x27E20, symSize: 0x8 }
  - { offset: 0x3BE5E6, size: 0x8, addend: 0x0, symName: __ZNK8facebook5react27ConcreteComponentDescriptorINS0_23RNSVGConcreteShadowNodeIXadL_ZNS0_23RNSVGGroupComponentNameEEENS0_15RNSVGGroupPropsEEEE16createShadowNodeERKNS0_18ShadowNodeFragmentERKNSt3__110shared_ptrIKNS0_16ShadowNodeFamilyEEE, symObjAddr: 0x2BD0, symBinAddr: 0x27E28, symSize: 0x90 }
  - { offset: 0x3BE87B, size: 0x8, addend: 0x0, symName: __ZNK8facebook5react27ConcreteComponentDescriptorINS0_23RNSVGConcreteShadowNodeIXadL_ZNS0_23RNSVGGroupComponentNameEEENS0_15RNSVGGroupPropsEEEE15cloneShadowNodeERKNS0_10ShadowNodeERKNS0_18ShadowNodeFragmentE, symObjAddr: 0x2C60, symBinAddr: 0x27EB8, symSize: 0x104 }
  - { offset: 0x3BEC15, size: 0x8, addend: 0x0, symName: __ZNK8facebook5react27ConcreteComponentDescriptorINS0_23RNSVGConcreteShadowNodeIXadL_ZNS0_23RNSVGGroupComponentNameEEENS0_15RNSVGGroupPropsEEEE11appendChildERKNSt3__110shared_ptrIKNS0_10ShadowNodeEEESC_, symObjAddr: 0x2D64, symBinAddr: 0x27FBC, symSize: 0x14 }
  - { offset: 0x3BEC71, size: 0x8, addend: 0x0, symName: __ZNK8facebook5react27ConcreteComponentDescriptorINS0_23RNSVGConcreteShadowNodeIXadL_ZNS0_23RNSVGGroupComponentNameEEENS0_15RNSVGGroupPropsEEEE11appendChildERKNSt3__110shared_ptrIKNS0_10ShadowNodeEEESC_, symObjAddr: 0x2D64, symBinAddr: 0x27FBC, symSize: 0x14 }
  - { offset: 0x3BF513, size: 0x8, addend: 0x0, symName: __ZNK8facebook5react27ConcreteComponentDescriptorINS0_23RNSVGConcreteShadowNodeIXadL_ZNS0_23RNSVGGroupComponentNameEEENS0_15RNSVGGroupPropsEEEE10clonePropsERKNS0_18PropsParserContextERKNSt3__110shared_ptrIKNS0_5PropsEEENS0_8RawPropsE, symObjAddr: 0x2D78, symBinAddr: 0x27FD0, symSize: 0x21C }
  - { offset: 0x3C00CA, size: 0x8, addend: 0x0, symName: __ZN8facebook5react18ConcreteShadowNodeIXadL_ZNS0_23RNSVGGroupComponentNameEEENS0_25RNSVGLayoutableShadowNodeENS0_15RNSVGGroupPropsENS0_20BaseViewEventEmitterENS0_9StateDataEE5PropsERKNS0_18PropsParserContextERKNS0_8RawPropsERKNSt3__110shared_ptrIKNS0_5PropsEEE, symObjAddr: 0x3AC0, symBinAddr: 0x2872C, symSize: 0x58 }
  - { offset: 0x3C0334, size: 0x8, addend: 0x0, symName: __ZNK8facebook5react27ConcreteComponentDescriptorINS0_23RNSVGConcreteShadowNodeIXadL_ZNS0_23RNSVGGroupComponentNameEEENS0_15RNSVGGroupPropsEEEE18createInitialStateERKNSt3__110shared_ptrIKNS0_5PropsEEERKNS7_IKNS0_16ShadowNodeFamilyEEE, symObjAddr: 0x2F94, symBinAddr: 0x281EC, symSize: 0x8 }
  - { offset: 0x3C037A, size: 0x8, addend: 0x0, symName: __ZNK8facebook5react27ConcreteComponentDescriptorINS0_23RNSVGConcreteShadowNodeIXadL_ZNS0_23RNSVGGroupComponentNameEEENS0_15RNSVGGroupPropsEEEE18createInitialStateERKNSt3__110shared_ptrIKNS0_5PropsEEERKNS7_IKNS0_16ShadowNodeFamilyEEE, symObjAddr: 0x2F94, symBinAddr: 0x281EC, symSize: 0x8 }
  - { offset: 0x3C039F, size: 0x8, addend: 0x0, symName: __ZNK8facebook5react27ConcreteComponentDescriptorINS0_23RNSVGConcreteShadowNodeIXadL_ZNS0_23RNSVGGroupComponentNameEEENS0_15RNSVGGroupPropsEEEE18createInitialStateERKNSt3__110shared_ptrIKNS0_5PropsEEERKNS7_IKNS0_16ShadowNodeFamilyEEE, symObjAddr: 0x2F94, symBinAddr: 0x281EC, symSize: 0x8 }
  - { offset: 0x3C03C3, size: 0x8, addend: 0x0, symName: __ZNK8facebook5react27ConcreteComponentDescriptorINS0_23RNSVGConcreteShadowNodeIXadL_ZNS0_23RNSVGGroupComponentNameEEENS0_15RNSVGGroupPropsEEEE11createStateERKNS0_16ShadowNodeFamilyERKNSt3__110shared_ptrIKvEE, symObjAddr: 0x2F9C, symBinAddr: 0x281F4, symSize: 0x8 }
  - { offset: 0x3C0409, size: 0x8, addend: 0x0, symName: __ZNK8facebook5react27ConcreteComponentDescriptorINS0_23RNSVGConcreteShadowNodeIXadL_ZNS0_23RNSVGGroupComponentNameEEENS0_15RNSVGGroupPropsEEEE11createStateERKNS0_16ShadowNodeFamilyERKNSt3__110shared_ptrIKvEE, symObjAddr: 0x2F9C, symBinAddr: 0x281F4, symSize: 0x8 }
  - { offset: 0x3C042E, size: 0x8, addend: 0x0, symName: __ZNK8facebook5react27ConcreteComponentDescriptorINS0_23RNSVGConcreteShadowNodeIXadL_ZNS0_23RNSVGGroupComponentNameEEENS0_15RNSVGGroupPropsEEEE11createStateERKNS0_16ShadowNodeFamilyERKNSt3__110shared_ptrIKvEE, symObjAddr: 0x2F9C, symBinAddr: 0x281F4, symSize: 0x8 }
  - { offset: 0x3C063A, size: 0x8, addend: 0x0, symName: __ZNK8facebook5react27ConcreteComponentDescriptorINS0_23RNSVGConcreteShadowNodeIXadL_ZNS0_23RNSVGGroupComponentNameEEENS0_15RNSVGGroupPropsEEEE12createFamilyERKNS0_24ShadowNodeFamilyFragmentE, symObjAddr: 0x2FA4, symBinAddr: 0x281FC, symSize: 0x168 }
  - { offset: 0x3C0BDB, size: 0x8, addend: 0x0, symName: __ZNK8facebook5react27ConcreteComponentDescriptorINS0_23RNSVGConcreteShadowNodeIXadL_ZNS0_23RNSVGGroupComponentNameEEENS0_15RNSVGGroupPropsEEEE5adoptERNS0_10ShadowNodeE, symObjAddr: 0x310C, symBinAddr: 0x28364, symSize: 0x4 }
  - { offset: 0x3C1435, size: 0x8, addend: 0x0, symName: __ZNSt3__120__shared_ptr_emplaceIN8facebook5react23RNSVGConcreteShadowNodeIXadL_ZNS2_23RNSVGGroupComponentNameEEENS2_15RNSVGGroupPropsEEENS_9allocatorIS5_EEEC2B8ne200100IJRKNS2_18ShadowNodeFragmentERKNS_10shared_ptrIKNS2_16ShadowNodeFamilyEEENS2_16ShadowNodeTraitsEES7_Li0EEES7_DpOT_, symObjAddr: 0x3438, symBinAddr: 0x283D8, symSize: 0x60 }
  - { offset: 0x3C175D, size: 0x8, addend: 0x0, symName: __ZNSt3__120__shared_ptr_emplaceIN8facebook5react23RNSVGConcreteShadowNodeIXadL_ZNS2_23RNSVGGroupComponentNameEEENS2_15RNSVGGroupPropsEEENS_9allocatorIS5_EEED1Ev, symObjAddr: 0x3498, symBinAddr: 0x28438, symSize: 0x14 }
  - { offset: 0x3C1781, size: 0x8, addend: 0x0, symName: __ZNSt3__120__shared_ptr_emplaceIN8facebook5react23RNSVGConcreteShadowNodeIXadL_ZNS2_23RNSVGGroupComponentNameEEENS2_15RNSVGGroupPropsEEENS_9allocatorIS5_EEED1Ev, symObjAddr: 0x3498, symBinAddr: 0x28438, symSize: 0x14 }
  - { offset: 0x3C17B7, size: 0x8, addend: 0x0, symName: __ZNSt3__120__shared_ptr_emplaceIN8facebook5react23RNSVGConcreteShadowNodeIXadL_ZNS2_23RNSVGGroupComponentNameEEENS2_15RNSVGGroupPropsEEENS_9allocatorIS5_EEED0Ev, symObjAddr: 0x34AC, symBinAddr: 0x2844C, symSize: 0x24 }
  - { offset: 0x3C1887, size: 0x8, addend: 0x0, symName: __ZNSt3__120__shared_ptr_emplaceIN8facebook5react23RNSVGConcreteShadowNodeIXadL_ZNS2_23RNSVGGroupComponentNameEEENS2_15RNSVGGroupPropsEEENS_9allocatorIS5_EEE16__on_zero_sharedEv, symObjAddr: 0x34D0, symBinAddr: 0x28470, symSize: 0xC }
  - { offset: 0x3C18B0, size: 0x8, addend: 0x0, symName: __ZNSt3__120__shared_ptr_emplaceIN8facebook5react23RNSVGConcreteShadowNodeIXadL_ZNS2_23RNSVGGroupComponentNameEEENS2_15RNSVGGroupPropsEEENS_9allocatorIS5_EEE16__on_zero_sharedEv, symObjAddr: 0x34D0, symBinAddr: 0x28470, symSize: 0xC }
  - { offset: 0x3C18CF, size: 0x8, addend: 0x0, symName: __ZNSt3__120__shared_ptr_emplaceIN8facebook5react23RNSVGConcreteShadowNodeIXadL_ZNS2_23RNSVGGroupComponentNameEEENS2_15RNSVGGroupPropsEEENS_9allocatorIS5_EEE16__on_zero_sharedEv, symObjAddr: 0x34D0, symBinAddr: 0x28470, symSize: 0xC }
  - { offset: 0x3C18EE, size: 0x8, addend: 0x0, symName: __ZNSt3__120__shared_ptr_emplaceIN8facebook5react23RNSVGConcreteShadowNodeIXadL_ZNS2_23RNSVGGroupComponentNameEEENS2_15RNSVGGroupPropsEEENS_9allocatorIS5_EEE16__on_zero_sharedEv, symObjAddr: 0x34D0, symBinAddr: 0x28470, symSize: 0xC }
  - { offset: 0x3C191A, size: 0x8, addend: 0x0, symName: __ZNSt3__120__shared_ptr_emplaceIN8facebook5react23RNSVGConcreteShadowNodeIXadL_ZNS2_23RNSVGGroupComponentNameEEENS2_15RNSVGGroupPropsEEENS_9allocatorIS5_EEE21__on_zero_shared_weakEv, symObjAddr: 0x34DC, symBinAddr: 0x2847C, symSize: 0x4 }
  - { offset: 0x3C194D, size: 0x8, addend: 0x0, symName: __ZNSt3__120__shared_ptr_emplaceIN8facebook5react23RNSVGConcreteShadowNodeIXadL_ZNS2_23RNSVGGroupComponentNameEEENS2_15RNSVGGroupPropsEEENS_9allocatorIS5_EEE21__on_zero_shared_weakEv, symObjAddr: 0x34DC, symBinAddr: 0x2847C, symSize: 0x4 }
  - { offset: 0x3C1971, size: 0x8, addend: 0x0, symName: __ZNSt3__120__shared_ptr_emplaceIN8facebook5react23RNSVGConcreteShadowNodeIXadL_ZNS2_23RNSVGGroupComponentNameEEENS2_15RNSVGGroupPropsEEENS_9allocatorIS5_EEE21__on_zero_shared_weakEv, symObjAddr: 0x34DC, symBinAddr: 0x2847C, symSize: 0x4 }
  - { offset: 0x3C1996, size: 0x8, addend: 0x0, symName: __ZNSt3__120__shared_ptr_emplaceIN8facebook5react23RNSVGConcreteShadowNodeIXadL_ZNS2_23RNSVGGroupComponentNameEEENS2_15RNSVGGroupPropsEEENS_9allocatorIS5_EEE21__on_zero_shared_weakEv, symObjAddr: 0x34DC, symBinAddr: 0x2847C, symSize: 0x4 }
  - { offset: 0x3C19CE, size: 0x8, addend: 0x0, symName: __ZNSt3__120__shared_ptr_emplaceIN8facebook5react23RNSVGConcreteShadowNodeIXadL_ZNS2_23RNSVGGroupComponentNameEEENS2_15RNSVGGroupPropsEEENS_9allocatorIS5_EEE21__on_zero_shared_weakEv, symObjAddr: 0x34DC, symBinAddr: 0x2847C, symSize: 0x4 }
  - { offset: 0x3C1C4F, size: 0x8, addend: 0x0, symName: __ZN8facebook5react23RNSVGConcreteShadowNodeIXadL_ZNS0_23RNSVGGroupComponentNameEEENS0_15RNSVGGroupPropsEED1Ev, symObjAddr: 0x34E0, symBinAddr: 0x28480, symSize: 0x70 }
  - { offset: 0x3C2203, size: 0x8, addend: 0x0, symName: __ZN8facebook5react23RNSVGConcreteShadowNodeIXadL_ZNS0_23RNSVGGroupComponentNameEEENS0_15RNSVGGroupPropsEED0Ev, symObjAddr: 0x3550, symBinAddr: 0x284F0, symSize: 0x74 }
  - { offset: 0x3C264D, size: 0x8, addend: 0x0, symName: __ZNK8facebook5react23RNSVGConcreteShadowNodeIXadL_ZNS0_23RNSVGGroupComponentNameEEENS0_15RNSVGGroupPropsEE12getTransformEv, symObjAddr: 0x35C4, symBinAddr: 0x28564, symSize: 0x40 }
  - { offset: 0x3C26C2, size: 0x8, addend: 0x0, symName: __ZNK8facebook5react23RNSVGConcreteShadowNodeIXadL_ZNS0_23RNSVGGroupComponentNameEEENS0_15RNSVGGroupPropsEE16canBeTouchTargetEv, symObjAddr: 0x3604, symBinAddr: 0x285A4, symSize: 0x18 }
  - { offset: 0x3C26FC, size: 0x8, addend: 0x0, symName: __ZNK8facebook5react23RNSVGConcreteShadowNodeIXadL_ZNS0_23RNSVGGroupComponentNameEEENS0_15RNSVGGroupPropsEE16canBeTouchTargetEv, symObjAddr: 0x3604, symBinAddr: 0x285A4, symSize: 0x18 }
  - { offset: 0x3C271A, size: 0x8, addend: 0x0, symName: __ZNK8facebook5react23RNSVGConcreteShadowNodeIXadL_ZNS0_23RNSVGGroupComponentNameEEENS0_15RNSVGGroupPropsEE16canBeTouchTargetEv, symObjAddr: 0x3604, symBinAddr: 0x285A4, symSize: 0x18 }
  - { offset: 0x3C2738, size: 0x8, addend: 0x0, symName: __ZNK8facebook5react23RNSVGConcreteShadowNodeIXadL_ZNS0_23RNSVGGroupComponentNameEEENS0_15RNSVGGroupPropsEE24canChildrenBeTouchTargetEv, symObjAddr: 0x361C, symBinAddr: 0x285BC, symSize: 0x18 }
  - { offset: 0x3C276E, size: 0x8, addend: 0x0, symName: __ZNK8facebook5react23RNSVGConcreteShadowNodeIXadL_ZNS0_23RNSVGGroupComponentNameEEENS0_15RNSVGGroupPropsEE24canChildrenBeTouchTargetEv, symObjAddr: 0x361C, symBinAddr: 0x285BC, symSize: 0x18 }
  - { offset: 0x3C278C, size: 0x8, addend: 0x0, symName: __ZNK8facebook5react23RNSVGConcreteShadowNodeIXadL_ZNS0_23RNSVGGroupComponentNameEEENS0_15RNSVGGroupPropsEE24canChildrenBeTouchTargetEv, symObjAddr: 0x361C, symBinAddr: 0x285BC, symSize: 0x18 }
  - { offset: 0x3C2B85, size: 0x8, addend: 0x0, symName: __ZNSt3__120__shared_ptr_emplaceIN8facebook5react23RNSVGConcreteShadowNodeIXadL_ZNS2_23RNSVGGroupComponentNameEEENS2_15RNSVGGroupPropsEEENS_9allocatorIS5_EEEC2B8ne200100IJRKNS2_10ShadowNodeERKNS2_18ShadowNodeFragmentEES7_Li0EEES7_DpOT_, symObjAddr: 0x3970, symBinAddr: 0x28634, symSize: 0x5C }
  - { offset: 0x3C3084, size: 0x8, addend: 0x0, symName: __ZNSt3__120__shared_ptr_emplaceIN8facebook5react15RNSVGGroupPropsENS_9allocatorIS3_EEEC2B8ne200100IJRKNS2_18PropsParserContextERKS3_RKNS2_8RawPropsEES5_Li0EEES5_DpOT_, symObjAddr: 0x3B88, symBinAddr: 0x287F4, symSize: 0x4C }
  - { offset: 0x3C3272, size: 0x8, addend: 0x0, symName: __ZNSt3__120__shared_ptr_emplaceIN8facebook5react15RNSVGGroupPropsENS_9allocatorIS3_EEED1Ev, symObjAddr: 0x3BD4, symBinAddr: 0x28840, symSize: 0x14 }
  - { offset: 0x3C3296, size: 0x8, addend: 0x0, symName: __ZNSt3__120__shared_ptr_emplaceIN8facebook5react15RNSVGGroupPropsENS_9allocatorIS3_EEED1Ev, symObjAddr: 0x3BD4, symBinAddr: 0x28840, symSize: 0x14 }
  - { offset: 0x3C32CC, size: 0x8, addend: 0x0, symName: __ZNSt3__120__shared_ptr_emplaceIN8facebook5react15RNSVGGroupPropsENS_9allocatorIS3_EEED0Ev, symObjAddr: 0x3BE8, symBinAddr: 0x28854, symSize: 0x24 }
  - { offset: 0x3C336D, size: 0x8, addend: 0x0, symName: __ZNSt3__120__shared_ptr_emplaceIN8facebook5react15RNSVGGroupPropsENS_9allocatorIS3_EEE16__on_zero_sharedEv, symObjAddr: 0x3C0C, symBinAddr: 0x28878, symSize: 0x10 }
  - { offset: 0x3C3396, size: 0x8, addend: 0x0, symName: __ZNSt3__120__shared_ptr_emplaceIN8facebook5react15RNSVGGroupPropsENS_9allocatorIS3_EEE16__on_zero_sharedEv, symObjAddr: 0x3C0C, symBinAddr: 0x28878, symSize: 0x10 }
  - { offset: 0x3C340A, size: 0x8, addend: 0x0, symName: __ZNSt3__120__shared_ptr_emplaceIN8facebook5react15RNSVGGroupPropsENS_9allocatorIS3_EEE21__on_zero_shared_weakEv, symObjAddr: 0x3C1C, symBinAddr: 0x28888, symSize: 0x4 }
  - { offset: 0x3C343D, size: 0x8, addend: 0x0, symName: __ZNSt3__120__shared_ptr_emplaceIN8facebook5react15RNSVGGroupPropsENS_9allocatorIS3_EEE21__on_zero_shared_weakEv, symObjAddr: 0x3C1C, symBinAddr: 0x28888, symSize: 0x4 }
  - { offset: 0x3C3461, size: 0x8, addend: 0x0, symName: __ZNSt3__120__shared_ptr_emplaceIN8facebook5react15RNSVGGroupPropsENS_9allocatorIS3_EEE21__on_zero_shared_weakEv, symObjAddr: 0x3C1C, symBinAddr: 0x28888, symSize: 0x4 }
  - { offset: 0x3C3486, size: 0x8, addend: 0x0, symName: __ZNSt3__120__shared_ptr_emplaceIN8facebook5react15RNSVGGroupPropsENS_9allocatorIS3_EEE21__on_zero_shared_weakEv, symObjAddr: 0x3C1C, symBinAddr: 0x28888, symSize: 0x4 }
  - { offset: 0x3C34BE, size: 0x8, addend: 0x0, symName: __ZNSt3__120__shared_ptr_emplaceIN8facebook5react15RNSVGGroupPropsENS_9allocatorIS3_EEE21__on_zero_shared_weakEv, symObjAddr: 0x3C1C, symBinAddr: 0x28888, symSize: 0x4 }
  - { offset: 0x3C47A8, size: 0x8, addend: 0x0, symName: __ZNSt3__120__shared_ptr_emplaceIN8facebook5react16ShadowNodeFamilyENS_9allocatorIS3_EEEC2B8ne200100IJRKNS2_24ShadowNodeFamilyFragmentERNS_10shared_ptrIKNS2_20BaseViewEventEmitterEEERKNS_8weak_ptrIKNS2_15EventDispatcherEEERKNS2_27ConcreteComponentDescriptorINS2_23RNSVGConcreteShadowNodeIXadL_ZNS2_23RNSVGGroupComponentNameEEENS2_15RNSVGGroupPropsEEEEEES5_Li0EEES5_DpOT_, symObjAddr: 0x4544, symBinAddr: 0x28904, symSize: 0x4C }
  - { offset: 0x3C4BE4, size: 0x8, addend: 0x0, symName: __Z18setCommonNodePropsIN8facebook5react15RNSVGGroupPropsEEvRKT_P9RNSVGNode, symObjAddr: 0x4EB0, symBinAddr: 0x29124, symSize: 0x6A0 }
  - { offset: 0x3C604C, size: 0x8, addend: 0x0, symName: __GLOBAL__sub_I_RNSVGGroup.mm, symObjAddr: 0x5DC0, symBinAddr: 0x297C4, symSize: 0x20 }
  - { offset: 0x3C87AF, size: 0x8, addend: 0x0, symName: __ZN8facebook5react17HostPlatformColorL14UndefinedColorE, symObjAddr: 0xDF538, symBinAddr: 0xB04D0, symSize: 0x0 }
  - { offset: 0x3C94AB, size: 0x8, addend: 0x0, symName: '+[RNSVGGroupManager moduleName]', symObjAddr: 0x0, symBinAddr: 0x297E4, symSize: 0xC }
  - { offset: 0x3C94DC, size: 0x8, addend: 0x0, symName: '+[RNSVGGroupManager load]', symObjAddr: 0xC, symBinAddr: 0x297F0, symSize: 0x4 }
  - { offset: 0x3C950F, size: 0x8, addend: 0x0, symName: '+[RNSVGGroupManager load]', symObjAddr: 0xC, symBinAddr: 0x297F0, symSize: 0x4 }
  - { offset: 0x3C952E, size: 0x8, addend: 0x0, symName: '-[RNSVGGroupManager node]', symObjAddr: 0x10, symBinAddr: 0x297F4, symSize: 0x1C }
  - { offset: 0x3C955F, size: 0x8, addend: 0x0, symName: '+[RNSVGGroupManager propConfig_font]', symObjAddr: 0x2C, symBinAddr: 0x29810, symSize: 0xC }
  - { offset: 0x3C9590, size: 0x8, addend: 0x0, symName: '+[RNSVGGroupManager propConfig_fontSize]', symObjAddr: 0x38, symBinAddr: 0x2981C, symSize: 0xC }
  - { offset: 0x3C95C1, size: 0x8, addend: 0x0, symName: '-[RNSVGGroupManager set_fontSize:forView:withDefaultView:]', symObjAddr: 0x44, symBinAddr: 0x29828, symSize: 0x19C }
  - { offset: 0x3C9648, size: 0x8, addend: 0x0, symName: '+[RNSVGGroupManager propConfig_fontWeight]', symObjAddr: 0x1E0, symBinAddr: 0x299C4, symSize: 0xC }
  - { offset: 0x3C9679, size: 0x8, addend: 0x0, symName: '-[RNSVGGroupManager set_fontWeight:forView:withDefaultView:]', symObjAddr: 0x1EC, symBinAddr: 0x299D0, symSize: 0x19C }
  - { offset: 0x3C9787, size: 0x8, addend: 0x0, symName: __GLOBAL__sub_I_RNSVGGroupManager.mm, symObjAddr: 0x410, symBinAddr: 0x29B6C, symSize: 0x20 }
  - { offset: 0x3CB79C, size: 0x8, addend: 0x0, symName: __ZN8facebook5react17HostPlatformColorL14UndefinedColorE, symObjAddr: 0x1BBF38, symBinAddr: 0xB04E8, symSize: 0x0 }
  - { offset: 0x3CF8EA, size: 0x8, addend: 0x0, symName: __ZN8facebook5react38concreteComponentDescriptorConstructorINS0_29RNSVGImageComponentDescriptorEEENSt3__110unique_ptrIKNS0_19ComponentDescriptorENS3_14default_deleteIS6_EEEERKNS0_29ComponentDescriptorParametersE, symObjAddr: 0x30D8, symBinAddr: 0x2BB80, symSize: 0x6C }
  - { offset: 0x3F0379, size: 0x8, addend: 0x0, symName: __ZNSt3__115allocate_sharedB8ne200100IKN8facebook5react15RNSVGImagePropsENS_9allocatorIS3_EEJELi0EEENS_10shared_ptrIT_EERKT0_DpOT1_, symObjAddr: 0x1FE0, symBinAddr: 0x2B784, symSize: 0x48 }
  - { offset: 0x3F0C03, size: 0x8, addend: 0x0, symName: __ZNSt3__112__destroy_atB8ne200100INS_4pairINS_12basic_stringIcNS_11char_traitsIcEENS_9allocatorIcEEEES7_EELi0EEEvPT_, symObjAddr: 0x1F9C, symBinAddr: 0x2B740, symSize: 0x44 }
  - { offset: 0x3F1CC4, size: 0x8, addend: 0x0, symName: __ZNSt3__115allocate_sharedB8ne200100IN8facebook5react12ImageManagerENS_9allocatorIS3_EEJRNS_10shared_ptrIKNS2_16ContextContainerEEEELi0EEENS6_IT_EERKT0_DpOT1_, symObjAddr: 0x3EA0, symBinAddr: 0x2C774, symSize: 0x58 }
  - { offset: 0x3F21AA, size: 0x8, addend: 0x0, symName: __ZNSt3__115allocate_sharedB8ne200100IN8facebook5react20RNSVGImageShadowNodeENS_9allocatorIS3_EEJRKNS2_18ShadowNodeFragmentERKNS_10shared_ptrIKNS2_16ShadowNodeFamilyEEENS2_16ShadowNodeTraitsEELi0EEENS9_IT_EERKT0_DpOT1_, symObjAddr: 0x4118, symBinAddr: 0x2C860, symSize: 0x70 }
  - { offset: 0x3F24D9, size: 0x8, addend: 0x0, symName: __ZNSt3__115allocate_sharedB8ne200100IN8facebook5react20RNSVGImageShadowNodeENS_9allocatorIS3_EEJRKNS2_10ShadowNodeERKNS2_18ShadowNodeFragmentEELi0EEENS_10shared_ptrIT_EERKT0_DpOT1_, symObjAddr: 0x4764, symBinAddr: 0x2CBD0, symSize: 0x60 }
  - { offset: 0x3F2E5E, size: 0x8, addend: 0x0, symName: __ZNSt3__115allocate_sharedB8ne200100IN8facebook5react13ConcreteStateINS2_15RNSVGImageStateEEENS_9allocatorIS5_EEJNS_10shared_ptrIKS4_EERKNS8_IKNS2_16ShadowNodeFamilyEEEELi0EEENS8_IT_EERKT0_DpOT1_, symObjAddr: 0x4EC0, symBinAddr: 0x2D27C, symSize: 0x60 }
  - { offset: 0x3F3199, size: 0x8, addend: 0x0, symName: __ZNSt3__115allocate_sharedB8ne200100IKN8facebook5react13ConcreteStateINS2_15RNSVGImageStateEEENS_9allocatorIS5_EEJNS_10shared_ptrIKS4_EERKNS2_5StateEELi0EEENS9_IT_EERKT0_DpOT1_, symObjAddr: 0x5BE0, symBinAddr: 0x2DDE4, symSize: 0x60 }
  - { offset: 0x3F390F, size: 0x8, addend: 0x0, symName: __ZNSt3__115allocate_sharedB8ne200100IKN8facebook5react22RNSVGImageEventEmitterENS_9allocatorIS3_EEJNS_10shared_ptrINS2_11EventTargetEEERKNS_8weak_ptrIKNS2_15EventDispatcherEEEELi0EEENS7_IT_EERKT0_DpOT1_, symObjAddr: 0x5DF4, symBinAddr: 0x2DFF8, symSize: 0x60 }
  - { offset: 0x3F3BCC, size: 0x8, addend: 0x0, symName: __ZNSt3__115allocate_sharedB8ne200100IN8facebook5react16ShadowNodeFamilyENS_9allocatorIS3_EEJRKNS2_24ShadowNodeFamilyFragmentERNS_10shared_ptrIKNS2_22RNSVGImageEventEmitterEEERKNS_8weak_ptrIKNS2_15EventDispatcherEEERKNS2_27ConcreteComponentDescriptorINS2_20RNSVGImageShadowNodeEEEELi0EEENS9_IT_EERKT0_DpOT1_, symObjAddr: 0x64C0, symBinAddr: 0x2E298, symSize: 0x78 }
  - { offset: 0x3F4B8A, size: 0x8, addend: 0x0, symName: __ZNSt3__112__destroy_atB8ne200100IN8facebook5react20RNSVGImageShadowNodeELi0EEEvPT_, symObjAddr: 0x4694, symBinAddr: 0x2CB58, symSize: 0x78 }
  - { offset: 0x3F524A, size: 0x8, addend: 0x0, symName: __ZNSt3__115allocate_sharedB8ne200100IN8facebook5react15RNSVGImagePropsENS_9allocatorIS3_EEJRKNS2_18PropsParserContextERKS3_RKNS2_8RawPropsEELi0EEENS_10shared_ptrIT_EERKT0_DpOT1_, symObjAddr: 0x4990, symBinAddr: 0x2CDA4, symSize: 0x70 }
  - { offset: 0x3F596C, size: 0x8, addend: 0x0, symName: __ZNSt3__115allocate_sharedB8ne200100IN8facebook5react14SharedFunctionIJEE4PairENS_9allocatorIS5_EEJNS_8functionIFvvEEEELi0EEENS_10shared_ptrIT_EERKT0_DpOT1_, symObjAddr: 0x561C, symBinAddr: 0x2D9D8, symSize: 0x58 }
  - { offset: 0x3F60A7, size: 0x8, addend: 0x0, symName: __ZNSt3__112construct_atB8ne200100IN8facebook5react13ConcreteStateINS2_15RNSVGImageStateEEEJNS_10shared_ptrIKS4_EERKNS6_IKNS2_16ShadowNodeFamilyEEEEPS5_EEPT_SG_DpOT0_, symObjAddr: 0x4FB4, symBinAddr: 0x2D370, symSize: 0xC8 }
  - { offset: 0x3F63D4, size: 0x8, addend: 0x0, symName: __ZNSt3__112__destroy_atB8ne200100IN8facebook5react15RNSVGImageStateELi0EEEvPT_, symObjAddr: 0x51EC, symBinAddr: 0x2D5A8, symSize: 0x7C }
  - { offset: 0x3F6B99, size: 0x8, addend: 0x0, symName: __ZNSt3__135__uninitialized_allocator_copy_implB8ne200100INS_9allocatorINS_4pairINS_12basic_stringIcNS_11char_traitsIcEENS1_IcEEEES7_EEEEPS8_SA_SA_EET2_RT_T0_T1_SB_, symObjAddr: 0x5508, symBinAddr: 0x2D8C4, symSize: 0x84 }
  - { offset: 0x3F6DAB, size: 0x8, addend: 0x0, symName: __ZNSt3__119__allocate_at_leastB8ne200100INS_9allocatorINS_4pairINS_12basic_stringIcNS_11char_traitsIcEENS1_IcEEEES7_EEEEEENS_19__allocation_resultINS_16allocator_traitsIT_E7pointerEEERSC_m, symObjAddr: 0x54C4, symBinAddr: 0x2D880, symSize: 0x44 }
  - { offset: 0x3F6E60, size: 0x8, addend: 0x0, symName: __ZNSt3__135__uninitialized_allocator_copy_implB8ne200100INS_9allocatorINS_4pairINS_12basic_stringIcNS_11char_traitsIcEENS1_IcEEEES7_EEEEPS8_SA_SA_EET2_RT_T0_T1_SB_, symObjAddr: 0x5508, symBinAddr: 0x2D8C4, symSize: 0x84 }
  - { offset: 0x3F7492, size: 0x8, addend: 0x0, symName: __ZNSt3__112__destroy_atB8ne200100IN8facebook5react14SharedFunctionIJEE4PairELi0EEEvPT_, symObjAddr: 0x57CC, symBinAddr: 0x2DB88, symSize: 0x64 }
  - { offset: 0x3F7EB4, size: 0x8, addend: 0x0, symName: __ZNSt3__112construct_atB8ne200100IN8facebook5react13ConcreteStateINS2_15RNSVGImageStateEEEJNS_10shared_ptrIKS4_EERKNS2_5StateEEPS5_EEPT_SE_DpOT0_, symObjAddr: 0x5CD4, symBinAddr: 0x2DED8, symSize: 0x88 }
  - { offset: 0x3F8502, size: 0x8, addend: 0x0, symName: __ZNSt3__112construct_atB8ne200100IN8facebook5react22RNSVGImageEventEmitterEJNS_10shared_ptrINS2_11EventTargetEEERKNS_8weak_ptrIKNS2_15EventDispatcherEEEEPS3_EEPT_SF_DpOT0_, symObjAddr: 0x5EE8, symBinAddr: 0x2E0EC, symSize: 0x140 }
  - { offset: 0x3F9181, size: 0x8, addend: 0x0, symName: __ZNSt3__112construct_atB8ne200100IN8facebook5react16ShadowNodeFamilyEJRKNS2_24ShadowNodeFamilyFragmentERNS_10shared_ptrIKNS2_22RNSVGImageEventEmitterEEERKNS_8weak_ptrIKNS2_15EventDispatcherEEERKNS2_27ConcreteComponentDescriptorINS2_20RNSVGImageShadowNodeEEEEPS3_EEPT_SP_DpOT0_, symObjAddr: 0x65C8, symBinAddr: 0x2E35C, symSize: 0xDC }
  - { offset: 0x3FA472, size: 0x8, addend: 0x0, symName: __ZSt28__throw_bad_array_new_lengthB8ne200100v, symObjAddr: 0x1E84, symBinAddr: 0x2B6A8, symSize: 0x28 }
  - { offset: 0x3FA672, size: 0x8, addend: 0x0, symName: '-[RNSVGImage initWithFrame:]', symObjAddr: 0x34, symBinAddr: 0x29BC0, symSize: 0x12C }
  - { offset: 0x3FA69B, size: 0x8, addend: 0x0, symName: '__ZZ28-[RNSVGImage initWithFrame:]E12defaultProps', symObjAddr: 0x1BBF50, symBinAddr: 0xB0500, symSize: 0x0 }
  - { offset: 0x3FE458, size: 0x8, addend: 0x0, symName: __ZN8facebook5react18ConcreteShadowNodeIXadL_ZNS0_23RNSVGImageComponentNameEEENS0_24YogaLayoutableShadowNodeENS0_15RNSVGImagePropsENS0_22RNSVGImageEventEmitterENS0_15RNSVGImageStateEE18defaultSharedPropsEv, symObjAddr: 0x489C, symBinAddr: 0x2CCB0, symSize: 0x9C }
  - { offset: 0x3FE477, size: 0x8, addend: 0x0, symName: __ZZN8facebook5react18ConcreteShadowNodeIXadL_ZNS0_23RNSVGImageComponentNameEEENS0_24YogaLayoutableShadowNodeENS0_15RNSVGImagePropsENS0_22RNSVGImageEventEmitterENS0_15RNSVGImageStateEE18defaultSharedPropsEvE18defaultSharedProps, symObjAddr: 0x9830, symBinAddr: 0xAFB70, symSize: 0x0 }
  - { offset: 0x3FE4B5, size: 0x8, addend: 0x0, symName: __ZL20MinimalLayoutMetrics, symObjAddr: 0xA168, symBinAddr: 0x75D58, symSize: 0x0 }
  - { offset: 0x3FEFCA, size: 0x8, addend: 0x0, symName: '+[RNSVGImage load]', symObjAddr: 0x0, symBinAddr: 0x29B8C, symSize: 0x34 }
  - { offset: 0x3FF16A, size: 0x8, addend: 0x0, symName: __ZNSt3__110shared_ptrIKN8facebook5react15RNSVGImagePropsEED1B8ne200100Ev, symObjAddr: 0x160, symBinAddr: 0x29CEC, symSize: 0x4 }
  - { offset: 0x3FF18E, size: 0x8, addend: 0x0, symName: __ZNSt3__110shared_ptrIKN8facebook5react15RNSVGImagePropsEED1B8ne200100Ev, symObjAddr: 0x160, symBinAddr: 0x29CEC, symSize: 0x4 }
  - { offset: 0x3FF396, size: 0x8, addend: 0x0, symName: '+[RNSVGImage componentDescriptorProvider]', symObjAddr: 0x1DC, symBinAddr: 0x29CF0, symSize: 0x20 }
  - { offset: 0x3FF3CA, size: 0x8, addend: 0x0, symName: '+[RNSVGImage componentDescriptorProvider]', symObjAddr: 0x1DC, symBinAddr: 0x29CF0, symSize: 0x20 }
  - { offset: 0x3FF60A, size: 0x8, addend: 0x0, symName: '-[RNSVGImage updateProps:oldProps:]', symObjAddr: 0x1FC, symBinAddr: 0x29D10, symSize: 0x2AC }
  - { offset: 0x3FFA03, size: 0x8, addend: 0x0, symName: __ZL28RNSVGConvertFollyDynamicToIdRKN5folly7dynamicE, symObjAddr: 0x4A8, symBinAddr: 0x29FBC, symSize: 0x274 }
  - { offset: 0x3FFEBA, size: 0x8, addend: 0x0, symName: __Z24setCommonRenderablePropsIN8facebook5react15RNSVGImagePropsEEvRKT_P15RNSVGRenderable, symObjAddr: 0x71C, symBinAddr: 0x2A230, symSize: 0x484 }
  - { offset: 0x400A9C, size: 0x8, addend: 0x0, symName: __Z18setCommonNodePropsIN8facebook5react15RNSVGImagePropsEEvRKT_P9RNSVGNode, symObjAddr: 0x67EC, symBinAddr: 0x2E478, symSize: 0x6A0 }
  - { offset: 0x401C16, size: 0x8, addend: 0x0, symName: __ZNSt3__16vectorINS_4pairINS_12basic_stringIcNS_11char_traitsIcEENS_9allocatorIcEEEES7_EENS5_IS8_EEE16__destroy_vectorclB8ne200100Ev, symObjAddr: 0x1F2C, symBinAddr: 0x2B6D0, symSize: 0x70 }
  - { offset: 0x401DE6, size: 0x8, addend: 0x0, symName: '-[RNSVGImage updateState:oldState:]', symObjAddr: 0xC04, symBinAddr: 0x2A6B4, symSize: 0x100 }
  - { offset: 0x4022B2, size: 0x8, addend: 0x0, symName: '-[RNSVGImage _setStateAndResubscribeImageResponseObserver:]', symObjAddr: 0xD04, symBinAddr: 0x2A7B4, symSize: 0x8C }
  - { offset: 0x4026FB, size: 0x8, addend: 0x0, symName: '-[RNSVGImage didReceiveImage:metadata:fromObserver:]', symObjAddr: 0xE08, symBinAddr: 0x2A840, symSize: 0x1D0 }
  - { offset: 0x4030E8, size: 0x8, addend: 0x0, symName: __ZNSt3__16vectorINS_4pairINS_12basic_stringIcNS_11char_traitsIcEENS_9allocatorIcEEEES7_EENS5_IS8_EEE16__destroy_vectorclB8ne200100Ev, symObjAddr: 0x1F2C, symBinAddr: 0x2B6D0, symSize: 0x70 }
  - { offset: 0x403238, size: 0x8, addend: 0x0, symName: __ZN8facebook5react11ImageSourceD1Ev, symObjAddr: 0x10A4, symBinAddr: 0x2AADC, symSize: 0x78 }
  - { offset: 0x40378B, size: 0x8, addend: 0x0, symName: '___52-[RNSVGImage didReceiveImage:metadata:fromObserver:]_block_invoke', symObjAddr: 0xFD8, symBinAddr: 0x2AA10, symSize: 0x7C }
  - { offset: 0x40383C, size: 0x8, addend: 0x0, symName: ___copy_helper_block_ea8_32s40s, symObjAddr: 0x1054, symBinAddr: 0x2AA8C, symSize: 0x28 }
  - { offset: 0x403865, size: 0x8, addend: 0x0, symName: ___destroy_helper_block_ea8_32s40s, symObjAddr: 0x107C, symBinAddr: 0x2AAB4, symSize: 0x28 }
  - { offset: 0x403884, size: 0x8, addend: 0x0, symName: '-[RNSVGImage didReceiveFailure:fromObserver:]', symObjAddr: 0x111C, symBinAddr: 0x2AB54, symSize: 0x34 }
  - { offset: 0x4038E8, size: 0x8, addend: 0x0, symName: '-[RNSVGImage didReceiveProgress:loaded:total:fromObserver:]', symObjAddr: 0x1150, symBinAddr: 0x2AB88, symSize: 0x4 }
  - { offset: 0x403941, size: 0x8, addend: 0x0, symName: '-[RNSVGImage didReceiveProgress:fromObserver:]', symObjAddr: 0x1154, symBinAddr: 0x2AB8C, symSize: 0x4 }
  - { offset: 0x403984, size: 0x8, addend: 0x0, symName: '-[RNSVGImage didReceiveFailureFromObserver:]', symObjAddr: 0x1158, symBinAddr: 0x2AB90, symSize: 0x34 }
  - { offset: 0x403A11, size: 0x8, addend: 0x0, symName: '-[RNSVGImage prepareForRecycle]', symObjAddr: 0x118C, symBinAddr: 0x2ABC4, symSize: 0x15C }
  - { offset: 0x403B77, size: 0x8, addend: 0x0, symName: '-[RNSVGImage setSrc:]', symObjAddr: 0x12E8, symBinAddr: 0x2AD20, symSize: 0x4 }
  - { offset: 0x403BAF, size: 0x8, addend: 0x0, symName: '-[RNSVGImage setX:]', symObjAddr: 0x12EC, symBinAddr: 0x2AD24, symSize: 0x78 }
  - { offset: 0x403BF2, size: 0x8, addend: 0x0, symName: '-[RNSVGImage setY:]', symObjAddr: 0x1364, symBinAddr: 0x2AD9C, symSize: 0x78 }
  - { offset: 0x403C35, size: 0x8, addend: 0x0, symName: '-[RNSVGImage setImagewidth:]', symObjAddr: 0x13DC, symBinAddr: 0x2AE14, symSize: 0x78 }
  - { offset: 0x403C78, size: 0x8, addend: 0x0, symName: '-[RNSVGImage setImageheight:]', symObjAddr: 0x1454, symBinAddr: 0x2AE8C, symSize: 0x78 }
  - { offset: 0x403CBB, size: 0x8, addend: 0x0, symName: '-[RNSVGImage setAlign:]', symObjAddr: 0x14CC, symBinAddr: 0x2AF04, symSize: 0x78 }
  - { offset: 0x403CFE, size: 0x8, addend: 0x0, symName: '-[RNSVGImage setMeetOrSlice:]', symObjAddr: 0x1544, symBinAddr: 0x2AF7C, symSize: 0x44 }
  - { offset: 0x403D41, size: 0x8, addend: 0x0, symName: '-[RNSVGImage dealloc]', symObjAddr: 0x1588, symBinAddr: 0x2AFC0, symSize: 0x80 }
  - { offset: 0x403DBA, size: 0x8, addend: 0x0, symName: '-[RNSVGImage renderLayerTo:rect:]', symObjAddr: 0x1618, symBinAddr: 0x2B040, symSize: 0x358 }
  - { offset: 0x4040F8, size: 0x8, addend: 0x0, symName: '-[RNSVGImage getHitArea]', symObjAddr: 0x1970, symBinAddr: 0x2B398, symSize: 0x10C }
  - { offset: 0x404172, size: 0x8, addend: 0x0, symName: '-[RNSVGImage getPath:]', symObjAddr: 0x1A7C, symBinAddr: 0x2B4A4, symSize: 0x1C }
  - { offset: 0x4041EA, size: 0x8, addend: 0x0, symName: '-[RNSVGImage bridge]', symObjAddr: 0x1A98, symBinAddr: 0x2B4C0, symSize: 0x20 }
  - { offset: 0x404220, size: 0x8, addend: 0x0, symName: '-[RNSVGImage setBridge:]', symObjAddr: 0x1AB8, symBinAddr: 0x2B4E0, symSize: 0x14 }
  - { offset: 0x404260, size: 0x8, addend: 0x0, symName: '-[RNSVGImage src]', symObjAddr: 0x1ACC, symBinAddr: 0x2B4F4, symSize: 0x10 }
  - { offset: 0x404296, size: 0x8, addend: 0x0, symName: '-[RNSVGImage x]', symObjAddr: 0x1ADC, symBinAddr: 0x2B504, symSize: 0x10 }
  - { offset: 0x4042CC, size: 0x8, addend: 0x0, symName: '-[RNSVGImage y]', symObjAddr: 0x1AEC, symBinAddr: 0x2B514, symSize: 0x10 }
  - { offset: 0x404302, size: 0x8, addend: 0x0, symName: '-[RNSVGImage imagewidth]', symObjAddr: 0x1AFC, symBinAddr: 0x2B524, symSize: 0x10 }
  - { offset: 0x404338, size: 0x8, addend: 0x0, symName: '-[RNSVGImage imageheight]', symObjAddr: 0x1B0C, symBinAddr: 0x2B534, symSize: 0x10 }
  - { offset: 0x40436E, size: 0x8, addend: 0x0, symName: '-[RNSVGImage align]', symObjAddr: 0x1B1C, symBinAddr: 0x2B544, symSize: 0x10 }
  - { offset: 0x4043A4, size: 0x8, addend: 0x0, symName: '-[RNSVGImage meetOrSlice]', symObjAddr: 0x1B2C, symBinAddr: 0x2B554, symSize: 0x10 }
  - { offset: 0x4043DA, size: 0x8, addend: 0x0, symName: '-[RNSVGImage onLoad]', symObjAddr: 0x1B3C, symBinAddr: 0x2B564, symSize: 0x10 }
  - { offset: 0x404410, size: 0x8, addend: 0x0, symName: '-[RNSVGImage setOnLoad:]', symObjAddr: 0x1B4C, symBinAddr: 0x2B574, symSize: 0xC }
  - { offset: 0x404450, size: 0x8, addend: 0x0, symName: '-[RNSVGImage .cxx_destruct]', symObjAddr: 0x1B58, symBinAddr: 0x2B580, symSize: 0xD8 }
  - { offset: 0x404510, size: 0x8, addend: 0x0, symName: '-[RNSVGImage .cxx_construct]', symObjAddr: 0x1C30, symBinAddr: 0x2B658, symSize: 0x44 }
  - { offset: 0x404582, size: 0x8, addend: 0x0, symName: __Z13RNSVGImageClsv, symObjAddr: 0x1C74, symBinAddr: 0x2B69C, symSize: 0xC }
  - { offset: 0x404D3E, size: 0x8, addend: 0x0, symName: __ZNSt3__120__shared_ptr_emplaceIKN8facebook5react15RNSVGImagePropsENS_9allocatorIS3_EEEC2B8ne200100IJES6_Li0EEES6_DpOT_, symObjAddr: 0x2028, symBinAddr: 0x2B7CC, symSize: 0x58 }
  - { offset: 0x404EBD, size: 0x8, addend: 0x0, symName: __ZN8facebook5react15RNSVGImagePropsC1Ev, symObjAddr: 0x20CC, symBinAddr: 0x2B870, symSize: 0x15C }
  - { offset: 0x4057AD, size: 0x8, addend: 0x0, symName: __ZNSt3__120__shared_ptr_emplaceIKN8facebook5react15RNSVGImagePropsENS_9allocatorIS3_EEED1Ev, symObjAddr: 0x2080, symBinAddr: 0x2B824, symSize: 0x14 }
  - { offset: 0x4057D1, size: 0x8, addend: 0x0, symName: __ZNSt3__120__shared_ptr_emplaceIKN8facebook5react15RNSVGImagePropsENS_9allocatorIS3_EEED1Ev, symObjAddr: 0x2080, symBinAddr: 0x2B824, symSize: 0x14 }
  - { offset: 0x405807, size: 0x8, addend: 0x0, symName: __ZNSt3__120__shared_ptr_emplaceIKN8facebook5react15RNSVGImagePropsENS_9allocatorIS3_EEED0Ev, symObjAddr: 0x2094, symBinAddr: 0x2B838, symSize: 0x24 }
  - { offset: 0x4058F3, size: 0x8, addend: 0x0, symName: __ZNSt3__120__shared_ptr_emplaceIKN8facebook5react15RNSVGImagePropsENS_9allocatorIS3_EEE16__on_zero_sharedEv, symObjAddr: 0x20B8, symBinAddr: 0x2B85C, symSize: 0x10 }
  - { offset: 0x40591C, size: 0x8, addend: 0x0, symName: __ZNSt3__120__shared_ptr_emplaceIKN8facebook5react15RNSVGImagePropsENS_9allocatorIS3_EEE16__on_zero_sharedEv, symObjAddr: 0x20B8, symBinAddr: 0x2B85C, symSize: 0x10 }
  - { offset: 0x405990, size: 0x8, addend: 0x0, symName: __ZN8facebook5react15RNSVGImagePropsD2Ev, symObjAddr: 0x2EF4, symBinAddr: 0x2B9F4, symSize: 0x18C }
  - { offset: 0x406E4F, size: 0x8, addend: 0x0, symName: __ZNSt3__120__shared_ptr_emplaceIKN8facebook5react15RNSVGImagePropsENS_9allocatorIS3_EEE21__on_zero_shared_weakEv, symObjAddr: 0x20C8, symBinAddr: 0x2B86C, symSize: 0x4 }
  - { offset: 0x406E82, size: 0x8, addend: 0x0, symName: __ZNSt3__120__shared_ptr_emplaceIKN8facebook5react15RNSVGImagePropsENS_9allocatorIS3_EEE21__on_zero_shared_weakEv, symObjAddr: 0x20C8, symBinAddr: 0x2B86C, symSize: 0x4 }
  - { offset: 0x406EA6, size: 0x8, addend: 0x0, symName: __ZNSt3__120__shared_ptr_emplaceIKN8facebook5react15RNSVGImagePropsENS_9allocatorIS3_EEE21__on_zero_shared_weakEv, symObjAddr: 0x20C8, symBinAddr: 0x2B86C, symSize: 0x4 }
  - { offset: 0x406ECB, size: 0x8, addend: 0x0, symName: __ZNSt3__120__shared_ptr_emplaceIKN8facebook5react15RNSVGImagePropsENS_9allocatorIS3_EEE21__on_zero_shared_weakEv, symObjAddr: 0x20C8, symBinAddr: 0x2B86C, symSize: 0x4 }
  - { offset: 0x406F03, size: 0x8, addend: 0x0, symName: __ZNSt3__120__shared_ptr_emplaceIKN8facebook5react15RNSVGImagePropsENS_9allocatorIS3_EEE21__on_zero_shared_weakEv, symObjAddr: 0x20C8, symBinAddr: 0x2B86C, symSize: 0x4 }
  - { offset: 0x40B220, size: 0x8, addend: 0x0, symName: __ZN8facebook5react15RNSVGImagePropsD1Ev, symObjAddr: 0x2744, symBinAddr: 0x2B9CC, symSize: 0xC }
  - { offset: 0x40B257, size: 0x8, addend: 0x0, symName: __ZN8facebook5react15RNSVGImagePropsD0Ev, symObjAddr: 0x2750, symBinAddr: 0x2B9D8, symSize: 0x1C }
  - { offset: 0x40C9E5, size: 0x8, addend: 0x0, symName: __ZN8facebook5react29RNSVGImageComponentDescriptorC2ERKNS0_29ComponentDescriptorParametersE, symObjAddr: 0x3144, symBinAddr: 0x2BBEC, symSize: 0xE0 }
  - { offset: 0x40CF60, size: 0x8, addend: 0x0, symName: __ZNSt3__110unique_ptrIKN8facebook5react29RNSVGImageComponentDescriptorENS_14default_deleteIS4_EEE5resetB8ne200100EPS4_, symObjAddr: 0x67AC, symBinAddr: 0x2E438, symSize: 0x40 }
  - { offset: 0x40D488, size: 0x8, addend: 0x0, symName: __ZN8facebook5react14RawPropsParser7prepareINS0_15RNSVGImagePropsEEEvv, symObjAddr: 0x3B24, symBinAddr: 0x2C57C, symSize: 0x1DC }
  - { offset: 0x40E092, size: 0x8, addend: 0x0, symName: __ZN8facebook5react29RNSVGImageComponentDescriptorD1Ev, symObjAddr: 0x3274, symBinAddr: 0x2BCCC, symSize: 0x28 }
  - { offset: 0x40E19F, size: 0x8, addend: 0x0, symName: __ZN8facebook5react29RNSVGImageComponentDescriptorD0Ev, symObjAddr: 0x329C, symBinAddr: 0x2BCF4, symSize: 0x2C }
  - { offset: 0x40E260, size: 0x8, addend: 0x0, symName: __ZNK8facebook5react27ConcreteComponentDescriptorINS0_20RNSVGImageShadowNodeEE18getComponentHandleEv, symObjAddr: 0x32C8, symBinAddr: 0x2BD20, symSize: 0xC }
  - { offset: 0x40E286, size: 0x8, addend: 0x0, symName: __ZNK8facebook5react27ConcreteComponentDescriptorINS0_20RNSVGImageShadowNodeEE16getComponentNameEv, symObjAddr: 0x32D4, symBinAddr: 0x2BD2C, symSize: 0xC }
  - { offset: 0x40E2AC, size: 0x8, addend: 0x0, symName: __ZNK8facebook5react27ConcreteComponentDescriptorINS0_20RNSVGImageShadowNodeEE9getTraitsEv, symObjAddr: 0x32E0, symBinAddr: 0x2BD38, symSize: 0x8 }
  - { offset: 0x40E3A6, size: 0x8, addend: 0x0, symName: __ZNK8facebook5react27ConcreteComponentDescriptorINS0_20RNSVGImageShadowNodeEE16createShadowNodeERKNS0_18ShadowNodeFragmentERKNSt3__110shared_ptrIKNS0_16ShadowNodeFamilyEEE, symObjAddr: 0x32E8, symBinAddr: 0x2BD40, symSize: 0x90 }
  - { offset: 0x40E63B, size: 0x8, addend: 0x0, symName: __ZNK8facebook5react27ConcreteComponentDescriptorINS0_20RNSVGImageShadowNodeEE15cloneShadowNodeERKNS0_10ShadowNodeERKNS0_18ShadowNodeFragmentE, symObjAddr: 0x3378, symBinAddr: 0x2BDD0, symSize: 0xFC }
  - { offset: 0x40E9BC, size: 0x8, addend: 0x0, symName: __ZNK8facebook5react27ConcreteComponentDescriptorINS0_20RNSVGImageShadowNodeEE11appendChildERKNSt3__110shared_ptrIKNS0_10ShadowNodeEEESA_, symObjAddr: 0x3474, symBinAddr: 0x2BECC, symSize: 0xC }
  - { offset: 0x40EA18, size: 0x8, addend: 0x0, symName: __ZNK8facebook5react27ConcreteComponentDescriptorINS0_20RNSVGImageShadowNodeEE11appendChildERKNSt3__110shared_ptrIKNS0_10ShadowNodeEEESA_, symObjAddr: 0x3474, symBinAddr: 0x2BECC, symSize: 0xC }
  - { offset: 0x40F14D, size: 0x8, addend: 0x0, symName: __ZNK8facebook5react27ConcreteComponentDescriptorINS0_20RNSVGImageShadowNodeEE10clonePropsERKNS0_18PropsParserContextERKNSt3__110shared_ptrIKNS0_5PropsEEENS0_8RawPropsE, symObjAddr: 0x3480, symBinAddr: 0x2BED8, symSize: 0x21C }
  - { offset: 0x40FD04, size: 0x8, addend: 0x0, symName: __ZN8facebook5react18ConcreteShadowNodeIXadL_ZNS0_23RNSVGImageComponentNameEEENS0_24YogaLayoutableShadowNodeENS0_15RNSVGImagePropsENS0_22RNSVGImageEventEmitterENS0_15RNSVGImageStateEE5PropsERKNS0_18PropsParserContextERKNS0_8RawPropsERKNSt3__110shared_ptrIKNS0_5PropsEEE, symObjAddr: 0x4938, symBinAddr: 0x2CD4C, symSize: 0x58 }
  - { offset: 0x410405, size: 0x8, addend: 0x0, symName: __ZNK8facebook5react27ConcreteComponentDescriptorINS0_20RNSVGImageShadowNodeEE18createInitialStateERKNSt3__110shared_ptrIKNS0_5PropsEEERKNS5_IKNS0_16ShadowNodeFamilyEEE, symObjAddr: 0x369C, symBinAddr: 0x2C0F4, symSize: 0x20C }
  - { offset: 0x410FD8, size: 0x8, addend: 0x0, symName: __ZN8facebook5react20RNSVGImageShadowNode16initialStateDataERKNSt3__110shared_ptrIKNS0_5PropsEEERKNS3_IKNS0_16ShadowNodeFamilyEEERKNS0_19ComponentDescriptorE, symObjAddr: 0x4AF0, symBinAddr: 0x2CEAC, symSize: 0x350 }
  - { offset: 0x4124FC, size: 0x8, addend: 0x0, symName: __ZN8facebook5react15RNSVGImageStateD1Ev, symObjAddr: 0x4E40, symBinAddr: 0x2D1FC, symSize: 0x80 }
  - { offset: 0x412BD5, size: 0x8, addend: 0x0, symName: __ZNK8facebook5react27ConcreteComponentDescriptorINS0_20RNSVGImageShadowNodeEE11createStateERKNS0_16ShadowNodeFamilyERKNSt3__110shared_ptrIKvEE, symObjAddr: 0x38A8, symBinAddr: 0x2C300, symSize: 0x104 }
  - { offset: 0x41320B, size: 0x8, addend: 0x0, symName: __ZNK8facebook5react27ConcreteComponentDescriptorINS0_20RNSVGImageShadowNodeEE12createFamilyERKNS0_24ShadowNodeFamilyFragmentE, symObjAddr: 0x39AC, symBinAddr: 0x2C404, symSize: 0x168 }
  - { offset: 0x4137AC, size: 0x8, addend: 0x0, symName: __ZNK8facebook5react29RNSVGImageComponentDescriptor5adoptERNS0_10ShadowNodeE, symObjAddr: 0x3B14, symBinAddr: 0x2C56C, symSize: 0x10 }
  - { offset: 0x413E7D, size: 0x8, addend: 0x0, symName: __ZN8facebook5react27ConcreteComponentDescriptorINS0_20RNSVGImageShadowNodeEED1Ev, symObjAddr: 0x3D00, symBinAddr: 0x2C758, symSize: 0x4 }
  - { offset: 0x413EA1, size: 0x8, addend: 0x0, symName: __ZN8facebook5react27ConcreteComponentDescriptorINS0_20RNSVGImageShadowNodeEED1Ev, symObjAddr: 0x3D00, symBinAddr: 0x2C758, symSize: 0x4 }
  - { offset: 0x413EC0, size: 0x8, addend: 0x0, symName: __ZN8facebook5react27ConcreteComponentDescriptorINS0_20RNSVGImageShadowNodeEED1Ev, symObjAddr: 0x3D00, symBinAddr: 0x2C758, symSize: 0x4 }
  - { offset: 0x413EEF, size: 0x8, addend: 0x0, symName: __ZN8facebook5react27ConcreteComponentDescriptorINS0_20RNSVGImageShadowNodeEED0Ev, symObjAddr: 0x3D04, symBinAddr: 0x2C75C, symSize: 0x14 }
  - { offset: 0x413F6E, size: 0x8, addend: 0x0, symName: __ZNK8facebook5react27ConcreteComponentDescriptorINS0_20RNSVGImageShadowNodeEE5adoptERNS0_10ShadowNodeE, symObjAddr: 0x3D18, symBinAddr: 0x2C770, symSize: 0x4 }
  - { offset: 0x414680, size: 0x8, addend: 0x0, symName: __ZNSt3__120__shared_ptr_emplaceIN8facebook5react12ImageManagerENS_9allocatorIS3_EEEC2B8ne200100IJRNS_10shared_ptrIKNS2_16ContextContainerEEEES5_Li0EEES5_DpOT_, symObjAddr: 0x3EF8, symBinAddr: 0x2C7CC, symSize: 0x4C }
  - { offset: 0x4147F7, size: 0x8, addend: 0x0, symName: __ZNSt3__120__shared_ptr_emplaceIN8facebook5react12ImageManagerENS_9allocatorIS3_EEED1Ev, symObjAddr: 0x3F44, symBinAddr: 0x2C818, symSize: 0x14 }
  - { offset: 0x41481B, size: 0x8, addend: 0x0, symName: __ZNSt3__120__shared_ptr_emplaceIN8facebook5react12ImageManagerENS_9allocatorIS3_EEED1Ev, symObjAddr: 0x3F44, symBinAddr: 0x2C818, symSize: 0x14 }
  - { offset: 0x414851, size: 0x8, addend: 0x0, symName: __ZNSt3__120__shared_ptr_emplaceIN8facebook5react12ImageManagerENS_9allocatorIS3_EEED0Ev, symObjAddr: 0x3F58, symBinAddr: 0x2C82C, symSize: 0x24 }
  - { offset: 0x414921, size: 0x8, addend: 0x0, symName: __ZNSt3__120__shared_ptr_emplaceIN8facebook5react12ImageManagerENS_9allocatorIS3_EEE16__on_zero_sharedEv, symObjAddr: 0x3F7C, symBinAddr: 0x2C850, symSize: 0xC }
  - { offset: 0x41494A, size: 0x8, addend: 0x0, symName: __ZNSt3__120__shared_ptr_emplaceIN8facebook5react12ImageManagerENS_9allocatorIS3_EEE16__on_zero_sharedEv, symObjAddr: 0x3F7C, symBinAddr: 0x2C850, symSize: 0xC }
  - { offset: 0x414969, size: 0x8, addend: 0x0, symName: __ZNSt3__120__shared_ptr_emplaceIN8facebook5react12ImageManagerENS_9allocatorIS3_EEE16__on_zero_sharedEv, symObjAddr: 0x3F7C, symBinAddr: 0x2C850, symSize: 0xC }
  - { offset: 0x414988, size: 0x8, addend: 0x0, symName: __ZNSt3__120__shared_ptr_emplaceIN8facebook5react12ImageManagerENS_9allocatorIS3_EEE16__on_zero_sharedEv, symObjAddr: 0x3F7C, symBinAddr: 0x2C850, symSize: 0xC }
  - { offset: 0x4149B4, size: 0x8, addend: 0x0, symName: __ZNSt3__120__shared_ptr_emplaceIN8facebook5react12ImageManagerENS_9allocatorIS3_EEE21__on_zero_shared_weakEv, symObjAddr: 0x3F88, symBinAddr: 0x2C85C, symSize: 0x4 }
  - { offset: 0x4149E7, size: 0x8, addend: 0x0, symName: __ZNSt3__120__shared_ptr_emplaceIN8facebook5react12ImageManagerENS_9allocatorIS3_EEE21__on_zero_shared_weakEv, symObjAddr: 0x3F88, symBinAddr: 0x2C85C, symSize: 0x4 }
  - { offset: 0x414A0B, size: 0x8, addend: 0x0, symName: __ZNSt3__120__shared_ptr_emplaceIN8facebook5react12ImageManagerENS_9allocatorIS3_EEE21__on_zero_shared_weakEv, symObjAddr: 0x3F88, symBinAddr: 0x2C85C, symSize: 0x4 }
  - { offset: 0x414A30, size: 0x8, addend: 0x0, symName: __ZNSt3__120__shared_ptr_emplaceIN8facebook5react12ImageManagerENS_9allocatorIS3_EEE21__on_zero_shared_weakEv, symObjAddr: 0x3F88, symBinAddr: 0x2C85C, symSize: 0x4 }
  - { offset: 0x414A67, size: 0x8, addend: 0x0, symName: __ZNSt3__120__shared_ptr_emplaceIN8facebook5react12ImageManagerENS_9allocatorIS3_EEE21__on_zero_shared_weakEv, symObjAddr: 0x3F88, symBinAddr: 0x2C85C, symSize: 0x4 }
  - { offset: 0x414E08, size: 0x8, addend: 0x0, symName: __ZNSt3__120__shared_ptr_emplaceIN8facebook5react20RNSVGImageShadowNodeENS_9allocatorIS3_EEEC2B8ne200100IJRKNS2_18ShadowNodeFragmentERKNS_10shared_ptrIKNS2_16ShadowNodeFamilyEEENS2_16ShadowNodeTraitsEES5_Li0EEES5_DpOT_, symObjAddr: 0x4188, symBinAddr: 0x2C8D0, symSize: 0x84 }
  - { offset: 0x4151FC, size: 0x8, addend: 0x0, symName: __ZN8facebook5react22ConcreteViewShadowNodeIXadL_ZNS0_23RNSVGImageComponentNameEEENS0_15RNSVGImagePropsENS0_22RNSVGImageEventEmitterENS0_15RNSVGImageStateEE10initializeEv, symObjAddr: 0x4250, symBinAddr: 0x2C998, symSize: 0x6C }
  - { offset: 0x415246, size: 0x8, addend: 0x0, symName: __ZN8facebook5react22ConcreteViewShadowNodeIXadL_ZNS0_23RNSVGImageComponentNameEEENS0_15RNSVGImagePropsENS0_22RNSVGImageEventEmitterENS0_15RNSVGImageStateEE10initializeEv, symObjAddr: 0x4250, symBinAddr: 0x2C998, symSize: 0x6C }
  - { offset: 0x415264, size: 0x8, addend: 0x0, symName: __ZN8facebook5react22ConcreteViewShadowNodeIXadL_ZNS0_23RNSVGImageComponentNameEEENS0_15RNSVGImagePropsENS0_22RNSVGImageEventEmitterENS0_15RNSVGImageStateEE10initializeEv, symObjAddr: 0x4250, symBinAddr: 0x2C998, symSize: 0x6C }
  - { offset: 0x415302, size: 0x8, addend: 0x0, symName: __ZNSt3__120__shared_ptr_emplaceIN8facebook5react20RNSVGImageShadowNodeENS_9allocatorIS3_EEED1Ev, symObjAddr: 0x420C, symBinAddr: 0x2C954, symSize: 0x14 }
  - { offset: 0x415326, size: 0x8, addend: 0x0, symName: __ZNSt3__120__shared_ptr_emplaceIN8facebook5react20RNSVGImageShadowNodeENS_9allocatorIS3_EEED1Ev, symObjAddr: 0x420C, symBinAddr: 0x2C954, symSize: 0x14 }
  - { offset: 0x41535C, size: 0x8, addend: 0x0, symName: __ZNSt3__120__shared_ptr_emplaceIN8facebook5react20RNSVGImageShadowNodeENS_9allocatorIS3_EEED0Ev, symObjAddr: 0x4220, symBinAddr: 0x2C968, symSize: 0x24 }
  - { offset: 0x41542C, size: 0x8, addend: 0x0, symName: __ZNSt3__120__shared_ptr_emplaceIN8facebook5react20RNSVGImageShadowNodeENS_9allocatorIS3_EEE16__on_zero_sharedEv, symObjAddr: 0x4244, symBinAddr: 0x2C98C, symSize: 0x8 }
  - { offset: 0x415455, size: 0x8, addend: 0x0, symName: __ZNSt3__120__shared_ptr_emplaceIN8facebook5react20RNSVGImageShadowNodeENS_9allocatorIS3_EEE16__on_zero_sharedEv, symObjAddr: 0x4244, symBinAddr: 0x2C98C, symSize: 0x8 }
  - { offset: 0x415474, size: 0x8, addend: 0x0, symName: __ZNSt3__120__shared_ptr_emplaceIN8facebook5react20RNSVGImageShadowNodeENS_9allocatorIS3_EEE16__on_zero_sharedEv, symObjAddr: 0x4244, symBinAddr: 0x2C98C, symSize: 0x8 }
  - { offset: 0x4154B2, size: 0x8, addend: 0x0, symName: __ZNSt3__120__shared_ptr_emplaceIN8facebook5react20RNSVGImageShadowNodeENS_9allocatorIS3_EEE21__on_zero_shared_weakEv, symObjAddr: 0x424C, symBinAddr: 0x2C994, symSize: 0x4 }
  - { offset: 0x4154E5, size: 0x8, addend: 0x0, symName: __ZNSt3__120__shared_ptr_emplaceIN8facebook5react20RNSVGImageShadowNodeENS_9allocatorIS3_EEE21__on_zero_shared_weakEv, symObjAddr: 0x424C, symBinAddr: 0x2C994, symSize: 0x4 }
  - { offset: 0x415509, size: 0x8, addend: 0x0, symName: __ZNSt3__120__shared_ptr_emplaceIN8facebook5react20RNSVGImageShadowNodeENS_9allocatorIS3_EEE21__on_zero_shared_weakEv, symObjAddr: 0x424C, symBinAddr: 0x2C994, symSize: 0x4 }
  - { offset: 0x41552E, size: 0x8, addend: 0x0, symName: __ZNSt3__120__shared_ptr_emplaceIN8facebook5react20RNSVGImageShadowNodeENS_9allocatorIS3_EEE21__on_zero_shared_weakEv, symObjAddr: 0x424C, symBinAddr: 0x2C994, symSize: 0x4 }
  - { offset: 0x415566, size: 0x8, addend: 0x0, symName: __ZNSt3__120__shared_ptr_emplaceIN8facebook5react20RNSVGImageShadowNodeENS_9allocatorIS3_EEE21__on_zero_shared_weakEv, symObjAddr: 0x424C, symBinAddr: 0x2C994, symSize: 0x4 }
  - { offset: 0x41584A, size: 0x8, addend: 0x0, symName: __ZN8facebook5react22ConcreteViewShadowNodeIXadL_ZNS0_23RNSVGImageComponentNameEEENS0_15RNSVGImagePropsENS0_22RNSVGImageEventEmitterENS0_15RNSVGImageStateEED1Ev, symObjAddr: 0x42BC, symBinAddr: 0x2CA04, symSize: 0x70 }
  - { offset: 0x415DE0, size: 0x8, addend: 0x0, symName: __ZN8facebook5react22ConcreteViewShadowNodeIXadL_ZNS0_23RNSVGImageComponentNameEEENS0_15RNSVGImagePropsENS0_22RNSVGImageEventEmitterENS0_15RNSVGImageStateEED0Ev, symObjAddr: 0x432C, symBinAddr: 0x2CA74, symSize: 0x74 }
  - { offset: 0x4161F2, size: 0x8, addend: 0x0, symName: __ZNK8facebook5react22ConcreteViewShadowNodeIXadL_ZNS0_23RNSVGImageComponentNameEEENS0_15RNSVGImagePropsENS0_22RNSVGImageEventEmitterENS0_15RNSVGImageStateEE12getTransformEv, symObjAddr: 0x43A0, symBinAddr: 0x2CAE8, symSize: 0x40 }
  - { offset: 0x416267, size: 0x8, addend: 0x0, symName: __ZNK8facebook5react22ConcreteViewShadowNodeIXadL_ZNS0_23RNSVGImageComponentNameEEENS0_15RNSVGImagePropsENS0_22RNSVGImageEventEmitterENS0_15RNSVGImageStateEE16canBeTouchTargetEv, symObjAddr: 0x43E0, symBinAddr: 0x2CB28, symSize: 0x18 }
  - { offset: 0x4162A1, size: 0x8, addend: 0x0, symName: __ZNK8facebook5react22ConcreteViewShadowNodeIXadL_ZNS0_23RNSVGImageComponentNameEEENS0_15RNSVGImagePropsENS0_22RNSVGImageEventEmitterENS0_15RNSVGImageStateEE16canBeTouchTargetEv, symObjAddr: 0x43E0, symBinAddr: 0x2CB28, symSize: 0x18 }
  - { offset: 0x4162BF, size: 0x8, addend: 0x0, symName: __ZNK8facebook5react22ConcreteViewShadowNodeIXadL_ZNS0_23RNSVGImageComponentNameEEENS0_15RNSVGImagePropsENS0_22RNSVGImageEventEmitterENS0_15RNSVGImageStateEE16canBeTouchTargetEv, symObjAddr: 0x43E0, symBinAddr: 0x2CB28, symSize: 0x18 }
  - { offset: 0x4162DD, size: 0x8, addend: 0x0, symName: __ZNK8facebook5react22ConcreteViewShadowNodeIXadL_ZNS0_23RNSVGImageComponentNameEEENS0_15RNSVGImagePropsENS0_22RNSVGImageEventEmitterENS0_15RNSVGImageStateEE24canChildrenBeTouchTargetEv, symObjAddr: 0x43F8, symBinAddr: 0x2CB40, symSize: 0x18 }
  - { offset: 0x416313, size: 0x8, addend: 0x0, symName: __ZNK8facebook5react22ConcreteViewShadowNodeIXadL_ZNS0_23RNSVGImageComponentNameEEENS0_15RNSVGImagePropsENS0_22RNSVGImageEventEmitterENS0_15RNSVGImageStateEE24canChildrenBeTouchTargetEv, symObjAddr: 0x43F8, symBinAddr: 0x2CB40, symSize: 0x18 }
  - { offset: 0x416331, size: 0x8, addend: 0x0, symName: __ZNK8facebook5react22ConcreteViewShadowNodeIXadL_ZNS0_23RNSVGImageComponentNameEEENS0_15RNSVGImagePropsENS0_22RNSVGImageEventEmitterENS0_15RNSVGImageStateEE24canChildrenBeTouchTargetEv, symObjAddr: 0x43F8, symBinAddr: 0x2CB40, symSize: 0x18 }
  - { offset: 0x4166EE, size: 0x8, addend: 0x0, symName: __ZNSt3__120__shared_ptr_emplaceIN8facebook5react20RNSVGImageShadowNodeENS_9allocatorIS3_EEEC2B8ne200100IJRKNS2_10ShadowNodeERKNS2_18ShadowNodeFragmentEES5_Li0EEES5_DpOT_, symObjAddr: 0x47C4, symBinAddr: 0x2CC30, symSize: 0x80 }
  - { offset: 0x416C8B, size: 0x8, addend: 0x0, symName: __ZNSt3__120__shared_ptr_emplaceIN8facebook5react15RNSVGImagePropsENS_9allocatorIS3_EEEC2B8ne200100IJRKNS2_18PropsParserContextERKS3_RKNS2_8RawPropsEES5_Li0EEES5_DpOT_, symObjAddr: 0x4A00, symBinAddr: 0x2CE14, symSize: 0x4C }
  - { offset: 0x416E79, size: 0x8, addend: 0x0, symName: __ZNSt3__120__shared_ptr_emplaceIN8facebook5react15RNSVGImagePropsENS_9allocatorIS3_EEED1Ev, symObjAddr: 0x4A4C, symBinAddr: 0x2CE60, symSize: 0x14 }
  - { offset: 0x416E9D, size: 0x8, addend: 0x0, symName: __ZNSt3__120__shared_ptr_emplaceIN8facebook5react15RNSVGImagePropsENS_9allocatorIS3_EEED1Ev, symObjAddr: 0x4A4C, symBinAddr: 0x2CE60, symSize: 0x14 }
  - { offset: 0x416ED3, size: 0x8, addend: 0x0, symName: __ZNSt3__120__shared_ptr_emplaceIN8facebook5react15RNSVGImagePropsENS_9allocatorIS3_EEED0Ev, symObjAddr: 0x4A60, symBinAddr: 0x2CE74, symSize: 0x24 }
  - { offset: 0x416F74, size: 0x8, addend: 0x0, symName: __ZNSt3__120__shared_ptr_emplaceIN8facebook5react15RNSVGImagePropsENS_9allocatorIS3_EEE16__on_zero_sharedEv, symObjAddr: 0x4A84, symBinAddr: 0x2CE98, symSize: 0x10 }
  - { offset: 0x416F9D, size: 0x8, addend: 0x0, symName: __ZNSt3__120__shared_ptr_emplaceIN8facebook5react15RNSVGImagePropsENS_9allocatorIS3_EEE16__on_zero_sharedEv, symObjAddr: 0x4A84, symBinAddr: 0x2CE98, symSize: 0x10 }
  - { offset: 0x417011, size: 0x8, addend: 0x0, symName: __ZNSt3__120__shared_ptr_emplaceIN8facebook5react15RNSVGImagePropsENS_9allocatorIS3_EEE21__on_zero_shared_weakEv, symObjAddr: 0x4A94, symBinAddr: 0x2CEA8, symSize: 0x4 }
  - { offset: 0x417044, size: 0x8, addend: 0x0, symName: __ZNSt3__120__shared_ptr_emplaceIN8facebook5react15RNSVGImagePropsENS_9allocatorIS3_EEE21__on_zero_shared_weakEv, symObjAddr: 0x4A94, symBinAddr: 0x2CEA8, symSize: 0x4 }
  - { offset: 0x417068, size: 0x8, addend: 0x0, symName: __ZNSt3__120__shared_ptr_emplaceIN8facebook5react15RNSVGImagePropsENS_9allocatorIS3_EEE21__on_zero_shared_weakEv, symObjAddr: 0x4A94, symBinAddr: 0x2CEA8, symSize: 0x4 }
  - { offset: 0x41708D, size: 0x8, addend: 0x0, symName: __ZNSt3__120__shared_ptr_emplaceIN8facebook5react15RNSVGImagePropsENS_9allocatorIS3_EEE21__on_zero_shared_weakEv, symObjAddr: 0x4A94, symBinAddr: 0x2CEA8, symSize: 0x4 }
  - { offset: 0x4170C5, size: 0x8, addend: 0x0, symName: __ZNSt3__120__shared_ptr_emplaceIN8facebook5react15RNSVGImagePropsENS_9allocatorIS3_EEE21__on_zero_shared_weakEv, symObjAddr: 0x4A94, symBinAddr: 0x2CEA8, symSize: 0x4 }
  - { offset: 0x417374, size: 0x8, addend: 0x0, symName: __ZN8facebook5react11ImageSourceC2ERKS1_, symObjAddr: 0x5268, symBinAddr: 0x2D624, symSize: 0x17C }
  - { offset: 0x417938, size: 0x8, addend: 0x0, symName: __ZN8facebook5react15RNSVGImageStateC2ERKNS0_11ImageSourceENS0_12ImageRequestE, symObjAddr: 0x5888, symBinAddr: 0x2DBEC, symSize: 0x70 }
  - { offset: 0x417C26, size: 0x8, addend: 0x0, symName: __ZN8facebook5react12ImageRequestD2Ev, symObjAddr: 0x5A50, symBinAddr: 0x2DD5C, symSize: 0x88 }
  - { offset: 0x41852A, size: 0x8, addend: 0x0, symName: __ZNSt3__120__shared_ptr_emplaceIN8facebook5react13ConcreteStateINS2_15RNSVGImageStateEEENS_9allocatorIS5_EEEC2B8ne200100IJNS_10shared_ptrIKS4_EERKNSA_IKNS2_16ShadowNodeFamilyEEEES7_Li0EEES7_DpOT_, symObjAddr: 0x4F20, symBinAddr: 0x2D2DC, symSize: 0x4C }
  - { offset: 0x4186D4, size: 0x8, addend: 0x0, symName: __ZNSt3__120__shared_ptr_emplaceIN8facebook5react13ConcreteStateINS2_15RNSVGImageStateEEENS_9allocatorIS5_EEED1Ev, symObjAddr: 0x4F6C, symBinAddr: 0x2D328, symSize: 0x14 }
  - { offset: 0x4186F8, size: 0x8, addend: 0x0, symName: __ZNSt3__120__shared_ptr_emplaceIN8facebook5react13ConcreteStateINS2_15RNSVGImageStateEEENS_9allocatorIS5_EEED1Ev, symObjAddr: 0x4F6C, symBinAddr: 0x2D328, symSize: 0x14 }
