---
triple:          'arm64-apple-darwin'
binary-path:     '/Users/uk-aplatts/Development/InjuryIQ/ios/DerivedData/Build/Intermediates.noindex/ArchiveIntermediates/InjuryIQ/IntermediateBuildFilesPath/UninstalledProducts/iphoneos/React_runtimeexecutor.framework/React_runtimeexecutor'
relocations:
  - { offset: 0x33, size: 0x8, addend: 0x0, symName: _React_runtimeexecutorVersionString, symObjAddr: 0x0, symBinAddr: 0x5808, symSize: 0x0 }
  - { offset: 0x67, size: 0x8, addend: 0x0, symName: _React_runtimeexecutorVersionNumber, symObjAddr: 0x38, symBinAddr: 0x5840, symSize: 0x0 }
  - { offset: 0xBB, size: 0x8, addend: 0x0, symName: __ZN8facebook5react12_GLOBAL__N_14g_cvEv, symObjAddr: 0xA04, symBinAddr: 0x4A04, symSize: 0x28 }
  - { offset: 0xE5, size: 0x8, addend: 0x0, symName: __ZZN8facebook5react12_GLOBAL__N_14g_cvEvE2cv, symObjAddr: 0x1D30, symBinAddr: 0xC0E0, symSize: 0x0 }
  - { offset: 0xFC, size: 0x8, addend: 0x0, symName: __ZN8facebook5react12_GLOBAL__N_17g_mutexEv, symObjAddr: 0x750, symBinAddr: 0x4750, symSize: 0x28 }
  - { offset: 0x126, size: 0x8, addend: 0x0, symName: __ZZN8facebook5react12_GLOBAL__N_17g_mutexEvE5mutex, symObjAddr: 0x1DA0, symBinAddr: 0xC150, symSize: 0x0 }
  - { offset: 0x13D, size: 0x8, addend: 0x0, symName: __ZN8facebook5react12_GLOBAL__N_18g_uiTaskEv, symObjAddr: 0x1274, symBinAddr: 0x5274, symSize: 0x28 }
  - { offset: 0x167, size: 0x8, addend: 0x0, symName: __MergedGlobals, symObjAddr: 0x54918, symBinAddr: 0xC1A8, symSize: 0x0 }
  - { offset: 0x408, size: 0x8, addend: 0x0, symName: __ZN8facebook5react12_GLOBAL__N_110takeUITaskEv, symObjAddr: 0x880, symBinAddr: 0x4880, symSize: 0x8C }
  - { offset: 0x646, size: 0x8, addend: 0x0, symName: __ZN8facebook5react12_GLOBAL__N_19runUITaskERNS1_6UITaskE, symObjAddr: 0x90C, symBinAddr: 0x490C, symSize: 0xAC }
  - { offset: 0x893, size: 0x8, addend: 0x0, symName: __ZN8facebook5react45executeSynchronouslyOnSameThread_CAN_DEADLOCKERKNSt3__18functionIFvONS2_IFvRNS_3jsi7RuntimeEEEEEEES8_, symObjAddr: 0x0, symBinAddr: 0x4000, symSize: 0x544 }
  - { offset: 0x1788, size: 0x8, addend: 0x0, symName: __ZN8facebook5react29unsafeExecuteOnMainThreadSyncENSt3__18functionIFvvEEE, symObjAddr: 0x544, symBinAddr: 0x4544, symSize: 0x20C }
  - { offset: 0xE8C7, size: 0x8, addend: 0x0, symName: __ZNSt3__125__throw_bad_function_callB8ne200100Ev, symObjAddr: 0xA2C, symBinAddr: 0x4A2C, symSize: 0x34 }
  - { offset: 0xE91A, size: 0x8, addend: 0x0, symName: __ZNSt3__120__throw_future_errorB8ne200100ENS_11future_errcE, symObjAddr: 0xF04, symBinAddr: 0x4F04, symSize: 0x5C }
  - { offset: 0x10633, size: 0x8, addend: 0x0, symName: __ZSt30__make_exception_ptr_via_throwB8ne200100INSt3__112future_errorEESt13exception_ptrRT_, symObjAddr: 0x1200, symBinAddr: 0x5200, symSize: 0x74 }
  - { offset: 0x12370, size: 0x8, addend: 0x0, symName: __ZNSt3__117__assoc_sub_state15__attach_futureB8ne200100Ev, symObjAddr: 0xFFC, symBinAddr: 0x4FFC, symSize: 0x6C }
  - { offset: 0x1247B, size: 0x8, addend: 0x0, symName: __ZNSt3__16futureIPN8facebook3jsi7RuntimeEE3getEv, symObjAddr: 0xC90, symBinAddr: 0x4C90, symSize: 0x74 }
  - { offset: 0x1261D, size: 0x8, addend: 0x0, symName: __ZNSt3__17promiseIPN8facebook3jsi7RuntimeEED2Ev, symObjAddr: 0x1130, symBinAddr: 0x5130, symSize: 0xD0 }
  - { offset: 0x127E5, size: 0x8, addend: 0x0, symName: __ZN8facebook5react12_GLOBAL__N_16UITaskD1Ev, symObjAddr: 0x9B8, symBinAddr: 0x49B8, symSize: 0x4C }
  - { offset: 0x12C85, size: 0x8, addend: 0x0, symName: __ZNSt3__110__function12__value_funcIFvvEEC2B8ne200100EOS3_, symObjAddr: 0x129C, symBinAddr: 0x529C, symSize: 0x64 }
  - { offset: 0x12CD3, size: 0x8, addend: 0x0, symName: __ZNSt3__110__function12__value_funcIFvvEEaSB8ne200100EOS3_, symObjAddr: 0x1360, symBinAddr: 0x5360, symSize: 0x8C }
  - { offset: 0x12E1B, size: 0x8, addend: 0x0, symName: __ZN8facebook5react29unsafeExecuteOnMainThreadSyncENSt3__18functionIFvvEEE.cold.1, symObjAddr: 0x1474, symBinAddr: 0x5474, symSize: 0x4C }
  - { offset: 0x12E48, size: 0x8, addend: 0x0, symName: __ZN8facebook5react12_GLOBAL__N_17g_mutexEv.cold.1, symObjAddr: 0x14C0, symBinAddr: 0x54C0, symSize: 0x4C }
  - { offset: 0x12E5F, size: 0x8, addend: 0x0, symName: ____ZN8facebook5react29unsafeExecuteOnMainThreadSyncENSt3__18functionIFvvEEE_block_invoke, symObjAddr: 0x778, symBinAddr: 0x4778, symSize: 0x108 }
  - { offset: 0x131F7, size: 0x8, addend: 0x0, symName: __ZN8facebook5react11OnScopeExitIU8__strongU13block_pointerFvvEED2Ev, symObjAddr: 0x143C, symBinAddr: 0x543C, symSize: 0x38 }
  - { offset: 0x1322D, size: 0x8, addend: 0x0, symName: __ZN8facebook5react12_GLOBAL__N_14g_cvEv.cold.1, symObjAddr: 0x150C, symBinAddr: 0x550C, symSize: 0x4C }
  - { offset: 0x132B1, size: 0x8, addend: 0x0, symName: __ZNSt3__117bad_function_callD1Ev, symObjAddr: 0xA60, symBinAddr: 0x4A60, symSize: 0x4 }
  - { offset: 0x132D3, size: 0x8, addend: 0x0, symName: __ZNSt3__117bad_function_callD1Ev, symObjAddr: 0xA60, symBinAddr: 0x4A60, symSize: 0x4 }
  - { offset: 0x13307, size: 0x8, addend: 0x0, symName: __ZNSt3__117bad_function_callD0Ev, symObjAddr: 0xA64, symBinAddr: 0x4A64, symSize: 0x14 }
  - { offset: 0x133BD, size: 0x8, addend: 0x0, symName: '__ZNSt3__110__function6__funcIZN8facebook5react12_GLOBAL__N_150saferExecuteSynchronouslyOnSameThread_CAN_DEADLOCKERKNS_8functionIFvONS5_IFvRNS2_3jsi7RuntimeEEEEEEESB_E3$_0NS_9allocatorISG_EES9_ED1Ev', symObjAddr: 0xA78, symBinAddr: 0x4A78, symSize: 0x30 }
  - { offset: 0x13492, size: 0x8, addend: 0x0, symName: '__ZNSt3__110__function6__funcIZN8facebook5react12_GLOBAL__N_150saferExecuteSynchronouslyOnSameThread_CAN_DEADLOCKERKNS_8functionIFvONS5_IFvRNS2_3jsi7RuntimeEEEEEEESB_E3$_0NS_9allocatorISG_EES9_ED0Ev', symObjAddr: 0xAA8, symBinAddr: 0x4AA8, symSize: 0x30 }
  - { offset: 0x136E1, size: 0x8, addend: 0x0, symName: '__ZNKSt3__110__function6__funcIZN8facebook5react12_GLOBAL__N_150saferExecuteSynchronouslyOnSameThread_CAN_DEADLOCKERKNS_8functionIFvONS5_IFvRNS2_3jsi7RuntimeEEEEEEESB_E3$_0NS_9allocatorISG_EES9_E7__cloneEv', symObjAddr: 0xAD8, symBinAddr: 0x4AD8, symSize: 0x50 }
  - { offset: 0x13976, size: 0x8, addend: 0x0, symName: '__ZNKSt3__110__function6__funcIZN8facebook5react12_GLOBAL__N_150saferExecuteSynchronouslyOnSameThread_CAN_DEADLOCKERKNS_8functionIFvONS5_IFvRNS2_3jsi7RuntimeEEEEEEESB_E3$_0NS_9allocatorISG_EES9_E7__cloneEPNS0_6__baseIS9_EE', symObjAddr: 0xB28, symBinAddr: 0x4B28, symSize: 0x34 }
  - { offset: 0x139AC, size: 0x8, addend: 0x0, symName: '__ZNKSt3__110__function6__funcIZN8facebook5react12_GLOBAL__N_150saferExecuteSynchronouslyOnSameThread_CAN_DEADLOCKERKNS_8functionIFvONS5_IFvRNS2_3jsi7RuntimeEEEEEEESB_E3$_0NS_9allocatorISG_EES9_E7__cloneEPNS0_6__baseIS9_EE', symObjAddr: 0xB28, symBinAddr: 0x4B28, symSize: 0x34 }
  - { offset: 0x139DA, size: 0x8, addend: 0x0, symName: '__ZNKSt3__110__function6__funcIZN8facebook5react12_GLOBAL__N_150saferExecuteSynchronouslyOnSameThread_CAN_DEADLOCKERKNS_8functionIFvONS5_IFvRNS2_3jsi7RuntimeEEEEEEESB_E3$_0NS_9allocatorISG_EES9_E7__cloneEPNS0_6__baseIS9_EE', symObjAddr: 0xB28, symBinAddr: 0x4B28, symSize: 0x34 }
  - { offset: 0x13B37, size: 0x8, addend: 0x0, symName: '__ZNSt3__110__function6__funcIZN8facebook5react12_GLOBAL__N_150saferExecuteSynchronouslyOnSameThread_CAN_DEADLOCKERKNS_8functionIFvONS5_IFvRNS2_3jsi7RuntimeEEEEEEESB_E3$_0NS_9allocatorISG_EES9_E7destroyEv', symObjAddr: 0xB5C, symBinAddr: 0x4B5C, symSize: 0x8 }
  - { offset: 0x13B60, size: 0x8, addend: 0x0, symName: '__ZNSt3__110__function6__funcIZN8facebook5react12_GLOBAL__N_150saferExecuteSynchronouslyOnSameThread_CAN_DEADLOCKERKNS_8functionIFvONS5_IFvRNS2_3jsi7RuntimeEEEEEEESB_E3$_0NS_9allocatorISG_EES9_E7destroyEv', symObjAddr: 0xB5C, symBinAddr: 0x4B5C, symSize: 0x8 }
  - { offset: 0x13B7E, size: 0x8, addend: 0x0, symName: '__ZNSt3__110__function6__funcIZN8facebook5react12_GLOBAL__N_150saferExecuteSynchronouslyOnSameThread_CAN_DEADLOCKERKNS_8functionIFvONS5_IFvRNS2_3jsi7RuntimeEEEEEEESB_E3$_0NS_9allocatorISG_EES9_E7destroyEv', symObjAddr: 0xB5C, symBinAddr: 0x4B5C, symSize: 0x8 }
  - { offset: 0x13B9B, size: 0x8, addend: 0x0, symName: '__ZNSt3__110__function6__funcIZN8facebook5react12_GLOBAL__N_150saferExecuteSynchronouslyOnSameThread_CAN_DEADLOCKERKNS_8functionIFvONS5_IFvRNS2_3jsi7RuntimeEEEEEEESB_E3$_0NS_9allocatorISG_EES9_E7destroyEv', symObjAddr: 0xB5C, symBinAddr: 0x4B5C, symSize: 0x8 }
  - { offset: 0x13BEB, size: 0x8, addend: 0x0, symName: '__ZNSt3__110__function6__funcIZN8facebook5react12_GLOBAL__N_150saferExecuteSynchronouslyOnSameThread_CAN_DEADLOCKERKNS_8functionIFvONS5_IFvRNS2_3jsi7RuntimeEEEEEEESB_E3$_0NS_9allocatorISG_EES9_E18destroy_deallocateEv', symObjAddr: 0xB64, symBinAddr: 0x4B64, symSize: 0x28 }
  - { offset: 0x13DAD, size: 0x8, addend: 0x0, symName: '__ZNSt3__110__function6__funcIZN8facebook5react12_GLOBAL__N_150saferExecuteSynchronouslyOnSameThread_CAN_DEADLOCKERKNS_8functionIFvONS5_IFvRNS2_3jsi7RuntimeEEEEEEESB_E3$_0NS_9allocatorISG_EES9_EclES8_', symObjAddr: 0xB8C, symBinAddr: 0x4B8C, symSize: 0x60 }
  - { offset: 0x13F5E, size: 0x8, addend: 0x0, symName: '__ZNKSt3__110__function6__funcIZN8facebook5react12_GLOBAL__N_150saferExecuteSynchronouslyOnSameThread_CAN_DEADLOCKERKNS_8functionIFvONS5_IFvRNS2_3jsi7RuntimeEEEEEEESB_E3$_0NS_9allocatorISG_EES9_E6targetERKSt9type_info', symObjAddr: 0xBEC, symBinAddr: 0x4BEC, symSize: 0x3C }
  - { offset: 0x13FAB, size: 0x8, addend: 0x0, symName: __ZNKSt9type_infoeqB8ne200100ERKS_, symObjAddr: 0xC34, symBinAddr: 0x4C34, symSize: 0x4C }
  - { offset: 0x14048, size: 0x8, addend: 0x0, symName: '__ZNKSt3__110__function6__funcIZN8facebook5react12_GLOBAL__N_150saferExecuteSynchronouslyOnSameThread_CAN_DEADLOCKERKNS_8functionIFvONS5_IFvRNS2_3jsi7RuntimeEEEEEEESB_E3$_0NS_9allocatorISG_EES9_E11target_typeEv', symObjAddr: 0xC28, symBinAddr: 0x4C28, symSize: 0xC }
  - { offset: 0x1417C, size: 0x8, addend: 0x0, symName: __ZNSt3__113__assoc_stateIPN8facebook3jsi7RuntimeEE4moveEv, symObjAddr: 0x1068, symBinAddr: 0x5068, symSize: 0xC8 }
  - { offset: 0x14312, size: 0x8, addend: 0x0, symName: __ZNSt3__16futureIPN8facebook3jsi7RuntimeEE3getEv.cold.1, symObjAddr: 0x1558, symBinAddr: 0x5558, symSize: 0x28 }
  - { offset: 0x1432D, size: 0x8, addend: 0x0, symName: __ZNSt3__16futureIPN8facebook3jsi7RuntimeEE3getEv.cold.1, symObjAddr: 0x1558, symBinAddr: 0x5558, symSize: 0x28 }
  - { offset: 0x14342, size: 0x8, addend: 0x0, symName: __ZNSt3__16futureIPN8facebook3jsi7RuntimeEE3getEv.cold.1, symObjAddr: 0x1558, symBinAddr: 0x5558, symSize: 0x28 }
  - { offset: 0x14357, size: 0x8, addend: 0x0, symName: __ZNSt3__16futureIPN8facebook3jsi7RuntimeEE3getEv.cold.1, symObjAddr: 0x1558, symBinAddr: 0x5558, symSize: 0x28 }
  - { offset: 0x1436C, size: 0x8, addend: 0x0, symName: __ZNSt3__16futureIPN8facebook3jsi7RuntimeEE3getEv.cold.1, symObjAddr: 0x1558, symBinAddr: 0x5558, symSize: 0x28 }
  - { offset: 0x14381, size: 0x8, addend: 0x0, symName: __ZNSt3__16futureIPN8facebook3jsi7RuntimeEE3getEv.cold.1, symObjAddr: 0x1558, symBinAddr: 0x5558, symSize: 0x28 }
  - { offset: 0x143EF, size: 0x8, addend: 0x0, symName: __ZNSt3__113__assoc_stateIPN8facebook3jsi7RuntimeEED1Ev, symObjAddr: 0xD04, symBinAddr: 0x4D04, symSize: 0x4C }
  - { offset: 0x1446C, size: 0x8, addend: 0x0, symName: __ZNSt3__113__assoc_stateIPN8facebook3jsi7RuntimeEED0Ev, symObjAddr: 0xD50, symBinAddr: 0x4D50, symSize: 0x50 }
  - { offset: 0x144F1, size: 0x8, addend: 0x0, symName: __ZNSt3__113__assoc_stateIPN8facebook3jsi7RuntimeEE16__on_zero_sharedEv, symObjAddr: 0xDA0, symBinAddr: 0x4DA0, symSize: 0xC }
  - { offset: 0x1452A, size: 0x8, addend: 0x0, symName: '__ZNSt3__110__function6__funcIZN8facebook5react12_GLOBAL__N_151legacyExecuteSynchronouslyOnSameThread_CAN_DEADLOCKERKNS_8functionIFvONS5_IFvRNS2_3jsi7RuntimeEEEEEEESB_E3$_0NS_9allocatorISG_EES9_ED1Ev', symObjAddr: 0xDAC, symBinAddr: 0x4DAC, symSize: 0x4 }
  - { offset: 0x14556, size: 0x8, addend: 0x0, symName: '__ZNSt3__110__function6__funcIZN8facebook5react12_GLOBAL__N_151legacyExecuteSynchronouslyOnSameThread_CAN_DEADLOCKERKNS_8functionIFvONS5_IFvRNS2_3jsi7RuntimeEEEEEEESB_E3$_0NS_9allocatorISG_EES9_ED0Ev', symObjAddr: 0xDB0, symBinAddr: 0x4DB0, symSize: 0x4 }
  - { offset: 0x1464A, size: 0x8, addend: 0x0, symName: '__ZNKSt3__110__function6__funcIZN8facebook5react12_GLOBAL__N_151legacyExecuteSynchronouslyOnSameThread_CAN_DEADLOCKERKNS_8functionIFvONS5_IFvRNS2_3jsi7RuntimeEEEEEEESB_E3$_0NS_9allocatorISG_EES9_E7__cloneEv', symObjAddr: 0xDB4, symBinAddr: 0x4DB4, symSize: 0x40 }
  - { offset: 0x1485D, size: 0x8, addend: 0x0, symName: '__ZNKSt3__110__function6__funcIZN8facebook5react12_GLOBAL__N_151legacyExecuteSynchronouslyOnSameThread_CAN_DEADLOCKERKNS_8functionIFvONS5_IFvRNS2_3jsi7RuntimeEEEEEEESB_E3$_0NS_9allocatorISG_EES9_E7__cloneEPNS0_6__baseIS9_EE', symObjAddr: 0xDF4, symBinAddr: 0x4DF4, symSize: 0x20 }
  - { offset: 0x14893, size: 0x8, addend: 0x0, symName: '__ZNKSt3__110__function6__funcIZN8facebook5react12_GLOBAL__N_151legacyExecuteSynchronouslyOnSameThread_CAN_DEADLOCKERKNS_8functionIFvONS5_IFvRNS2_3jsi7RuntimeEEEEEEESB_E3$_0NS_9allocatorISG_EES9_E7__cloneEPNS0_6__baseIS9_EE', symObjAddr: 0xDF4, symBinAddr: 0x4DF4, symSize: 0x20 }
  - { offset: 0x148C1, size: 0x8, addend: 0x0, symName: '__ZNKSt3__110__function6__funcIZN8facebook5react12_GLOBAL__N_151legacyExecuteSynchronouslyOnSameThread_CAN_DEADLOCKERKNS_8functionIFvONS5_IFvRNS2_3jsi7RuntimeEEEEEEESB_E3$_0NS_9allocatorISG_EES9_E7__cloneEPNS0_6__baseIS9_EE', symObjAddr: 0xDF4, symBinAddr: 0x4DF4, symSize: 0x20 }
  - { offset: 0x14950, size: 0x8, addend: 0x0, symName: '__ZNSt3__110__function6__funcIZN8facebook5react12_GLOBAL__N_151legacyExecuteSynchronouslyOnSameThread_CAN_DEADLOCKERKNS_8functionIFvONS5_IFvRNS2_3jsi7RuntimeEEEEEEESB_E3$_0NS_9allocatorISG_EES9_E7destroyEv', symObjAddr: 0xE14, symBinAddr: 0x4E14, symSize: 0x4 }
  - { offset: 0x149A5, size: 0x8, addend: 0x0, symName: '__ZNSt3__110__function6__funcIZN8facebook5react12_GLOBAL__N_151legacyExecuteSynchronouslyOnSameThread_CAN_DEADLOCKERKNS_8functionIFvONS5_IFvRNS2_3jsi7RuntimeEEEEEEESB_E3$_0NS_9allocatorISG_EES9_E18destroy_deallocateEv', symObjAddr: 0xE18, symBinAddr: 0x4E18, symSize: 0x4 }
  - { offset: 0x149D9, size: 0x8, addend: 0x0, symName: '__ZNSt3__110__function6__funcIZN8facebook5react12_GLOBAL__N_151legacyExecuteSynchronouslyOnSameThread_CAN_DEADLOCKERKNS_8functionIFvONS5_IFvRNS2_3jsi7RuntimeEEEEEEESB_E3$_0NS_9allocatorISG_EES9_E18destroy_deallocateEv', symObjAddr: 0xE18, symBinAddr: 0x4E18, symSize: 0x4 }
  - { offset: 0x149FB, size: 0x8, addend: 0x0, symName: '__ZNSt3__110__function6__funcIZN8facebook5react12_GLOBAL__N_151legacyExecuteSynchronouslyOnSameThread_CAN_DEADLOCKERKNS_8functionIFvONS5_IFvRNS2_3jsi7RuntimeEEEEEEESB_E3$_0NS_9allocatorISG_EES9_E18destroy_deallocateEv', symObjAddr: 0xE18, symBinAddr: 0x4E18, symSize: 0x4 }
  - { offset: 0x14A2D, size: 0x8, addend: 0x0, symName: '__ZNSt3__110__function6__funcIZN8facebook5react12_GLOBAL__N_151legacyExecuteSynchronouslyOnSameThread_CAN_DEADLOCKERKNS_8functionIFvONS5_IFvRNS2_3jsi7RuntimeEEEEEEESB_E3$_0NS_9allocatorISG_EES9_E18destroy_deallocateEv', symObjAddr: 0xE18, symBinAddr: 0x4E18, symSize: 0x4 }
  - { offset: 0x14AE7, size: 0x8, addend: 0x0, symName: '__ZNSt3__110__function6__funcIZN8facebook5react12_GLOBAL__N_151legacyExecuteSynchronouslyOnSameThread_CAN_DEADLOCKERKNS_8functionIFvONS5_IFvRNS2_3jsi7RuntimeEEEEEEESB_E3$_0NS_9allocatorISG_EES9_EclES8_', symObjAddr: 0xE1C, symBinAddr: 0x4E1C, symSize: 0x84 }
  - { offset: 0x14C25, size: 0x8, addend: 0x0, symName: __ZNSt3__17promiseIPN8facebook3jsi7RuntimeEE9set_valueEOS4_, symObjAddr: 0xEE8, symBinAddr: 0x4EE8, symSize: 0x1C }
  - { offset: 0x14C6D, size: 0x8, addend: 0x0, symName: __ZNSt3__120__throw_future_errorB8ne200100ENS_11future_errcE, symObjAddr: 0xF04, symBinAddr: 0x4F04, symSize: 0x5C }
  - { offset: 0x14C7E, size: 0x8, addend: 0x0, symName: '__ZNKSt3__110__function6__funcIZN8facebook5react12_GLOBAL__N_151legacyExecuteSynchronouslyOnSameThread_CAN_DEADLOCKERKNS_8functionIFvONS5_IFvRNS2_3jsi7RuntimeEEEEEEESB_E3$_0NS_9allocatorISG_EES9_E6targetERKSt9type_info', symObjAddr: 0xEA0, symBinAddr: 0x4EA0, symSize: 0x3C }
  - { offset: 0x14CCB, size: 0x8, addend: 0x0, symName: '__ZNKSt3__110__function6__funcIZN8facebook5react12_GLOBAL__N_151legacyExecuteSynchronouslyOnSameThread_CAN_DEADLOCKERKNS_8functionIFvONS5_IFvRNS2_3jsi7RuntimeEEEEEEESB_E3$_0NS_9allocatorISG_EES9_E11target_typeEv', symObjAddr: 0xEDC, symBinAddr: 0x4EDC, symSize: 0xC }
  - { offset: 0x14CEE, size: 0x8, addend: 0x0, symName: __ZNSt3__113__assoc_stateIPN8facebook3jsi7RuntimeEE9set_valueIS4_EEvOT_, symObjAddr: 0xF60, symBinAddr: 0x4F60, symSize: 0x9C }
  - { offset: 0x14F5A, size: 0x8, addend: 0x0, symName: __ZN8facebook5react12_GLOBAL__N_18g_uiTaskEv.cold.1, symObjAddr: 0x1580, symBinAddr: 0x5580, symSize: 0x54 }
  - { offset: 0x15052, size: 0x8, addend: 0x0, symName: __ZNSt3__18optionalIN8facebook5react12_GLOBAL__N_16UITaskEED1Ev, symObjAddr: 0x1300, symBinAddr: 0x5300, symSize: 0x60 }
  - { offset: 0x15256, size: 0x8, addend: 0x0, symName: ____ZN8facebook5react12_GLOBAL__N_16UITaskclEv_block_invoke, symObjAddr: 0x13EC, symBinAddr: 0x53EC, symSize: 0x50 }
...
