---
triple:          'arm64-apple-darwin'
binary-path:     '/Users/uk-aplatts/Development/InjuryIQ/ios/DerivedData/Build/Intermediates.noindex/ArchiveIntermediates/InjuryIQ/IntermediateBuildFilesPath/UninstalledProducts/iphoneos/React_defaultsnativemodule.framework/React_defaultsnativemodule'
relocations:
  - { offset: 0x33, size: 0x8, addend: 0x0, symName: _React_defaultsnativemoduleVersionString, symObjAddr: 0x0, symBinAddr: 0x48E8, symSize: 0x0 }
  - { offset: 0x67, size: 0x8, addend: 0x0, symName: _React_defaultsnativemoduleVersionNumber, symObjAddr: 0x38, symBinAddr: 0x4920, symSize: 0x0 }
  - { offset: 0xA2, size: 0x8, addend: 0x0, symName: __ZN8facebook5react19DefaultTurboModules14getTurboModuleERKNSt3__112basic_stringIcNS2_11char_traitsIcEENS2_9allocatorIcEEEERKNS2_10shared_ptrINS0_11CallInvokerEEE, symObjAddr: 0x0, symBinAddr: 0x4000, symSize: 0x1F4 }
  - { offset: 0x2911A, size: 0x8, addend: 0x0, symName: __ZNSt3__115allocate_sharedB8ne200100IN8facebook5react16NativeMicrotasksENS_9allocatorIS3_EEJRKNS_10shared_ptrINS2_11CallInvokerEEEELi0EEENS6_IT_EERKT0_DpOT1_, symObjAddr: 0x3D8, symBinAddr: 0x43D8, symSize: 0x58 }
  - { offset: 0x293B1, size: 0x8, addend: 0x0, symName: __ZNSt3__115allocate_sharedB8ne200100IN8facebook5react29NativeReactNativeFeatureFlagsENS_9allocatorIS3_EEJRKNS_10shared_ptrINS2_11CallInvokerEEEELi0EEENS6_IT_EERKT0_DpOT1_, symObjAddr: 0x1F4, symBinAddr: 0x41F4, symSize: 0x58 }
  - { offset: 0x29648, size: 0x8, addend: 0x0, symName: __ZNSt3__115allocate_sharedB8ne200100IN8facebook5react9NativeDOMENS_9allocatorIS3_EEJRKNS_10shared_ptrINS2_11CallInvokerEEEELi0EEENS6_IT_EERKT0_DpOT1_, symObjAddr: 0x6F0, symBinAddr: 0x46F0, symSize: 0x58 }
  - { offset: 0x298DF, size: 0x8, addend: 0x0, symName: __ZNSt3__115allocate_sharedB8ne200100IN8facebook5react19NativeIdleCallbacksENS_9allocatorIS3_EEJRKNS_10shared_ptrINS2_11CallInvokerEEEELi0EEENS6_IT_EERKT0_DpOT1_, symObjAddr: 0x564, symBinAddr: 0x4564, symSize: 0x58 }
  - { offset: 0x29F8E, size: 0x8, addend: 0x0, symName: __ZNSt3__112construct_atB8ne200100IN8facebook5react29NativeReactNativeFeatureFlagsEJRKNS_10shared_ptrINS2_11CallInvokerEEEEPS3_EEPT_SB_DpOT0_, symObjAddr: 0x2E0, symBinAddr: 0x42E0, symSize: 0xA0 }
  - { offset: 0x2A602, size: 0x8, addend: 0x0, symName: __ZNSt3__112construct_atB8ne200100IN8facebook5react16NativeMicrotasksEJRKNS_10shared_ptrINS2_11CallInvokerEEEEPS3_EEPT_SB_DpOT0_, symObjAddr: 0x4C4, symBinAddr: 0x44C4, symSize: 0xA0 }
  - { offset: 0x2AC28, size: 0x8, addend: 0x0, symName: __ZNSt3__112construct_atB8ne200100IN8facebook5react19NativeIdleCallbacksEJRKNS_10shared_ptrINS2_11CallInvokerEEEEPS3_EEPT_SB_DpOT0_, symObjAddr: 0x650, symBinAddr: 0x4650, symSize: 0xA0 }
  - { offset: 0x2B24E, size: 0x8, addend: 0x0, symName: __ZNSt3__112construct_atB8ne200100IN8facebook5react9NativeDOMEJRKNS_10shared_ptrINS2_11CallInvokerEEEEPS3_EEPT_SB_DpOT0_, symObjAddr: 0x7DC, symBinAddr: 0x47DC, symSize: 0xA0 }
  - { offset: 0x3316C, size: 0x8, addend: 0x0, symName: __ZN8facebook5react19DefaultTurboModules14getTurboModuleERKNSt3__112basic_stringIcNS2_11char_traitsIcEENS2_9allocatorIcEEEERKNS2_10shared_ptrINS0_11CallInvokerEEE, symObjAddr: 0x0, symBinAddr: 0x4000, symSize: 0x1F4 }
  - { offset: 0x33822, size: 0x8, addend: 0x0, symName: __ZNSt3__120__shared_ptr_emplaceIN8facebook5react29NativeReactNativeFeatureFlagsENS_9allocatorIS3_EEEC2B8ne200100IJRKNS_10shared_ptrINS2_11CallInvokerEEEES5_Li0EEES5_DpOT_, symObjAddr: 0x24C, symBinAddr: 0x424C, symSize: 0x4C }
  - { offset: 0x339EA, size: 0x8, addend: 0x0, symName: __ZNSt3__120__shared_ptr_emplaceIN8facebook5react29NativeReactNativeFeatureFlagsENS_9allocatorIS3_EEED1Ev, symObjAddr: 0x298, symBinAddr: 0x4298, symSize: 0x14 }
  - { offset: 0x33A0E, size: 0x8, addend: 0x0, symName: __ZNSt3__120__shared_ptr_emplaceIN8facebook5react29NativeReactNativeFeatureFlagsENS_9allocatorIS3_EEED1Ev, symObjAddr: 0x298, symBinAddr: 0x4298, symSize: 0x14 }
  - { offset: 0x33A45, size: 0x8, addend: 0x0, symName: __ZNSt3__120__shared_ptr_emplaceIN8facebook5react29NativeReactNativeFeatureFlagsENS_9allocatorIS3_EEED0Ev, symObjAddr: 0x2AC, symBinAddr: 0x42AC, symSize: 0x24 }
  - { offset: 0x33B19, size: 0x8, addend: 0x0, symName: __ZNSt3__120__shared_ptr_emplaceIN8facebook5react29NativeReactNativeFeatureFlagsENS_9allocatorIS3_EEE16__on_zero_sharedEv, symObjAddr: 0x2D0, symBinAddr: 0x42D0, symSize: 0xC }
  - { offset: 0x33B43, size: 0x8, addend: 0x0, symName: __ZNSt3__120__shared_ptr_emplaceIN8facebook5react29NativeReactNativeFeatureFlagsENS_9allocatorIS3_EEE16__on_zero_sharedEv, symObjAddr: 0x2D0, symBinAddr: 0x42D0, symSize: 0xC }
  - { offset: 0x33B62, size: 0x8, addend: 0x0, symName: __ZNSt3__120__shared_ptr_emplaceIN8facebook5react29NativeReactNativeFeatureFlagsENS_9allocatorIS3_EEE16__on_zero_sharedEv, symObjAddr: 0x2D0, symBinAddr: 0x42D0, symSize: 0xC }
  - { offset: 0x33B81, size: 0x8, addend: 0x0, symName: __ZNSt3__120__shared_ptr_emplaceIN8facebook5react29NativeReactNativeFeatureFlagsENS_9allocatorIS3_EEE16__on_zero_sharedEv, symObjAddr: 0x2D0, symBinAddr: 0x42D0, symSize: 0xC }
  - { offset: 0x33BAD, size: 0x8, addend: 0x0, symName: __ZNSt3__120__shared_ptr_emplaceIN8facebook5react29NativeReactNativeFeatureFlagsENS_9allocatorIS3_EEE21__on_zero_shared_weakEv, symObjAddr: 0x2DC, symBinAddr: 0x42DC, symSize: 0x4 }
  - { offset: 0x33BE1, size: 0x8, addend: 0x0, symName: __ZNSt3__120__shared_ptr_emplaceIN8facebook5react29NativeReactNativeFeatureFlagsENS_9allocatorIS3_EEE21__on_zero_shared_weakEv, symObjAddr: 0x2DC, symBinAddr: 0x42DC, symSize: 0x4 }
  - { offset: 0x33C05, size: 0x8, addend: 0x0, symName: __ZNSt3__120__shared_ptr_emplaceIN8facebook5react29NativeReactNativeFeatureFlagsENS_9allocatorIS3_EEE21__on_zero_shared_weakEv, symObjAddr: 0x2DC, symBinAddr: 0x42DC, symSize: 0x4 }
  - { offset: 0x33C2A, size: 0x8, addend: 0x0, symName: __ZNSt3__120__shared_ptr_emplaceIN8facebook5react29NativeReactNativeFeatureFlagsENS_9allocatorIS3_EEE21__on_zero_shared_weakEv, symObjAddr: 0x2DC, symBinAddr: 0x42DC, symSize: 0x4 }
  - { offset: 0x33C62, size: 0x8, addend: 0x0, symName: __ZNSt3__120__shared_ptr_emplaceIN8facebook5react29NativeReactNativeFeatureFlagsENS_9allocatorIS3_EEE21__on_zero_shared_weakEv, symObjAddr: 0x2DC, symBinAddr: 0x42DC, symSize: 0x4 }
  - { offset: 0x33D6A, size: 0x8, addend: 0x0, symName: __ZNSt3__110shared_ptrIN8facebook5react11CallInvokerEED2B8ne200100Ev, symObjAddr: 0x380, symBinAddr: 0x4380, symSize: 0x58 }
  - { offset: 0x3403E, size: 0x8, addend: 0x0, symName: __ZNSt3__120__shared_ptr_emplaceIN8facebook5react16NativeMicrotasksENS_9allocatorIS3_EEEC2B8ne200100IJRKNS_10shared_ptrINS2_11CallInvokerEEEES5_Li0EEES5_DpOT_, symObjAddr: 0x430, symBinAddr: 0x4430, symSize: 0x4C }
  - { offset: 0x341B5, size: 0x8, addend: 0x0, symName: __ZNSt3__120__shared_ptr_emplaceIN8facebook5react16NativeMicrotasksENS_9allocatorIS3_EEED1Ev, symObjAddr: 0x47C, symBinAddr: 0x447C, symSize: 0x14 }
  - { offset: 0x341D9, size: 0x8, addend: 0x0, symName: __ZNSt3__120__shared_ptr_emplaceIN8facebook5react16NativeMicrotasksENS_9allocatorIS3_EEED1Ev, symObjAddr: 0x47C, symBinAddr: 0x447C, symSize: 0x14 }
  - { offset: 0x34210, size: 0x8, addend: 0x0, symName: __ZNSt3__120__shared_ptr_emplaceIN8facebook5react16NativeMicrotasksENS_9allocatorIS3_EEED0Ev, symObjAddr: 0x490, symBinAddr: 0x4490, symSize: 0x24 }
  - { offset: 0x342E4, size: 0x8, addend: 0x0, symName: __ZNSt3__120__shared_ptr_emplaceIN8facebook5react16NativeMicrotasksENS_9allocatorIS3_EEE16__on_zero_sharedEv, symObjAddr: 0x4B4, symBinAddr: 0x44B4, symSize: 0xC }
  - { offset: 0x3430E, size: 0x8, addend: 0x0, symName: __ZNSt3__120__shared_ptr_emplaceIN8facebook5react16NativeMicrotasksENS_9allocatorIS3_EEE16__on_zero_sharedEv, symObjAddr: 0x4B4, symBinAddr: 0x44B4, symSize: 0xC }
  - { offset: 0x3432D, size: 0x8, addend: 0x0, symName: __ZNSt3__120__shared_ptr_emplaceIN8facebook5react16NativeMicrotasksENS_9allocatorIS3_EEE16__on_zero_sharedEv, symObjAddr: 0x4B4, symBinAddr: 0x44B4, symSize: 0xC }
  - { offset: 0x3434C, size: 0x8, addend: 0x0, symName: __ZNSt3__120__shared_ptr_emplaceIN8facebook5react16NativeMicrotasksENS_9allocatorIS3_EEE16__on_zero_sharedEv, symObjAddr: 0x4B4, symBinAddr: 0x44B4, symSize: 0xC }
  - { offset: 0x34378, size: 0x8, addend: 0x0, symName: __ZNSt3__120__shared_ptr_emplaceIN8facebook5react16NativeMicrotasksENS_9allocatorIS3_EEE21__on_zero_shared_weakEv, symObjAddr: 0x4C0, symBinAddr: 0x44C0, symSize: 0x4 }
  - { offset: 0x343AC, size: 0x8, addend: 0x0, symName: __ZNSt3__120__shared_ptr_emplaceIN8facebook5react16NativeMicrotasksENS_9allocatorIS3_EEE21__on_zero_shared_weakEv, symObjAddr: 0x4C0, symBinAddr: 0x44C0, symSize: 0x4 }
  - { offset: 0x343D0, size: 0x8, addend: 0x0, symName: __ZNSt3__120__shared_ptr_emplaceIN8facebook5react16NativeMicrotasksENS_9allocatorIS3_EEE21__on_zero_shared_weakEv, symObjAddr: 0x4C0, symBinAddr: 0x44C0, symSize: 0x4 }
  - { offset: 0x343F5, size: 0x8, addend: 0x0, symName: __ZNSt3__120__shared_ptr_emplaceIN8facebook5react16NativeMicrotasksENS_9allocatorIS3_EEE21__on_zero_shared_weakEv, symObjAddr: 0x4C0, symBinAddr: 0x44C0, symSize: 0x4 }
  - { offset: 0x3442D, size: 0x8, addend: 0x0, symName: __ZNSt3__120__shared_ptr_emplaceIN8facebook5react16NativeMicrotasksENS_9allocatorIS3_EEE21__on_zero_shared_weakEv, symObjAddr: 0x4C0, symBinAddr: 0x44C0, symSize: 0x4 }
  - { offset: 0x34698, size: 0x8, addend: 0x0, symName: __ZNSt3__120__shared_ptr_emplaceIN8facebook5react19NativeIdleCallbacksENS_9allocatorIS3_EEEC2B8ne200100IJRKNS_10shared_ptrINS2_11CallInvokerEEEES5_Li0EEES5_DpOT_, symObjAddr: 0x5BC, symBinAddr: 0x45BC, symSize: 0x4C }
  - { offset: 0x3480F, size: 0x8, addend: 0x0, symName: __ZNSt3__120__shared_ptr_emplaceIN8facebook5react19NativeIdleCallbacksENS_9allocatorIS3_EEED1Ev, symObjAddr: 0x608, symBinAddr: 0x4608, symSize: 0x14 }
  - { offset: 0x34833, size: 0x8, addend: 0x0, symName: __ZNSt3__120__shared_ptr_emplaceIN8facebook5react19NativeIdleCallbacksENS_9allocatorIS3_EEED1Ev, symObjAddr: 0x608, symBinAddr: 0x4608, symSize: 0x14 }
  - { offset: 0x3486A, size: 0x8, addend: 0x0, symName: __ZNSt3__120__shared_ptr_emplaceIN8facebook5react19NativeIdleCallbacksENS_9allocatorIS3_EEED0Ev, symObjAddr: 0x61C, symBinAddr: 0x461C, symSize: 0x24 }
  - { offset: 0x3493E, size: 0x8, addend: 0x0, symName: __ZNSt3__120__shared_ptr_emplaceIN8facebook5react19NativeIdleCallbacksENS_9allocatorIS3_EEE16__on_zero_sharedEv, symObjAddr: 0x640, symBinAddr: 0x4640, symSize: 0xC }
  - { offset: 0x34968, size: 0x8, addend: 0x0, symName: __ZNSt3__120__shared_ptr_emplaceIN8facebook5react19NativeIdleCallbacksENS_9allocatorIS3_EEE16__on_zero_sharedEv, symObjAddr: 0x640, symBinAddr: 0x4640, symSize: 0xC }
  - { offset: 0x34987, size: 0x8, addend: 0x0, symName: __ZNSt3__120__shared_ptr_emplaceIN8facebook5react19NativeIdleCallbacksENS_9allocatorIS3_EEE16__on_zero_sharedEv, symObjAddr: 0x640, symBinAddr: 0x4640, symSize: 0xC }
  - { offset: 0x349A6, size: 0x8, addend: 0x0, symName: __ZNSt3__120__shared_ptr_emplaceIN8facebook5react19NativeIdleCallbacksENS_9allocatorIS3_EEE16__on_zero_sharedEv, symObjAddr: 0x640, symBinAddr: 0x4640, symSize: 0xC }
  - { offset: 0x349D2, size: 0x8, addend: 0x0, symName: __ZNSt3__120__shared_ptr_emplaceIN8facebook5react19NativeIdleCallbacksENS_9allocatorIS3_EEE21__on_zero_shared_weakEv, symObjAddr: 0x64C, symBinAddr: 0x464C, symSize: 0x4 }
  - { offset: 0x34A06, size: 0x8, addend: 0x0, symName: __ZNSt3__120__shared_ptr_emplaceIN8facebook5react19NativeIdleCallbacksENS_9allocatorIS3_EEE21__on_zero_shared_weakEv, symObjAddr: 0x64C, symBinAddr: 0x464C, symSize: 0x4 }
  - { offset: 0x34A2A, size: 0x8, addend: 0x0, symName: __ZNSt3__120__shared_ptr_emplaceIN8facebook5react19NativeIdleCallbacksENS_9allocatorIS3_EEE21__on_zero_shared_weakEv, symObjAddr: 0x64C, symBinAddr: 0x464C, symSize: 0x4 }
  - { offset: 0x34A4F, size: 0x8, addend: 0x0, symName: __ZNSt3__120__shared_ptr_emplaceIN8facebook5react19NativeIdleCallbacksENS_9allocatorIS3_EEE21__on_zero_shared_weakEv, symObjAddr: 0x64C, symBinAddr: 0x464C, symSize: 0x4 }
  - { offset: 0x34A87, size: 0x8, addend: 0x0, symName: __ZNSt3__120__shared_ptr_emplaceIN8facebook5react19NativeIdleCallbacksENS_9allocatorIS3_EEE21__on_zero_shared_weakEv, symObjAddr: 0x64C, symBinAddr: 0x464C, symSize: 0x4 }
  - { offset: 0x34CF2, size: 0x8, addend: 0x0, symName: __ZNSt3__120__shared_ptr_emplaceIN8facebook5react9NativeDOMENS_9allocatorIS3_EEEC2B8ne200100IJRKNS_10shared_ptrINS2_11CallInvokerEEEES5_Li0EEES5_DpOT_, symObjAddr: 0x748, symBinAddr: 0x4748, symSize: 0x4C }
  - { offset: 0x34E69, size: 0x8, addend: 0x0, symName: __ZNSt3__120__shared_ptr_emplaceIN8facebook5react9NativeDOMENS_9allocatorIS3_EEED1Ev, symObjAddr: 0x794, symBinAddr: 0x4794, symSize: 0x14 }
  - { offset: 0x34E8D, size: 0x8, addend: 0x0, symName: __ZNSt3__120__shared_ptr_emplaceIN8facebook5react9NativeDOMENS_9allocatorIS3_EEED1Ev, symObjAddr: 0x794, symBinAddr: 0x4794, symSize: 0x14 }
  - { offset: 0x34EC4, size: 0x8, addend: 0x0, symName: __ZNSt3__120__shared_ptr_emplaceIN8facebook5react9NativeDOMENS_9allocatorIS3_EEED0Ev, symObjAddr: 0x7A8, symBinAddr: 0x47A8, symSize: 0x24 }
  - { offset: 0x34F98, size: 0x8, addend: 0x0, symName: __ZNSt3__120__shared_ptr_emplaceIN8facebook5react9NativeDOMENS_9allocatorIS3_EEE16__on_zero_sharedEv, symObjAddr: 0x7CC, symBinAddr: 0x47CC, symSize: 0xC }
  - { offset: 0x34FC2, size: 0x8, addend: 0x0, symName: __ZNSt3__120__shared_ptr_emplaceIN8facebook5react9NativeDOMENS_9allocatorIS3_EEE16__on_zero_sharedEv, symObjAddr: 0x7CC, symBinAddr: 0x47CC, symSize: 0xC }
  - { offset: 0x34FE1, size: 0x8, addend: 0x0, symName: __ZNSt3__120__shared_ptr_emplaceIN8facebook5react9NativeDOMENS_9allocatorIS3_EEE16__on_zero_sharedEv, symObjAddr: 0x7CC, symBinAddr: 0x47CC, symSize: 0xC }
  - { offset: 0x35000, size: 0x8, addend: 0x0, symName: __ZNSt3__120__shared_ptr_emplaceIN8facebook5react9NativeDOMENS_9allocatorIS3_EEE16__on_zero_sharedEv, symObjAddr: 0x7CC, symBinAddr: 0x47CC, symSize: 0xC }
  - { offset: 0x3502C, size: 0x8, addend: 0x0, symName: __ZNSt3__120__shared_ptr_emplaceIN8facebook5react9NativeDOMENS_9allocatorIS3_EEE21__on_zero_shared_weakEv, symObjAddr: 0x7D8, symBinAddr: 0x47D8, symSize: 0x4 }
  - { offset: 0x35060, size: 0x8, addend: 0x0, symName: __ZNSt3__120__shared_ptr_emplaceIN8facebook5react9NativeDOMENS_9allocatorIS3_EEE21__on_zero_shared_weakEv, symObjAddr: 0x7D8, symBinAddr: 0x47D8, symSize: 0x4 }
  - { offset: 0x35084, size: 0x8, addend: 0x0, symName: __ZNSt3__120__shared_ptr_emplaceIN8facebook5react9NativeDOMENS_9allocatorIS3_EEE21__on_zero_shared_weakEv, symObjAddr: 0x7D8, symBinAddr: 0x47D8, symSize: 0x4 }
  - { offset: 0x350A9, size: 0x8, addend: 0x0, symName: __ZNSt3__120__shared_ptr_emplaceIN8facebook5react9NativeDOMENS_9allocatorIS3_EEE21__on_zero_shared_weakEv, symObjAddr: 0x7D8, symBinAddr: 0x47D8, symSize: 0x4 }
  - { offset: 0x350E1, size: 0x8, addend: 0x0, symName: __ZNSt3__120__shared_ptr_emplaceIN8facebook5react9NativeDOMENS_9allocatorIS3_EEE21__on_zero_shared_weakEv, symObjAddr: 0x7D8, symBinAddr: 0x47D8, symSize: 0x4 }
...
