---
triple:          'arm64-apple-darwin'
binary-path:     '/Users/uk-aplatts/Development/InjuryIQ/ios/DerivedData/Build/Intermediates.noindex/ArchiveIntermediates/InjuryIQ/IntermediateBuildFilesPath/UninstalledProducts/iphoneos/jsi.framework/jsi'
relocations:
  - { offset: 0x33, size: 0x8, addend: 0x0, symName: _jsiVersionString, symObjAddr: 0x0, symBinAddr: 0x6EB0, symSize: 0x0 }
  - { offset: 0x67, size: 0x8, addend: 0x0, symName: _jsiVersionNumber, symObjAddr: 0x28, symBinAddr: 0x6ED8, symSize: 0x0 }
  - { offset: 0xA716, size: 0x8, addend: 0x0, symName: __ZNSt3__119piecewise_constructE, symObjAddr: 0x3148, symBinAddr: 0x6F03, symSize: 0x0 }
  - { offset: 0x12410, size: 0x8, addend: 0x0, symName: __ZNSt3__124__put_character_sequenceB8ne200100IcNS_11char_traitsIcEEEERNS_13basic_ostreamIT_T0_EES7_PKS4_m, symObjAddr: 0x2004, symBinAddr: 0x5EC0, symSize: 0x168 }
  - { offset: 0x14763, size: 0x8, addend: 0x0, symName: __ZNSt3__1lsB8ne200100INS_11char_traitsIcEEEERNS_13basic_ostreamIcT_EES6_PKc, symObjAddr: 0x530, symBinAddr: 0x4530, symSize: 0x34 }
  - { offset: 0x15439, size: 0x8, addend: 0x0, symName: __ZNSt3__120__throw_length_errorB8ne200100EPKc, symObjAddr: 0x11D4, symBinAddr: 0x5168, symSize: 0x50 }
  - { offset: 0x1579F, size: 0x8, addend: 0x0, symName: __ZNSt3__119__allocate_at_leastB8ne200100INS_9allocatorIN5folly7dynamicEEEEENS_19__allocation_resultINS_16allocator_traitsIT_E7pointerEEERS7_m, symObjAddr: 0x1BF8, symBinAddr: 0x5AC8, symSize: 0x44 }
  - { offset: 0x1584A, size: 0x8, addend: 0x0, symName: __ZNSt3__134__uninitialized_allocator_relocateB8ne200100INS_9allocatorIN5folly7dynamicEEEPS3_EEvRT_T0_S8_S8_, symObjAddr: 0x1C3C, symBinAddr: 0x5B0C, symSize: 0x68 }
  - { offset: 0x1585E, size: 0x8, addend: 0x0, symName: __ZNSt3__134__uninitialized_allocator_relocateB8ne200100INS_9allocatorIN5folly7dynamicEEEPS3_EEvRT_T0_S8_S8_, symObjAddr: 0x1C3C, symBinAddr: 0x5B0C, symSize: 0x68 }
  - { offset: 0x158BD, size: 0x8, addend: 0x0, symName: __ZNSt3__134__uninitialized_allocator_relocateB8ne200100INS_9allocatorIN5folly7dynamicEEEPS3_EEvRT_T0_S8_S8_, symObjAddr: 0x1C3C, symBinAddr: 0x5B0C, symSize: 0x68 }
  - { offset: 0x15B45, size: 0x8, addend: 0x0, symName: __ZNSt3__119__allocate_at_leastB8ne200100INS_9allocatorINS_4pairINS_12basic_stringIcNS_11char_traitsIcEENS1_IcEEEEN8facebook3jsi5ValueEEEEEEENS_19__allocation_resultINS_16allocator_traitsIT_E7pointerEEERSF_m, symObjAddr: 0x1E48, symBinAddr: 0x5D04, symSize: 0x44 }
  - { offset: 0x15BF0, size: 0x8, addend: 0x0, symName: __ZNSt3__134__uninitialized_allocator_relocateB8ne200100INS_9allocatorINS_4pairINS_12basic_stringIcNS_11char_traitsIcEENS1_IcEEEEN8facebook3jsi5ValueEEEEEPSB_EEvRT_T0_SG_SG_, symObjAddr: 0x1E8C, symBinAddr: 0x5D48, symSize: 0x80 }
  - { offset: 0x15C04, size: 0x8, addend: 0x0, symName: __ZNSt3__134__uninitialized_allocator_relocateB8ne200100INS_9allocatorINS_4pairINS_12basic_stringIcNS_11char_traitsIcEENS1_IcEEEEN8facebook3jsi5ValueEEEEEPSB_EEvRT_T0_SG_SG_, symObjAddr: 0x1E8C, symBinAddr: 0x5D48, symSize: 0x80 }
  - { offset: 0x15C63, size: 0x8, addend: 0x0, symName: __ZNSt3__134__uninitialized_allocator_relocateB8ne200100INS_9allocatorINS_4pairINS_12basic_stringIcNS_11char_traitsIcEENS1_IcEEEEN8facebook3jsi5ValueEEEEEPSB_EEvRT_T0_SG_SG_, symObjAddr: 0x1E8C, symBinAddr: 0x5D48, symSize: 0x80 }
  - { offset: 0x15F62, size: 0x8, addend: 0x0, symName: __ZNSt3__112__destroy_atB8ne200100INS_4pairINS_12basic_stringIcNS_11char_traitsIcEENS_9allocatorIcEEEEN8facebook3jsi5ValueEEELi0EEEvPT_, symObjAddr: 0x1F0C, symBinAddr: 0x5DC8, symSize: 0x3C }
  - { offset: 0x1660A, size: 0x8, addend: 0x0, symName: __ZNSt3__116__pad_and_outputB8ne200100IcNS_11char_traitsIcEEEENS_19ostreambuf_iteratorIT_T0_EES6_PKS4_S8_S8_RNS_8ios_baseES4_, symObjAddr: 0x216C, symBinAddr: 0x6028, symSize: 0x13C }
  - { offset: 0x18631, size: 0x8, addend: 0x0, symName: __ZSt28__throw_bad_array_new_lengthB8ne200100v, symObjAddr: 0x1248, symBinAddr: 0x51DC, symSize: 0x28 }
  - { offset: 0x19125, size: 0x8, addend: 0x0, symName: __ZN5folly6detail22callWithKeyAndPairArgsINS_7dynamicES2_ZNS_3f146detail11F14BasicMapIS2_S2_NS0_13DynamicHasherENS0_15DynamicKeyEqualENSt3__19allocatorINS8_4pairIKS2_S2_EEEEE7emplaceIJRKNS8_21piecewise_construct_tENS8_5tupleIJRNS8_12basic_stringIcNS8_11char_traitsIcEENS9_IcEEEEEEENSJ_IJEEEEEENSA_INS8_19__hash_map_iteratorINS8_15__hash_iteratorIPNS8_11__hash_nodeINS8_17__hash_value_typeIS2_S2_EEPvEEEEEEbEEDpOT_EUlRT_DpOT0_E_SO_JSP_EJEEEDaOT1_RKT2_ONSJ_IJDpT3_EEEONSJ_IJDpT4_EEE, symObjAddr: 0x23CC, symBinAddr: 0x6288, symSize: 0x78 }
  - { offset: 0x19323, size: 0x8, addend: 0x0, symName: __ZN5folly6detail16throw_exception_INS_9TypeErrorEJPKcNS_7dynamic4TypeEEEEvDpT0_, symObjAddr: 0x1270, symBinAddr: 0x6B48, symSize: 0x68 }
  - { offset: 0x19581, size: 0x8, addend: 0x0, symName: __ZN5folly6detail15reserveInTargetIxPNSt3__112basic_stringIcNS2_11char_traitsIcEENS2_9allocatorIcEEEEEEvRKT_RKT0_, symObjAddr: 0x1608, symBinAddr: 0x5500, symSize: 0x50 }
  - { offset: 0x19664, size: 0x8, addend: 0x0, symName: __ZN5folly6detail24toAppendDoubleConversionINSt3__112basic_stringIcNS2_11char_traitsIcEENS2_9allocatorIcEEEEdEENS2_9enable_ifIXaasr3std17is_floating_pointIT0_EE5valuesr12IsSomeStringIT_EE5valueEvE4typeESA_PSB_NS_8DtoaModeEjNS_9DtoaFlagsE, symObjAddr: 0x1794, symBinAddr: 0x568C, symSize: 0x130 }
  - { offset: 0x19C38, size: 0x8, addend: 0x0, symName: __ZN5folly6detail15reserveInTargetIbPNSt3__112basic_stringIcNS2_11char_traitsIcEENS2_9allocatorIcEEEEEEvRKT_RKT0_, symObjAddr: 0x193C, symBinAddr: 0x5834, symSize: 0x44 }
  - { offset: 0x1D92A, size: 0x8, addend: 0x0, symName: __ZN5folly15throw_exceptionINS_9TypeErrorEEEvOT_, symObjAddr: 0x12D8, symBinAddr: 0x6BB0, symSize: 0x34 }
  - { offset: 0x1DA54, size: 0x8, addend: 0x0, symName: __ZN5folly2toINSt3__112basic_stringIcNS1_11char_traitsIcEENS1_9allocatorIcEEEEdEENS1_9enable_ifIXaasr12IsSomeStringIT_EE5valuesr3std17is_floating_pointIT0_EE5valueES9_E4typeESA_, symObjAddr: 0x1560, symBinAddr: 0x5458, symSize: 0x54 }
  - { offset: 0x1DC6B, size: 0x8, addend: 0x0, symName: __ZN5folly2toINSt3__112basic_stringIcNS1_11char_traitsIcEENS1_9allocatorIcEEEEJxELi0EEET_DpRKT0_, symObjAddr: 0x14FC, symBinAddr: 0x53F4, symSize: 0x64 }
  - { offset: 0x1DE49, size: 0x8, addend: 0x0, symName: __ZN5folly2toINSt3__112basic_stringIcNS1_11char_traitsIcEENS1_9allocatorIcEEEEJbELi0EEET_DpRKT0_, symObjAddr: 0x15B4, symBinAddr: 0x54AC, symSize: 0x54 }
  - { offset: 0x1E031, size: 0x8, addend: 0x0, symName: __ZN5folly8toAppendINSt3__112basic_stringIcNS1_11char_traitsIcEENS1_9allocatorIcEEEExEENS1_9enable_ifIXaaaaaa13is_integral_vIT0_E11is_signed_vIS9_Esr12IsSomeStringIT_EE5valuegestS9_Li4EEvE4typeES9_PSA_, symObjAddr: 0x1658, symBinAddr: 0x5550, symSize: 0x84 }
  - { offset: 0x1E1B5, size: 0x8, addend: 0x0, symName: __ZN5folly11toAppendFitIJbPNSt3__112basic_stringIcNS1_11char_traitsIcEENS1_9allocatorIcEEEEELi0EEEvDpRKT_, symObjAddr: 0x18C4, symBinAddr: 0x57BC, symSize: 0x78 }
  - { offset: 0x1E3D9, size: 0x8, addend: 0x0, symName: __ZN5folly13to_ascii_withILy10ENS_17to_ascii_alphabetILb0EEELm20EEEmRAT1__cy, symObjAddr: 0x16DC, symBinAddr: 0x55D4, symSize: 0xB8 }
  - { offset: 0x223CF, size: 0x8, addend: 0x0, symName: __ZN8facebook3jsi12_GLOBAL__N_123valueFromDynamicShallowERNS0_7RuntimeERNSt3__16vectorINS1_11FromDynamicENS4_9allocatorIS6_EEEERKN5folly7dynamicE, symObjAddr: 0x2E8, symBinAddr: 0x42E8, symSize: 0x248 }
  - { offset: 0x22C65, size: 0x8, addend: 0x0, symName: __ZN8facebook3jsi12_GLOBAL__N_123dynamicFromValueShallowERNS0_7RuntimeERNSt3__16vectorINS1_9FromValueENS4_9allocatorIS6_EEEERKNS0_5ValueERN5folly7dynamicE, symObjAddr: 0xB4C, symBinAddr: 0x4B4C, symSize: 0x4B8 }
  - { offset: 0x23F75, size: 0x8, addend: 0x0, symName: __ZN8facebook3jsi16valueFromDynamicERNS0_7RuntimeERKN5folly7dynamicE, symObjAddr: 0x0, symBinAddr: 0x4000, symSize: 0x2E8 }
  - { offset: 0x24B60, size: 0x8, addend: 0x0, symName: __ZN8facebook3jsi16dynamicFromValueERNS0_7RuntimeERKNS0_5ValueERKNSt3__18functionIFbRKNS6_12basic_stringIcNS6_11char_traitsIcEENS6_9allocatorIcEEEEEEE, symObjAddr: 0x5D0, symBinAddr: 0x45D0, symSize: 0x57C }
  - { offset: 0x280FA, size: 0x8, addend: 0x0, symName: __ZNK5folly7dynamic6asImplINSt3__112basic_stringIcNS2_11char_traitsIcEENS2_9allocatorIcEEEEEET_v, symObjAddr: 0x1400, symBinAddr: 0x52F8, symSize: 0xFC }
  - { offset: 0x2847C, size: 0x8, addend: 0x0, symName: __ZNKR5folly7dynamic2atIRmEENSt3__19enable_ifIXaantsr3std14is_convertibleIT_NS_5RangeIPKcEEEE5valuesr3std14is_convertibleIS5_S0_EE5valueERKS0_E4typeEOS5_, symObjAddr: 0x2344, symBinAddr: 0x6200, symSize: 0x88 }
  - { offset: 0x2858B, size: 0x8, addend: 0x0, symName: __ZNSt3__16vectorIN8facebook3jsi12_GLOBAL__N_111FromDynamicENS_9allocatorIS4_EEED1B8ne200100Ev, symObjAddr: 0x564, symBinAddr: 0x4564, symSize: 0x6C }
  - { offset: 0x28A5F, size: 0x8, addend: 0x0, symName: __ZNSt3__16vectorIN8facebook3jsi12_GLOBAL__N_111FromDynamicENS_9allocatorIS4_EEE12emplace_backIJPKN5folly7dynamicENS2_6ObjectEEEERS4_DpOT_, symObjAddr: 0x1070, symBinAddr: 0x5004, symSize: 0x140 }
  - { offset: 0x29260, size: 0x8, addend: 0x0, symName: __ZNSt3__16vectorIN8facebook3jsi12_GLOBAL__N_111FromDynamicENS_9allocatorIS4_EEE20__throw_length_errorB8ne200100Ev, symObjAddr: 0x11B0, symBinAddr: 0x5144, symSize: 0x14 }
  - { offset: 0x29F7A, size: 0x8, addend: 0x0, symName: __ZNSt3__16vectorIN5folly7dynamicENS_9allocatorIS2_EEE9push_backB8ne200100EOS2_, symObjAddr: 0x1A78, symBinAddr: 0x595C, symSize: 0x44 }
  - { offset: 0x2A0A0, size: 0x8, addend: 0x0, symName: __ZNSt3__16vectorINS_4pairINS_12basic_stringIcNS_11char_traitsIcEENS_9allocatorIcEEEEN8facebook3jsi5ValueEEENS5_ISB_EEE24__emplace_back_slow_pathIJS7_SA_EEEPSB_DpOT_, symObjAddr: 0x1CF0, symBinAddr: 0x5BC0, symSize: 0x144 }
  - { offset: 0x2A460, size: 0x8, addend: 0x0, symName: __ZNSt3__16vectorINS_4pairINS_12basic_stringIcNS_11char_traitsIcEENS_9allocatorIcEEEEN8facebook3jsi5ValueEEENS5_ISB_EEE16__destroy_vectorclB8ne200100Ev, symObjAddr: 0x1F94, symBinAddr: 0x5E50, symSize: 0x70 }
  - { offset: 0x2B0D7, size: 0x8, addend: 0x0, symName: __ZNSt3__16vectorIN5folly7dynamicENS_9allocatorIS2_EEE16__destroy_vectorclB8ne200100Ev, symObjAddr: 0x19F4, symBinAddr: 0x58EC, symSize: 0x70 }
  - { offset: 0x2B2B8, size: 0x8, addend: 0x0, symName: __ZN8facebook3jsi7JSErrorC1ERNS0_7RuntimeEPKc, symObjAddr: 0x1980, symBinAddr: 0x5878, symSize: 0x74 }
  - { offset: 0x2B56E, size: 0x8, addend: 0x0, symName: __ZNSt3__16vectorIN5folly7dynamicENS_9allocatorIS2_EEE9push_backB8ne200100EOS2_, symObjAddr: 0x1A78, symBinAddr: 0x595C, symSize: 0x44 }
  - { offset: 0x2B8FA, size: 0x8, addend: 0x0, symName: __ZNSt3__16vectorIN8facebook3jsi12_GLOBAL__N_111FromDynamicENS_9allocatorIS4_EEE20__throw_length_errorB8ne200100Ev, symObjAddr: 0x11B0, symBinAddr: 0x5144, symSize: 0x14 }
  - { offset: 0x2B912, size: 0x8, addend: 0x0, symName: ___clang_call_terminate, symObjAddr: 0x11C4, symBinAddr: 0x5158, symSize: 0x10 }
  - { offset: 0x2B91D, size: 0x8, addend: 0x0, symName: __ZNSt12length_errorC1B8ne200100EPKc, symObjAddr: 0x1224, symBinAddr: 0x51B8, symSize: 0x24 }
  - { offset: 0x2BA18, size: 0x8, addend: 0x0, symName: __ZNSt3__112basic_stringIcNS_11char_traitsIcEENS_9allocatorIcEEEC2B8ne200100ILi0EEEPKc, symObjAddr: 0x1348, symBinAddr: 0x5240, symSize: 0xA4 }
  - { offset: 0x2BC89, size: 0x8, addend: 0x0, symName: __ZNSt3__112basic_stringIcNS_11char_traitsIcEENS_9allocatorIcEEE20__throw_length_errorB8ne200100Ev, symObjAddr: 0x13EC, symBinAddr: 0x52E4, symSize: 0x14 }
  - { offset: 0x2BCA0, size: 0x8, addend: 0x0, symName: __ZN5folly9TypeErrorC1EOS0_, symObjAddr: 0x1310, symBinAddr: 0x5208, symSize: 0x24 }
  - { offset: 0x2BCFB, size: 0x8, addend: 0x0, symName: __ZN5folly9TypeErrorD1Ev, symObjAddr: 0x130C, symBinAddr: 0x5204, symSize: 0x4 }
  - { offset: 0x2BD1D, size: 0x8, addend: 0x0, symName: __ZN5folly9TypeErrorD1Ev, symObjAddr: 0x130C, symBinAddr: 0x5204, symSize: 0x4 }
  - { offset: 0x2BD58, size: 0x8, addend: 0x0, symName: __ZN5folly9TypeErrorD0Ev, symObjAddr: 0x1334, symBinAddr: 0x522C, symSize: 0x14 }
  - { offset: 0x2BF14, size: 0x8, addend: 0x0, symName: __ZNSt3__112basic_stringIcNS_11char_traitsIcEENS_9allocatorIcEEE20__throw_length_errorB8ne200100Ev, symObjAddr: 0x13EC, symBinAddr: 0x52E4, symSize: 0x14 }
  - { offset: 0x2BF2C, size: 0x8, addend: 0x0, symName: __ZNK5folly7dynamic6asImplINSt3__112basic_stringIcNS2_11char_traitsIcEENS2_9allocatorIcEEEEEET_v, symObjAddr: 0x1400, symBinAddr: 0x52F8, symSize: 0xFC }
  - { offset: 0x2C538, size: 0x8, addend: 0x0, symName: __ZNSt3__16vectorIN5folly7dynamicENS_9allocatorIS2_EEE24__emplace_back_slow_pathIJS2_EEEPS2_DpOT_, symObjAddr: 0x1ABC, symBinAddr: 0x59A0, symSize: 0x128 }
  - { offset: 0x2C965, size: 0x8, addend: 0x0, symName: __ZNSt3__114__split_bufferIN5folly7dynamicERNS_9allocatorIS2_EEED2Ev, symObjAddr: 0x1CA4, symBinAddr: 0x5B74, symSize: 0x4C }
  - { offset: 0x2CAEF, size: 0x8, addend: 0x0, symName: __ZNSt3__119__allocate_at_leastB8ne200100INS_9allocatorIN5folly7dynamicEEEEENS_19__allocation_resultINS_16allocator_traitsIT_E7pointerEEERS7_m, symObjAddr: 0x1BF8, symBinAddr: 0x5AC8, symSize: 0x44 }
  - { offset: 0x2CCCE, size: 0x8, addend: 0x0, symName: __ZNSt3__114__split_bufferINS_4pairINS_12basic_stringIcNS_11char_traitsIcEENS_9allocatorIcEEEEN8facebook3jsi5ValueEEERNS5_ISB_EEED2Ev, symObjAddr: 0x1F48, symBinAddr: 0x5E04, symSize: 0x4C }
  - { offset: 0x2CE0E, size: 0x8, addend: 0x0, symName: __ZNSt3__119__allocate_at_leastB8ne200100INS_9allocatorINS_4pairINS_12basic_stringIcNS_11char_traitsIcEENS1_IcEEEEN8facebook3jsi5ValueEEEEEEENS_19__allocation_resultINS_16allocator_traitsIT_E7pointerEEERSF_m, symObjAddr: 0x1E48, symBinAddr: 0x5D04, symSize: 0x44 }
  - { offset: 0x2D342, size: 0x8, addend: 0x0, symName: __ZNSt3__112basic_stringIcNS_11char_traitsIcEENS_9allocatorIcEEEC2B8ne200100Emc, symObjAddr: 0x22A8, symBinAddr: 0x6164, symSize: 0x9C }
  - { offset: 0x2D58C, size: 0x8, addend: 0x0, symName: __ZNKR5folly7dynamic2atIRmEENSt3__19enable_ifIXaantsr3std14is_convertibleIT_NS_5RangeIPKcEEEE5valuesr3std14is_convertibleIS5_S0_EE5valueERKS0_E4typeEOS5_, symObjAddr: 0x2344, symBinAddr: 0x6200, symSize: 0x88 }
  - { offset: 0x2D8C6, size: 0x8, addend: 0x0, symName: __ZN5folly3f146detail11F14BasicMapINS_7dynamicES3_NS_6detail13DynamicHasherENS4_15DynamicKeyEqualENSt3__19allocatorINS7_4pairIKS3_S3_EEEEE9findLocalISD_NS7_12basic_stringIcNS7_11char_traitsIcEENS8_IcEEEEEENS_8OptionalIDTcldtfp_5beginLi0EEEEERT_RKT0_, symObjAddr: 0x2444, symBinAddr: 0x6300, symSize: 0xE4 }
  - { offset: 0x2DC01, size: 0x8, addend: 0x0, symName: __ZNSt3__112__hash_tableINS_17__hash_value_typeIN5folly7dynamicES3_EENS_22__unordered_map_hasherIS3_S4_NS2_6detail13DynamicHasherENS6_15DynamicKeyEqualELb1EEENS_21__unordered_map_equalIS3_S4_S8_S7_Lb1EEENS_9allocatorIS4_EEE21__emplace_unique_implIJRKNS_21piecewise_construct_tENS_5tupleIJRNS_12basic_stringIcNS_11char_traitsIcEENSC_IcEEEEEEENSJ_IJEEEEEENS_4pairINS_15__hash_iteratorIPNS_11__hash_nodeIS4_PvEEEEbEEDpOT_, symObjAddr: 0x261C, symBinAddr: 0x645C, symSize: 0x88 }
  - { offset: 0x2E0FE, size: 0x8, addend: 0x0, symName: __ZNKSt3__112__hash_tableINS_17__hash_value_typeINS_12basic_stringIcNS_11char_traitsIcEENS_9allocatorIcEEEEN5folly7dynamicEEENS_22__unordered_map_hasherIS7_SA_NS8_6detail13DynamicHasherENS8_3f146detail11F14BasicMapIS9_S9_SD_NSC_15DynamicKeyEqualENS5_INS_4pairIKS9_S9_EEEEE14BottomKeyEqualIS7_EELb1EEENS_21__unordered_map_equalIS7_SA_SO_SD_Lb1EEENS5_ISA_EEE6bucketB8ne200100IS7_EEmRKT_, symObjAddr: 0x25A4, symBinAddr: 0x63E4, symSize: 0x78 }
  - { offset: 0x2E318, size: 0x8, addend: 0x0, symName: __ZNK5folly6detail15DynamicKeyEqualclINSt3__112basic_stringIcNS3_11char_traitsIcEENS3_9allocatorIcEEEEEENS3_9enable_ifIXsr3std14is_convertibleIT_NS_5RangeIPKcEEEE5valueEbE4typeERKSB_RKNS_7dynamicE, symObjAddr: 0x2528, symBinAddr: 0x6BE4, symSize: 0x7C }
  - { offset: 0x2E35F, size: 0x8, addend: 0x0, symName: __ZNK5folly6detail15DynamicKeyEqualclINSt3__112basic_stringIcNS3_11char_traitsIcEENS3_9allocatorIcEEEEEENS3_9enable_ifIXsr3std14is_convertibleIT_NS_5RangeIPKcEEEE5valueEbE4typeERKSB_RKNS_7dynamicE, symObjAddr: 0x2528, symBinAddr: 0x6BE4, symSize: 0x7C }
  - { offset: 0x2E7C3, size: 0x8, addend: 0x0, symName: __ZNSt3__112__hash_tableINS_17__hash_value_typeIN5folly7dynamicES3_EENS_22__unordered_map_hasherIS3_S4_NS2_6detail13DynamicHasherENS6_15DynamicKeyEqualELb1EEENS_21__unordered_map_equalIS3_S4_S8_S7_Lb1EEENS_9allocatorIS4_EEE16__construct_nodeIJRKNS_21piecewise_construct_tENS_5tupleIJRNS_12basic_stringIcNS_11char_traitsIcEENSC_IcEEEEEEENSJ_IJEEEEEENS_10unique_ptrINS_11__hash_nodeIS4_PvEENS_22__hash_node_destructorINSC_ISV_EEEEEEDpOT_, symObjAddr: 0x26A4, symBinAddr: 0x64E4, symSize: 0xA0 }
  - { offset: 0x2EB88, size: 0x8, addend: 0x0, symName: __ZNSt3__112__hash_tableINS_17__hash_value_typeIN5folly7dynamicES3_EENS_22__unordered_map_hasherIS3_S4_NS2_6detail13DynamicHasherENS6_15DynamicKeyEqualELb1EEENS_21__unordered_map_equalIS3_S4_S8_S7_Lb1EEENS_9allocatorIS4_EEE20__node_insert_uniqueEPNS_11__hash_nodeIS4_PvEE, symObjAddr: 0x2744, symBinAddr: 0x6584, symSize: 0x60 }
  - { offset: 0x2EC70, size: 0x8, addend: 0x0, symName: __ZNSt3__122__hash_node_destructorINS_9allocatorINS_11__hash_nodeINS_17__hash_value_typeIN5folly7dynamicES5_EEPvEEEEEclB8ne200100EPS8_, symObjAddr: 0x2CBC, symBinAddr: 0x6AFC, symSize: 0x4C }
  - { offset: 0x2F0E9, size: 0x8, addend: 0x0, symName: __ZNSt3__14pairIKN5folly7dynamicES2_EC2B8ne200100IJRNS_12basic_stringIcNS_11char_traitsIcEENS_9allocatorIcEEEEEJEJLm0EEJEEENS_21piecewise_construct_tERNS_5tupleIJDpT_EEERNSE_IJDpT0_EEENS_15__tuple_indicesIJXspT1_EEEENSN_IJXspT2_EEEE, symObjAddr: 0x27A4, symBinAddr: 0x65E4, symSize: 0x74 }
  - { offset: 0x2F398, size: 0x8, addend: 0x0, symName: __ZNSt3__112__hash_tableINS_17__hash_value_typeIN5folly7dynamicES3_EENS_22__unordered_map_hasherIS3_S4_NS2_6detail13DynamicHasherENS6_15DynamicKeyEqualELb1EEENS_21__unordered_map_equalIS3_S4_S8_S7_Lb1EEENS_9allocatorIS4_EEE28__node_insert_unique_prepareB8ne200100EmRS4_, symObjAddr: 0x2898, symBinAddr: 0x66D8, symSize: 0x144 }
  - { offset: 0x2F5E5, size: 0x8, addend: 0x0, symName: __ZNSt3__112__hash_tableINS_17__hash_value_typeIN5folly7dynamicES3_EENS_22__unordered_map_hasherIS3_S4_NS2_6detail13DynamicHasherENS6_15DynamicKeyEqualELb1EEENS_21__unordered_map_equalIS3_S4_S8_S7_Lb1EEENS_9allocatorIS4_EEE28__node_insert_unique_performB8ne200100EPNS_11__hash_nodeIS4_PvEE, symObjAddr: 0x29DC, symBinAddr: 0x681C, symSize: 0xB4 }
  - { offset: 0x2F651, size: 0x8, addend: 0x0, symName: __ZNSt3__112__hash_tableINS_17__hash_value_typeIN5folly7dynamicES3_EENS_22__unordered_map_hasherIS3_S4_NS2_6detail13DynamicHasherENS6_15DynamicKeyEqualELb1EEENS_21__unordered_map_equalIS3_S4_S8_S7_Lb1EEENS_9allocatorIS4_EEE28__node_insert_unique_performB8ne200100EPNS_11__hash_nodeIS4_PvEE, symObjAddr: 0x29DC, symBinAddr: 0x681C, symSize: 0xB4 }
  - { offset: 0x2F66E, size: 0x8, addend: 0x0, symName: __ZNSt3__112__hash_tableINS_17__hash_value_typeIN5folly7dynamicES3_EENS_22__unordered_map_hasherIS3_S4_NS2_6detail13DynamicHasherENS6_15DynamicKeyEqualELb1EEENS_21__unordered_map_equalIS3_S4_S8_S7_Lb1EEENS_9allocatorIS4_EEE28__node_insert_unique_performB8ne200100EPNS_11__hash_nodeIS4_PvEE, symObjAddr: 0x29DC, symBinAddr: 0x681C, symSize: 0xB4 }
  - { offset: 0x2F7E5, size: 0x8, addend: 0x0, symName: __ZNSt3__112basic_stringIcNS_11char_traitsIcEENS_9allocatorIcEEE25__init_copy_ctor_externalEPKcm, symObjAddr: 0x2818, symBinAddr: 0x6658, symSize: 0x80 }
  - { offset: 0x2F9C2, size: 0x8, addend: 0x0, symName: __ZNSt3__112__hash_tableINS_17__hash_value_typeIN5folly7dynamicES3_EENS_22__unordered_map_hasherIS3_S4_NS2_6detail13DynamicHasherENS6_15DynamicKeyEqualELb1EEENS_21__unordered_map_equalIS3_S4_S8_S7_Lb1EEENS_9allocatorIS4_EEE28__node_insert_unique_prepareB8ne200100EmRS4_, symObjAddr: 0x2898, symBinAddr: 0x66D8, symSize: 0x144 }
  - { offset: 0x2FACD, size: 0x8, addend: 0x0, symName: __ZNSt3__112__hash_tableINS_17__hash_value_typeIN5folly7dynamicES3_EENS_22__unordered_map_hasherIS3_S4_NS2_6detail13DynamicHasherENS6_15DynamicKeyEqualELb1EEENS_21__unordered_map_equalIS3_S4_S8_S7_Lb1EEENS_9allocatorIS4_EEE8__rehashILb1EEEvm, symObjAddr: 0x2A90, symBinAddr: 0x68D0, symSize: 0xDC }
  - { offset: 0x2FBCC, size: 0x8, addend: 0x0, symName: __ZNSt3__112__hash_tableINS_17__hash_value_typeIN5folly7dynamicES3_EENS_22__unordered_map_hasherIS3_S4_NS2_6detail13DynamicHasherENS6_15DynamicKeyEqualELb1EEENS_21__unordered_map_equalIS3_S4_S8_S7_Lb1EEENS_9allocatorIS4_EEE11__do_rehashILb1EEEvm, symObjAddr: 0x2B6C, symBinAddr: 0x69AC, symSize: 0x150 }
  - { offset: 0x2FFF2, size: 0x8, addend: 0x0, symName: __ZNSt3__122__hash_node_destructorINS_9allocatorINS_11__hash_nodeINS_17__hash_value_typeIN5folly7dynamicES5_EEPvEEEEEclB8ne200100EPS8_, symObjAddr: 0x2CBC, symBinAddr: 0x6AFC, symSize: 0x4C }
...
